
adc_1000.o:     file format elf32-littlearm


Disassembly of section .text:

00000000 <main>:
       0:	e05f000f 	subs	r0, pc, pc
       4:	e59fd000 	ldr	sp, [pc]	; c <val>
       8:	ea000000 	b	10 <next>

0000000c <val>:
       c:	000ffff0 	.word	0x000ffff0

00000010 <next>:
      10:	e59f1000 	ldr	r1, [pc]	; 18 <val1>
      14:	ea000000 	b	1c <next1>

00000018 <val1>:
      18:	c5a801e3 	.word	0xc5a801e3

0000001c <next1>:
      1c:	e59f2000 	ldr	r2, [pc]	; 24 <val2>
      20:	ea000000 	b	28 <next2>

00000024 <val2>:
      24:	80a7c5ab 	.word	0x80a7c5ab

00000028 <next2>:
      28:	e59f3000 	ldr	r3, [pc]	; 30 <val3>
      2c:	ea000000 	b	34 <next3>

00000030 <val3>:
      30:	c3fbb72f 	.word	0xc3fbb72f

00000034 <next3>:
      34:	e59f4000 	ldr	r4, [pc]	; 3c <val4>
      38:	ea000000 	b	40 <next4>

0000003c <val4>:
      3c:	e82a41cd 	.word	0xe82a41cd

00000040 <next4>:
      40:	e59f5000 	ldr	r5, [pc]	; 48 <val5>
      44:	ea000000 	b	4c <next5>

00000048 <val5>:
      48:	c34c9d55 	.word	0xc34c9d55

0000004c <next5>:
      4c:	e59f6000 	ldr	r6, [pc]	; 54 <val6>
      50:	ea000000 	b	58 <next6>

00000054 <val6>:
      54:	bdddb3f0 	.word	0xbdddb3f0

00000058 <next6>:
      58:	e59f7000 	ldr	r7, [pc]	; 60 <val7>
      5c:	ea000000 	b	64 <next7>

00000060 <val7>:
      60:	68e1f155 	.word	0x68e1f155

00000064 <next7>:
      64:	e59f8000 	ldr	r8, [pc]	; 6c <val8>
      68:	ea000000 	b	70 <next8>

0000006c <val8>:
      6c:	1d2c19f9 	.word	0x1d2c19f9

00000070 <next8>:
      70:	e59f9000 	ldr	r9, [pc]	; 78 <val9>
      74:	ea000000 	b	7c <next9>

00000078 <val9>:
      78:	01245b6f 	.word	0x01245b6f

0000007c <next9>:
      7c:	e59fa000 	ldr	sl, [pc]	; 84 <val10>
      80:	ea000000 	b	88 <next10>

00000084 <val10>:
      84:	418decea 	.word	0x418decea

00000088 <next10>:
      88:	e59fb000 	ldr	fp, [pc]	; 90 <val11>
      8c:	ea000000 	b	94 <next11>

00000090 <val11>:
      90:	27a92a95 	.word	0x27a92a95

00000094 <next11>:
      94:	e59fc000 	ldr	ip, [pc]	; 9c <val12>
      98:	ea000000 	b	a0 <next12>

0000009c <val12>:
      9c:	7cd31a4d 	.word	0x7cd31a4d

000000a0 <next12>:
      a0:	e59fe000 	ldr	lr, [pc]	; a8 <val14>
      a4:	ea000000 	b	ac <next14>

000000a8 <val14>:
      a8:	75e30e2f 	.word	0x75e30e2f

000000ac <next14>:
      ac:	e59f1000 	ldr	r1, [pc]	; b4 <val15>
      b0:	ea000000 	b	b8 <next15>

000000b4 <val15>:
      b4:	13cc5eed 	.word	0x13cc5eed

000000b8 <next15>:
      b8:	e58d1000 	str	r1, [sp]
      bc:	e59f1000 	ldr	r1, [pc]	; c4 <val16>
      c0:	ea000000 	b	c8 <next16>

000000c4 <val16>:
      c4:	9ce6a583 	.word	0x9ce6a583

000000c8 <next16>:
      c8:	e50d1004 	str	r1, [sp, #-4]
      cc:	e59f1000 	ldr	r1, [pc]	; d4 <val17>
      d0:	ea000000 	b	d8 <next17>

000000d4 <val17>:
      d4:	04d49017 	.word	0x04d49017

000000d8 <next17>:
      d8:	e50d1008 	str	r1, [sp, #-8]
      dc:	e59f1000 	ldr	r1, [pc]	; e4 <val18>
      e0:	ea000000 	b	e8 <next18>

000000e4 <val18>:
      e4:	8e7d4580 	.word	0x8e7d4580

000000e8 <next18>:
      e8:	e50d100c 	str	r1, [sp, #-12]
      ec:	e59f1000 	ldr	r1, [pc]	; f4 <val19>
      f0:	ea000000 	b	f8 <next19>

000000f4 <val19>:
      f4:	8025c3e7 	.word	0x8025c3e7

000000f8 <next19>:
      f8:	e50d1010 	str	r1, [sp, #-16]
      fc:	e59f1000 	ldr	r1, [pc]	; 104 <val20>
     100:	ea000000 	b	108 <next20>

00000104 <val20>:
     104:	34882806 	.word	0x34882806

00000108 <next20>:
     108:	e50d1014 	str	r1, [sp, #-20]
     10c:	e59f1000 	ldr	r1, [pc]	; 114 <val21>
     110:	ea000000 	b	118 <next21>

00000114 <val21>:
     114:	21e6f844 	.word	0x21e6f844

00000118 <next21>:
     118:	e50d1018 	str	r1, [sp, #-24]
     11c:	e59f1000 	ldr	r1, [pc]	; 124 <val22>
     120:	ea000000 	b	128 <next22>

00000124 <val22>:
     124:	febec50b 	.word	0xfebec50b

00000128 <next22>:
     128:	e50d101c 	str	r1, [sp, #-28]
     12c:	e59f1000 	ldr	r1, [pc]	; 134 <val23>
     130:	ea000000 	b	138 <next23>

00000134 <val23>:
     134:	f449b8d6 	.word	0xf449b8d6

00000138 <next23>:
     138:	e50d1020 	str	r1, [sp, #-32]
     13c:	e59f1000 	ldr	r1, [pc]	; 144 <val24>
     140:	ea000000 	b	148 <next24>

00000144 <val24>:
     144:	5a8c49aa 	.word	0x5a8c49aa

00000148 <next24>:
     148:	e50d1024 	str	r1, [sp, #-36]	; 0x24
     14c:	e59f1000 	ldr	r1, [pc]	; 154 <val25>
     150:	ea000000 	b	158 <next25>

00000154 <val25>:
     154:	48b473aa 	.word	0x48b473aa

00000158 <next25>:
     158:	e50d1028 	str	r1, [sp, #-40]	; 0x28
     15c:	e59f1000 	ldr	r1, [pc]	; 164 <val26>
     160:	ea000000 	b	168 <next26>

00000164 <val26>:
     164:	bf1c5322 	.word	0xbf1c5322

00000168 <next26>:
     168:	e50d102c 	str	r1, [sp, #-44]	; 0x2c
     16c:	e59f1000 	ldr	r1, [pc]	; 174 <val27>
     170:	ea000000 	b	178 <next27>

00000174 <val27>:
     174:	7487d765 	.word	0x7487d765

00000178 <next27>:
     178:	e50d1030 	str	r1, [sp, #-48]	; 0x30
     17c:	e59f1000 	ldr	r1, [pc]	; 184 <val28>
     180:	ea000000 	b	188 <next28>

00000184 <val28>:
     184:	2c2c487b 	.word	0x2c2c487b

00000188 <next28>:
     188:	e50d1034 	str	r1, [sp, #-52]	; 0x34
     18c:	e59f1000 	ldr	r1, [pc]	; 194 <val29>
     190:	ea000000 	b	198 <next29>

00000194 <val29>:
     194:	bce11769 	.word	0xbce11769

00000198 <next29>:
     198:	e50d1038 	str	r1, [sp, #-56]	; 0x38
     19c:	e59f1000 	ldr	r1, [pc]	; 1a4 <val30>
     1a0:	ea000000 	b	1a8 <next30>

000001a4 <val30>:
     1a4:	ca5d8193 	.word	0xca5d8193

000001a8 <next30>:
     1a8:	e50d103c 	str	r1, [sp, #-60]	; 0x3c
     1ac:	e59f1000 	ldr	r1, [pc]	; 1b4 <val31>
     1b0:	ea000000 	b	1b8 <next31>

000001b4 <val31>:
     1b4:	77dc8fc8 	.word	0x77dc8fc8

000001b8 <next31>:
     1b8:	e50d1040 	str	r1, [sp, #-64]	; 0x40
     1bc:	e59f1000 	ldr	r1, [pc]	; 1c4 <val32>
     1c0:	ea000000 	b	1c8 <next32>

000001c4 <val32>:
     1c4:	71965d7c 	.word	0x71965d7c

000001c8 <next32>:
     1c8:	e50d1044 	str	r1, [sp, #-68]	; 0x44
     1cc:	e59f1000 	ldr	r1, [pc]	; 1d4 <val33>
     1d0:	ea000000 	b	1d8 <next33>

000001d4 <val33>:
     1d4:	ead85d03 	.word	0xead85d03

000001d8 <next33>:
     1d8:	e50d1048 	str	r1, [sp, #-72]	; 0x48
     1dc:	e59f1000 	ldr	r1, [pc]	; 1e4 <val34>
     1e0:	ea000000 	b	1e8 <next34>

000001e4 <val34>:
     1e4:	f2eebabb 	.word	0xf2eebabb

000001e8 <next34>:
     1e8:	e50d104c 	str	r1, [sp, #-76]	; 0x4c
     1ec:	e59f1000 	ldr	r1, [pc]	; 1f4 <val35>
     1f0:	ea000000 	b	1f8 <next35>

000001f4 <val35>:
     1f4:	39a33cdc 	.word	0x39a33cdc

000001f8 <next35>:
     1f8:	e50d1050 	str	r1, [sp, #-80]	; 0x50

000001fc <l1>:
     1fc:	80be206e 	adcshi	r2, lr, lr, rrx

00000200 <l2>:
     200:	10ac40a6 	adcne	r4, ip, r6, lsr #1

00000204 <l3>:
     204:	c0b42064 	adcsgt	r2, r4, r4, rrx

00000208 <l4>:
     208:	b0bc800a 	adcslt	r8, ip, sl

0000020c <l5>:
     20c:	e2be24c3 	adcs	r2, lr, #-1023410176	; 0xc3000000

00000210 <l6>:
     210:	92bc509a 	adcsls	r5, ip, #154	; 0x9a

00000214 <l7>:
     214:	90bce007 	adcsls	lr, ip, r7

00000218 <l8>:
     218:	e0aa352b 	adc	r3, sl, fp, lsr #10

0000021c <l9>:
     21c:	e0b4e5c2 	adcs	lr, r4, r2, asr #11

00000220 <l10>:
     220:	e2b883f7 	adcs	r8, r8, #-603979773	; 0xdc000003

00000224 <l11>:
     224:	50a50a79 	adcpl	r0, r5, r9, ror sl

00000228 <l12>:
     228:	70aab001 	adcvc	fp, sl, r1

0000022c <l13>:
     22c:	60afa004 	adcvs	sl, pc, r4

00000230 <l14>:
     230:	30a0800b 	adccc	r8, r0, fp

00000234 <l15>:
     234:	b2a87bab 	adclt	r7, r8, #175104	; 0x2ac00

00000238 <l16>:
     238:	e0a16068 	adc	r6, r1, r8, rrx

0000023c <l17>:
     23c:	b0bf4084 	adcslt	r4, pc, r4, lsl #1

00000240 <l18>:
     240:	e0a82002 	adc	r2, r8, r2

00000244 <l19>:
     244:	a0b74000 	adcsge	r4, r7, r0

00000248 <l20>:
     248:	e0ae4576 	adc	r4, lr, r6, ror r5

0000024c <l21>:
     24c:	a0b1ea11 	adcsge	lr, r1, r1, lsl sl

00000250 <l22>:
     250:	52b55c5e 	adcspl	r5, r5, #24064	; 0x5e00

00000254 <l23>:
     254:	b0a54924 	adclt	r4, r5, r4, lsr #18

00000258 <l24>:
     258:	e0ae200c 	adc	r2, lr, ip

0000025c <l25>:
     25c:	10a12a15 	adcne	r2, r1, r5, lsl sl

00000260 <l26>:
     260:	30b5ae5e 	adcscc	sl, r5, lr, asr lr

00000264 <l27>:
     264:	a0b95062 	adcsge	r5, r9, r2, rrx

00000268 <l28>:
     268:	e0b3ab80 	adcs	sl, r3, r0, lsl #23

0000026c <l29>:
     26c:	e0ab200c 	adc	r2, fp, ip

00000270 <l30>:
     270:	40a819eb 	adcmi	r1, r8, fp, ror #19

00000274 <l31>:
     274:	e0a2177a 	adc	r1, r2, sl, ror r7

00000278 <l32>:
     278:	e2a11014 	adc	r1, r1, #20

0000027c <l33>:
     27c:	e0b5906f 	adcs	r9, r5, pc, rrx

00000280 <l34>:
     280:	e0b69b5c 	adcs	r9, r6, ip, asr fp

00000284 <l35>:
     284:	90ba5a7b 	adcsls	r5, sl, fp, ror sl

00000288 <l36>:
     288:	02b8a613 	adcseq	sl, r8, #19922944	; 0x1300000

0000028c <l37>:
     28c:	70ae200c 	adcvc	r2, lr, ip

00000290 <l38>:
     290:	e0bc400f 	adcs	r4, ip, pc

00000294 <l39>:
     294:	a0bf500e 	adcsge	r5, pc, lr

00000298 <l40>:
     298:	a2b22a5b 	adcsge	r2, r2, #372736	; 0x5b000

0000029c <l41>:
     29c:	e0b07063 	adcs	r7, r0, r3, rrx

000002a0 <l42>:
     2a0:	b0a1791a 	adclt	r7, r1, sl, lsl r9

000002a4 <l43>:
     2a4:	40ae0000 	adcmi	r0, lr, r0

000002a8 <l44>:
     2a8:	e0be000c 	adcs	r0, lr, ip

000002ac <l45>:
     2ac:	d0b3e004 	adcsle	lr, r3, r4

000002b0 <l46>:
     2b0:	d0a96ee8 	adcle	r6, r9, r8, ror #29

000002b4 <l47>:
     2b4:	e2bcbb2f 	adcs	fp, ip, #48128	; 0xbc00

000002b8 <l48>:
     2b8:	e0a98063 	adc	r8, r9, r3, rrx

000002bc <l49>:
     2bc:	c0a6006f 	adcgt	r0, r6, pc, rrx

000002c0 <l50>:
     2c0:	82bb427e 	adcshi	r4, fp, #-536870905	; 0xe0000007

000002c4 <l51>:
     2c4:	e0b7e003 	adcs	lr, r7, r3

000002c8 <l52>:
     2c8:	e2b75be7 	adcs	r5, r7, #236544	; 0x39c00

000002cc <l53>:
     2cc:	e0a4905e 	adc	r9, r4, lr, asr r0

000002d0 <l54>:
     2d0:	20b3200e 	adcscs	r2, r3, lr

000002d4 <l55>:
     2d4:	d0bf3be6 	adcsle	r3, pc, r6, ror #23

000002d8 <l56>:
     2d8:	60a79c7e 	adcvs	r9, r7, lr, ror ip

000002dc <l57>:
     2dc:	e0b18006 	adcs	r8, r1, r6

000002e0 <l58>:
     2e0:	e0b4cc77 	adcs	ip, r4, r7, ror ip

000002e4 <l59>:
     2e4:	80afa00e 	adchi	sl, pc, lr

000002e8 <l60>:
     2e8:	b0b06ea6 	adcslt	r6, r0, r6, lsr #29

000002ec <l61>:
     2ec:	80b9b001 	adcshi	fp, r9, r1

000002f0 <l62>:
     2f0:	e0b48008 	adcs	r8, r4, r8

000002f4 <l63>:
     2f4:	b2b92e1a 	adcslt	r2, r9, #416	; 0x1a0

000002f8 <l64>:
     2f8:	60af0dc2 	adcvs	r0, pc, r2, asr #27

000002fc <l65>:
     2fc:	e0a0300a 	adc	r3, r0, sl

00000300 <l66>:
     300:	e0ae8009 	adc	r8, lr, r9

00000304 <l67>:
     304:	e0ba013b 	adcs	r0, sl, fp, lsr r1

00000308 <l68>:
     308:	e0b96835 	adcs	r6, r9, r5, lsr r8

0000030c <l69>:
     30c:	d0afc060 	adcle	ip, pc, r0, rrx

00000310 <l70>:
     310:	40a74004 	adcmi	r4, r7, r4

00000314 <l71>:
     314:	e0bbbb1e 	adcs	fp, fp, lr, lsl fp

00000318 <l72>:
     318:	e0b26cae 	adcs	r6, r2, lr, lsr #25

0000031c <l73>:
     31c:	40b68001 	adcsmi	r8, r6, r1

00000320 <l74>:
     320:	50a32000 	adcpl	r2, r3, r0

00000324 <l75>:
     324:	12a68cd1 	adcne	r8, r6, #53504	; 0xd100

00000328 <l76>:
     328:	50b33004 	adcspl	r3, r3, r4

0000032c <l77>:
     32c:	30a76004 	adccc	r6, r7, r4

00000330 <l78>:
     330:	90a8975a 	adcls	r9, r8, sl, asr r7

00000334 <l79>:
     334:	e2a1ec41 	adc	lr, r1, #16640	; 0x4100

00000338 <l80>:
     338:	d0a06866 	adcle	r6, r0, r6, ror #16

0000033c <l81>:
     33c:	e0b0900b 	adcs	r9, r0, fp

00000340 <l82>:
     340:	e0b2900e 	adcs	r9, r2, lr

00000344 <l83>:
     344:	e2bca7cb 	adcs	sl, ip, #53215232	; 0x32c0000

00000348 <l84>:
     348:	e0a3106b 	adc	r1, r3, fp, rrx

0000034c <l85>:
     34c:	d0a68240 	adcle	r8, r6, r0, asr #4

00000350 <l86>:
     350:	e2a91c52 	adc	r1, r9, #20992	; 0x5200

00000354 <l87>:
     354:	e0b6ca72 	adcs	ip, r6, r2, ror sl

00000358 <l88>:
     358:	e0be1d27 	adcs	r1, lr, r7, lsr #26

0000035c <l89>:
     35c:	e0b6cc4a 	adcs	ip, r6, sl, asr #24

00000360 <l90>:
     360:	d0be2030 	adcsle	r2, lr, r0, lsr r0

00000364 <l91>:
     364:	32b8c60a 	adcscc	ip, r8, #10485760	; 0xa00000

00000368 <l92>:
     368:	e0b3b00f 	adcs	fp, r3, pc

0000036c <l93>:
     36c:	20b4a00b 	adcscs	sl, r4, fp

00000370 <l94>:
     370:	10af0402 	adcne	r0, pc, r2, lsl #8

00000374 <l95>:
     374:	e2be2a25 	adcs	r2, lr, #151552	; 0x25000

00000378 <l96>:
     378:	a0b9e236 	adcsge	lr, r9, r6, lsr r2

0000037c <l97>:
     37c:	82ac7501 	adchi	r7, ip, #4194304	; 0x400000

00000380 <l98>:
     380:	80ab0f69 	adchi	r0, fp, r9, ror #30

00000384 <l99>:
     384:	90ba2006 	adcsls	r2, sl, r6

00000388 <l100>:
     388:	82a7e004 	adchi	lr, r7, #4

0000038c <l101>:
     38c:	e0afcfae 	adc	ip, pc, lr, lsr #31

00000390 <l102>:
     390:	e2a263cd 	adc	r6, r2, #872415235	; 0x34000003

00000394 <l103>:
     394:	22bf618b 	adcscs	r6, pc, #-1073741790	; 0xc0000022

00000398 <l104>:
     398:	72a14fef 	adcvc	r4, r1, #956	; 0x3bc

0000039c <l105>:
     39c:	10b6e3a1 	adcsne	lr, r6, r1, lsr #7

000003a0 <l106>:
     3a0:	30a0e516 	adccc	lr, r0, r6, lsl r5

000003a4 <l107>:
     3a4:	00b68003 	adcseq	r8, r6, r3

000003a8 <l108>:
     3a8:	30a5b003 	adccc	fp, r5, r3

000003ac <l109>:
     3ac:	70b730e8 	adcsvc	r3, r7, r8, ror #1

000003b0 <l110>:
     3b0:	e0b58b11 	adcs	r8, r5, r1, lsl fp

000003b4 <l111>:
     3b4:	b2a1bd0b 	adclt	fp, r1, #704	; 0x2c0

000003b8 <l112>:
     3b8:	50af9061 	adcpl	r9, pc, r1, rrx

000003bc <l113>:
     3bc:	e0a62010 	adc	r2, r6, r0, lsl r0

000003c0 <l114>:
     3c0:	e0af5063 	adc	r5, pc, r3, rrx

000003c4 <l115>:
     3c4:	e0a22f4c 	adc	r2, r2, ip, asr #30

000003c8 <l116>:
     3c8:	e0a7800c 	adc	r8, r7, ip

000003cc <l117>:
     3cc:	e2bc6fa3 	adcs	r6, ip, #652	; 0x28c

000003d0 <l118>:
     3d0:	80a7503b 	adchi	r5, r7, fp, lsr r0

000003d4 <l119>:
     3d4:	e0b67005 	adcs	r7, r6, r5

000003d8 <l120>:
     3d8:	00bc2784 	adcseq	r2, ip, r4, lsl #15

000003dc <l121>:
     3dc:	e0a6948a 	adc	r9, r6, sl, lsl #9

000003e0 <l122>:
     3e0:	80b7bbc0 	adcshi	fp, r7, r0, asr #23

000003e4 <l123>:
     3e4:	a0a36009 	adcge	r6, r3, r9

000003e8 <l124>:
     3e8:	e0b1e378 	adcs	lr, r1, r8, ror r3

000003ec <l125>:
     3ec:	00af6003 	adceq	r6, pc, r3

000003f0 <l126>:
     3f0:	e0af6005 	adc	r6, pc, r5

000003f4 <l127>:
     3f4:	00b3a288 	adcseq	sl, r3, r8, lsl #5

000003f8 <l128>:
     3f8:	e0a8c009 	adc	ip, r8, r9

000003fc <l129>:
     3fc:	d0b15605 	adcsle	r5, r1, r5, lsl #12

00000400 <l130>:
     400:	e0aec003 	adc	ip, lr, r3

00000404 <l131>:
     404:	b0af118c 	adclt	r1, pc, ip, lsl #3

00000408 <l132>:
     408:	b0b6500c 	adcslt	r5, r6, ip

0000040c <l133>:
     40c:	e0af0009 	adc	r0, pc, r9

00000410 <l134>:
     410:	00b86001 	adcseq	r6, r8, r1

00000414 <l135>:
     414:	e2bb347f 	adcs	r3, fp, #2130706432	; 0x7f000000

00000418 <l136>:
     418:	50a84819 	adcpl	r4, r8, r9, lsl r8

0000041c <l137>:
     41c:	e0a3353a 	adc	r3, r3, sl, lsr r5

00000420 <l138>:
     420:	a2acab8f 	adcge	sl, ip, #146432	; 0x23c00

00000424 <l139>:
     424:	e0b8c003 	adcs	ip, r8, r3

00000428 <l140>:
     428:	40a30060 	adcmi	r0, r3, r0, rrx

0000042c <l141>:
     42c:	e0b35707 	adcs	r5, r3, r7, lsl #14

00000430 <l142>:
     430:	40a1c005 	adcmi	ip, r1, r5

00000434 <l143>:
     434:	40be4fc2 	adcsmi	r4, lr, r2, asr #31

00000438 <l144>:
     438:	00b93836 	adcseq	r3, r9, r6, lsr r8

0000043c <l145>:
     43c:	70b68001 	adcsvc	r8, r6, r1

00000440 <l146>:
     440:	c2a6b12e 	adcgt	fp, r6, #-2147483637	; 0x8000000b

00000444 <l147>:
     444:	e0b7b817 	adcs	fp, r7, r7, lsl r8

00000448 <l148>:
     448:	a0abc003 	adcge	ip, fp, r3

0000044c <l149>:
     44c:	50beb06f 	adcspl	fp, lr, pc, rrx

00000450 <l150>:
     450:	32a8a8c9 	adccc	sl, r8, #13172736	; 0xc90000

00000454 <l151>:
     454:	50a2044a 	adcpl	r0, r2, sl, asr #8

00000458 <l152>:
     458:	90b8300f 	adcsls	r3, r8, pc

0000045c <l153>:
     45c:	12bf8e9b 	adcsne	r8, pc, #2480	; 0x9b0

00000460 <l154>:
     460:	20b35674 	adcscs	r5, r3, r4, ror r6

00000464 <l155>:
     464:	10bba001 	adcsne	sl, fp, r1

00000468 <l156>:
     468:	52aec372 	adcpl	ip, lr, #-939524095	; 0xc8000001

0000046c <l157>:
     46c:	e0b9bc2e 	adcs	fp, r9, lr, lsr #24

00000470 <l158>:
     470:	e0b12005 	adcs	r2, r1, r5

00000474 <l159>:
     474:	e0bf4a4c 	adcs	r4, pc, ip, asr #20

00000478 <l160>:
     478:	e0a18001 	adc	r8, r1, r1

0000047c <l161>:
     47c:	40a7300e 	adcmi	r3, r7, lr

00000480 <l162>:
     480:	30bc800b 	adcscc	r8, ip, fp

00000484 <l163>:
     484:	e0a577a8 	adc	r7, r5, r8, lsr #15

00000488 <l164>:
     488:	c0bf2068 	adcsgt	r2, pc, r8, rrx

0000048c <l165>:
     48c:	e2aac2cd 	adc	ip, sl, #-805306356	; 0xd000000c

00000490 <l166>:
     490:	e2ac277b 	adc	r2, ip, #32243712	; 0x1ec0000

00000494 <l167>:
     494:	22a52571 	adccs	r2, r5, #473956352	; 0x1c400000

00000498 <l168>:
     498:	e0ac7523 	adc	r7, ip, r3, lsr #10

0000049c <l169>:
     49c:	00a1a83a 	adceq	sl, r1, sl, lsr r8

000004a0 <l170>:
     4a0:	e0a9c004 	adc	ip, r9, r4

000004a4 <l171>:
     4a4:	50b44063 	adcspl	r4, r4, r3, rrx

000004a8 <l172>:
     4a8:	32bc1b03 	adcscc	r1, ip, #3072	; 0xc00

000004ac <l173>:
     4ac:	e2af50dc 	adc	r5, pc, #220	; 0xdc

000004b0 <l174>:
     4b0:	30b17581 	adcscc	r7, r1, r1, lsl #11

000004b4 <l175>:
     4b4:	e0a24c51 	adc	r4, r2, r1, asr ip

000004b8 <l176>:
     4b8:	e0a7c008 	adc	ip, r7, r8

000004bc <l177>:
     4bc:	e2a0c10f 	adc	ip, r0, #-1073741821	; 0xc0000003

000004c0 <l178>:
     4c0:	e0b10052 	adcs	r0, r1, r2, asr r0

000004c4 <l179>:
     4c4:	a2b14c2b 	adcsge	r4, r1, #11008	; 0x2b00

000004c8 <l180>:
     4c8:	b0b96064 	adcslt	r6, r9, r4, rrx

000004cc <l181>:
     4cc:	10a28002 	adcne	r8, r2, r2

000004d0 <l182>:
     4d0:	e2a26335 	adc	r6, r2, #-738197504	; 0xd4000000

000004d4 <l183>:
     4d4:	e0ac2c6b 	adc	r2, ip, fp, ror #24

000004d8 <l184>:
     4d8:	20abb007 	adccs	fp, fp, r7

000004dc <l185>:
     4dc:	d2b33d3d 	adcsle	r3, r3, #3904	; 0xf40

000004e0 <l186>:
     4e0:	e0a91061 	adc	r1, r9, r1, rrx

000004e4 <l187>:
     4e4:	e0b2eda9 	adcs	lr, r2, r9, lsr #27

000004e8 <l188>:
     4e8:	60ab731b 	adcvs	r7, fp, fp, lsl r3

000004ec <l189>:
     4ec:	60a20061 	adcvs	r0, r2, r1, rrx

000004f0 <l190>:
     4f0:	70a0c85e 	adcvc	ip, r0, lr, asr r8

000004f4 <l191>:
     4f4:	e0a30065 	adc	r0, r3, r5, rrx

000004f8 <l192>:
     4f8:	e0a98011 	adc	r8, r9, r1, lsl r0

000004fc <l193>:
     4fc:	10a1300c 	adcne	r3, r1, ip

00000500 <l194>:
     500:	e0b8700c 	adcs	r7, r8, ip

00000504 <l195>:
     504:	10a93609 	adcne	r3, r9, r9, lsl #12

00000508 <l196>:
     508:	30aac008 	adccc	ip, sl, r8

0000050c <l197>:
     50c:	72a8b7b9 	adcvc	fp, r8, #48496640	; 0x2e40000

00000510 <l198>:
     510:	e0ab6219 	adc	r6, fp, r9, lsl r2

00000514 <l199>:
     514:	90af0284 	adcls	r0, pc, r4, lsl #5

00000518 <l200>:
     518:	b2bac105 	adcslt	ip, sl, #1073741825	; 0x40000001

0000051c <l201>:
     51c:	e2a20f76 	adc	r0, r2, #472	; 0x1d8

00000520 <l202>:
     520:	e0b9500f 	adcs	r5, r9, pc

00000524 <l203>:
     524:	70bcc965 	adcsvc	ip, ip, r5, ror #18

00000528 <l204>:
     528:	e0b68de5 	adcs	r8, r6, r5, ror #27

0000052c <l205>:
     52c:	b0b12005 	adcslt	r2, r1, r5

00000530 <l206>:
     530:	b0ab9e85 	adclt	r9, fp, r5, lsl #29

00000534 <l207>:
     534:	92bf1519 	adcsls	r1, pc, #104857600	; 0x6400000

00000538 <l208>:
     538:	80a2a007 	adchi	sl, r2, r7

0000053c <l209>:
     53c:	e2ac785b 	adc	r7, ip, #5963776	; 0x5b0000

00000540 <l210>:
     540:	52b127bd 	adcspl	r2, r1, #49545216	; 0x2f40000

00000544 <l211>:
     544:	e0b6400b 	adcs	r4, r6, fp

00000548 <l212>:
     548:	a0a04001 	adcge	r4, r0, r1

0000054c <l213>:
     54c:	e2a7c0c1 	adc	ip, r7, #193	; 0xc1

00000550 <l214>:
     550:	90a9573c 	adcls	r5, r9, ip, lsr r7

00000554 <l215>:
     554:	22a5a332 	adccs	sl, r5, #-939524096	; 0xc8000000

00000558 <l216>:
     558:	92a0a33d 	adcls	sl, r0, #-201326592	; 0xf4000000

0000055c <l217>:
     55c:	c2af000d 	adcgt	r0, pc, #13

00000560 <l218>:
     560:	e0bc4005 	adcs	r4, ip, r5

00000564 <l219>:
     564:	30b9c322 	adcscc	ip, r9, r2, lsr #6

00000568 <l220>:
     568:	00b72931 	adcseq	r2, r7, r1, lsr r9

0000056c <l221>:
     56c:	b0b26c3c 	adcslt	r6, r2, ip, lsr ip

00000570 <l222>:
     570:	80b46c2c 	adcshi	r6, r4, ip, lsr #24

00000574 <l223>:
     574:	e0b8c065 	adcs	ip, r8, r5, rrx

00000578 <l224>:
     578:	e0a3a715 	adc	sl, r3, r5, lsl r7

0000057c <l225>:
     57c:	50a4e006 	adcpl	lr, r4, r6

00000580 <l226>:
     580:	e2b7cde1 	adcs	ip, r7, #14400	; 0x3840

00000584 <l227>:
     584:	d0b543e8 	adcsle	r4, r5, r8, ror #7

00000588 <l228>:
     588:	a0b7575a 	adcsge	r5, r7, sl, asr r7

0000058c <l229>:
     58c:	e0a35a34 	adc	r5, r3, r4, lsr sl

00000590 <l230>:
     590:	e0afe889 	adc	lr, pc, r9, lsl #17

00000594 <l231>:
     594:	c0ac1a15 	adcgt	r1, ip, r5, lsl sl

00000598 <l232>:
     598:	40a6800b 	adcmi	r8, r6, fp

0000059c <l233>:
     59c:	10a48449 	adcne	r8, r4, r9, asr #8

000005a0 <l234>:
     5a0:	40ae1233 	adcmi	r1, lr, r3, lsr r2

000005a4 <l235>:
     5a4:	e0ac800c 	adc	r8, ip, ip

000005a8 <l236>:
     5a8:	e0b71066 	adcs	r1, r7, r6, rrx

000005ac <l237>:
     5ac:	c2ac94c1 	adcgt	r9, ip, #-1056964608	; 0xc1000000

000005b0 <l238>:
     5b0:	30a7400a 	adccc	r4, r7, sl

000005b4 <l239>:
     5b4:	e0bb2000 	adcs	r2, fp, r0

000005b8 <l240>:
     5b8:	e0af600a 	adc	r6, pc, sl

000005bc <l241>:
     5bc:	a2a2534e 	adcge	r5, r2, #939524097	; 0x38000001

000005c0 <l242>:
     5c0:	50bc2003 	adcspl	r2, ip, r3

000005c4 <l243>:
     5c4:	e0a83bcf 	adc	r3, r8, pc, asr #23

000005c8 <l244>:
     5c8:	10a88005 	adcne	r8, r8, r5

000005cc <l245>:
     5cc:	e0a38c6b 	adc	r8, r3, fp, ror #24

000005d0 <l246>:
     5d0:	a0a02e33 	adcge	r2, r0, r3, lsr lr

000005d4 <l247>:
     5d4:	42aa9b07 	adcmi	r9, sl, #7168	; 0x1c00

000005d8 <l248>:
     5d8:	62b488bb 	adcsvs	r8, r4, #12255232	; 0xbb0000

000005dc <l249>:
     5dc:	e0abe005 	adc	lr, fp, r5

000005e0 <l250>:
     5e0:	d0a42000 	adcle	r2, r4, r0

000005e4 <l251>:
     5e4:	12a49fc6 	adcne	r9, r4, #792	; 0x318

000005e8 <l252>:
     5e8:	60b64007 	adcsvs	r4, r6, r7

000005ec <l253>:
     5ec:	e0ba9009 	adcs	r9, sl, r9

000005f0 <l254>:
     5f0:	e0a88003 	adc	r8, r8, r3

000005f4 <l255>:
     5f4:	e0ab3008 	adc	r3, fp, r8

000005f8 <l256>:
     5f8:	00b91064 	adcseq	r1, r9, r4, rrx

000005fc <l257>:
     5fc:	e0ac62a6 	adc	r6, ip, r6, lsr #5

00000600 <l258>:
     600:	90bf1e88 	adcsls	r1, pc, r8, lsl #29

00000604 <l259>:
     604:	30b16b1e 	adcscc	r6, r1, lr, lsl fp

00000608 <l260>:
     608:	22b3ce13 	adcscs	ip, r3, #304	; 0x130

0000060c <l261>:
     60c:	60be2b05 	adcsvs	r2, lr, r5, lsl #22

00000610 <l262>:
     610:	e0a08008 	adc	r8, r0, r8

00000614 <l263>:
     614:	e0b2506a 	adcs	r5, r2, sl, rrx

00000618 <l264>:
     618:	30a96313 	adccc	r6, r9, r3, lsl r3

0000061c <l265>:
     61c:	90ac806c 	adcls	r8, ip, ip, rrx

00000620 <l266>:
     620:	92a16e2d 	adcls	r6, r1, #720	; 0x2d0

00000624 <l267>:
     624:	b0aeb004 	adclt	fp, lr, r4

00000628 <l268>:
     628:	e2bf49ad 	adcs	r4, pc, #2834432	; 0x2b4000

0000062c <l269>:
     62c:	b0ba1e39 	adcslt	r1, sl, r9, lsr lr

00000630 <l270>:
     630:	e0a515c0 	adc	r1, r5, r0, asr #11

00000634 <l271>:
     634:	e2a1b6c3 	adc	fp, r1, #204472320	; 0xc300000

00000638 <l272>:
     638:	e2b62abf 	adcs	r2, r6, #782336	; 0xbf000

0000063c <l273>:
     63c:	e0b40003 	adcs	r0, r4, r3

00000640 <l274>:
     640:	42b16fae 	adcsmi	r6, r1, #696	; 0x2b8

00000644 <l275>:
     644:	e0be100a 	adcs	r1, lr, sl

00000648 <l276>:
     648:	b2b2c8a2 	adcslt	ip, r2, #10616832	; 0xa20000

0000064c <l277>:
     64c:	12beaa5d 	adcsne	sl, lr, #380928	; 0x5d000

00000650 <l278>:
     650:	62a67cd7 	adcvs	r7, r6, #55040	; 0xd700

00000654 <l279>:
     654:	e2b7e611 	adcs	lr, r7, #17825792	; 0x1100000

00000658 <l280>:
     658:	00a50003 	adceq	r0, r5, r3

0000065c <l281>:
     65c:	e0b7600f 	adcs	r6, r7, pc

00000660 <l282>:
     660:	32bebc2f 	adcscc	fp, lr, #12032	; 0x2f00

00000664 <l283>:
     664:	d0bca06b 	adcsle	sl, ip, fp, rrx

00000668 <l284>:
     668:	60a9900b 	adcvs	r9, r9, fp

0000066c <l285>:
     66c:	70b2e066 	adcsvc	lr, r2, r6, rrx

00000670 <l286>:
     670:	e0a3758b 	adc	r7, r3, fp, lsl #11

00000674 <l287>:
     674:	a0b92984 	adcsge	r2, r9, r4, lsl #19

00000678 <l288>:
     678:	00a46356 	adceq	r6, r4, r6, asr r3

0000067c <l289>:
     67c:	c0b1c002 	adcsgt	ip, r1, r2

00000680 <l290>:
     680:	e0a7ec38 	adc	lr, r7, r8, lsr ip

00000684 <l291>:
     684:	e0ba50c4 	adcs	r5, sl, r4, asr #1

00000688 <l292>:
     688:	e0a64ae2 	adc	r4, r6, r2, ror #21

0000068c <l293>:
     68c:	d0a74215 	adcle	r4, r7, r5, lsl r2

00000690 <l294>:
     690:	e0bc918f 	adcs	r9, ip, pc, lsl #3

00000694 <l295>:
     694:	c0b59009 	adcsgt	r9, r5, r9

00000698 <l296>:
     698:	e2ba87e6 	adcs	r8, sl, #60293120	; 0x3980000

0000069c <l297>:
     69c:	30b64000 	adcscc	r4, r6, r0

000006a0 <l298>:
     6a0:	22b15a02 	adcscs	r5, r1, #8192	; 0x2000

000006a4 <l299>:
     6a4:	40ba3287 	adcsmi	r3, sl, r7, lsl #5

000006a8 <l300>:
     6a8:	40a27009 	adcmi	r7, r2, r9

000006ac <l301>:
     6ac:	a0b5700b 	adcsge	r7, r5, fp

000006b0 <l302>:
     6b0:	e2bb2902 	adcs	r2, fp, #32768	; 0x8000

000006b4 <l303>:
     6b4:	c2a31c41 	adcgt	r1, r3, #16640	; 0x4100

000006b8 <l304>:
     6b8:	b2a8b20a 	adclt	fp, r8, #-1610612736	; 0xa0000000

000006bc <l305>:
     6bc:	00b5a1ea 	adcseq	sl, r5, sl, ror #3

000006c0 <l306>:
     6c0:	e0ae0f01 	adc	r0, lr, r1, lsl #30

000006c4 <l307>:
     6c4:	70b7106a 	adcsvc	r1, r7, sl, rrx

000006c8 <l308>:
     6c8:	00a5247a 	adceq	r2, r5, sl, ror r4

000006cc <l309>:
     6cc:	e0b3203c 	adcs	r2, r3, ip, lsr r0

000006d0 <l310>:
     6d0:	82ab9337 	adchi	r9, fp, #-603979776	; 0xdc000000

000006d4 <l311>:
     6d4:	d0a67913 	adcle	r7, r6, r3, lsl r9

000006d8 <l312>:
     6d8:	50a5a06b 	adcpl	sl, r5, fp, rrx

000006dc <l313>:
     6dc:	b2b80c32 	adcslt	r0, r8, #12800	; 0x3200

000006e0 <l314>:
     6e0:	e0b97261 	adcs	r7, r9, r1, ror #4

000006e4 <l315>:
     6e4:	30a0206a 	adccc	r2, r0, sl, rrx

000006e8 <l316>:
     6e8:	c0be6718 	adcsgt	r6, lr, r8, lsl r7

000006ec <l317>:
     6ec:	d2a1a776 	adcle	sl, r1, #30932992	; 0x1d80000

000006f0 <l318>:
     6f0:	30a4900e 	adccc	r9, r4, lr

000006f4 <l319>:
     6f4:	d0a5606c 	adcle	r6, r5, ip, rrx

000006f8 <l320>:
     6f8:	60b0c17c 	adcsvs	ip, r0, ip, ror r1

000006fc <l321>:
     6fc:	d0bca515 	adcsle	sl, ip, r5, lsl r5

00000700 <l322>:
     700:	82bc4b0e 	adcshi	r4, ip, #14336	; 0x3800

00000704 <l323>:
     704:	b0b2193a 	adcslt	r1, r2, sl, lsr r9

00000708 <l324>:
     708:	50a7b446 	adcpl	fp, r7, r6, asr #8

0000070c <l325>:
     70c:	e0ae8f0f 	adc	r8, lr, pc, lsl #30

00000710 <l326>:
     710:	e0b22067 	adcs	r2, r2, r7, rrx

00000714 <l327>:
     714:	e0a1885c 	adc	r8, r1, ip, asr r8

00000718 <l328>:
     718:	50a73b65 	adcpl	r3, r7, r5, ror #22

0000071c <l329>:
     71c:	e0aac113 	adc	ip, sl, r3, lsl r1

00000720 <l330>:
     720:	50b38008 	adcspl	r8, r3, r8

00000724 <l331>:
     724:	30b2e06f 	adcscc	lr, r2, pc, rrx

00000728 <l332>:
     728:	e0aebc5b 	adc	fp, lr, fp, asr ip

0000072c <l333>:
     72c:	90ae5861 	adcls	r5, lr, r1, ror #16

00000730 <l334>:
     730:	22ab90d0 	adccs	r9, fp, #208	; 0xd0

00000734 <l335>:
     734:	b0a87063 	adclt	r7, r8, r3, rrx

00000738 <l336>:
     738:	00b07009 	adcseq	r7, r0, r9

0000073c <l337>:
     73c:	e0ace433 	adc	lr, ip, r3, lsr r4

00000740 <l338>:
     740:	e0a9b0c2 	adc	fp, r9, r2, asr #1

00000744 <l339>:
     744:	c2a104ff 	adcgt	r0, r1, #-16777216	; 0xff000000

00000748 <l340>:
     748:	40ba5064 	adcsmi	r5, sl, r4, rrx

0000074c <l341>:
     74c:	30b8753c 	adcscc	r7, r8, ip, lsr r5

00000750 <l342>:
     750:	e0ac7413 	adc	r7, ip, r3, lsl r4

00000754 <l343>:
     754:	30bf1009 	adcscc	r1, pc, r9

00000758 <l344>:
     758:	e2a99ba2 	adc	r9, r9, #165888	; 0x28800

0000075c <l345>:
     75c:	e0a16e8c 	adc	r6, r1, ip, lsl #29

00000760 <l346>:
     760:	10b91003 	adcsne	r1, r9, r3

00000764 <l347>:
     764:	e0b42dc4 	adcs	r2, r4, r4, asr #27

00000768 <l348>:
     768:	e0b0b53b 	adcs	fp, r0, fp, lsr r5

0000076c <l349>:
     76c:	e2b60a8d 	adcs	r0, r6, #577536	; 0x8d000

00000770 <l350>:
     770:	52bc673e 	adcspl	r6, ip, #16252928	; 0xf80000

00000774 <l351>:
     774:	90af600a 	adcls	r6, pc, sl

00000778 <l352>:
     778:	22b99e87 	adcscs	r9, r9, #2160	; 0x870

0000077c <l353>:
     77c:	52a0cb4a 	adcpl	ip, r0, #75776	; 0x12800

00000780 <l354>:
     780:	80ba6ee6 	adcshi	r6, sl, r6, ror #29

00000784 <l355>:
     784:	90be7530 	adcsls	r7, lr, r0, lsr r5

00000788 <l356>:
     788:	e2bb7b3a 	adcs	r7, fp, #59392	; 0xe800

0000078c <l357>:
     78c:	22bb495a 	adcscs	r4, fp, #1474560	; 0x168000

00000790 <l358>:
     790:	e0b2306c 	adcs	r3, r2, ip, rrx

00000794 <l359>:
     794:	e2a596a3 	adc	r9, r5, #170917888	; 0xa300000

00000798 <l360>:
     798:	b0b75002 	adcslt	r5, r7, r2

0000079c <l361>:
     79c:	e2b99ab9 	adcs	r9, r9, #757760	; 0xb9000

000007a0 <l362>:
     7a0:	e0a9a2a4 	adc	sl, r9, r4, lsr #5

000007a4 <l363>:
     7a4:	40b7606f 	adcsmi	r6, r7, pc, rrx

000007a8 <l364>:
     7a8:	e2a060c4 	adc	r6, r0, #196	; 0xc4

000007ac <l365>:
     7ac:	62bacbab 	adcsvs	ip, sl, #175104	; 0x2ac00

000007b0 <l366>:
     7b0:	e0a09063 	adc	r9, r0, r3, rrx

000007b4 <l367>:
     7b4:	e0b09a61 	adcs	r9, r0, r1, ror #20

000007b8 <l368>:
     7b8:	e0ba6755 	adcs	r6, sl, r5, asr r7

000007bc <l369>:
     7bc:	e0b7926e 	adcs	r9, r7, lr, ror #4

000007c0 <l370>:
     7c0:	00b1c1eb 	adcseq	ip, r1, fp, ror #3

000007c4 <l371>:
     7c4:	c0be07ac 	adcsgt	r0, lr, ip, lsr #15

000007c8 <l372>:
     7c8:	80b5163e 	adcshi	r1, r5, lr, lsr r6

000007cc <l373>:
     7cc:	20b82674 	adcscs	r2, r8, r4, ror r6

000007d0 <l374>:
     7d0:	e0abe004 	adc	lr, fp, r4

000007d4 <l375>:
     7d4:	e0a2941a 	adc	r9, r2, sl, lsl r4

000007d8 <l376>:
     7d8:	40a2b008 	adcmi	fp, r2, r8

000007dc <l377>:
     7dc:	52b0c433 	adcspl	ip, r0, #855638016	; 0x33000000

000007e0 <l378>:
     7e0:	12a97b36 	adcne	r7, r9, #55296	; 0xd800

000007e4 <l379>:
     7e4:	e2b09c03 	adcs	r9, r0, #768	; 0x300

000007e8 <l380>:
     7e8:	e0a83064 	adc	r3, r8, r4, rrx

000007ec <l381>:
     7ec:	90aba06c 	adcls	sl, fp, ip, rrx

000007f0 <l382>:
     7f0:	e0a96066 	adc	r6, r9, r6, rrx

000007f4 <l383>:
     7f4:	00ac500c 	adceq	r5, ip, ip

000007f8 <l384>:
     7f8:	e2a1e001 	adc	lr, r1, #1

000007fc <l385>:
     7fc:	50a8800b 	adcpl	r8, r8, fp

00000800 <l386>:
     800:	52bbc087 	adcspl	ip, fp, #135	; 0x87

00000804 <l387>:
     804:	30a75f25 	adccc	r5, r7, r5, lsr #30

00000808 <l388>:
     808:	e0a5406f 	adc	r4, r5, pc, rrx

0000080c <l389>:
     80c:	e0ae3000 	adc	r3, lr, r0

00000810 <l390>:
     810:	10ae6064 	adcne	r6, lr, r4, rrx

00000814 <l391>:
     814:	e0a3e3c4 	adc	lr, r3, r4, asr #7

00000818 <l392>:
     818:	80a9906b 	adchi	r9, r9, fp, rrx

0000081c <l393>:
     81c:	e0b27b37 	adcs	r7, r2, r7, lsr fp

00000820 <l394>:
     820:	e0b7b616 	adcs	fp, r7, r6, lsl r6

00000824 <l395>:
     824:	e0b5577b 	adcs	r5, r5, fp, ror r7

00000828 <l396>:
     828:	c0aa1a70 	adcgt	r1, sl, r0, ror sl

0000082c <l397>:
     82c:	20bfe06f 	adcscs	lr, pc, pc, rrx

00000830 <l398>:
     830:	60b84970 	adcsvs	r4, r8, r0, ror r9

00000834 <l399>:
     834:	a0b1107e 	adcsge	r1, r1, lr, ror r0

00000838 <l400>:
     838:	50b7e06f 	adcspl	lr, r7, pc, rrx

0000083c <l401>:
     83c:	e0a8a000 	adc	sl, r8, r0

00000840 <l402>:
     840:	e0a59156 	adc	r9, r5, r6, asr r1

00000844 <l403>:
     844:	e2a0c883 	adc	ip, r0, #8585216	; 0x830000

00000848 <l404>:
     848:	e0a92556 	adc	r2, r9, r6, asr r5

0000084c <l405>:
     84c:	90a27006 	adcls	r7, r2, r6

00000850 <l406>:
     850:	e0a4b003 	adc	fp, r4, r3

00000854 <l407>:
     854:	b0bb7008 	adcslt	r7, fp, r8

00000858 <l408>:
     858:	e0ae0069 	adc	r0, lr, r9, rrx

0000085c <l409>:
     85c:	e0aec06f 	adc	ip, lr, pc, rrx

00000860 <l410>:
     860:	70a2e003 	adcvc	lr, r2, r3

00000864 <l411>:
     864:	d0aee068 	adcle	lr, lr, r8, rrx

00000868 <l412>:
     868:	60be2b30 	adcsvs	r2, lr, r0, lsr fp

0000086c <l413>:
     86c:	22abe7f1 	adccs	lr, fp, #63176704	; 0x3c40000

00000870 <l414>:
     870:	e0b7b00e 	adcs	fp, r7, lr

00000874 <l415>:
     874:	60b4654c 	adcsvs	r6, r4, ip, asr #10

00000878 <l416>:
     878:	e0b39f48 	adcs	r9, r3, r8, asr #30

0000087c <l417>:
     87c:	30b0906e 	adcscc	r9, r0, lr, rrx

00000880 <l418>:
     880:	10b5905b 	adcsne	r9, r5, fp, asr r0

00000884 <l419>:
     884:	00a07e15 	adceq	r7, r0, r5, lsl lr

00000888 <l420>:
     888:	40a23277 	adcmi	r3, r2, r7, ror r2

0000088c <l421>:
     88c:	b2a72af2 	adclt	r2, r7, #991232	; 0xf2000

00000890 <l422>:
     890:	e2a51046 	adc	r1, r5, #70	; 0x46

00000894 <l423>:
     894:	e0a1c9e9 	adc	ip, r1, r9, ror #19

00000898 <l424>:
     898:	e0a9c00e 	adc	ip, r9, lr

0000089c <l425>:
     89c:	e2b32b99 	adcs	r2, r3, #156672	; 0x26400

000008a0 <l426>:
     8a0:	e2b4b3ce 	adcs	fp, r4, #939524099	; 0x38000003

000008a4 <l427>:
     8a4:	e0a94008 	adc	r4, r9, r8

000008a8 <l428>:
     8a8:	42a502a7 	adcmi	r0, r5, #1879048202	; 0x7000000a

000008ac <l429>:
     8ac:	b0b0006e 	adcslt	r0, r0, lr, rrx

000008b0 <l430>:
     8b0:	30a6c936 	adccc	ip, r6, r6, lsr r9

000008b4 <l431>:
     8b4:	e0a76e57 	adc	r6, r7, r7, asr lr

000008b8 <l432>:
     8b8:	50b91902 	adcspl	r1, r9, r2, lsl #18

000008bc <l433>:
     8bc:	e2a99906 	adc	r9, r9, #98304	; 0x18000

000008c0 <l434>:
     8c0:	20a243e5 	adccs	r4, r2, r5, ror #7

000008c4 <l435>:
     8c4:	e2b98997 	adcs	r8, r9, #2473984	; 0x25c000

000008c8 <l436>:
     8c8:	e0a06001 	adc	r6, r0, r1

000008cc <l437>:
     8cc:	b0b311e5 	adcslt	r1, r3, r5, ror #3

000008d0 <l438>:
     8d0:	20b18008 	adcscs	r8, r1, r8

000008d4 <l439>:
     8d4:	00b9e063 	adcseq	lr, r9, r3, rrx

000008d8 <l440>:
     8d8:	e0b0501e 	adcs	r5, r0, lr, lsl r0

000008dc <l441>:
     8dc:	e0b6200c 	adcs	r2, r6, ip

000008e0 <l442>:
     8e0:	e0b7be38 	adcs	fp, r7, r8, lsr lr

000008e4 <l443>:
     8e4:	90aca332 	adcls	sl, ip, r2, lsr r3

000008e8 <l444>:
     8e8:	e2b7e4d9 	adcs	lr, r7, #-654311424	; 0xd9000000

000008ec <l445>:
     8ec:	70bae476 	adcsvc	lr, sl, r6, ror r4

000008f0 <l446>:
     8f0:	d0b2b06b 	adcsle	fp, r2, fp, rrx

000008f4 <l447>:
     8f4:	e0a7b61c 	adc	fp, r7, ip, lsl r6

000008f8 <l448>:
     8f8:	90b8500c 	adcsls	r5, r8, ip

000008fc <l449>:
     8fc:	12a5e3ed 	adcne	lr, r5, #-1275068413	; 0xb4000003

00000900 <l450>:
     900:	e0a18e39 	adc	r8, r1, r9, lsr lr

00000904 <l451>:
     904:	10b72063 	adcsne	r2, r7, r3, rrx

00000908 <l452>:
     908:	70a6e005 	adcvc	lr, r6, r5

0000090c <l453>:
     90c:	40be4cc9 	adcsmi	r4, lr, r9, asr #25

00000910 <l454>:
     910:	e2be9c91 	adcs	r9, lr, #37120	; 0x9100

00000914 <l455>:
     914:	80a7390c 	adchi	r3, r7, ip, lsl #18

00000918 <l456>:
     918:	62aa1a2a 	adcvs	r1, sl, #172032	; 0x2a000

0000091c <l457>:
     91c:	d2a70b92 	adcle	r0, r7, #149504	; 0x24800

00000920 <l458>:
     920:	70b3a06f 	adcsvc	sl, r3, pc, rrx

00000924 <l459>:
     924:	d0bfe00e 	adcsle	lr, pc, lr

00000928 <l460>:
     928:	e0b39e54 	adcs	r9, r3, r4, asr lr

0000092c <l461>:
     92c:	50bcc7a4 	adcspl	ip, ip, r4, lsr #15

00000930 <l462>:
     930:	e2b12455 	adcs	r2, r1, #1426063360	; 0x55000000

00000934 <l463>:
     934:	00ab5000 	adceq	r5, fp, r0

00000938 <l464>:
     938:	20a5306a 	adccs	r3, r5, sl, rrx

0000093c <l465>:
     93c:	82b7e201 	adcshi	lr, r7, #268435456	; 0x10000000

00000940 <l466>:
     940:	e0a3a00e 	adc	sl, r3, lr

00000944 <l467>:
     944:	e0ab407c 	adc	r4, fp, ip, ror r0

00000948 <l468>:
     948:	e0af16c6 	adc	r1, pc, r6, asr #13

0000094c <l469>:
     94c:	d0a6e005 	adcle	lr, r6, r5

00000950 <l470>:
     950:	30af272c 	adccc	r2, pc, ip, lsr #14

00000954 <l471>:
     954:	90b8a408 	adcsls	sl, r8, r8, lsl #8

00000958 <l472>:
     958:	e2a566f9 	adc	r6, r5, #261095424	; 0xf900000

0000095c <l473>:
     95c:	52b963f5 	adcspl	r6, r9, #-738197501	; 0xd4000003

00000960 <l474>:
     960:	a0b2a000 	adcsge	sl, r2, r0

00000964 <l475>:
     964:	10a4ab12 	adcne	sl, r4, r2, lsl fp

00000968 <l476>:
     968:	e0a5e83a 	adc	lr, r5, sl, lsr r8

0000096c <l477>:
     96c:	70a158c7 	adcvc	r5, r1, r7, asr #17

00000970 <l478>:
     970:	e0b2a368 	adcs	sl, r2, r8, ror #6

00000974 <l479>:
     974:	e0a7b001 	adc	fp, r7, r1

00000978 <l480>:
     978:	e0aba373 	adc	sl, fp, r3, ror r3

0000097c <l481>:
     97c:	e0ae874f 	adc	r8, lr, pc, asr #14

00000980 <l482>:
     980:	e0ac900c 	adc	r9, ip, ip

00000984 <l483>:
     984:	90bf8b64 	adcsls	r8, pc, r4, ror #22

00000988 <l484>:
     988:	92a93cca 	adcls	r3, r9, #51712	; 0xca00

0000098c <l485>:
     98c:	60ac7908 	adcvs	r7, ip, r8, lsl #18

00000990 <l486>:
     990:	20bbc21a 	adcscs	ip, fp, sl, lsl r2

00000994 <l487>:
     994:	e0a45938 	adc	r5, r4, r8, lsr r9

00000998 <l488>:
     998:	e0a43674 	adc	r3, r4, r4, ror r6

0000099c <l489>:
     99c:	e0ae400e 	adc	r4, lr, lr

000009a0 <l490>:
     9a0:	e0a16877 	adc	r6, r1, r7, ror r8

000009a4 <l491>:
     9a4:	c0b7aa5e 	adcsgt	sl, r7, lr, asr sl

000009a8 <l492>:
     9a8:	e0a0ba1c 	adc	fp, r0, ip, lsl sl

000009ac <l493>:
     9ac:	90a5254b 	adcls	r2, r5, fp, asr #10

000009b0 <l494>:
     9b0:	e0a4a003 	adc	sl, r4, r3

000009b4 <l495>:
     9b4:	92a6bf62 	adcls	fp, r6, #392	; 0x188

000009b8 <l496>:
     9b8:	e2aca86d 	adc	sl, ip, #7143424	; 0x6d0000

000009bc <l497>:
     9bc:	80abb100 	adchi	fp, fp, r0, lsl #2

000009c0 <l498>:
     9c0:	e0bc1939 	adcs	r1, ip, r9, lsr r9

000009c4 <l499>:
     9c4:	e2bb5126 	adcs	r5, fp, #-2147483639	; 0x80000009

000009c8 <l500>:
     9c8:	50a71c02 	adcpl	r1, r7, r2, lsl #24

000009cc <l501>:
     9cc:	00b1e00e 	adcseq	lr, r1, lr

000009d0 <l502>:
     9d0:	e0b12005 	adcs	r2, r1, r5

000009d4 <l503>:
     9d4:	32b34231 	adcscc	r4, r3, #268435459	; 0x10000003

000009d8 <l504>:
     9d8:	02b8b0d0 	adcseq	fp, r8, #208	; 0xd0

000009dc <l505>:
     9dc:	c2aa9080 	adcgt	r9, sl, #128	; 0x80

000009e0 <l506>:
     9e0:	60ac1004 	adcvs	r1, ip, r4

000009e4 <l507>:
     9e4:	b0b2c061 	adcslt	ip, r2, r1, rrx

000009e8 <l508>:
     9e8:	c0bb545a 	adcsgt	r5, fp, sl, asr r4

000009ec <l509>:
     9ec:	e0a70004 	adc	r0, r7, r4

000009f0 <l510>:
     9f0:	e0b9c128 	adcs	ip, r9, r8, lsr #2

000009f4 <l511>:
     9f4:	32a1e10b 	adccc	lr, r1, #-1073741822	; 0xc0000002

000009f8 <l512>:
     9f8:	d0ae9008 	adcle	r9, lr, r8

000009fc <l513>:
     9fc:	42b41044 	adcsmi	r1, r4, #68	; 0x44

00000a00 <l514>:
     a00:	70be0064 	adcsvc	r0, lr, r4, rrx

00000a04 <l515>:
     a04:	e2b28cd1 	adcs	r8, r2, #53504	; 0xd100

00000a08 <l516>:
     a08:	e0a03480 	adc	r3, r0, r0, lsl #9

00000a0c <l517>:
     a0c:	e0b6511e 	adcs	r5, r6, lr, lsl r1

00000a10 <l518>:
     a10:	e0b54c45 	adcs	r4, r5, r5, asr #24

00000a14 <l519>:
     a14:	20a5b838 	adccs	fp, r5, r8, lsr r8

00000a18 <l520>:
     a18:	10b2200b 	adcsne	r2, r2, fp

00000a1c <l521>:
     a1c:	20ba400c 	adcscs	r4, sl, ip

00000a20 <l522>:
     a20:	e2bc558b 	adcs	r5, ip, #583008256	; 0x22c00000

00000a24 <l523>:
     a24:	42b9450e 	adcsmi	r4, r9, #58720256	; 0x3800000

00000a28 <l524>:
     a28:	22ba019b 	adcscs	r0, sl, #-1073741786	; 0xc0000026

00000a2c <l525>:
     a2c:	00af706c 	adceq	r7, pc, ip, rrx

00000a30 <l526>:
     a30:	e0a8b06c 	adc	fp, r8, ip, rrx

00000a34 <l527>:
     a34:	30baa005 	adcscc	sl, sl, r5

00000a38 <l528>:
     a38:	e0b3c006 	adcs	ip, r3, r6

00000a3c <l529>:
     a3c:	00ba7de8 	adcseq	r7, sl, r8, ror #27

00000a40 <l530>:
     a40:	e2a470e2 	adc	r7, r4, #226	; 0xe2

00000a44 <l531>:
     a44:	e0ac4a6b 	adc	r4, ip, fp, ror #20

00000a48 <l532>:
     a48:	e0b57069 	adcs	r7, r5, r9, rrx

00000a4c <l533>:
     a4c:	e0bba00e 	adcs	sl, fp, lr

00000a50 <l534>:
     a50:	e0a2a001 	adc	sl, r2, r1

00000a54 <l535>:
     a54:	e0b88371 	adcs	r8, r8, r1, ror r3

00000a58 <l536>:
     a58:	e0bf900c 	adcs	r9, pc, ip

00000a5c <l537>:
     a5c:	e0a72005 	adc	r2, r7, r5

00000a60 <l538>:
     a60:	e2b17f57 	adcs	r7, r1, #348	; 0x15c

00000a64 <l539>:
     a64:	12bc63cd 	adcsne	r6, ip, #872415235	; 0x34000003

00000a68 <l540>:
     a68:	20a21007 	adccs	r1, r2, r7

00000a6c <l541>:
     a6c:	52a9733b 	adcpl	r7, r9, #-335544320	; 0xec000000

00000a70 <l542>:
     a70:	72a59cf5 	adcvc	r9, r5, #62720	; 0xf500

00000a74 <l543>:
     a74:	42a8b877 	adcmi	fp, r8, #7798784	; 0x770000

00000a78 <l544>:
     a78:	a0a06458 	adcge	r6, r0, r8, asr r4

00000a7c <l545>:
     a7c:	50a98001 	adcpl	r8, r9, r1

00000a80 <l546>:
     a80:	e2b45e2e 	adcs	r5, r4, #736	; 0x2e0

00000a84 <l547>:
     a84:	e0ac6737 	adc	r6, ip, r7, lsr r7

00000a88 <l548>:
     a88:	30a60ea9 	adccc	r0, r6, r9, lsr #29

00000a8c <l549>:
     a8c:	30b62008 	adcscc	r2, r6, r8

00000a90 <l550>:
     a90:	22a62202 	adccs	r2, r6, #536870912	; 0x20000000

00000a94 <l551>:
     a94:	e0b57411 	adcs	r7, r5, r1, lsl r4

00000a98 <l552>:
     a98:	e0b2a245 	adcs	sl, r2, r5, asr #4

00000a9c <l553>:
     a9c:	70a132ee 	adcvc	r3, r1, lr, ror #5

00000aa0 <l554>:
     aa0:	10a87b6b 	adcne	r7, r8, fp, ror #22

00000aa4 <l555>:
     aa4:	e0aca002 	adc	sl, ip, r2

00000aa8 <l556>:
     aa8:	70ba700f 	adcsvc	r7, sl, pc

00000aac <l557>:
     aac:	e0ace006 	adc	lr, ip, r6

00000ab0 <l558>:
     ab0:	80a57c6b 	adchi	r7, r5, fp, ror #24

00000ab4 <l559>:
     ab4:	62b5e2e9 	adcsvs	lr, r5, #-1879048178	; 0x9000000e

00000ab8 <l560>:
     ab8:	22b9b3d9 	adcscs	fp, r9, #1677721603	; 0x64000003

00000abc <l561>:
     abc:	e2b7aa4e 	adcs	sl, r7, #319488	; 0x4e000

00000ac0 <l562>:
     ac0:	e2a5858b 	adc	r8, r5, #583008256	; 0x22c00000

00000ac4 <l563>:
     ac4:	e0b4800b 	adcs	r8, r4, fp

00000ac8 <l564>:
     ac8:	a0af6ccf 	adcge	r6, pc, pc, asr #25

00000acc <l565>:
     acc:	e0a07064 	adc	r7, r0, r4, rrx

00000ad0 <l566>:
     ad0:	e0b7e067 	adcs	lr, r7, r7, rrx

00000ad4 <l567>:
     ad4:	e0ab000a 	adc	r0, fp, sl

00000ad8 <l568>:
     ad8:	e0b48008 	adcs	r8, r4, r8

00000adc <l569>:
     adc:	d0ac0061 	adcle	r0, ip, r1, rrx

00000ae0 <l570>:
     ae0:	80a64273 	adchi	r4, r6, r3, ror r2

00000ae4 <l571>:
     ae4:	30bb4656 	adcscc	r4, fp, r6, asr r6

00000ae8 <l572>:
     ae8:	32a6be3a 	adccc	fp, r6, #928	; 0x3a0

00000aec <l573>:
     aec:	e2a6c40b 	adc	ip, r6, #184549376	; 0xb000000

00000af0 <l574>:
     af0:	e0b0006c 	adcs	r0, r0, ip, rrx

00000af4 <l575>:
     af4:	e2b906f5 	adcs	r0, r9, #256901120	; 0xf500000

00000af8 <l576>:
     af8:	e2ab2c26 	adc	r2, fp, #9728	; 0x2600

00000afc <l577>:
     afc:	e0bb1da9 	adcs	r1, fp, r9, lsr #27

00000b00 <l578>:
     b00:	e0b55068 	adcs	r5, r5, r8, rrx

00000b04 <l579>:
     b04:	d0b268e9 	adcsle	r6, r2, r9, ror #17

00000b08 <l580>:
     b08:	30b4af07 	adcscc	sl, r4, r7, lsl #30

00000b0c <l581>:
     b0c:	d0ae7614 	adcle	r7, lr, r4, lsl r6

00000b10 <l582>:
     b10:	e0bc9910 	adcs	r9, ip, r0, lsl r9

00000b14 <l583>:
     b14:	d2aa6ea1 	adcle	r6, sl, #2576	; 0xa10

00000b18 <l584>:
     b18:	70ab700e 	adcvc	r7, fp, lr

00000b1c <l585>:
     b1c:	e0b9ca11 	adcs	ip, r9, r1, lsl sl

00000b20 <l586>:
     b20:	e0a203e1 	adc	r0, r2, r1, ror #7

00000b24 <l587>:
     b24:	c0b2500b 	adcsgt	r5, r2, fp

00000b28 <l588>:
     b28:	b2b52b2b 	adcslt	r2, r5, #44032	; 0xac00

00000b2c <l589>:
     b2c:	90a18008 	adcls	r8, r1, r8

00000b30 <l590>:
     b30:	10ac406b 	adcne	r4, ip, fp, rrx

00000b34 <l591>:
     b34:	00a3b003 	adceq	fp, r3, r3

00000b38 <l592>:
     b38:	50ab6009 	adcpl	r6, fp, r9

00000b3c <l593>:
     b3c:	e0ba8ae3 	adcs	r8, sl, r3, ror #21

00000b40 <l594>:
     b40:	e0b04200 	adcs	r4, r0, r0, lsl #4

00000b44 <l595>:
     b44:	e0b21006 	adcs	r1, r2, r6

00000b48 <l596>:
     b48:	d0bf4485 	adcsle	r4, pc, r5, lsl #9

00000b4c <l597>:
     b4c:	c0a8c901 	adcgt	ip, r8, r1, lsl #18

00000b50 <l598>:
     b50:	20a50005 	adccs	r0, r5, r5

00000b54 <l599>:
     b54:	70b35003 	adcsvc	r5, r3, r3

00000b58 <l600>:
     b58:	02b8a50a 	adcseq	sl, r8, #41943040	; 0x2800000

00000b5c <l601>:
     b5c:	e0b4e5c8 	adcs	lr, r4, r8, asr #11

00000b60 <l602>:
     b60:	e0b25001 	adcs	r5, r2, r1

00000b64 <l603>:
     b64:	e0ab500a 	adc	r5, fp, sl

00000b68 <l604>:
     b68:	a0ac8a38 	adcge	r8, ip, r8, lsr sl

00000b6c <l605>:
     b6c:	c2b23c12 	adcsgt	r3, r2, #4608	; 0x1200

00000b70 <l606>:
     b70:	50bfc060 	adcspl	ip, pc, r0, rrx

00000b74 <l607>:
     b74:	e0b15002 	adcs	r5, r1, r2

00000b78 <l608>:
     b78:	40a7c00e 	adcmi	ip, r7, lr

00000b7c <l609>:
     b7c:	90a5c00c 	adcls	ip, r5, ip

00000b80 <l610>:
     b80:	a0be46ee 	adcsge	r4, lr, lr, ror #13

00000b84 <l611>:
     b84:	50a0b551 	adcpl	fp, r0, r1, asr r5

00000b88 <l612>:
     b88:	e2a30555 	adc	r0, r3, #356515840	; 0x15400000

00000b8c <l613>:
     b8c:	e0b5e009 	adcs	lr, r5, r9

00000b90 <l614>:
     b90:	52b9240d 	adcspl	r2, r9, #218103808	; 0xd000000

00000b94 <l615>:
     b94:	e2b5e862 	adcs	lr, r5, #6422528	; 0x620000

00000b98 <l616>:
     b98:	10ae5064 	adcne	r5, lr, r4, rrx

00000b9c <l617>:
     b9c:	30b2c00e 	adcscc	ip, r2, lr

00000ba0 <l618>:
     ba0:	e0aca006 	adc	sl, ip, r6

00000ba4 <l619>:
     ba4:	e0a3500e 	adc	r5, r3, lr

00000ba8 <l620>:
     ba8:	e2a5aab7 	adc	sl, r5, #749568	; 0xb7000

00000bac <l621>:
     bac:	e0b35009 	adcs	r5, r3, r9

00000bb0 <l622>:
     bb0:	e2a1e054 	adc	lr, r1, #84	; 0x54

00000bb4 <l623>:
     bb4:	80b20854 	adcshi	r0, r2, r4, asr r8

00000bb8 <l624>:
     bb8:	50bea003 	adcspl	sl, lr, r3

00000bbc <l625>:
     bbc:	e0a1700e 	adc	r7, r1, lr

00000bc0 <l626>:
     bc0:	c0b18006 	adcsgt	r8, r1, r6

00000bc4 <l627>:
     bc4:	70b7e00c 	adcsvc	lr, r7, ip

00000bc8 <l628>:
     bc8:	60be600a 	adcsvs	r6, lr, sl

00000bcc <l629>:
     bcc:	b0bfe005 	adcslt	lr, pc, r5

00000bd0 <l630>:
     bd0:	50b69003 	adcspl	r9, r6, r3

00000bd4 <l631>:
     bd4:	50b28803 	adcspl	r8, r2, r3, lsl #16

00000bd8 <l632>:
     bd8:	e0bc82c9 	adcs	r8, ip, r9, asr #5

00000bdc <l633>:
     bdc:	30be3267 	adcscc	r3, lr, r7, ror #4

00000be0 <l634>:
     be0:	d0bf7063 	adcsle	r7, pc, r3, rrx

00000be4 <l635>:
     be4:	e2ae37ba 	adc	r3, lr, #48758784	; 0x2e80000

00000be8 <l636>:
     be8:	00be500b 	adcseq	r5, lr, fp

00000bec <l637>:
     bec:	82b10028 	adcshi	r0, r1, #40	; 0x28

00000bf0 <l638>:
     bf0:	c2b02852 	adcsgt	r2, r0, #5373952	; 0x520000

00000bf4 <l639>:
     bf4:	c0b6c066 	adcsgt	ip, r6, r6, rrx

00000bf8 <l640>:
     bf8:	50b45a1a 	adcspl	r5, r4, sl, lsl sl

00000bfc <l641>:
     bfc:	40a67252 	adcmi	r7, r6, r2, asr r2

00000c00 <l642>:
     c00:	92bb981e 	adcsls	r9, fp, #1966080	; 0x1e0000

00000c04 <l643>:
     c04:	02a82a6f 	adceq	r2, r8, #454656	; 0x6f000

00000c08 <l644>:
     c08:	42b0e1ad 	adcsmi	lr, r0, #1073741867	; 0x4000002b

00000c0c <l645>:
     c0c:	e0a92c72 	adc	r2, r9, r2, ror ip

00000c10 <l646>:
     c10:	02a1c0e8 	adceq	ip, r1, #232	; 0xe8

00000c14 <l647>:
     c14:	e0be525b 	adcs	r5, lr, fp, asr r2

00000c18 <l648>:
     c18:	e2b1a8bd 	adcs	sl, r1, #12386304	; 0xbd0000

00000c1c <l649>:
     c1c:	90bf7003 	adcsls	r7, pc, r3

00000c20 <l650>:
     c20:	e0acc00a 	adc	ip, ip, sl

00000c24 <l651>:
     c24:	c0a2a009 	adcgt	sl, r2, r9

00000c28 <l652>:
     c28:	e0a8e44c 	adc	lr, r8, ip, asr #8

00000c2c <l653>:
     c2c:	30b5706c 	adcscc	r7, r5, ip, rrx

00000c30 <l654>:
     c30:	00a1e00b 	adceq	lr, r1, fp

00000c34 <l655>:
     c34:	e0b0455b 	adcs	r4, r0, fp, asr r5

00000c38 <l656>:
     c38:	e2a1b17a 	adc	fp, r1, #-2147483618	; 0x8000001e

00000c3c <l657>:
     c3c:	b0ba6000 	adcslt	r6, sl, r0

00000c40 <l658>:
     c40:	e2b8031b 	adcs	r0, r8, #1811939328	; 0x6c000000

00000c44 <l659>:
     c44:	50ace008 	adcpl	lr, ip, r8

00000c48 <l660>:
     c48:	a0b38008 	adcsge	r8, r3, r8

00000c4c <l661>:
     c4c:	42a83655 	adcmi	r3, r8, #89128960	; 0x5500000

00000c50 <l662>:
     c50:	32a4eebf 	adccc	lr, r4, #3056	; 0xbf0

00000c54 <l663>:
     c54:	80be4e28 	adcshi	r4, lr, r8, lsr #28

00000c58 <l664>:
     c58:	e0b7106b 	adcs	r1, r7, fp, rrx

00000c5c <l665>:
     c5c:	10b5500c 	adcsne	r5, r5, ip

00000c60 <l666>:
     c60:	e0a85b55 	adc	r5, r8, r5, asr fp

00000c64 <l667>:
     c64:	e0ab1067 	adc	r1, fp, r7, rrx

00000c68 <l668>:
     c68:	30a5ac1c 	adccc	sl, r5, ip, lsl ip

00000c6c <l669>:
     c6c:	10bbe43e 	adcsne	lr, fp, lr, lsr r4

00000c70 <l670>:
     c70:	42b67a23 	adcsmi	r7, r6, #143360	; 0x23000

00000c74 <l671>:
     c74:	e0b70446 	adcs	r0, r7, r6, asr #8

00000c78 <l672>:
     c78:	60a61001 	adcvs	r1, r6, r1

00000c7c <l673>:
     c7c:	e2af1805 	adc	r1, pc, #327680	; 0x50000

00000c80 <l674>:
     c80:	10b6ce48 	adcsne	ip, r6, r8, asr #28

00000c84 <l675>:
     c84:	50b99008 	adcspl	r9, r9, r8

00000c88 <l676>:
     c88:	42a29bd7 	adcmi	r9, r2, #220160	; 0x35c00

00000c8c <l677>:
     c8c:	a0a48003 	adcge	r8, r4, r3

00000c90 <l678>:
     c90:	e0bf2008 	adcs	r2, pc, r8

00000c94 <l679>:
     c94:	e0a5951e 	adc	r9, r5, lr, lsl r5

00000c98 <l680>:
     c98:	c2be9287 	adcsgt	r9, lr, #1879048200	; 0x70000008

00000c9c <l681>:
     c9c:	20b65083 	adcscs	r5, r6, r3, lsl #1

00000ca0 <l682>:
     ca0:	50b63067 	adcspl	r3, r6, r7, rrx

00000ca4 <l683>:
     ca4:	e0bb000b 	adcs	r0, fp, fp

00000ca8 <l684>:
     ca8:	60b72811 	adcsvs	r2, r7, r1, lsl r8

00000cac <l685>:
     cac:	e2bc0b1d 	adcs	r0, ip, #29696	; 0x7400

00000cb0 <l686>:
     cb0:	e0a21067 	adc	r1, r2, r7, rrx

00000cb4 <l687>:
     cb4:	e0b38be9 	adcs	r8, r3, r9, ror #23

00000cb8 <l688>:
     cb8:	e0aa565a 	adc	r5, sl, sl, asr r6

00000cbc <l689>:
     cbc:	90b80910 	adcsls	r0, r8, r0, lsl r9

00000cc0 <l690>:
     cc0:	e2b3903a 	adcs	r9, r3, #58	; 0x3a

00000cc4 <l691>:
     cc4:	e0a00256 	adc	r0, r0, r6, asr r2

00000cc8 <l692>:
     cc8:	92ae15fa 	adcls	r1, lr, #1048576000	; 0x3e800000

00000ccc <l693>:
     ccc:	32b0aff3 	adcscc	sl, r0, #972	; 0x3cc

00000cd0 <l694>:
     cd0:	90b86179 	adcsls	r6, r8, r9, ror r1

00000cd4 <l695>:
     cd4:	50ab1065 	adcpl	r1, fp, r5, rrx

00000cd8 <l696>:
     cd8:	e0aaba80 	adc	fp, sl, r0, lsl #21

00000cdc <l697>:
     cdc:	e0bb8233 	adcs	r8, fp, r3, lsr r2

00000ce0 <l698>:
     ce0:	e2b747d3 	adcs	r4, r7, #55312384	; 0x34c0000

00000ce4 <l699>:
     ce4:	20a41539 	adccs	r1, r4, r9, lsr r5

00000ce8 <l700>:
     ce8:	50abe007 	adcpl	lr, fp, r7

00000cec <l701>:
     cec:	e0b8400a 	adcs	r4, r8, sl

00000cf0 <l702>:
     cf0:	e0ac3935 	adc	r3, ip, r5, lsr r9

00000cf4 <l703>:
     cf4:	e0a33007 	adc	r3, r3, r7

00000cf8 <l704>:
     cf8:	50bc664f 	adcspl	r6, ip, pc, asr #12

00000cfc <l705>:
     cfc:	52b34abf 	adcspl	r4, r3, #782336	; 0xbf000

00000d00 <l706>:
     d00:	e2b7b51a 	adcs	fp, r7, #109051904	; 0x6800000

00000d04 <l707>:
     d04:	00af7003 	adceq	r7, pc, r3

00000d08 <l708>:
     d08:	92b39e22 	adcsls	r9, r3, #544	; 0x220

00000d0c <l709>:
     d0c:	60b20d40 	adcsvs	r0, r2, r0, asr #26

00000d10 <l710>:
     d10:	50bc1060 	adcspl	r1, ip, r0, rrx

00000d14 <l711>:
     d14:	e0b1a004 	adcs	sl, r1, r4

00000d18 <l712>:
     d18:	50b15b38 	adcspl	r5, r1, r8, lsr fp

00000d1c <l713>:
     d1c:	70baabc0 	adcsvc	sl, sl, r0, asr #23

00000d20 <l714>:
     d20:	e2b9800c 	adcs	r8, r9, #12

00000d24 <l715>:
     d24:	52ac1e2b 	adcpl	r1, ip, #688	; 0x2b0

00000d28 <l716>:
     d28:	40a9c479 	adcmi	ip, r9, r9, ror r4

00000d2c <l717>:
     d2c:	10a0e415 	adcne	lr, r0, r5, lsl r4

00000d30 <l718>:
     d30:	82b331c3 	adcshi	r3, r3, #-1073741776	; 0xc0000030

00000d34 <l719>:
     d34:	c0b1b065 	adcsgt	fp, r1, r5, rrx

00000d38 <l720>:
     d38:	e0a5c116 	adc	ip, r5, r6, lsl r1

00000d3c <l721>:
     d3c:	40a45900 	adcmi	r5, r4, r0, lsl #18

00000d40 <l722>:
     d40:	30be500f 	adcscc	r5, lr, pc

00000d44 <l723>:
     d44:	e2a3740b 	adc	r7, r3, #184549376	; 0xb000000

00000d48 <l724>:
     d48:	d2ae1116 	adcle	r1, lr, #-2147483643	; 0x80000005

00000d4c <l725>:
     d4c:	e0b2c11e 	adcs	ip, r2, lr, lsl r1

00000d50 <l726>:
     d50:	e0a12479 	adc	r2, r1, r9, ror r4

00000d54 <l727>:
     d54:	42a06755 	adcmi	r6, r0, #22282240	; 0x1540000

00000d58 <l728>:
     d58:	30ab5006 	adccc	r5, fp, r6

00000d5c <l729>:
     d5c:	90a9e001 	adcls	lr, r9, r1

00000d60 <l730>:
     d60:	60a71c65 	adcvs	r1, r7, r5, ror #24

00000d64 <l731>:
     d64:	20a61aaa 	adccs	r1, r6, sl, lsr #21

00000d68 <l732>:
     d68:	e0a27065 	adc	r7, r2, r5, rrx

00000d6c <l733>:
     d6c:	42bfc11b 	adcsmi	ip, pc, #-1073741818	; 0xc0000006

00000d70 <l734>:
     d70:	e0b5ece9 	adcs	lr, r5, r9, ror #25

00000d74 <l735>:
     d74:	b0a49008 	adclt	r9, r4, r8

00000d78 <l736>:
     d78:	c0ab5005 	adcgt	r5, fp, r5

00000d7c <l737>:
     d7c:	20bc0b6e 	adcscs	r0, ip, lr, ror #22

00000d80 <l738>:
     d80:	e0ae9b54 	adc	r9, lr, r4, asr fp

00000d84 <l739>:
     d84:	e0aa227a 	adc	r2, sl, sl, ror r2

00000d88 <l740>:
     d88:	50abe17a 	adcpl	lr, fp, sl, ror r1

00000d8c <l741>:
     d8c:	e0ae9007 	adc	r9, lr, r7

00000d90 <l742>:
     d90:	20a5e675 	adccs	lr, r5, r5, ror r6

00000d94 <l743>:
     d94:	c0bbe001 	adcsgt	lr, fp, r1

00000d98 <l744>:
     d98:	e2abbc2d 	adc	fp, fp, #11520	; 0x2d00

00000d9c <l745>:
     d9c:	20ac8537 	adccs	r8, ip, r7, lsr r5

00000da0 <l746>:
     da0:	10a3a064 	adcne	sl, r3, r4, rrx

00000da4 <l747>:
     da4:	e0b43b4f 	adcs	r3, r4, pc, asr #22

00000da8 <l748>:
     da8:	e0a5215c 	adc	r2, r5, ip, asr r1

00000dac <l749>:
     dac:	30a853c6 	adccc	r5, r8, r6, asr #7

00000db0 <l750>:
     db0:	e0b23009 	adcs	r3, r2, r9

00000db4 <l751>:
     db4:	e2a02831 	adc	r2, r0, #3211264	; 0x310000

00000db8 <l752>:
     db8:	40b13006 	adcsmi	r3, r1, r6

00000dbc <l753>:
     dbc:	e0b08064 	adcs	r8, r0, r4, rrx

00000dc0 <l754>:
     dc0:	50a7900a 	adcpl	r9, r7, sl

00000dc4 <l755>:
     dc4:	e0aa8004 	adc	r8, sl, r4

00000dc8 <l756>:
     dc8:	80b7706c 	adcshi	r7, r7, ip, rrx

00000dcc <l757>:
     dcc:	e0a8a00a 	adc	sl, r8, sl

00000dd0 <l758>:
     dd0:	60b95b14 	adcsvs	r5, r9, r4, lsl fp

00000dd4 <l759>:
     dd4:	80ba4008 	adcshi	r4, sl, r8

00000dd8 <l760>:
     dd8:	10b9a006 	adcsne	sl, r9, r6

00000ddc <l761>:
     ddc:	c0a85002 	adcgt	r5, r8, r2

00000de0 <l762>:
     de0:	10ab700e 	adcne	r7, fp, lr

00000de4 <l763>:
     de4:	e0a04ca1 	adc	r4, r0, r1, lsr #25

00000de8 <l764>:
     de8:	70b81c5b 	adcsvc	r1, r8, fp, asr ip

00000dec <l765>:
     dec:	22a96615 	adccs	r6, r9, #22020096	; 0x1500000

00000df0 <l766>:
     df0:	30b0400a 	adcscc	r4, r0, sl

00000df4 <l767>:
     df4:	22b679cf 	adcscs	r7, r6, #3391488	; 0x33c000

00000df8 <l768>:
     df8:	d0b02004 	adcsle	r2, r0, r4

00000dfc <l769>:
     dfc:	42ae6d6a 	adcmi	r6, lr, #6784	; 0x1a80

00000e00 <l770>:
     e00:	22b51d12 	adcscs	r1, r5, #1152	; 0x480

00000e04 <l771>:
     e04:	40b29b5b 	adcsmi	r9, r2, fp, asr fp

00000e08 <l772>:
     e08:	42a9b0c1 	adcmi	fp, r9, #193	; 0xc1

00000e0c <l773>:
     e0c:	e2a95416 	adc	r5, r9, #369098752	; 0x16000000

00000e10 <l774>:
     e10:	50a23038 	adcpl	r3, r2, r8, lsr r0

00000e14 <l775>:
     e14:	e0a8c00f 	adc	ip, r8, pc

00000e18 <l776>:
     e18:	80ae0737 	adchi	r0, lr, r7, lsr r7

00000e1c <l777>:
     e1c:	22b1685f 	adcscs	r6, r1, #6225920	; 0x5f0000

00000e20 <l778>:
     e20:	e2bc9309 	adcs	r9, ip, #603979776	; 0x24000000

00000e24 <l779>:
     e24:	e2a70403 	adc	r0, r7, #50331648	; 0x3000000

00000e28 <l780>:
     e28:	82a51fdd 	adchi	r1, r5, #884	; 0x374

00000e2c <l781>:
     e2c:	70a8158f 	adcvc	r1, r8, pc, lsl #11

00000e30 <l782>:
     e30:	e0a6200f 	adc	r2, r6, pc

00000e34 <l783>:
     e34:	20b19002 	adcscs	r9, r1, r2

00000e38 <l784>:
     e38:	e2bcb53d 	adcs	fp, ip, #255852544	; 0xf400000

00000e3c <l785>:
     e3c:	e0be0b71 	adcs	r0, lr, r1, ror fp

00000e40 <l786>:
     e40:	e2ab56ce 	adc	r5, fp, #216006656	; 0xce00000

00000e44 <l787>:
     e44:	e0a3c7e4 	adc	ip, r3, r4, ror #15

00000e48 <l788>:
     e48:	72a8873b 	adcvc	r8, r8, #15466496	; 0xec0000

00000e4c <l789>:
     e4c:	a0af39e5 	adcge	r3, pc, r5, ror #19

00000e50 <l790>:
     e50:	e0a2672a 	adc	r6, r2, sl, lsr #14

00000e54 <l791>:
     e54:	e0be0068 	adcs	r0, lr, r8, rrx

00000e58 <l792>:
     e58:	30ba19a4 	adcscc	r1, sl, r4, lsr #19

00000e5c <l793>:
     e5c:	e2b13dd9 	adcs	r3, r1, #13888	; 0x3640

00000e60 <l794>:
     e60:	72a27c39 	adcvc	r7, r2, #14592	; 0x3900

00000e64 <l795>:
     e64:	52b8e801 	adcspl	lr, r8, #65536	; 0x10000

00000e68 <l796>:
     e68:	50b8100b 	adcspl	r1, r8, fp

00000e6c <l797>:
     e6c:	e0b9b93b 	adcs	fp, r9, fp, lsr r9

00000e70 <l798>:
     e70:	d2b028cf 	adcsle	r2, r0, #13565952	; 0xcf0000

00000e74 <l799>:
     e74:	e0bfc548 	adcs	ip, pc, r8, asr #10

00000e78 <l800>:
     e78:	e0b56312 	adcs	r6, r5, r2, lsl r3

00000e7c <l801>:
     e7c:	e2a163b1 	adc	r6, r1, #-1006632958	; 0xc4000002

00000e80 <l802>:
     e80:	c0be6009 	adcsgt	r6, lr, r9

00000e84 <l803>:
     e84:	80b38006 	adcshi	r8, r3, r6

00000e88 <l804>:
     e88:	e0b7a6cb 	adcs	sl, r7, fp, asr #13

00000e8c <l805>:
     e8c:	30a9a065 	adccc	sl, r9, r5, rrx

00000e90 <l806>:
     e90:	e0a2c155 	adc	ip, r2, r5, asr r1

00000e94 <l807>:
     e94:	a0bb800b 	adcsge	r8, fp, fp

00000e98 <l808>:
     e98:	00b3e402 	adcseq	lr, r3, r2, lsl #8

00000e9c <l809>:
     e9c:	30a01478 	adccc	r1, r0, r8, ror r4

00000ea0 <l810>:
     ea0:	a2be181e 	adcsge	r1, lr, #1966080	; 0x1e0000

00000ea4 <l811>:
     ea4:	e0af6000 	adc	r6, pc, r0

00000ea8 <l812>:
     ea8:	e0abe859 	adc	lr, fp, r9, asr r8

00000eac <l813>:
     eac:	30a7c003 	adccc	ip, r7, r3

00000eb0 <l814>:
     eb0:	72ace52a 	adcvc	lr, ip, #176160768	; 0xa800000

00000eb4 <l815>:
     eb4:	e0a32007 	adc	r2, r3, r7

00000eb8 <l816>:
     eb8:	e0ae900e 	adc	r9, lr, lr

00000ebc <l817>:
     ebc:	82ae7e12 	adchi	r7, lr, #288	; 0x120

00000ec0 <l818>:
     ec0:	c2b156df 	adcsgt	r5, r1, #233832448	; 0xdf00000

00000ec4 <l819>:
     ec4:	e2b7bd3e 	adcs	fp, r7, #3968	; 0xf80

00000ec8 <l820>:
     ec8:	80ae49aa 	adchi	r4, lr, sl, lsr #19

00000ecc <l821>:
     ecc:	e2ab533f 	adc	r5, fp, #-67108864	; 0xfc000000

00000ed0 <l822>:
     ed0:	e0b09972 	adcs	r9, r0, r2, ror r9

00000ed4 <l823>:
     ed4:	e0a22ac4 	adc	r2, r2, r4, asr #21

00000ed8 <l824>:
     ed8:	50ae9066 	adcpl	r9, lr, r6, rrx

00000edc <l825>:
     edc:	e2b6848f 	adcs	r8, r6, #-1895825408	; 0x8f000000

00000ee0 <l826>:
     ee0:	80becce2 	adcshi	ip, lr, r2, ror #25

00000ee4 <l827>:
     ee4:	92beb119 	adcsls	fp, lr, #1073741830	; 0x40000006

00000ee8 <l828>:
     ee8:	e0a3ef49 	adc	lr, r3, r9, asr #30

00000eec <l829>:
     eec:	82a3a50d 	adchi	sl, r3, #54525952	; 0x3400000

00000ef0 <l830>:
     ef0:	e0a32e1c 	adc	r2, r3, ip, lsl lr

00000ef4 <l831>:
     ef4:	b0bc100a 	adcslt	r1, ip, sl

00000ef8 <l832>:
     ef8:	e0abb001 	adc	fp, fp, r1

00000efc <l833>:
     efc:	e2a0a957 	adc	sl, r0, #1425408	; 0x15c000

00000f00 <l834>:
     f00:	e0a81e30 	adc	r1, r8, r0, lsr lr

00000f04 <l835>:
     f04:	e0a16670 	adc	r6, r1, r0, ror r6

00000f08 <l836>:
     f08:	e2bfae6f 	adcs	sl, pc, #1776	; 0x6f0

00000f0c <l837>:
     f0c:	e0a80005 	adc	r0, r8, r5

00000f10 <l838>:
     f10:	e0ab71a2 	adc	r7, fp, r2, lsr #3

00000f14 <l839>:
     f14:	e0b2e005 	adcs	lr, r2, r5

00000f18 <l840>:
     f18:	e0ac9007 	adc	r9, ip, r7

00000f1c <l841>:
     f1c:	d2a6c835 	adcle	ip, r6, #3473408	; 0x350000

00000f20 <l842>:
     f20:	e0a9b002 	adc	fp, r9, r2

00000f24 <l843>:
     f24:	72a3c853 	adcvc	ip, r3, #5439488	; 0x530000

00000f28 <l844>:
     f28:	30a1a376 	adccc	sl, r1, r6, ror r3

00000f2c <l845>:
     f2c:	c0a2558a 	adcgt	r5, r2, sl, lsl #11

00000f30 <l846>:
     f30:	e0be8a7b 	adcs	r8, lr, fp, ror sl

00000f34 <l847>:
     f34:	e2bb2060 	adcs	r2, fp, #96	; 0x60

00000f38 <l848>:
     f38:	c0ba2003 	adcsgt	r2, sl, r3

00000f3c <l849>:
     f3c:	10a8ce14 	adcne	ip, r8, r4, lsl lr

00000f40 <l850>:
     f40:	02b12078 	adcseq	r2, r1, #120	; 0x78

00000f44 <l851>:
     f44:	82bc5e2a 	adcshi	r5, ip, #672	; 0x2a0

00000f48 <l852>:
     f48:	20bb0e5c 	adcscs	r0, fp, ip, asr lr

00000f4c <l853>:
     f4c:	d0b75101 	adcsle	r5, r7, r1, lsl #2

00000f50 <l854>:
     f50:	82b81a21 	adcshi	r1, r8, #135168	; 0x21000

00000f54 <l855>:
     f54:	e2b92125 	adcs	r2, r9, #1073741833	; 0x40000009

00000f58 <l856>:
     f58:	72b40792 	adcsvc	r0, r4, #38273024	; 0x2480000

00000f5c <l857>:
     f5c:	e2b80d89 	adcs	r0, r8, #8768	; 0x2240

00000f60 <l858>:
     f60:	e0ab006e 	adc	r0, fp, lr, rrx

00000f64 <l859>:
     f64:	b0a02737 	adclt	r2, r0, r7, lsr r7

00000f68 <l860>:
     f68:	50bcb93c 	adcspl	fp, ip, ip, lsr r9

00000f6c <l861>:
     f6c:	90a7984a 	adcls	r9, r7, sl, asr #16

00000f70 <l862>:
     f70:	e2b00601 	adcs	r0, r0, #1048576	; 0x100000

00000f74 <l863>:
     f74:	e0b92619 	adcs	r2, r9, r9, lsl r6

00000f78 <l864>:
     f78:	e0b9a007 	adcs	sl, r9, r7

00000f7c <l865>:
     f7c:	00b5a41e 	adcseq	sl, r5, lr, lsl r4

00000f80 <l866>:
     f80:	e2a8ae12 	adc	sl, r8, #288	; 0x120

00000f84 <l867>:
     f84:	60a47de8 	adcvs	r7, r4, r8, ror #27

00000f88 <l868>:
     f88:	30a71659 	adccc	r1, r7, r9, asr r6

00000f8c <l869>:
     f8c:	b0b25c3e 	adcslt	r5, r2, lr, lsr ip

00000f90 <l870>:
     f90:	c2a72d35 	adcgt	r2, r7, #3392	; 0xd40

00000f94 <l871>:
     f94:	e0a89c61 	adc	r9, r8, r1, ror #24

00000f98 <l872>:
     f98:	60b4a918 	adcsvs	sl, r4, r8, lsl r9

00000f9c <l873>:
     f9c:	a0a1983a 	adcge	r9, r1, sl, lsr r8

00000fa0 <l874>:
     fa0:	60ac6067 	adcvs	r6, ip, r7, rrx

00000fa4 <l875>:
     fa4:	10a38977 	adcne	r8, r3, r7, ror r9

00000fa8 <l876>:
     fa8:	80b82d83 	adcshi	r2, r8, r3, lsl #27

00000fac <l877>:
     fac:	e0b5e706 	adcs	lr, r5, r6, lsl #14

00000fb0 <l878>:
     fb0:	e2ba4e1f 	adcs	r4, sl, #496	; 0x1f0

00000fb4 <l879>:
     fb4:	c0acc00b 	adcgt	ip, ip, fp

00000fb8 <l880>:
     fb8:	90b58a14 	adcsls	r8, r5, r4, lsl sl

00000fbc <l881>:
     fbc:	20bb2c15 	adcscs	r2, fp, r5, lsl ip

00000fc0 <l882>:
     fc0:	e0ac7003 	adc	r7, ip, r3

00000fc4 <l883>:
     fc4:	60be300f 	adcsvs	r3, lr, pc

00000fc8 <l884>:
     fc8:	e0ae2004 	adc	r2, lr, r4

00000fcc <l885>:
     fcc:	e0b65c65 	adcs	r5, r6, r5, ror #24

00000fd0 <l886>:
     fd0:	e0b9ae26 	adcs	sl, r9, r6, lsr #28

00000fd4 <l887>:
     fd4:	d0a43002 	adcle	r3, r4, r2

00000fd8 <l888>:
     fd8:	e2b0bb0d 	adcs	fp, r0, #13312	; 0x3400

00000fdc <l889>:
     fdc:	d2be2000 	adcsle	r2, lr, #0

00000fe0 <l890>:
     fe0:	90a59c34 	adcls	r9, r5, r4, lsr ip

00000fe4 <l891>:
     fe4:	e0b4a065 	adcs	sl, r4, r5, rrx

00000fe8 <l892>:
     fe8:	e0acc101 	adc	ip, ip, r1, lsl #2

00000fec <l893>:
     fec:	b0a4b00b 	adclt	fp, r4, fp

00000ff0 <l894>:
     ff0:	70b38001 	adcsvc	r8, r3, r1

00000ff4 <l895>:
     ff4:	e2b86033 	adcs	r6, r8, #51	; 0x33

00000ff8 <l896>:
     ff8:	80be3a76 	adcshi	r3, lr, r6, ror sl

00000ffc <l897>:
     ffc:	12b1c579 	adcsne	ip, r1, #507510784	; 0x1e400000

00001000 <l898>:
    1000:	e0a7b034 	adc	fp, r7, r4, lsr r0

00001004 <l899>:
    1004:	e0ac84e4 	adc	r8, ip, r4, ror #9

00001008 <l900>:
    1008:	10aeac19 	adcne	sl, lr, r9, lsl ip

0000100c <l901>:
    100c:	e0a0a032 	adc	sl, r0, r2, lsr r0

00001010 <l902>:
    1010:	70a8111c 	adcvc	r1, r8, ip, lsl r1

00001014 <l903>:
    1014:	90bb000e 	adcsls	r0, fp, lr

00001018 <l904>:
    1018:	30a651e3 	adccc	r5, r6, r3, ror #3

0000101c <l905>:
    101c:	70b87577 	adcsvc	r7, r8, r7, ror r5

00001020 <l906>:
    1020:	d0bfed08 	adcsle	lr, pc, r8, lsl #26

00001024 <l907>:
    1024:	12b28d2a 	adcsne	r8, r2, #2688	; 0xa80

00001028 <l908>:
    1028:	e0b66221 	adcs	r6, r6, r1, lsr #4

0000102c <l909>:
    102c:	60b73007 	adcsvs	r3, r7, r7

00001030 <l910>:
    1030:	02b7948b 	adcseq	r9, r7, #-1962934272	; 0x8b000000

00001034 <l911>:
    1034:	e2ba2325 	adcs	r2, sl, #-1811939328	; 0x94000000

00001038 <l912>:
    1038:	e0b83e03 	adcs	r3, r8, r3, lsl #28

0000103c <l913>:
    103c:	e0afa065 	adc	sl, pc, r5, rrx

00001040 <l914>:
    1040:	00b4300c 	adcseq	r3, r4, ip

00001044 <l915>:
    1044:	e0ab006c 	adc	r0, fp, ip, rrx

00001048 <l916>:
    1048:	b0a7300c 	adclt	r3, r7, ip

0000104c <l917>:
    104c:	a0af2004 	adcge	r2, pc, r4

00001050 <l918>:
    1050:	e2a6bf5e 	adc	fp, r6, #376	; 0x178

00001054 <l919>:
    1054:	c0b0c067 	adcsgt	ip, r0, r7, rrx

00001058 <l920>:
    1058:	50b44003 	adcspl	r4, r4, r3

0000105c <l921>:
    105c:	e0a2b28f 	adc	fp, r2, pc, lsl #5

00001060 <l922>:
    1060:	e0bfb067 	adcs	fp, pc, r7, rrx

00001064 <l923>:
    1064:	e0b8900a 	adcs	r9, r8, sl

00001068 <l924>:
    1068:	c0ae633e 	adcgt	r6, lr, lr, lsr r3

0000106c <l925>:
    106c:	e0ac0267 	adc	r0, ip, r7, ror #4

00001070 <l926>:
    1070:	e0ae6bc9 	adc	r6, lr, r9, asr #23

00001074 <l927>:
    1074:	a0a3bd4e 	adcge	fp, r3, lr, asr #26

00001078 <l928>:
    1078:	e0bb3e25 	adcs	r3, fp, r5, lsr #28

0000107c <l929>:
    107c:	60a27ba0 	adcvs	r7, r2, r0, lsr #23

00001080 <l930>:
    1080:	e2b88241 	adcs	r8, r8, #268435460	; 0x10000004

00001084 <l931>:
    1084:	b0a3a008 	adclt	sl, r3, r8

00001088 <l932>:
    1088:	10b27436 	adcsne	r7, r2, r6, lsr r4

0000108c <l933>:
    108c:	c0a2875b 	adcgt	r8, r2, fp, asr r7

00001090 <l934>:
    1090:	50b66be2 	adcspl	r6, r6, r2, ror #23

00001094 <l935>:
    1094:	50a40061 	adcpl	r0, r4, r1, rrx

00001098 <l936>:
    1098:	e0b1b006 	adcs	fp, r1, r6

0000109c <l937>:
    109c:	e2ae827e 	adc	r8, lr, #-536870905	; 0xe0000007

000010a0 <l938>:
    10a0:	e0ab516c 	adc	r5, fp, ip, ror #2

000010a4 <l939>:
    10a4:	c2b58eda 	adcsgt	r8, r5, #3488	; 0xda0

000010a8 <l940>:
    10a8:	90ba700c 	adcsls	r7, sl, ip

000010ac <l941>:
    10ac:	50aa7000 	adcpl	r7, sl, r0

000010b0 <l942>:
    10b0:	e0a37062 	adc	r7, r3, r2, rrx

000010b4 <l943>:
    10b4:	e0bf300c 	adcs	r3, pc, ip

000010b8 <l944>:
    10b8:	e2ac617d 	adc	r6, ip, #1073741855	; 0x4000001f

000010bc <l945>:
    10bc:	d0b43d67 	adcsle	r3, r4, r7, ror #26

000010c0 <l946>:
    10c0:	e0a4a066 	adc	sl, r4, r6, rrx

000010c4 <l947>:
    10c4:	b0b14009 	adcslt	r4, r1, r9

000010c8 <l948>:
    10c8:	50b9c06b 	adcspl	ip, r9, fp, rrx

000010cc <l949>:
    10cc:	c0a06061 	adcgt	r6, r0, r1, rrx

000010d0 <l950>:
    10d0:	10a66005 	adcne	r6, r6, r5

000010d4 <l951>:
    10d4:	e0a3acc7 	adc	sl, r3, r7, asr #25

000010d8 <l952>:
    10d8:	e2bc4dcb 	adcs	r4, ip, #12992	; 0x32c0

000010dc <l953>:
    10dc:	70a80e5b 	adcvc	r0, r8, fp, asr lr

000010e0 <l954>:
    10e0:	40b54332 	adcsmi	r4, r5, r2, lsr r3

000010e4 <l955>:
    10e4:	c2b7cc06 	adcsgt	ip, r7, #1536	; 0x600

000010e8 <l956>:
    10e8:	e0a18687 	adc	r8, r1, r7, lsl #13

000010ec <l957>:
    10ec:	b0ab6479 	adclt	r6, fp, r9, ror r4

000010f0 <l958>:
    10f0:	80acc00c 	adchi	ip, ip, ip

000010f4 <l959>:
    10f4:	e2b14009 	adcs	r4, r1, #9

000010f8 <l960>:
    10f8:	e0bc5287 	adcs	r5, ip, r7, lsl #5

000010fc <l961>:
    10fc:	e0b8758b 	adcs	r7, r8, fp, lsl #11

00001100 <l962>:
    1100:	22bf7c01 	adcscs	r7, pc, #256	; 0x100

00001104 <l963>:
    1104:	e0abe002 	adc	lr, fp, r2

00001108 <l964>:
    1108:	e2b89fff 	adcs	r9, r8, #1020	; 0x3fc

0000110c <l965>:
    110c:	e0b3beca 	adcs	fp, r3, sl, asr #29

00001110 <l966>:
    1110:	50a06141 	adcpl	r6, r0, r1, asr #2

00001114 <l967>:
    1114:	30aaa818 	adccc	sl, sl, r8, lsl r8

00001118 <l968>:
    1118:	e0ab906a 	adc	r9, fp, sl, rrx

0000111c <l969>:
    111c:	e0a1c004 	adc	ip, r1, r4

00001120 <l970>:
    1120:	b2aa938d 	adclt	r9, sl, #872415234	; 0x34000002

00001124 <l971>:
    1124:	e0be9006 	adcs	r9, lr, r6

00001128 <l972>:
    1128:	70b8300b 	adcsvc	r3, r8, fp

0000112c <l973>:
    112c:	40b0b005 	adcsmi	fp, r0, r5

00001130 <l974>:
    1130:	d0a42008 	adcle	r2, r4, r8

00001134 <l975>:
    1134:	e2a7b109 	adc	fp, r7, #1073741826	; 0x40000002

00001138 <l976>:
    1138:	40a95008 	adcmi	r5, r9, r8

0000113c <l977>:
    113c:	e0b7717a 	adcs	r7, r7, sl, ror r1

00001140 <l978>:
    1140:	32b1bc82 	adcscc	fp, r1, #33280	; 0x8200

00001144 <l979>:
    1144:	70b547a6 	adcsvc	r4, r5, r6, lsr #15

00001148 <l980>:
    1148:	60b92a84 	adcsvs	r2, r9, r4, lsl #21

0000114c <l981>:
    114c:	b0bb100a 	adcslt	r1, fp, sl

00001150 <l982>:
    1150:	e2a8a802 	adc	sl, r8, #131072	; 0x20000

00001154 <l983>:
    1154:	40a14068 	adcmi	r4, r1, r8, rrx

00001158 <l984>:
    1158:	e0b8800c 	adcs	r8, r8, ip

0000115c <l985>:
    115c:	b0b63209 	adcslt	r3, r6, r9, lsl #4

00001160 <l986>:
    1160:	d2b7e496 	adcsle	lr, r7, #-1778384896	; 0x96000000

00001164 <l987>:
    1164:	60b9806f 	adcsvs	r8, r9, pc, rrx

00001168 <l988>:
    1168:	e0a80631 	adc	r0, r8, r1, lsr r6

0000116c <l989>:
    116c:	e0a26b6b 	adc	r6, r2, fp, ror #22

00001170 <l990>:
    1170:	70aaa061 	adcvc	sl, sl, r1, rrx

00001174 <l991>:
    1174:	b0a8677a 	adclt	r6, r8, sl, ror r7

00001178 <l992>:
    1178:	e0a9408e 	adc	r4, r9, lr, lsl #1

0000117c <l993>:
    117c:	42bce21a 	adcsmi	lr, ip, #-1610612735	; 0xa0000001

00001180 <l994>:
    1180:	e0b98615 	adcs	r8, r9, r5, lsl r6

00001184 <l995>:
    1184:	20b26007 	adcscs	r6, r2, r7

00001188 <l996>:
    1188:	e0ab5721 	adc	r5, fp, r1, lsr #14

0000118c <l997>:
    118c:	00a4e067 	adceq	lr, r4, r7, rrx

00001190 <l998>:
    1190:	40be0060 	adcsmi	r0, lr, r0, rrx

00001194 <l999>:
    1194:	e0b0106c 	adcs	r1, r0, ip, rrx

00001198 <l1000>:
    1198:	e0b225a9 	adcs	r2, r2, r9, lsr #11

0000119c <end>:
    119c:	eafffffe 	b	119c <end>
