
allmem_5000.o:     file format elf32-littlearm


Disassembly of section .text:

00000000 <main>:
       0:	e05f000f 	subs	r0, pc, pc
       4:	e59fd000 	ldr	sp, [pc]	; c <val>
       8:	ea000000 	b	10 <next>

0000000c <val>:
       c:	000ffff0 	.word	0x000ffff0

00000010 <next>:
      10:	e59f1000 	ldr	r1, [pc]	; 18 <val1>
      14:	ea000000 	b	1c <next1>

00000018 <val1>:
      18:	65eebb6e 	.word	0x65eebb6e

0000001c <next1>:
      1c:	e59f2000 	ldr	r2, [pc]	; 24 <val2>
      20:	ea000000 	b	28 <next2>

00000024 <val2>:
      24:	2fc9c02a 	.word	0x2fc9c02a

00000028 <next2>:
      28:	e59f3000 	ldr	r3, [pc]	; 30 <val3>
      2c:	ea000000 	b	34 <next3>

00000030 <val3>:
      30:	94b7cf8a 	.word	0x94b7cf8a

00000034 <next3>:
      34:	e59f4000 	ldr	r4, [pc]	; 3c <val4>
      38:	ea000000 	b	40 <next4>

0000003c <val4>:
      3c:	152ad738 	.word	0x152ad738

00000040 <next4>:
      40:	e59f5000 	ldr	r5, [pc]	; 48 <val5>
      44:	ea000000 	b	4c <next5>

00000048 <val5>:
      48:	f4edea14 	.word	0xf4edea14

0000004c <next5>:
      4c:	e59f6000 	ldr	r6, [pc]	; 54 <val6>
      50:	ea000000 	b	58 <next6>

00000054 <val6>:
      54:	976e725b 	.word	0x976e725b

00000058 <next6>:
      58:	e59f7000 	ldr	r7, [pc]	; 60 <val7>
      5c:	ea000000 	b	64 <next7>

00000060 <val7>:
      60:	3c8ed4c2 	.word	0x3c8ed4c2

00000064 <next7>:
      64:	e59f8000 	ldr	r8, [pc]	; 6c <val8>
      68:	ea000000 	b	70 <next8>

0000006c <val8>:
      6c:	1f26c9ba 	.word	0x1f26c9ba

00000070 <next8>:
      70:	e59f9000 	ldr	r9, [pc]	; 78 <val9>
      74:	ea000000 	b	7c <next9>

00000078 <val9>:
      78:	f9540455 	.word	0xf9540455

0000007c <next9>:
      7c:	e59fa000 	ldr	sl, [pc]	; 84 <val10>
      80:	ea000000 	b	88 <next10>

00000084 <val10>:
      84:	3fecc439 	.word	0x3fecc439

00000088 <next10>:
      88:	e59fb000 	ldr	fp, [pc]	; 90 <val11>
      8c:	ea000000 	b	94 <next11>

00000090 <val11>:
      90:	960e89ac 	.word	0x960e89ac

00000094 <next11>:
      94:	e59fc000 	ldr	ip, [pc]	; 9c <val12>
      98:	ea000000 	b	a0 <next12>

0000009c <val12>:
      9c:	f7d58ee9 	.word	0xf7d58ee9

000000a0 <next12>:
      a0:	e59fe000 	ldr	lr, [pc]	; a8 <val14>
      a4:	ea000000 	b	ac <next14>

000000a8 <val14>:
      a8:	ae01ec78 	.word	0xae01ec78

000000ac <next14>:
      ac:	e59f1000 	ldr	r1, [pc]	; b4 <val15>
      b0:	ea000000 	b	b8 <next15>

000000b4 <val15>:
      b4:	c2a3d516 	.word	0xc2a3d516

000000b8 <next15>:
      b8:	e58d1000 	str	r1, [sp]
      bc:	e59f1000 	ldr	r1, [pc]	; c4 <val16>
      c0:	ea000000 	b	c8 <next16>

000000c4 <val16>:
      c4:	219f645f 	.word	0x219f645f

000000c8 <next16>:
      c8:	e50d1004 	str	r1, [sp, #-4]
      cc:	e59f1000 	ldr	r1, [pc]	; d4 <val17>
      d0:	ea000000 	b	d8 <next17>

000000d4 <val17>:
      d4:	69e90a2d 	.word	0x69e90a2d

000000d8 <next17>:
      d8:	e50d1008 	str	r1, [sp, #-8]
      dc:	e59f1000 	ldr	r1, [pc]	; e4 <val18>
      e0:	ea000000 	b	e8 <next18>

000000e4 <val18>:
      e4:	81766f54 	.word	0x81766f54

000000e8 <next18>:
      e8:	e50d100c 	str	r1, [sp, #-12]
      ec:	e59f1000 	ldr	r1, [pc]	; f4 <val19>
      f0:	ea000000 	b	f8 <next19>

000000f4 <val19>:
      f4:	18b88248 	.word	0x18b88248

000000f8 <next19>:
      f8:	e50d1010 	str	r1, [sp, #-16]
      fc:	e59f1000 	ldr	r1, [pc]	; 104 <val20>
     100:	ea000000 	b	108 <next20>

00000104 <val20>:
     104:	1ffb5f9f 	.word	0x1ffb5f9f

00000108 <next20>:
     108:	e50d1014 	str	r1, [sp, #-20]
     10c:	e59f1000 	ldr	r1, [pc]	; 114 <val21>
     110:	ea000000 	b	118 <next21>

00000114 <val21>:
     114:	bc8191d9 	.word	0xbc8191d9

00000118 <next21>:
     118:	e50d1018 	str	r1, [sp, #-24]
     11c:	e59f1000 	ldr	r1, [pc]	; 124 <val22>
     120:	ea000000 	b	128 <next22>

00000124 <val22>:
     124:	15675828 	.word	0x15675828

00000128 <next22>:
     128:	e50d101c 	str	r1, [sp, #-28]
     12c:	e59f1000 	ldr	r1, [pc]	; 134 <val23>
     130:	ea000000 	b	138 <next23>

00000134 <val23>:
     134:	48e98340 	.word	0x48e98340

00000138 <next23>:
     138:	e50d1020 	str	r1, [sp, #-32]
     13c:	e59f1000 	ldr	r1, [pc]	; 144 <val24>
     140:	ea000000 	b	148 <next24>

00000144 <val24>:
     144:	6de86481 	.word	0x6de86481

00000148 <next24>:
     148:	e50d1024 	str	r1, [sp, #-36]	; 0x24
     14c:	e59f1000 	ldr	r1, [pc]	; 154 <val25>
     150:	ea000000 	b	158 <next25>

00000154 <val25>:
     154:	af48039e 	.word	0xaf48039e

00000158 <next25>:
     158:	e50d1028 	str	r1, [sp, #-40]	; 0x28
     15c:	e59f1000 	ldr	r1, [pc]	; 164 <val26>
     160:	ea000000 	b	168 <next26>

00000164 <val26>:
     164:	e6de2dad 	.word	0xe6de2dad

00000168 <next26>:
     168:	e50d102c 	str	r1, [sp, #-44]	; 0x2c
     16c:	e59f1000 	ldr	r1, [pc]	; 174 <val27>
     170:	ea000000 	b	178 <next27>

00000174 <val27>:
     174:	9c1cc281 	.word	0x9c1cc281

00000178 <next27>:
     178:	e50d1030 	str	r1, [sp, #-48]	; 0x30
     17c:	e59f1000 	ldr	r1, [pc]	; 184 <val28>
     180:	ea000000 	b	188 <next28>

00000184 <val28>:
     184:	ea04aa1e 	.word	0xea04aa1e

00000188 <next28>:
     188:	e50d1034 	str	r1, [sp, #-52]	; 0x34
     18c:	e59f1000 	ldr	r1, [pc]	; 194 <val29>
     190:	ea000000 	b	198 <next29>

00000194 <val29>:
     194:	c911d3e2 	.word	0xc911d3e2

00000198 <next29>:
     198:	e50d1038 	str	r1, [sp, #-56]	; 0x38
     19c:	e59f1000 	ldr	r1, [pc]	; 1a4 <val30>
     1a0:	ea000000 	b	1a8 <next30>

000001a4 <val30>:
     1a4:	e1acd5f9 	.word	0xe1acd5f9

000001a8 <next30>:
     1a8:	e50d103c 	str	r1, [sp, #-60]	; 0x3c
     1ac:	e59f1000 	ldr	r1, [pc]	; 1b4 <val31>
     1b0:	ea000000 	b	1b8 <next31>

000001b4 <val31>:
     1b4:	54faef01 	.word	0x54faef01

000001b8 <next31>:
     1b8:	e50d1040 	str	r1, [sp, #-64]	; 0x40
     1bc:	e59f1000 	ldr	r1, [pc]	; 1c4 <val32>
     1c0:	ea000000 	b	1c8 <next32>

000001c4 <val32>:
     1c4:	100154d4 	.word	0x100154d4

000001c8 <next32>:
     1c8:	e50d1044 	str	r1, [sp, #-68]	; 0x44
     1cc:	e59f1000 	ldr	r1, [pc]	; 1d4 <val33>
     1d0:	ea000000 	b	1d8 <next33>

000001d4 <val33>:
     1d4:	d4e8c5d6 	.word	0xd4e8c5d6

000001d8 <next33>:
     1d8:	e50d1048 	str	r1, [sp, #-72]	; 0x48
     1dc:	e59f1000 	ldr	r1, [pc]	; 1e4 <val34>
     1e0:	ea000000 	b	1e8 <next34>

000001e4 <val34>:
     1e4:	9d366e22 	.word	0x9d366e22

000001e8 <next34>:
     1e8:	e50d104c 	str	r1, [sp, #-76]	; 0x4c
     1ec:	e59f1000 	ldr	r1, [pc]	; 1f4 <val35>
     1f0:	ea000000 	b	1f8 <next35>

000001f4 <val35>:
     1f4:	8c17d444 	.word	0x8c17d444

000001f8 <next35>:
     1f8:	e50d1050 	str	r1, [sp, #-80]	; 0x50

000001fc <l1>:
     1fc:	e3a0a007 	mov	sl, #7

00000200 <l2>:
     200:	e74db00a 	strb	fp, [sp, -sl]

00000204 <l3>:
     204:	e93d569e 	ldmdb	sp!, {r1, r2, r3, r4, r7, r9, sl, ip, lr}

00000208 <l4>:
     208:	e3a0e004 	mov	lr, #4

0000020c <l5>:
     20c:	079d600e 	ldreq	r6, [sp, lr]

00000210 <l6>:
     210:	e3a0602c 	mov	r6, #44	; 0x2c

00000214 <l7>:
     214:	e72d6006 	str	r6, [sp, -r6]!

00000218 <l8>:
     218:	e3a0c002 	mov	ip, #2

0000021c <l9>:
     21c:	e19d20fc 	ldrsh	r2, [sp, ip]

00000220 <l10>:
     220:	e9ad6000 	stmib	sp!, {sp, lr}

00000224 <l11>:
     224:	e3a05002 	mov	r5, #2

00000228 <l12>:
     228:	911d00b5 	ldrhls	r0, [sp, -r5]

0000022c <l13>:
     22c:	e48d7038 	str	r7, [sp], #56	; 0x38

00000230 <l14>:
     230:	e15d70f4 	ldrsh	r7, [sp, #-4]

00000234 <l15>:
     234:	e3a05006 	mov	r5, #6

00000238 <l16>:
     238:	219de0b5 	ldrhcs	lr, [sp, r5]

0000023c <l17>:
     23c:	e51d5008 	ldr	r5, [sp, #-8]

00000240 <l18>:
     240:	e98d0080 	stmib	sp, {r7}

00000244 <l19>:
     244:	e3a06028 	mov	r6, #40	; 0x28

00000248 <l20>:
     248:	b70dc006 	strlt	ip, [sp, -r6]

0000024c <l21>:
     24c:	e9ad0004 	stmib	sp!, {r2}

00000250 <l22>:
     250:	e82d2000 	stmda	sp!, {sp}

00000254 <l23>:
     254:	e82d4421 	stmda	sp!, {r0, r5, sl, lr}

00000258 <l24>:
     258:	e3a03003 	mov	r3, #3

0000025c <l25>:
     25c:	375d4003 	ldrbcc	r4, [sp, -r3]

00000260 <l26>:
     260:	398d4906 	stmibcc	sp, {r1, r2, r8, fp, lr}

00000264 <l27>:
     264:	e3a05004 	mov	r5, #4

00000268 <l28>:
     268:	e7cdc005 	strb	ip, [sp, r5]

0000026c <l29>:
     26c:	e9ad03a8 	stmib	sp!, {r3, r5, r7, r8, r9}

00000270 <l30>:
     270:	189d0800 	ldmne	sp, {fp}

00000274 <l31>:
     274:	e3a05006 	mov	r5, #6

00000278 <l32>:
     278:	a19d10f5 	ldrshge	r1, [sp, r5]

0000027c <l33>:
     27c:	481d5240 	ldmdami	sp, {r6, r9, ip, lr}

00000280 <l34>:
     280:	e83d0050 	ldmda	sp!, {r4, r6}

00000284 <l35>:
     284:	e3a0600b 	mov	r6, #11

00000288 <l36>:
     288:	719d40d6 	ldrsbvc	r4, [sp, r6]

0000028c <l37>:
     28c:	e8bd0004 	ldmfd	sp!, {r2}

00000290 <l38>:
     290:	e93d5ffd 	ldmdb	sp!, {r0, r2, r3, r4, r5, r6, r7, r8, r9, sl, fp, ip, lr}

00000294 <l39>:
     294:	31dd03dc 	ldrsbcc	r0, [sp, #60]	; 0x3c

00000298 <l40>:
     298:	e3a00003 	mov	r0, #3

0000029c <l41>:
     29c:	d19d00d0 	ldrsble	r0, [sp, r0]

000002a0 <l42>:
     2a0:	e3a0c03e 	mov	ip, #62	; 0x3e

000002a4 <l43>:
     2a4:	e7ddb00c 	ldrb	fp, [sp, ip]

000002a8 <l44>:
     2a8:	41dd52f0 	ldrshmi	r5, [sp, #32]

000002ac <l45>:
     2ac:	71cd50ba 	strhvc	r5, [sp, #10]

000002b0 <l46>:
     2b0:	e5bd5020 	ldr	r5, [sp, #32]!

000002b4 <l47>:
     2b4:	e3a03012 	mov	r3, #18

000002b8 <l48>:
     2b8:	311dc0b3 	ldrhcc	ip, [sp, -r3]

000002bc <l49>:
     2bc:	e99d42c0 	ldmib	sp, {r6, r7, r9, lr}

000002c0 <l50>:
     2c0:	e3a04011 	mov	r4, #17

000002c4 <l51>:
     2c4:	37dda004 	ldrbcc	sl, [sp, r4]

000002c8 <l52>:
     2c8:	e5ad501c 	str	r5, [sp, #28]!

000002cc <l53>:
     2cc:	e3a0902a 	mov	r9, #42	; 0x2a

000002d0 <l54>:
     2d0:	411d50b9 	ldrhmi	r5, [sp, -r9]

000002d4 <l55>:
     2d4:	e15d34f4 	ldrsh	r3, [sp, #-68]	; 0xffffffbc

000002d8 <l56>:
     2d8:	081d4eb0 	ldmdaeq	sp, {r4, r5, r7, r9, sl, fp, lr}

000002dc <l57>:
     2dc:	e55d201c 	ldrb	r2, [sp, #-28]

000002e0 <l58>:
     2e0:	480d4241 	stmdami	sp, {r0, r6, r9, lr}

000002e4 <l59>:
     2e4:	054da025 	strbeq	sl, [sp, #-37]	; 0x25

000002e8 <l60>:
     2e8:	e92d2000 	stmfd	sp!, {sp}

000002ec <l61>:
     2ec:	e83d0f6e 	ldmda	sp!, {r1, r2, r3, r5, r6, r8, r9, sl, fp}

000002f0 <l62>:
     2f0:	e1dda0dc 	ldrsb	sl, [sp, #12]

000002f4 <l63>:
     2f4:	e8ad0024 	stmia	sp!, {r2, r5}

000002f8 <l64>:
     2f8:	e5ad8000 	str	r8, [sp, #0]!

000002fc <l65>:
     2fc:	e88d0201 	stm	sp, {r0, r9}

00000300 <l66>:
     300:	e48df000 	str	pc, [sp], #0

00000304 <l67>:
     304:	e3a07028 	mov	r7, #40	; 0x28

00000308 <l68>:
     308:	e11d20d7 	ldrsb	r2, [sp, -r7]

0000030c <l69>:
     30c:	e53d9010 	ldr	r9, [sp, #-16]!

00000310 <l70>:
     310:	e5bda01c 	ldr	sl, [sp, #28]!

00000314 <l71>:
     314:	e1ddc0f0 	ldrsh	ip, [sp]

00000318 <l72>:
     318:	e1a00000 	nop			; (mov r0, r0)

0000031c <l73>:
     31c:	e92d2000 	stmfd	sp!, {sp}

00000320 <l74>:
     320:	998d1480 	stmibls	sp, {r7, sl, ip}

00000324 <l75>:
     324:	e15d02ba 	ldrh	r0, [sp, #-42]	; 0xffffffd6

00000328 <l76>:
     328:	e8bd0100 	ldmfd	sp!, {r8}

0000032c <l77>:
     32c:	e8bd0080 	ldmfd	sp!, {r7}

00000330 <l78>:
     330:	e1a00000 	nop			; (mov r0, r0)

00000334 <l79>:
     334:	e9bd1500 	ldmib	sp!, {r8, sl, ip}

00000338 <l80>:
     338:	e3a06040 	mov	r6, #64	; 0x40

0000033c <l81>:
     33c:	e60d3006 	str	r3, [sp], -r6

00000340 <l82>:
     340:	e3a0c040 	mov	ip, #64	; 0x40

00000344 <l83>:
     344:	d19da0fc 	ldrshle	sl, [sp, ip]

00000348 <l84>:
     348:	e9bd5f3e 	ldmib	sp!, {r1, r2, r3, r4, r5, r8, r9, sl, fp, ip, lr}

0000034c <l85>:
     34c:	e3a0a01e 	mov	sl, #30

00000350 <l86>:
     350:	011d80ba 	ldrheq	r8, [sp, -sl]

00000354 <l87>:
     354:	e3a03018 	mov	r3, #24

00000358 <l88>:
     358:	b70da003 	strlt	sl, [sp, -r3]

0000035c <l89>:
     35c:	e90d0040 	stmdb	sp, {r6}

00000360 <l90>:
     360:	898dc003 	stmibhi	sp, {r0, r1, lr, pc}

00000364 <l91>:
     364:	71cd90b8 	strhvc	r9, [sp, #8]

00000368 <l92>:
     368:	e3a06018 	mov	r6, #24

0000036c <l93>:
     36c:	e74d3006 	strb	r3, [sp, -r6]

00000370 <l94>:
     370:	e8bd4400 	pop	{sl, lr}

00000374 <l95>:
     374:	e54d8036 	strb	r8, [sp, #-54]	; 0x36

00000378 <l96>:
     378:	e83d48e4 	ldmda	sp!, {r2, r5, r6, r7, fp, lr}

0000037c <l97>:
     37c:	314d01b0 	strhcc	r0, [sp, #-16]

00000380 <l98>:
     380:	e3a0002a 	mov	r0, #42	; 0x2a

00000384 <l99>:
     384:	a19de0b0 	ldrhge	lr, [sp, r0]

00000388 <l100>:
     388:	e52d5014 	str	r5, [sp, #-20]!

0000038c <l101>:
     38c:	e1a00000 	nop			; (mov r0, r0)

00000390 <l102>:
     390:	e3a07006 	mov	r7, #6

00000394 <l103>:
     394:	e19d70b7 	ldrh	r7, [sp, r7]

00000398 <l104>:
     398:	e1a00000 	nop			; (mov r0, r0)

0000039c <l105>:
     39c:	e3a03010 	mov	r3, #16

000003a0 <l106>:
     3a0:	819d20b3 	ldrhhi	r2, [sp, r3]

000003a4 <l107>:
     3a4:	e88dddc0 	stm	sp, {r6, r7, r8, sl, fp, ip, lr, pc}

000003a8 <l108>:
     3a8:	e9bd0324 	ldmib	sp!, {r2, r5, r8, r9}

000003ac <l109>:
     3ac:	e1a00000 	nop			; (mov r0, r0)

000003b0 <l110>:
     3b0:	e53d2018 	ldr	r2, [sp, #-24]!

000003b4 <l111>:
     3b4:	e1dda4d3 	ldrsb	sl, [sp, #67]	; 0x43

000003b8 <l112>:
     3b8:	e5bd3004 	ldr	r3, [sp, #4]!

000003bc <l113>:
     3bc:	55cdb01f 	strbpl	fp, [sp, #31]

000003c0 <l114>:
     3c0:	688d6fd6 	stmvs	sp, {r1, r2, r4, r6, r7, r8, r9, sl, fp, sp, lr}

000003c4 <l115>:
     3c4:	e3a0801e 	mov	r8, #30

000003c8 <l116>:
     3c8:	d18d30b8 	strhle	r3, [sp, r8]

000003cc <l117>:
     3cc:	e1a00000 	nop			; (mov r0, r0)

000003d0 <l118>:
     3d0:	e59d9014 	ldr	r9, [sp, #20]

000003d4 <l119>:
     3d4:	e3a06027 	mov	r6, #39	; 0x27

000003d8 <l120>:
     3d8:	17cd6006 	strbne	r6, [sp, r6]

000003dc <l121>:
     3dc:	e9bd0a00 	ldmib	sp!, {r9, fp}

000003e0 <l122>:
     3e0:	e9bd11a4 	ldmib	sp!, {r2, r5, r7, r8, ip}

000003e4 <l123>:
     3e4:	d98d0051 	stmible	sp, {r0, r4, r6}

000003e8 <l124>:
     3e8:	e3a09010 	mov	r9, #16

000003ec <l125>:
     3ec:	d18d00b9 	strhle	r0, [sp, r9]

000003f0 <l126>:
     3f0:	e55d400e 	ldrb	r4, [sp, #-14]

000003f4 <l127>:
     3f4:	a1dd81ba 	ldrhge	r8, [sp, #26]

000003f8 <l128>:
     3f8:	e3a0e01c 	mov	lr, #28

000003fc <l129>:
     3fc:	e74de00e 	strb	lr, [sp, -lr]

00000400 <l130>:
     400:	e3a0601c 	mov	r6, #28

00000404 <l131>:
     404:	079d3006 	ldreq	r3, [sp, r6]

00000408 <l132>:
     408:	e8bd0721 	pop	{r0, r5, r8, r9, sl}

0000040c <l133>:
     40c:	e3a0a004 	mov	sl, #4

00000410 <l134>:
     410:	419d30ba 	ldrhmi	r3, [sp, sl]

00000414 <l135>:
     414:	e83d5fd7 	ldmda	sp!, {r0, r1, r2, r4, r6, r7, r8, r9, sl, fp, ip, lr}

00000418 <l136>:
     418:	e1a00000 	nop			; (mov r0, r0)

0000041c <l137>:
     41c:	e48d6008 	str	r6, [sp], #8

00000420 <l138>:
     420:	e3a05014 	mov	r5, #20

00000424 <l139>:
     424:	e7bd2005 	ldr	r2, [sp, r5]!

00000428 <l140>:
     428:	e1cd81bc 	strh	r8, [sp, #28]

0000042c <l141>:
     42c:	e93d1a10 	ldmdb	sp!, {r4, r9, fp, ip}

00000430 <l142>:
     430:	e3a0001c 	mov	r0, #28

00000434 <l143>:
     434:	d18d60b0 	strhle	r6, [sp, r0]

00000438 <l144>:
     438:	e1a00000 	nop			; (mov r0, r0)

0000043c <l145>:
     43c:	e1a00000 	nop			; (mov r0, r0)

00000440 <l146>:
     440:	e3a0b01b 	mov	fp, #27

00000444 <l147>:
     444:	97dde00b 	ldrbls	lr, [sp, fp]

00000448 <l148>:
     448:	c88d3000 	stmgt	sp, {ip, sp}

0000044c <l149>:
     44c:	e3a03016 	mov	r3, #22

00000450 <l150>:
     450:	27cd4003 	strbcs	r4, [sp, r3]

00000454 <l151>:
     454:	e89d003c 	ldm	sp, {r2, r3, r4, r5}

00000458 <l152>:
     458:	65cd3030 	strbvs	r3, [sp, #48]	; 0x30

0000045c <l153>:
     45c:	e3a09007 	mov	r9, #7

00000460 <l154>:
     460:	111db0d9 	ldrsbne	fp, [sp, -r9]

00000464 <l155>:
     464:	e82d0090 	stmda	sp!, {r4, r7}

00000468 <l156>:
     468:	e82d1000 	stmda	sp!, {ip}

0000046c <l157>:
     46c:	754dc002 	strbvc	ip, [sp, #-2]

00000470 <l158>:
     470:	e3a05004 	mov	r5, #4

00000474 <l159>:
     474:	719d50b5 	ldrhvc	r5, [sp, r5]

00000478 <l160>:
     478:	e3a06018 	mov	r6, #24

0000047c <l161>:
     47c:	219de0d6 	ldrsbcs	lr, [sp, r6]

00000480 <l162>:
     480:	e1a00000 	nop			; (mov r0, r0)

00000484 <l163>:
     484:	e3a01008 	mov	r1, #8

00000488 <l164>:
     488:	e72d5001 	str	r5, [sp, -r1]!

0000048c <l165>:
     48c:	e3a0e03e 	mov	lr, #62	; 0x3e

00000490 <l166>:
     490:	e19db0fe 	ldrsh	fp, [sp, lr]

00000494 <l167>:
     494:	188dfffb 	stmne	sp, {r0, r1, r3, r4, r5, r6, r7, r8, r9, sl, fp, ip, sp, lr, pc}

00000498 <l168>:
     498:	e1a00000 	nop			; (mov r0, r0)

0000049c <l169>:
     49c:	188d70a7 	stmne	sp, {r0, r1, r2, r5, r7, ip, sp, lr}

000004a0 <l170>:
     4a0:	e9ad2000 	stmib	sp!, {sp}

000004a4 <l171>:
     4a4:	e8bd106d 	pop	{r0, r2, r3, r5, r6, ip}

000004a8 <l172>:
     4a8:	e15d41fa 	ldrsh	r4, [sp, #-26]	; 0xffffffe6

000004ac <l173>:
     4ac:	e3a06025 	mov	r6, #37	; 0x25

000004b0 <l174>:
     4b0:	e19d60d6 	ldrsb	r6, [sp, r6]

000004b4 <l175>:
     4b4:	e3a09010 	mov	r9, #16

000004b8 <l176>:
     4b8:	e78dc009 	str	ip, [sp, r9]

000004bc <l177>:
     4bc:	e3a00006 	mov	r0, #6

000004c0 <l178>:
     4c0:	e10d60b0 	strh	r6, [sp, -r0]

000004c4 <l179>:
     4c4:	e15d31dc 	ldrsb	r3, [sp, #-28]	; 0xffffffe4

000004c8 <l180>:
     4c8:	e8ad96a5 	stmia	sp!, {r0, r2, r5, r7, r9, sl, ip, pc}

000004cc <l181>:
     4cc:	e83d1f3e 	ldmda	sp!, {r1, r2, r3, r4, r5, r8, r9, sl, fp, ip}

000004d0 <l182>:
     4d0:	e3a0b002 	mov	fp, #2

000004d4 <l183>:
     4d4:	e19d20bb 	ldrh	r2, [sp, fp]

000004d8 <l184>:
     4d8:	e92d0008 	stmfd	sp!, {r3}

000004dc <l185>:
     4dc:	e93d0800 	ldmdb	sp!, {fp}

000004e0 <l186>:
     4e0:	e3a02028 	mov	r2, #40	; 0x28

000004e4 <l187>:
     4e4:	e68d1002 	str	r1, [sp], r2

000004e8 <l188>:
     4e8:	e3a09002 	mov	r9, #2

000004ec <l189>:
     4ec:	e75da009 	ldrb	sl, [sp, -r9]

000004f0 <l190>:
     4f0:	788d0200 	stmvc	sp, {r9}

000004f4 <l191>:
     4f4:	e1dde0fc 	ldrsh	lr, [sp, #12]

000004f8 <l192>:
     4f8:	e9ad0200 	stmib	sp!, {r9}

000004fc <l193>:
     4fc:	e3a07018 	mov	r7, #24

00000500 <l194>:
     500:	071db007 	ldreq	fp, [sp, -r7]

00000504 <l195>:
     504:	290df2cd 	stmdbcs	sp, {r0, r2, r3, r6, r7, r9, ip, sp, lr, pc}

00000508 <l196>:
     508:	e3a0a001 	mov	sl, #1

0000050c <l197>:
     50c:	c7cd700a 	strbgt	r7, [sp, sl]

00000510 <l198>:
     510:	e83d0008 	ldmda	sp!, {r3}

00000514 <l199>:
     514:	715d10bc 	ldrhvc	r1, [sp, #-12]

00000518 <l200>:
     518:	e83d5009 	ldmda	sp!, {r0, r3, ip, lr}

0000051c <l201>:
     51c:	75cd1013 	strbvc	r1, [sp, #19]

00000520 <l202>:
     520:	790d0008 	stmdbvc	sp, {r3}

00000524 <l203>:
     524:	e54d0010 	strb	r0, [sp, #-16]

00000528 <l204>:
     528:	e3a05024 	mov	r5, #36	; 0x24

0000052c <l205>:
     52c:	e7adb005 	str	fp, [sp, r5]!

00000530 <l206>:
     530:	c90d0800 	stmdbgt	sp, {fp}

00000534 <l207>:
     534:	e91d14f4 	ldmdb	sp, {r2, r4, r5, r6, r7, sl, ip}

00000538 <l208>:
     538:	e54d9045 	strb	r9, [sp, #-69]	; 0x45

0000053c <l209>:
     53c:	e3a00012 	mov	r0, #18

00000540 <l210>:
     540:	e10d50b0 	strh	r5, [sp, -r0]

00000544 <l211>:
     544:	e82d2000 	stmda	sp!, {sp}

00000548 <l212>:
     548:	e3a0c034 	mov	ip, #52	; 0x34

0000054c <l213>:
     54c:	e11d00bc 	ldrh	r0, [sp, -ip]

00000550 <l214>:
     550:	d54da017 	strble	sl, [sp, #-23]

00000554 <l215>:
     554:	e3a0a01c 	mov	sl, #28

00000558 <l216>:
     558:	e61dc00a 	ldr	ip, [sp], -sl

0000055c <l217>:
     55c:	e3a0a024 	mov	sl, #36	; 0x24

00000560 <l218>:
     560:	e11d60ba 	ldrh	r6, [sp, -sl]

00000564 <l219>:
     564:	e99d0418 	ldmib	sp, {r3, r4, sl}

00000568 <l220>:
     568:	e89d00c4 	ldm	sp, {r2, r6, r7}

0000056c <l221>:
     56c:	e3a0101e 	mov	r1, #30

00000570 <l222>:
     570:	a18d40b1 	strhge	r4, [sp, r1]

00000574 <l223>:
     574:	e3a01006 	mov	r1, #6

00000578 <l224>:
     578:	e19d40b1 	ldrh	r4, [sp, r1]

0000057c <l225>:
     57c:	d50dc028 	strle	ip, [sp, #-40]	; 0x28

00000580 <l226>:
     580:	a5cd0011 	strbge	r0, [sp, #17]

00000584 <l227>:
     584:	e91d4586 	ldmdb	sp, {r1, r2, r7, r8, sl, lr}

00000588 <l228>:
     588:	e52df008 	str	pc, [sp, #-8]!

0000058c <l229>:
     58c:	e92d0820 	push	{r5, fp}

00000590 <l230>:
     590:	e1dd02df 	ldrsb	r0, [sp, #47]	; 0x2f

00000594 <l231>:
     594:	e3a0a02b 	mov	sl, #43	; 0x2b

00000598 <l232>:
     598:	119d90da 	ldrsbne	r9, [sp, sl]

0000059c <l233>:
     59c:	e89d4dec 	ldm	sp, {r2, r3, r5, r6, r7, r8, sl, fp, lr}

000005a0 <l234>:
     5a0:	e99d4ca9 	ldmib	sp, {r0, r3, r5, r7, sl, fp, lr}

000005a4 <l235>:
     5a4:	e3a0c00e 	mov	ip, #14

000005a8 <l236>:
     5a8:	519db0fc 	ldrshpl	fp, [sp, ip]

000005ac <l237>:
     5ac:	e1dd92f0 	ldrsh	r9, [sp, #32]

000005b0 <l238>:
     5b0:	c54d200c 	strbgt	r2, [sp, #-12]

000005b4 <l239>:
     5b4:	65dd0001 	ldrbvs	r0, [sp, #1]

000005b8 <l240>:
     5b8:	e3a0b010 	mov	fp, #16

000005bc <l241>:
     5bc:	e73d900b 	ldr	r9, [sp, -fp]!

000005c0 <l242>:
     5c0:	a5cd301b 	strbge	r3, [sp, #27]

000005c4 <l243>:
     5c4:	e3a04038 	mov	r4, #56	; 0x38

000005c8 <l244>:
     5c8:	a19d60b4 	ldrhge	r6, [sp, r4]

000005cc <l245>:
     5cc:	e3a0a037 	mov	sl, #55	; 0x37

000005d0 <l246>:
     5d0:	e7dd600a 	ldrb	r6, [sp, sl]

000005d4 <l247>:
     5d4:	e1a00000 	nop			; (mov r0, r0)

000005d8 <l248>:
     5d8:	e8ad02d8 	stmia	sp!, {r3, r4, r6, r7, r9}

000005dc <l249>:
     5dc:	e88d4b71 	stm	sp, {r0, r4, r5, r6, r8, r9, fp, lr}

000005e0 <l250>:
     5e0:	e3a0b018 	mov	fp, #24

000005e4 <l251>:
     5e4:	e69da00b 	ldr	sl, [sp], fp

000005e8 <l252>:
     5e8:	e48d8000 	str	r8, [sp], #0

000005ec <l253>:
     5ec:	e83d14cf 	ldmda	sp!, {r0, r1, r2, r3, r6, r7, sl, ip}

000005f0 <l254>:
     5f0:	955db003 	ldrbls	fp, [sp, #-3]

000005f4 <l255>:
     5f4:	e1a00000 	nop			; (mov r0, r0)

000005f8 <l256>:
     5f8:	e81d0600 	ldmda	sp, {r9, sl}

000005fc <l257>:
     5fc:	a5dd6030 	ldrbge	r6, [sp, #48]	; 0x30

00000600 <l258>:
     600:	e3a0c023 	mov	ip, #35	; 0x23

00000604 <l259>:
     604:	27cd300c 	strbcs	r3, [sp, ip]

00000608 <l260>:
     608:	e3a07022 	mov	r7, #34	; 0x22

0000060c <l261>:
     60c:	718d30b7 	strhvc	r3, [sp, r7]

00000610 <l262>:
     610:	e54d6002 	strb	r6, [sp, #-2]

00000614 <l263>:
     614:	e82d0041 	stmda	sp!, {r0, r6}

00000618 <l264>:
     618:	e1cdb2be 	strh	fp, [sp, #46]	; 0x2e

0000061c <l265>:
     61c:	e8bd4020 	pop	{r5, lr}

00000620 <l266>:
     620:	e5dd602f 	ldrb	r6, [sp, #47]	; 0x2f

00000624 <l267>:
     624:	d1dde3f2 	ldrshle	lr, [sp, #50]	; 0x32

00000628 <l268>:
     628:	e3a00024 	mov	r0, #36	; 0x24

0000062c <l269>:
     62c:	e19d60f0 	ldrsh	r6, [sp, r0]

00000630 <l270>:
     630:	e9bd10a0 	ldmib	sp!, {r5, r7, ip}

00000634 <l271>:
     634:	e1a00000 	nop			; (mov r0, r0)

00000638 <l272>:
     638:	e88d32aa 	stm	sp, {r1, r3, r5, r7, r9, ip, sp}

0000063c <l273>:
     63c:	e3a03004 	mov	r3, #4

00000640 <l274>:
     640:	e7bde003 	ldr	lr, [sp, r3]!

00000644 <l275>:
     644:	e3a04006 	mov	r4, #6

00000648 <l276>:
     648:	d7dd5004 	ldrble	r5, [sp, r4]

0000064c <l277>:
     64c:	680d6442 	stmdavs	sp, {r1, r6, sl, sp, lr}

00000650 <l278>:
     650:	e3a01014 	mov	r1, #20

00000654 <l279>:
     654:	e73d8001 	ldr	r8, [sp, -r1]!

00000658 <l280>:
     658:	41dd91de 	ldrsbmi	r9, [sp, #30]

0000065c <l281>:
     65c:	e1a00000 	nop			; (mov r0, r0)

00000660 <l282>:
     660:	e9bd0d5e 	ldmib	sp!, {r1, r2, r3, r4, r6, r8, sl, fp}

00000664 <l283>:
     664:	554d301d 	strbpl	r3, [sp, #-29]

00000668 <l284>:
     668:	290d3493 	stmdbcs	sp, {r0, r1, r4, r7, sl, ip, sp}

0000066c <l285>:
     66c:	e3a05014 	mov	r5, #20

00000670 <l286>:
     670:	e11db0d5 	ldrsb	fp, [sp, -r5]

00000674 <l287>:
     674:	e3a03028 	mov	r3, #40	; 0x28

00000678 <l288>:
     678:	e11d90d3 	ldrsb	r9, [sp, -r3]

0000067c <l289>:
     67c:	e3a0900c 	mov	r9, #12

00000680 <l290>:
     680:	811d90b9 	ldrhhi	r9, [sp, -r9]

00000684 <l291>:
     684:	e5cd2008 	strb	r2, [sp, #8]

00000688 <l292>:
     688:	31dd50d1 	ldrsbcc	r5, [sp, #1]

0000068c <l293>:
     68c:	e8ad1d01 	stmia	sp!, {r0, r8, sl, fp, ip}

00000690 <l294>:
     690:	d1dd70d6 	ldrsble	r7, [sp, #6]

00000694 <l295>:
     694:	d5dd0006 	ldrble	r0, [sp, #6]

00000698 <l296>:
     698:	e9ad8000 	stmib	sp!, {pc}

0000069c <l297>:
     69c:	e1a00000 	nop			; (mov r0, r0)

000006a0 <l298>:
     6a0:	e52d0030 	str	r0, [sp, #-48]!	; 0x30

000006a4 <l299>:
     6a4:	c5dd6002 	ldrbgt	r6, [sp, #2]

000006a8 <l300>:
     6a8:	e40d7010 	str	r7, [sp], #-16

000006ac <l301>:
     6ac:	e1a00000 	nop			; (mov r0, r0)

000006b0 <l302>:
     6b0:	71dd11d1 	ldrsbvc	r1, [sp, #17]

000006b4 <l303>:
     6b4:	e3a04003 	mov	r4, #3

000006b8 <l304>:
     6b8:	274db004 	strbcs	fp, [sp, -r4]

000006bc <l305>:
     6bc:	e9ade000 	stmib	sp!, {sp, lr, pc}

000006c0 <l306>:
     6c0:	e5ad7034 	str	r7, [sp, #52]!	; 0x34

000006c4 <l307>:
     6c4:	e15d72d1 	ldrsb	r7, [sp, #-33]	; 0xffffffdf

000006c8 <l308>:
     6c8:	e1a00000 	nop			; (mov r0, r0)

000006cc <l309>:
     6cc:	e40d903c 	str	r9, [sp], #-60	; 0x3c

000006d0 <l310>:
     6d0:	e3a0101c 	mov	r1, #28

000006d4 <l311>:
     6d4:	519d50b1 	ldrhpl	r5, [sp, r1]

000006d8 <l312>:
     6d8:	e41d2008 	ldr	r2, [sp], #-8

000006dc <l313>:
     6dc:	e8bd4bd3 	pop	{r0, r1, r4, r6, r7, r8, r9, fp, lr}

000006e0 <l314>:
     6e0:	e1a00000 	nop			; (mov r0, r0)

000006e4 <l315>:
     6e4:	e54d7019 	strb	r7, [sp, #-25]

000006e8 <l316>:
     6e8:	e9bd0336 	ldmib	sp!, {r1, r2, r4, r5, r8, r9}

000006ec <l317>:
     6ec:	e1a00000 	nop			; (mov r0, r0)

000006f0 <l318>:
     6f0:	e3a05038 	mov	r5, #56	; 0x38

000006f4 <l319>:
     6f4:	e70dc005 	str	ip, [sp, -r5]

000006f8 <l320>:
     6f8:	e92d0200 	stmfd	sp!, {r9}

000006fc <l321>:
     6fc:	b15d12b0 	ldrhlt	r1, [sp, #-32]	; 0xffffffe0

00000700 <l322>:
     700:	e81d4fee 	ldmda	sp, {r1, r2, r3, r5, r6, r7, r8, r9, sl, fp, lr}

00000704 <l323>:
     704:	e54db035 	strb	fp, [sp, #-53]	; 0x35

00000708 <l324>:
     708:	e3a06008 	mov	r6, #8

0000070c <l325>:
     70c:	e19d00d6 	ldrsb	r0, [sp, r6]

00000710 <l326>:
     710:	581d0402 	ldmdapl	sp, {r1, sl}

00000714 <l327>:
     714:	e55dc03c 	ldrb	ip, [sp, #-60]	; 0x3c

00000718 <l328>:
     718:	e8ad0604 	stmia	sp!, {r2, r9, sl}

0000071c <l329>:
     71c:	e81d5bfa 	ldmda	sp, {r1, r3, r4, r5, r6, r7, r8, r9, fp, ip, lr}

00000720 <l330>:
     720:	414de3b4 	strhmi	lr, [sp, #-52]	; 0xffffffcc

00000724 <l331>:
     724:	e52d303c 	str	r3, [sp, #-60]!	; 0x3c

00000728 <l332>:
     728:	d1ddb0df 	ldrsble	fp, [sp, #15]

0000072c <l333>:
     72c:	e1a00000 	nop			; (mov r0, r0)

00000730 <l334>:
     730:	359d6028 	ldrcc	r6, [sp, #40]	; 0x28

00000734 <l335>:
     734:	e9ade000 	stmib	sp!, {sp, lr, pc}

00000738 <l336>:
     738:	e3a0400c 	mov	r4, #12

0000073c <l337>:
     73c:	311d80f4 	ldrshcc	r8, [sp, -r4]

00000740 <l338>:
     740:	e1a00000 	nop			; (mov r0, r0)

00000744 <l339>:
     744:	a1cdb0bc 	strhge	fp, [sp, #12]

00000748 <l340>:
     748:	e3a04008 	mov	r4, #8

0000074c <l341>:
     74c:	e7bd0004 	ldr	r0, [sp, r4]!

00000750 <l342>:
     750:	e15d91f2 	ldrsh	r9, [sp, #-18]	; 0xffffffee

00000754 <l343>:
     754:	e1a00000 	nop			; (mov r0, r0)

00000758 <l344>:
     758:	e9adcb0b 	stmib	sp!, {r0, r1, r3, r8, r9, fp, lr, pc}

0000075c <l345>:
     75c:	e3a04000 	mov	r4, #0

00000760 <l346>:
     760:	c19d60b4 	ldrhgt	r6, [sp, r4]

00000764 <l347>:
     764:	e40d7034 	str	r7, [sp], #-52	; 0x34

00000768 <l348>:
     768:	e3a0a00c 	mov	sl, #12

0000076c <l349>:
     76c:	e11dc0fa 	ldrsh	ip, [sp, -sl]

00000770 <l350>:
     770:	115d90ba 	ldrhne	r9, [sp, #-10]

00000774 <l351>:
     774:	e8bd4920 	pop	{r5, r8, fp, lr}

00000778 <l352>:
     778:	e3a06014 	mov	r6, #20

0000077c <l353>:
     77c:	e11d50d6 	ldrsb	r5, [sp, -r6]

00000780 <l354>:
     780:	c15dc1d3 	ldrsbgt	ip, [sp, #-19]	; 0xffffffed

00000784 <l355>:
     784:	e80d8000 	stmda	sp, {pc}

00000788 <l356>:
     788:	e5ddc01c 	ldrb	ip, [sp, #28]

0000078c <l357>:
     78c:	050de014 	streq	lr, [sp, #-20]

00000790 <l358>:
     790:	e3a0b02a 	mov	fp, #42	; 0x2a

00000794 <l359>:
     794:	e18d60bb 	strh	r6, [sp, fp]

00000798 <l360>:
     798:	e1a00000 	nop			; (mov r0, r0)

0000079c <l361>:
     79c:	e92d0100 	stmfd	sp!, {r8}

000007a0 <l362>:
     7a0:	e93d1440 	ldmdb	sp!, {r6, sl, ip}

000007a4 <l363>:
     7a4:	e8bd5cfd 	pop	{r0, r2, r3, r4, r5, r6, r7, sl, fp, ip, lr}

000007a8 <l364>:
     7a8:	e14d41be 	strh	r4, [sp, #-30]	; 0xffffffe2

000007ac <l365>:
     7ac:	e93d0c01 	ldmdb	sp!, {r0, sl, fp}

000007b0 <l366>:
     7b0:	e40d7024 	str	r7, [sp], #-36	; 0x24

000007b4 <l367>:
     7b4:	e1a00000 	nop			; (mov r0, r0)

000007b8 <l368>:
     7b8:	e1a00000 	nop			; (mov r0, r0)

000007bc <l369>:
     7bc:	e1a00000 	nop			; (mov r0, r0)

000007c0 <l370>:
     7c0:	e3a05039 	mov	r5, #57	; 0x39

000007c4 <l371>:
     7c4:	e7dd2005 	ldrb	r2, [sp, r5]

000007c8 <l372>:
     7c8:	e3a06022 	mov	r6, #34	; 0x22

000007cc <l373>:
     7cc:	e19d70b6 	ldrh	r7, [sp, r6]

000007d0 <l374>:
     7d0:	e9add9ff 	stmib	sp!, {r0, r1, r2, r3, r4, r5, r6, r7, r8, fp, ip, lr, pc}

000007d4 <l375>:
     7d4:	e58d100c 	str	r1, [sp, #12]

000007d8 <l376>:
     7d8:	e92ddf62 	push	{r1, r5, r6, r8, r9, sl, fp, ip, lr, pc}

000007dc <l377>:
     7dc:	e5ad1034 	str	r1, [sp, #52]!	; 0x34

000007e0 <l378>:
     7e0:	e1a00000 	nop			; (mov r0, r0)

000007e4 <l379>:
     7e4:	e83d0ff5 	ldmda	sp!, {r0, r2, r4, r5, r6, r7, r8, r9, sl, fp}

000007e8 <l380>:
     7e8:	e3a0700e 	mov	r7, #14

000007ec <l381>:
     7ec:	011d80f7 	ldrsheq	r8, [sp, -r7]

000007f0 <l382>:
     7f0:	255d8002 	ldrbcs	r8, [sp, #-2]

000007f4 <l383>:
     7f4:	e1a00000 	nop			; (mov r0, r0)

000007f8 <l384>:
     7f8:	e3a04018 	mov	r4, #24

000007fc <l385>:
     7fc:	874d7004 	strbhi	r7, [sp, -r4]

00000800 <l386>:
     800:	e9bd1279 	ldmib	sp!, {r0, r3, r4, r5, r6, r9, ip}

00000804 <l387>:
     804:	a15d60b6 	ldrhge	r6, [sp, #-6]

00000808 <l388>:
     808:	e3a01026 	mov	r1, #38	; 0x26

0000080c <l389>:
     80c:	e11da0d1 	ldrsb	sl, [sp, -r1]

00000810 <l390>:
     810:	e8ad0800 	stmia	sp!, {fp}

00000814 <l391>:
     814:	d15d73f4 	ldrshle	r7, [sp, #-52]	; 0xffffffcc

00000818 <l392>:
     818:	91dda0d4 	ldrsbls	sl, [sp, #4]

0000081c <l393>:
     81c:	515da3d8 	ldrsbpl	sl, [sp, #-56]	; 0xffffffc8

00000820 <l394>:
     820:	599d0800 	ldmibpl	sp, {fp}

00000824 <l395>:
     824:	e51da03c 	ldr	sl, [sp, #-60]	; 0x3c

00000828 <l396>:
     828:	e5cdc006 	strb	ip, [sp, #6]

0000082c <l397>:
     82c:	e3a0b03a 	mov	fp, #58	; 0x3a

00000830 <l398>:
     830:	775d200b 	ldrbvc	r2, [sp, -fp]

00000834 <l399>:
     834:	e3a01010 	mov	r1, #16

00000838 <l400>:
     838:	e61de001 	ldr	lr, [sp], -r1

0000083c <l401>:
     83c:	e3a0b00c 	mov	fp, #12

00000840 <l402>:
     840:	e18d70bb 	strh	r7, [sp, fp]

00000844 <l403>:
     844:	e3a0e017 	mov	lr, #23

00000848 <l404>:
     848:	e74d200e 	strb	r2, [sp, -lr]

0000084c <l405>:
     84c:	31dd70d9 	ldrsbcc	r7, [sp, #9]

00000850 <l406>:
     850:	e14d52b4 	strh	r5, [sp, #-36]	; 0xffffffdc

00000854 <l407>:
     854:	e1a00000 	nop			; (mov r0, r0)

00000858 <l408>:
     858:	e3a06008 	mov	r6, #8

0000085c <l409>:
     85c:	e72d0006 	str	r0, [sp, -r6]!

00000860 <l410>:
     860:	e54d0004 	strb	r0, [sp, #-4]

00000864 <l411>:
     864:	e3a0b023 	mov	fp, #35	; 0x23

00000868 <l412>:
     868:	d11d90db 	ldrsble	r9, [sp, -fp]

0000086c <l413>:
     86c:	e51d901c 	ldr	r9, [sp, #-28]

00000870 <l414>:
     870:	e1a00000 	nop			; (mov r0, r0)

00000874 <l415>:
     874:	c5dd5016 	ldrbgt	r5, [sp, #22]

00000878 <l416>:
     878:	d1dd80b0 	ldrhle	r8, [sp]

0000087c <l417>:
     87c:	880d0178 	stmdahi	sp, {r3, r4, r5, r6, r8}

00000880 <l418>:
     880:	e1cd21b4 	strh	r2, [sp, #20]

00000884 <l419>:
     884:	e3a09010 	mov	r9, #16

00000888 <l420>:
     888:	c78d3009 	strgt	r3, [sp, r9]

0000088c <l421>:
     88c:	e93d4447 	ldmdb	sp!, {r0, r1, r2, r6, sl, lr}

00000890 <l422>:
     890:	e3a0803b 	mov	r8, #59	; 0x3b

00000894 <l423>:
     894:	e7dd4008 	ldrb	r4, [sp, r8]

00000898 <l424>:
     898:	e3a0702c 	mov	r7, #44	; 0x2c

0000089c <l425>:
     89c:	e7ad2007 	str	r2, [sp, r7]!

000008a0 <l426>:
     8a0:	e3a05024 	mov	r5, #36	; 0x24

000008a4 <l427>:
     8a4:	771d5005 	ldrvc	r5, [sp, -r5]

000008a8 <l428>:
     8a8:	e9ad1080 	stmib	sp!, {r7, ip}

000008ac <l429>:
     8ac:	e82dd5f2 	stmda	sp!, {r1, r4, r5, r6, r7, r8, sl, ip, lr, pc}

000008b0 <l430>:
     8b0:	e5ddb006 	ldrb	fp, [sp, #6]

000008b4 <l431>:
     8b4:	01cd81b6 	strheq	r8, [sp, #22]

000008b8 <l432>:
     8b8:	e3a04014 	mov	r4, #20

000008bc <l433>:
     8bc:	b78d6004 	strlt	r6, [sp, r4]

000008c0 <l434>:
     8c0:	e3a0a00c 	mov	sl, #12

000008c4 <l435>:
     8c4:	e7adc00a 	str	ip, [sp, sl]!

000008c8 <l436>:
     8c8:	e81d162c 	ldmda	sp, {r2, r3, r5, r9, sl, ip}

000008cc <l437>:
     8cc:	e9bd470a 	ldmib	sp!, {r1, r3, r8, r9, sl, lr}

000008d0 <l438>:
     8d0:	e3a06040 	mov	r6, #64	; 0x40

000008d4 <l439>:
     8d4:	e73da006 	ldr	sl, [sp, -r6]!

000008d8 <l440>:
     8d8:	e8bd1612 	pop	{r1, r4, r9, sl, ip}

000008dc <l441>:
     8dc:	e3a0b024 	mov	fp, #36	; 0x24

000008e0 <l442>:
     8e0:	e78d500b 	str	r5, [sp, fp]

000008e4 <l443>:
     8e4:	e3a0000e 	mov	r0, #14

000008e8 <l444>:
     8e8:	e19d30d0 	ldrsb	r3, [sp, r0]

000008ec <l445>:
     8ec:	e48d7024 	str	r7, [sp], #36	; 0x24

000008f0 <l446>:
     8f0:	e3a0700e 	mov	r7, #14

000008f4 <l447>:
     8f4:	675d8007 	ldrbvs	r8, [sp, -r7]

000008f8 <l448>:
     8f8:	e3a0101c 	mov	r1, #28

000008fc <l449>:
     8fc:	e60df001 	str	pc, [sp], -r1

00000900 <l450>:
     900:	05dd8005 	ldrbeq	r8, [sp, #5]

00000904 <l451>:
     904:	e1dd32be 	ldrh	r3, [sp, #46]	; 0x2e

00000908 <l452>:
     908:	e9bd1d5e 	ldmib	sp!, {r1, r2, r3, r4, r6, r8, sl, fp, ip}

0000090c <l453>:
     90c:	e3a0400a 	mov	r4, #10

00000910 <l454>:
     910:	e10d10b4 	strh	r1, [sp, -r4]

00000914 <l455>:
     914:	e1a00000 	nop			; (mov r0, r0)

00000918 <l456>:
     918:	e3a02005 	mov	r2, #5

0000091c <l457>:
     91c:	275d7002 	ldrbcs	r7, [sp, -r2]

00000920 <l458>:
     920:	c15d11dc 	ldrsbgt	r1, [sp, #-28]	; 0xffffffe4

00000924 <l459>:
     924:	e1a00000 	nop			; (mov r0, r0)

00000928 <l460>:
     928:	988d0080 	stmls	sp, {r7}

0000092c <l461>:
     92c:	e5dde004 	ldrb	lr, [sp, #4]

00000930 <l462>:
     930:	d1cd50b4 	strhle	r5, [sp, #4]

00000934 <l463>:
     934:	c80debdf 	stmdagt	sp, {r0, r1, r2, r3, r4, r6, r7, r8, r9, fp, sp, lr, pc}

00000938 <l464>:
     938:	e1cd90ba 	strh	r9, [sp, #10]

0000093c <l465>:
     93c:	e3a01034 	mov	r1, #52	; 0x34

00000940 <l466>:
     940:	111d50f1 	ldrshne	r5, [sp, -r1]

00000944 <l467>:
     944:	e9bd4020 	ldmib	sp!, {r5, lr}

00000948 <l468>:
     948:	e3a05036 	mov	r5, #54	; 0x36

0000094c <l469>:
     94c:	a74d8005 	strbge	r8, [sp, -r5]

00000950 <l470>:
     950:	e1a00000 	nop			; (mov r0, r0)

00000954 <l471>:
     954:	291d0382 	ldmdbcs	sp, {r1, r7, r8, r9}

00000958 <l472>:
     958:	e3a0e029 	mov	lr, #41	; 0x29

0000095c <l473>:
     95c:	e11da0de 	ldrsb	sl, [sp, -lr]

00000960 <l474>:
     960:	e1a00000 	nop			; (mov r0, r0)

00000964 <l475>:
     964:	e1a00000 	nop			; (mov r0, r0)

00000968 <l476>:
     968:	e3a0b030 	mov	fp, #48	; 0x30

0000096c <l477>:
     96c:	e70d600b 	str	r6, [sp, -fp]

00000970 <l478>:
     970:	e3a03006 	mov	r3, #6

00000974 <l479>:
     974:	b11d10d3 	ldrsblt	r1, [sp, -r3]

00000978 <l480>:
     978:	e40de018 	str	lr, [sp], #-24

0000097c <l481>:
     97c:	e15d72f2 	ldrsh	r7, [sp, #-34]	; 0xffffffde

00000980 <l482>:
     980:	e3a07006 	mov	r7, #6

00000984 <l483>:
     984:	e11d30f7 	ldrsh	r3, [sp, -r7]

00000988 <l484>:
     988:	e3a0800a 	mov	r8, #10

0000098c <l485>:
     98c:	211da0b8 	ldrhcs	sl, [sp, -r8]

00000990 <l486>:
     990:	e83d414d 	ldmda	sp!, {r0, r2, r3, r6, r8, lr}

00000994 <l487>:
     994:	e8bd0095 	pop	{r0, r2, r4, r7}

00000998 <l488>:
     998:	e3a0c008 	mov	ip, #8

0000099c <l489>:
     99c:	e7bd200c 	ldr	r2, [sp, ip]!

000009a0 <l490>:
     9a0:	e1a00000 	nop			; (mov r0, r0)

000009a4 <l491>:
     9a4:	755d002e 	ldrbvc	r0, [sp, #-46]	; 0x2e

000009a8 <l492>:
     9a8:	e93d0084 	ldmdb	sp!, {r2, r7}

000009ac <l493>:
     9ac:	e82d8040 	stmda	sp!, {r6, pc}

000009b0 <l494>:
     9b0:	e15d72d0 	ldrsb	r7, [sp, #-32]	; 0xffffffe0

000009b4 <l495>:
     9b4:	e92d0040 	stmfd	sp!, {r6}

000009b8 <l496>:
     9b8:	c15d01db 	ldrsbgt	r0, [sp, #-27]	; 0xffffffe5

000009bc <l497>:
     9bc:	e3a00006 	mov	r0, #6

000009c0 <l498>:
     9c0:	e19d80b0 	ldrh	r8, [sp, r0]

000009c4 <l499>:
     9c4:	e3a0802d 	mov	r8, #45	; 0x2d

000009c8 <l500>:
     9c8:	67cd6008 	strbvs	r6, [sp, r8]

000009cc <l501>:
     9cc:	e9ad0c76 	stmib	sp!, {r1, r2, r4, r5, r6, sl, fp}

000009d0 <l502>:
     9d0:	e3a0b01c 	mov	fp, #28

000009d4 <l503>:
     9d4:	e60dc00b 	str	ip, [sp], -fp

000009d8 <l504>:
     9d8:	e5bd4008 	ldr	r4, [sp, #8]!

000009dc <l505>:
     9dc:	e15d90ba 	ldrh	r9, [sp, #-10]

000009e0 <l506>:
     9e0:	e9bd1e73 	ldmib	sp!, {r0, r1, r4, r5, r6, r9, sl, fp, ip}

000009e4 <l507>:
     9e4:	e14d42b8 	strh	r4, [sp, #-40]	; 0xffffffd8

000009e8 <l508>:
     9e8:	e14d02b0 	strh	r0, [sp, #-32]	; 0xffffffe0

000009ec <l509>:
     9ec:	e1a00000 	nop			; (mov r0, r0)

000009f0 <l510>:
     9f0:	915dc4d2 	ldrsbls	ip, [sp, #-66]	; 0xffffffbe

000009f4 <l511>:
     9f4:	e3a04044 	mov	r4, #68	; 0x44

000009f8 <l512>:
     9f8:	011d90d4 	ldrsbeq	r9, [sp, -r4]

000009fc <l513>:
     9fc:	e1a00000 	nop			; (mov r0, r0)

00000a00 <l514>:
     a00:	e15d40fa 	ldrsh	r4, [sp, #-10]

00000a04 <l515>:
     a04:	181d0091 	ldmdane	sp, {r0, r4, r7}

00000a08 <l516>:
     a08:	e15de0dd 	ldrsb	lr, [sp, #-13]

00000a0c <l517>:
     a0c:	e3a05042 	mov	r5, #66	; 0x42

00000a10 <l518>:
     a10:	e11d50f5 	ldrsh	r5, [sp, -r5]

00000a14 <l519>:
     a14:	e54d4028 	strb	r4, [sp, #-40]	; 0x28

00000a18 <l520>:
     a18:	e3a0b02c 	mov	fp, #44	; 0x2c

00000a1c <l521>:
     a1c:	e73d800b 	ldr	r8, [sp, -fp]!

00000a20 <l522>:
     a20:	188d5301 	stmne	sp, {r0, r8, r9, ip, lr}

00000a24 <l523>:
     a24:	e3a05018 	mov	r5, #24

00000a28 <l524>:
     a28:	570df005 	strpl	pc, [sp, -r5]

00000a2c <l525>:
     a2c:	590d0122 	stmdbpl	sp, {r1, r5, r8}

00000a30 <l526>:
     a30:	e3a0a004 	mov	sl, #4

00000a34 <l527>:
     a34:	e19d50ba 	ldrh	r5, [sp, sl]

00000a38 <l528>:
     a38:	e3a0e028 	mov	lr, #40	; 0x28

00000a3c <l529>:
     a3c:	119d80fe 	ldrshne	r8, [sp, lr]

00000a40 <l530>:
     a40:	e83d1003 	ldmda	sp!, {r0, r1, ip}

00000a44 <l531>:
     a44:	e1a00000 	nop			; (mov r0, r0)

00000a48 <l532>:
     a48:	388d0034 	stmcc	sp, {r2, r4, r5}

00000a4c <l533>:
     a4c:	e8bd0008 	ldmfd	sp!, {r3}

00000a50 <l534>:
     a50:	e3a07008 	mov	r7, #8

00000a54 <l535>:
     a54:	e72d2007 	str	r2, [sp, -r7]!

00000a58 <l536>:
     a58:	e3a03017 	mov	r3, #23

00000a5c <l537>:
     a5c:	e7dd1003 	ldrb	r1, [sp, r3]

00000a60 <l538>:
     a60:	e82d0010 	stmda	sp!, {r4}

00000a64 <l539>:
     a64:	71dd33f6 	ldrshvc	r3, [sp, #54]	; 0x36

00000a68 <l540>:
     a68:	e3a00038 	mov	r0, #56	; 0x38

00000a6c <l541>:
     a6c:	e69d5000 	ldr	r5, [sp], r0

00000a70 <l542>:
     a70:	b98d4000 	stmiblt	sp, {lr}

00000a74 <l543>:
     a74:	e8bd0010 	ldmfd	sp!, {r4}

00000a78 <l544>:
     a78:	e3a06041 	mov	r6, #65	; 0x41

00000a7c <l545>:
     a7c:	b75d0006 	ldrblt	r0, [sp, -r6]

00000a80 <l546>:
     a80:	e3a09027 	mov	r9, #39	; 0x27

00000a84 <l547>:
     a84:	974db009 	strbls	fp, [sp, -r9]

00000a88 <l548>:
     a88:	e3a05020 	mov	r5, #32

00000a8c <l549>:
     a8c:	970d8005 	strls	r8, [sp, -r5]

00000a90 <l550>:
     a90:	e3a03005 	mov	r3, #5

00000a94 <l551>:
     a94:	e7cd2003 	strb	r2, [sp, r3]

00000a98 <l552>:
     a98:	e15d94b2 	ldrh	r9, [sp, #-66]	; 0xffffffbe

00000a9c <l553>:
     a9c:	e3a03014 	mov	r3, #20

00000aa0 <l554>:
     aa0:	674de003 	strbvs	lr, [sp, -r3]

00000aa4 <l555>:
     aa4:	e9bd0040 	ldmib	sp!, {r6}

00000aa8 <l556>:
     aa8:	715d00f2 	ldrshvc	r0, [sp, #-2]

00000aac <l557>:
     aac:	e3a0503c 	mov	r5, #60	; 0x3c

00000ab0 <l558>:
     ab0:	e72d2005 	str	r2, [sp, -r5]!

00000ab4 <l559>:
     ab4:	e3a0b023 	mov	fp, #35	; 0x23

00000ab8 <l560>:
     ab8:	019d80db 	ldrsbeq	r8, [sp, fp]

00000abc <l561>:
     abc:	e89d0fff 	ldm	sp, {r0, r1, r2, r3, r4, r5, r6, r7, r8, r9, sl, fp}

00000ac0 <l562>:
     ac0:	41dd12d6 	ldrsbmi	r1, [sp, #38]	; 0x26

00000ac4 <l563>:
     ac4:	e1ddc1f4 	ldrsh	ip, [sp, #20]

00000ac8 <l564>:
     ac8:	b58d7008 	strlt	r7, [sp, #8]

00000acc <l565>:
     acc:	51ddc1f8 	ldrshpl	ip, [sp, #24]

00000ad0 <l566>:
     ad0:	e3a0e01d 	mov	lr, #29

00000ad4 <l567>:
     ad4:	e19d50de 	ldrsb	r5, [sp, lr]

00000ad8 <l568>:
     ad8:	e3a0302b 	mov	r3, #43	; 0x2b

00000adc <l569>:
     adc:	07cd7003 	strbeq	r7, [sp, r3]

00000ae0 <l570>:
     ae0:	e1a00000 	nop			; (mov r0, r0)

00000ae4 <l571>:
     ae4:	01ddc2df 	ldrsbeq	ip, [sp, #47]	; 0x2f

00000ae8 <l572>:
     ae8:	e5dd0010 	ldrb	r0, [sp, #16]

00000aec <l573>:
     aec:	199d400b 	ldmibne	sp, {r0, r1, r3, lr}

00000af0 <l574>:
     af0:	85cd5019 	strbhi	r5, [sp, #25]

00000af4 <l575>:
     af4:	e5dd600f 	ldrb	r6, [sp, #15]

00000af8 <l576>:
     af8:	e3a06036 	mov	r6, #54	; 0x36

00000afc <l577>:
     afc:	a19d00f6 	ldrshge	r0, [sp, r6]

00000b00 <l578>:
     b00:	e80d0040 	stmda	sp, {r6}

00000b04 <l579>:
     b04:	899d0001 	ldmibhi	sp, {r0}

00000b08 <l580>:
     b08:	e1a00000 	nop			; (mov r0, r0)

00000b0c <l581>:
     b0c:	e3a09023 	mov	r9, #35	; 0x23

00000b10 <l582>:
     b10:	97cd9009 	strbls	r9, [sp, r9]

00000b14 <l583>:
     b14:	e3a0e008 	mov	lr, #8

00000b18 <l584>:
     b18:	019d30de 	ldrsbeq	r3, [sp, lr]

00000b1c <l585>:
     b1c:	e92d8000 	stmfd	sp!, {pc}

00000b20 <l586>:
     b20:	799d57ef 	ldmibvc	sp, {r0, r1, r2, r3, r5, r6, r7, r8, r9, sl, ip, lr}

00000b24 <l587>:
     b24:	e3a01005 	mov	r1, #5

00000b28 <l588>:
     b28:	e75da001 	ldrb	sl, [sp, -r1]

00000b2c <l589>:
     b2c:	e1a00000 	nop			; (mov r0, r0)

00000b30 <l590>:
     b30:	e1a00000 	nop			; (mov r0, r0)

00000b34 <l591>:
     b34:	55dd2006 	ldrbpl	r2, [sp, #6]

00000b38 <l592>:
     b38:	a1dd11f2 	ldrshge	r1, [sp, #18]

00000b3c <l593>:
     b3c:	e3a06001 	mov	r6, #1

00000b40 <l594>:
     b40:	975d9006 	ldrbls	r9, [sp, -r6]

00000b44 <l595>:
     b44:	b88d0001 	stmlt	sp, {r0}

00000b48 <l596>:
     b48:	e3a0a019 	mov	sl, #25

00000b4c <l597>:
     b4c:	e7cdb00a 	strb	fp, [sp, sl]

00000b50 <l598>:
     b50:	e48df038 	str	pc, [sp], #56	; 0x38

00000b54 <l599>:
     b54:	e1dd40f2 	ldrsh	r4, [sp, #2]

00000b58 <l600>:
     b58:	e98d8000 	stmib	sp, {pc}

00000b5c <l601>:
     b5c:	e3a0600a 	mov	r6, #10

00000b60 <l602>:
     b60:	419d90f6 	ldrshmi	r9, [sp, r6]

00000b64 <l603>:
     b64:	e3a07022 	mov	r7, #34	; 0x22

00000b68 <l604>:
     b68:	875d3007 	ldrbhi	r3, [sp, -r7]

00000b6c <l605>:
     b6c:	e1a00000 	nop			; (mov r0, r0)

00000b70 <l606>:
     b70:	e41d0024 	ldr	r0, [sp], #-36	; 0x24

00000b74 <l607>:
     b74:	e3a0e011 	mov	lr, #17

00000b78 <l608>:
     b78:	819d20de 	ldrsbhi	r2, [sp, lr]

00000b7c <l609>:
     b7c:	e1ddc2f2 	ldrsh	ip, [sp, #34]	; 0x22

00000b80 <l610>:
     b80:	e3a00018 	mov	r0, #24

00000b84 <l611>:
     b84:	e73d7000 	ldr	r7, [sp, -r0]!

00000b88 <l612>:
     b88:	e3a0a004 	mov	sl, #4

00000b8c <l613>:
     b8c:	e69d900a 	ldr	r9, [sp], sl

00000b90 <l614>:
     b90:	e3a0c004 	mov	ip, #4

00000b94 <l615>:
     b94:	57cd300c 	strbpl	r3, [sp, ip]

00000b98 <l616>:
     b98:	e1a00000 	nop			; (mov r0, r0)

00000b9c <l617>:
     b9c:	598d40b0 	stmibpl	sp, {r4, r5, r7, lr}

00000ba0 <l618>:
     ba0:	e1dd81d2 	ldrsb	r8, [sp, #18]

00000ba4 <l619>:
     ba4:	e1a00000 	nop			; (mov r0, r0)

00000ba8 <l620>:
     ba8:	31dde0fe 	ldrshcc	lr, [sp, #14]

00000bac <l621>:
     bac:	e59da03c 	ldr	sl, [sp, #60]	; 0x3c

00000bb0 <l622>:
     bb0:	e5cd1027 	strb	r1, [sp, #39]	; 0x27

00000bb4 <l623>:
     bb4:	a1dd41f4 	ldrshge	r4, [sp, #20]

00000bb8 <l624>:
     bb8:	e1dd31df 	ldrsb	r3, [sp, #31]

00000bbc <l625>:
     bbc:	c54d3004 	strbgt	r3, [sp, #-4]

00000bc0 <l626>:
     bc0:	e1ddb2f8 	ldrsh	fp, [sp, #40]	; 0x28

00000bc4 <l627>:
     bc4:	e9bd080a 	ldmib	sp!, {r1, r3, fp}

00000bc8 <l628>:
     bc8:	e1a00000 	nop			; (mov r0, r0)

00000bcc <l629>:
     bcc:	e1ddb2bc 	ldrh	fp, [sp, #44]	; 0x2c

00000bd0 <l630>:
     bd0:	e98dafb1 	stmib	sp, {r0, r4, r5, r7, r8, r9, sl, fp, sp, pc}

00000bd4 <l631>:
     bd4:	e58db01c 	str	fp, [sp, #28]

00000bd8 <l632>:
     bd8:	359de030 	ldrcc	lr, [sp, #48]	; 0x30

00000bdc <l633>:
     bdc:	181d0001 	ldmdane	sp, {r0}

00000be0 <l634>:
     be0:	e8ad8a33 	stmia	sp!, {r0, r1, r4, r5, r9, fp, pc}

00000be4 <l635>:
     be4:	e82d882e 	stmda	sp!, {r1, r2, r3, r5, fp, pc}

00000be8 <l636>:
     be8:	e3a0e018 	mov	lr, #24

00000bec <l637>:
     bec:	e68d400e 	str	r4, [sp], lr

00000bf0 <l638>:
     bf0:	e82da000 	stmda	sp!, {sp, pc}

00000bf4 <l639>:
     bf4:	e58d2020 	str	r2, [sp, #32]

00000bf8 <l640>:
     bf8:	e3a0a019 	mov	sl, #25

00000bfc <l641>:
     bfc:	111d30da 	ldrsbne	r3, [sp, -sl]

00000c00 <l642>:
     c00:	e92d8200 	push	{r9, pc}

00000c04 <l643>:
     c04:	e3a02008 	mov	r2, #8

00000c08 <l644>:
     c08:	e72d1002 	str	r1, [sp, -r2]!

00000c0c <l645>:
     c0c:	11dd41b8 	ldrhne	r4, [sp, #24]

00000c10 <l646>:
     c10:	e3a0b004 	mov	fp, #4

00000c14 <l647>:
     c14:	e61d500b 	ldr	r5, [sp], -fp

00000c18 <l648>:
     c18:	e1a00000 	nop			; (mov r0, r0)

00000c1c <l649>:
     c1c:	e49d201c 	ldr	r2, [sp], #28

00000c20 <l650>:
     c20:	e3a0c030 	mov	ip, #48	; 0x30

00000c24 <l651>:
     c24:	e73d000c 	ldr	r0, [sp, -ip]!

00000c28 <l652>:
     c28:	e5cdc042 	strb	ip, [sp, #66]	; 0x42

00000c2c <l653>:
     c2c:	e1cd41ba 	strh	r4, [sp, #26]

00000c30 <l654>:
     c30:	e3a04039 	mov	r4, #57	; 0x39

00000c34 <l655>:
     c34:	e7dd7004 	ldrb	r7, [sp, r4]

00000c38 <l656>:
     c38:	e3a0800e 	mov	r8, #14

00000c3c <l657>:
     c3c:	719dc0b8 	ldrhvc	ip, [sp, r8]

00000c40 <l658>:
     c40:	858d8030 	strhi	r8, [sp, #48]	; 0x30

00000c44 <l659>:
     c44:	e3a0c02a 	mov	ip, #42	; 0x2a

00000c48 <l660>:
     c48:	a19d00fc 	ldrshge	r0, [sp, ip]

00000c4c <l661>:
     c4c:	e1ddc4b0 	ldrh	ip, [sp, #64]	; 0x40

00000c50 <l662>:
     c50:	e3a0903c 	mov	r9, #60	; 0x3c

00000c54 <l663>:
     c54:	419d70b9 	ldrhmi	r7, [sp, r9]

00000c58 <l664>:
     c58:	e9ade000 	stmib	sp!, {sp, lr, pc}

00000c5c <l665>:
     c5c:	e1a00000 	nop			; (mov r0, r0)

00000c60 <l666>:
     c60:	65cd202e 	strbvs	r2, [sp, #46]	; 0x2e

00000c64 <l667>:
     c64:	e82d0080 	stmda	sp!, {r7}

00000c68 <l668>:
     c68:	e3a0803c 	mov	r8, #60	; 0x3c

00000c6c <l669>:
     c6c:	a19d90f8 	ldrshge	r9, [sp, r8]

00000c70 <l670>:
     c70:	d1cd31bc 	strhle	r3, [sp, #28]

00000c74 <l671>:
     c74:	e48de000 	str	lr, [sp], #0

00000c78 <l672>:
     c78:	e3a07028 	mov	r7, #40	; 0x28

00000c7c <l673>:
     c7c:	e7bda007 	ldr	sl, [sp, r7]!

00000c80 <l674>:
     c80:	e3a0e02c 	mov	lr, #44	; 0x2c

00000c84 <l675>:
     c84:	e72d200e 	str	r2, [sp, -lr]!

00000c88 <l676>:
     c88:	e3a09032 	mov	r9, #50	; 0x32

00000c8c <l677>:
     c8c:	e7cd6009 	strb	r6, [sp, r9]

00000c90 <l678>:
     c90:	d5cd9021 	strble	r9, [sp, #33]	; 0x21

00000c94 <l679>:
     c94:	e8ade000 	stmia	sp!, {sp, lr, pc}

00000c98 <l680>:
     c98:	e8bd0080 	ldmfd	sp!, {r7}

00000c9c <l681>:
     c9c:	81cdc1b6 	strhhi	ip, [sp, #22]

00000ca0 <l682>:
     ca0:	e3a0500a 	mov	r5, #10

00000ca4 <l683>:
     ca4:	97dda005 	ldrbls	sl, [sp, r5]

00000ca8 <l684>:
     ca8:	e92d0062 	push	{r1, r5, r6}

00000cac <l685>:
     cac:	e9bd5bb3 	ldmib	sp!, {r0, r1, r4, r5, r7, r8, r9, fp, ip, lr}

00000cb0 <l686>:
     cb0:	e83d080f 	ldmda	sp!, {r0, r1, r2, r3, fp}

00000cb4 <l687>:
     cb4:	e1a00000 	nop			; (mov r0, r0)

00000cb8 <l688>:
     cb8:	e9add816 	stmib	sp!, {r1, r2, r4, fp, ip, lr, pc}

00000cbc <l689>:
     cbc:	e92d0606 	push	{r1, r2, r9, sl}

00000cc0 <l690>:
     cc0:	e1dd11b0 	ldrh	r1, [sp, #16]

00000cc4 <l691>:
     cc4:	e1a00000 	nop			; (mov r0, r0)

00000cc8 <l692>:
     cc8:	e52d8010 	str	r8, [sp, #-16]!

00000ccc <l693>:
     ccc:	e3a02018 	mov	r2, #24

00000cd0 <l694>:
     cd0:	e73dc002 	ldr	ip, [sp, -r2]!

00000cd4 <l695>:
     cd4:	e5cd703c 	strb	r7, [sp, #60]	; 0x3c

00000cd8 <l696>:
     cd8:	e48df00c 	str	pc, [sp], #12

00000cdc <l697>:
     cdc:	e53de004 	ldr	lr, [sp, #-4]!

00000ce0 <l698>:
     ce0:	e3a06036 	mov	r6, #54	; 0x36

00000ce4 <l699>:
     ce4:	e18d10b6 	strh	r1, [sp, r6]

00000ce8 <l700>:
     ce8:	e3a01000 	mov	r1, #0

00000cec <l701>:
     cec:	119d90b1 	ldrhne	r9, [sp, r1]

00000cf0 <l702>:
     cf0:	e3a07029 	mov	r7, #41	; 0x29

00000cf4 <l703>:
     cf4:	119d30d7 	ldrsbne	r3, [sp, r7]

00000cf8 <l704>:
     cf8:	e1dd72b6 	ldrh	r7, [sp, #38]	; 0x26

00000cfc <l705>:
     cfc:	41ddb3b8 	ldrhmi	fp, [sp, #56]	; 0x38

00000d00 <l706>:
     d00:	e3a0a000 	mov	sl, #0

00000d04 <l707>:
     d04:	e69d400a 	ldr	r4, [sp], sl

00000d08 <l708>:
     d08:	e8bd1a7f 	pop	{r0, r1, r2, r3, r4, r5, r6, r9, fp, ip}

00000d0c <l709>:
     d0c:	e93d537e 	ldmdb	sp!, {r1, r2, r3, r4, r5, r6, r8, r9, ip, lr}

00000d10 <l710>:
     d10:	45cd401c 	strbmi	r4, [sp, #28]

00000d14 <l711>:
     d14:	e1a00000 	nop			; (mov r0, r0)

00000d18 <l712>:
     d18:	e59d5010 	ldr	r5, [sp, #16]

00000d1c <l713>:
     d1c:	e1a00000 	nop			; (mov r0, r0)

00000d20 <l714>:
     d20:	81dd31db 	ldrsbhi	r3, [sp, #27]

00000d24 <l715>:
     d24:	e1a00000 	nop			; (mov r0, r0)

00000d28 <l716>:
     d28:	35cd1032 	strbcc	r1, [sp, #50]	; 0x32

00000d2c <l717>:
     d2c:	e8bd0822 	pop	{r1, r5, fp}

00000d30 <l718>:
     d30:	e3a0a004 	mov	sl, #4

00000d34 <l719>:
     d34:	e79dc00a 	ldr	ip, [sp, sl]

00000d38 <l720>:
     d38:	e9bd0020 	ldmib	sp!, {r5}

00000d3c <l721>:
     d3c:	95cd5031 	strbls	r5, [sp, #49]	; 0x31

00000d40 <l722>:
     d40:	514dc1b8 	strhpl	ip, [sp, #-24]	; 0xffffffe8

00000d44 <l723>:
     d44:	e3a00010 	mov	r0, #16

00000d48 <l724>:
     d48:	e69da000 	ldr	sl, [sp], r0

00000d4c <l725>:
     d4c:	e83d424e 	ldmda	sp!, {r1, r2, r3, r6, r9, lr}

00000d50 <l726>:
     d50:	e3a0100b 	mov	r1, #11

00000d54 <l727>:
     d54:	875d2001 	ldrbhi	r2, [sp, -r1]

00000d58 <l728>:
     d58:	e3a0900b 	mov	r9, #11

00000d5c <l729>:
     d5c:	c75d5009 	ldrbgt	r5, [sp, -r9]

00000d60 <l730>:
     d60:	e1a00000 	nop			; (mov r0, r0)

00000d64 <l731>:
     d64:	e5dd1025 	ldrb	r1, [sp, #37]	; 0x25

00000d68 <l732>:
     d68:	e93d1100 	ldmdb	sp!, {r8, ip}

00000d6c <l733>:
     d6c:	45cd8027 	strbmi	r8, [sp, #39]	; 0x27

00000d70 <l734>:
     d70:	e1a00000 	nop			; (mov r0, r0)

00000d74 <l735>:
     d74:	e1a00000 	nop			; (mov r0, r0)

00000d78 <l736>:
     d78:	e3a07034 	mov	r7, #52	; 0x34

00000d7c <l737>:
     d7c:	e19d20d7 	ldrsb	r2, [sp, r7]

00000d80 <l738>:
     d80:	e3a06018 	mov	r6, #24

00000d84 <l739>:
     d84:	77dd8006 	ldrbvc	r8, [sp, r6]

00000d88 <l740>:
     d88:	e48da004 	str	sl, [sp], #4

00000d8c <l741>:
     d8c:	e89d0002 	ldm	sp, {r1}

00000d90 <l742>:
     d90:	614d70b4 	strhvs	r7, [sp, #-4]

00000d94 <l743>:
     d94:	e3a0a014 	mov	sl, #20

00000d98 <l744>:
     d98:	d19d80da 	ldrsble	r8, [sp, sl]

00000d9c <l745>:
     d9c:	e55d7003 	ldrb	r7, [sp, #-3]

00000da0 <l746>:
     da0:	e3a03008 	mov	r3, #8

00000da4 <l747>:
     da4:	e11d70b3 	ldrh	r7, [sp, -r3]

00000da8 <l748>:
     da8:	e3a0e005 	mov	lr, #5

00000dac <l749>:
     dac:	e11d70de 	ldrsb	r7, [sp, -lr]

00000db0 <l750>:
     db0:	e8ad2000 	stmia	sp!, {sp}

00000db4 <l751>:
     db4:	e92d0180 	push	{r7, r8}

00000db8 <l752>:
     db8:	e3a0200f 	mov	r2, #15

00000dbc <l753>:
     dbc:	57cd6002 	strbpl	r6, [sp, r2]

00000dc0 <l754>:
     dc0:	e58df010 	str	pc, [sp, #16]

00000dc4 <l755>:
     dc4:	e48d9020 	str	r9, [sp], #32

00000dc8 <l756>:
     dc8:	181d4331 	ldmdane	sp, {r0, r4, r5, r8, r9, lr}

00000dcc <l757>:
     dcc:	e93d54e8 	ldmdb	sp!, {r3, r5, r6, r7, sl, ip, lr}

00000dd0 <l758>:
     dd0:	e14da0b4 	strh	sl, [sp, #-4]

00000dd4 <l759>:
     dd4:	e3a0600c 	mov	r6, #12

00000dd8 <l760>:
     dd8:	e60d6006 	str	r6, [sp], -r6

00000ddc <l761>:
     ddc:	e9ada000 	stmib	sp!, {sp, pc}

00000de0 <l762>:
     de0:	e9ad5f97 	stmib	sp!, {r0, r1, r2, r4, r7, r8, r9, sl, fp, ip, lr}

00000de4 <l763>:
     de4:	e15d82f2 	ldrsh	r8, [sp, #-34]	; 0xffffffde

00000de8 <l764>:
     de8:	e3a07025 	mov	r7, #37	; 0x25

00000dec <l765>:
     dec:	a11d40d7 	ldrsbge	r4, [sp, -r7]

00000df0 <l766>:
     df0:	e1a00000 	nop			; (mov r0, r0)

00000df4 <l767>:
     df4:	915d50b2 	ldrhls	r5, [sp, #-2]

00000df8 <l768>:
     df8:	e3a0500c 	mov	r5, #12

00000dfc <l769>:
     dfc:	e11d40f5 	ldrsh	r4, [sp, -r5]

00000e00 <l770>:
     e00:	255de01d 	ldrbcs	lr, [sp, #-29]

00000e04 <l771>:
     e04:	e15db2d8 	ldrsb	fp, [sp, #-40]	; 0xffffffd8

00000e08 <l772>:
     e08:	955d6016 	ldrbls	r6, [sp, #-22]

00000e0c <l773>:
     e0c:	e1cd30b0 	strh	r3, [sp]

00000e10 <l774>:
     e10:	e51da034 	ldr	sl, [sp, #-52]	; 0x34

00000e14 <l775>:
     e14:	e3a0901e 	mov	r9, #30

00000e18 <l776>:
     e18:	e10d30b9 	strh	r3, [sp, -r9]

00000e1c <l777>:
     e1c:	e8bd4250 	pop	{r4, r6, r9, lr}

00000e20 <l778>:
     e20:	e53d0038 	ldr	r0, [sp, #-56]!	; 0x38

00000e24 <l779>:
     e24:	e92d0040 	stmfd	sp!, {r6}

00000e28 <l780>:
     e28:	e9ade000 	stmib	sp!, {sp, lr, pc}

00000e2c <l781>:
     e2c:	e1a00000 	nop			; (mov r0, r0)

00000e30 <l782>:
     e30:	c5cd5007 	strbgt	r5, [sp, #7]

00000e34 <l783>:
     e34:	e8bd1bea 	pop	{r1, r3, r5, r6, r7, r8, r9, fp, ip}

00000e38 <l784>:
     e38:	e9bd1206 	ldmib	sp!, {r1, r2, r9, ip}

00000e3c <l785>:
     e3c:	e1a00000 	nop			; (mov r0, r0)

00000e40 <l786>:
     e40:	e3a09025 	mov	r9, #37	; 0x25

00000e44 <l787>:
     e44:	e11d10d9 	ldrsb	r1, [sp, -r9]

00000e48 <l788>:
     e48:	e3a0e034 	mov	lr, #52	; 0x34

00000e4c <l789>:
     e4c:	011d00fe 	ldrsheq	r0, [sp, -lr]

00000e50 <l790>:
     e50:	e1a00000 	nop			; (mov r0, r0)

00000e54 <l791>:
     e54:	e1a00000 	nop			; (mov r0, r0)

00000e58 <l792>:
     e58:	e15db2fe 	ldrsh	fp, [sp, #-46]	; 0xffffffd2

00000e5c <l793>:
     e5c:	e3a05002 	mov	r5, #2

00000e60 <l794>:
     e60:	d19d90b5 	ldrhle	r9, [sp, r5]

00000e64 <l795>:
     e64:	e92d6000 	push	{sp, lr}

00000e68 <l796>:
     e68:	e1a00000 	nop			; (mov r0, r0)

00000e6c <l797>:
     e6c:	e3a04008 	mov	r4, #8

00000e70 <l798>:
     e70:	d74d2004 	strble	r2, [sp, -r4]

00000e74 <l799>:
     e74:	e3a06038 	mov	r6, #56	; 0x38

00000e78 <l800>:
     e78:	e61d6006 	ldr	r6, [sp], -r6

00000e7c <l801>:
     e7c:	e1a00000 	nop			; (mov r0, r0)

00000e80 <l802>:
     e80:	e54d2001 	strb	r2, [sp, #-1]

00000e84 <l803>:
     e84:	115d90d3 	ldrsbne	r9, [sp, #-3]

00000e88 <l804>:
     e88:	e1a00000 	nop			; (mov r0, r0)

00000e8c <l805>:
     e8c:	e1a00000 	nop			; (mov r0, r0)

00000e90 <l806>:
     e90:	45cd2039 	strbmi	r2, [sp, #57]	; 0x39

00000e94 <l807>:
     e94:	e8ad0586 	stmia	sp!, {r1, r2, r7, r8, sl}

00000e98 <l808>:
     e98:	215d91f4 	ldrshcs	r9, [sp, #-20]	; 0xffffffec

00000e9c <l809>:
     e9c:	e1a00000 	nop			; (mov r0, r0)

00000ea0 <l810>:
     ea0:	e3a0c007 	mov	ip, #7

00000ea4 <l811>:
     ea4:	774d200c 	strbvc	r2, [sp, -ip]

00000ea8 <l812>:
     ea8:	e3a0102a 	mov	r1, #42	; 0x2a

00000eac <l813>:
     eac:	518d70b1 	strhpl	r7, [sp, r1]

00000eb0 <l814>:
     eb0:	c88d3378 	stmgt	sp, {r3, r4, r5, r6, r8, r9, ip, sp}

00000eb4 <l815>:
     eb4:	415da0da 	ldrsbmi	sl, [sp, #-10]

00000eb8 <l816>:
     eb8:	e3a03019 	mov	r3, #25

00000ebc <l817>:
     ebc:	e19d50d3 	ldrsb	r5, [sp, r3]

00000ec0 <l818>:
     ec0:	e8ad0251 	stmia	sp!, {r0, r4, r6, r9}

00000ec4 <l819>:
     ec4:	e3a0801c 	mov	r8, #28

00000ec8 <l820>:
     ec8:	e68d9008 	str	r9, [sp], r8

00000ecc <l821>:
     ecc:	b5dd8003 	ldrblt	r8, [sp, #3]

00000ed0 <l822>:
     ed0:	e15d41b6 	ldrh	r4, [sp, #-22]	; 0xffffffea

00000ed4 <l823>:
     ed4:	e3a07024 	mov	r7, #36	; 0x24

00000ed8 <l824>:
     ed8:	a11d40d7 	ldrsbge	r4, [sp, -r7]

00000edc <l825>:
     edc:	555d5024 	ldrbpl	r5, [sp, #-36]	; 0x24

00000ee0 <l826>:
     ee0:	e53d5020 	ldr	r5, [sp, #-32]!

00000ee4 <l827>:
     ee4:	e15d30ba 	ldrh	r3, [sp, #-10]

00000ee8 <l828>:
     ee8:	a55dc019 	ldrbge	ip, [sp, #-25]

00000eec <l829>:
     eec:	e15d71b6 	ldrh	r7, [sp, #-22]	; 0xffffffea

00000ef0 <l830>:
     ef0:	e9bd0440 	ldmib	sp!, {r6, sl}

00000ef4 <l831>:
     ef4:	e3a07008 	mov	r7, #8

00000ef8 <l832>:
     ef8:	e74d8007 	strb	r8, [sp, -r7]

00000efc <l833>:
     efc:	e53de018 	ldr	lr, [sp, #-24]!

00000f00 <l834>:
     f00:	e3a00004 	mov	r0, #4

00000f04 <l835>:
     f04:	875d3000 	ldrbhi	r3, [sp, -r0]

00000f08 <l836>:
     f08:	e1a00000 	nop			; (mov r0, r0)

00000f0c <l837>:
     f0c:	e1cd60bc 	strh	r6, [sp, #12]

00000f10 <l838>:
     f10:	e82d1025 	stmda	sp!, {r0, r2, r5, ip}

00000f14 <l839>:
     f14:	e1cd12b8 	strh	r1, [sp, #40]	; 0x28

00000f18 <l840>:
     f18:	01dda2b2 	ldrheq	sl, [sp, #34]	; 0x22

00000f1c <l841>:
     f1c:	e8ad0104 	stmia	sp!, {r2, r8}

00000f20 <l842>:
     f20:	b59d400c 	ldrlt	r4, [sp, #12]

00000f24 <l843>:
     f24:	01dd30b0 	ldrheq	r3, [sp]

00000f28 <l844>:
     f28:	e9bd0020 	ldmib	sp!, {r5}

00000f2c <l845>:
     f2c:	e1a00000 	nop			; (mov r0, r0)

00000f30 <l846>:
     f30:	e9ada000 	stmib	sp!, {sp, pc}

00000f34 <l847>:
     f34:	e15d31b6 	ldrh	r3, [sp, #-22]	; 0xffffffea

00000f38 <l848>:
     f38:	e5bde000 	ldr	lr, [sp, #0]!

00000f3c <l849>:
     f3c:	c55d800d 	ldrbgt	r8, [sp, #-13]

00000f40 <l850>:
     f40:	e3a02011 	mov	r2, #17

00000f44 <l851>:
     f44:	27cd4002 	strbcs	r4, [sp, r2]

00000f48 <l852>:
     f48:	e1a00000 	nop			; (mov r0, r0)

00000f4c <l853>:
     f4c:	e3a03020 	mov	r3, #32

00000f50 <l854>:
     f50:	e18d00b3 	strh	r0, [sp, r3]

00000f54 <l855>:
     f54:	e3a0301c 	mov	r3, #28

00000f58 <l856>:
     f58:	179d3003 	ldrne	r3, [sp, r3]

00000f5c <l857>:
     f5c:	e5cdc029 	strb	ip, [sp, #41]	; 0x29

00000f60 <l858>:
     f60:	e3a0e015 	mov	lr, #21

00000f64 <l859>:
     f64:	17cd100e 	strbne	r1, [sp, lr]

00000f68 <l860>:
     f68:	e82d1100 	stmda	sp!, {r8, ip}

00000f6c <l861>:
     f6c:	e5ad8008 	str	r8, [sp, #8]!

00000f70 <l862>:
     f70:	e3a00016 	mov	r0, #22

00000f74 <l863>:
     f74:	e7dd1000 	ldrb	r1, [sp, r0]

00000f78 <l864>:
     f78:	e1dd50d0 	ldrsb	r5, [sp]

00000f7c <l865>:
     f7c:	e54d700c 	strb	r7, [sp, #-12]

00000f80 <l866>:
     f80:	e3a0b022 	mov	fp, #34	; 0x22

00000f84 <l867>:
     f84:	e19db0fb 	ldrsh	fp, [sp, fp]

00000f88 <l868>:
     f88:	e3a0501a 	mov	r5, #26

00000f8c <l869>:
     f8c:	e18d60b5 	strh	r6, [sp, r5]

00000f90 <l870>:
     f90:	31dd31f6 	ldrshcc	r3, [sp, #22]

00000f94 <l871>:
     f94:	e3a0b00c 	mov	fp, #12

00000f98 <l872>:
     f98:	e60d200b 	str	r2, [sp], -fp

00000f9c <l873>:
     f9c:	e3a08024 	mov	r8, #36	; 0x24

00000fa0 <l874>:
     fa0:	e7ad1008 	str	r1, [sp, r8]!

00000fa4 <l875>:
     fa4:	e3a08014 	mov	r8, #20

00000fa8 <l876>:
     fa8:	011db0d8 	ldrsbeq	fp, [sp, -r8]

00000fac <l877>:
     fac:	15cd6008 	strbne	r6, [sp, #8]

00000fb0 <l878>:
     fb0:	214db2b6 	strhcs	fp, [sp, #-38]	; 0xffffffda

00000fb4 <l879>:
     fb4:	e3a04010 	mov	r4, #16

00000fb8 <l880>:
     fb8:	e69da004 	ldr	sl, [sp], r4

00000fbc <l881>:
     fbc:	e3a07020 	mov	r7, #32

00000fc0 <l882>:
     fc0:	110db0b7 	strhne	fp, [sp, -r7]

00000fc4 <l883>:
     fc4:	e41da040 	ldr	sl, [sp], #-64	; 0x40

00000fc8 <l884>:
     fc8:	e3a00030 	mov	r0, #48	; 0x30

00000fcc <l885>:
     fcc:	e7ada000 	str	sl, [sp, r0]!

00000fd0 <l886>:
     fd0:	e93d1018 	ldmdb	sp!, {r3, r4, ip}

00000fd4 <l887>:
     fd4:	514de2b0 	strhpl	lr, [sp, #-32]	; 0xffffffe0

00000fd8 <l888>:
     fd8:	e3a0c008 	mov	ip, #8

00000fdc <l889>:
     fdc:	e11d80fc 	ldrsh	r8, [sp, -ip]

00000fe0 <l890>:
     fe0:	e90da443 	stmdb	sp, {r0, r1, r6, sl, sp, pc}

00000fe4 <l891>:
     fe4:	e40d9018 	str	r9, [sp], #-24

00000fe8 <l892>:
     fe8:	881d0401 	ldmdahi	sp, {r0, sl}

00000fec <l893>:
     fec:	e54d2003 	strb	r2, [sp, #-3]

00000ff0 <l894>:
     ff0:	e1a00000 	nop			; (mov r0, r0)

00000ff4 <l895>:
     ff4:	e3a0a003 	mov	sl, #3

00000ff8 <l896>:
     ff8:	e19d80da 	ldrsb	r8, [sp, sl]

00000ffc <l897>:
     ffc:	815da0df 	ldrsbhi	sl, [sp, #-15]

00001000 <l898>:
    1000:	e1dd52f4 	ldrsh	r5, [sp, #36]	; 0x24

00001004 <l899>:
    1004:	e1cd22be 	strh	r2, [sp, #46]	; 0x2e

00001008 <l900>:
    1008:	390d0009 	stmdbcc	sp, {r0, r3}

0000100c <l901>:
    100c:	e3a0b01e 	mov	fp, #30

00001010 <l902>:
    1010:	97cd400b 	strbls	r4, [sp, fp]

00001014 <l903>:
    1014:	e1a00000 	nop			; (mov r0, r0)

00001018 <l904>:
    1018:	e81d0010 	ldmda	sp, {r4}

0000101c <l905>:
    101c:	e3a02030 	mov	r2, #48	; 0x30

00001020 <l906>:
    1020:	179db002 	ldrne	fp, [sp, r2]

00001024 <l907>:
    1024:	e83d0080 	ldmda	sp!, {r7}

00001028 <l908>:
    1028:	e3a02000 	mov	r2, #0

0000102c <l909>:
    102c:	e69dc002 	ldr	ip, [sp], r2

00001030 <l910>:
    1030:	e3a0400a 	mov	r4, #10

00001034 <l911>:
    1034:	e10db0b4 	strh	fp, [sp, -r4]

00001038 <l912>:
    1038:	51cdc0be 	strhpl	ip, [sp, #14]

0000103c <l913>:
    103c:	e3a03003 	mov	r3, #3

00001040 <l914>:
    1040:	675db003 	ldrbvs	fp, [sp, -r3]

00001044 <l915>:
    1044:	e3a01034 	mov	r1, #52	; 0x34

00001048 <l916>:
    1048:	e7cd0001 	strb	r0, [sp, r1]

0000104c <l917>:
    104c:	e48da004 	str	sl, [sp], #4

00001050 <l918>:
    1050:	e80d0004 	stmda	sp, {r2}

00001054 <l919>:
    1054:	389d5bfe 	ldmcc	sp, {r1, r2, r3, r4, r5, r6, r7, r8, r9, fp, ip, lr}

00001058 <l920>:
    1058:	e83d4200 	ldmda	sp!, {r9, lr}

0000105c <l921>:
    105c:	e3a00004 	mov	r0, #4

00001060 <l922>:
    1060:	219d40b0 	ldrhcs	r4, [sp, r0]

00001064 <l923>:
    1064:	e1cd20b8 	strh	r2, [sp, #8]

00001068 <l924>:
    1068:	e5cd1018 	strb	r1, [sp, #24]

0000106c <l925>:
    106c:	e3a09002 	mov	r9, #2

00001070 <l926>:
    1070:	e74d6009 	strb	r6, [sp, -r9]

00001074 <l927>:
    1074:	e1a00000 	nop			; (mov r0, r0)

00001078 <l928>:
    1078:	e15d20d7 	ldrsb	r2, [sp, #-7]

0000107c <l929>:
    107c:	d1dd70fc 	ldrshle	r7, [sp, #12]

00001080 <l930>:
    1080:	e3a0b01b 	mov	fp, #27

00001084 <l931>:
    1084:	d7ddb00b 	ldrble	fp, [sp, fp]

00001088 <l932>:
    1088:	e99d4001 	ldmib	sp, {r0, lr}

0000108c <l933>:
    108c:	e3a01008 	mov	r1, #8

00001090 <l934>:
    1090:	e70d3001 	str	r3, [sp, -r1]

00001094 <l935>:
    1094:	e8bd47dd 	pop	{r0, r2, r3, r4, r6, r7, r8, r9, sl, lr}

00001098 <l936>:
    1098:	e3a05005 	mov	r5, #5

0000109c <l937>:
    109c:	d74d4005 	strble	r4, [sp, -r5]

000010a0 <l938>:
    10a0:	e1a00000 	nop			; (mov r0, r0)

000010a4 <l939>:
    10a4:	e55d2014 	ldrb	r2, [sp, #-20]

000010a8 <l940>:
    10a8:	989d00c1 	ldmls	sp, {r0, r6, r7}

000010ac <l941>:
    10ac:	680d8976 	stmdavs	sp, {r1, r2, r4, r5, r6, r8, fp, pc}

000010b0 <l942>:
    10b0:	e3a0a014 	mov	sl, #20

000010b4 <l943>:
    10b4:	e61d900a 	ldr	r9, [sp], -sl

000010b8 <l944>:
    10b8:	281d0100 	ldmdacs	sp, {r8}

000010bc <l945>:
    10bc:	e50de010 	str	lr, [sp, #-16]

000010c0 <l946>:
    10c0:	e3a0b013 	mov	fp, #19

000010c4 <l947>:
    10c4:	311d80db 	ldrsbcc	r8, [sp, -fp]

000010c8 <l948>:
    10c8:	e3a0402c 	mov	r4, #44	; 0x2c

000010cc <l949>:
    10cc:	e7cdc004 	strb	ip, [sp, r4]

000010d0 <l950>:
    10d0:	e55d2010 	ldrb	r2, [sp, #-16]

000010d4 <l951>:
    10d4:	e1ddb0bc 	ldrh	fp, [sp, #12]

000010d8 <l952>:
    10d8:	e89d1804 	ldm	sp, {r2, fp, ip}

000010dc <l953>:
    10dc:	e8bd52f9 	pop	{r0, r3, r4, r5, r6, r7, r9, ip, lr}

000010e0 <l954>:
    10e0:	e3a0802e 	mov	r8, #46	; 0x2e

000010e4 <l955>:
    10e4:	a10dc0b8 	strhge	ip, [sp, -r8]

000010e8 <l956>:
    10e8:	e8bd0090 	pop	{r4, r7}

000010ec <l957>:
    10ec:	e1a00000 	nop			; (mov r0, r0)

000010f0 <l958>:
    10f0:	e3a04008 	mov	r4, #8

000010f4 <l959>:
    10f4:	b10d60b4 	strhlt	r6, [sp, -r4]

000010f8 <l960>:
    10f8:	e40d602c 	str	r6, [sp], #-44	; 0x2c

000010fc <l961>:
    10fc:	e3a01014 	mov	r1, #20

00001100 <l962>:
    1100:	e61d6001 	ldr	r6, [sp], -r1

00001104 <l963>:
    1104:	e3a03003 	mov	r3, #3

00001108 <l964>:
    1108:	275d2003 	ldrbcs	r2, [sp, -r3]

0000110c <l965>:
    110c:	e3a07020 	mov	r7, #32

00001110 <l966>:
    1110:	e19d80b7 	ldrh	r8, [sp, r7]

00001114 <l967>:
    1114:	e3a0c03c 	mov	ip, #60	; 0x3c

00001118 <l968>:
    1118:	d7dd500c 	ldrble	r5, [sp, ip]

0000111c <l969>:
    111c:	e3a03013 	mov	r3, #19

00001120 <l970>:
    1120:	e19d10d3 	ldrsb	r1, [sp, r3]

00001124 <l971>:
    1124:	e3a05043 	mov	r5, #67	; 0x43

00001128 <l972>:
    1128:	e19d40d5 	ldrsb	r4, [sp, r5]

0000112c <l973>:
    112c:	e1ddc3b8 	ldrh	ip, [sp, #56]	; 0x38

00001130 <l974>:
    1130:	e1a00000 	nop			; (mov r0, r0)

00001134 <l975>:
    1134:	e5ad301c 	str	r3, [sp, #28]!

00001138 <l976>:
    1138:	614d31ba 	strhvs	r3, [sp, #-26]	; 0xffffffe6

0000113c <l977>:
    113c:	e3a0c018 	mov	ip, #24

00001140 <l978>:
    1140:	e69d300c 	ldr	r3, [sp], ip

00001144 <l979>:
    1144:	e5dd6003 	ldrb	r6, [sp, #3]

00001148 <l980>:
    1148:	e53d701c 	ldr	r7, [sp, #-28]!

0000114c <l981>:
    114c:	e1ddc1be 	ldrh	ip, [sp, #30]

00001150 <l982>:
    1150:	e93d1320 	ldmdb	sp!, {r5, r8, r9, ip}

00001154 <l983>:
    1154:	e3a0101a 	mov	r1, #26

00001158 <l984>:
    1158:	e19d00f1 	ldrsh	r0, [sp, r1]

0000115c <l985>:
    115c:	e3a0102c 	mov	r1, #44	; 0x2c

00001160 <l986>:
    1160:	e19d80f1 	ldrsh	r8, [sp, r1]

00001164 <l987>:
    1164:	e8bd5fa7 	pop	{r0, r1, r2, r5, r7, r8, r9, sl, fp, ip, lr}

00001168 <l988>:
    1168:	091d0210 	ldmdbeq	sp, {r4, r9}

0000116c <l989>:
    116c:	e15d42fc 	ldrsh	r4, [sp, #-44]	; 0xffffffd4

00001170 <l990>:
    1170:	b90d2223 	stmdblt	sp, {r0, r1, r5, r9, sp}

00001174 <l991>:
    1174:	e3a0b01c 	mov	fp, #28

00001178 <l992>:
    1178:	e11d90fb 	ldrsh	r9, [sp, -fp]

0000117c <l993>:
    117c:	e49da004 	pop	{sl}		; (ldr sl, [sp], #4)

00001180 <l994>:
    1180:	e15d02d0 	ldrsb	r0, [sp, #-32]	; 0xffffffe0

00001184 <l995>:
    1184:	e9ad8000 	stmib	sp!, {pc}

00001188 <l996>:
    1188:	e41de008 	ldr	lr, [sp], #-8

0000118c <l997>:
    118c:	e3a07023 	mov	r7, #35	; 0x23

00001190 <l998>:
    1190:	274d0007 	strbcs	r0, [sp, -r7]

00001194 <l999>:
    1194:	d14dc2b6 	strhle	ip, [sp, #-38]	; 0xffffffda

00001198 <l1000>:
    1198:	c55d601e 	ldrbgt	r6, [sp, #-30]

0000119c <l1001>:
    119c:	b15d71f0 	ldrshlt	r7, [sp, #-16]

000011a0 <l1002>:
    11a0:	e9ad0008 	stmib	sp!, {r3}

000011a4 <l1003>:
    11a4:	e3a09016 	mov	r9, #22

000011a8 <l1004>:
    11a8:	e75d1009 	ldrb	r1, [sp, -r9]

000011ac <l1005>:
    11ac:	e3a0b026 	mov	fp, #38	; 0x26

000011b0 <l1006>:
    11b0:	310d20bb 	strhcc	r2, [sp, -fp]

000011b4 <l1007>:
    11b4:	e14de0b2 	strh	lr, [sp, #-2]

000011b8 <l1008>:
    11b8:	e9bd1000 	ldmib	sp!, {ip}

000011bc <l1009>:
    11bc:	e3a0501e 	mov	r5, #30

000011c0 <l1010>:
    11c0:	010d20b5 	strheq	r2, [sp, -r5]

000011c4 <l1011>:
    11c4:	215d52d4 	ldrsbcs	r5, [sp, #-36]	; 0xffffffdc

000011c8 <l1012>:
    11c8:	e93d0052 	ldmdb	sp!, {r1, r4, r6}

000011cc <l1013>:
    11cc:	e3a05010 	mov	r5, #16

000011d0 <l1014>:
    11d0:	e7ddc005 	ldrb	ip, [sp, r5]

000011d4 <l1015>:
    11d4:	e1cd60bc 	strh	r6, [sp, #12]

000011d8 <l1016>:
    11d8:	e9bd0204 	ldmib	sp!, {r2, r9}

000011dc <l1017>:
    11dc:	e59d2008 	ldr	r2, [sp, #8]

000011e0 <l1018>:
    11e0:	e3a0c02d 	mov	ip, #45	; 0x2d

000011e4 <l1019>:
    11e4:	e11d50dc 	ldrsb	r5, [sp, -ip]

000011e8 <l1020>:
    11e8:	d55d902d 	ldrble	r9, [sp, #-45]	; 0x2d

000011ec <l1021>:
    11ec:	95dd7009 	ldrbls	r7, [sp, #9]

000011f0 <l1022>:
    11f0:	e3a0b004 	mov	fp, #4

000011f4 <l1023>:
    11f4:	719d60fb 	ldrshvc	r6, [sp, fp]

000011f8 <l1024>:
    11f8:	554da007 	strbpl	sl, [sp, #-7]

000011fc <l1025>:
    11fc:	c1dda0d0 	ldrsbgt	sl, [sp]

00001200 <l1026>:
    1200:	a15d53d6 	ldrsbge	r5, [sp, #-54]	; 0xffffffca

00001204 <l1027>:
    1204:	e92d2000 	stmfd	sp!, {sp}

00001208 <l1028>:
    1208:	e9bd0005 	ldmib	sp!, {r0, r2}

0000120c <l1029>:
    120c:	698d4000 	stmibvs	sp, {lr}

00001210 <l1030>:
    1210:	e3a0901c 	mov	r9, #28

00001214 <l1031>:
    1214:	e11d60b9 	ldrh	r6, [sp, -r9]

00001218 <l1032>:
    1218:	e15d22b2 	ldrh	r2, [sp, #-34]	; 0xffffffde

0000121c <l1033>:
    121c:	e8ad0100 	stmia	sp!, {r8}

00001220 <l1034>:
    1220:	614d83b4 	strhvs	r8, [sp, #-52]	; 0xffffffcc

00001224 <l1035>:
    1224:	e1a00000 	nop			; (mov r0, r0)

00001228 <l1036>:
    1228:	e3a0c030 	mov	ip, #48	; 0x30

0000122c <l1037>:
    122c:	e10d70bc 	strh	r7, [sp, -ip]

00001230 <l1038>:
    1230:	e3a02040 	mov	r2, #64	; 0x40

00001234 <l1039>:
    1234:	511d50d2 	ldrsbpl	r5, [sp, -r2]

00001238 <l1040>:
    1238:	355da026 	ldrbcc	sl, [sp, #-38]	; 0x26

0000123c <l1041>:
    123c:	e15d62b8 	ldrh	r6, [sp, #-40]	; 0xffffffd8

00001240 <l1042>:
    1240:	e3a06034 	mov	r6, #52	; 0x34

00001244 <l1043>:
    1244:	e73d9006 	ldr	r9, [sp, -r6]!

00001248 <l1044>:
    1248:	e83d0010 	ldmda	sp!, {r4}

0000124c <l1045>:
    124c:	e9ad91ba 	stmib	sp!, {r1, r3, r4, r5, r7, r8, ip, pc}

00001250 <l1046>:
    1250:	e3a08004 	mov	r8, #4

00001254 <l1047>:
    1254:	e70df008 	str	pc, [sp, -r8]

00001258 <l1048>:
    1258:	e54d602b 	strb	r6, [sp, #-43]	; 0x2b

0000125c <l1049>:
    125c:	e82d85a2 	stmda	sp!, {r1, r5, r7, r8, sl, pc}

00001260 <l1050>:
    1260:	e3a05014 	mov	r5, #20

00001264 <l1051>:
    1264:	e19d40b5 	ldrh	r4, [sp, r5]

00001268 <l1052>:
    1268:	e3a02015 	mov	r2, #21

0000126c <l1053>:
    126c:	019de0d2 	ldrsbeq	lr, [sp, r2]

00001270 <l1054>:
    1270:	551db004 	ldrpl	fp, [sp, #-4]

00001274 <l1055>:
    1274:	b80d0264 	stmdalt	sp, {r2, r5, r6, r9}

00001278 <l1056>:
    1278:	c50d7014 	strgt	r7, [sp, #-20]

0000127c <l1057>:
    127c:	e1cd42b6 	strh	r4, [sp, #38]	; 0x26

00001280 <l1058>:
    1280:	888d4f35 	stmhi	sp, {r0, r2, r4, r5, r8, r9, sl, fp, lr}

00001284 <l1059>:
    1284:	a54d7007 	strbge	r7, [sp, #-7]

00001288 <l1060>:
    1288:	b99d1bdb 	ldmiblt	sp, {r0, r1, r3, r4, r6, r7, r8, r9, fp, ip}

0000128c <l1061>:
    128c:	25cd501c 	strbcs	r5, [sp, #28]

00001290 <l1062>:
    1290:	e9ad2000 	stmib	sp!, {sp}

00001294 <l1063>:
    1294:	e8ade000 	stmia	sp!, {sp, lr, pc}

00001298 <l1064>:
    1298:	e52de01c 	str	lr, [sp, #-28]!

0000129c <l1065>:
    129c:	e3a0e00c 	mov	lr, #12

000012a0 <l1066>:
    12a0:	e72db00e 	str	fp, [sp, -lr]!

000012a4 <l1067>:
    12a4:	e3a0503a 	mov	r5, #58	; 0x3a

000012a8 <l1068>:
    12a8:	a19d50b5 	ldrhge	r5, [sp, r5]

000012ac <l1069>:
    12ac:	a88d4156 	stmge	sp, {r1, r2, r4, r6, r8, lr}

000012b0 <l1070>:
    12b0:	e3a03032 	mov	r3, #50	; 0x32

000012b4 <l1071>:
    12b4:	118d40b3 	strhne	r4, [sp, r3]

000012b8 <l1072>:
    12b8:	e9bd5b7e 	ldmib	sp!, {r1, r2, r3, r4, r5, r6, r8, r9, fp, ip, lr}

000012bc <l1073>:
    12bc:	750d4028 	strvc	r4, [sp, #-40]	; 0x28

000012c0 <l1074>:
    12c0:	e3a05018 	mov	r5, #24

000012c4 <l1075>:
    12c4:	e7ad9005 	str	r9, [sp, r5]!

000012c8 <l1076>:
    12c8:	e82da000 	stmda	sp!, {sp, pc}

000012cc <l1077>:
    12cc:	e3a08024 	mov	r8, #36	; 0x24

000012d0 <l1078>:
    12d0:	e61dc008 	ldr	ip, [sp], -r8

000012d4 <l1079>:
    12d4:	659d500c 	ldrvs	r5, [sp, #12]

000012d8 <l1080>:
    12d8:	e3a07019 	mov	r7, #25

000012dc <l1081>:
    12dc:	e19d20d7 	ldrsb	r2, [sp, r7]

000012e0 <l1082>:
    12e0:	e3a0e004 	mov	lr, #4

000012e4 <l1083>:
    12e4:	e11d30be 	ldrh	r3, [sp, -lr]

000012e8 <l1084>:
    12e8:	e3a01022 	mov	r1, #34	; 0x22

000012ec <l1085>:
    12ec:	e19da0f1 	ldrsh	sl, [sp, r1]

000012f0 <l1086>:
    12f0:	61dd80f2 	ldrshvs	r8, [sp, #2]

000012f4 <l1087>:
    12f4:	81dda2da 	ldrsbhi	sl, [sp, #42]	; 0x2a

000012f8 <l1088>:
    12f8:	e59d300c 	ldr	r3, [sp, #12]

000012fc <l1089>:
    12fc:	e1a00000 	nop			; (mov r0, r0)

00001300 <l1090>:
    1300:	11cd22b8 	strhne	r2, [sp, #40]	; 0x28

00001304 <l1091>:
    1304:	e3a02022 	mov	r2, #34	; 0x22

00001308 <l1092>:
    1308:	918d90b2 	strhls	r9, [sp, r2]

0000130c <l1093>:
    130c:	91cd00b6 	strhls	r0, [sp, #6]

00001310 <l1094>:
    1310:	45cd9001 	strbmi	r9, [sp, #1]

00001314 <l1095>:
    1314:	e1a00000 	nop			; (mov r0, r0)

00001318 <l1096>:
    1318:	e3a0900d 	mov	r9, #13

0000131c <l1097>:
    131c:	e19d10d9 	ldrsb	r1, [sp, r9]

00001320 <l1098>:
    1320:	e90d0128 	stmdb	sp, {r3, r5, r8}

00001324 <l1099>:
    1324:	e93d0424 	ldmdb	sp!, {r2, r5, sl}

00001328 <l1100>:
    1328:	e9bd0004 	ldmib	sp!, {r2}

0000132c <l1101>:
    132c:	01cdc1be 	strheq	ip, [sp, #30]

00001330 <l1102>:
    1330:	e5ada01c 	str	sl, [sp, #28]!

00001334 <l1103>:
    1334:	e41d3008 	ldr	r3, [sp], #-8

00001338 <l1104>:
    1338:	e3a04008 	mov	r4, #8

0000133c <l1105>:
    133c:	e7bd8004 	ldr	r8, [sp, r4]!

00001340 <l1106>:
    1340:	e3a0b020 	mov	fp, #32

00001344 <l1107>:
    1344:	e73db00b 	ldr	fp, [sp, -fp]!

00001348 <l1108>:
    1348:	e5bde038 	ldr	lr, [sp, #56]!	; 0x38

0000134c <l1109>:
    134c:	c80d4100 	stmdagt	sp, {r8, lr}

00001350 <l1110>:
    1350:	598d0010 	stmibpl	sp, {r4}

00001354 <l1111>:
    1354:	e55d603a 	ldrb	r6, [sp, #-58]	; 0x3a

00001358 <l1112>:
    1358:	d14d80b6 	strhle	r8, [sp, #-6]

0000135c <l1113>:
    135c:	e93d1fff 	ldmdb	sp!, {r0, r1, r2, r3, r4, r5, r6, r7, r8, r9, sl, fp, ip}

00001360 <l1114>:
    1360:	e58d3024 	str	r3, [sp, #36]	; 0x24

00001364 <l1115>:
    1364:	555da009 	ldrbpl	sl, [sp, #-9]

00001368 <l1116>:
    1368:	e3a08014 	mov	r8, #20

0000136c <l1117>:
    136c:	c19d90b8 	ldrhgt	r9, [sp, r8]

00001370 <l1118>:
    1370:	e5dde02b 	ldrb	lr, [sp, #43]	; 0x2b

00001374 <l1119>:
    1374:	e9ad1100 	stmib	sp!, {r8, ip}

00001378 <l1120>:
    1378:	554d800b 	strbpl	r8, [sp, #-11]

0000137c <l1121>:
    137c:	e3a0900c 	mov	r9, #12

00001380 <l1122>:
    1380:	e71d4009 	ldr	r4, [sp, -r9]

00001384 <l1123>:
    1384:	e3a0301a 	mov	r3, #26

00001388 <l1124>:
    1388:	d7dd9003 	ldrble	r9, [sp, r3]

0000138c <l1125>:
    138c:	85dd1009 	ldrbhi	r1, [sp, #9]

00001390 <l1126>:
    1390:	e5bd700c 	ldr	r7, [sp, #12]!

00001394 <l1127>:
    1394:	089d5800 	ldmeq	sp, {fp, ip, lr}

00001398 <l1128>:
    1398:	290d0e59 	stmdbcs	sp, {r0, r3, r4, r6, r9, sl, fp}

0000139c <l1129>:
    139c:	e3a0a014 	mov	sl, #20

000013a0 <l1130>:
    13a0:	e7cd200a 	strb	r2, [sp, sl]

000013a4 <l1131>:
    13a4:	e48d6010 	str	r6, [sp], #16

000013a8 <l1132>:
    13a8:	e83d5e46 	ldmda	sp!, {r1, r2, r6, r9, sl, fp, ip, lr}

000013ac <l1133>:
    13ac:	391d1820 	ldmdbcc	sp, {r5, fp, ip}

000013b0 <l1134>:
    13b0:	e3a0600f 	mov	r6, #15

000013b4 <l1135>:
    13b4:	e75de006 	ldrb	lr, [sp, -r6]

000013b8 <l1136>:
    13b8:	a59d7030 	ldrge	r7, [sp, #48]	; 0x30

000013bc <l1137>:
    13bc:	e5cd7004 	strb	r7, [sp, #4]

000013c0 <l1138>:
    13c0:	e82d5000 	stmda	sp!, {ip, lr}

000013c4 <l1139>:
    13c4:	e3a03020 	mov	r3, #32

000013c8 <l1140>:
    13c8:	e79d2003 	ldr	r2, [sp, r3]

000013cc <l1141>:
    13cc:	e3a00030 	mov	r0, #48	; 0x30

000013d0 <l1142>:
    13d0:	e78da000 	str	sl, [sp, r0]

000013d4 <l1143>:
    13d4:	e3a0b00b 	mov	fp, #11

000013d8 <l1144>:
    13d8:	e11d80db 	ldrsb	r8, [sp, -fp]

000013dc <l1145>:
    13dc:	11dd51b0 	ldrhne	r5, [sp, #16]

000013e0 <l1146>:
    13e0:	e1dd32f0 	ldrsh	r3, [sp, #32]

000013e4 <l1147>:
    13e4:	e8bd5000 	pop	{ip, lr}

000013e8 <l1148>:
    13e8:	d15d50f6 	ldrshle	r5, [sp, #-6]

000013ec <l1149>:
    13ec:	65cd8003 	strbvs	r8, [sp, #3]

000013f0 <l1150>:
    13f0:	e92d0020 	stmfd	sp!, {r5}

000013f4 <l1151>:
    13f4:	e3a0601e 	mov	r6, #30

000013f8 <l1152>:
    13f8:	e19d60d6 	ldrsb	r6, [sp, r6]

000013fc <l1153>:
    13fc:	e5dd001e 	ldrb	r0, [sp, #30]

00001400 <l1154>:
    1400:	e98d8a18 	stmib	sp, {r3, r4, r9, fp, pc}

00001404 <l1155>:
    1404:	e15d50f8 	ldrsh	r5, [sp, #-8]

00001408 <l1156>:
    1408:	e3a08012 	mov	r8, #18

0000140c <l1157>:
    140c:	219d00d8 	ldrsbcs	r0, [sp, r8]

00001410 <l1158>:
    1410:	e3a0402e 	mov	r4, #46	; 0x2e

00001414 <l1159>:
    1414:	e19d70b4 	ldrh	r7, [sp, r4]

00001418 <l1160>:
    1418:	e3a0501a 	mov	r5, #26

0000141c <l1161>:
    141c:	e7ddc005 	ldrb	ip, [sp, r5]

00001420 <l1162>:
    1420:	e49dc010 	ldr	ip, [sp], #16

00001424 <l1163>:
    1424:	e3a09006 	mov	r9, #6

00001428 <l1164>:
    1428:	e10d90b9 	strh	r9, [sp, -r9]

0000142c <l1165>:
    142c:	51dde0ba 	ldrhpl	lr, [sp, #10]

00001430 <l1166>:
    1430:	e8adc001 	stmia	sp!, {r0, lr, pc}

00001434 <l1167>:
    1434:	e8ad5270 	stmia	sp!, {r4, r5, r6, r9, ip, lr}

00001438 <l1168>:
    1438:	214da3ba 	strhcs	sl, [sp, #-58]	; 0xffffffc6

0000143c <l1169>:
    143c:	e9ad0200 	stmib	sp!, {r9}

00001440 <l1170>:
    1440:	e53d202c 	ldr	r2, [sp, #-44]!	; 0x2c

00001444 <l1171>:
    1444:	e3a0501c 	mov	r5, #28

00001448 <l1172>:
    1448:	e69db005 	ldr	fp, [sp], r5

0000144c <l1173>:
    144c:	d15d31de 	ldrsble	r3, [sp, #-30]	; 0xffffffe2

00001450 <l1174>:
    1450:	e3a03008 	mov	r3, #8

00001454 <l1175>:
    1454:	470d4003 	strmi	r4, [sp, -r3]

00001458 <l1176>:
    1458:	e3a0c004 	mov	ip, #4

0000145c <l1177>:
    145c:	d10dc0bc 	strhle	ip, [sp, -ip]

00001460 <l1178>:
    1460:	e3a01010 	mov	r1, #16

00001464 <l1179>:
    1464:	e74da001 	strb	sl, [sp, -r1]

00001468 <l1180>:
    1468:	e3a0e031 	mov	lr, #49	; 0x31

0000146c <l1181>:
    146c:	e11de0de 	ldrsb	lr, [sp, -lr]

00001470 <l1182>:
    1470:	b98d4408 	stmiblt	sp, {r3, sl, lr}

00001474 <l1183>:
    1474:	991d5dbf 	ldmdbls	sp, {r0, r1, r2, r3, r4, r5, r7, r8, sl, fp, ip, lr}

00001478 <l1184>:
    1478:	098d8048 	stmibeq	sp, {r3, r6, pc}

0000147c <l1185>:
    147c:	014d92b0 	strheq	r9, [sp, #-32]	; 0xffffffe0

00001480 <l1186>:
    1480:	e93d1847 	ldmdb	sp!, {r0, r1, r2, r6, fp, ip}

00001484 <l1187>:
    1484:	d15d50d9 	ldrsble	r5, [sp, #-9]

00001488 <l1188>:
    1488:	e5ad8020 	str	r8, [sp, #32]!

0000148c <l1189>:
    148c:	e15db0b4 	ldrh	fp, [sp, #-4]

00001490 <l1190>:
    1490:	654de022 	strbvs	lr, [sp, #-34]	; 0x22

00001494 <l1191>:
    1494:	e3a05014 	mov	r5, #20

00001498 <l1192>:
    1498:	e74d4005 	strb	r4, [sp, -r5]

0000149c <l1193>:
    149c:	e3a0b020 	mov	fp, #32

000014a0 <l1194>:
    14a0:	e70d400b 	str	r4, [sp, -fp]

000014a4 <l1195>:
    14a4:	315da1d8 	ldrsbcc	sl, [sp, #-24]	; 0xffffffe8

000014a8 <l1196>:
    14a8:	e3a0b007 	mov	fp, #7

000014ac <l1197>:
    14ac:	c19d70db 	ldrsbgt	r7, [sp, fp]

000014b0 <l1198>:
    14b0:	e92d2000 	stmfd	sp!, {sp}

000014b4 <l1199>:
    14b4:	e3a0603b 	mov	r6, #59	; 0x3b

000014b8 <l1200>:
    14b8:	e74da006 	strb	sl, [sp, -r6]

000014bc <l1201>:
    14bc:	e14de2b6 	strh	lr, [sp, #-38]	; 0xffffffda

000014c0 <l1202>:
    14c0:	b15dc2b2 	ldrhlt	ip, [sp, #-34]	; 0xffffffde

000014c4 <l1203>:
    14c4:	915db2d0 	ldrsbls	fp, [sp, #-32]	; 0xffffffe0

000014c8 <l1204>:
    14c8:	e52d602c 	str	r6, [sp, #-44]!	; 0x2c

000014cc <l1205>:
    14cc:	b1dd63fa 	ldrshlt	r6, [sp, #58]	; 0x3a

000014d0 <l1206>:
    14d0:	e93d4000 	ldmdb	sp!, {lr}

000014d4 <l1207>:
    14d4:	259d1024 	ldrcs	r1, [sp, #36]	; 0x24

000014d8 <l1208>:
    14d8:	e3a0e008 	mov	lr, #8

000014dc <l1209>:
    14dc:	e72de00e 	str	lr, [sp, -lr]!

000014e0 <l1210>:
    14e0:	e3a0a005 	mov	sl, #5

000014e4 <l1211>:
    14e4:	219db0da 	ldrsbcs	fp, [sp, sl]

000014e8 <l1212>:
    14e8:	e3a0b03c 	mov	fp, #60	; 0x3c

000014ec <l1213>:
    14ec:	e7bd900b 	ldr	r9, [sp, fp]!

000014f0 <l1214>:
    14f0:	480d0500 	stmdami	sp, {r8, sl}

000014f4 <l1215>:
    14f4:	e55da03e 	ldrb	sl, [sp, #-62]	; 0x3e

000014f8 <l1216>:
    14f8:	e3a04001 	mov	r4, #1

000014fc <l1217>:
    14fc:	411d40d4 	ldrsbmi	r4, [sp, -r4]

00001500 <l1218>:
    1500:	e41d2010 	ldr	r2, [sp], #-16

00001504 <l1219>:
    1504:	e9ad4000 	stmib	sp!, {lr}

00001508 <l1220>:
    1508:	e82d2000 	stmda	sp!, {sp}

0000150c <l1221>:
    150c:	d81d12c2 	ldmdale	sp, {r1, r6, r7, r9, ip}

00001510 <l1222>:
    1510:	e8ad2000 	stmia	sp!, {sp}

00001514 <l1223>:
    1514:	e3a0e01c 	mov	lr, #28

00001518 <l1224>:
    1518:	e73d200e 	ldr	r2, [sp, -lr]!

0000151c <l1225>:
    151c:	e3a0900e 	mov	r9, #14

00001520 <l1226>:
    1520:	419d70d9 	ldrsbmi	r7, [sp, r9]

00001524 <l1227>:
    1524:	e9ad2000 	stmib	sp!, {sp}

00001528 <l1228>:
    1528:	e1a00000 	nop			; (mov r0, r0)

0000152c <l1229>:
    152c:	e83d1024 	ldmda	sp!, {r2, r5, ip}

00001530 <l1230>:
    1530:	e3a0801c 	mov	r8, #28

00001534 <l1231>:
    1534:	e19d50f8 	ldrsh	r5, [sp, r8]

00001538 <l1232>:
    1538:	e3a0b01c 	mov	fp, #28

0000153c <l1233>:
    153c:	e19dc0fb 	ldrsh	ip, [sp, fp]

00001540 <l1234>:
    1540:	e3a05035 	mov	r5, #53	; 0x35

00001544 <l1235>:
    1544:	e19d00d5 	ldrsb	r0, [sp, r5]

00001548 <l1236>:
    1548:	45dd4028 	ldrbmi	r4, [sp, #40]	; 0x28

0000154c <l1237>:
    154c:	e80d0041 	stmda	sp, {r0, r6}

00001550 <l1238>:
    1550:	e5dd2036 	ldrb	r2, [sp, #54]	; 0x36

00001554 <l1239>:
    1554:	a51d9010 	ldrge	r9, [sp, #-16]

00001558 <l1240>:
    1558:	e1dd90d1 	ldrsb	r9, [sp, #1]

0000155c <l1241>:
    155c:	e5bd8010 	ldr	r8, [sp, #16]!

00001560 <l1242>:
    1560:	e1a00000 	nop			; (mov r0, r0)

00001564 <l1243>:
    1564:	e1a00000 	nop			; (mov r0, r0)

00001568 <l1244>:
    1568:	e3a0c014 	mov	ip, #20

0000156c <l1245>:
    156c:	011d80bc 	ldrheq	r8, [sp, -ip]

00001570 <l1246>:
    1570:	c1ddb1b2 	ldrhgt	fp, [sp, #18]

00001574 <l1247>:
    1574:	e9bd5e70 	ldmib	sp!, {r4, r5, r6, r9, sl, fp, ip, lr}

00001578 <l1248>:
    1578:	e3a0a038 	mov	sl, #56	; 0x38

0000157c <l1249>:
    157c:	111d60fa 	ldrshne	r6, [sp, -sl]

00001580 <l1250>:
    1580:	e55de015 	ldrb	lr, [sp, #-21]

00001584 <l1251>:
    1584:	e3a05006 	mov	r5, #6

00001588 <l1252>:
    1588:	e10d10b5 	strh	r1, [sp, -r5]

0000158c <l1253>:
    158c:	e3a03006 	mov	r3, #6

00001590 <l1254>:
    1590:	c74db003 	strbgt	fp, [sp, -r3]

00001594 <l1255>:
    1594:	e3a0c02b 	mov	ip, #43	; 0x2b

00001598 <l1256>:
    1598:	e75d100c 	ldrb	r1, [sp, -ip]

0000159c <l1257>:
    159c:	e3a01014 	mov	r1, #20

000015a0 <l1258>:
    15a0:	e10d00b1 	strh	r0, [sp, -r1]

000015a4 <l1259>:
    15a4:	e54d7007 	strb	r7, [sp, #-7]

000015a8 <l1260>:
    15a8:	e90d4978 	stmdb	sp, {r3, r4, r5, r6, r8, fp, lr}

000015ac <l1261>:
    15ac:	a89d0201 	ldmge	sp, {r0, r9}

000015b0 <l1262>:
    15b0:	e3a03004 	mov	r3, #4

000015b4 <l1263>:
    15b4:	e60da003 	str	sl, [sp], -r3

000015b8 <l1264>:
    15b8:	881d4f7f 	ldmdahi	sp, {r0, r1, r2, r3, r4, r5, r6, r8, r9, sl, fp, lr}

000015bc <l1265>:
    15bc:	e3a0e039 	mov	lr, #57	; 0x39

000015c0 <l1266>:
    15c0:	a75d700e 	ldrbge	r7, [sp, -lr]

000015c4 <l1267>:
    15c4:	e3a02024 	mov	r2, #36	; 0x24

000015c8 <l1268>:
    15c8:	211d80d2 	ldrsbcs	r8, [sp, -r2]

000015cc <l1269>:
    15cc:	e90d4734 	stmdb	sp, {r2, r4, r5, r8, r9, sl, lr}

000015d0 <l1270>:
    15d0:	115d11b8 	ldrhne	r1, [sp, #-24]	; 0xffffffe8

000015d4 <l1271>:
    15d4:	e3a07038 	mov	r7, #56	; 0x38

000015d8 <l1272>:
    15d8:	e61dc007 	ldr	ip, [sp], -r7

000015dc <l1273>:
    15dc:	e3a01042 	mov	r1, #66	; 0x42

000015e0 <l1274>:
    15e0:	e19dc0b1 	ldrh	ip, [sp, r1]

000015e4 <l1275>:
    15e4:	11ddb0d6 	ldrsbne	fp, [sp, #6]

000015e8 <l1276>:
    15e8:	e1dd20b8 	ldrh	r2, [sp, #8]

000015ec <l1277>:
    15ec:	998dd6cb 	stmibls	sp, {r0, r1, r3, r6, r7, r9, sl, ip, lr, pc}

000015f0 <l1278>:
    15f0:	e3a07042 	mov	r7, #66	; 0x42

000015f4 <l1279>:
    15f4:	e19d90d7 	ldrsb	r9, [sp, r7]

000015f8 <l1280>:
    15f8:	e3a0c03c 	mov	ip, #60	; 0x3c

000015fc <l1281>:
    15fc:	519dc0dc 	ldrsbpl	ip, [sp, ip]

00001600 <l1282>:
    1600:	e8bd5bff 	pop	{r0, r1, r2, r3, r4, r5, r6, r7, r8, r9, fp, ip, lr}

00001604 <l1283>:
    1604:	e89d0c84 	ldm	sp, {r2, r7, sl, fp}

00001608 <l1284>:
    1608:	e83d51e3 	ldmda	sp!, {r0, r1, r5, r6, r7, r8, ip, lr}

0000160c <l1285>:
    160c:	e3a0301e 	mov	r3, #30

00001610 <l1286>:
    1610:	619d30b3 	ldrhvs	r3, [sp, r3]

00001614 <l1287>:
    1614:	e3a0b010 	mov	fp, #16

00001618 <l1288>:
    1618:	719dc0bb 	ldrhvc	ip, [sp, fp]

0000161c <l1289>:
    161c:	e3a02019 	mov	r2, #25

00001620 <l1290>:
    1620:	e19d10d2 	ldrsb	r1, [sp, r2]

00001624 <l1291>:
    1624:	b15d21f2 	ldrshlt	r2, [sp, #-18]	; 0xffffffee

00001628 <l1292>:
    1628:	881d060c 	ldmdahi	sp, {r2, r3, r9, sl}

0000162c <l1293>:
    162c:	e83d0010 	ldmda	sp!, {r4}

00001630 <l1294>:
    1630:	e82da000 	stmda	sp!, {sp, pc}

00001634 <l1295>:
    1634:	e3a0b032 	mov	fp, #50	; 0x32

00001638 <l1296>:
    1638:	b18de0bb 	strhlt	lr, [sp, fp]

0000163c <l1297>:
    163c:	e3a0c008 	mov	ip, #8

00001640 <l1298>:
    1640:	e73d700c 	ldr	r7, [sp, -ip]!

00001644 <l1299>:
    1644:	e3a0202e 	mov	r2, #46	; 0x2e

00001648 <l1300>:
    1648:	e18d70b2 	strh	r7, [sp, r2]

0000164c <l1301>:
    164c:	71cd62b4 	strhvc	r6, [sp, #36]	; 0x24

00001650 <l1302>:
    1650:	e1dd62f6 	ldrsh	r6, [sp, #38]	; 0x26

00001654 <l1303>:
    1654:	e89d14b0 	ldm	sp, {r4, r5, r7, sl, ip}

00001658 <l1304>:
    1658:	e1dd04b6 	ldrh	r0, [sp, #70]	; 0x46

0000165c <l1305>:
    165c:	e9bd4987 	ldmib	sp!, {r0, r1, r2, r7, r8, fp, lr}

00001660 <l1306>:
    1660:	e1dd90b8 	ldrh	r9, [sp, #8]

00001664 <l1307>:
    1664:	e8bd5541 	pop	{r0, r6, r8, sl, ip, lr}

00001668 <l1308>:
    1668:	e9bd0020 	ldmib	sp!, {r5}

0000166c <l1309>:
    166c:	e8bd0610 	pop	{r4, r9, sl}

00001670 <l1310>:
    1670:	580deefd 	stmdapl	sp, {r0, r2, r3, r4, r5, r6, r7, r9, sl, fp, sp, lr, pc}

00001674 <l1311>:
    1674:	e3a0c016 	mov	ip, #22

00001678 <l1312>:
    1678:	a11d00fc 	ldrshge	r0, [sp, -ip]

0000167c <l1313>:
    167c:	e1a00000 	nop			; (mov r0, r0)

00001680 <l1314>:
    1680:	e14da0b4 	strh	sl, [sp, #-4]

00001684 <l1315>:
    1684:	e3a0501c 	mov	r5, #28

00001688 <l1316>:
    1688:	e11dc0f5 	ldrsh	ip, [sp, -r5]

0000168c <l1317>:
    168c:	e3a03026 	mov	r3, #38	; 0x26

00001690 <l1318>:
    1690:	d11d00f3 	ldrshle	r0, [sp, -r3]

00001694 <l1319>:
    1694:	e3a06040 	mov	r6, #64	; 0x40

00001698 <l1320>:
    1698:	e73d9006 	ldr	r9, [sp, -r6]!

0000169c <l1321>:
    169c:	e3a0c039 	mov	ip, #57	; 0x39

000016a0 <l1322>:
    16a0:	27dd700c 	ldrbcs	r7, [sp, ip]

000016a4 <l1323>:
    16a4:	c88d6200 	stmgt	sp, {r9, sp, lr}

000016a8 <l1324>:
    16a8:	51dd31b6 	ldrhpl	r3, [sp, #22]

000016ac <l1325>:
    16ac:	e3a0c007 	mov	ip, #7

000016b0 <l1326>:
    16b0:	87ddc00c 	ldrbhi	ip, [sp, ip]

000016b4 <l1327>:
    16b4:	e5ad4030 	str	r4, [sp, #48]!	; 0x30

000016b8 <l1328>:
    16b8:	e91d1102 	ldmdb	sp, {r1, r8, ip}

000016bc <l1329>:
    16bc:	e3a0100c 	mov	r1, #12

000016c0 <l1330>:
    16c0:	518d00b1 	strhpl	r0, [sp, r1]

000016c4 <l1331>:
    16c4:	e82dceb1 	stmda	sp!, {r0, r4, r5, r7, r9, sl, fp, lr, pc}

000016c8 <l1332>:
    16c8:	e3a0b022 	mov	fp, #34	; 0x22

000016cc <l1333>:
    16cc:	e18d70bb 	strh	r7, [sp, fp]

000016d0 <l1334>:
    16d0:	e53da004 	ldr	sl, [sp, #-4]!

000016d4 <l1335>:
    16d4:	e91d4000 	ldmdb	sp, {lr}

000016d8 <l1336>:
    16d8:	a5cd4011 	strbge	r4, [sp, #17]

000016dc <l1337>:
    16dc:	a91d4000 	ldmdbge	sp, {lr}

000016e0 <l1338>:
    16e0:	d1ddc2b0 	ldrhle	ip, [sp, #32]

000016e4 <l1339>:
    16e4:	e1a00000 	nop			; (mov r0, r0)

000016e8 <l1340>:
    16e8:	e3a0a010 	mov	sl, #16

000016ec <l1341>:
    16ec:	e19d00ba 	ldrh	r0, [sp, sl]

000016f0 <l1342>:
    16f0:	e48d8018 	str	r8, [sp], #24

000016f4 <l1343>:
    16f4:	358d1018 	strcc	r1, [sp, #24]

000016f8 <l1344>:
    16f8:	e5dd2016 	ldrb	r2, [sp, #22]

000016fc <l1345>:
    16fc:	e93d4412 	ldmdb	sp!, {r1, r4, sl, lr}

00001700 <l1346>:
    1700:	e3a01000 	mov	r1, #0

00001704 <l1347>:
    1704:	618d00b1 	strhvs	r0, [sp, r1]

00001708 <l1348>:
    1708:	e49da030 	ldr	sl, [sp], #48	; 0x30

0000170c <l1349>:
    170c:	a15d60fc 	ldrshge	r6, [sp, #-12]

00001710 <l1350>:
    1710:	e1a00000 	nop			; (mov r0, r0)

00001714 <l1351>:
    1714:	e83d5faf 	ldmda	sp!, {r0, r1, r2, r3, r5, r7, r8, r9, sl, fp, ip, lr}

00001718 <l1352>:
    1718:	199d54eb 	ldmibne	sp, {r0, r1, r3, r5, r6, r7, sl, ip, lr}

0000171c <l1353>:
    171c:	e8bd0040 	ldmfd	sp!, {r6}

00001720 <l1354>:
    1720:	c55d4018 	ldrbgt	r4, [sp, #-24]

00001724 <l1355>:
    1724:	e3a0100c 	mov	r1, #12

00001728 <l1356>:
    1728:	218d60b1 	strhcs	r6, [sp, r1]

0000172c <l1357>:
    172c:	e3a06016 	mov	r6, #22

00001730 <l1358>:
    1730:	e19d70f6 	ldrsh	r7, [sp, r6]

00001734 <l1359>:
    1734:	e3a0a004 	mov	sl, #4

00001738 <l1360>:
    1738:	879d500a 	ldrhi	r5, [sp, sl]

0000173c <l1361>:
    173c:	e5dd202f 	ldrb	r2, [sp, #47]	; 0x2f

00001740 <l1362>:
    1740:	e40df01c 	str	pc, [sp], #-28

00001744 <l1363>:
    1744:	e3a0803c 	mov	r8, #60	; 0x3c

00001748 <l1364>:
    1748:	479d6008 	ldrmi	r6, [sp, r8]

0000174c <l1365>:
    174c:	e3a02002 	mov	r2, #2

00001750 <l1366>:
    1750:	e7cde002 	strb	lr, [sp, r2]

00001754 <l1367>:
    1754:	e8ad0024 	stmia	sp!, {r2, r5}

00001758 <l1368>:
    1758:	e1a00000 	nop			; (mov r0, r0)

0000175c <l1369>:
    175c:	e1a00000 	nop			; (mov r0, r0)

00001760 <l1370>:
    1760:	e3a0501f 	mov	r5, #31

00001764 <l1371>:
    1764:	77dde005 	ldrbvc	lr, [sp, r5]

00001768 <l1372>:
    1768:	e1a00000 	nop			; (mov r0, r0)

0000176c <l1373>:
    176c:	e1a00000 	nop			; (mov r0, r0)

00001770 <l1374>:
    1770:	e3a04003 	mov	r4, #3

00001774 <l1375>:
    1774:	575d7004 	ldrbpl	r7, [sp, -r4]

00001778 <l1376>:
    1778:	e3a0a02a 	mov	sl, #42	; 0x2a

0000177c <l1377>:
    177c:	819d40fa 	ldrshhi	r4, [sp, sl]

00001780 <l1378>:
    1780:	e5ad1034 	str	r1, [sp, #52]!	; 0x34

00001784 <l1379>:
    1784:	e3a06031 	mov	r6, #49	; 0x31

00001788 <l1380>:
    1788:	775da006 	ldrbvc	sl, [sp, -r6]

0000178c <l1381>:
    178c:	25cd0002 	strbcs	r0, [sp, #2]

00001790 <l1382>:
    1790:	d15d93f2 	ldrshle	r9, [sp, #-50]	; 0xffffffce

00001794 <l1383>:
    1794:	a55d7036 	ldrbge	r7, [sp, #-54]	; 0x36

00001798 <l1384>:
    1798:	e3a0a00a 	mov	sl, #10

0000179c <l1385>:
    179c:	e11de0da 	ldrsb	lr, [sp, -sl]

000017a0 <l1386>:
    17a0:	e90dc8bd 	stmdb	sp, {r0, r2, r3, r4, r5, r7, fp, lr, pc}

000017a4 <l1387>:
    17a4:	e54d1039 	strb	r1, [sp, #-57]	; 0x39

000017a8 <l1388>:
    17a8:	554d8023 	strbpl	r8, [sp, #-35]	; 0x23

000017ac <l1389>:
    17ac:	e9bd0020 	ldmib	sp!, {r5}

000017b0 <l1390>:
    17b0:	e82dd4e2 	stmda	sp!, {r1, r5, r6, r7, sl, ip, lr, pc}

000017b4 <l1391>:
    17b4:	e41d000c 	ldr	r0, [sp], #-12

000017b8 <l1392>:
    17b8:	e8ad0dd0 	stmia	sp!, {r4, r6, r7, r8, sl, fp}

000017bc <l1393>:
    17bc:	e3a0e01c 	mov	lr, #28

000017c0 <l1394>:
    17c0:	e61dc00e 	ldr	ip, [sp], -lr

000017c4 <l1395>:
    17c4:	e3a0500b 	mov	r5, #11

000017c8 <l1396>:
    17c8:	a74d2005 	strbge	r2, [sp, -r5]

000017cc <l1397>:
    17cc:	e1cde2b8 	strh	lr, [sp, #40]	; 0x28

000017d0 <l1398>:
    17d0:	e82d8080 	stmda	sp!, {r7, pc}

000017d4 <l1399>:
    17d4:	e9bd1fb0 	ldmib	sp!, {r4, r5, r7, r8, r9, sl, fp, ip}

000017d8 <l1400>:
    17d8:	954d3028 	strbls	r3, [sp, #-40]	; 0x28

000017dc <l1401>:
    17dc:	e5ad601c 	str	r6, [sp, #28]!

000017e0 <l1402>:
    17e0:	e3a0c03e 	mov	ip, #62	; 0x3e

000017e4 <l1403>:
    17e4:	174d000c 	strbne	r0, [sp, -ip]

000017e8 <l1404>:
    17e8:	e3a0602a 	mov	r6, #42	; 0x2a

000017ec <l1405>:
    17ec:	210da0b6 	strhcs	sl, [sp, -r6]

000017f0 <l1406>:
    17f0:	e40d103c 	str	r1, [sp], #-60	; 0x3c

000017f4 <l1407>:
    17f4:	e98ddfdc 	stmib	sp, {r2, r3, r4, r6, r7, r8, r9, sl, fp, ip, lr, pc}

000017f8 <l1408>:
    17f8:	e5dd1037 	ldrb	r1, [sp, #55]	; 0x37

000017fc <l1409>:
    17fc:	e3a07001 	mov	r7, #1

00001800 <l1410>:
    1800:	074d9007 	strbeq	r9, [sp, -r7]

00001804 <l1411>:
    1804:	e1a00000 	nop			; (mov r0, r0)

00001808 <l1412>:
    1808:	e9bd1ef9 	ldmib	sp!, {r0, r3, r4, r5, r6, r7, r9, sl, fp, ip}

0000180c <l1413>:
    180c:	e3a08016 	mov	r8, #22

00001810 <l1414>:
    1810:	519d30f8 	ldrshpl	r3, [sp, r8]

00001814 <l1415>:
    1814:	991d5797 	ldmdbls	sp, {r0, r1, r2, r4, r7, r8, r9, sl, ip, lr}

00001818 <l1416>:
    1818:	e5bd4014 	ldr	r4, [sp, #20]!

0000181c <l1417>:
    181c:	e3a0a018 	mov	sl, #24

00001820 <l1418>:
    1820:	a74d800a 	strbge	r8, [sp, -sl]

00001824 <l1419>:
    1824:	e9bd0008 	ldmib	sp!, {r3}

00001828 <l1420>:
    1828:	b54d600c 	strblt	r6, [sp, #-12]

0000182c <l1421>:
    182c:	e3a0b032 	mov	fp, #50	; 0x32

00001830 <l1422>:
    1830:	e11d90fb 	ldrsh	r9, [sp, -fp]

00001834 <l1423>:
    1834:	e3a0302c 	mov	r3, #44	; 0x2c

00001838 <l1424>:
    1838:	e60d5003 	str	r5, [sp], -r3

0000183c <l1425>:
    183c:	e1a00000 	nop			; (mov r0, r0)

00001840 <l1426>:
    1840:	e3a0500a 	mov	r5, #10

00001844 <l1427>:
    1844:	e7cd9005 	strb	r9, [sp, r5]

00001848 <l1428>:
    1848:	e93d4211 	ldmdb	sp!, {r0, r4, r9, lr}

0000184c <l1429>:
    184c:	e1a00000 	nop			; (mov r0, r0)

00001850 <l1430>:
    1850:	e3a0c022 	mov	ip, #34	; 0x22

00001854 <l1431>:
    1854:	27dd700c 	ldrbcs	r7, [sp, ip]

00001858 <l1432>:
    1858:	e93d0040 	ldmdb	sp!, {r6}

0000185c <l1433>:
    185c:	e1a00000 	nop			; (mov r0, r0)

00001860 <l1434>:
    1860:	e3a0a001 	mov	sl, #1

00001864 <l1435>:
    1864:	e11de0da 	ldrsb	lr, [sp, -sl]

00001868 <l1436>:
    1868:	e5bdb018 	ldr	fp, [sp, #24]!

0000186c <l1437>:
    186c:	e1a00000 	nop			; (mov r0, r0)

00001870 <l1438>:
    1870:	e55d1004 	ldrb	r1, [sp, #-4]

00001874 <l1439>:
    1874:	e1cd00b8 	strh	r0, [sp, #8]

00001878 <l1440>:
    1878:	e55dc007 	ldrb	ip, [sp, #-7]

0000187c <l1441>:
    187c:	e3a0c020 	mov	ip, #32

00001880 <l1442>:
    1880:	e60d600c 	str	r6, [sp], -ip

00001884 <l1443>:
    1884:	95cd404a 	strbls	r4, [sp, #74]	; 0x4a

00001888 <l1444>:
    1888:	e3a0703e 	mov	r7, #62	; 0x3e

0000188c <l1445>:
    188c:	e7cd1007 	strb	r1, [sp, r7]

00001890 <l1446>:
    1890:	e8bd4d5c 	pop	{r2, r3, r4, r6, r8, sl, fp, lr}

00001894 <l1447>:
    1894:	e3a00017 	mov	r0, #23

00001898 <l1448>:
    1898:	119d40d0 	ldrsbne	r4, [sp, r0]

0000189c <l1449>:
    189c:	e5bdc004 	ldr	ip, [sp, #4]!

000018a0 <l1450>:
    18a0:	e3a03012 	mov	r3, #18

000018a4 <l1451>:
    18a4:	a11d60f3 	ldrshge	r6, [sp, -r3]

000018a8 <l1452>:
    18a8:	e83d0050 	ldmda	sp!, {r4, r6}

000018ac <l1453>:
    18ac:	e3a05020 	mov	r5, #32

000018b0 <l1454>:
    18b0:	e68d8005 	str	r8, [sp], r5

000018b4 <l1455>:
    18b4:	e3a0c020 	mov	ip, #32

000018b8 <l1456>:
    18b8:	211d30fc 	ldrshcs	r3, [sp, -ip]

000018bc <l1457>:
    18bc:	e54d500e 	strb	r5, [sp, #-14]

000018c0 <l1458>:
    18c0:	e3a0200d 	mov	r2, #13

000018c4 <l1459>:
    18c4:	e75dc002 	ldrb	ip, [sp, -r2]

000018c8 <l1460>:
    18c8:	e3a0200e 	mov	r2, #14

000018cc <l1461>:
    18cc:	e11da0b2 	ldrh	sl, [sp, -r2]

000018d0 <l1462>:
    18d0:	e3a00034 	mov	r0, #52	; 0x34

000018d4 <l1463>:
    18d4:	211db0f0 	ldrshcs	fp, [sp, -r0]

000018d8 <l1464>:
    18d8:	e90d5cee 	stmdb	sp, {r1, r2, r3, r5, r6, r7, sl, fp, ip, lr}

000018dc <l1465>:
    18dc:	41dd20f6 	ldrshmi	r2, [sp, #6]

000018e0 <l1466>:
    18e0:	555d703c 	ldrbpl	r7, [sp, #-60]	; 0x3c

000018e4 <l1467>:
    18e4:	e8ad0040 	stmia	sp!, {r6}

000018e8 <l1468>:
    18e8:	e91d5fcb 	ldmdb	sp, {r0, r1, r3, r6, r7, r8, r9, sl, fp, ip, lr}

000018ec <l1469>:
    18ec:	e80d3cf2 	stmda	sp, {r1, r4, r5, r6, r7, sl, fp, ip, sp}

000018f0 <l1470>:
    18f0:	e83d5ffb 	ldmda	sp!, {r0, r1, r3, r4, r5, r6, r7, r8, r9, sl, fp, ip, lr}

000018f4 <l1471>:
    18f4:	e3a0200a 	mov	r2, #10

000018f8 <l1472>:
    18f8:	e18d70b2 	strh	r7, [sp, r2]

000018fc <l1473>:
    18fc:	e89d520c 	ldm	sp, {r2, r3, r9, ip, lr}

00001900 <l1474>:
    1900:	e1a00000 	nop			; (mov r0, r0)

00001904 <l1475>:
    1904:	e3a0001e 	mov	r0, #30

00001908 <l1476>:
    1908:	b19d50f0 	ldrshlt	r5, [sp, r0]

0000190c <l1477>:
    190c:	e1dd82fc 	ldrsh	r8, [sp, #44]	; 0x2c

00001910 <l1478>:
    1910:	755d5006 	ldrbvc	r5, [sp, #-6]

00001914 <l1479>:
    1914:	e5cd5034 	strb	r5, [sp, #52]	; 0x34

00001918 <l1480>:
    1918:	998dbfd6 	stmibls	sp, {r1, r2, r4, r6, r7, r8, r9, sl, fp, ip, sp, pc}

0000191c <l1481>:
    191c:	e1dd91b8 	ldrh	r9, [sp, #24]

00001920 <l1482>:
    1920:	e3a07002 	mov	r7, #2

00001924 <l1483>:
    1924:	619d90f7 	ldrshvs	r9, [sp, r7]

00001928 <l1484>:
    1928:	e8ad2000 	stmia	sp!, {sp}

0000192c <l1485>:
    192c:	e3a0301c 	mov	r3, #28

00001930 <l1486>:
    1930:	418da0b3 	strhmi	sl, [sp, r3]

00001934 <l1487>:
    1934:	e1a00000 	nop			; (mov r0, r0)

00001938 <l1488>:
    1938:	e8bd0028 	pop	{r3, r5}

0000193c <l1489>:
    193c:	c88d0010 	stmgt	sp, {r4}

00001940 <l1490>:
    1940:	a90d0921 	stmdbge	sp, {r0, r5, r8, fp}

00001944 <l1491>:
    1944:	e82d1108 	stmda	sp!, {r3, r8, ip}

00001948 <l1492>:
    1948:	e3a02010 	mov	r2, #16

0000194c <l1493>:
    194c:	e18d70b2 	strh	r7, [sp, r2]

00001950 <l1494>:
    1950:	e1a00000 	nop			; (mov r0, r0)

00001954 <l1495>:
    1954:	e1a00000 	nop			; (mov r0, r0)

00001958 <l1496>:
    1958:	e9ad2000 	stmib	sp!, {sp}

0000195c <l1497>:
    195c:	e5cd8027 	strb	r8, [sp, #39]	; 0x27

00001960 <l1498>:
    1960:	e3a0c02c 	mov	ip, #44	; 0x2c

00001964 <l1499>:
    1964:	319d20fc 	ldrshcc	r2, [sp, ip]

00001968 <l1500>:
    1968:	e3a0c004 	mov	ip, #4

0000196c <l1501>:
    196c:	e61d500c 	ldr	r5, [sp], -ip

00001970 <l1502>:
    1970:	e3a0100c 	mov	r1, #12

00001974 <l1503>:
    1974:	811db0f1 	ldrshhi	fp, [sp, -r1]

00001978 <l1504>:
    1978:	71cd80be 	strhvc	r8, [sp, #14]

0000197c <l1505>:
    197c:	e3a0c028 	mov	ip, #40	; 0x28

00001980 <l1506>:
    1980:	e19d60fc 	ldrsh	r6, [sp, ip]

00001984 <l1507>:
    1984:	e1a00000 	nop			; (mov r0, r0)

00001988 <l1508>:
    1988:	e3a0b004 	mov	fp, #4

0000198c <l1509>:
    198c:	e72de00b 	str	lr, [sp, -fp]!

00001990 <l1510>:
    1990:	e8add77f 	stmia	sp!, {r0, r1, r2, r3, r4, r5, r6, r8, r9, sl, ip, lr, pc}

00001994 <l1511>:
    1994:	e3a00008 	mov	r0, #8

00001998 <l1512>:
    1998:	470d2000 	strmi	r2, [sp, -r0]

0000199c <l1513>:
    199c:	e98d0002 	stmib	sp, {r1}

000019a0 <l1514>:
    19a0:	655d101a 	ldrbvs	r1, [sp, #-26]

000019a4 <l1515>:
    19a4:	e15d53b6 	ldrh	r5, [sp, #-54]	; 0xffffffca

000019a8 <l1516>:
    19a8:	954d0024 	strbls	r0, [sp, #-36]	; 0x24

000019ac <l1517>:
    19ac:	515d82b2 	ldrhpl	r8, [sp, #-34]	; 0xffffffde

000019b0 <l1518>:
    19b0:	e8ad0420 	stmia	sp!, {r5, sl}

000019b4 <l1519>:
    19b4:	e90d37fa 	stmdb	sp, {r1, r3, r4, r5, r6, r7, r8, r9, sl, ip, sp}

000019b8 <l1520>:
    19b8:	e81d58c0 	ldmda	sp, {r6, r7, fp, ip, lr}

000019bc <l1521>:
    19bc:	e3a01014 	mov	r1, #20

000019c0 <l1522>:
    19c0:	e11d70b1 	ldrh	r7, [sp, -r1]

000019c4 <l1523>:
    19c4:	e3a07036 	mov	r7, #54	; 0x36

000019c8 <l1524>:
    19c8:	910d30b7 	strhls	r3, [sp, -r7]

000019cc <l1525>:
    19cc:	e15d31dd 	ldrsb	r3, [sp, #-29]	; 0xffffffe3

000019d0 <l1526>:
    19d0:	e3a00040 	mov	r0, #64	; 0x40

000019d4 <l1527>:
    19d4:	e73d9000 	ldr	r9, [sp, -r0]!

000019d8 <l1528>:
    19d8:	e3a02004 	mov	r2, #4

000019dc <l1529>:
    19dc:	a74d0002 	strbge	r0, [sp, -r2]

000019e0 <l1530>:
    19e0:	b89d0800 	ldmlt	sp, {fp}

000019e4 <l1531>:
    19e4:	e49d3034 	ldr	r3, [sp], #52	; 0x34

000019e8 <l1532>:
    19e8:	e1dd10ba 	ldrh	r1, [sp, #10]

000019ec <l1533>:
    19ec:	854d200e 	strbhi	r2, [sp, #-14]

000019f0 <l1534>:
    19f0:	955d1036 	ldrbls	r1, [sp, #-54]	; 0x36

000019f4 <l1535>:
    19f4:	e9bd0029 	ldmib	sp!, {r0, r3, r5}

000019f8 <l1536>:
    19f8:	e8ad0040 	stmia	sp!, {r6}

000019fc <l1537>:
    19fc:	e55d9029 	ldrb	r9, [sp, #-41]	; 0x29

00001a00 <l1538>:
    1a00:	981d42bf 	ldmdals	sp, {r0, r1, r2, r3, r4, r5, r7, r9, lr}

00001a04 <l1539>:
    1a04:	891d1f7d 	ldmdbhi	sp, {r0, r2, r3, r4, r5, r6, r8, r9, sl, fp, ip}

00001a08 <l1540>:
    1a08:	e1a00000 	nop			; (mov r0, r0)

00001a0c <l1541>:
    1a0c:	e3a0e016 	mov	lr, #22

00001a10 <l1542>:
    1a10:	411d30be 	ldrhmi	r3, [sp, -lr]

00001a14 <l1543>:
    1a14:	e3a0b01e 	mov	fp, #30

00001a18 <l1544>:
    1a18:	e10d10bb 	strh	r1, [sp, -fp]

00001a1c <l1545>:
    1a1c:	e83d5dff 	ldmda	sp!, {r0, r1, r2, r3, r4, r5, r6, r7, r8, sl, fp, ip, lr}

00001a20 <l1546>:
    1a20:	150d800c 	strne	r8, [sp, #-12]

00001a24 <l1547>:
    1a24:	c5cdb01a 	strbgt	fp, [sp, #26]

00001a28 <l1548>:
    1a28:	e3a07003 	mov	r7, #3

00001a2c <l1549>:
    1a2c:	811dc0d7 	ldrsbhi	ip, [sp, -r7]

00001a30 <l1550>:
    1a30:	e3a0300a 	mov	r3, #10

00001a34 <l1551>:
    1a34:	b10d70b3 	strhlt	r7, [sp, -r3]

00001a38 <l1552>:
    1a38:	a1dd11d9 	ldrsbge	r1, [sp, #25]

00001a3c <l1553>:
    1a3c:	e89d44aa 	ldm	sp, {r1, r3, r5, r7, sl, lr}

00001a40 <l1554>:
    1a40:	25dd101d 	ldrbcs	r1, [sp, #29]

00001a44 <l1555>:
    1a44:	e3a05004 	mov	r5, #4

00001a48 <l1556>:
    1a48:	e69d2005 	ldr	r2, [sp], r5

00001a4c <l1557>:
    1a4c:	e3a0b026 	mov	fp, #38	; 0x26

00001a50 <l1558>:
    1a50:	b19d50db 	ldrsblt	r5, [sp, fp]

00001a54 <l1559>:
    1a54:	e92d4120 	push	{r5, r8, lr}

00001a58 <l1560>:
    1a58:	e3a08028 	mov	r8, #40	; 0x28

00001a5c <l1561>:
    1a5c:	e79da008 	ldr	sl, [sp, r8]

00001a60 <l1562>:
    1a60:	b1dd52ba 	ldrhlt	r5, [sp, #42]	; 0x2a

00001a64 <l1563>:
    1a64:	e5cd6035 	strb	r6, [sp, #53]	; 0x35

00001a68 <l1564>:
    1a68:	e3a0102d 	mov	r1, #45	; 0x2d

00001a6c <l1565>:
    1a6c:	719d90d1 	ldrsbvc	r9, [sp, r1]

00001a70 <l1566>:
    1a70:	e3a09014 	mov	r9, #20

00001a74 <l1567>:
    1a74:	618d10b9 	strhvs	r1, [sp, r9]

00001a78 <l1568>:
    1a78:	e3a0803e 	mov	r8, #62	; 0x3e

00001a7c <l1569>:
    1a7c:	97cd1008 	strbls	r1, [sp, r8]

00001a80 <l1570>:
    1a80:	e1a00000 	nop			; (mov r0, r0)

00001a84 <l1571>:
    1a84:	390d0100 	stmdbcc	sp, {r8}

00001a88 <l1572>:
    1a88:	e3a0502a 	mov	r5, #42	; 0x2a

00001a8c <l1573>:
    1a8c:	e7cd0005 	strb	r0, [sp, r5]

00001a90 <l1574>:
    1a90:	e8ad0160 	stmia	sp!, {r5, r6, r8}

00001a94 <l1575>:
    1a94:	e3a0b006 	mov	fp, #6

00001a98 <l1576>:
    1a98:	e19de0fb 	ldrsh	lr, [sp, fp]

00001a9c <l1577>:
    1a9c:	e15d00f8 	ldrsh	r0, [sp, #-8]

00001aa0 <l1578>:
    1aa0:	e3a0e02c 	mov	lr, #44	; 0x2c

00001aa4 <l1579>:
    1aa4:	e78dc00e 	str	ip, [sp, lr]

00001aa8 <l1580>:
    1aa8:	e8bd4904 	pop	{r2, r8, fp, lr}

00001aac <l1581>:
    1aac:	c1dd30f6 	ldrshgt	r3, [sp, #6]

00001ab0 <l1582>:
    1ab0:	e9ad0110 	stmib	sp!, {r4, r8}

00001ab4 <l1583>:
    1ab4:	e1dd30dc 	ldrsb	r3, [sp, #12]

00001ab8 <l1584>:
    1ab8:	e3a0402e 	mov	r4, #46	; 0x2e

00001abc <l1585>:
    1abc:	e11d20b4 	ldrh	r2, [sp, -r4]

00001ac0 <l1586>:
    1ac0:	e3a0a022 	mov	sl, #34	; 0x22

00001ac4 <l1587>:
    1ac4:	075de00a 	ldrbeq	lr, [sp, -sl]

00001ac8 <l1588>:
    1ac8:	658d8018 	strvs	r8, [sp, #24]

00001acc <l1589>:
    1acc:	e3a0902c 	mov	r9, #44	; 0x2c

00001ad0 <l1590>:
    1ad0:	e71d7009 	ldr	r7, [sp, -r9]

00001ad4 <l1591>:
    1ad4:	e9bd1221 	ldmib	sp!, {r0, r5, r9, ip}

00001ad8 <l1592>:
    1ad8:	d55d1028 	ldrble	r1, [sp, #-40]	; 0x28

00001adc <l1593>:
    1adc:	e82de000 	stmda	sp!, {sp, lr, pc}

00001ae0 <l1594>:
    1ae0:	755d6004 	ldrbvc	r6, [sp, #-4]

00001ae4 <l1595>:
    1ae4:	e3a0a012 	mov	sl, #18

00001ae8 <l1596>:
    1ae8:	c10d80ba 	strhgt	r8, [sp, -sl]

00001aec <l1597>:
    1aec:	490d004c 	stmdbmi	sp, {r2, r3, r6}

00001af0 <l1598>:
    1af0:	e48d3008 	str	r3, [sp], #8

00001af4 <l1599>:
    1af4:	e3a0002a 	mov	r0, #42	; 0x2a

00001af8 <l1600>:
    1af8:	610d40b0 	strhvs	r4, [sp, -r0]

00001afc <l1601>:
    1afc:	e92de000 	push	{sp, lr, pc}

00001b00 <l1602>:
    1b00:	e3a0100a 	mov	r1, #10

00001b04 <l1603>:
    1b04:	819d50d1 	ldrsbhi	r5, [sp, r1]

00001b08 <l1604>:
    1b08:	e3a06001 	mov	r6, #1

00001b0c <l1605>:
    1b0c:	e19d90d6 	ldrsb	r9, [sp, r6]

00001b10 <l1606>:
    1b10:	e8ad0200 	stmia	sp!, {r9}

00001b14 <l1607>:
    1b14:	e93d4008 	ldmdb	sp!, {r3, lr}

00001b18 <l1608>:
    1b18:	e89d0840 	ldm	sp, {r6, fp}

00001b1c <l1609>:
    1b1c:	e1a00000 	nop			; (mov r0, r0)

00001b20 <l1610>:
    1b20:	e3a00004 	mov	r0, #4

00001b24 <l1611>:
    1b24:	e73d9000 	ldr	r9, [sp, -r0]!

00001b28 <l1612>:
    1b28:	75dd001c 	ldrbvc	r0, [sp, #28]

00001b2c <l1613>:
    1b2c:	e3a07026 	mov	r7, #38	; 0x26

00001b30 <l1614>:
    1b30:	511da0b7 	ldrhpl	sl, [sp, -r7]

00001b34 <l1615>:
    1b34:	e90db14d 	stmdb	sp, {r0, r2, r3, r6, r8, ip, sp, pc}

00001b38 <l1616>:
    1b38:	b54d9004 	strblt	r9, [sp, #-4]

00001b3c <l1617>:
    1b3c:	e5dd8021 	ldrb	r8, [sp, #33]	; 0x21

00001b40 <l1618>:
    1b40:	e1a00000 	nop			; (mov r0, r0)

00001b44 <l1619>:
    1b44:	255da01b 	ldrbcs	sl, [sp, #-27]

00001b48 <l1620>:
    1b48:	e3a02010 	mov	r2, #16

00001b4c <l1621>:
    1b4c:	211d10b2 	ldrhcs	r1, [sp, -r2]

00001b50 <l1622>:
    1b50:	298de067 	stmibcs	sp, {r0, r1, r2, r5, r6, sp, lr, pc}

00001b54 <l1623>:
    1b54:	e15d01b0 	ldrh	r0, [sp, #-16]

00001b58 <l1624>:
    1b58:	35cd200e 	strbcc	r2, [sp, #14]

00001b5c <l1625>:
    1b5c:	e3a0b00b 	mov	fp, #11

00001b60 <l1626>:
    1b60:	e7dd400b 	ldrb	r4, [sp, fp]

00001b64 <l1627>:
    1b64:	e3a09010 	mov	r9, #16

00001b68 <l1628>:
    1b68:	e74de009 	strb	lr, [sp, -r9]

00001b6c <l1629>:
    1b6c:	e3a0900c 	mov	r9, #12

00001b70 <l1630>:
    1b70:	618d10b9 	strhvs	r1, [sp, r9]

00001b74 <l1631>:
    1b74:	c90d2000 	stmdbgt	sp, {sp}

00001b78 <l1632>:
    1b78:	715da0f4 	ldrshvc	sl, [sp, #-4]

00001b7c <l1633>:
    1b7c:	e15d71b6 	ldrh	r7, [sp, #-22]	; 0xffffffea

00001b80 <l1634>:
    1b80:	e3a0b00c 	mov	fp, #12

00001b84 <l1635>:
    1b84:	e7bdc00b 	ldr	ip, [sp, fp]!

00001b88 <l1636>:
    1b88:	e3a04008 	mov	r4, #8

00001b8c <l1637>:
    1b8c:	e69d9004 	ldr	r9, [sp], r4

00001b90 <l1638>:
    1b90:	e3a0a030 	mov	sl, #48	; 0x30

00001b94 <l1639>:
    1b94:	e10da0ba 	strh	sl, [sp, -sl]

00001b98 <l1640>:
    1b98:	e3a0c02d 	mov	ip, #45	; 0x2d

00001b9c <l1641>:
    1b9c:	a75d300c 	ldrbge	r3, [sp, -ip]

00001ba0 <l1642>:
    1ba0:	e93d5fef 	ldmdb	sp!, {r0, r1, r2, r3, r5, r6, r7, r8, r9, sl, fp, ip, lr}

00001ba4 <l1643>:
    1ba4:	e3a02010 	mov	r2, #16

00001ba8 <l1644>:
    1ba8:	e7adf002 	str	pc, [sp, r2]!

00001bac <l1645>:
    1bac:	a1cd11ba 	strhge	r1, [sp, #26]

00001bb0 <l1646>:
    1bb0:	e3a0b006 	mov	fp, #6

00001bb4 <l1647>:
    1bb4:	b10d00bb 	strhlt	r0, [sp, -fp]

00001bb8 <l1648>:
    1bb8:	e3a02004 	mov	r2, #4

00001bbc <l1649>:
    1bbc:	e19d50f2 	ldrsh	r5, [sp, r2]

00001bc0 <l1650>:
    1bc0:	e81d0e02 	ldmda	sp, {r1, r9, sl, fp}

00001bc4 <l1651>:
    1bc4:	41cdb0b8 	strhmi	fp, [sp, #8]

00001bc8 <l1652>:
    1bc8:	e1a00000 	nop			; (mov r0, r0)

00001bcc <l1653>:
    1bcc:	75cda00c 	strbvc	sl, [sp, #12]

00001bd0 <l1654>:
    1bd0:	e3a0e02c 	mov	lr, #44	; 0x2c

00001bd4 <l1655>:
    1bd4:	e7dd000e 	ldrb	r0, [sp, lr]

00001bd8 <l1656>:
    1bd8:	e9bd4f57 	ldmib	sp!, {r0, r1, r2, r4, r6, r8, r9, sl, fp, lr}

00001bdc <l1657>:
    1bdc:	e3a04002 	mov	r4, #2

00001be0 <l1658>:
    1be0:	774d7004 	strbvc	r7, [sp, -r4]

00001be4 <l1659>:
    1be4:	e3a0700c 	mov	r7, #12

00001be8 <l1660>:
    1be8:	110d30b7 	strhne	r3, [sp, -r7]

00001bec <l1661>:
    1bec:	558d6000 	strpl	r6, [sp]

00001bf0 <l1662>:
    1bf0:	e14da3bc 	strh	sl, [sp, #-60]	; 0xffffffc4

00001bf4 <l1663>:
    1bf4:	b15d43d8 	ldrsblt	r4, [sp, #-56]	; 0xffffffc8

00001bf8 <l1664>:
    1bf8:	e52d9040 	str	r9, [sp, #-64]!	; 0x40

00001bfc <l1665>:
    1bfc:	e1dd90de 	ldrsb	r9, [sp, #14]

00001c00 <l1666>:
    1c00:	e3a02012 	mov	r2, #18

00001c04 <l1667>:
    1c04:	b18d70b2 	strhlt	r7, [sp, r2]

00001c08 <l1668>:
    1c08:	d1dd44d5 	ldrsble	r4, [sp, #69]	; 0x45

00001c0c <l1669>:
    1c0c:	e1dd01d7 	ldrsb	r0, [sp, #23]

00001c10 <l1670>:
    1c10:	e48dc004 	str	ip, [sp], #4

00001c14 <l1671>:
    1c14:	e1a00000 	nop			; (mov r0, r0)

00001c18 <l1672>:
    1c18:	e9ade000 	stmib	sp!, {sp, lr, pc}

00001c1c <l1673>:
    1c1c:	e1a00000 	nop			; (mov r0, r0)

00001c20 <l1674>:
    1c20:	e3a05002 	mov	r5, #2

00001c24 <l1675>:
    1c24:	e11d90f5 	ldrsh	r9, [sp, -r5]

00001c28 <l1676>:
    1c28:	e8bd0040 	ldmfd	sp!, {r6}

00001c2c <l1677>:
    1c2c:	e83d0024 	ldmda	sp!, {r2, r5}

00001c30 <l1678>:
    1c30:	e5cd403c 	strb	r4, [sp, #60]	; 0x3c

00001c34 <l1679>:
    1c34:	e3a0c008 	mov	ip, #8

00001c38 <l1680>:
    1c38:	e7bda00c 	ldr	sl, [sp, ip]!

00001c3c <l1681>:
    1c3c:	158db018 	strne	fp, [sp, #24]

00001c40 <l1682>:
    1c40:	e82d0001 	stmda	sp!, {r0}

00001c44 <l1683>:
    1c44:	e89d5df7 	ldm	sp, {r0, r1, r2, r4, r5, r6, r7, r8, sl, fp, ip, lr}

00001c48 <l1684>:
    1c48:	e3a01004 	mov	r1, #4

00001c4c <l1685>:
    1c4c:	c7dd1001 	ldrbgt	r1, [sp, r1]

00001c50 <l1686>:
    1c50:	e5dd002b 	ldrb	r0, [sp, #43]	; 0x2b

00001c54 <l1687>:
    1c54:	e80d0010 	stmda	sp, {r4}

00001c58 <l1688>:
    1c58:	e3a0a017 	mov	sl, #23

00001c5c <l1689>:
    1c5c:	07ddc00a 	ldrbeq	ip, [sp, sl]

00001c60 <l1690>:
    1c60:	e3a02000 	mov	r2, #0

00001c64 <l1691>:
    1c64:	27cdb002 	strbcs	fp, [sp, r2]

00001c68 <l1692>:
    1c68:	e49d8018 	ldr	r8, [sp], #24

00001c6c <l1693>:
    1c6c:	e9ad413a 	stmib	sp!, {r1, r3, r4, r5, r8, lr}

00001c70 <l1694>:
    1c70:	e93d586b 	ldmdb	sp!, {r0, r1, r3, r5, r6, fp, ip, lr}

00001c74 <l1695>:
    1c74:	e3a02010 	mov	r2, #16

00001c78 <l1696>:
    1c78:	e7ad9002 	str	r9, [sp, r2]!

00001c7c <l1697>:
    1c7c:	e3a0400e 	mov	r4, #14

00001c80 <l1698>:
    1c80:	e19d40f4 	ldrsh	r4, [sp, r4]

00001c84 <l1699>:
    1c84:	e3a01000 	mov	r1, #0

00001c88 <l1700>:
    1c88:	e68d4001 	str	r4, [sp], r1

00001c8c <l1701>:
    1c8c:	e3a03010 	mov	r3, #16

00001c90 <l1702>:
    1c90:	319d90f3 	ldrshcc	r9, [sp, r3]

00001c94 <l1703>:
    1c94:	e82d2000 	stmda	sp!, {sp}

00001c98 <l1704>:
    1c98:	e14dc1be 	strh	ip, [sp, #-30]	; 0xffffffe2

00001c9c <l1705>:
    1c9c:	e82d0a20 	stmda	sp!, {r5, r9, fp}

00001ca0 <l1706>:
    1ca0:	e1dd61dc 	ldrsb	r6, [sp, #28]

00001ca4 <l1707>:
    1ca4:	490d4a22 	stmdbmi	sp, {r1, r5, r9, fp, lr}

00001ca8 <l1708>:
    1ca8:	e3a00014 	mov	r0, #20

00001cac <l1709>:
    1cac:	a10d60b0 	strhge	r6, [sp, -r0]

00001cb0 <l1710>:
    1cb0:	c1dd02d5 	ldrsbgt	r0, [sp, #37]	; 0x25

00001cb4 <l1711>:
    1cb4:	e3a0e000 	mov	lr, #0

00001cb8 <l1712>:
    1cb8:	e68d900e 	str	r9, [sp], lr

00001cbc <l1713>:
    1cbc:	e1dda0b4 	ldrh	sl, [sp, #4]

00001cc0 <l1714>:
    1cc0:	e89d0003 	ldm	sp, {r0, r1}

00001cc4 <l1715>:
    1cc4:	e3a0b020 	mov	fp, #32

00001cc8 <l1716>:
    1cc8:	07cd600b 	strbeq	r6, [sp, fp]

00001ccc <l1717>:
    1ccc:	95dd5013 	ldrbls	r5, [sp, #19]

00001cd0 <l1718>:
    1cd0:	e15db1f0 	ldrsh	fp, [sp, #-16]

00001cd4 <l1719>:
    1cd4:	b15d81bc 	ldrhlt	r8, [sp, #-28]	; 0xffffffe4

00001cd8 <l1720>:
    1cd8:	e3a0900a 	mov	r9, #10

00001cdc <l1721>:
    1cdc:	e11d80d9 	ldrsb	r8, [sp, -r9]

00001ce0 <l1722>:
    1ce0:	e3a0900e 	mov	r9, #14

00001ce4 <l1723>:
    1ce4:	e18db0b9 	strh	fp, [sp, r9]

00001ce8 <l1724>:
    1ce8:	e3a00028 	mov	r0, #40	; 0x28

00001cec <l1725>:
    1cec:	c19da0f0 	ldrshgt	sl, [sp, r0]

00001cf0 <l1726>:
    1cf0:	e9bd1300 	ldmib	sp!, {r8, r9, ip}

00001cf4 <l1727>:
    1cf4:	e82d4000 	stmda	sp!, {lr}

00001cf8 <l1728>:
    1cf8:	e9ad09c1 	stmib	sp!, {r0, r6, r7, r8, fp}

00001cfc <l1729>:
    1cfc:	e3a0b008 	mov	fp, #8

00001d00 <l1730>:
    1d00:	011d80db 	ldrsbeq	r8, [sp, -fp]

00001d04 <l1731>:
    1d04:	e3a08031 	mov	r8, #49	; 0x31

00001d08 <l1732>:
    1d08:	b11d10d8 	ldrsblt	r1, [sp, -r8]

00001d0c <l1733>:
    1d0c:	e3a0500e 	mov	r5, #14

00001d10 <l1734>:
    1d10:	e11d10b5 	ldrh	r1, [sp, -r5]

00001d14 <l1735>:
    1d14:	e3a05006 	mov	r5, #6

00001d18 <l1736>:
    1d18:	311dc0d5 	ldrsbcc	ip, [sp, -r5]

00001d1c <l1737>:
    1d1c:	e3a0e004 	mov	lr, #4

00001d20 <l1738>:
    1d20:	e7bda00e 	ldr	sl, [sp, lr]!

00001d24 <l1739>:
    1d24:	e53d6038 	ldr	r6, [sp, #-56]!	; 0x38

00001d28 <l1740>:
    1d28:	e1a00000 	nop			; (mov r0, r0)

00001d2c <l1741>:
    1d2c:	e3a0c004 	mov	ip, #4

00001d30 <l1742>:
    1d30:	b71d500c 	ldrlt	r5, [sp, -ip]

00001d34 <l1743>:
    1d34:	e3a0b034 	mov	fp, #52	; 0x34

00001d38 <l1744>:
    1d38:	d18d80bb 	strhle	r8, [sp, fp]

00001d3c <l1745>:
    1d3c:	e1a00000 	nop			; (mov r0, r0)

00001d40 <l1746>:
    1d40:	e9bd19ff 	ldmib	sp!, {r0, r1, r2, r3, r4, r5, r6, r7, r8, fp, ip}

00001d44 <l1747>:
    1d44:	e15db0d8 	ldrsb	fp, [sp, #-8]

00001d48 <l1748>:
    1d48:	e53d1010 	ldr	r1, [sp, #-16]!

00001d4c <l1749>:
    1d4c:	e5ad8010 	str	r8, [sp, #16]!

00001d50 <l1750>:
    1d50:	e91d4a08 	ldmdb	sp, {r3, r9, fp, lr}

00001d54 <l1751>:
    1d54:	e81d5955 	ldmda	sp, {r0, r2, r4, r6, r8, fp, ip, lr}

00001d58 <l1752>:
    1d58:	e3a09010 	mov	r9, #16

00001d5c <l1753>:
    1d5c:	e7dd0009 	ldrb	r0, [sp, r9]

00001d60 <l1754>:
    1d60:	e9ad0800 	stmib	sp!, {fp}

00001d64 <l1755>:
    1d64:	e40d2018 	str	r2, [sp], #-24

00001d68 <l1756>:
    1d68:	71cda2b6 	strhvc	sl, [sp, #38]	; 0x26

00001d6c <l1757>:
    1d6c:	e93d0040 	ldmdb	sp!, {r6}

00001d70 <l1758>:
    1d70:	e3a05014 	mov	r5, #20

00001d74 <l1759>:
    1d74:	97cd7005 	strbls	r7, [sp, r5]

00001d78 <l1760>:
    1d78:	e1dd72f0 	ldrsh	r7, [sp, #32]

00001d7c <l1761>:
    1d7c:	e98d2ff6 	stmib	sp, {r1, r2, r4, r5, r6, r7, r8, r9, sl, fp, sp}

00001d80 <l1762>:
    1d80:	e3a0402c 	mov	r4, #44	; 0x2c

00001d84 <l1763>:
    1d84:	e7bdc004 	ldr	ip, [sp, r4]!

00001d88 <l1764>:
    1d88:	255da03d 	ldrbcs	sl, [sp, #-61]	; 0x3d

00001d8c <l1765>:
    1d8c:	e82de000 	stmda	sp!, {sp, lr, pc}

00001d90 <l1766>:
    1d90:	e3a03014 	mov	r3, #20

00001d94 <l1767>:
    1d94:	e71da003 	ldr	sl, [sp, -r3]

00001d98 <l1768>:
    1d98:	e3a00008 	mov	r0, #8

00001d9c <l1769>:
    1d9c:	17dd3000 	ldrbne	r3, [sp, r0]

00001da0 <l1770>:
    1da0:	e3a03015 	mov	r3, #21

00001da4 <l1771>:
    1da4:	311d00d3 	ldrsbcc	r0, [sp, -r3]

00001da8 <l1772>:
    1da8:	e3a0801a 	mov	r8, #26

00001dac <l1773>:
    1dac:	e11d30f8 	ldrsh	r3, [sp, -r8]

00001db0 <l1774>:
    1db0:	e1cdc0b2 	strh	ip, [sp, #2]

00001db4 <l1775>:
    1db4:	e1a00000 	nop			; (mov r0, r0)

00001db8 <l1776>:
    1db8:	e53da00c 	ldr	sl, [sp, #-12]!

00001dbc <l1777>:
    1dbc:	e99d46c1 	ldmib	sp, {r0, r6, r7, r9, sl, lr}

00001dc0 <l1778>:
    1dc0:	d81d5008 	ldmdale	sp, {r3, ip, lr}

00001dc4 <l1779>:
    1dc4:	e3a03010 	mov	r3, #16

00001dc8 <l1780>:
    1dc8:	011db0b3 	ldrheq	fp, [sp, -r3]

00001dcc <l1781>:
    1dcc:	e59d4008 	ldr	r4, [sp, #8]

00001dd0 <l1782>:
    1dd0:	e9ad4122 	stmib	sp!, {r1, r5, r8, lr}

00001dd4 <l1783>:
    1dd4:	b55d003f 	ldrblt	r0, [sp, #-63]	; 0x3f

00001dd8 <l1784>:
    1dd8:	e1a00000 	nop			; (mov r0, r0)

00001ddc <l1785>:
    1ddc:	c15d93f4 	ldrshgt	r9, [sp, #-52]	; 0xffffffcc

00001de0 <l1786>:
    1de0:	591d15ff 	ldmdbpl	sp, {r0, r1, r2, r3, r4, r5, r6, r7, r8, sl, ip}

00001de4 <l1787>:
    1de4:	e3a07028 	mov	r7, #40	; 0x28

00001de8 <l1788>:
    1de8:	e11d20f7 	ldrsh	r2, [sp, -r7]

00001dec <l1789>:
    1dec:	e3a0103e 	mov	r1, #62	; 0x3e

00001df0 <l1790>:
    1df0:	110d70b1 	strhne	r7, [sp, -r1]

00001df4 <l1791>:
    1df4:	e41d9038 	ldr	r9, [sp], #-56	; 0x38

00001df8 <l1792>:
    1df8:	65dd8034 	ldrbvs	r8, [sp, #52]	; 0x34

00001dfc <l1793>:
    1dfc:	e9ade000 	stmib	sp!, {sp, lr, pc}

00001e00 <l1794>:
    1e00:	e3a05001 	mov	r5, #1

00001e04 <l1795>:
    1e04:	e7ddc005 	ldrb	ip, [sp, r5]

00001e08 <l1796>:
    1e08:	25cd9029 	strbcs	r9, [sp, #41]	; 0x29

00001e0c <l1797>:
    1e0c:	e90d2110 	stmdb	sp, {r4, r8, sp}

00001e10 <l1798>:
    1e10:	e9ade000 	stmib	sp!, {sp, lr, pc}

00001e14 <l1799>:
    1e14:	e3a0b023 	mov	fp, #35	; 0x23

00001e18 <l1800>:
    1e18:	c7dd400b 	ldrbgt	r4, [sp, fp]

00001e1c <l1801>:
    1e1c:	e3a0a00a 	mov	sl, #10

00001e20 <l1802>:
    1e20:	e11d00da 	ldrsb	r0, [sp, -sl]

00001e24 <l1803>:
    1e24:	e3a0100c 	mov	r1, #12

00001e28 <l1804>:
    1e28:	079de001 	ldreq	lr, [sp, r1]

00001e2c <l1805>:
    1e2c:	e3a0701f 	mov	r7, #31

00001e30 <l1806>:
    1e30:	97cd8007 	strbls	r8, [sp, r7]

00001e34 <l1807>:
    1e34:	e3a02012 	mov	r2, #18

00001e38 <l1808>:
    1e38:	e18d70b2 	strh	r7, [sp, r2]

00001e3c <l1809>:
    1e3c:	e3a07020 	mov	r7, #32

00001e40 <l1810>:
    1e40:	e19d30d7 	ldrsb	r3, [sp, r7]

00001e44 <l1811>:
    1e44:	e3a03012 	mov	r3, #18

00001e48 <l1812>:
    1e48:	718d40b3 	strhvc	r4, [sp, r3]

00001e4c <l1813>:
    1e4c:	e93d0800 	ldmdb	sp!, {fp}

00001e50 <l1814>:
    1e50:	e3a04022 	mov	r4, #34	; 0x22

00001e54 <l1815>:
    1e54:	e19d50b4 	ldrh	r5, [sp, r4]

00001e58 <l1816>:
    1e58:	c1dd00d6 	ldrsbgt	r0, [sp, #6]

00001e5c <l1817>:
    1e5c:	e3a06024 	mov	r6, #36	; 0x24

00001e60 <l1818>:
    1e60:	e18de0b6 	strh	lr, [sp, r6]

00001e64 <l1819>:
    1e64:	488dcba7 	stmmi	sp, {r0, r1, r2, r5, r7, r8, r9, fp, lr, pc}

00001e68 <l1820>:
    1e68:	e48d6014 	str	r6, [sp], #20

00001e6c <l1821>:
    1e6c:	e3a0200e 	mov	r2, #14

00001e70 <l1822>:
    1e70:	d10da0b2 	strhle	sl, [sp, -r2]

00001e74 <l1823>:
    1e74:	e49da014 	ldr	sl, [sp], #20

00001e78 <l1824>:
    1e78:	e52d500c 	str	r5, [sp, #-12]!

00001e7c <l1825>:
    1e7c:	c1dd20fa 	ldrshgt	r2, [sp, #10]

00001e80 <l1826>:
    1e80:	881d4ea3 	ldmdahi	sp, {r0, r1, r5, r7, r9, sl, fp, lr}

00001e84 <l1827>:
    1e84:	d15db1bc 	ldrhle	fp, [sp, #-28]	; 0xffffffe4

00001e88 <l1828>:
    1e88:	914d10be 	strhls	r1, [sp, #-14]

00001e8c <l1829>:
    1e8c:	d55d401e 	ldrble	r4, [sp, #-30]

00001e90 <l1830>:
    1e90:	e5cdb00e 	strb	fp, [sp, #14]

00001e94 <l1831>:
    1e94:	e3a0a00a 	mov	sl, #10

00001e98 <l1832>:
    1e98:	e11d60ba 	ldrh	r6, [sp, -sl]

00001e9c <l1833>:
    1e9c:	e92d2000 	stmfd	sp!, {sp}

00001ea0 <l1834>:
    1ea0:	e1dd60fc 	ldrsh	r6, [sp, #12]

00001ea4 <l1835>:
    1ea4:	65ddb013 	ldrbvs	fp, [sp, #19]

00001ea8 <l1836>:
    1ea8:	e3a0c008 	mov	ip, #8

00001eac <l1837>:
    1eac:	e19da0bc 	ldrh	sl, [sp, ip]

00001eb0 <l1838>:
    1eb0:	e9bd0844 	ldmib	sp!, {r2, r6, fp}

00001eb4 <l1839>:
    1eb4:	e3a06027 	mov	r6, #39	; 0x27

00001eb8 <l1840>:
    1eb8:	775d7006 	ldrbvc	r7, [sp, -r6]

00001ebc <l1841>:
    1ebc:	e3a0a008 	mov	sl, #8

00001ec0 <l1842>:
    1ec0:	e19d50fa 	ldrsh	r5, [sp, sl]

00001ec4 <l1843>:
    1ec4:	e93d0351 	ldmdb	sp!, {r0, r4, r6, r8, r9}

00001ec8 <l1844>:
    1ec8:	e1a00000 	nop			; (mov r0, r0)

00001ecc <l1845>:
    1ecc:	414d21b8 	strhmi	r2, [sp, #-24]	; 0xffffffe8

00001ed0 <l1846>:
    1ed0:	e3a04004 	mov	r4, #4

00001ed4 <l1847>:
    1ed4:	e18d30b4 	strh	r3, [sp, r4]

00001ed8 <l1848>:
    1ed8:	e83d19cf 	ldmda	sp!, {r0, r1, r2, r3, r6, r7, r8, fp, ip}

00001edc <l1849>:
    1edc:	e1a00000 	nop			; (mov r0, r0)

00001ee0 <l1850>:
    1ee0:	e1a00000 	nop			; (mov r0, r0)

00001ee4 <l1851>:
    1ee4:	11cd42b8 	strhne	r4, [sp, #40]	; 0x28

00001ee8 <l1852>:
    1ee8:	e1dd91b2 	ldrh	r9, [sp, #18]

00001eec <l1853>:
    1eec:	e3a0800e 	mov	r8, #14

00001ef0 <l1854>:
    1ef0:	e7dd3008 	ldrb	r3, [sp, r8]

00001ef4 <l1855>:
    1ef4:	e3a0001b 	mov	r0, #27

00001ef8 <l1856>:
    1ef8:	97cde000 	strbls	lr, [sp, r0]

00001efc <l1857>:
    1efc:	a5cd902c 	strbge	r9, [sp, #44]	; 0x2c

00001f00 <l1858>:
    1f00:	e9ade000 	stmib	sp!, {sp, lr, pc}

00001f04 <l1859>:
    1f04:	e3a03008 	mov	r3, #8

00001f08 <l1860>:
    1f08:	e7dda003 	ldrb	sl, [sp, r3]

00001f0c <l1861>:
    1f0c:	e1a00000 	nop			; (mov r0, r0)

00001f10 <l1862>:
    1f10:	e82d2000 	stmda	sp!, {sp}

00001f14 <l1863>:
    1f14:	e8bd479c 	pop	{r2, r3, r4, r7, r8, r9, sl, lr}

00001f18 <l1864>:
    1f18:	e3a0800c 	mov	r8, #12

00001f1c <l1865>:
    1f1c:	e7ad8008 	str	r8, [sp, r8]!

00001f20 <l1866>:
    1f20:	254d400d 	strbcs	r4, [sp, #-13]

00001f24 <l1867>:
    1f24:	e3a0000c 	mov	r0, #12

00001f28 <l1868>:
    1f28:	e72d9000 	str	r9, [sp, -r0]!

00001f2c <l1869>:
    1f2c:	354db019 	strbcc	fp, [sp, #-25]

00001f30 <l1870>:
    1f30:	11cd51b4 	strhne	r5, [sp, #20]

00001f34 <l1871>:
    1f34:	e83d1128 	ldmda	sp!, {r3, r5, r8, ip}

00001f38 <l1872>:
    1f38:	b1cd92b4 	strhlt	r9, [sp, #36]	; 0x24

00001f3c <l1873>:
    1f3c:	e15d70ba 	ldrh	r7, [sp, #-10]

00001f40 <l1874>:
    1f40:	e3a02006 	mov	r2, #6

00001f44 <l1875>:
    1f44:	411db0b2 	ldrhmi	fp, [sp, -r2]

00001f48 <l1876>:
    1f48:	e48d7024 	str	r7, [sp], #36	; 0x24

00001f4c <l1877>:
    1f4c:	e3a06006 	mov	r6, #6

00001f50 <l1878>:
    1f50:	d19d60b6 	ldrhle	r6, [sp, r6]

00001f54 <l1879>:
    1f54:	e3a0a000 	mov	sl, #0

00001f58 <l1880>:
    1f58:	e7adc00a 	str	ip, [sp, sl]!

00001f5c <l1881>:
    1f5c:	e15d51fc 	ldrsh	r5, [sp, #-28]	; 0xffffffe4

00001f60 <l1882>:
    1f60:	655db041 	ldrbvs	fp, [sp, #-65]	; 0x41

00001f64 <l1883>:
    1f64:	e54dc03b 	strb	ip, [sp, #-59]	; 0x3b

00001f68 <l1884>:
    1f68:	e3a0301d 	mov	r3, #29

00001f6c <l1885>:
    1f6c:	d11d70d3 	ldrsble	r7, [sp, -r3]

00001f70 <l1886>:
    1f70:	e3a09020 	mov	r9, #32

00001f74 <l1887>:
    1f74:	e60dc009 	str	ip, [sp], -r9

00001f78 <l1888>:
    1f78:	e3a04012 	mov	r4, #18

00001f7c <l1889>:
    1f7c:	819d10b4 	ldrhhi	r1, [sp, r4]

00001f80 <l1890>:
    1f80:	e3a02004 	mov	r2, #4

00001f84 <l1891>:
    1f84:	775d1002 	ldrbvc	r1, [sp, -r2]

00001f88 <l1892>:
    1f88:	e3a02008 	mov	r2, #8

00001f8c <l1893>:
    1f8c:	e61da002 	ldr	sl, [sp], -r2

00001f90 <l1894>:
    1f90:	e9ad0003 	stmib	sp!, {r0, r1}

00001f94 <l1895>:
    1f94:	e81d0a64 	ldmda	sp, {r2, r5, r6, r9, fp}

00001f98 <l1896>:
    1f98:	e3a09000 	mov	r9, #0

00001f9c <l1897>:
    1f9c:	e68d5009 	str	r5, [sp], r9

00001fa0 <l1898>:
    1fa0:	191d5709 	ldmdbne	sp, {r0, r3, r8, r9, sl, ip, lr}

00001fa4 <l1899>:
    1fa4:	c89d03bd 	ldmgt	sp, {r0, r2, r3, r4, r5, r7, r8, r9}

00001fa8 <l1900>:
    1fa8:	e3a0100e 	mov	r1, #14

00001fac <l1901>:
    1fac:	074d0001 	strbeq	r0, [sp, -r1]

00001fb0 <l1902>:
    1fb0:	e3a03018 	mov	r3, #24

00001fb4 <l1903>:
    1fb4:	b75d6003 	ldrblt	r6, [sp, -r3]

00001fb8 <l1904>:
    1fb8:	e91d0417 	ldmdb	sp, {r0, r1, r2, r4, sl}

00001fbc <l1905>:
    1fbc:	e99d0004 	ldmib	sp, {r2}

00001fc0 <l1906>:
    1fc0:	e3a0e01c 	mov	lr, #28

00001fc4 <l1907>:
    1fc4:	c7cdc00e 	strbgt	ip, [sp, lr]

00001fc8 <l1908>:
    1fc8:	e53d6004 	ldr	r6, [sp, #-4]!

00001fcc <l1909>:
    1fcc:	e82d0004 	stmda	sp!, {r2}

00001fd0 <l1910>:
    1fd0:	e8ad0521 	stmia	sp!, {r0, r5, r8, sl}

00001fd4 <l1911>:
    1fd4:	615db1b2 	ldrhvs	fp, [sp, #-18]	; 0xffffffee

00001fd8 <l1912>:
    1fd8:	e1dde1f4 	ldrsh	lr, [sp, #20]

00001fdc <l1913>:
    1fdc:	e1cd00b2 	strh	r0, [sp, #2]

00001fe0 <l1914>:
    1fe0:	e83d1ca9 	ldmda	sp!, {r0, r3, r5, r7, sl, fp, ip}

00001fe4 <l1915>:
    1fe4:	e3a04000 	mov	r4, #0

00001fe8 <l1916>:
    1fe8:	e69d5004 	ldr	r5, [sp], r4

00001fec <l1917>:
    1fec:	e3a0500c 	mov	r5, #12

00001ff0 <l1918>:
    1ff0:	110d50b5 	strhne	r5, [sp, -r5]

00001ff4 <l1919>:
    1ff4:	e1a00000 	nop			; (mov r0, r0)

00001ff8 <l1920>:
    1ff8:	e88df016 	stm	sp, {r1, r2, r4, ip, sp, lr, pc}

00001ffc <l1921>:
    1ffc:	21dd70fe 	ldrshcs	r7, [sp, #14]

00002000 <l1922>:
    2000:	e90d4000 	stmdb	sp, {lr}

00002004 <l1923>:
    2004:	e3a04024 	mov	r4, #36	; 0x24

00002008 <l1924>:
    2008:	e18db0b4 	strh	fp, [sp, r4]

0000200c <l1925>:
    200c:	e9ad2000 	stmib	sp!, {sp}

00002010 <l1926>:
    2010:	e3a00000 	mov	r0, #0

00002014 <l1927>:
    2014:	27cd7000 	strbcs	r7, [sp, r0]

00002018 <l1928>:
    2018:	e3a02014 	mov	r2, #20

0000201c <l1929>:
    201c:	e71da002 	ldr	sl, [sp, -r2]

00002020 <l1930>:
    2020:	75dd801d 	ldrbvc	r8, [sp, #29]

00002024 <l1931>:
    2024:	e3a0e007 	mov	lr, #7

00002028 <l1932>:
    2028:	e75d200e 	ldrb	r2, [sp, -lr]

0000202c <l1933>:
    202c:	415d71d3 	ldrsbmi	r7, [sp, #-19]	; 0xffffffed

00002030 <l1934>:
    2030:	e5dd7036 	ldrb	r7, [sp, #54]	; 0x36

00002034 <l1935>:
    2034:	e3a07010 	mov	r7, #16

00002038 <l1936>:
    2038:	e11d90b7 	ldrh	r9, [sp, -r7]

0000203c <l1937>:
    203c:	e1a00000 	nop			; (mov r0, r0)

00002040 <l1938>:
    2040:	e3a08009 	mov	r8, #9

00002044 <l1939>:
    2044:	e19d60d8 	ldrsb	r6, [sp, r8]

00002048 <l1940>:
    2048:	b89d46dd 	ldmlt	sp, {r0, r2, r3, r4, r6, r7, r9, sl, lr}

0000204c <l1941>:
    204c:	e3a08008 	mov	r8, #8

00002050 <l1942>:
    2050:	e10d40b8 	strh	r4, [sp, -r8]

00002054 <l1943>:
    2054:	e5ade034 	str	lr, [sp, #52]!	; 0x34

00002058 <l1944>:
    2058:	e54d2045 	strb	r2, [sp, #-69]	; 0x45

0000205c <l1945>:
    205c:	e54d602c 	strb	r6, [sp, #-44]	; 0x2c

00002060 <l1946>:
    2060:	e3a04029 	mov	r4, #41	; 0x29

00002064 <l1947>:
    2064:	e11d90d4 	ldrsb	r9, [sp, -r4]

00002068 <l1948>:
    2068:	b54d7030 	strblt	r7, [sp, #-48]	; 0x30

0000206c <l1949>:
    206c:	e55d6010 	ldrb	r6, [sp, #-16]

00002070 <l1950>:
    2070:	e3a0802c 	mov	r8, #44	; 0x2c

00002074 <l1951>:
    2074:	e70d1008 	str	r1, [sp, -r8]

00002078 <l1952>:
    2078:	e3a0201e 	mov	r2, #30

0000207c <l1953>:
    207c:	011d80d2 	ldrsbeq	r8, [sp, -r2]

00002080 <l1954>:
    2080:	e3a04023 	mov	r4, #35	; 0x23

00002084 <l1955>:
    2084:	e74d3004 	strb	r3, [sp, -r4]

00002088 <l1956>:
    2088:	e53d2004 	ldr	r2, [sp, #-4]!

0000208c <l1957>:
    208c:	e3a0a040 	mov	sl, #64	; 0x40

00002090 <l1958>:
    2090:	e10d60ba 	strh	r6, [sp, -sl]

00002094 <l1959>:
    2094:	e3a09022 	mov	r9, #34	; 0x22

00002098 <l1960>:
    2098:	e10d20b9 	strh	r2, [sp, -r9]

0000209c <l1961>:
    209c:	e48d4000 	str	r4, [sp], #0

000020a0 <l1962>:
    20a0:	e90d8677 	stmdb	sp, {r0, r1, r2, r4, r5, r6, r9, sl, pc}

000020a4 <l1963>:
    20a4:	e8ad0002 	stmia	sp!, {r1}

000020a8 <l1964>:
    20a8:	e1a00000 	nop			; (mov r0, r0)

000020ac <l1965>:
    20ac:	e92d0210 	push	{r4, r9}

000020b0 <l1966>:
    20b0:	e3a0602e 	mov	r6, #46	; 0x2e

000020b4 <l1967>:
    20b4:	e11d70b6 	ldrh	r7, [sp, -r6]

000020b8 <l1968>:
    20b8:	e8bd0108 	pop	{r3, r8}

000020bc <l1969>:
    20bc:	814d22b8 	strhhi	r2, [sp, #-40]	; 0xffffffd8

000020c0 <l1970>:
    20c0:	e3a0403a 	mov	r4, #58	; 0x3a

000020c4 <l1971>:
    20c4:	a10d40b4 	strhge	r4, [sp, -r4]

000020c8 <l1972>:
    20c8:	015d23fe 	ldrsheq	r2, [sp, #-62]	; 0xffffffc2

000020cc <l1973>:
    20cc:	e1a00000 	nop			; (mov r0, r0)

000020d0 <l1974>:
    20d0:	e3a0c044 	mov	ip, #68	; 0x44

000020d4 <l1975>:
    20d4:	211d10fc 	ldrshcs	r1, [sp, -ip]

000020d8 <l1976>:
    20d8:	e1a00000 	nop			; (mov r0, r0)

000020dc <l1977>:
    20dc:	e3a03038 	mov	r3, #56	; 0x38

000020e0 <l1978>:
    20e0:	e11d00f3 	ldrsh	r0, [sp, -r3]

000020e4 <l1979>:
    20e4:	e1a00000 	nop			; (mov r0, r0)

000020e8 <l1980>:
    20e8:	e3a0b00c 	mov	fp, #12

000020ec <l1981>:
    20ec:	b70db00b 	strlt	fp, [sp, -fp]

000020f0 <l1982>:
    20f0:	e82d9845 	stmda	sp!, {r0, r2, r6, fp, ip, pc}

000020f4 <l1983>:
    20f4:	e92d2000 	stmfd	sp!, {sp}

000020f8 <l1984>:
    20f8:	e1a00000 	nop			; (mov r0, r0)

000020fc <l1985>:
    20fc:	e93d0b6e 	ldmdb	sp!, {r1, r2, r3, r5, r6, r8, r9, fp}

00002100 <l1986>:
    2100:	d58d3010 	strle	r3, [sp, #16]

00002104 <l1987>:
    2104:	991d4000 	ldmdbls	sp, {lr}

00002108 <l1988>:
    2108:	61dd41d0 	ldrsbvs	r4, [sp, #16]

0000210c <l1989>:
    210c:	11cd21b6 	strhne	r2, [sp, #22]

00002110 <l1990>:
    2110:	e3a04030 	mov	r4, #48	; 0x30

00002114 <l1991>:
    2114:	419dc0b4 	ldrhmi	ip, [sp, r4]

00002118 <l1992>:
    2118:	e3a04030 	mov	r4, #48	; 0x30

0000211c <l1993>:
    211c:	e19d50f4 	ldrsh	r5, [sp, r4]

00002120 <l1994>:
    2120:	e3a02004 	mov	r2, #4

00002124 <l1995>:
    2124:	e78d2002 	str	r2, [sp, r2]

00002128 <l1996>:
    2128:	11dd71b0 	ldrhne	r7, [sp, #16]

0000212c <l1997>:
    212c:	e8adcf7e 	stmia	sp!, {r1, r2, r3, r4, r5, r6, r8, r9, sl, fp, lr, pc}

00002130 <l1998>:
    2130:	e1a00000 	nop			; (mov r0, r0)

00002134 <l1999>:
    2134:	e80d7f7b 	stmda	sp, {r0, r1, r3, r4, r5, r6, r8, r9, sl, fp, ip, sp, lr}

00002138 <l2000>:
    2138:	e3a06014 	mov	r6, #20

0000213c <l2001>:
    213c:	e10d50b6 	strh	r5, [sp, -r6]

00002140 <l2002>:
    2140:	e1a00000 	nop			; (mov r0, r0)

00002144 <l2003>:
    2144:	e1dd30b0 	ldrh	r3, [sp]

00002148 <l2004>:
    2148:	315dc0b8 	ldrhcc	ip, [sp, #-8]

0000214c <l2005>:
    214c:	e8bd0108 	pop	{r3, r8}

00002150 <l2006>:
    2150:	315dc3bc 	ldrhcc	ip, [sp, #-60]	; 0xffffffc4

00002154 <l2007>:
    2154:	e3a0b02a 	mov	fp, #42	; 0x2a

00002158 <l2008>:
    2158:	411d50bb 	ldrhmi	r5, [sp, -fp]

0000215c <l2009>:
    215c:	988d4000 	stmls	sp, {lr}

00002160 <l2010>:
    2160:	751d202c 	ldrvc	r2, [sp, #-44]	; 0x2c

00002164 <l2011>:
    2164:	815d60b2 	ldrhhi	r6, [sp, #-2]

00002168 <l2012>:
    2168:	e3a09009 	mov	r9, #9

0000216c <l2013>:
    216c:	a75d1009 	ldrbge	r1, [sp, -r9]

00002170 <l2014>:
    2170:	e15d31db 	ldrsb	r3, [sp, #-27]	; 0xffffffe5

00002174 <l2015>:
    2174:	e3a0e004 	mov	lr, #4

00002178 <l2016>:
    2178:	77dd700e 	ldrbvc	r7, [sp, lr]

0000217c <l2017>:
    217c:	a51d9038 	ldrge	r9, [sp, #-56]	; 0x38

00002180 <l2018>:
    2180:	e3a03008 	mov	r3, #8

00002184 <l2019>:
    2184:	111d40b3 	ldrhne	r4, [sp, -r3]

00002188 <l2020>:
    2188:	e1a00000 	nop			; (mov r0, r0)

0000218c <l2021>:
    218c:	814d02b8 	strhhi	r0, [sp, #-40]	; 0xffffffd8

00002190 <l2022>:
    2190:	e40d9034 	str	r9, [sp], #-52	; 0x34

00002194 <l2023>:
    2194:	e3a0700c 	mov	r7, #12

00002198 <l2024>:
    2198:	319d60d7 	ldrsbcc	r6, [sp, r7]

0000219c <l2025>:
    219c:	e81d00c0 	ldmda	sp, {r6, r7}

000021a0 <l2026>:
    21a0:	e3a02025 	mov	r2, #37	; 0x25

000021a4 <l2027>:
    21a4:	e7cd6002 	strb	r6, [sp, r2]

000021a8 <l2028>:
    21a8:	e5bd9000 	ldr	r9, [sp, #0]!

000021ac <l2029>:
    21ac:	e9bd593e 	ldmib	sp!, {r1, r2, r3, r4, r5, r8, fp, ip, lr}

000021b0 <l2030>:
    21b0:	e3a00007 	mov	r0, #7

000021b4 <l2031>:
    21b4:	e7cdc000 	strb	ip, [sp, r0]

000021b8 <l2032>:
    21b8:	e41db018 	ldr	fp, [sp], #-24

000021bc <l2033>:
    21bc:	e8ad1518 	stmia	sp!, {r3, r4, r8, sl, ip}

000021c0 <l2034>:
    21c0:	e9bd0001 	ldmib	sp!, {r0}

000021c4 <l2035>:
    21c4:	e9bd0001 	ldmib	sp!, {r0}

000021c8 <l2036>:
    21c8:	e98d1001 	stmib	sp, {r0, ip}

000021cc <l2037>:
    21cc:	e3a0e028 	mov	lr, #40	; 0x28

000021d0 <l2038>:
    21d0:	e73d300e 	ldr	r3, [sp, -lr]!

000021d4 <l2039>:
    21d4:	e98d7e8c 	stmib	sp, {r2, r3, r7, r9, sl, fp, ip, sp, lr}

000021d8 <l2040>:
    21d8:	e1ddb2f0 	ldrsh	fp, [sp, #32]

000021dc <l2041>:
    21dc:	e3a03010 	mov	r3, #16

000021e0 <l2042>:
    21e0:	e7bd2003 	ldr	r2, [sp, r3]!

000021e4 <l2043>:
    21e4:	e3a07010 	mov	r7, #16

000021e8 <l2044>:
    21e8:	919d10f7 	ldrshls	r1, [sp, r7]

000021ec <l2045>:
    21ec:	e52dc020 	str	ip, [sp, #-32]!

000021f0 <l2046>:
    21f0:	e3a0e036 	mov	lr, #54	; 0x36

000021f4 <l2047>:
    21f4:	519d30de 	ldrsbpl	r3, [sp, lr]

000021f8 <l2048>:
    21f8:	e3a0e03f 	mov	lr, #63	; 0x3f

000021fc <l2049>:
    21fc:	819d40de 	ldrsbhi	r4, [sp, lr]

00002200 <l2050>:
    2200:	e3a03034 	mov	r3, #52	; 0x34

00002204 <l2051>:
    2204:	e7ad5003 	str	r5, [sp, r3]!

00002208 <l2052>:
    2208:	e3a0501c 	mov	r5, #28

0000220c <l2053>:
    220c:	e10d60b5 	strh	r6, [sp, -r5]

00002210 <l2054>:
    2210:	e80d342c 	stmda	sp, {r2, r3, r5, sl, ip, sp}

00002214 <l2055>:
    2214:	e5bd900c 	ldr	r9, [sp, #12]!

00002218 <l2056>:
    2218:	e93d57f9 	ldmdb	sp!, {r0, r3, r4, r5, r6, r7, r8, r9, sl, ip, lr}

0000221c <l2057>:
    221c:	e9bd4949 	ldmib	sp!, {r0, r3, r6, r8, fp, lr}

00002220 <l2058>:
    2220:	e98db000 	stmib	sp, {ip, sp, pc}

00002224 <l2059>:
    2224:	e82de000 	stmda	sp!, {sp, lr, pc}

00002228 <l2060>:
    2228:	615d01dc 	ldrsbvs	r0, [sp, #-28]	; 0xffffffe4

0000222c <l2061>:
    222c:	e98d3363 	stmib	sp, {r0, r1, r5, r6, r8, r9, ip, sp}

00002230 <l2062>:
    2230:	e82d8d44 	stmda	sp!, {r2, r6, r8, sl, fp, pc}

00002234 <l2063>:
    2234:	e3a0701e 	mov	r7, #30

00002238 <l2064>:
    2238:	019d30d7 	ldrsbeq	r3, [sp, r7]

0000223c <l2065>:
    223c:	e1a00000 	nop			; (mov r0, r0)

00002240 <l2066>:
    2240:	e1a00000 	nop			; (mov r0, r0)

00002244 <l2067>:
    2244:	e1a00000 	nop			; (mov r0, r0)

00002248 <l2068>:
    2248:	388dbfdf 	stmcc	sp, {r0, r1, r2, r3, r4, r6, r7, r8, r9, sl, fp, ip, sp, pc}

0000224c <l2069>:
    224c:	81dd81fc 	ldrshhi	r8, [sp, #28]

00002250 <l2070>:
    2250:	758d9000 	strvc	r9, [sp]

00002254 <l2071>:
    2254:	e3a0b001 	mov	fp, #1

00002258 <l2072>:
    2258:	e7dd700b 	ldrb	r7, [sp, fp]

0000225c <l2073>:
    225c:	e98d423f 	stmib	sp, {r0, r1, r2, r3, r4, r5, r9, lr}

00002260 <l2074>:
    2260:	e3a06006 	mov	r6, #6

00002264 <l2075>:
    2264:	219dc0b6 	ldrhcs	ip, [sp, r6]

00002268 <l2076>:
    2268:	e5dd6020 	ldrb	r6, [sp, #32]

0000226c <l2077>:
    226c:	e1a00000 	nop			; (mov r0, r0)

00002270 <l2078>:
    2270:	e1dd10be 	ldrh	r1, [sp, #14]

00002274 <l2079>:
    2274:	e3a0502c 	mov	r5, #44	; 0x2c

00002278 <l2080>:
    2278:	e18d90b5 	strh	r9, [sp, r5]

0000227c <l2081>:
    227c:	e3a00020 	mov	r0, #32

00002280 <l2082>:
    2280:	e7cda000 	strb	sl, [sp, r0]

00002284 <l2083>:
    2284:	e1a00000 	nop			; (mov r0, r0)

00002288 <l2084>:
    2288:	01dde3b6 	ldrheq	lr, [sp, #54]	; 0x36

0000228c <l2085>:
    228c:	e3a08029 	mov	r8, #41	; 0x29

00002290 <l2086>:
    2290:	419d10d8 	ldrsbmi	r1, [sp, r8]

00002294 <l2087>:
    2294:	e48da034 	str	sl, [sp], #52	; 0x34

00002298 <l2088>:
    2298:	e3a03005 	mov	r3, #5

0000229c <l2089>:
    229c:	57cde003 	strbpl	lr, [sp, r3]

000022a0 <l2090>:
    22a0:	e80d000f 	stmda	sp, {r0, r1, r2, r3}

000022a4 <l2091>:
    22a4:	e3a0101e 	mov	r1, #30

000022a8 <l2092>:
    22a8:	b74d6001 	strblt	r6, [sp, -r1]

000022ac <l2093>:
    22ac:	e3a04034 	mov	r4, #52	; 0x34

000022b0 <l2094>:
    22b0:	e73d9004 	ldr	r9, [sp, -r4]!

000022b4 <l2095>:
    22b4:	e1a00000 	nop			; (mov r0, r0)

000022b8 <l2096>:
    22b8:	e5cd2030 	strb	r2, [sp, #48]	; 0x30

000022bc <l2097>:
    22bc:	e1dd90f2 	ldrsh	r9, [sp, #2]

000022c0 <l2098>:
    22c0:	e1a00000 	nop			; (mov r0, r0)

000022c4 <l2099>:
    22c4:	71ddb1b2 	ldrhvc	fp, [sp, #18]

000022c8 <l2100>:
    22c8:	e59d4034 	ldr	r4, [sp, #52]	; 0x34

000022cc <l2101>:
    22cc:	e8bd1106 	pop	{r1, r2, r8, ip}

000022d0 <l2102>:
    22d0:	e93d0400 	ldmdb	sp!, {sl}

000022d4 <l2103>:
    22d4:	555d2006 	ldrbpl	r2, [sp, #-6]

000022d8 <l2104>:
    22d8:	e58da004 	str	sl, [sp, #4]

000022dc <l2105>:
    22dc:	e3a0202c 	mov	r2, #44	; 0x2c

000022e0 <l2106>:
    22e0:	e68d7002 	str	r7, [sp], r2

000022e4 <l2107>:
    22e4:	e3a01024 	mov	r1, #36	; 0x24

000022e8 <l2108>:
    22e8:	e73d3001 	ldr	r3, [sp, -r1]!

000022ec <l2109>:
    22ec:	e3a09006 	mov	r9, #6

000022f0 <l2110>:
    22f0:	e10dc0b9 	strh	ip, [sp, -r9]

000022f4 <l2111>:
    22f4:	e9bd1d3d 	ldmib	sp!, {r0, r2, r3, r4, r5, r8, sl, fp, ip}

000022f8 <l2112>:
    22f8:	e82de000 	stmda	sp!, {sp, lr, pc}

000022fc <l2113>:
    22fc:	e9ad2000 	stmib	sp!, {sp}

00002300 <l2114>:
    2300:	e3a0a022 	mov	sl, #34	; 0x22

00002304 <l2115>:
    2304:	811d80fa 	ldrshhi	r8, [sp, -sl]

00002308 <l2116>:
    2308:	e3a04004 	mov	r4, #4

0000230c <l2117>:
    230c:	e7bda004 	ldr	sl, [sp, r4]!

00002310 <l2118>:
    2310:	e82d509a 	stmda	sp!, {r1, r3, r4, r7, ip, lr}

00002314 <l2119>:
    2314:	e3a0600b 	mov	r6, #11

00002318 <l2120>:
    2318:	e19d90d6 	ldrsb	r9, [sp, r6]

0000231c <l2121>:
    231c:	e3a0a010 	mov	sl, #16

00002320 <l2122>:
    2320:	e11d90da 	ldrsb	r9, [sp, -sl]

00002324 <l2123>:
    2324:	e3a0c008 	mov	ip, #8

00002328 <l2124>:
    2328:	774d400c 	strbvc	r4, [sp, -ip]

0000232c <l2125>:
    232c:	e3a08014 	mov	r8, #20

00002330 <l2126>:
    2330:	678d6008 	strvs	r6, [sp, r8]

00002334 <l2127>:
    2334:	e3a02002 	mov	r2, #2

00002338 <l2128>:
    2338:	911d70d2 	ldrsbls	r7, [sp, -r2]

0000233c <l2129>:
    233c:	c91d0801 	ldmdbgt	sp, {r0, fp}

00002340 <l2130>:
    2340:	e3a09022 	mov	r9, #34	; 0x22

00002344 <l2131>:
    2344:	d10d60b9 	strhle	r6, [sp, -r9]

00002348 <l2132>:
    2348:	e3a0100c 	mov	r1, #12

0000234c <l2133>:
    234c:	e60d8001 	str	r8, [sp], -r1

00002350 <l2134>:
    2350:	e3a04012 	mov	r4, #18

00002354 <l2135>:
    2354:	e18d30b4 	strh	r3, [sp, r4]

00002358 <l2136>:
    2358:	e1dd10f6 	ldrsh	r1, [sp, #6]

0000235c <l2137>:
    235c:	e3a06010 	mov	r6, #16

00002360 <l2138>:
    2360:	674d2006 	strbvs	r2, [sp, -r6]

00002364 <l2139>:
    2364:	e15d10fc 	ldrsh	r1, [sp, #-12]

00002368 <l2140>:
    2368:	e3a01012 	mov	r1, #18

0000236c <l2141>:
    236c:	e11d80f1 	ldrsh	r8, [sp, -r1]

00002370 <l2142>:
    2370:	255d4007 	ldrbcs	r4, [sp, #-7]

00002374 <l2143>:
    2374:	a59d4028 	ldrge	r4, [sp, #40]	; 0x28

00002378 <l2144>:
    2378:	b51d6014 	ldrlt	r6, [sp, #-20]

0000237c <l2145>:
    237c:	81dd80ba 	ldrhhi	r8, [sp, #10]

00002380 <l2146>:
    2380:	e3a0b032 	mov	fp, #50	; 0x32

00002384 <l2147>:
    2384:	e7cdc00b 	strb	ip, [sp, fp]

00002388 <l2148>:
    2388:	31dd10f6 	ldrshcc	r1, [sp, #6]

0000238c <l2149>:
    238c:	d1dd81f4 	ldrshle	r8, [sp, #20]

00002390 <l2150>:
    2390:	e3a0b008 	mov	fp, #8

00002394 <l2151>:
    2394:	e7bd500b 	ldr	r5, [sp, fp]!

00002398 <l2152>:
    2398:	e54dc011 	strb	ip, [sp, #-17]

0000239c <l2153>:
    239c:	454d3020 	strbmi	r3, [sp, #-32]

000023a0 <l2154>:
    23a0:	e3a0a00e 	mov	sl, #14

000023a4 <l2155>:
    23a4:	e11d60ba 	ldrh	r6, [sp, -sl]

000023a8 <l2156>:
    23a8:	e9bd051d 	ldmib	sp!, {r0, r2, r3, r4, r8, sl}

000023ac <l2157>:
    23ac:	e3a03038 	mov	r3, #56	; 0x38

000023b0 <l2158>:
    23b0:	e11d20b3 	ldrh	r2, [sp, -r3]

000023b4 <l2159>:
    23b4:	e93d16fb 	ldmdb	sp!, {r0, r1, r3, r4, r5, r6, r7, r9, sl, ip}

000023b8 <l2160>:
    23b8:	61dd22f4 	ldrshvs	r2, [sp, #36]	; 0x24

000023bc <l2161>:
    23bc:	e1a00000 	nop			; (mov r0, r0)

000023c0 <l2162>:
    23c0:	a58de024 	strge	lr, [sp, #36]	; 0x24

000023c4 <l2163>:
    23c4:	e3a0c00e 	mov	ip, #14

000023c8 <l2164>:
    23c8:	87dd100c 	ldrbhi	r1, [sp, ip]

000023cc <l2165>:
    23cc:	e3a06020 	mov	r6, #32

000023d0 <l2166>:
    23d0:	e68d4006 	str	r4, [sp], r6

000023d4 <l2167>:
    23d4:	e54d0021 	strb	r0, [sp, #-33]	; 0x21

000023d8 <l2168>:
    23d8:	e83d13ab 	ldmda	sp!, {r0, r1, r3, r5, r7, r8, r9, ip}

000023dc <l2169>:
    23dc:	e8ad0080 	stmia	sp!, {r7}

000023e0 <l2170>:
    23e0:	e1a00000 	nop			; (mov r0, r0)

000023e4 <l2171>:
    23e4:	e3a02037 	mov	r2, #55	; 0x37

000023e8 <l2172>:
    23e8:	e7dd8002 	ldrb	r8, [sp, r2]

000023ec <l2173>:
    23ec:	e83d4005 	ldmda	sp!, {r0, r2, lr}

000023f0 <l2174>:
    23f0:	559d9038 	ldrpl	r9, [sp, #56]	; 0x38

000023f4 <l2175>:
    23f4:	e3a0a010 	mov	sl, #16

000023f8 <l2176>:
    23f8:	e7ad400a 	str	r4, [sp, sl]!

000023fc <l2177>:
    23fc:	e3a08004 	mov	r8, #4

00002400 <l2178>:
    2400:	018d20b8 	strheq	r2, [sp, r8]

00002404 <l2179>:
    2404:	488d8bb0 	stmmi	sp, {r4, r5, r7, r8, r9, fp, pc}

00002408 <l2180>:
    2408:	e3a02022 	mov	r2, #34	; 0x22

0000240c <l2181>:
    240c:	e19d30d2 	ldrsb	r3, [sp, r2]

00002410 <l2182>:
    2410:	e8bd4efb 	pop	{r0, r1, r3, r4, r5, r6, r7, r9, sl, fp, lr}

00002414 <l2183>:
    2414:	e3a06017 	mov	r6, #23

00002418 <l2184>:
    2418:	e74d5006 	strb	r5, [sp, -r6]

0000241c <l2185>:
    241c:	e3a09001 	mov	r9, #1

00002420 <l2186>:
    2420:	e11d20d9 	ldrsb	r2, [sp, -r9]

00002424 <l2187>:
    2424:	e82d055a 	stmda	sp!, {r1, r3, r4, r6, r8, sl}

00002428 <l2188>:
    2428:	e92d085a 	push	{r1, r3, r4, r6, fp}

0000242c <l2189>:
    242c:	e41d2004 	ldr	r2, [sp], #-4

00002430 <l2190>:
    2430:	e1a00000 	nop			; (mov r0, r0)

00002434 <l2191>:
    2434:	e14d60b8 	strh	r6, [sp, #-8]

00002438 <l2192>:
    2438:	499d415c 	ldmibmi	sp, {r2, r3, r4, r6, r8, lr}

0000243c <l2193>:
    243c:	e90d0100 	stmdb	sp, {r8}

00002440 <l2194>:
    2440:	e92d4000 	stmfd	sp!, {lr}

00002444 <l2195>:
    2444:	e3a06028 	mov	r6, #40	; 0x28

00002448 <l2196>:
    2448:	e19d30b6 	ldrh	r3, [sp, r6]

0000244c <l2197>:
    244c:	e3a09006 	mov	r9, #6

00002450 <l2198>:
    2450:	311d20f9 	ldrshcc	r2, [sp, -r9]

00002454 <l2199>:
    2454:	e3a03018 	mov	r3, #24

00002458 <l2200>:
    2458:	e19d30f3 	ldrsh	r3, [sp, r3]

0000245c <l2201>:
    245c:	e5dd6021 	ldrb	r6, [sp, #33]	; 0x21

00002460 <l2202>:
    2460:	61dd62d7 	ldrsbvs	r6, [sp, #39]	; 0x27

00002464 <l2203>:
    2464:	e9ad2000 	stmib	sp!, {sp}

00002468 <l2204>:
    2468:	e3a07010 	mov	r7, #16

0000246c <l2205>:
    246c:	811d40b7 	ldrhhi	r4, [sp, -r7]

00002470 <l2206>:
    2470:	855db00f 	ldrbhi	fp, [sp, #-15]

00002474 <l2207>:
    2474:	21dd71dc 	ldrsbcs	r7, [sp, #28]

00002478 <l2208>:
    2478:	e5adf02c 	str	pc, [sp, #44]!	; 0x2c

0000247c <l2209>:
    247c:	e8bd0060 	pop	{r5, r6}

00002480 <l2210>:
    2480:	e3a0b008 	mov	fp, #8

00002484 <l2211>:
    2484:	e72d700b 	str	r7, [sp, -fp]!

00002488 <l2212>:
    2488:	e3a02014 	mov	r2, #20

0000248c <l2213>:
    248c:	e73d3002 	ldr	r3, [sp, -r2]!

00002490 <l2214>:
    2490:	61ddb1f8 	ldrshvs	fp, [sp, #24]

00002494 <l2215>:
    2494:	e3a0402a 	mov	r4, #42	; 0x2a

00002498 <l2216>:
    2498:	011d40f4 	ldrsheq	r4, [sp, -r4]

0000249c <l2217>:
    249c:	215de1b0 	ldrhcs	lr, [sp, #-16]

000024a0 <l2218>:
    24a0:	e3a09008 	mov	r9, #8

000024a4 <l2219>:
    24a4:	e68d9009 	str	r9, [sp], r9

000024a8 <l2220>:
    24a8:	715d01fe 	ldrshvc	r0, [sp, #-30]	; 0xffffffe2

000024ac <l2221>:
    24ac:	050d2010 	streq	r2, [sp, #-16]

000024b0 <l2222>:
    24b0:	e3a0500f 	mov	r5, #15

000024b4 <l2223>:
    24b4:	319de0d5 	ldrsbcc	lr, [sp, r5]

000024b8 <l2224>:
    24b8:	e1a00000 	nop			; (mov r0, r0)

000024bc <l2225>:
    24bc:	e3a0c01e 	mov	ip, #30

000024c0 <l2226>:
    24c0:	e10d60bc 	strh	r6, [sp, -ip]

000024c4 <l2227>:
    24c4:	e48db000 	str	fp, [sp], #0

000024c8 <l2228>:
    24c8:	154db02b 	strbne	fp, [sp, #-43]	; 0x2b

000024cc <l2229>:
    24cc:	e3a0c010 	mov	ip, #16

000024d0 <l2230>:
    24d0:	919db0fc 	ldrshls	fp, [sp, ip]

000024d4 <l2231>:
    24d4:	e3a07012 	mov	r7, #18

000024d8 <l2232>:
    24d8:	b11d90d7 	ldrsblt	r9, [sp, -r7]

000024dc <l2233>:
    24dc:	e3a0b008 	mov	fp, #8

000024e0 <l2234>:
    24e0:	e10d10bb 	strh	r1, [sp, -fp]

000024e4 <l2235>:
    24e4:	e3a0601b 	mov	r6, #27

000024e8 <l2236>:
    24e8:	b75d6006 	ldrblt	r6, [sp, -r6]

000024ec <l2237>:
    24ec:	380d80c8 	stmdacc	sp, {r3, r6, r7, pc}

000024f0 <l2238>:
    24f0:	e15d21ba 	ldrh	r2, [sp, #-26]	; 0xffffffe6

000024f4 <l2239>:
    24f4:	e5ad700c 	str	r7, [sp, #12]!

000024f8 <l2240>:
    24f8:	e3a0b004 	mov	fp, #4

000024fc <l2241>:
    24fc:	e61d700b 	ldr	r7, [sp], -fp

00002500 <l2242>:
    2500:	e1dd30f8 	ldrsh	r3, [sp, #8]

00002504 <l2243>:
    2504:	e1a00000 	nop			; (mov r0, r0)

00002508 <l2244>:
    2508:	280d0704 	stmdacs	sp, {r2, r8, r9, sl}

0000250c <l2245>:
    250c:	e53d5010 	ldr	r5, [sp, #-16]!

00002510 <l2246>:
    2510:	e5dd1016 	ldrb	r1, [sp, #22]

00002514 <l2247>:
    2514:	e9bd4630 	ldmib	sp!, {r4, r5, r9, sl, lr}

00002518 <l2248>:
    2518:	e14db2ba 	strh	fp, [sp, #-42]	; 0xffffffd6

0000251c <l2249>:
    251c:	e3a08010 	mov	r8, #16

00002520 <l2250>:
    2520:	171db008 	ldrne	fp, [sp, -r8]

00002524 <l2251>:
    2524:	e1a00000 	nop			; (mov r0, r0)

00002528 <l2252>:
    2528:	e52d201c 	str	r2, [sp, #-28]!

0000252c <l2253>:
    252c:	e52d1018 	str	r1, [sp, #-24]!

00002530 <l2254>:
    2530:	e88d59ab 	stm	sp, {r0, r1, r3, r5, r7, r8, fp, ip, lr}

00002534 <l2255>:
    2534:	e3a02000 	mov	r2, #0

00002538 <l2256>:
    2538:	418d90b2 	strhmi	r9, [sp, r2]

0000253c <l2257>:
    253c:	e1cda3b0 	strh	sl, [sp, #48]	; 0x30

00002540 <l2258>:
    2540:	e1a00000 	nop			; (mov r0, r0)

00002544 <l2259>:
    2544:	e3a09010 	mov	r9, #16

00002548 <l2260>:
    2548:	b79d6009 	ldrlt	r6, [sp, r9]

0000254c <l2261>:
    254c:	35dd503c 	ldrbcc	r5, [sp, #60]	; 0x3c

00002550 <l2262>:
    2550:	e55d7007 	ldrb	r7, [sp, #-7]

00002554 <l2263>:
    2554:	e8ada000 	stmia	sp!, {sp, pc}

00002558 <l2264>:
    2558:	e5dde022 	ldrb	lr, [sp, #34]	; 0x22

0000255c <l2265>:
    255c:	e92d8028 	push	{r3, r5, pc}

00002560 <l2266>:
    2560:	e1a00000 	nop			; (mov r0, r0)

00002564 <l2267>:
    2564:	e3a00028 	mov	r0, #40	; 0x28

00002568 <l2268>:
    2568:	e19d80b0 	ldrh	r8, [sp, r0]

0000256c <l2269>:
    256c:	c1ddb1ba 	ldrhgt	fp, [sp, #26]

00002570 <l2270>:
    2570:	21cd03b4 	strhcs	r0, [sp, #52]	; 0x34

00002574 <l2271>:
    2574:	e40d6004 	str	r6, [sp], #-4

00002578 <l2272>:
    2578:	e5bd2008 	ldr	r2, [sp, #8]!

0000257c <l2273>:
    257c:	e49d503c 	ldr	r5, [sp], #60	; 0x3c

00002580 <l2274>:
    2580:	e3a06044 	mov	r6, #68	; 0x44

00002584 <l2275>:
    2584:	671da006 	ldrvs	sl, [sp, -r6]

00002588 <l2276>:
    2588:	e15d73dc 	ldrsb	r7, [sp, #-60]	; 0xffffffc4

0000258c <l2277>:
    258c:	e1a00000 	nop			; (mov r0, r0)

00002590 <l2278>:
    2590:	e3a08032 	mov	r8, #50	; 0x32

00002594 <l2279>:
    2594:	c11db0d8 	ldrsbgt	fp, [sp, -r8]

00002598 <l2280>:
    2598:	e82de000 	stmda	sp!, {sp, lr, pc}

0000259c <l2281>:
    259c:	e90d2ce9 	stmdb	sp, {r0, r3, r5, r6, r7, sl, fp, sp}

000025a0 <l2282>:
    25a0:	e3a09026 	mov	r9, #38	; 0x26

000025a4 <l2283>:
    25a4:	411dc0b9 	ldrhmi	ip, [sp, -r9]

000025a8 <l2284>:
    25a8:	e1dd10d4 	ldrsb	r1, [sp, #4]

000025ac <l2285>:
    25ac:	a15d83d8 	ldrsbge	r8, [sp, #-56]	; 0xffffffc8

000025b0 <l2286>:
    25b0:	e15d93b6 	ldrh	r9, [sp, #-54]	; 0xffffffca

000025b4 <l2287>:
    25b4:	e93d1ffb 	ldmdb	sp!, {r0, r1, r3, r4, r5, r6, r7, r8, r9, sl, fp, ip}

000025b8 <l2288>:
    25b8:	e9bd0312 	ldmib	sp!, {r1, r4, r8, r9}

000025bc <l2289>:
    25bc:	c88da088 	stmgt	sp, {r3, r7, sp, pc}

000025c0 <l2290>:
    25c0:	915d60f6 	ldrshls	r6, [sp, #-6]

000025c4 <l2291>:
    25c4:	990d120a 	stmdbls	sp, {r1, r3, r9, ip}

000025c8 <l2292>:
    25c8:	758da018 	strvc	sl, [sp, #24]

000025cc <l2293>:
    25cc:	589d4700 	ldmpl	sp, {r8, r9, sl, lr}

000025d0 <l2294>:
    25d0:	591d04c0 	ldmdbpl	sp, {r6, r7, sl}

000025d4 <l2295>:
    25d4:	e8bd0210 	pop	{r4, r9}

000025d8 <l2296>:
    25d8:	e82d01f8 	stmda	sp!, {r3, r4, r5, r6, r7, r8}

000025dc <l2297>:
    25dc:	689d4fc5 	ldmvs	sp, {r0, r2, r6, r7, r8, r9, sl, fp, lr}

000025e0 <l2298>:
    25e0:	e3a04014 	mov	r4, #20

000025e4 <l2299>:
    25e4:	e19d70b4 	ldrh	r7, [sp, r4]

000025e8 <l2300>:
    25e8:	e51db008 	ldr	fp, [sp, #-8]

000025ec <l2301>:
    25ec:	e3a0301c 	mov	r3, #28

000025f0 <l2302>:
    25f0:	278d6003 	strcs	r6, [sp, r3]

000025f4 <l2303>:
    25f4:	e9add4fb 	stmib	sp!, {r0, r1, r3, r4, r5, r6, r7, sl, ip, lr, pc}

000025f8 <l2304>:
    25f8:	c5dd400f 	ldrbgt	r4, [sp, #15]

000025fc <l2305>:
    25fc:	e15d92f8 	ldrsh	r9, [sp, #-40]	; 0xffffffd8

00002600 <l2306>:
    2600:	e50d2008 	str	r2, [sp, #-8]

00002604 <l2307>:
    2604:	e15d42b4 	ldrh	r4, [sp, #-36]	; 0xffffffdc

00002608 <l2308>:
    2608:	e92d0def 	push	{r0, r1, r2, r3, r5, r6, r7, r8, sl, fp}

0000260c <l2309>:
    260c:	e50d9010 	str	r9, [sp, #-16]

00002610 <l2310>:
    2610:	e9ada000 	stmib	sp!, {sp, pc}

00002614 <l2311>:
    2614:	e89d11db 	ldm	sp, {r0, r1, r3, r4, r6, r7, r8, ip}

00002618 <l2312>:
    2618:	e3a0e01c 	mov	lr, #28

0000261c <l2313>:
    261c:	e18d40be 	strh	r4, [sp, lr]

00002620 <l2314>:
    2620:	190d8040 	stmdbne	sp, {r6, pc}

00002624 <l2315>:
    2624:	e82d0080 	stmda	sp!, {r7}

00002628 <l2316>:
    2628:	e1a00000 	nop			; (mov r0, r0)

0000262c <l2317>:
    262c:	e3a0a000 	mov	sl, #0

00002630 <l2318>:
    2630:	518d30ba 	strhpl	r3, [sp, sl]

00002634 <l2319>:
    2634:	e93d1102 	ldmdb	sp!, {r1, r8, ip}

00002638 <l2320>:
    2638:	e3a02004 	mov	r2, #4

0000263c <l2321>:
    263c:	a11d10f2 	ldrshge	r1, [sp, -r2]

00002640 <l2322>:
    2640:	e9bd5dff 	ldmib	sp!, {r0, r1, r2, r3, r4, r5, r6, r7, r8, sl, fp, ip, lr}

00002644 <l2323>:
    2644:	e1cdb0b8 	strh	fp, [sp, #8]

00002648 <l2324>:
    2648:	e83d0009 	ldmda	sp!, {r0, r3}

0000264c <l2325>:
    264c:	e3a09024 	mov	r9, #36	; 0x24

00002650 <l2326>:
    2650:	e72d7009 	str	r7, [sp, -r9]!

00002654 <l2327>:
    2654:	e82d0028 	stmda	sp!, {r3, r5}

00002658 <l2328>:
    2658:	e1a00000 	nop			; (mov r0, r0)

0000265c <l2329>:
    265c:	c1dde0d2 	ldrsbgt	lr, [sp, #2]

00002660 <l2330>:
    2660:	e1a00000 	nop			; (mov r0, r0)

00002664 <l2331>:
    2664:	e3a01026 	mov	r1, #38	; 0x26

00002668 <l2332>:
    2668:	e19dc0d1 	ldrsb	ip, [sp, r1]

0000266c <l2333>:
    266c:	e3a0700e 	mov	r7, #14

00002670 <l2334>:
    2670:	e18d00b7 	strh	r0, [sp, r7]

00002674 <l2335>:
    2674:	e3a0503a 	mov	r5, #58	; 0x3a

00002678 <l2336>:
    2678:	e18db0b5 	strh	fp, [sp, r5]

0000267c <l2337>:
    267c:	e1dd41f4 	ldrsh	r4, [sp, #20]

00002680 <l2338>:
    2680:	d1dd13b4 	ldrhle	r1, [sp, #52]	; 0x34

00002684 <l2339>:
    2684:	81dd22b6 	ldrhhi	r2, [sp, #38]	; 0x26

00002688 <l2340>:
    2688:	51ddb0df 	ldrsbpl	fp, [sp, #15]

0000268c <l2341>:
    268c:	e8bd1270 	pop	{r4, r5, r6, r9, ip}

00002690 <l2342>:
    2690:	e5cd9021 	strb	r9, [sp, #33]	; 0x21

00002694 <l2343>:
    2694:	e1ddb2d9 	ldrsb	fp, [sp, #41]	; 0x29

00002698 <l2344>:
    2698:	e9bd0288 	ldmib	sp!, {r3, r7, r9}

0000269c <l2345>:
    269c:	990d0101 	stmdbls	sp, {r0, r8}

000026a0 <l2346>:
    26a0:	e3a06004 	mov	r6, #4

000026a4 <l2347>:
    26a4:	d19dc0d6 	ldrsble	ip, [sp, r6]

000026a8 <l2348>:
    26a8:	e9ad8300 	stmib	sp!, {r8, r9, pc}

000026ac <l2349>:
    26ac:	01cdb1b6 	strheq	fp, [sp, #22]

000026b0 <l2350>:
    26b0:	e82d6000 	stmda	sp!, {sp, lr}

000026b4 <l2351>:
    26b4:	e3a09028 	mov	r9, #40	; 0x28

000026b8 <l2352>:
    26b8:	e73dc009 	ldr	ip, [sp, -r9]!

000026bc <l2353>:
    26bc:	e3a0e030 	mov	lr, #48	; 0x30

000026c0 <l2354>:
    26c0:	e78d300e 	str	r3, [sp, lr]

000026c4 <l2355>:
    26c4:	e3a0c010 	mov	ip, #16

000026c8 <l2356>:
    26c8:	e19d20fc 	ldrsh	r2, [sp, ip]

000026cc <l2357>:
    26cc:	e8ade000 	stmia	sp!, {sp, lr, pc}

000026d0 <l2358>:
    26d0:	e9ade000 	stmib	sp!, {sp, lr, pc}

000026d4 <l2359>:
    26d4:	d80d2640 	stmdale	sp, {r6, r9, sl, sp}

000026d8 <l2360>:
    26d8:	e53da018 	ldr	sl, [sp, #-24]!

000026dc <l2361>:
    26dc:	e3a0700c 	mov	r7, #12

000026e0 <l2362>:
    26e0:	719d10f7 	ldrshvc	r1, [sp, r7]

000026e4 <l2363>:
    26e4:	e8bd5dbf 	pop	{r0, r1, r2, r3, r4, r5, r7, r8, sl, fp, ip, lr}

000026e8 <l2364>:
    26e8:	e15d71d5 	ldrsb	r7, [sp, #-21]	; 0xffffffeb

000026ec <l2365>:
    26ec:	e3a01016 	mov	r1, #22

000026f0 <l2366>:
    26f0:	e18de0b1 	strh	lr, [sp, r1]

000026f4 <l2367>:
    26f4:	e90d1062 	stmdb	sp, {r1, r5, r6, ip}

000026f8 <l2368>:
    26f8:	215db1d4 	ldrsbcs	fp, [sp, #-20]	; 0xffffffec

000026fc <l2369>:
    26fc:	85cd3003 	strbhi	r3, [sp, #3]

00002700 <l2370>:
    2700:	e54d001c 	strb	r0, [sp, #-28]

00002704 <l2371>:
    2704:	e92d0010 	stmfd	sp!, {r4}

00002708 <l2372>:
    2708:	e3a0a014 	mov	sl, #20

0000270c <l2373>:
    270c:	e69db00a 	ldr	fp, [sp], sl

00002710 <l2374>:
    2710:	e8bd0001 	ldmfd	sp!, {r0}

00002714 <l2375>:
    2714:	e3a0b00d 	mov	fp, #13

00002718 <l2376>:
    2718:	075db00b 	ldrbeq	fp, [sp, -fp]

0000271c <l2377>:
    271c:	e1a00000 	nop			; (mov r0, r0)

00002720 <l2378>:
    2720:	e41d1004 	ldr	r1, [sp], #-4

00002724 <l2379>:
    2724:	e1a00000 	nop			; (mov r0, r0)

00002728 <l2380>:
    2728:	e1a00000 	nop			; (mov r0, r0)

0000272c <l2381>:
    272c:	e3a0a03c 	mov	sl, #60	; 0x3c

00002730 <l2382>:
    2730:	e10d80ba 	strh	r8, [sp, -sl]

00002734 <l2383>:
    2734:	e53dc014 	ldr	ip, [sp, #-20]!

00002738 <l2384>:
    2738:	e3a0401a 	mov	r4, #26

0000273c <l2385>:
    273c:	27cde004 	strbcs	lr, [sp, r4]

00002740 <l2386>:
    2740:	e1ddb0dc 	ldrsb	fp, [sp, #12]

00002744 <l2387>:
    2744:	e3a0e008 	mov	lr, #8

00002748 <l2388>:
    2748:	e7bd500e 	ldr	r5, [sp, lr]!

0000274c <l2389>:
    274c:	e3a0b009 	mov	fp, #9

00002750 <l2390>:
    2750:	a7dd100b 	ldrbge	r1, [sp, fp]

00002754 <l2391>:
    2754:	e8bd0120 	pop	{r5, r8}

00002758 <l2392>:
    2758:	d15d81f0 	ldrshle	r8, [sp, #-16]

0000275c <l2393>:
    275c:	e1cd00ba 	strh	r0, [sp, #10]

00002760 <l2394>:
    2760:	e40d8004 	str	r8, [sp], #-4

00002764 <l2395>:
    2764:	e14d20b2 	strh	r2, [sp, #-2]

00002768 <l2396>:
    2768:	e59d800c 	ldr	r8, [sp, #12]

0000276c <l2397>:
    276c:	115d93f4 	ldrshne	r9, [sp, #-52]	; 0xffffffcc

00002770 <l2398>:
    2770:	e3a0901c 	mov	r9, #28

00002774 <l2399>:
    2774:	511d40d9 	ldrsbpl	r4, [sp, -r9]

00002778 <l2400>:
    2778:	e3a0001a 	mov	r0, #26

0000277c <l2401>:
    277c:	e11d10d0 	ldrsb	r1, [sp, -r0]

00002780 <l2402>:
    2780:	e82d2000 	stmda	sp!, {sp}

00002784 <l2403>:
    2784:	215de0f6 	ldrshcs	lr, [sp, #-6]

00002788 <l2404>:
    2788:	e5cd7005 	strb	r7, [sp, #5]

0000278c <l2405>:
    278c:	e93d1ffd 	ldmdb	sp!, {r0, r2, r3, r4, r5, r6, r7, r8, r9, sl, fp, ip}

00002790 <l2406>:
    2790:	e1cd54b2 	strh	r5, [sp, #66]	; 0x42

00002794 <l2407>:
    2794:	e3a0a03a 	mov	sl, #58	; 0x3a

00002798 <l2408>:
    2798:	e19d30ba 	ldrh	r3, [sp, sl]

0000279c <l2409>:
    279c:	e1dd62da 	ldrsb	r6, [sp, #42]	; 0x2a

000027a0 <l2410>:
    27a0:	e3a06008 	mov	r6, #8

000027a4 <l2411>:
    27a4:	e10d80b6 	strh	r8, [sp, -r6]

000027a8 <l2412>:
    27a8:	e1a00000 	nop			; (mov r0, r0)

000027ac <l2413>:
    27ac:	21dd40f0 	ldrshcs	r4, [sp]

000027b0 <l2414>:
    27b0:	e1a00000 	nop			; (mov r0, r0)

000027b4 <l2415>:
    27b4:	e3a08008 	mov	r8, #8

000027b8 <l2416>:
    27b8:	875d5008 	ldrbhi	r5, [sp, -r8]

000027bc <l2417>:
    27bc:	e48de018 	str	lr, [sp], #24

000027c0 <l2418>:
    27c0:	e3a0900c 	mov	r9, #12

000027c4 <l2419>:
    27c4:	e7ad1009 	str	r1, [sp, r9]!

000027c8 <l2420>:
    27c8:	e1cd31b2 	strh	r3, [sp, #18]

000027cc <l2421>:
    27cc:	e15de2bc 	ldrh	lr, [sp, #-44]	; 0xffffffd4

000027d0 <l2422>:
    27d0:	e3a06008 	mov	r6, #8

000027d4 <l2423>:
    27d4:	e71d0006 	ldr	r0, [sp, -r6]

000027d8 <l2424>:
    27d8:	e3a09008 	mov	r9, #8

000027dc <l2425>:
    27dc:	279d7009 	ldrcs	r7, [sp, r9]

000027e0 <l2426>:
    27e0:	e14d10b8 	strh	r1, [sp, #-8]

000027e4 <l2427>:
    27e4:	e93d1866 	ldmdb	sp!, {r1, r2, r5, r6, fp, ip}

000027e8 <l2428>:
    27e8:	71cdb3b6 	strhvc	fp, [sp, #54]	; 0x36

000027ec <l2429>:
    27ec:	31cd62b8 	strhcc	r6, [sp, #40]	; 0x28

000027f0 <l2430>:
    27f0:	e1ddb2fc 	ldrsh	fp, [sp, #44]	; 0x2c

000027f4 <l2431>:
    27f4:	e3a0e028 	mov	lr, #40	; 0x28

000027f8 <l2432>:
    27f8:	319d20fe 	ldrshcc	r2, [sp, lr]

000027fc <l2433>:
    27fc:	e1dd63f2 	ldrsh	r6, [sp, #50]	; 0x32

00002800 <l2434>:
    2800:	e90d9000 	stmdb	sp, {ip, pc}

00002804 <l2435>:
    2804:	11ddb0b0 	ldrhne	fp, [sp]

00002808 <l2436>:
    2808:	e3a0a010 	mov	sl, #16

0000280c <l2437>:
    280c:	e19d00fa 	ldrsh	r0, [sp, sl]

00002810 <l2438>:
    2810:	455d000f 	ldrbmi	r0, [sp, #-15]

00002814 <l2439>:
    2814:	e1cd71b8 	strh	r7, [sp, #24]

00002818 <l2440>:
    2818:	e3a04018 	mov	r4, #24

0000281c <l2441>:
    281c:	e79d7004 	ldr	r7, [sp, r4]

00002820 <l2442>:
    2820:	e1cd21b8 	strh	r2, [sp, #24]

00002824 <l2443>:
    2824:	e58d2004 	str	r2, [sp, #4]

00002828 <l2444>:
    2828:	e3a0a021 	mov	sl, #33	; 0x21

0000282c <l2445>:
    282c:	e7dd700a 	ldrb	r7, [sp, sl]

00002830 <l2446>:
    2830:	e83d0102 	ldmda	sp!, {r1, r8}

00002834 <l2447>:
    2834:	e3a09038 	mov	r9, #56	; 0x38

00002838 <l2448>:
    2838:	919da0b9 	ldrhls	sl, [sp, r9]

0000283c <l2449>:
    283c:	380d0001 	stmdacc	sp, {r0}

00002840 <l2450>:
    2840:	415d20d7 	ldrsbmi	r2, [sp, #-7]

00002844 <l2451>:
    2844:	e8ad9480 	stmia	sp!, {r7, sl, ip, pc}

00002848 <l2452>:
    2848:	e89d4080 	ldm	sp, {r7, lr}

0000284c <l2453>:
    284c:	e3a0e02c 	mov	lr, #44	; 0x2c

00002850 <l2454>:
    2850:	218d60be 	strhcs	r6, [sp, lr]

00002854 <l2455>:
    2854:	e55d6015 	ldrb	r6, [sp, #-21]

00002858 <l2456>:
    2858:	65ddc029 	ldrbvs	ip, [sp, #41]	; 0x29

0000285c <l2457>:
    285c:	e99d0018 	ldmib	sp, {r3, r4}

00002860 <l2458>:
    2860:	e3a0c010 	mov	ip, #16

00002864 <l2459>:
    2864:	611d20fc 	ldrshvs	r2, [sp, -ip]

00002868 <l2460>:
    2868:	45dd8016 	ldrbmi	r8, [sp, #22]

0000286c <l2461>:
    286c:	e59da024 	ldr	sl, [sp, #36]	; 0x24

00002870 <l2462>:
    2870:	e3a0e006 	mov	lr, #6

00002874 <l2463>:
    2874:	911d50be 	ldrhls	r5, [sp, -lr]

00002878 <l2464>:
    2878:	e1dd21f2 	ldrsh	r2, [sp, #18]

0000287c <l2465>:
    287c:	e3a0a017 	mov	sl, #23

00002880 <l2466>:
    2880:	e7cdc00a 	strb	ip, [sp, sl]

00002884 <l2467>:
    2884:	e3a08014 	mov	r8, #20

00002888 <l2468>:
    2888:	e61d9008 	ldr	r9, [sp], -r8

0000288c <l2469>:
    288c:	e1a00000 	nop			; (mov r0, r0)

00002890 <l2470>:
    2890:	e3a0a008 	mov	sl, #8

00002894 <l2471>:
    2894:	e71d700a 	ldr	r7, [sp, -sl]

00002898 <l2472>:
    2898:	e3a0e029 	mov	lr, #41	; 0x29

0000289c <l2473>:
    289c:	e7cd400e 	strb	r4, [sp, lr]

000028a0 <l2474>:
    28a0:	e9bd1714 	ldmib	sp!, {r2, r4, r8, r9, sl, ip}

000028a4 <l2475>:
    28a4:	e15d11b8 	ldrh	r1, [sp, #-24]	; 0xffffffe8

000028a8 <l2476>:
    28a8:	e3a0a02b 	mov	sl, #43	; 0x2b

000028ac <l2477>:
    28ac:	67ddb00a 	ldrbvs	fp, [sp, sl]

000028b0 <l2478>:
    28b0:	e15d70b4 	ldrh	r7, [sp, #-4]

000028b4 <l2479>:
    28b4:	e1a00000 	nop			; (mov r0, r0)

000028b8 <l2480>:
    28b8:	e3a0c028 	mov	ip, #40	; 0x28

000028bc <l2481>:
    28bc:	e69d200c 	ldr	r2, [sp], ip

000028c0 <l2482>:
    28c0:	e80d1000 	stmda	sp, {ip}

000028c4 <l2483>:
    28c4:	e3a0002a 	mov	r0, #42	; 0x2a

000028c8 <l2484>:
    28c8:	375da000 	ldrbcc	sl, [sp, -r0]

000028cc <l2485>:
    28cc:	e41db040 	ldr	fp, [sp], #-64	; 0x40

000028d0 <l2486>:
    28d0:	689d4d43 	ldmvs	sp, {r0, r1, r6, r8, sl, fp, lr}

000028d4 <l2487>:
    28d4:	e1dd64d1 	ldrsb	r6, [sp, #65]	; 0x41

000028d8 <l2488>:
    28d8:	e3a09000 	mov	r9, #0

000028dc <l2489>:
    28dc:	b19da0f9 	ldrshlt	sl, [sp, r9]

000028e0 <l2490>:
    28e0:	91ddc2dd 	ldrsbls	ip, [sp, #45]	; 0x2d

000028e4 <l2491>:
    28e4:	e1a00000 	nop			; (mov r0, r0)

000028e8 <l2492>:
    28e8:	21cd20b2 	strhcs	r2, [sp, #2]

000028ec <l2493>:
    28ec:	e3a0502c 	mov	r5, #44	; 0x2c

000028f0 <l2494>:
    28f0:	e18da0b5 	strh	sl, [sp, r5]

000028f4 <l2495>:
    28f4:	e3a05016 	mov	r5, #22

000028f8 <l2496>:
    28f8:	118d80b5 	strhne	r8, [sp, r5]

000028fc <l2497>:
    28fc:	e3a05003 	mov	r5, #3

00002900 <l2498>:
    2900:	e11da0d5 	ldrsb	sl, [sp, -r5]

00002904 <l2499>:
    2904:	e1a00000 	nop			; (mov r0, r0)

00002908 <l2500>:
    2908:	e3a01022 	mov	r1, #34	; 0x22

0000290c <l2501>:
    290c:	919d40b1 	ldrhls	r4, [sp, r1]

00002910 <l2502>:
    2910:	e3a0e004 	mov	lr, #4

00002914 <l2503>:
    2914:	e60d200e 	str	r2, [sp], -lr

00002918 <l2504>:
    2918:	e9bd4ffb 	ldmib	sp!, {r0, r1, r3, r4, r5, r6, r7, r8, r9, sl, fp, lr}

0000291c <l2505>:
    291c:	215d02fc 	ldrshcs	r0, [sp, #-44]	; 0xffffffd4

00002920 <l2506>:
    2920:	91cd80b0 	strhls	r8, [sp]

00002924 <l2507>:
    2924:	e40db008 	str	fp, [sp], #-8

00002928 <l2508>:
    2928:	e83d1629 	ldmda	sp!, {r0, r3, r5, r9, sl, ip}

0000292c <l2509>:
    292c:	e3a02010 	mov	r2, #16

00002930 <l2510>:
    2930:	e68dc002 	str	ip, [sp], r2

00002934 <l2511>:
    2934:	51dd20db 	ldrsbpl	r2, [sp, #11]

00002938 <l2512>:
    2938:	e1dd31b8 	ldrh	r3, [sp, #24]

0000293c <l2513>:
    293c:	a54de012 	strbge	lr, [sp, #-18]

00002940 <l2514>:
    2940:	e3a04014 	mov	r4, #20

00002944 <l2515>:
    2944:	d70d0004 	strle	r0, [sp, -r4]

00002948 <l2516>:
    2948:	e3a0500c 	mov	r5, #12

0000294c <l2517>:
    294c:	419d10f5 	ldrshmi	r1, [sp, r5]

00002950 <l2518>:
    2950:	41dd61ba 	ldrhmi	r6, [sp, #26]

00002954 <l2519>:
    2954:	e3a03000 	mov	r3, #0

00002958 <l2520>:
    2958:	319da0d3 	ldrsbcc	sl, [sp, r3]

0000295c <l2521>:
    295c:	115d82d4 	ldrsbne	r8, [sp, #-36]	; 0xffffffdc

00002960 <l2522>:
    2960:	e5bdc004 	ldr	ip, [sp, #4]!

00002964 <l2523>:
    2964:	e1dd10f8 	ldrsh	r1, [sp, #8]

00002968 <l2524>:
    2968:	e8bd10c0 	pop	{r6, r7, ip}

0000296c <l2525>:
    296c:	e3a05032 	mov	r5, #50	; 0x32

00002970 <l2526>:
    2970:	e11d80f5 	ldrsh	r8, [sp, -r5]

00002974 <l2527>:
    2974:	e1a00000 	nop			; (mov r0, r0)

00002978 <l2528>:
    2978:	e1a00000 	nop			; (mov r0, r0)

0000297c <l2529>:
    297c:	e3a0a02d 	mov	sl, #45	; 0x2d

00002980 <l2530>:
    2980:	e74d400a 	strb	r4, [sp, -sl]

00002984 <l2531>:
    2984:	015d52b2 	ldrheq	r5, [sp, #-34]	; 0xffffffde

00002988 <l2532>:
    2988:	e9ad9850 	stmib	sp!, {r4, r6, fp, ip, pc}

0000298c <l2533>:
    298c:	814d81ba 	strhhi	r8, [sp, #-26]	; 0xffffffe6

00002990 <l2534>:
    2990:	e3a0400a 	mov	r4, #10

00002994 <l2535>:
    2994:	111d00f4 	ldrshne	r0, [sp, -r4]

00002998 <l2536>:
    2998:	e53d1030 	ldr	r1, [sp, #-48]!	; 0x30

0000299c <l2537>:
    299c:	e80d1400 	stmda	sp, {sl, ip}

000029a0 <l2538>:
    29a0:	e1dd40fa 	ldrsh	r4, [sp, #10]

000029a4 <l2539>:
    29a4:	e3a05009 	mov	r5, #9

000029a8 <l2540>:
    29a8:	e74da005 	strb	sl, [sp, -r5]

000029ac <l2541>:
    29ac:	e9ad0e10 	stmib	sp!, {r4, r9, sl, fp}

000029b0 <l2542>:
    29b0:	e3a0801e 	mov	r8, #30

000029b4 <l2543>:
    29b4:	e10d30b8 	strh	r3, [sp, -r8]

000029b8 <l2544>:
    29b8:	e54da020 	strb	sl, [sp, #-32]

000029bc <l2545>:
    29bc:	e93d0584 	ldmdb	sp!, {r2, r7, r8, sl}

000029c0 <l2546>:
    29c0:	71dde0b2 	ldrhvc	lr, [sp, #2]

000029c4 <l2547>:
    29c4:	e3a01008 	mov	r1, #8

000029c8 <l2548>:
    29c8:	e7bd8001 	ldr	r8, [sp, r1]!

000029cc <l2549>:
    29cc:	e3a0901d 	mov	r9, #29

000029d0 <l2550>:
    29d0:	e7ddc009 	ldrb	ip, [sp, r9]

000029d4 <l2551>:
    29d4:	e3a0c023 	mov	ip, #35	; 0x23

000029d8 <l2552>:
    29d8:	d19d30dc 	ldrsble	r3, [sp, ip]

000029dc <l2553>:
    29dc:	e3a0c010 	mov	ip, #16

000029e0 <l2554>:
    29e0:	e7adb00c 	str	fp, [sp, ip]!

000029e4 <l2555>:
    29e4:	e3a0601e 	mov	r6, #30

000029e8 <l2556>:
    29e8:	610d40b6 	strhvs	r4, [sp, -r6]

000029ec <l2557>:
    29ec:	a89d0800 	ldmge	sp, {fp}

000029f0 <l2558>:
    29f0:	e52d5008 	str	r5, [sp, #-8]!

000029f4 <l2559>:
    29f4:	e82d4401 	stmda	sp!, {r0, sl, lr}

000029f8 <l2560>:
    29f8:	e92d4920 	push	{r5, r8, fp, lr}

000029fc <l2561>:
    29fc:	e3a0a02c 	mov	sl, #44	; 0x2c

00002a00 <l2562>:
    2a00:	e7ade00a 	str	lr, [sp, sl]!

00002a04 <l2563>:
    2a04:	e14d70b6 	strh	r7, [sp, #-6]

00002a08 <l2564>:
    2a08:	a51d5034 	ldrge	r5, [sp, #-52]	; 0x34

00002a0c <l2565>:
    2a0c:	e3a05026 	mov	r5, #38	; 0x26

00002a10 <l2566>:
    2a10:	010d90b5 	strheq	r9, [sp, -r5]

00002a14 <l2567>:
    2a14:	e3a05012 	mov	r5, #18

00002a18 <l2568>:
    2a18:	e19d00d5 	ldrsb	r0, [sp, r5]

00002a1c <l2569>:
    2a1c:	e3a06019 	mov	r6, #25

00002a20 <l2570>:
    2a20:	e74d7006 	strb	r7, [sp, -r6]

00002a24 <l2571>:
    2a24:	e3a0c000 	mov	ip, #0

00002a28 <l2572>:
    2a28:	579da00c 	ldrpl	sl, [sp, ip]

00002a2c <l2573>:
    2a2c:	815d71f6 	ldrshhi	r7, [sp, #-22]	; 0xffffffea

00002a30 <l2574>:
    2a30:	555da029 	ldrbpl	sl, [sp, #-41]	; 0x29

00002a34 <l2575>:
    2a34:	e15d11fc 	ldrsh	r1, [sp, #-28]	; 0xffffffe4

00002a38 <l2576>:
    2a38:	e3a0c009 	mov	ip, #9

00002a3c <l2577>:
    2a3c:	b19d50dc 	ldrsblt	r5, [sp, ip]

00002a40 <l2578>:
    2a40:	914d32b6 	strhls	r3, [sp, #-38]	; 0xffffffda

00002a44 <l2579>:
    2a44:	c15d70b4 	ldrhgt	r7, [sp, #-4]

00002a48 <l2580>:
    2a48:	081d184c 	ldmdaeq	sp, {r2, r3, r6, fp, ip}

00002a4c <l2581>:
    2a4c:	91dd80bc 	ldrhls	r8, [sp, #12]

00002a50 <l2582>:
    2a50:	e3a0a022 	mov	sl, #34	; 0x22

00002a54 <l2583>:
    2a54:	311d80ba 	ldrhcc	r8, [sp, -sl]

00002a58 <l2584>:
    2a58:	e83d41f3 	ldmda	sp!, {r0, r1, r4, r5, r6, r7, r8, lr}

00002a5c <l2585>:
    2a5c:	e3a09008 	mov	r9, #8

00002a60 <l2586>:
    2a60:	918d60b9 	strhls	r6, [sp, r9]

00002a64 <l2587>:
    2a64:	e48da018 	str	sl, [sp], #24

00002a68 <l2588>:
    2a68:	e3a09010 	mov	r9, #16

00002a6c <l2589>:
    2a6c:	e61d1009 	ldr	r1, [sp], -r9

00002a70 <l2590>:
    2a70:	e5bd2024 	ldr	r2, [sp, #36]!	; 0x24

00002a74 <l2591>:
    2a74:	c15dc1b4 	ldrhgt	ip, [sp, #-20]	; 0xffffffec

00002a78 <l2592>:
    2a78:	051dc01c 	ldreq	ip, [sp, #-28]

00002a7c <l2593>:
    2a7c:	e3a0c038 	mov	ip, #56	; 0x38

00002a80 <l2594>:
    2a80:	c11d80fc 	ldrshgt	r8, [sp, -ip]

00002a84 <l2595>:
    2a84:	715d62d2 	ldrsbvc	r6, [sp, #-34]	; 0xffffffde

00002a88 <l2596>:
    2a88:	e1a00000 	nop			; (mov r0, r0)

00002a8c <l2597>:
    2a8c:	554db027 	strbpl	fp, [sp, #-39]	; 0x27

00002a90 <l2598>:
    2a90:	e3a0001c 	mov	r0, #28

00002a94 <l2599>:
    2a94:	e61d4000 	ldr	r4, [sp], -r0

00002a98 <l2600>:
    2a98:	e1dda0b2 	ldrh	sl, [sp, #2]

00002a9c <l2601>:
    2a9c:	e3a0600e 	mov	r6, #14

00002aa0 <l2602>:
    2aa0:	619d00f6 	ldrshvs	r0, [sp, r6]

00002aa4 <l2603>:
    2aa4:	150d2020 	strne	r2, [sp, #-32]

00002aa8 <l2604>:
    2aa8:	e3a0a00c 	mov	sl, #12

00002aac <l2605>:
    2aac:	411db0ba 	ldrhmi	fp, [sp, -sl]

00002ab0 <l2606>:
    2ab0:	e99d59ac 	ldmib	sp, {r2, r3, r5, r7, r8, fp, ip, lr}

00002ab4 <l2607>:
    2ab4:	e58d1018 	str	r1, [sp, #24]

00002ab8 <l2608>:
    2ab8:	455d1019 	ldrbmi	r1, [sp, #-25]

00002abc <l2609>:
    2abc:	e8bd1aab 	pop	{r0, r1, r3, r5, r7, r9, fp, ip}

00002ac0 <l2610>:
    2ac0:	e93d0301 	ldmdb	sp!, {r0, r8, r9}

00002ac4 <l2611>:
    2ac4:	e3a0102c 	mov	r1, #44	; 0x2c

00002ac8 <l2612>:
    2ac8:	275de001 	ldrbcs	lr, [sp, -r1]

00002acc <l2613>:
    2acc:	e54db008 	strb	fp, [sp, #-8]

00002ad0 <l2614>:
    2ad0:	e15d12d2 	ldrsb	r1, [sp, #-34]	; 0xffffffde

00002ad4 <l2615>:
    2ad4:	e14d52ba 	strh	r5, [sp, #-42]	; 0xffffffd6

00002ad8 <l2616>:
    2ad8:	e92d000c 	push	{r2, r3}

00002adc <l2617>:
    2adc:	e93d0816 	ldmdb	sp!, {r1, r2, r4, fp}

00002ae0 <l2618>:
    2ae0:	791d0428 	ldmdbvc	sp, {r3, r5, sl}

00002ae4 <l2619>:
    2ae4:	e3a0700c 	mov	r7, #12

00002ae8 <l2620>:
    2ae8:	019db0f7 	ldrsheq	fp, [sp, r7]

00002aec <l2621>:
    2aec:	e3a01010 	mov	r1, #16

00002af0 <l2622>:
    2af0:	e69d5001 	ldr	r5, [sp], r1

00002af4 <l2623>:
    2af4:	e3a0b00c 	mov	fp, #12

00002af8 <l2624>:
    2af8:	e70de00b 	str	lr, [sp, -fp]

00002afc <l2625>:
    2afc:	555da02f 	ldrbpl	sl, [sp, #-47]	; 0x2f

00002b00 <l2626>:
    2b00:	e14da1b8 	strh	sl, [sp, #-24]	; 0xffffffe8

00002b04 <l2627>:
    2b04:	e83d4fc7 	ldmda	sp!, {r0, r1, r2, r6, r7, r8, r9, sl, fp, lr}

00002b08 <l2628>:
    2b08:	a1dd41d8 	ldrsbge	r4, [sp, #24]

00002b0c <l2629>:
    2b0c:	e3a0a029 	mov	sl, #41	; 0x29

00002b10 <l2630>:
    2b10:	97dda00a 	ldrbls	sl, [sp, sl]

00002b14 <l2631>:
    2b14:	e3a0401a 	mov	r4, #26

00002b18 <l2632>:
    2b18:	b19d10b4 	ldrhlt	r1, [sp, r4]

00002b1c <l2633>:
    2b1c:	e3a07006 	mov	r7, #6

00002b20 <l2634>:
    2b20:	118d40b7 	strhne	r4, [sp, r7]

00002b24 <l2635>:
    2b24:	e8bd4df2 	pop	{r1, r4, r5, r6, r7, r8, sl, fp, lr}

00002b28 <l2636>:
    2b28:	598d0500 	stmibpl	sp, {r8, sl}

00002b2c <l2637>:
    2b2c:	581d1d1a 	ldmdapl	sp, {r1, r3, r4, r8, sl, fp, ip}

00002b30 <l2638>:
    2b30:	e8ad2000 	stmia	sp!, {sp}

00002b34 <l2639>:
    2b34:	e3a09034 	mov	r9, #52	; 0x34

00002b38 <l2640>:
    2b38:	e70de009 	str	lr, [sp, -r9]

00002b3c <l2641>:
    2b3c:	650d3030 	strvs	r3, [sp, #-48]	; 0x30

00002b40 <l2642>:
    2b40:	e9ad8202 	stmib	sp!, {r1, r9, pc}

00002b44 <l2643>:
    2b44:	099d0002 	ldmibeq	sp, {r1}

00002b48 <l2644>:
    2b48:	e3a01010 	mov	r1, #16

00002b4c <l2645>:
    2b4c:	e60de001 	str	lr, [sp], -r1

00002b50 <l2646>:
    2b50:	e3a0902f 	mov	r9, #47	; 0x2f

00002b54 <l2647>:
    2b54:	875d2009 	ldrbhi	r2, [sp, -r9]

00002b58 <l2648>:
    2b58:	e5bde00c 	ldr	lr, [sp, #12]!

00002b5c <l2649>:
    2b5c:	e3a02008 	mov	r2, #8

00002b60 <l2650>:
    2b60:	e69d7002 	ldr	r7, [sp], r2

00002b64 <l2651>:
    2b64:	e92de000 	push	{sp, lr, pc}

00002b68 <l2652>:
    2b68:	e3a05030 	mov	r5, #48	; 0x30

00002b6c <l2653>:
    2b6c:	e71d3005 	ldr	r3, [sp, -r5]

00002b70 <l2654>:
    2b70:	e8bd4200 	pop	{r9, lr}

00002b74 <l2655>:
    2b74:	699d4004 	ldmibvs	sp, {r2, lr}

00002b78 <l2656>:
    2b78:	e3a0a008 	mov	sl, #8

00002b7c <l2657>:
    2b7c:	479d900a 	ldrmi	r9, [sp, sl]

00002b80 <l2658>:
    2b80:	e9bd0080 	ldmib	sp!, {r7}

00002b84 <l2659>:
    2b84:	e1a00000 	nop			; (mov r0, r0)

00002b88 <l2660>:
    2b88:	e90d2080 	stmdb	sp, {r7, sp}

00002b8c <l2661>:
    2b8c:	e50dc014 	str	ip, [sp, #-20]

00002b90 <l2662>:
    2b90:	e3a00020 	mov	r0, #32

00002b94 <l2663>:
    2b94:	e72d3000 	str	r3, [sp, -r0]!

00002b98 <l2664>:
    2b98:	e82d4038 	stmda	sp!, {r3, r4, r5, lr}

00002b9c <l2665>:
    2b9c:	891d4600 	ldmdbhi	sp, {r9, sl, lr}

00002ba0 <l2666>:
    2ba0:	e8ad2000 	stmia	sp!, {sp}

00002ba4 <l2667>:
    2ba4:	e92d8480 	push	{r7, sl, pc}

00002ba8 <l2668>:
    2ba8:	e3a03008 	mov	r3, #8

00002bac <l2669>:
    2bac:	b11d80b3 	ldrhlt	r8, [sp, -r3]

00002bb0 <l2670>:
    2bb0:	e3a0b034 	mov	fp, #52	; 0x34

00002bb4 <l2671>:
    2bb4:	e7bde00b 	ldr	lr, [sp, fp]!

00002bb8 <l2672>:
    2bb8:	615d83f6 	ldrshvs	r8, [sp, #-54]	; 0xffffffca

00002bbc <l2673>:
    2bbc:	21dd00b0 	ldrhcs	r0, [sp]

00002bc0 <l2674>:
    2bc0:	e1a00000 	nop			; (mov r0, r0)

00002bc4 <l2675>:
    2bc4:	e3a0b014 	mov	fp, #20

00002bc8 <l2676>:
    2bc8:	e72d500b 	str	r5, [sp, -fp]!

00002bcc <l2677>:
    2bcc:	e82d6000 	stmda	sp!, {sp, lr}

00002bd0 <l2678>:
    2bd0:	e55d8021 	ldrb	r8, [sp, #-33]	; 0x21

00002bd4 <l2679>:
    2bd4:	05ddb001 	ldrbeq	fp, [sp, #1]

00002bd8 <l2680>:
    2bd8:	c1cdb2b6 	strhgt	fp, [sp, #38]	; 0x26

00002bdc <l2681>:
    2bdc:	e1a00000 	nop			; (mov r0, r0)

00002be0 <l2682>:
    2be0:	e48d301c 	str	r3, [sp], #28

00002be4 <l2683>:
    2be4:	e3a09005 	mov	r9, #5

00002be8 <l2684>:
    2be8:	011de0d9 	ldrsbeq	lr, [sp, -r9]

00002bec <l2685>:
    2bec:	e93d4bff 	ldmdb	sp!, {r0, r1, r2, r3, r4, r5, r6, r7, r8, r9, fp, lr}

00002bf0 <l2686>:
    2bf0:	e1dd12b8 	ldrh	r1, [sp, #40]	; 0x28

00002bf4 <l2687>:
    2bf4:	e3a02026 	mov	r2, #38	; 0x26

00002bf8 <l2688>:
    2bf8:	e18d70b2 	strh	r7, [sp, r2]

00002bfc <l2689>:
    2bfc:	e1dde0f8 	ldrsh	lr, [sp, #8]

00002c00 <l2690>:
    2c00:	e3a0a000 	mov	sl, #0

00002c04 <l2691>:
    2c04:	e68d300a 	str	r3, [sp], sl

00002c08 <l2692>:
    2c08:	e1cd22bc 	strh	r2, [sp, #44]	; 0x2c

00002c0c <l2693>:
    2c0c:	e93d0108 	ldmdb	sp!, {r3, r8}

00002c10 <l2694>:
    2c10:	e1a00000 	nop			; (mov r0, r0)

00002c14 <l2695>:
    2c14:	e1a00000 	nop			; (mov r0, r0)

00002c18 <l2696>:
    2c18:	e1a00000 	nop			; (mov r0, r0)

00002c1c <l2697>:
    2c1c:	e3a0201f 	mov	r2, #31

00002c20 <l2698>:
    2c20:	c7dd9002 	ldrbgt	r9, [sp, r2]

00002c24 <l2699>:
    2c24:	e3a07002 	mov	r7, #2

00002c28 <l2700>:
    2c28:	111d80f7 	ldrshne	r8, [sp, -r7]

00002c2c <l2701>:
    2c2c:	e59d301c 	ldr	r3, [sp, #28]

00002c30 <l2702>:
    2c30:	e3a00004 	mov	r0, #4

00002c34 <l2703>:
    2c34:	e11d50f0 	ldrsh	r5, [sp, -r0]

00002c38 <l2704>:
    2c38:	e8bd1022 	pop	{r1, r5, ip}

00002c3c <l2705>:
    2c3c:	e3a0400c 	mov	r4, #12

00002c40 <l2706>:
    2c40:	c11d00f4 	ldrshgt	r0, [sp, -r4]

00002c44 <l2707>:
    2c44:	e88d46fb 	stm	sp, {r0, r1, r3, r4, r5, r6, r7, r9, sl, lr}

00002c48 <l2708>:
    2c48:	e3a06030 	mov	r6, #48	; 0x30

00002c4c <l2709>:
    2c4c:	e69d9006 	ldr	r9, [sp], r6

00002c50 <l2710>:
    2c50:	e80d3248 	stmda	sp, {r3, r6, r9, ip, sp}

00002c54 <l2711>:
    2c54:	e8bd0004 	ldmfd	sp!, {r2}

00002c58 <l2712>:
    2c58:	515d23f4 	ldrshpl	r2, [sp, #-52]	; 0xffffffcc

00002c5c <l2713>:
    2c5c:	e3a06000 	mov	r6, #0

00002c60 <l2714>:
    2c60:	e7dd7006 	ldrb	r7, [sp, r6]

00002c64 <l2715>:
    2c64:	e3a04038 	mov	r4, #56	; 0x38

00002c68 <l2716>:
    2c68:	e61d0004 	ldr	r0, [sp], -r4

00002c6c <l2717>:
    2c6c:	e9ade000 	stmib	sp!, {sp, lr, pc}

00002c70 <l2718>:
    2c70:	e3a09004 	mov	r9, #4

00002c74 <l2719>:
    2c74:	b70da009 	strlt	sl, [sp, -r9]

00002c78 <l2720>:
    2c78:	e98d28a4 	stmib	sp, {r2, r5, r7, fp, sp}

00002c7c <l2721>:
    2c7c:	e83d4432 	ldmda	sp!, {r1, r4, r5, sl, lr}

00002c80 <l2722>:
    2c80:	e5cd203e 	strb	r2, [sp, #62]	; 0x3e

00002c84 <l2723>:
    2c84:	e3a0e024 	mov	lr, #36	; 0x24

00002c88 <l2724>:
    2c88:	e79d700e 	ldr	r7, [sp, lr]

00002c8c <l2725>:
    2c8c:	199d5fb9 	ldmibne	sp, {r0, r3, r4, r5, r7, r8, r9, sl, fp, ip, lr}

00002c90 <l2726>:
    2c90:	e8ad44ce 	stmia	sp!, {r1, r2, r3, r6, r7, sl, lr}

00002c94 <l2727>:
    2c94:	715d91ba 	ldrhvc	r9, [sp, #-26]	; 0xffffffe6

00002c98 <l2728>:
    2c98:	e1a00000 	nop			; (mov r0, r0)

00002c9c <l2729>:
    2c9c:	e3a03022 	mov	r3, #34	; 0x22

00002ca0 <l2730>:
    2ca0:	e11de0b3 	ldrh	lr, [sp, -r3]

00002ca4 <l2731>:
    2ca4:	859d3020 	ldrhi	r3, [sp, #32]

00002ca8 <l2732>:
    2ca8:	e8bd5f23 	pop	{r0, r1, r5, r8, r9, sl, fp, ip, lr}

00002cac <l2733>:
    2cac:	e52d802c 	str	r8, [sp, #-44]!	; 0x2c

00002cb0 <l2734>:
    2cb0:	e3a04008 	mov	r4, #8

00002cb4 <l2735>:
    2cb4:	e79d7004 	ldr	r7, [sp, r4]

00002cb8 <l2736>:
    2cb8:	61dd52f0 	ldrshvs	r5, [sp, #32]

00002cbc <l2737>:
    2cbc:	e9bd4a1c 	ldmib	sp!, {r2, r3, r4, r9, fp, lr}

00002cc0 <l2738>:
    2cc0:	e82de000 	stmda	sp!, {sp, lr, pc}

00002cc4 <l2739>:
    2cc4:	e8ad0557 	stmia	sp!, {r0, r1, r2, r4, r6, r8, sl}

00002cc8 <l2740>:
    2cc8:	e3a0100b 	mov	r1, #11

00002ccc <l2741>:
    2ccc:	774d8001 	strbvc	r8, [sp, -r1]

00002cd0 <l2742>:
    2cd0:	750de030 	strvc	lr, [sp, #-48]	; 0x30

00002cd4 <l2743>:
    2cd4:	e9ad2000 	stmib	sp!, {sp}

00002cd8 <l2744>:
    2cd8:	e82d5fff 	stmda	sp!, {r0, r1, r2, r3, r4, r5, r6, r7, r8, r9, sl, fp, ip, lr}

00002cdc <l2745>:
    2cdc:	e1a00000 	nop			; (mov r0, r0)

00002ce0 <l2746>:
    2ce0:	e9ad2000 	stmib	sp!, {sp}

00002ce4 <l2747>:
    2ce4:	e1a00000 	nop			; (mov r0, r0)

00002ce8 <l2748>:
    2ce8:	61dde1f4 	ldrshvs	lr, [sp, #20]

00002cec <l2749>:
    2cec:	e3a0a030 	mov	sl, #48	; 0x30

00002cf0 <l2750>:
    2cf0:	e68d900a 	str	r9, [sp], sl

00002cf4 <l2751>:
    2cf4:	e9bd0008 	ldmib	sp!, {r3}

00002cf8 <l2752>:
    2cf8:	e1a00000 	nop			; (mov r0, r0)

00002cfc <l2753>:
    2cfc:	e3a0802e 	mov	r8, #46	; 0x2e

00002d00 <l2754>:
    2d00:	e11d10b8 	ldrh	r1, [sp, -r8]

00002d04 <l2755>:
    2d04:	e52d9040 	str	r9, [sp, #-64]!	; 0x40

00002d08 <l2756>:
    2d08:	e1dd01f4 	ldrsh	r0, [sp, #20]

00002d0c <l2757>:
    2d0c:	e1a00000 	nop			; (mov r0, r0)

00002d10 <l2758>:
    2d10:	e3a0a004 	mov	sl, #4

00002d14 <l2759>:
    2d14:	e60d200a 	str	r2, [sp], -sl

00002d18 <l2760>:
    2d18:	589d1140 	ldmpl	sp, {r6, r8, ip}

00002d1c <l2761>:
    2d1c:	e8bd5e11 	pop	{r0, r4, r9, sl, fp, ip, lr}

00002d20 <l2762>:
    2d20:	e91d450a 	ldmdb	sp, {r1, r3, r8, sl, lr}

00002d24 <l2763>:
    2d24:	e3a0e00c 	mov	lr, #12

00002d28 <l2764>:
    2d28:	e79db00e 	ldr	fp, [sp, lr]

00002d2c <l2765>:
    2d2c:	e82d8000 	stmda	sp!, {pc}

00002d30 <l2766>:
    2d30:	e52d0004 	push	{r0}		; (str r0, [sp, #-4]!)

00002d34 <l2767>:
    2d34:	e1dd72d7 	ldrsb	r7, [sp, #39]	; 0x27

00002d38 <l2768>:
    2d38:	e3a0a008 	mov	sl, #8

00002d3c <l2769>:
    2d3c:	e7bd800a 	ldr	r8, [sp, sl]!

00002d40 <l2770>:
    2d40:	e51dc00c 	ldr	ip, [sp, #-12]

00002d44 <l2771>:
    2d44:	e91d198c 	ldmdb	sp, {r2, r3, r7, r8, fp, ip}

00002d48 <l2772>:
    2d48:	e92d4998 	push	{r3, r4, r7, r8, fp, lr}

00002d4c <l2773>:
    2d4c:	e3a0a01e 	mov	sl, #30

00002d50 <l2774>:
    2d50:	e7dd600a 	ldrb	r6, [sp, sl]

00002d54 <l2775>:
    2d54:	e89d0840 	ldm	sp, {r6, fp}

00002d58 <l2776>:
    2d58:	e1a00000 	nop			; (mov r0, r0)

00002d5c <l2777>:
    2d5c:	e49d6004 	pop	{r6}		; (ldr r6, [sp], #4)

00002d60 <l2778>:
    2d60:	e3a05008 	mov	r5, #8

00002d64 <l2779>:
    2d64:	47ddc005 	ldrbmi	ip, [sp, r5]

00002d68 <l2780>:
    2d68:	599d0a92 	ldmibpl	sp, {r1, r4, r7, r9, fp}

00002d6c <l2781>:
    2d6c:	e3a02034 	mov	r2, #52	; 0x34

00002d70 <l2782>:
    2d70:	419db0b2 	ldrhmi	fp, [sp, r2]

00002d74 <l2783>:
    2d74:	e9bd0200 	ldmib	sp!, {r9}

00002d78 <l2784>:
    2d78:	e1cd61be 	strh	r6, [sp, #30]

00002d7c <l2785>:
    2d7c:	e3a07009 	mov	r7, #9

00002d80 <l2786>:
    2d80:	975d8007 	ldrbls	r8, [sp, -r7]

00002d84 <l2787>:
    2d84:	e3a08010 	mov	r8, #16

00002d88 <l2788>:
    2d88:	819d30b8 	ldrhhi	r3, [sp, r8]

00002d8c <l2789>:
    2d8c:	e3a08024 	mov	r8, #36	; 0x24

00002d90 <l2790>:
    2d90:	e19d50f8 	ldrsh	r5, [sp, r8]

00002d94 <l2791>:
    2d94:	e3a07002 	mov	r7, #2

00002d98 <l2792>:
    2d98:	311de0b7 	ldrhcc	lr, [sp, -r7]

00002d9c <l2793>:
    2d9c:	e93d0090 	ldmdb	sp!, {r4, r7}

00002da0 <l2794>:
    2da0:	e1dd02fe 	ldrsh	r0, [sp, #46]	; 0x2e

00002da4 <l2795>:
    2da4:	e3a0e03c 	mov	lr, #60	; 0x3c

00002da8 <l2796>:
    2da8:	e68d400e 	str	r4, [sp], lr

00002dac <l2797>:
    2dac:	b54d802c 	strblt	r8, [sp, #-44]	; 0x2c

00002db0 <l2798>:
    2db0:	a88d0004 	stmge	sp, {r2}

00002db4 <l2799>:
    2db4:	e3a06038 	mov	r6, #56	; 0x38

00002db8 <l2800>:
    2db8:	c71d3006 	ldrgt	r3, [sp, -r6]

00002dbc <l2801>:
    2dbc:	e93d0020 	ldmdb	sp!, {r5}

00002dc0 <l2802>:
    2dc0:	e92de000 	push	{sp, lr, pc}

00002dc4 <l2803>:
    2dc4:	e15de2f0 	ldrsh	lr, [sp, #-32]	; 0xffffffe0

00002dc8 <l2804>:
    2dc8:	e40d6034 	str	r6, [sp], #-52	; 0x34

00002dcc <l2805>:
    2dcc:	e98d0408 	stmib	sp, {r3, sl}

00002dd0 <l2806>:
    2dd0:	e5bdc010 	ldr	ip, [sp, #16]!

00002dd4 <l2807>:
    2dd4:	e1a00000 	nop			; (mov r0, r0)

00002dd8 <l2808>:
    2dd8:	e82d2000 	stmda	sp!, {sp}

00002ddc <l2809>:
    2ddc:	e92d8000 	stmfd	sp!, {pc}

00002de0 <l2810>:
    2de0:	e3a05032 	mov	r5, #50	; 0x32

00002de4 <l2811>:
    2de4:	a7dd8005 	ldrbge	r8, [sp, r5]

00002de8 <l2812>:
    2de8:	e3a0b006 	mov	fp, #6

00002dec <l2813>:
    2dec:	275da00b 	ldrbcs	sl, [sp, -fp]

00002df0 <l2814>:
    2df0:	15ddc009 	ldrbne	ip, [sp, #9]

00002df4 <l2815>:
    2df4:	c1dd53d6 	ldrsbgt	r5, [sp, #54]	; 0x36

00002df8 <l2816>:
    2df8:	e5cd8041 	strb	r8, [sp, #65]	; 0x41

00002dfc <l2817>:
    2dfc:	e1a00000 	nop			; (mov r0, r0)

00002e00 <l2818>:
    2e00:	e53d0008 	ldr	r0, [sp, #-8]!

00002e04 <l2819>:
    2e04:	e1cd73b6 	strh	r7, [sp, #54]	; 0x36

00002e08 <l2820>:
    2e08:	c1ddc2da 	ldrsbgt	ip, [sp, #42]	; 0x2a

00002e0c <l2821>:
    2e0c:	41dd82d9 	ldrsbmi	r8, [sp, #41]	; 0x29

00002e10 <l2822>:
    2e10:	e3a0c018 	mov	ip, #24

00002e14 <l2823>:
    2e14:	e68d300c 	str	r3, [sp], ip

00002e18 <l2824>:
    2e18:	d1dd42f8 	ldrshle	r4, [sp, #40]	; 0x28

00002e1c <l2825>:
    2e1c:	e82dc100 	stmda	sp!, {r8, lr, pc}

00002e20 <l2826>:
    2e20:	e5cd5039 	strb	r5, [sp, #57]	; 0x39

00002e24 <l2827>:
    2e24:	e83d0080 	ldmda	sp!, {r7}

00002e28 <l2828>:
    2e28:	e3a03033 	mov	r3, #51	; 0x33

00002e2c <l2829>:
    2e2c:	c19d90d3 	ldrsbgt	r9, [sp, r3]

00002e30 <l2830>:
    2e30:	e1dd24d1 	ldrsb	r2, [sp, #65]	; 0x41

00002e34 <l2831>:
    2e34:	e9bd1ba3 	ldmib	sp!, {r0, r1, r5, r7, r8, r9, fp, ip}

00002e38 <l2832>:
    2e38:	e15d80b4 	ldrh	r8, [sp, #-4]

00002e3c <l2833>:
    2e3c:	e53d6004 	ldr	r6, [sp, #-4]!

00002e40 <l2834>:
    2e40:	e3a0500e 	mov	r5, #14

00002e44 <l2835>:
    2e44:	119db0b5 	ldrhne	fp, [sp, r5]

00002e48 <l2836>:
    2e48:	e93d1000 	ldmdb	sp!, {ip}

00002e4c <l2837>:
    2e4c:	e82d6000 	stmda	sp!, {sp, lr}

00002e50 <l2838>:
    2e50:	e3a00032 	mov	r0, #50	; 0x32

00002e54 <l2839>:
    2e54:	a7dd3000 	ldrbge	r3, [sp, r0]

00002e58 <l2840>:
    2e58:	191d0004 	ldmdbne	sp, {r2}

00002e5c <l2841>:
    2e5c:	e82d0081 	stmda	sp!, {r0, r7}

00002e60 <l2842>:
    2e60:	e80d0010 	stmda	sp, {r4}

00002e64 <l2843>:
    2e64:	e3a0102c 	mov	r1, #44	; 0x2c

00002e68 <l2844>:
    2e68:	619d60b1 	ldrhvs	r6, [sp, r1]

00002e6c <l2845>:
    2e6c:	e5bd1038 	ldr	r1, [sp, #56]!	; 0x38

00002e70 <l2846>:
    2e70:	e1a00000 	nop			; (mov r0, r0)

00002e74 <l2847>:
    2e74:	e3a00038 	mov	r0, #56	; 0x38

00002e78 <l2848>:
    2e78:	974d8000 	strbls	r8, [sp, -r0]

00002e7c <l2849>:
    2e7c:	e3a0c048 	mov	ip, #72	; 0x48

00002e80 <l2850>:
    2e80:	e73d900c 	ldr	r9, [sp, -ip]!

00002e84 <l2851>:
    2e84:	359de044 	ldrcc	lr, [sp, #68]	; 0x44

00002e88 <l2852>:
    2e88:	e3a07014 	mov	r7, #20

00002e8c <l2853>:
    2e8c:	e19d50b7 	ldrh	r5, [sp, r7]

00002e90 <l2854>:
    2e90:	e3a02046 	mov	r2, #70	; 0x46

00002e94 <l2855>:
    2e94:	27dd2002 	ldrbcs	r2, [sp, r2]

00002e98 <l2856>:
    2e98:	e48d0000 	str	r0, [sp], #0

00002e9c <l2857>:
    2e9c:	e3a07037 	mov	r7, #55	; 0x37

00002ea0 <l2858>:
    2ea0:	c19d80d7 	ldrsbgt	r8, [sp, r7]

00002ea4 <l2859>:
    2ea4:	e3a0b014 	mov	fp, #20

00002ea8 <l2860>:
    2ea8:	e69d000b 	ldr	r0, [sp], fp

00002eac <l2861>:
    2eac:	254d9003 	strbcs	r9, [sp, #-3]

00002eb0 <l2862>:
    2eb0:	e1a00000 	nop			; (mov r0, r0)

00002eb4 <l2863>:
    2eb4:	c1cd02bc 	strhgt	r0, [sp, #44]	; 0x2c

00002eb8 <l2864>:
    2eb8:	e3a0e035 	mov	lr, #53	; 0x35

00002ebc <l2865>:
    2ebc:	e19dc0de 	ldrsb	ip, [sp, lr]

00002ec0 <l2866>:
    2ec0:	e5cd200c 	strb	r2, [sp, #12]

00002ec4 <l2867>:
    2ec4:	e3a03004 	mov	r3, #4

00002ec8 <l2868>:
    2ec8:	811de0f3 	ldrshhi	lr, [sp, -r3]

00002ecc <l2869>:
    2ecc:	e82d0002 	stmda	sp!, {r1}

00002ed0 <l2870>:
    2ed0:	490d0900 	stmdbmi	sp, {r8, fp}

00002ed4 <l2871>:
    2ed4:	e49dc030 	ldr	ip, [sp], #48	; 0x30

00002ed8 <l2872>:
    2ed8:	e3a0e004 	mov	lr, #4

00002edc <l2873>:
    2edc:	811d70fe 	ldrshhi	r7, [sp, -lr]

00002ee0 <l2874>:
    2ee0:	e3a0503d 	mov	r5, #61	; 0x3d

00002ee4 <l2875>:
    2ee4:	c75db005 	ldrbgt	fp, [sp, -r5]

00002ee8 <l2876>:
    2ee8:	e3a01027 	mov	r1, #39	; 0x27

00002eec <l2877>:
    2eec:	c75d4001 	ldrbgt	r4, [sp, -r1]

00002ef0 <l2878>:
    2ef0:	e1a00000 	nop			; (mov r0, r0)

00002ef4 <l2879>:
    2ef4:	115d12da 	ldrsbne	r1, [sp, #-42]	; 0xffffffd6

00002ef8 <l2880>:
    2ef8:	e55d8036 	ldrb	r8, [sp, #-54]	; 0x36

00002efc <l2881>:
    2efc:	e55d503f 	ldrb	r5, [sp, #-63]	; 0x3f

00002f00 <l2882>:
    2f00:	e3a00009 	mov	r0, #9

00002f04 <l2883>:
    2f04:	619da0d0 	ldrsbvs	sl, [sp, r0]

00002f08 <l2884>:
    2f08:	e3a00004 	mov	r0, #4

00002f0c <l2885>:
    2f0c:	17cdb000 	strbne	fp, [sp, r0]

00002f10 <l2886>:
    2f10:	e54db01b 	strb	fp, [sp, #-27]

00002f14 <l2887>:
    2f14:	e88d1004 	stm	sp, {r2, ip}

00002f18 <l2888>:
    2f18:	e3a0e024 	mov	lr, #36	; 0x24

00002f1c <l2889>:
    2f1c:	e73d500e 	ldr	r5, [sp, -lr]!

00002f20 <l2890>:
    2f20:	e3a02001 	mov	r2, #1

00002f24 <l2891>:
    2f24:	e7dd1002 	ldrb	r1, [sp, r2]

00002f28 <l2892>:
    2f28:	e5cdc01d 	strb	ip, [sp, #29]

00002f2c <l2893>:
    2f2c:	e3a0401c 	mov	r4, #28

00002f30 <l2894>:
    2f30:	810d40b4 	strhhi	r4, [sp, -r4]

00002f34 <l2895>:
    2f34:	e3a0a008 	mov	sl, #8

00002f38 <l2896>:
    2f38:	e10d10ba 	strh	r1, [sp, -sl]

00002f3c <l2897>:
    2f3c:	e99d0004 	ldmib	sp, {r2}

00002f40 <l2898>:
    2f40:	c91d0c82 	ldmdbgt	sp, {r1, r7, sl, fp}

00002f44 <l2899>:
    2f44:	e82d2000 	stmda	sp!, {sp}

00002f48 <l2900>:
    2f48:	e92d4180 	push	{r7, r8, lr}

00002f4c <l2901>:
    2f4c:	e3a00008 	mov	r0, #8

00002f50 <l2902>:
    2f50:	e11d00f0 	ldrsh	r0, [sp, -r0]

00002f54 <l2903>:
    2f54:	e1a00000 	nop			; (mov r0, r0)

00002f58 <l2904>:
    2f58:	e3a0a020 	mov	sl, #32

00002f5c <l2905>:
    2f5c:	c18d30ba 	strhgt	r3, [sp, sl]

00002f60 <l2906>:
    2f60:	e49d4010 	ldr	r4, [sp], #16

00002f64 <l2907>:
    2f64:	d51d4004 	ldrle	r4, [sp, #-4]

00002f68 <l2908>:
    2f68:	e51d1010 	ldr	r1, [sp, #-16]

00002f6c <l2909>:
    2f6c:	e3a0a018 	mov	sl, #24

00002f70 <l2910>:
    2f70:	379db00a 	ldrcc	fp, [sp, sl]

00002f74 <l2911>:
    2f74:	e3a04008 	mov	r4, #8

00002f78 <l2912>:
    2f78:	018d90b4 	strheq	r9, [sp, r4]

00002f7c <l2913>:
    2f7c:	399d1100 	ldmibcc	sp, {r8, ip}

00002f80 <l2914>:
    2f80:	e3a0100e 	mov	r1, #14

00002f84 <l2915>:
    2f84:	e74d6001 	strb	r6, [sp, -r1]

00002f88 <l2916>:
    2f88:	355db00b 	ldrbcc	fp, [sp, #-11]

00002f8c <l2917>:
    2f8c:	e5dde023 	ldrb	lr, [sp, #35]	; 0x23

00002f90 <l2918>:
    2f90:	e83d0102 	ldmda	sp!, {r1, r8}

00002f94 <l2919>:
    2f94:	51cd91ba 	strhpl	r9, [sp, #26]

00002f98 <l2920>:
    2f98:	e54d8009 	strb	r8, [sp, #-9]

00002f9c <l2921>:
    2f9c:	e15d20ba 	ldrh	r2, [sp, #-10]

00002fa0 <l2922>:
    2fa0:	e15d51f4 	ldrsh	r5, [sp, #-20]	; 0xffffffec

00002fa4 <l2923>:
    2fa4:	e8ad4131 	stmia	sp!, {r0, r4, r5, r8, lr}

00002fa8 <l2924>:
    2fa8:	e89d1125 	ldm	sp, {r0, r2, r5, r8, ip}

00002fac <l2925>:
    2fac:	e3a0e00e 	mov	lr, #14

00002fb0 <l2926>:
    2fb0:	719d80be 	ldrhvc	r8, [sp, lr]

00002fb4 <l2927>:
    2fb4:	31cd22b2 	strhcc	r2, [sp, #34]	; 0x22

00002fb8 <l2928>:
    2fb8:	e1a00000 	nop			; (mov r0, r0)

00002fbc <l2929>:
    2fbc:	e83d0720 	ldmda	sp!, {r5, r8, r9, sl}

00002fc0 <l2930>:
    2fc0:	e83d0200 	ldmda	sp!, {r9}

00002fc4 <l2931>:
    2fc4:	e1a00000 	nop			; (mov r0, r0)

00002fc8 <l2932>:
    2fc8:	d90d1240 	stmdble	sp, {r6, r9, ip}

00002fcc <l2933>:
    2fcc:	d5dd4003 	ldrble	r4, [sp, #3]

00002fd0 <l2934>:
    2fd0:	e1dd91d0 	ldrsb	r9, [sp, #16]

00002fd4 <l2935>:
    2fd4:	e1a00000 	nop			; (mov r0, r0)

00002fd8 <l2936>:
    2fd8:	e3a02006 	mov	r2, #6

00002fdc <l2937>:
    2fdc:	e75db002 	ldrb	fp, [sp, -r2]

00002fe0 <l2938>:
    2fe0:	e92d0800 	stmfd	sp!, {fp}

00002fe4 <l2939>:
    2fe4:	155d700b 	ldrbne	r7, [sp, #-11]

00002fe8 <l2940>:
    2fe8:	e3a0c00c 	mov	ip, #12

00002fec <l2941>:
    2fec:	e69d600c 	ldr	r6, [sp], ip

00002ff0 <l2942>:
    2ff0:	81dd20f6 	ldrshhi	r2, [sp, #6]

00002ff4 <l2943>:
    2ff4:	e3a03012 	mov	r3, #18

00002ff8 <l2944>:
    2ff8:	e19d80f3 	ldrsh	r8, [sp, r3]

00002ffc <l2945>:
    2ffc:	e3a0400c 	mov	r4, #12

00003000 <l2946>:
    3000:	e68d6004 	str	r6, [sp], r4

00003004 <l2947>:
    3004:	e3a09022 	mov	r9, #34	; 0x22

00003008 <l2948>:
    3008:	c7cd1009 	strbgt	r1, [sp, r9]

0000300c <l2949>:
    300c:	e3a09020 	mov	r9, #32

00003010 <l2950>:
    3010:	e11d80d9 	ldrsb	r8, [sp, -r9]

00003014 <l2951>:
    3014:	e98d0002 	stmib	sp, {r1}

00003018 <l2952>:
    3018:	355de002 	ldrbcc	lr, [sp, #-2]

0000301c <l2953>:
    301c:	e8bd0744 	pop	{r2, r6, r8, r9, sl}

00003020 <l2954>:
    3020:	e83d17c9 	ldmda	sp!, {r0, r3, r6, r7, r8, r9, sl, ip}

00003024 <l2955>:
    3024:	e83d0042 	ldmda	sp!, {r1, r6}

00003028 <l2956>:
    3028:	21dd11d5 	ldrsbcs	r1, [sp, #21]

0000302c <l2957>:
    302c:	e8bd5800 	pop	{fp, ip, lr}

00003030 <l2958>:
    3030:	e3a0800f 	mov	r8, #15

00003034 <l2959>:
    3034:	e7cde008 	strb	lr, [sp, r8]

00003038 <l2960>:
    3038:	e1a00000 	nop			; (mov r0, r0)

0000303c <l2961>:
    303c:	e3a0200a 	mov	r2, #10

00003040 <l2962>:
    3040:	e10d60b2 	strh	r6, [sp, -r2]

00003044 <l2963>:
    3044:	e3a00014 	mov	r0, #20

00003048 <l2964>:
    3048:	e79dc000 	ldr	ip, [sp, r0]

0000304c <l2965>:
    304c:	e82d1010 	stmda	sp!, {r4, ip}

00003050 <l2966>:
    3050:	e3a06004 	mov	r6, #4

00003054 <l2967>:
    3054:	e69d3006 	ldr	r3, [sp], r6

00003058 <l2968>:
    3058:	754da001 	strbvc	sl, [sp, #-1]

0000305c <l2969>:
    305c:	e8ad6000 	stmia	sp!, {sp, lr}

00003060 <l2970>:
    3060:	e8bd0fd0 	pop	{r4, r6, r7, r8, r9, sl, fp}

00003064 <l2971>:
    3064:	e92d1400 	push	{sl, ip}

00003068 <l2972>:
    3068:	851d9018 	ldrhi	r9, [sp, #-24]

0000306c <l2973>:
    306c:	e3a0e02c 	mov	lr, #44	; 0x2c

00003070 <l2974>:
    3070:	570d400e 	strpl	r4, [sp, -lr]

00003074 <l2975>:
    3074:	491d1c7b 	ldmdbmi	sp, {r0, r1, r3, r4, r5, r6, sl, fp, ip}

00003078 <l2976>:
    3078:	c5dd100c 	ldrbgt	r1, [sp, #12]

0000307c <l2977>:
    307c:	e3a06004 	mov	r6, #4

00003080 <l2978>:
    3080:	e7ddb006 	ldrb	fp, [sp, r6]

00003084 <l2979>:
    3084:	e40d3034 	str	r3, [sp], #-52	; 0x34

00003088 <l2980>:
    3088:	e1cda4b4 	strh	sl, [sp, #68]	; 0x44

0000308c <l2981>:
    308c:	e1dd82dc 	ldrsb	r8, [sp, #44]	; 0x2c

00003090 <l2982>:
    3090:	e3a0102a 	mov	r1, #42	; 0x2a

00003094 <l2983>:
    3094:	97ddc001 	ldrbls	ip, [sp, r1]

00003098 <l2984>:
    3098:	e89d1fea 	ldm	sp, {r1, r3, r5, r6, r7, r8, r9, sl, fp, ip}

0000309c <l2985>:
    309c:	91dd20f8 	ldrshls	r2, [sp, #8]

000030a0 <l2986>:
    30a0:	e9ad5114 	stmib	sp!, {r2, r4, r8, ip, lr}

000030a4 <l2987>:
    30a4:	e92d0005 	push	{r0, r2}

000030a8 <l2988>:
    30a8:	e8ad0020 	stmia	sp!, {r5}

000030ac <l2989>:
    30ac:	e3a0601e 	mov	r6, #30

000030b0 <l2990>:
    30b0:	518d00b6 	strhpl	r0, [sp, r6]

000030b4 <l2991>:
    30b4:	e3a08018 	mov	r8, #24

000030b8 <l2992>:
    30b8:	e18d30b8 	strh	r3, [sp, r8]

000030bc <l2993>:
    30bc:	e3a01004 	mov	r1, #4

000030c0 <l2994>:
    30c0:	e69d8001 	ldr	r8, [sp], r1

000030c4 <l2995>:
    30c4:	41dd42fa 	ldrshmi	r4, [sp, #42]	; 0x2a

000030c8 <l2996>:
    30c8:	61ddb1fa 	ldrshvs	fp, [sp, #26]

000030cc <l2997>:
    30cc:	e3a07008 	mov	r7, #8

000030d0 <l2998>:
    30d0:	e7cd5007 	strb	r5, [sp, r7]

000030d4 <l2999>:
    30d4:	e5bdc000 	ldr	ip, [sp, #0]!

000030d8 <l3000>:
    30d8:	e3a0a00a 	mov	sl, #10

000030dc <l3001>:
    30dc:	c7dd900a 	ldrbgt	r9, [sp, sl]

000030e0 <l3002>:
    30e0:	e49de014 	ldr	lr, [sp], #20

000030e4 <l3003>:
    30e4:	e55d9026 	ldrb	r9, [sp, #-38]	; 0x26

000030e8 <l3004>:
    30e8:	e40db01c 	str	fp, [sp], #-28

000030ec <l3005>:
    30ec:	e91d0040 	ldmdb	sp, {r6}

000030f0 <l3006>:
    30f0:	e15d00da 	ldrsb	r0, [sp, #-10]

000030f4 <l3007>:
    30f4:	41dd01bc 	ldrhmi	r0, [sp, #28]

000030f8 <l3008>:
    30f8:	e3a0901a 	mov	r9, #26

000030fc <l3009>:
    30fc:	319d00b9 	ldrhcc	r0, [sp, r9]

00003100 <l3010>:
    3100:	158d9018 	strne	r9, [sp, #24]

00003104 <l3011>:
    3104:	e3a02023 	mov	r2, #35	; 0x23

00003108 <l3012>:
    3108:	e7cd7002 	strb	r7, [sp, r2]

0000310c <l3013>:
    310c:	95cdc00a 	strbls	ip, [sp, #10]

00003110 <l3014>:
    3110:	e3a05003 	mov	r5, #3

00003114 <l3015>:
    3114:	e7dd7005 	ldrb	r7, [sp, r5]

00003118 <l3016>:
    3118:	d5dde025 	ldrble	lr, [sp, #37]	; 0x25

0000311c <l3017>:
    311c:	e15d31d0 	ldrsb	r3, [sp, #-16]

00003120 <l3018>:
    3120:	e54d7007 	strb	r7, [sp, #-7]

00003124 <l3019>:
    3124:	e3a0c008 	mov	ip, #8

00003128 <l3020>:
    3128:	e72dc00c 	str	ip, [sp, -ip]!

0000312c <l3021>:
    312c:	e5adf03c 	str	pc, [sp, #60]!	; 0x3c

00003130 <l3022>:
    3130:	e54d9015 	strb	r9, [sp, #-21]

00003134 <l3023>:
    3134:	e3a09032 	mov	r9, #50	; 0x32

00003138 <l3024>:
    3138:	e11d70f9 	ldrsh	r7, [sp, -r9]

0000313c <l3025>:
    313c:	e14d10b6 	strh	r1, [sp, #-6]

00003140 <l3026>:
    3140:	c15d81b0 	ldrhgt	r8, [sp, #-16]

00003144 <l3027>:
    3144:	e3a0103c 	mov	r1, #60	; 0x3c

00003148 <l3028>:
    3148:	110d80b1 	strhne	r8, [sp, -r1]

0000314c <l3029>:
    314c:	e9ad8000 	stmib	sp!, {pc}

00003150 <l3030>:
    3150:	e1a00000 	nop			; (mov r0, r0)

00003154 <l3031>:
    3154:	e15da2fe 	ldrsh	sl, [sp, #-46]	; 0xffffffd2

00003158 <l3032>:
    3158:	454d000b 	strbmi	r0, [sp, #-11]

0000315c <l3033>:
    315c:	715d10f2 	ldrshvc	r1, [sp, #-2]

00003160 <l3034>:
    3160:	e3a0902b 	mov	r9, #43	; 0x2b

00003164 <l3035>:
    3164:	811de0d9 	ldrsbhi	lr, [sp, -r9]

00003168 <l3036>:
    3168:	e3a07017 	mov	r7, #23

0000316c <l3037>:
    316c:	374da007 	strbcc	sl, [sp, -r7]

00003170 <l3038>:
    3170:	d1cd70b0 	strhle	r7, [sp]

00003174 <l3039>:
    3174:	e1a00000 	nop			; (mov r0, r0)

00003178 <l3040>:
    3178:	e3a0e02c 	mov	lr, #44	; 0x2c

0000317c <l3041>:
    317c:	e72da00e 	str	sl, [sp, -lr]!

00003180 <l3042>:
    3180:	e52db014 	str	fp, [sp, #-20]!

00003184 <l3043>:
    3184:	e1a00000 	nop			; (mov r0, r0)

00003188 <l3044>:
    3188:	e3a0e03c 	mov	lr, #60	; 0x3c

0000318c <l3045>:
    318c:	278d200e 	strcs	r2, [sp, lr]

00003190 <l3046>:
    3190:	e1a00000 	nop			; (mov r0, r0)

00003194 <l3047>:
    3194:	41dd80b6 	ldrhmi	r8, [sp, #6]

00003198 <l3048>:
    3198:	e1cd60b8 	strh	r6, [sp, #8]

0000319c <l3049>:
    319c:	358dc010 	strcc	ip, [sp, #16]

000031a0 <l3050>:
    31a0:	e3a01032 	mov	r1, #50	; 0x32

000031a4 <l3051>:
    31a4:	918d10b1 	strhls	r1, [sp, r1]

000031a8 <l3052>:
    31a8:	21dde1b0 	ldrhcs	lr, [sp, #16]

000031ac <l3053>:
    31ac:	e48d6008 	str	r6, [sp], #8

000031b0 <l3054>:
    31b0:	e82dc000 	stmda	sp!, {lr, pc}

000031b4 <l3055>:
    31b4:	e3a02018 	mov	r2, #24

000031b8 <l3056>:
    31b8:	e7bdb002 	ldr	fp, [sp, r2]!

000031bc <l3057>:
    31bc:	389d0280 	ldmcc	sp, {r7, r9}

000031c0 <l3058>:
    31c0:	e3a0700d 	mov	r7, #13

000031c4 <l3059>:
    31c4:	47cd0007 	strbmi	r0, [sp, r7]

000031c8 <l3060>:
    31c8:	e3a02022 	mov	r2, #34	; 0x22

000031cc <l3061>:
    31cc:	67dd0002 	ldrbvs	r0, [sp, r2]

000031d0 <l3062>:
    31d0:	a15d91da 	ldrsbge	r9, [sp, #-26]	; 0xffffffe6

000031d4 <l3063>:
    31d4:	e1a00000 	nop			; (mov r0, r0)

000031d8 <l3064>:
    31d8:	e1dda1d3 	ldrsb	sl, [sp, #19]

000031dc <l3065>:
    31dc:	e3a02014 	mov	r2, #20

000031e0 <l3066>:
    31e0:	b19da0b2 	ldrhlt	sl, [sp, r2]

000031e4 <l3067>:
    31e4:	855db01f 	ldrbhi	fp, [sp, #-31]

000031e8 <l3068>:
    31e8:	e9bd071a 	ldmib	sp!, {r1, r3, r4, r8, r9, sl}

000031ec <l3069>:
    31ec:	e3a06009 	mov	r6, #9

000031f0 <l3070>:
    31f0:	e19d20d6 	ldrsb	r2, [sp, r6]

000031f4 <l3071>:
    31f4:	215d41f2 	ldrshcs	r4, [sp, #-18]	; 0xffffffee

000031f8 <l3072>:
    31f8:	a54d2035 	strbge	r2, [sp, #-53]	; 0x35

000031fc <l3073>:
    31fc:	e93d1f7f 	ldmdb	sp!, {r0, r1, r2, r3, r4, r5, r6, r8, r9, sl, fp, ip}

00003200 <l3074>:
    3200:	e3a07002 	mov	r7, #2

00003204 <l3075>:
    3204:	47dda007 	ldrbmi	sl, [sp, r7]

00003208 <l3076>:
    3208:	05cdc015 	strbeq	ip, [sp, #21]

0000320c <l3077>:
    320c:	e1dda3fa 	ldrsh	sl, [sp, #58]	; 0x3a

00003210 <l3078>:
    3210:	e1a00000 	nop			; (mov r0, r0)

00003214 <l3079>:
    3214:	d5dd203f 	ldrble	r2, [sp, #63]	; 0x3f

00003218 <l3080>:
    3218:	e1dd30bc 	ldrh	r3, [sp, #12]

0000321c <l3081>:
    321c:	e1a00000 	nop			; (mov r0, r0)

00003220 <l3082>:
    3220:	e1a00000 	nop			; (mov r0, r0)

00003224 <l3083>:
    3224:	e1a00000 	nop			; (mov r0, r0)

00003228 <l3084>:
    3228:	e1a00000 	nop			; (mov r0, r0)

0000322c <l3085>:
    322c:	e54d8006 	strb	r8, [sp, #-6]

00003230 <l3086>:
    3230:	e3a03024 	mov	r3, #36	; 0x24

00003234 <l3087>:
    3234:	b18d40b3 	strhlt	r4, [sp, r3]

00003238 <l3088>:
    3238:	e3a0b003 	mov	fp, #3

0000323c <l3089>:
    323c:	875d300b 	ldrbhi	r3, [sp, -fp]

00003240 <l3090>:
    3240:	e3a02030 	mov	r2, #48	; 0x30

00003244 <l3091>:
    3244:	179d5002 	ldrne	r5, [sp, r2]

00003248 <l3092>:
    3248:	e1a00000 	nop			; (mov r0, r0)

0000324c <l3093>:
    324c:	e3a01034 	mov	r1, #52	; 0x34

00003250 <l3094>:
    3250:	a7cd9001 	strbge	r9, [sp, r1]

00003254 <l3095>:
    3254:	a98d02b0 	stmibge	sp, {r4, r5, r7, r9}

00003258 <l3096>:
    3258:	01dd01dd 	ldrsbeq	r0, [sp, #29]

0000325c <l3097>:
    325c:	e98d0011 	stmib	sp, {r0, r4}

00003260 <l3098>:
    3260:	e1a00000 	nop			; (mov r0, r0)

00003264 <l3099>:
    3264:	e9ad2000 	stmib	sp!, {sp}

00003268 <l3100>:
    3268:	e92d0080 	stmfd	sp!, {r7}

0000326c <l3101>:
    326c:	e8bd5668 	pop	{r3, r5, r6, r9, sl, ip, lr}

00003270 <l3102>:
    3270:	e90d0d64 	stmdb	sp, {r2, r5, r6, r8, sl, fp}

00003274 <l3103>:
    3274:	e3a0400c 	mov	r4, #12

00003278 <l3104>:
    3278:	e7cd1004 	strb	r1, [sp, r4]

0000327c <l3105>:
    327c:	e3a0a004 	mov	sl, #4

00003280 <l3106>:
    3280:	619de0ba 	ldrhvs	lr, [sp, sl]

00003284 <l3107>:
    3284:	e1dd40d8 	ldrsb	r4, [sp, #8]

00003288 <l3108>:
    3288:	e83d0900 	ldmda	sp!, {r8, fp}

0000328c <l3109>:
    328c:	e83d00a9 	ldmda	sp!, {r0, r3, r5, r7}

00003290 <l3110>:
    3290:	e3a0a020 	mov	sl, #32

00003294 <l3111>:
    3294:	719dc0ba 	ldrhvc	ip, [sp, sl]

00003298 <l3112>:
    3298:	e1a00000 	nop			; (mov r0, r0)

0000329c <l3113>:
    329c:	e9ade000 	stmib	sp!, {sp, lr, pc}

000032a0 <l3114>:
    32a0:	e91d0120 	ldmdb	sp, {r5, r8}

000032a4 <l3115>:
    32a4:	e3a0c024 	mov	ip, #36	; 0x24

000032a8 <l3116>:
    32a8:	e68d500c 	str	r5, [sp], ip

000032ac <l3117>:
    32ac:	35cd300f 	strbcc	r3, [sp, #15]

000032b0 <l3118>:
    32b0:	e15d11d7 	ldrsb	r1, [sp, #-23]	; 0xffffffe9

000032b4 <l3119>:
    32b4:	e92d2000 	stmfd	sp!, {sp}

000032b8 <l3120>:
    32b8:	e3a09022 	mov	r9, #34	; 0x22

000032bc <l3121>:
    32bc:	910d00b9 	strhls	r0, [sp, -r9]

000032c0 <l3122>:
    32c0:	e9bd1201 	ldmib	sp!, {r0, r9, ip}

000032c4 <l3123>:
    32c4:	e1a00000 	nop			; (mov r0, r0)

000032c8 <l3124>:
    32c8:	e3a03028 	mov	r3, #40	; 0x28

000032cc <l3125>:
    32cc:	e72d4003 	str	r4, [sp, -r3]!

000032d0 <l3126>:
    32d0:	e3a0b008 	mov	fp, #8

000032d4 <l3127>:
    32d4:	e74d900b 	strb	r9, [sp, -fp]

000032d8 <l3128>:
    32d8:	e92d1000 	stmfd	sp!, {ip}

000032dc <l3129>:
    32dc:	e9bd0bff 	ldmib	sp!, {r0, r1, r2, r3, r4, r5, r6, r7, r8, r9, fp}

000032e0 <l3130>:
    32e0:	e3a08010 	mov	r8, #16

000032e4 <l3131>:
    32e4:	e73db008 	ldr	fp, [sp, -r8]!

000032e8 <l3132>:
    32e8:	e82d2000 	stmda	sp!, {sp}

000032ec <l3133>:
    32ec:	e5dd1010 	ldrb	r1, [sp, #16]

000032f0 <l3134>:
    32f0:	e92d1802 	push	{r1, fp, ip}

000032f4 <l3135>:
    32f4:	e3a09006 	mov	r9, #6

000032f8 <l3136>:
    32f8:	e11d40f9 	ldrsh	r4, [sp, -r9]

000032fc <l3137>:
    32fc:	e1dd11f0 	ldrsh	r1, [sp, #16]

00003300 <l3138>:
    3300:	e5ada000 	str	sl, [sp, #0]!

00003304 <l3139>:
    3304:	e8adcb84 	stmia	sp!, {r2, r7, r8, r9, fp, lr, pc}

00003308 <l3140>:
    3308:	e3a0a01c 	mov	sl, #28

0000330c <l3141>:
    330c:	e60d000a 	str	r0, [sp], -sl

00003310 <l3142>:
    3310:	e1a00000 	nop			; (mov r0, r0)

00003314 <l3143>:
    3314:	e3a07004 	mov	r7, #4

00003318 <l3144>:
    3318:	c11d00b7 	ldrhgt	r0, [sp, -r7]

0000331c <l3145>:
    331c:	e3a04010 	mov	r4, #16

00003320 <l3146>:
    3320:	e69d3004 	ldr	r3, [sp], r4

00003324 <l3147>:
    3324:	91dde0d7 	ldrsbls	lr, [sp, #7]

00003328 <l3148>:
    3328:	e82d5470 	stmda	sp!, {r4, r5, r6, sl, ip, lr}

0000332c <l3149>:
    332c:	e9ad07d9 	stmib	sp!, {r0, r3, r4, r6, r7, r8, r9, sl}

00003330 <l3150>:
    3330:	e3a04005 	mov	r4, #5

00003334 <l3151>:
    3334:	e75db004 	ldrb	fp, [sp, -r4]

00003338 <l3152>:
    3338:	e3a0e028 	mov	lr, #40	; 0x28

0000333c <l3153>:
    333c:	e60d600e 	str	r6, [sp], -lr

00003340 <l3154>:
    3340:	11dd61b0 	ldrhne	r6, [sp, #16]

00003344 <l3155>:
    3344:	e1dd91db 	ldrsb	r9, [sp, #27]

00003348 <l3156>:
    3348:	e1a00000 	nop			; (mov r0, r0)

0000334c <l3157>:
    334c:	a1dd12b4 	ldrhge	r1, [sp, #36]	; 0x24

00003350 <l3158>:
    3350:	e3a03008 	mov	r3, #8

00003354 <l3159>:
    3354:	619d30b3 	ldrhvs	r3, [sp, r3]

00003358 <l3160>:
    3358:	31dd92be 	ldrhcc	r9, [sp, #46]	; 0x2e

0000335c <l3161>:
    335c:	e5bd8030 	ldr	r8, [sp, #48]!	; 0x30

00003360 <l3162>:
    3360:	e3a0001c 	mov	r0, #28

00003364 <l3163>:
    3364:	670d2000 	strvs	r2, [sp, -r0]

00003368 <l3164>:
    3368:	e40de020 	str	lr, [sp], #-32

0000336c <l3165>:
    336c:	a51d5024 	ldrge	r5, [sp, #-36]	; 0x24

00003370 <l3166>:
    3370:	e82d080b 	stmda	sp!, {r0, r1, r3, fp}

00003374 <l3167>:
    3374:	e1dd02fa 	ldrsh	r0, [sp, #42]	; 0x2a

00003378 <l3168>:
    3378:	e3a08030 	mov	r8, #48	; 0x30

0000337c <l3169>:
    337c:	e19d50d8 	ldrsb	r5, [sp, r8]

00003380 <l3170>:
    3380:	41dd41b2 	ldrhmi	r4, [sp, #18]

00003384 <l3171>:
    3384:	e9ad8080 	stmib	sp!, {r7, pc}

00003388 <l3172>:
    3388:	81dde2d8 	ldrsbhi	lr, [sp, #40]	; 0x28

0000338c <l3173>:
    338c:	e91d0601 	ldmdb	sp, {r0, r9, sl}

00003390 <l3174>:
    3390:	e5cdc023 	strb	ip, [sp, #35]	; 0x23

00003394 <l3175>:
    3394:	e3a0e022 	mov	lr, #34	; 0x22

00003398 <l3176>:
    3398:	c19de0be 	ldrhgt	lr, [sp, lr]

0000339c <l3177>:
    339c:	e3a0c02a 	mov	ip, #42	; 0x2a

000033a0 <l3178>:
    33a0:	019dc0fc 	ldrsheq	ip, [sp, ip]

000033a4 <l3179>:
    33a4:	55cd0002 	strbpl	r0, [sp, #2]

000033a8 <l3180>:
    33a8:	e3a0100c 	mov	r1, #12

000033ac <l3181>:
    33ac:	a11db0b1 	ldrhge	fp, [sp, -r1]

000033b0 <l3182>:
    33b0:	e3a0100b 	mov	r1, #11

000033b4 <l3183>:
    33b4:	e74d6001 	strb	r6, [sp, -r1]

000033b8 <l3184>:
    33b8:	e3a0b00c 	mov	fp, #12

000033bc <l3185>:
    33bc:	e60d100b 	str	r1, [sp], -fp

000033c0 <l3186>:
    33c0:	e5dd2010 	ldrb	r2, [sp, #16]

000033c4 <l3187>:
    33c4:	e5dd0023 	ldrb	r0, [sp, #35]	; 0x23

000033c8 <l3188>:
    33c8:	e93d0010 	ldmdb	sp!, {r4}

000033cc <l3189>:
    33cc:	e9ada000 	stmib	sp!, {sp, pc}

000033d0 <l3190>:
    33d0:	115d81f2 	ldrshne	r8, [sp, #-18]	; 0xffffffee

000033d4 <l3191>:
    33d4:	e3a00034 	mov	r0, #52	; 0x34

000033d8 <l3192>:
    33d8:	a19d40f0 	ldrshge	r4, [sp, r0]

000033dc <l3193>:
    33dc:	e99d4004 	ldmib	sp, {r2, lr}

000033e0 <l3194>:
    33e0:	e1a00000 	nop			; (mov r0, r0)

000033e4 <l3195>:
    33e4:	e5cd201c 	strb	r2, [sp, #28]

000033e8 <l3196>:
    33e8:	e3a02004 	mov	r2, #4

000033ec <l3197>:
    33ec:	519de0f2 	ldrshpl	lr, [sp, r2]

000033f0 <l3198>:
    33f0:	799d5014 	ldmibvc	sp, {r2, r4, ip, lr}

000033f4 <l3199>:
    33f4:	e3a0100e 	mov	r1, #14

000033f8 <l3200>:
    33f8:	c7dd0001 	ldrbgt	r0, [sp, r1]

000033fc <l3201>:
    33fc:	e83d0100 	ldmda	sp!, {r8}

00003400 <l3202>:
    3400:	780d0400 	stmdavc	sp, {sl}

00003404 <l3203>:
    3404:	e49d101c 	ldr	r1, [sp], #28

00003408 <l3204>:
    3408:	e9bd0200 	ldmib	sp!, {r9}

0000340c <l3205>:
    340c:	e91d114a 	ldmdb	sp, {r1, r3, r6, r8, ip}

00003410 <l3206>:
    3410:	815d11bc 	ldrhhi	r1, [sp, #-28]	; 0xffffffe4

00003414 <l3207>:
    3414:	e3a06018 	mov	r6, #24

00003418 <l3208>:
    3418:	e72d8006 	str	r8, [sp, -r6]!

0000341c <l3209>:
    341c:	e52d8014 	str	r8, [sp, #-20]!

00003420 <l3210>:
    3420:	e59dc004 	ldr	ip, [sp, #4]

00003424 <l3211>:
    3424:	55cd3022 	strbpl	r3, [sp, #34]	; 0x22

00003428 <l3212>:
    3428:	e3a0c010 	mov	ip, #16

0000342c <l3213>:
    342c:	e69d200c 	ldr	r2, [sp], ip

00003430 <l3214>:
    3430:	e3a06010 	mov	r6, #16

00003434 <l3215>:
    3434:	e60d2006 	str	r2, [sp], -r6

00003438 <l3216>:
    3438:	e3a0a000 	mov	sl, #0

0000343c <l3217>:
    343c:	e69d100a 	ldr	r1, [sp], sl

00003440 <l3218>:
    3440:	e5ad603c 	str	r6, [sp, #60]!	; 0x3c

00003444 <l3219>:
    3444:	a98d0400 	stmibge	sp, {sl}

00003448 <l3220>:
    3448:	e3a0000a 	mov	r0, #10

0000344c <l3221>:
    344c:	611d00d0 	ldrsbvs	r0, [sp, -r0]

00003450 <l3222>:
    3450:	e3a01020 	mov	r1, #32

00003454 <l3223>:
    3454:	e70d4001 	str	r4, [sp, -r1]

00003458 <l3224>:
    3458:	41dd30b2 	ldrhmi	r3, [sp, #2]

0000345c <l3225>:
    345c:	e8bd0010 	ldmfd	sp!, {r4}

00003460 <l3226>:
    3460:	d14dc1b6 	strhle	ip, [sp, #-22]	; 0xffffffea

00003464 <l3227>:
    3464:	e8bd4000 	ldmfd	sp!, {lr}

00003468 <l3228>:
    3468:	e55d4028 	ldrb	r4, [sp, #-40]	; 0x28

0000346c <l3229>:
    346c:	e3a08005 	mov	r8, #5

00003470 <l3230>:
    3470:	d74d6008 	strble	r6, [sp, -r8]

00003474 <l3231>:
    3474:	e83d0001 	ldmda	sp!, {r0}

00003478 <l3232>:
    3478:	e8ad0100 	stmia	sp!, {r8}

0000347c <l3233>:
    347c:	e40d8044 	str	r8, [sp], #-68	; 0x44

00003480 <l3234>:
    3480:	e3a08003 	mov	r8, #3

00003484 <l3235>:
    3484:	e19da0d8 	ldrsb	sl, [sp, r8]

00003488 <l3236>:
    3488:	e8bd5fe7 	pop	{r0, r1, r2, r5, r6, r7, r8, r9, sl, fp, ip, lr}

0000348c <l3237>:
    348c:	e3a0c00e 	mov	ip, #14

00003490 <l3238>:
    3490:	b10da0bc 	strhlt	sl, [sp, -ip]

00003494 <l3239>:
    3494:	e92dd182 	push	{r1, r7, r8, ip, lr, pc}

00003498 <l3240>:
    3498:	e15db0b8 	ldrh	fp, [sp, #-8]

0000349c <l3241>:
    349c:	05cda013 	strbeq	sl, [sp, #19]

000034a0 <l3242>:
    34a0:	d54d901c 	strble	r9, [sp, #-28]

000034a4 <l3243>:
    34a4:	e8bd5a1f 	pop	{r0, r1, r2, r3, r4, r9, fp, ip, lr}

000034a8 <l3244>:
    34a8:	e92d070e 	push	{r1, r2, r3, r8, r9, sl}

000034ac <l3245>:
    34ac:	e1cd40b4 	strh	r4, [sp, #4]

000034b0 <l3246>:
    34b0:	e9ad1142 	stmib	sp!, {r1, r6, r8, ip}

000034b4 <l3247>:
    34b4:	e55d702d 	ldrb	r7, [sp, #-45]	; 0x2d

000034b8 <l3248>:
    34b8:	255d201c 	ldrbcs	r2, [sp, #-28]

000034bc <l3249>:
    34bc:	e93d4b78 	ldmdb	sp!, {r3, r4, r5, r6, r8, r9, fp, lr}

000034c0 <l3250>:
    34c0:	e8ad0008 	stmia	sp!, {r3}

000034c4 <l3251>:
    34c4:	715da1b6 	ldrhvc	sl, [sp, #-22]	; 0xffffffea

000034c8 <l3252>:
    34c8:	e58d0018 	str	r0, [sp, #24]

000034cc <l3253>:
    34cc:	e3a0b012 	mov	fp, #18

000034d0 <l3254>:
    34d0:	e75d400b 	ldrb	r4, [sp, -fp]

000034d4 <l3255>:
    34d4:	715d30ba 	ldrhvc	r3, [sp, #-10]

000034d8 <l3256>:
    34d8:	889d19f4 	ldmhi	sp, {r2, r4, r5, r6, r7, r8, fp, ip}

000034dc <l3257>:
    34dc:	e8bd1183 	pop	{r0, r1, r7, r8, ip}

000034e0 <l3258>:
    34e0:	e92dc2f7 	push	{r0, r1, r2, r4, r5, r6, r7, r9, lr, pc}

000034e4 <l3259>:
    34e4:	e3a03000 	mov	r3, #0

000034e8 <l3260>:
    34e8:	a19d60b3 	ldrhge	r6, [sp, r3]

000034ec <l3261>:
    34ec:	e9bd5bbb 	ldmib	sp!, {r0, r1, r3, r4, r5, r7, r8, r9, fp, ip, lr}

000034f0 <l3262>:
    34f0:	e51de02c 	ldr	lr, [sp, #-44]	; 0x2c

000034f4 <l3263>:
    34f4:	e3a0e00e 	mov	lr, #14

000034f8 <l3264>:
    34f8:	211d10be 	ldrhcs	r1, [sp, -lr]

000034fc <l3265>:
    34fc:	e9ad0010 	stmib	sp!, {r4}

00003500 <l3266>:
    3500:	e54d5015 	strb	r5, [sp, #-21]

00003504 <l3267>:
    3504:	615d40ba 	ldrhvs	r4, [sp, #-10]

00003508 <l3268>:
    3508:	e83d0bc3 	ldmda	sp!, {r0, r1, r6, r7, r8, r9, fp}

0000350c <l3269>:
    350c:	e3a0b004 	mov	fp, #4

00003510 <l3270>:
    3510:	e11db0bb 	ldrh	fp, [sp, -fp]

00003514 <l3271>:
    3514:	a81d4118 	ldmdage	sp, {r3, r4, r8, lr}

00003518 <l3272>:
    3518:	e1cd42b2 	strh	r4, [sp, #34]	; 0x22

0000351c <l3273>:
    351c:	e3a05024 	mov	r5, #36	; 0x24

00003520 <l3274>:
    3520:	e7dd7005 	ldrb	r7, [sp, r5]

00003524 <l3275>:
    3524:	e3a07000 	mov	r7, #0

00003528 <l3276>:
    3528:	e68d9007 	str	r9, [sp], r7

0000352c <l3277>:
    352c:	e3a0000c 	mov	r0, #12

00003530 <l3278>:
    3530:	e7ad4000 	str	r4, [sp, r0]!

00003534 <l3279>:
    3534:	e83d0020 	ldmda	sp!, {r5}

00003538 <l3280>:
    3538:	254d7012 	strbcs	r7, [sp, #-18]

0000353c <l3281>:
    353c:	e14d11ba 	strh	r1, [sp, #-26]	; 0xffffffe6

00003540 <l3282>:
    3540:	e3a09024 	mov	r9, #36	; 0x24

00003544 <l3283>:
    3544:	170df009 	strne	pc, [sp, -r9]

00003548 <l3284>:
    3548:	e1a00000 	nop			; (mov r0, r0)

0000354c <l3285>:
    354c:	e15da0d2 	ldrsb	sl, [sp, #-2]

00003550 <l3286>:
    3550:	315d90da 	ldrsbcc	r9, [sp, #-10]

00003554 <l3287>:
    3554:	e3a00020 	mov	r0, #32

00003558 <l3288>:
    3558:	e71db000 	ldr	fp, [sp, -r0]

0000355c <l3289>:
    355c:	090d2000 	stmdbeq	sp, {sp}

00003560 <l3290>:
    3560:	e82d0826 	stmda	sp!, {r1, r2, r5, fp}

00003564 <l3291>:
    3564:	11dd92d1 	ldrsbne	r9, [sp, #33]	; 0x21

00003568 <l3292>:
    3568:	959d7034 	ldrls	r7, [sp, #52]	; 0x34

0000356c <l3293>:
    356c:	e83d0204 	ldmda	sp!, {r2, r9}

00003570 <l3294>:
    3570:	e3a09020 	mov	r9, #32

00003574 <l3295>:
    3574:	e19d40b9 	ldrh	r4, [sp, r9]

00003578 <l3296>:
    3578:	e1a00000 	nop			; (mov r0, r0)

0000357c <l3297>:
    357c:	e3a0103b 	mov	r1, #59	; 0x3b

00003580 <l3298>:
    3580:	e7dd8001 	ldrb	r8, [sp, r1]

00003584 <l3299>:
    3584:	e3a03026 	mov	r3, #38	; 0x26

00003588 <l3300>:
    3588:	919dc0f3 	ldrshls	ip, [sp, r3]

0000358c <l3301>:
    358c:	e82d0100 	stmda	sp!, {r8}

00003590 <l3302>:
    3590:	41cd51b8 	strhmi	r5, [sp, #24]

00003594 <l3303>:
    3594:	e9bd05ae 	ldmib	sp!, {r1, r2, r3, r5, r7, r8, sl}

00003598 <l3304>:
    3598:	e50d3014 	str	r3, [sp, #-20]

0000359c <l3305>:
    359c:	e3a05004 	mov	r5, #4

000035a0 <l3306>:
    35a0:	e60dc005 	str	ip, [sp], -r5

000035a4 <l3307>:
    35a4:	e1a00000 	nop			; (mov r0, r0)

000035a8 <l3308>:
    35a8:	e59de004 	ldr	lr, [sp, #4]

000035ac <l3309>:
    35ac:	e3a0100b 	mov	r1, #11

000035b0 <l3310>:
    35b0:	e75da001 	ldrb	sl, [sp, -r1]

000035b4 <l3311>:
    35b4:	e3a0e015 	mov	lr, #21

000035b8 <l3312>:
    35b8:	e7dd400e 	ldrb	r4, [sp, lr]

000035bc <l3313>:
    35bc:	e3a0702a 	mov	r7, #42	; 0x2a

000035c0 <l3314>:
    35c0:	619d80b7 	ldrhvs	r8, [sp, r7]

000035c4 <l3315>:
    35c4:	e3a06004 	mov	r6, #4

000035c8 <l3316>:
    35c8:	e19d00f6 	ldrsh	r0, [sp, r6]

000035cc <l3317>:
    35cc:	e1cde2b8 	strh	lr, [sp, #40]	; 0x28

000035d0 <l3318>:
    35d0:	e3a00021 	mov	r0, #33	; 0x21

000035d4 <l3319>:
    35d4:	37dd8000 	ldrbcc	r8, [sp, r0]

000035d8 <l3320>:
    35d8:	e8bd1133 	pop	{r0, r1, r4, r5, r8, ip}

000035dc <l3321>:
    35dc:	e3a05036 	mov	r5, #54	; 0x36

000035e0 <l3322>:
    35e0:	311da0f5 	ldrshcc	sl, [sp, -r5]

000035e4 <l3323>:
    35e4:	e55dc021 	ldrb	ip, [sp, #-33]	; 0x21

000035e8 <l3324>:
    35e8:	815d21b0 	ldrhhi	r2, [sp, #-16]

000035ec <l3325>:
    35ec:	e59d000c 	ldr	r0, [sp, #12]

000035f0 <l3326>:
    35f0:	255d500d 	ldrbcs	r5, [sp, #-13]

000035f4 <l3327>:
    35f4:	61dd50d6 	ldrsbvs	r5, [sp, #6]

000035f8 <l3328>:
    35f8:	e81d5fee 	ldmda	sp, {r1, r2, r3, r5, r6, r7, r8, r9, sl, fp, ip, lr}

000035fc <l3329>:
    35fc:	e3a06015 	mov	r6, #21

00003600 <l3330>:
    3600:	e75d6006 	ldrb	r6, [sp, -r6]

00003604 <l3331>:
    3604:	d15d30b6 	ldrhle	r3, [sp, #-6]

00003608 <l3332>:
    3608:	754dc033 	strbvc	ip, [sp, #-51]	; 0x33

0000360c <l3333>:
    360c:	454db008 	strbmi	fp, [sp, #-8]

00003610 <l3334>:
    3610:	c51d500c 	ldrgt	r5, [sp, #-12]

00003614 <l3335>:
    3614:	e1ddc0f2 	ldrsh	ip, [sp, #2]

00003618 <l3336>:
    3618:	659d5008 	ldrvs	r5, [sp, #8]

0000361c <l3337>:
    361c:	e3a07008 	mov	r7, #8

00003620 <l3338>:
    3620:	078db007 	streq	fp, [sp, r7]

00003624 <l3339>:
    3624:	e58d7010 	str	r7, [sp, #16]

00003628 <l3340>:
    3628:	25dd9005 	ldrbcs	r9, [sp, #5]

0000362c <l3341>:
    362c:	e3a08015 	mov	r8, #21

00003630 <l3342>:
    3630:	311d10d8 	ldrsbcc	r1, [sp, -r8]

00003634 <l3343>:
    3634:	e3a0b020 	mov	fp, #32

00003638 <l3344>:
    3638:	d74d800b 	strble	r8, [sp, -fp]

0000363c <l3345>:
    363c:	951d601c 	ldrls	r6, [sp, #-28]

00003640 <l3346>:
    3640:	e3a05010 	mov	r5, #16

00003644 <l3347>:
    3644:	e73da005 	ldr	sl, [sp, -r5]!

00003648 <l3348>:
    3648:	e52d7004 	push	{r7}		; (str r7, [sp, #-4]!)

0000364c <l3349>:
    364c:	e93d03b1 	ldmdb	sp!, {r0, r4, r5, r7, r8, r9}

00003650 <l3350>:
    3650:	a15d70d7 	ldrsbge	r7, [sp, #-7]

00003654 <l3351>:
    3654:	e3a0302e 	mov	r3, #46	; 0x2e

00003658 <l3352>:
    3658:	e19d90d3 	ldrsb	r9, [sp, r3]

0000365c <l3353>:
    365c:	e3a0b00a 	mov	fp, #10

00003660 <l3354>:
    3660:	a18d10bb 	strhge	r1, [sp, fp]

00003664 <l3355>:
    3664:	e8ad064a 	stmia	sp!, {r1, r3, r6, r9, sl}

00003668 <l3356>:
    3668:	e3a0a018 	mov	sl, #24

0000366c <l3357>:
    366c:	e19dc0ba 	ldrh	ip, [sp, sl]

00003670 <l3358>:
    3670:	e3a0c00a 	mov	ip, #10

00003674 <l3359>:
    3674:	e74d000c 	strb	r0, [sp, -ip]

00003678 <l3360>:
    3678:	190d20e9 	stmdbne	sp, {r0, r3, r5, r6, r7, sp}

0000367c <l3361>:
    367c:	e5bd9028 	ldr	r9, [sp, #40]!	; 0x28

00003680 <l3362>:
    3680:	e1a00000 	nop			; (mov r0, r0)

00003684 <l3363>:
    3684:	d55d503e 	ldrble	r5, [sp, #-62]	; 0x3e

00003688 <l3364>:
    3688:	e3a00034 	mov	r0, #52	; 0x34

0000368c <l3365>:
    368c:	e73d2000 	ldr	r2, [sp, -r0]!

00003690 <l3366>:
    3690:	41cd02b4 	strhmi	r0, [sp, #36]	; 0x24

00003694 <l3367>:
    3694:	e93d0001 	ldmdb	sp!, {r0}

00003698 <l3368>:
    3698:	e1dd01f8 	ldrsh	r0, [sp, #24]

0000369c <l3369>:
    369c:	e3a0000e 	mov	r0, #14

000036a0 <l3370>:
    36a0:	a11d80b0 	ldrhge	r8, [sp, -r0]

000036a4 <l3371>:
    36a4:	e3a0700c 	mov	r7, #12

000036a8 <l3372>:
    36a8:	911d40f7 	ldrshls	r4, [sp, -r7]

000036ac <l3373>:
    36ac:	e89d1890 	ldm	sp, {r4, r7, fp, ip}

000036b0 <l3374>:
    36b0:	e3a0b00d 	mov	fp, #13

000036b4 <l3375>:
    36b4:	a7dd500b 	ldrbge	r5, [sp, fp]

000036b8 <l3376>:
    36b8:	415db0f4 	ldrshmi	fp, [sp, #-4]

000036bc <l3377>:
    36bc:	989d4fef 	ldmls	sp, {r0, r1, r2, r3, r5, r6, r7, r8, r9, sl, fp, lr}

000036c0 <l3378>:
    36c0:	e5bd900c 	ldr	r9, [sp, #12]!

000036c4 <l3379>:
    36c4:	e82d1440 	stmda	sp!, {r6, sl, ip}

000036c8 <l3380>:
    36c8:	e3a06032 	mov	r6, #50	; 0x32

000036cc <l3381>:
    36cc:	919dc0f6 	ldrshls	ip, [sp, r6]

000036d0 <l3382>:
    36d0:	e3a0c00d 	mov	ip, #13

000036d4 <l3383>:
    36d4:	e75d700c 	ldrb	r7, [sp, -ip]

000036d8 <l3384>:
    36d8:	e5ad402c 	str	r4, [sp, #44]!	; 0x2c

000036dc <l3385>:
    36dc:	150d9024 	strne	r9, [sp, #-36]	; 0x24

000036e0 <l3386>:
    36e0:	e14d20b4 	strh	r2, [sp, #-4]

000036e4 <l3387>:
    36e4:	e92da000 	push	{sp, pc}

000036e8 <l3388>:
    36e8:	e53d100c 	ldr	r1, [sp, #-12]!

000036ec <l3389>:
    36ec:	314d01b4 	strhcc	r0, [sp, #-20]	; 0xffffffec

000036f0 <l3390>:
    36f0:	e40d8008 	str	r8, [sp], #-8

000036f4 <l3391>:
    36f4:	e3a0c01c 	mov	ip, #28

000036f8 <l3392>:
    36f8:	910de0bc 	strhls	lr, [sp, -ip]

000036fc <l3393>:
    36fc:	e9ad0888 	stmib	sp!, {r3, r7, fp}

00003700 <l3394>:
    3700:	e51d700c 	ldr	r7, [sp, #-12]

00003704 <l3395>:
    3704:	e1a00000 	nop			; (mov r0, r0)

00003708 <l3396>:
    3708:	e3a0600a 	mov	r6, #10

0000370c <l3397>:
    370c:	e19d30f6 	ldrsh	r3, [sp, r6]

00003710 <l3398>:
    3710:	e8ad6000 	stmia	sp!, {sp, lr}

00003714 <l3399>:
    3714:	e82de000 	stmda	sp!, {sp, lr, pc}

00003718 <l3400>:
    3718:	e3a0e028 	mov	lr, #40	; 0x28

0000371c <l3401>:
    371c:	a10da0be 	strhge	sl, [sp, -lr]

00003720 <l3402>:
    3720:	e1dd40b0 	ldrh	r4, [sp]

00003724 <l3403>:
    3724:	e3a0c01c 	mov	ip, #28

00003728 <l3404>:
    3728:	411d70bc 	ldrhmi	r7, [sp, -ip]

0000372c <l3405>:
    372c:	854d5018 	strbhi	r5, [sp, #-24]

00003730 <l3406>:
    3730:	e3a06018 	mov	r6, #24

00003734 <l3407>:
    3734:	970d0006 	strls	r0, [sp, -r6]

00003738 <l3408>:
    3738:	c98d4887 	stmibgt	sp, {r0, r1, r2, r7, fp, lr}

0000373c <l3409>:
    373c:	e82d2000 	stmda	sp!, {sp}

00003740 <l3410>:
    3740:	e1dd60f6 	ldrsh	r6, [sp, #6]

00003744 <l3411>:
    3744:	e8ad6000 	stmia	sp!, {sp, lr}

00003748 <l3412>:
    3748:	990d0800 	stmdbls	sp, {fp}

0000374c <l3413>:
    374c:	655dc00c 	ldrbvs	ip, [sp, #-12]

00003750 <l3414>:
    3750:	e99d0210 	ldmib	sp, {r4, r9}

00003754 <l3415>:
    3754:	e3a04009 	mov	r4, #9

00003758 <l3416>:
    3758:	c74d1004 	strbgt	r1, [sp, -r4]

0000375c <l3417>:
    375c:	e3a09010 	mov	r9, #16

00003760 <l3418>:
    3760:	319d50f9 	ldrshcc	r5, [sp, r9]

00003764 <l3419>:
    3764:	e3a0102a 	mov	r1, #42	; 0x2a

00003768 <l3420>:
    3768:	774dc001 	strbvc	ip, [sp, -r1]

0000376c <l3421>:
    376c:	e93d1424 	ldmdb	sp!, {r2, r5, sl, ip}

00003770 <l3422>:
    3770:	e93d00b5 	ldmdb	sp!, {r0, r2, r4, r5, r7}

00003774 <l3423>:
    3774:	11dd93d0 	ldrsbne	r9, [sp, #48]	; 0x30

00003778 <l3424>:
    3778:	e1cd12b8 	strh	r1, [sp, #40]	; 0x28

0000377c <l3425>:
    377c:	e3a00010 	mov	r0, #16

00003780 <l3426>:
    3780:	e7ad9000 	str	r9, [sp, r0]!

00003784 <l3427>:
    3784:	e5dd7009 	ldrb	r7, [sp, #9]

00003788 <l3428>:
    3788:	e3a08020 	mov	r8, #32

0000378c <l3429>:
    378c:	e68d3008 	str	r3, [sp], r8

00003790 <l3430>:
    3790:	391d552c 	ldmdbcc	sp, {r2, r3, r5, r8, sl, ip, lr}

00003794 <l3431>:
    3794:	e3a08010 	mov	r8, #16

00003798 <l3432>:
    3798:	e11d40b8 	ldrh	r4, [sp, -r8]

0000379c <l3433>:
    379c:	e54db006 	strb	fp, [sp, #-6]

000037a0 <l3434>:
    37a0:	e40dc008 	str	ip, [sp], #-8

000037a4 <l3435>:
    37a4:	e8bd0008 	ldmfd	sp!, {r3}

000037a8 <l3436>:
    37a8:	315d11df 	ldrsbcc	r1, [sp, #-31]	; 0xffffffe1

000037ac <l3437>:
    37ac:	e92d447a 	push	{r1, r3, r4, r5, r6, sl, lr}

000037b0 <l3438>:
    37b0:	080d2806 	stmdaeq	sp, {r1, r2, fp, sp}

000037b4 <l3439>:
    37b4:	e3a0c00d 	mov	ip, #13

000037b8 <l3440>:
    37b8:	e75d100c 	ldrb	r1, [sp, -ip]

000037bc <l3441>:
    37bc:	e5ade020 	str	lr, [sp, #32]!

000037c0 <l3442>:
    37c0:	e52df020 	str	pc, [sp, #-32]!

000037c4 <l3443>:
    37c4:	489d0036 	ldmmi	sp, {r1, r2, r4, r5}

000037c8 <l3444>:
    37c8:	314db1b2 	strhcc	fp, [sp, #-18]	; 0xffffffee

000037cc <l3445>:
    37cc:	65cd2007 	strbvs	r2, [sp, #7]

000037d0 <l3446>:
    37d0:	e1a00000 	nop			; (mov r0, r0)

000037d4 <l3447>:
    37d4:	e81d5000 	ldmda	sp, {ip, lr}

000037d8 <l3448>:
    37d8:	e5bd4008 	ldr	r4, [sp, #8]!

000037dc <l3449>:
    37dc:	e93d0433 	ldmdb	sp!, {r0, r1, r4, r5, sl}

000037e0 <l3450>:
    37e0:	e15d90b6 	ldrh	r9, [sp, #-6]

000037e4 <l3451>:
    37e4:	e99d0010 	ldmib	sp, {r4}

000037e8 <l3452>:
    37e8:	e3a07008 	mov	r7, #8

000037ec <l3453>:
    37ec:	e11d80b7 	ldrh	r8, [sp, -r7]

000037f0 <l3454>:
    37f0:	e1a00000 	nop			; (mov r0, r0)

000037f4 <l3455>:
    37f4:	e3a09008 	mov	r9, #8

000037f8 <l3456>:
    37f8:	e19d80b9 	ldrh	r8, [sp, r9]

000037fc <l3457>:
    37fc:	45cd3010 	strbmi	r3, [sp, #16]

00003800 <l3458>:
    3800:	81dda0b4 	ldrhhi	sl, [sp, #4]

00003804 <l3459>:
    3804:	e1ddc2ba 	ldrh	ip, [sp, #42]	; 0x2a

00003808 <l3460>:
    3808:	e51d900c 	ldr	r9, [sp, #-12]

0000380c <l3461>:
    380c:	e5bdc030 	ldr	ip, [sp, #48]!	; 0x30

00003810 <l3462>:
    3810:	e8ad8020 	stmia	sp!, {r5, pc}

00003814 <l3463>:
    3814:	754db025 	strbvc	fp, [sp, #-37]	; 0x25

00003818 <l3464>:
    3818:	e3a0e01c 	mov	lr, #28

0000381c <l3465>:
    381c:	771dc00e 	ldrvc	ip, [sp, -lr]

00003820 <l3466>:
    3820:	754d802d 	strbvc	r8, [sp, #-45]	; 0x2d

00003824 <l3467>:
    3824:	e1a00000 	nop			; (mov r0, r0)

00003828 <l3468>:
    3828:	b80db5ff 	stmdalt	sp, {r0, r1, r2, r3, r4, r5, r6, r7, r8, sl, ip, sp, pc}

0000382c <l3469>:
    382c:	e3a0900e 	mov	r9, #14

00003830 <l3470>:
    3830:	e74d2009 	strb	r2, [sp, -r9]

00003834 <l3471>:
    3834:	a14d90b8 	strhge	r9, [sp, #-8]

00003838 <l3472>:
    3838:	d14d73b4 	strhle	r7, [sp, #-52]	; 0xffffffcc

0000383c <l3473>:
    383c:	155d800b 	ldrbne	r8, [sp, #-11]

00003840 <l3474>:
    3840:	e3a0e032 	mov	lr, #50	; 0x32

00003844 <l3475>:
    3844:	a11d70fe 	ldrshge	r7, [sp, -lr]

00003848 <l3476>:
    3848:	e82de000 	stmda	sp!, {sp, lr, pc}

0000384c <l3477>:
    384c:	e14de0be 	strh	lr, [sp, #-14]

00003850 <l3478>:
    3850:	e3a06008 	mov	r6, #8

00003854 <l3479>:
    3854:	e11d50f6 	ldrsh	r5, [sp, -r6]

00003858 <l3480>:
    3858:	915db2b8 	ldrhls	fp, [sp, #-40]	; 0xffffffd8

0000385c <l3481>:
    385c:	c80de8a6 	stmdagt	sp, {r1, r2, r5, r7, fp, sp, lr, pc}

00003860 <l3482>:
    3860:	e41da02c 	ldr	sl, [sp], #-44	; 0x2c

00003864 <l3483>:
    3864:	e41de004 	ldr	lr, [sp], #-4

00003868 <l3484>:
    3868:	e3a04036 	mov	r4, #54	; 0x36

0000386c <l3485>:
    386c:	c18d50b4 	strhgt	r5, [sp, r4]

00003870 <l3486>:
    3870:	e3a08034 	mov	r8, #52	; 0x34

00003874 <l3487>:
    3874:	b19d50b8 	ldrhlt	r5, [sp, r8]

00003878 <l3488>:
    3878:	b1dd13b2 	ldrhlt	r1, [sp, #50]	; 0x32

0000387c <l3489>:
    387c:	e89d1440 	ldm	sp, {r6, sl, ip}

00003880 <l3490>:
    3880:	a5dd5020 	ldrbge	r5, [sp, #32]

00003884 <l3491>:
    3884:	e5adf014 	str	pc, [sp, #20]!

00003888 <l3492>:
    3888:	e3a05005 	mov	r5, #5

0000388c <l3493>:
    388c:	e11dc0d5 	ldrsb	ip, [sp, -r5]

00003890 <l3494>:
    3890:	e3a0001a 	mov	r0, #26

00003894 <l3495>:
    3894:	e75da000 	ldrb	sl, [sp, -r0]

00003898 <l3496>:
    3898:	e3a0200e 	mov	r2, #14

0000389c <l3497>:
    389c:	e74d6002 	strb	r6, [sp, -r2]

000038a0 <l3498>:
    38a0:	e41d0014 	ldr	r0, [sp], #-20

000038a4 <l3499>:
    38a4:	988d2ca1 	stmls	sp, {r0, r5, r7, sl, fp, sp}

000038a8 <l3500>:
    38a8:	e8bd0510 	pop	{r4, r8, sl}

000038ac <l3501>:
    38ac:	e3a0b007 	mov	fp, #7

000038b0 <l3502>:
    38b0:	e75d400b 	ldrb	r4, [sp, -fp]

000038b4 <l3503>:
    38b4:	e3a0c010 	mov	ip, #16

000038b8 <l3504>:
    38b8:	e72d600c 	str	r6, [sp, -ip]!

000038bc <l3505>:
    38bc:	e8bd57cf 	pop	{r0, r1, r2, r3, r6, r7, r8, r9, sl, ip, lr}

000038c0 <l3506>:
    38c0:	e50d700c 	str	r7, [sp, #-12]

000038c4 <l3507>:
    38c4:	e83d4e2b 	ldmda	sp!, {r0, r1, r3, r5, r9, sl, fp, lr}

000038c8 <l3508>:
    38c8:	e58df014 	str	pc, [sp, #20]

000038cc <l3509>:
    38cc:	e1a00000 	nop			; (mov r0, r0)

000038d0 <l3510>:
    38d0:	e9addfb5 	stmib	sp!, {r0, r2, r4, r5, r7, r8, r9, sl, fp, ip, lr, pc}

000038d4 <l3511>:
    38d4:	e55d701a 	ldrb	r7, [sp, #-26]

000038d8 <l3512>:
    38d8:	e83d4120 	ldmda	sp!, {r5, r8, lr}

000038dc <l3513>:
    38dc:	81dd81b0 	ldrhhi	r8, [sp, #16]

000038e0 <l3514>:
    38e0:	e90db024 	stmdb	sp, {r2, r5, ip, sp, pc}

000038e4 <l3515>:
    38e4:	e90d5c50 	stmdb	sp, {r4, r6, sl, fp, ip, lr}

000038e8 <l3516>:
    38e8:	e9bd0400 	ldmib	sp!, {sl}

000038ec <l3517>:
    38ec:	e8ad2000 	stmia	sp!, {sp}

000038f0 <l3518>:
    38f0:	e8bd0110 	pop	{r4, r8}

000038f4 <l3519>:
    38f4:	e3a08003 	mov	r8, #3

000038f8 <l3520>:
    38f8:	b74d3008 	strblt	r3, [sp, -r8]

000038fc <l3521>:
    38fc:	e3a0000d 	mov	r0, #13

00003900 <l3522>:
    3900:	811d90d0 	ldrsbhi	r9, [sp, -r0]

00003904 <l3523>:
    3904:	e3a0200a 	mov	r2, #10

00003908 <l3524>:
    3908:	c11d20f2 	ldrshgt	r2, [sp, -r2]

0000390c <l3525>:
    390c:	e8ad2000 	stmia	sp!, {sp}

00003910 <l3526>:
    3910:	e55d6022 	ldrb	r6, [sp, #-34]	; 0x22

00003914 <l3527>:
    3914:	615db3bc 	ldrhvs	fp, [sp, #-60]	; 0xffffffc4

00003918 <l3528>:
    3918:	e1a00000 	nop			; (mov r0, r0)

0000391c <l3529>:
    391c:	554d1021 	strbpl	r1, [sp, #-33]	; 0x21

00003920 <l3530>:
    3920:	e92d04b0 	push	{r4, r5, r7, sl}

00003924 <l3531>:
    3924:	081d5edf 	ldmdaeq	sp, {r0, r1, r2, r3, r4, r6, r7, r9, sl, fp, ip, lr}

00003928 <l3532>:
    3928:	e40df014 	str	pc, [sp], #-20

0000392c <l3533>:
    392c:	954d701c 	strbls	r7, [sp, #-28]

00003930 <l3534>:
    3930:	e3a01010 	mov	r1, #16

00003934 <l3535>:
    3934:	e68da001 	str	sl, [sp], r1

00003938 <l3536>:
    3938:	e15d31f2 	ldrsh	r3, [sp, #-18]	; 0xffffffee

0000393c <l3537>:
    393c:	e3a07024 	mov	r7, #36	; 0x24

00003940 <l3538>:
    3940:	e60d4007 	str	r4, [sp], -r7

00003944 <l3539>:
    3944:	e1a00000 	nop			; (mov r0, r0)

00003948 <l3540>:
    3948:	e1a00000 	nop			; (mov r0, r0)

0000394c <l3541>:
    394c:	a5dda004 	ldrbge	sl, [sp, #4]

00003950 <l3542>:
    3950:	e3a0a03b 	mov	sl, #59	; 0x3b

00003954 <l3543>:
    3954:	c19d00da 	ldrsbgt	r0, [sp, sl]

00003958 <l3544>:
    3958:	e1cd71bc 	strh	r7, [sp, #28]

0000395c <l3545>:
    395c:	a1ddb0bc 	ldrhge	fp, [sp, #12]

00003960 <l3546>:
    3960:	e5ad401c 	str	r4, [sp, #28]!

00003964 <l3547>:
    3964:	e3a0b002 	mov	fp, #2

00003968 <l3548>:
    3968:	e19d70db 	ldrsb	r7, [sp, fp]

0000396c <l3549>:
    396c:	e3a0202a 	mov	r2, #42	; 0x2a

00003970 <l3550>:
    3970:	611d70f2 	ldrshvs	r7, [sp, -r2]

00003974 <l3551>:
    3974:	e3a0900e 	mov	r9, #14

00003978 <l3552>:
    3978:	e19d70b9 	ldrh	r7, [sp, r9]

0000397c <l3553>:
    397c:	31dd41dd 	ldrsbcc	r4, [sp, #29]

00003980 <l3554>:
    3980:	e9ad4441 	stmib	sp!, {r0, r6, sl, lr}

00003984 <l3555>:
    3984:	a54d402e 	strbge	r4, [sp, #-46]	; 0x2e

00003988 <l3556>:
    3988:	e3a02002 	mov	r2, #2

0000398c <l3557>:
    398c:	d11d90f2 	ldrshle	r9, [sp, -r2]

00003990 <l3558>:
    3990:	d15d50fe 	ldrshle	r5, [sp, #-14]

00003994 <l3559>:
    3994:	e48d800c 	str	r8, [sp], #12

00003998 <l3560>:
    3998:	514d53be 	strhpl	r5, [sp, #-62]	; 0xffffffc2

0000399c <l3561>:
    399c:	e53d0020 	ldr	r0, [sp, #-32]!

000039a0 <l3562>:
    39a0:	e82d5049 	stmda	sp!, {r0, r3, r6, ip, lr}

000039a4 <l3563>:
    39a4:	e3a02013 	mov	r2, #19

000039a8 <l3564>:
    39a8:	d11de0d2 	ldrsble	lr, [sp, -r2]

000039ac <l3565>:
    39ac:	e8bd5ffb 	pop	{r0, r1, r3, r4, r5, r6, r7, r8, r9, sl, fp, ip, lr}

000039b0 <l3566>:
    39b0:	515d03dc 	ldrsbpl	r0, [sp, #-60]	; 0xffffffc4

000039b4 <l3567>:
    39b4:	e1a00000 	nop			; (mov r0, r0)

000039b8 <l3568>:
    39b8:	e3a05043 	mov	r5, #67	; 0x43

000039bc <l3569>:
    39bc:	e75d4005 	ldrb	r4, [sp, -r5]

000039c0 <l3570>:
    39c0:	e3a05046 	mov	r5, #70	; 0x46

000039c4 <l3571>:
    39c4:	d11d30f5 	ldrshle	r3, [sp, -r5]

000039c8 <l3572>:
    39c8:	e3a02034 	mov	r2, #52	; 0x34

000039cc <l3573>:
    39cc:	e11d10f2 	ldrsh	r1, [sp, -r2]

000039d0 <l3574>:
    39d0:	e1a00000 	nop			; (mov r0, r0)

000039d4 <l3575>:
    39d4:	e14d21b8 	strh	r2, [sp, #-24]	; 0xffffffe8

000039d8 <l3576>:
    39d8:	e82d1000 	stmda	sp!, {ip}

000039dc <l3577>:
    39dc:	e83d0088 	ldmda	sp!, {r3, r7}

000039e0 <l3578>:
    39e0:	e3a00006 	mov	r0, #6

000039e4 <l3579>:
    39e4:	011d50f0 	ldrsheq	r5, [sp, -r0]

000039e8 <l3580>:
    39e8:	615da2d3 	ldrsbvs	sl, [sp, #-35]	; 0xffffffdd

000039ec <l3581>:
    39ec:	e3a0e002 	mov	lr, #2

000039f0 <l3582>:
    39f0:	410db0be 	strhmi	fp, [sp, -lr]

000039f4 <l3583>:
    39f4:	e54d4016 	strb	r4, [sp, #-22]

000039f8 <l3584>:
    39f8:	e5dd800f 	ldrb	r8, [sp, #15]

000039fc <l3585>:
    39fc:	450d4018 	strmi	r4, [sp, #-24]

00003a00 <l3586>:
    3a00:	e3a05038 	mov	r5, #56	; 0x38

00003a04 <l3587>:
    3a04:	775d0005 	ldrbvc	r0, [sp, -r5]

00003a08 <l3588>:
    3a08:	e3a0202a 	mov	r2, #42	; 0x2a

00003a0c <l3589>:
    3a0c:	e11d00b2 	ldrh	r0, [sp, -r2]

00003a10 <l3590>:
    3a10:	014d52b4 	strheq	r5, [sp, #-36]	; 0xffffffdc

00003a14 <l3591>:
    3a14:	e3a05008 	mov	r5, #8

00003a18 <l3592>:
    3a18:	e73de005 	ldr	lr, [sp, -r5]!

00003a1c <l3593>:
    3a1c:	e52de020 	str	lr, [sp, #-32]!

00003a20 <l3594>:
    3a20:	a5dd9028 	ldrbge	r9, [sp, #40]	; 0x28

00003a24 <l3595>:
    3a24:	215dc0f4 	ldrshcs	ip, [sp, #-4]

00003a28 <l3596>:
    3a28:	e93d0040 	ldmdb	sp!, {r6}

00003a2c <l3597>:
    3a2c:	e5bd4030 	ldr	r4, [sp, #48]!	; 0x30

00003a30 <l3598>:
    3a30:	e14d22b8 	strh	r2, [sp, #-40]	; 0xffffffd8

00003a34 <l3599>:
    3a34:	e8ad0240 	stmia	sp!, {r6, r9}

00003a38 <l3600>:
    3a38:	e3a06004 	mov	r6, #4

00003a3c <l3601>:
    3a3c:	e71d7006 	ldr	r7, [sp, -r6]

00003a40 <l3602>:
    3a40:	e3a09022 	mov	r9, #34	; 0x22

00003a44 <l3603>:
    3a44:	e11d60b9 	ldrh	r6, [sp, -r9]

00003a48 <l3604>:
    3a48:	e1a00000 	nop			; (mov r0, r0)

00003a4c <l3605>:
    3a4c:	e90d2201 	stmdb	sp, {r0, r9, sp}

00003a50 <l3606>:
    3a50:	c15d90db 	ldrsbgt	r9, [sp, #-11]

00003a54 <l3607>:
    3a54:	715da0fa 	ldrshvc	sl, [sp, #-10]

00003a58 <l3608>:
    3a58:	e83d5043 	ldmda	sp!, {r0, r1, r6, ip, lr}

00003a5c <l3609>:
    3a5c:	391d0840 	ldmdbcc	sp, {r6, fp}

00003a60 <l3610>:
    3a60:	e55d0032 	ldrb	r0, [sp, #-50]	; 0x32

00003a64 <l3611>:
    3a64:	051d402c 	ldreq	r4, [sp, #-44]	; 0x2c

00003a68 <l3612>:
    3a68:	815d13d0 	ldrsbhi	r1, [sp, #-48]	; 0xffffffd0

00003a6c <l3613>:
    3a6c:	e92d4c73 	push	{r0, r1, r4, r5, r6, sl, fp, lr}

00003a70 <l3614>:
    3a70:	e3a0801e 	mov	r8, #30

00003a74 <l3615>:
    3a74:	e18da0b8 	strh	sl, [sp, r8]

00003a78 <l3616>:
    3a78:	e1a00000 	nop			; (mov r0, r0)

00003a7c <l3617>:
    3a7c:	e1a00000 	nop			; (mov r0, r0)

00003a80 <l3618>:
    3a80:	45cd102a 	strbmi	r1, [sp, #42]	; 0x2a

00003a84 <l3619>:
    3a84:	e8ade000 	stmia	sp!, {sp, lr, pc}

00003a88 <l3620>:
    3a88:	688d1058 	stmvs	sp, {r3, r4, r6, ip}

00003a8c <l3621>:
    3a8c:	e53dc00c 	ldr	ip, [sp, #-12]!

00003a90 <l3622>:
    3a90:	e3a0a00f 	mov	sl, #15

00003a94 <l3623>:
    3a94:	77cde00a 	strbvc	lr, [sp, sl]

00003a98 <l3624>:
    3a98:	898d0094 	stmibhi	sp, {r2, r4, r7}

00003a9c <l3625>:
    3a9c:	e1dda1b4 	ldrh	sl, [sp, #20]

00003aa0 <l3626>:
    3aa0:	e3a09028 	mov	r9, #40	; 0x28

00003aa4 <l3627>:
    3aa4:	e7ad9009 	str	r9, [sp, r9]!

00003aa8 <l3628>:
    3aa8:	e3a0600a 	mov	r6, #10

00003aac <l3629>:
    3aac:	910d60b6 	strhls	r6, [sp, -r6]

00003ab0 <l3630>:
    3ab0:	e3a0900c 	mov	r9, #12

00003ab4 <l3631>:
    3ab4:	019d00f9 	ldrsheq	r0, [sp, r9]

00003ab8 <l3632>:
    3ab8:	e8ad0001 	stmia	sp!, {r0}

00003abc <l3633>:
    3abc:	e3a0801c 	mov	r8, #28

00003ac0 <l3634>:
    3ac0:	071d5008 	ldreq	r5, [sp, -r8]

00003ac4 <l3635>:
    3ac4:	e3a06018 	mov	r6, #24

00003ac8 <l3636>:
    3ac8:	e61d1006 	ldr	r1, [sp], -r6

00003acc <l3637>:
    3acc:	e3a01021 	mov	r1, #33	; 0x21

00003ad0 <l3638>:
    3ad0:	e7cd3001 	strb	r3, [sp, r1]

00003ad4 <l3639>:
    3ad4:	791d115d 	ldmdbvc	sp, {r0, r2, r3, r4, r6, r8, ip}

00003ad8 <l3640>:
    3ad8:	815d60f2 	ldrshhi	r6, [sp, #-2]

00003adc <l3641>:
    3adc:	e1cdb2b2 	strh	fp, [sp, #34]	; 0x22

00003ae0 <l3642>:
    3ae0:	e48d6010 	str	r6, [sp], #16

00003ae4 <l3643>:
    3ae4:	45dd4011 	ldrbmi	r4, [sp, #17]

00003ae8 <l3644>:
    3ae8:	e1a00000 	nop			; (mov r0, r0)

00003aec <l3645>:
    3aec:	e15de2d3 	ldrsb	lr, [sp, #-35]	; 0xffffffdd

00003af0 <l3646>:
    3af0:	e54d100c 	strb	r1, [sp, #-12]

00003af4 <l3647>:
    3af4:	b14de1b0 	strhlt	lr, [sp, #-16]

00003af8 <l3648>:
    3af8:	b5dd7005 	ldrblt	r7, [sp, #5]

00003afc <l3649>:
    3afc:	e3a0200c 	mov	r2, #12

00003b00 <l3650>:
    3b00:	e19d10d2 	ldrsb	r1, [sp, r2]

00003b04 <l3651>:
    3b04:	e3a06010 	mov	r6, #16

00003b08 <l3652>:
    3b08:	e19d30b6 	ldrh	r3, [sp, r6]

00003b0c <l3653>:
    3b0c:	215d30fe 	ldrshcs	r3, [sp, #-14]

00003b10 <l3654>:
    3b10:	a5dd6001 	ldrbge	r6, [sp, #1]

00003b14 <l3655>:
    3b14:	188d0140 	stmne	sp, {r6, r8}

00003b18 <l3656>:
    3b18:	e83d0801 	ldmda	sp!, {r0, fp}

00003b1c <l3657>:
    3b1c:	e9ad0800 	stmib	sp!, {fp}

00003b20 <l3658>:
    3b20:	e82d0002 	stmda	sp!, {r1}

00003b24 <l3659>:
    3b24:	389d0081 	ldmcc	sp, {r0, r7}

00003b28 <l3660>:
    3b28:	e3a01010 	mov	r1, #16

00003b2c <l3661>:
    3b2c:	a7dd1001 	ldrbge	r1, [sp, r1]

00003b30 <l3662>:
    3b30:	e82d2000 	stmda	sp!, {sp}

00003b34 <l3663>:
    3b34:	c1cd50b4 	strhgt	r5, [sp, #4]

00003b38 <l3664>:
    3b38:	e3a08013 	mov	r8, #19

00003b3c <l3665>:
    3b3c:	575d2008 	ldrbpl	r2, [sp, -r8]

00003b40 <l3666>:
    3b40:	51dda0ba 	ldrhpl	sl, [sp, #10]

00003b44 <l3667>:
    3b44:	e3a0c002 	mov	ip, #2

00003b48 <l3668>:
    3b48:	911d90fc 	ldrshls	r9, [sp, -ip]

00003b4c <l3669>:
    3b4c:	e1a00000 	nop			; (mov r0, r0)

00003b50 <l3670>:
    3b50:	95dda01f 	ldrbls	sl, [sp, #31]

00003b54 <l3671>:
    3b54:	e3a0b024 	mov	fp, #36	; 0x24

00003b58 <l3672>:
    3b58:	271d200b 	ldrcs	r2, [sp, -fp]

00003b5c <l3673>:
    3b5c:	e1a00000 	nop			; (mov r0, r0)

00003b60 <l3674>:
    3b60:	e1a00000 	nop			; (mov r0, r0)

00003b64 <l3675>:
    3b64:	c14d71b4 	strhgt	r7, [sp, #-20]	; 0xffffffec

00003b68 <l3676>:
    3b68:	a15d22b2 	ldrhge	r2, [sp, #-34]	; 0xffffffde

00003b6c <l3677>:
    3b6c:	e9bd4224 	ldmib	sp!, {r2, r5, r9, lr}

00003b70 <l3678>:
    3b70:	e3a0e018 	mov	lr, #24

00003b74 <l3679>:
    3b74:	e72db00e 	str	fp, [sp, -lr]!

00003b78 <l3680>:
    3b78:	e9bd0800 	ldmib	sp!, {fp}

00003b7c <l3681>:
    3b7c:	850d2020 	strhi	r2, [sp, #-32]

00003b80 <l3682>:
    3b80:	580d361c 	stmdapl	sp, {r2, r3, r4, r9, sl, ip, sp}

00003b84 <l3683>:
    3b84:	e9bd464d 	ldmib	sp!, {r0, r2, r3, r6, r9, sl, lr}

00003b88 <l3684>:
    3b88:	915d51be 	ldrhls	r5, [sp, #-30]	; 0xffffffe2

00003b8c <l3685>:
    3b8c:	e14d22b6 	strh	r2, [sp, #-38]	; 0xffffffda

00003b90 <l3686>:
    3b90:	e93d081d 	ldmdb	sp!, {r0, r2, r3, r4, fp}

00003b94 <l3687>:
    3b94:	c15d52f0 	ldrshgt	r5, [sp, #-32]	; 0xffffffe0

00003b98 <l3688>:
    3b98:	e82d5000 	stmda	sp!, {ip, lr}

00003b9c <l3689>:
    3b9c:	e3a0c020 	mov	ip, #32

00003ba0 <l3690>:
    3ba0:	419d60fc 	ldrshmi	r6, [sp, ip]

00003ba4 <l3691>:
    3ba4:	e40d3018 	str	r3, [sp], #-24

00003ba8 <l3692>:
    3ba8:	e8bd0027 	pop	{r0, r1, r2, r5}

00003bac <l3693>:
    3bac:	e15d31db 	ldrsb	r3, [sp, #-27]	; 0xffffffe5

00003bb0 <l3694>:
    3bb0:	e3a0b004 	mov	fp, #4

00003bb4 <l3695>:
    3bb4:	e74d300b 	strb	r3, [sp, -fp]

00003bb8 <l3696>:
    3bb8:	e92d0c38 	push	{r3, r4, r5, sl, fp}

00003bbc <l3697>:
    3bbc:	e8bd0914 	pop	{r2, r4, r8, fp}

00003bc0 <l3698>:
    3bc0:	889d1faf 	ldmhi	sp, {r0, r1, r2, r3, r5, r7, r8, r9, sl, fp, ip}

00003bc4 <l3699>:
    3bc4:	e5cdc003 	strb	ip, [sp, #3]

00003bc8 <l3700>:
    3bc8:	e1a00000 	nop			; (mov r0, r0)

00003bcc <l3701>:
    3bcc:	e3a0e014 	mov	lr, #20

00003bd0 <l3702>:
    3bd0:	e75d100e 	ldrb	r1, [sp, -lr]

00003bd4 <l3703>:
    3bd4:	e3a0100c 	mov	r1, #12

00003bd8 <l3704>:
    3bd8:	419d70d1 	ldrsbmi	r7, [sp, r1]

00003bdc <l3705>:
    3bdc:	e9adc040 	stmib	sp!, {r6, lr, pc}

00003be0 <l3706>:
    3be0:	e92d2000 	stmfd	sp!, {sp}

00003be4 <l3707>:
    3be4:	e3a0b003 	mov	fp, #3

00003be8 <l3708>:
    3be8:	e11d60db 	ldrsb	r6, [sp, -fp]

00003bec <l3709>:
    3bec:	e1cde1bc 	strh	lr, [sp, #28]

00003bf0 <l3710>:
    3bf0:	e92d6000 	push	{sp, lr}

00003bf4 <l3711>:
    3bf4:	e99d1840 	ldmib	sp, {r6, fp, ip}

00003bf8 <l3712>:
    3bf8:	e8ad4001 	stmia	sp!, {r0, lr}

00003bfc <l3713>:
    3bfc:	e49d1000 	ldr	r1, [sp], #0

00003c00 <l3714>:
    3c00:	e3a0c001 	mov	ip, #1

00003c04 <l3715>:
    3c04:	511d90dc 	ldrsbpl	r9, [sp, -ip]

00003c08 <l3716>:
    3c08:	e1dd01f6 	ldrsh	r0, [sp, #22]

00003c0c <l3717>:
    3c0c:	01dd51d5 	ldrsbeq	r5, [sp, #21]

00003c10 <l3718>:
    3c10:	e3a0a020 	mov	sl, #32

00003c14 <l3719>:
    3c14:	e60db00a 	str	fp, [sp], -sl

00003c18 <l3720>:
    3c18:	e98d4110 	stmib	sp, {r4, r8, lr}

00003c1c <l3721>:
    3c1c:	e49d7004 	pop	{r7}		; (ldr r7, [sp], #4)

00003c20 <l3722>:
    3c20:	e1dd23b4 	ldrh	r2, [sp, #52]	; 0x34

00003c24 <l3723>:
    3c24:	e1a00000 	nop			; (mov r0, r0)

00003c28 <l3724>:
    3c28:	e3a05037 	mov	r5, #55	; 0x37

00003c2c <l3725>:
    3c2c:	97ddc005 	ldrbls	ip, [sp, r5]

00003c30 <l3726>:
    3c30:	e1a00000 	nop			; (mov r0, r0)

00003c34 <l3727>:
    3c34:	e48d301c 	str	r3, [sp], #28

00003c38 <l3728>:
    3c38:	e14dc2b0 	strh	ip, [sp, #-32]	; 0xffffffe0

00003c3c <l3729>:
    3c3c:	61dda1b6 	ldrhvs	sl, [sp, #22]

00003c40 <l3730>:
    3c40:	e3a0a01c 	mov	sl, #28

00003c44 <l3731>:
    3c44:	e7bd400a 	ldr	r4, [sp, sl]!

00003c48 <l3732>:
    3c48:	e3a00030 	mov	r0, #48	; 0x30

00003c4c <l3733>:
    3c4c:	e11d50d0 	ldrsb	r5, [sp, -r0]

00003c50 <l3734>:
    3c50:	e3a02006 	mov	r2, #6

00003c54 <l3735>:
    3c54:	e7dd9002 	ldrb	r9, [sp, r2]

00003c58 <l3736>:
    3c58:	e14db1bc 	strh	fp, [sp, #-28]	; 0xffffffe4

00003c5c <l3737>:
    3c5c:	515d90b6 	ldrhpl	r9, [sp, #-6]

00003c60 <l3738>:
    3c60:	e82da000 	stmda	sp!, {sp, pc}

00003c64 <l3739>:
    3c64:	e3a0001f 	mov	r0, #31

00003c68 <l3740>:
    3c68:	175d2000 	ldrbne	r2, [sp, -r0]

00003c6c <l3741>:
    3c6c:	e8ad10b0 	stmia	sp!, {r4, r5, r7, ip}

00003c70 <l3742>:
    3c70:	e15d52b8 	ldrh	r5, [sp, #-40]	; 0xffffffd8

00003c74 <l3743>:
    3c74:	e3a0800b 	mov	r8, #11

00003c78 <l3744>:
    3c78:	075db008 	ldrbeq	fp, [sp, -r8]

00003c7c <l3745>:
    3c7c:	e3a08018 	mov	r8, #24

00003c80 <l3746>:
    3c80:	e60d8008 	str	r8, [sp], -r8

00003c84 <l3747>:
    3c84:	e82d0d76 	stmda	sp!, {r1, r2, r4, r5, r6, r8, sl, fp}

00003c88 <l3748>:
    3c88:	e1cd81b4 	strh	r8, [sp, #20]

00003c8c <l3749>:
    3c8c:	e83d0022 	ldmda	sp!, {r1, r5}

00003c90 <l3750>:
    3c90:	e3a0202c 	mov	r2, #44	; 0x2c

00003c94 <l3751>:
    3c94:	079d5002 	ldreq	r5, [sp, r2]

00003c98 <l3752>:
    3c98:	e5ad6024 	str	r6, [sp, #36]!	; 0x24

00003c9c <l3753>:
    3c9c:	e90d0840 	stmdb	sp, {r6, fp}

00003ca0 <l3754>:
    3ca0:	e54d8017 	strb	r8, [sp, #-23]

00003ca4 <l3755>:
    3ca4:	e3a0a012 	mov	sl, #18

00003ca8 <l3756>:
    3ca8:	e19da0da 	ldrsb	sl, [sp, sl]

00003cac <l3757>:
    3cac:	e3a0b00d 	mov	fp, #13

00003cb0 <l3758>:
    3cb0:	e7cd100b 	strb	r1, [sp, fp]

00003cb4 <l3759>:
    3cb4:	b14d10b6 	strhlt	r1, [sp, #-6]

00003cb8 <l3760>:
    3cb8:	e80d0827 	stmda	sp, {r0, r1, r2, r5, fp}

00003cbc <l3761>:
    3cbc:	a91d5d24 	ldmdbge	sp, {r2, r5, r8, sl, fp, ip, lr}

00003cc0 <l3762>:
    3cc0:	e3a0c018 	mov	ip, #24

00003cc4 <l3763>:
    3cc4:	e7ad700c 	str	r7, [sp, ip]!

00003cc8 <l3764>:
    3cc8:	e3a0b020 	mov	fp, #32

00003ccc <l3765>:
    3ccc:	510d70bb 	strhpl	r7, [sp, -fp]

00003cd0 <l3766>:
    3cd0:	e53d8028 	ldr	r8, [sp, #-40]!	; 0x28

00003cd4 <l3767>:
    3cd4:	e9bd0020 	ldmib	sp!, {r5}

00003cd8 <l3768>:
    3cd8:	e82d8004 	stmda	sp!, {r2, pc}

00003cdc <l3769>:
    3cdc:	e88d67f4 	stm	sp, {r2, r4, r5, r6, r7, r8, r9, sl, sp, lr}

00003ce0 <l3770>:
    3ce0:	31dd00f8 	ldrshcc	r0, [sp, #8]

00003ce4 <l3771>:
    3ce4:	e53d5010 	ldr	r5, [sp, #-16]!

00003ce8 <l3772>:
    3ce8:	e1cd53b0 	strh	r5, [sp, #48]	; 0x30

00003cec <l3773>:
    3cec:	e8ad0881 	stmia	sp!, {r0, r7, fp}

00003cf0 <l3774>:
    3cf0:	e3a05002 	mov	r5, #2

00003cf4 <l3775>:
    3cf4:	c75d1005 	ldrbgt	r1, [sp, -r5]

00003cf8 <l3776>:
    3cf8:	e3a0b000 	mov	fp, #0

00003cfc <l3777>:
    3cfc:	e69d300b 	ldr	r3, [sp], fp

00003d00 <l3778>:
    3d00:	e14da0b4 	strh	sl, [sp, #-4]

00003d04 <l3779>:
    3d04:	e3a08014 	mov	r8, #20

00003d08 <l3780>:
    3d08:	e11d70f8 	ldrsh	r7, [sp, -r8]

00003d0c <l3781>:
    3d0c:	e80d0202 	stmda	sp, {r1, r9}

00003d10 <l3782>:
    3d10:	e3a0600c 	mov	r6, #12

00003d14 <l3783>:
    3d14:	e18d90b6 	strh	r9, [sp, r6]

00003d18 <l3784>:
    3d18:	e3a0a01e 	mov	sl, #30

00003d1c <l3785>:
    3d1c:	619d80ba 	ldrhvs	r8, [sp, sl]

00003d20 <l3786>:
    3d20:	e5ddc020 	ldrb	ip, [sp, #32]

00003d24 <l3787>:
    3d24:	e3a02034 	mov	r2, #52	; 0x34

00003d28 <l3788>:
    3d28:	e68de002 	str	lr, [sp], r2

00003d2c <l3789>:
    3d2c:	115d83dd 	ldrsbne	r8, [sp, #-61]	; 0xffffffc3

00003d30 <l3790>:
    3d30:	d55d002c 	ldrble	r0, [sp, #-44]	; 0x2c

00003d34 <l3791>:
    3d34:	e3a01043 	mov	r1, #67	; 0x43

00003d38 <l3792>:
    3d38:	e11d30d1 	ldrsb	r3, [sp, -r1]

00003d3c <l3793>:
    3d3c:	415d31b0 	ldrhmi	r3, [sp, #-16]

00003d40 <l3794>:
    3d40:	c81d0008 	ldmdagt	sp, {r3}

00003d44 <l3795>:
    3d44:	654dc023 	strbvs	ip, [sp, #-35]	; 0x23

00003d48 <l3796>:
    3d48:	c55d5031 	ldrbgt	r5, [sp, #-49]	; 0x31

00003d4c <l3797>:
    3d4c:	e3a0e02f 	mov	lr, #47	; 0x2f

00003d50 <l3798>:
    3d50:	875d400e 	ldrbhi	r4, [sp, -lr]

00003d54 <l3799>:
    3d54:	c1dd80d1 	ldrsbgt	r8, [sp, #1]

00003d58 <l3800>:
    3d58:	815db0f8 	ldrshhi	fp, [sp, #-8]

00003d5c <l3801>:
    3d5c:	e83d5eef 	ldmda	sp!, {r0, r1, r2, r3, r5, r6, r7, r9, sl, fp, ip, lr}

00003d60 <l3802>:
    3d60:	e3a0b002 	mov	fp, #2

00003d64 <l3803>:
    3d64:	e7cdc00b 	strb	ip, [sp, fp]

00003d68 <l3804>:
    3d68:	e3a0c016 	mov	ip, #22

00003d6c <l3805>:
    3d6c:	e10d80bc 	strh	r8, [sp, -ip]

00003d70 <l3806>:
    3d70:	e83d1620 	ldmda	sp!, {r5, r9, sl, ip}

00003d74 <l3807>:
    3d74:	61dd80d7 	ldrsbvs	r8, [sp, #7]

00003d78 <l3808>:
    3d78:	e3a01026 	mov	r1, #38	; 0x26

00003d7c <l3809>:
    3d7c:	519db0f1 	ldrshpl	fp, [sp, r1]

00003d80 <l3810>:
    3d80:	e9bd0224 	ldmib	sp!, {r2, r5, r9}

00003d84 <l3811>:
    3d84:	e3a0b014 	mov	fp, #20

00003d88 <l3812>:
    3d88:	e73de00b 	ldr	lr, [sp, -fp]!

00003d8c <l3813>:
    3d8c:	e3a00038 	mov	r0, #56	; 0x38

00003d90 <l3814>:
    3d90:	b18d40b0 	strhlt	r4, [sp, r0]

00003d94 <l3815>:
    3d94:	e3a06028 	mov	r6, #40	; 0x28

00003d98 <l3816>:
    3d98:	179d5006 	ldrne	r5, [sp, r6]

00003d9c <l3817>:
    3d9c:	e59d2010 	ldr	r2, [sp, #16]

00003da0 <l3818>:
    3da0:	e58d6034 	str	r6, [sp, #52]	; 0x34

00003da4 <l3819>:
    3da4:	e3a0603a 	mov	r6, #58	; 0x3a

00003da8 <l3820>:
    3da8:	67cd3006 	strbvs	r3, [sp, r6]

00003dac <l3821>:
    3dac:	e9ad6000 	stmib	sp!, {sp, lr}

00003db0 <l3822>:
    3db0:	e1a00000 	nop			; (mov r0, r0)

00003db4 <l3823>:
    3db4:	e3a09018 	mov	r9, #24

00003db8 <l3824>:
    3db8:	d19d70b9 	ldrhle	r7, [sp, r9]

00003dbc <l3825>:
    3dbc:	95dd100f 	ldrbls	r1, [sp, #15]

00003dc0 <l3826>:
    3dc0:	e1a00000 	nop			; (mov r0, r0)

00003dc4 <l3827>:
    3dc4:	e3a01036 	mov	r1, #54	; 0x36

00003dc8 <l3828>:
    3dc8:	d19d70f1 	ldrshle	r7, [sp, r1]

00003dcc <l3829>:
    3dcc:	e3a00040 	mov	r0, #64	; 0x40

00003dd0 <l3830>:
    3dd0:	e78de000 	str	lr, [sp, r0]

00003dd4 <l3831>:
    3dd4:	e3a02007 	mov	r2, #7

00003dd8 <l3832>:
    3dd8:	e11dc0d2 	ldrsb	ip, [sp, -r2]

00003ddc <l3833>:
    3ddc:	154d1001 	strbne	r1, [sp, #-1]

00003de0 <l3834>:
    3de0:	c15d20b8 	ldrhgt	r2, [sp, #-8]

00003de4 <l3835>:
    3de4:	e1a00000 	nop			; (mov r0, r0)

00003de8 <l3836>:
    3de8:	e3a02012 	mov	r2, #18

00003dec <l3837>:
    3dec:	b19d90f2 	ldrshlt	r9, [sp, r2]

00003df0 <l3838>:
    3df0:	e8ad0408 	stmia	sp!, {r3, sl}

00003df4 <l3839>:
    3df4:	b1ddb0f6 	ldrshlt	fp, [sp, #6]

00003df8 <l3840>:
    3df8:	31cdb2b0 	strhcc	fp, [sp, #32]

00003dfc <l3841>:
    3dfc:	e3a09004 	mov	r9, #4

00003e00 <l3842>:
    3e00:	e74d1009 	strb	r1, [sp, -r9]

00003e04 <l3843>:
    3e04:	e83d0400 	ldmda	sp!, {sl}

00003e08 <l3844>:
    3e08:	e49dc020 	ldr	ip, [sp], #32

00003e0c <l3845>:
    3e0c:	e49d000c 	ldr	r0, [sp], #12

00003e10 <l3846>:
    3e10:	e51dc010 	ldr	ip, [sp, #-16]

00003e14 <l3847>:
    3e14:	e5cde004 	strb	lr, [sp, #4]

00003e18 <l3848>:
    3e18:	e3a03008 	mov	r3, #8

00003e1c <l3849>:
    3e1c:	418dc0b3 	strhmi	ip, [sp, r3]

00003e20 <l3850>:
    3e20:	e53d901c 	ldr	r9, [sp, #-28]!

00003e24 <l3851>:
    3e24:	e1dde0db 	ldrsb	lr, [sp, #11]

00003e28 <l3852>:
    3e28:	e3a0501c 	mov	r5, #28

00003e2c <l3853>:
    3e2c:	d19d20b5 	ldrhle	r2, [sp, r5]

00003e30 <l3854>:
    3e30:	e82da000 	stmda	sp!, {sp, pc}

00003e34 <l3855>:
    3e34:	415dc0fa 	ldrshmi	ip, [sp, #-10]

00003e38 <l3856>:
    3e38:	e15d50f4 	ldrsh	r5, [sp, #-4]

00003e3c <l3857>:
    3e3c:	e40d500c 	str	r5, [sp], #-12

00003e40 <l3858>:
    3e40:	e3a04008 	mov	r4, #8

00003e44 <l3859>:
    3e44:	e18d50b4 	strh	r5, [sp, r4]

00003e48 <l3860>:
    3e48:	e58d3008 	str	r3, [sp, #8]

00003e4c <l3861>:
    3e4c:	e5adb020 	str	fp, [sp, #32]!

00003e50 <l3862>:
    3e50:	b51d8028 	ldrlt	r8, [sp, #-40]	; 0x28

00003e54 <l3863>:
    3e54:	e3a0801c 	mov	r8, #28

00003e58 <l3864>:
    3e58:	e68d2008 	str	r2, [sp], r8

00003e5c <l3865>:
    3e5c:	354d503a 	strbcc	r5, [sp, #-58]	; 0x3a

00003e60 <l3866>:
    3e60:	815d83bc 	ldrhhi	r8, [sp, #-60]	; 0xffffffc4

00003e64 <l3867>:
    3e64:	e3a00005 	mov	r0, #5

00003e68 <l3868>:
    3e68:	e75d5000 	ldrb	r5, [sp, -r0]

00003e6c <l3869>:
    3e6c:	e3a00032 	mov	r0, #50	; 0x32

00003e70 <l3870>:
    3e70:	110dc0b0 	strhne	ip, [sp, -r0]

00003e74 <l3871>:
    3e74:	e55de00e 	ldrb	lr, [sp, #-14]

00003e78 <l3872>:
    3e78:	d15d03b8 	ldrhle	r0, [sp, #-56]	; 0xffffffc8

00003e7c <l3873>:
    3e7c:	e9bd0200 	ldmib	sp!, {r9}

00003e80 <l3874>:
    3e80:	e1a00000 	nop			; (mov r0, r0)

00003e84 <l3875>:
    3e84:	751dc004 	ldrvc	ip, [sp, #-4]

00003e88 <l3876>:
    3e88:	e3a01044 	mov	r1, #68	; 0x44

00003e8c <l3877>:
    3e8c:	e74dc001 	strb	ip, [sp, -r1]

00003e90 <l3878>:
    3e90:	e55d003a 	ldrb	r0, [sp, #-58]	; 0x3a

00003e94 <l3879>:
    3e94:	e54da016 	strb	sl, [sp, #-22]

00003e98 <l3880>:
    3e98:	e92da000 	push	{sp, pc}

00003e9c <l3881>:
    3e9c:	e3a06004 	mov	r6, #4

00003ea0 <l3882>:
    3ea0:	319dc0b6 	ldrhcc	ip, [sp, r6]

00003ea4 <l3883>:
    3ea4:	e3a0001a 	mov	r0, #26

00003ea8 <l3884>:
    3ea8:	e11de0b0 	ldrh	lr, [sp, -r0]

00003eac <l3885>:
    3eac:	e3a0103c 	mov	r1, #60	; 0x3c

00003eb0 <l3886>:
    3eb0:	e11d30f1 	ldrsh	r3, [sp, -r1]

00003eb4 <l3887>:
    3eb4:	b54d7040 	strblt	r7, [sp, #-64]	; 0x40

00003eb8 <l3888>:
    3eb8:	e1a00000 	nop			; (mov r0, r0)

00003ebc <l3889>:
    3ebc:	c50d5038 	strgt	r5, [sp, #-56]	; 0x38

00003ec0 <l3890>:
    3ec0:	454db022 	strbmi	fp, [sp, #-34]	; 0x22

00003ec4 <l3891>:
    3ec4:	e3a04026 	mov	r4, #38	; 0x26

00003ec8 <l3892>:
    3ec8:	010d60b4 	strheq	r6, [sp, -r4]

00003ecc <l3893>:
    3ecc:	e8bd1004 	pop	{r2, ip}

00003ed0 <l3894>:
    3ed0:	e83d030c 	ldmda	sp!, {r2, r3, r8, r9}

00003ed4 <l3895>:
    3ed4:	e3a0c010 	mov	ip, #16

00003ed8 <l3896>:
    3ed8:	e19d90bc 	ldrh	r9, [sp, ip]

00003edc <l3897>:
    3edc:	a89d0014 	ldmge	sp, {r2, r4}

00003ee0 <l3898>:
    3ee0:	e3a0002c 	mov	r0, #44	; 0x2c

00003ee4 <l3899>:
    3ee4:	e74d5000 	strb	r5, [sp, -r0]

00003ee8 <l3900>:
    3ee8:	e3a05025 	mov	r5, #37	; 0x25

00003eec <l3901>:
    3eec:	b74d2005 	strblt	r2, [sp, -r5]

00003ef0 <l3902>:
    3ef0:	e15d40b2 	ldrh	r4, [sp, #-2]

00003ef4 <l3903>:
    3ef4:	e98d4007 	stmib	sp, {r0, r1, r2, lr}

00003ef8 <l3904>:
    3ef8:	e3a0a00f 	mov	sl, #15

00003efc <l3905>:
    3efc:	77cde00a 	strbvc	lr, [sp, sl]

00003f00 <l3906>:
    3f00:	514da0ba 	strhpl	sl, [sp, #-10]

00003f04 <l3907>:
    3f04:	e8ad0004 	stmia	sp!, {r2}

00003f08 <l3908>:
    3f08:	e58d5008 	str	r5, [sp, #8]

00003f0c <l3909>:
    3f0c:	e1dd00be 	ldrh	r0, [sp, #14]

00003f10 <l3910>:
    3f10:	e1a00000 	nop			; (mov r0, r0)

00003f14 <l3911>:
    3f14:	e54d002a 	strb	r0, [sp, #-42]	; 0x2a

00003f18 <l3912>:
    3f18:	d14d00b8 	strhle	r0, [sp, #-8]

00003f1c <l3913>:
    3f1c:	e9ad0050 	stmib	sp!, {r4, r6}

00003f20 <l3914>:
    3f20:	e3a02039 	mov	r2, #57	; 0x39

00003f24 <l3915>:
    3f24:	e74d3002 	strb	r3, [sp, -r2]

00003f28 <l3916>:
    3f28:	e55d8034 	ldrb	r8, [sp, #-52]	; 0x34

00003f2c <l3917>:
    3f2c:	e55d4004 	ldrb	r4, [sp, #-4]

00003f30 <l3918>:
    3f30:	e93d5ff6 	ldmdb	sp!, {r1, r2, r4, r5, r6, r7, r8, r9, sl, fp, ip, lr}

00003f34 <l3919>:
    3f34:	e82d0080 	stmda	sp!, {r7}

00003f38 <l3920>:
    3f38:	e3a08015 	mov	r8, #21

00003f3c <l3921>:
    3f3c:	d19d00d8 	ldrsble	r0, [sp, r8]

00003f40 <l3922>:
    3f40:	e8ad8228 	stmia	sp!, {r3, r5, r9, pc}

00003f44 <l3923>:
    3f44:	e82d421e 	stmda	sp!, {r1, r2, r3, r4, r9, lr}

00003f48 <l3924>:
    3f48:	e3a0702c 	mov	r7, #44	; 0x2c

00003f4c <l3925>:
    3f4c:	119d90d7 	ldrsbne	r9, [sp, r7]

00003f50 <l3926>:
    3f50:	e3a0c02c 	mov	ip, #44	; 0x2c

00003f54 <l3927>:
    3f54:	e7dd800c 	ldrb	r8, [sp, ip]

00003f58 <l3928>:
    3f58:	e1a00000 	nop			; (mov r0, r0)

00003f5c <l3929>:
    3f5c:	e3a0502e 	mov	r5, #46	; 0x2e

00003f60 <l3930>:
    3f60:	d19d30f5 	ldrshle	r3, [sp, r5]

00003f64 <l3931>:
    3f64:	21dd33ba 	ldrhcs	r3, [sp, #58]	; 0x3a

00003f68 <l3932>:
    3f68:	05cd800e 	strbeq	r8, [sp, #14]

00003f6c <l3933>:
    3f6c:	e9bd5fb6 	ldmib	sp!, {r1, r2, r4, r5, r7, r8, r9, sl, fp, ip, lr}

00003f70 <l3934>:
    3f70:	e52db010 	str	fp, [sp, #-16]!

00003f74 <l3935>:
    3f74:	e3a06014 	mov	r6, #20

00003f78 <l3936>:
    3f78:	e69d1006 	ldr	r1, [sp], r6

00003f7c <l3937>:
    3f7c:	e49d7000 	ldr	r7, [sp], #0

00003f80 <l3938>:
    3f80:	e3a09014 	mov	r9, #20

00003f84 <l3939>:
    3f84:	411d20d9 	ldrsbmi	r2, [sp, -r9]

00003f88 <l3940>:
    3f88:	e3a07011 	mov	r7, #17

00003f8c <l3941>:
    3f8c:	e75d9007 	ldrb	r9, [sp, -r7]

00003f90 <l3942>:
    3f90:	e8bd0428 	pop	{r3, r5, sl}

00003f94 <l3943>:
    3f94:	e92d2000 	stmfd	sp!, {sp}

00003f98 <l3944>:
    3f98:	e3a08002 	mov	r8, #2

00003f9c <l3945>:
    3f9c:	e19d20f8 	ldrsh	r2, [sp, r8]

00003fa0 <l3946>:
    3fa0:	c91d11a1 	ldmdbgt	sp, {r0, r5, r7, r8, ip}

00003fa4 <l3947>:
    3fa4:	e3a0800a 	mov	r8, #10

00003fa8 <l3948>:
    3fa8:	b18d40b8 	strhlt	r4, [sp, r8]

00003fac <l3949>:
    3fac:	e15d60d6 	ldrsb	r6, [sp, #-6]

00003fb0 <l3950>:
    3fb0:	e3a0903c 	mov	r9, #60	; 0x3c

00003fb4 <l3951>:
    3fb4:	374d2009 	strbcc	r2, [sp, -r9]

00003fb8 <l3952>:
    3fb8:	e92d2000 	stmfd	sp!, {sp}

00003fbc <l3953>:
    3fbc:	a88d0812 	stmge	sp, {r1, r4, fp}

00003fc0 <l3954>:
    3fc0:	e1ddc0fe 	ldrsh	ip, [sp, #14]

00003fc4 <l3955>:
    3fc4:	e8bd0001 	ldmfd	sp!, {r0}

00003fc8 <l3956>:
    3fc8:	e3a01008 	mov	r1, #8

00003fcc <l3957>:
    3fcc:	e7bdc001 	ldr	ip, [sp, r1]!

00003fd0 <l3958>:
    3fd0:	d15d62b2 	ldrhle	r6, [sp, #-34]	; 0xffffffde

00003fd4 <l3959>:
    3fd4:	e53dc014 	ldr	ip, [sp, #-20]!

00003fd8 <l3960>:
    3fd8:	e98d0002 	stmib	sp, {r1}

00003fdc <l3961>:
    3fdc:	455d6001 	ldrbmi	r6, [sp, #-1]

00003fe0 <l3962>:
    3fe0:	e93d0004 	ldmdb	sp!, {r2}

00003fe4 <l3963>:
    3fe4:	e3a0501a 	mov	r5, #26

00003fe8 <l3964>:
    3fe8:	e11d20b5 	ldrh	r2, [sp, -r5]

00003fec <l3965>:
    3fec:	e3a0e02c 	mov	lr, #44	; 0x2c

00003ff0 <l3966>:
    3ff0:	e70db00e 	str	fp, [sp, -lr]

00003ff4 <l3967>:
    3ff4:	e3a07024 	mov	r7, #36	; 0x24

00003ff8 <l3968>:
    3ff8:	e73d7007 	ldr	r7, [sp, -r7]!

00003ffc <l3969>:
    3ffc:	e1a00000 	nop			; (mov r0, r0)

00004000 <l3970>:
    4000:	e90d0400 	stmdb	sp, {sl}

00004004 <l3971>:
    4004:	e15dc0d4 	ldrsb	ip, [sp, #-4]

00004008 <l3972>:
    4008:	e8bd5ffe 	pop	{r1, r2, r3, r4, r5, r6, r7, r8, r9, sl, fp, ip, lr}

0000400c <l3973>:
    400c:	e15da3ba 	ldrh	sl, [sp, #-58]	; 0xffffffc6

00004010 <l3974>:
    4010:	e15d50d7 	ldrsb	r5, [sp, #-7]

00004014 <l3975>:
    4014:	e3a02004 	mov	r2, #4

00004018 <l3976>:
    4018:	e7ad9002 	str	r9, [sp, r2]!

0000401c <l3977>:
    401c:	e3a09030 	mov	r9, #48	; 0x30

00004020 <l3978>:
    4020:	e72d6009 	str	r6, [sp, -r9]!

00004024 <l3979>:
    4024:	e3a0700c 	mov	r7, #12

00004028 <l3980>:
    4028:	e7bd5007 	ldr	r5, [sp, r7]!

0000402c <l3981>:
    402c:	e8ad45df 	stmia	sp!, {r0, r1, r2, r3, r4, r6, r7, r8, sl, lr}

00004030 <l3982>:
    4030:	e3a0201b 	mov	r2, #27

00004034 <l3983>:
    4034:	e74d2002 	strb	r2, [sp, -r2]

00004038 <l3984>:
    4038:	e3a0e030 	mov	lr, #48	; 0x30

0000403c <l3985>:
    403c:	211d70fe 	ldrshcs	r7, [sp, -lr]

00004040 <l3986>:
    4040:	e15da1b0 	ldrh	sl, [sp, #-16]

00004044 <l3987>:
    4044:	e1a00000 	nop			; (mov r0, r0)

00004048 <l3988>:
    4048:	e3a0a017 	mov	sl, #23

0000404c <l3989>:
    404c:	e75d700a 	ldrb	r7, [sp, -sl]

00004050 <l3990>:
    4050:	191d5ffd 	ldmdbne	sp, {r0, r2, r3, r4, r5, r6, r7, r8, r9, sl, fp, ip, lr}

00004054 <l3991>:
    4054:	e14d21b6 	strh	r2, [sp, #-22]	; 0xffffffea

00004058 <l3992>:
    4058:	314d24b0 	strhcc	r2, [sp, #-64]	; 0xffffffc0

0000405c <l3993>:
    405c:	e1a00000 	nop			; (mov r0, r0)

00004060 <l3994>:
    4060:	e3a05038 	mov	r5, #56	; 0x38

00004064 <l3995>:
    4064:	e10db0b5 	strh	fp, [sp, -r5]

00004068 <l3996>:
    4068:	e3a06020 	mov	r6, #32

0000406c <l3997>:
    406c:	e72d8006 	str	r8, [sp, -r6]!

00004070 <l3998>:
    4070:	e3a02006 	mov	r2, #6

00004074 <l3999>:
    4074:	375d1002 	ldrbcc	r1, [sp, -r2]

00004078 <l4000>:
    4078:	191d0044 	ldmdbne	sp, {r2, r6}

0000407c <l4001>:
    407c:	e82d5a6a 	stmda	sp!, {r1, r3, r5, r6, r9, fp, ip, lr}

00004080 <l4002>:
    4080:	e1a00000 	nop			; (mov r0, r0)

00004084 <l4003>:
    4084:	e3a07029 	mov	r7, #41	; 0x29

00004088 <l4004>:
    4088:	37cd6007 	strbcc	r6, [sp, r7]

0000408c <l4005>:
    408c:	c1dd10b0 	ldrhgt	r1, [sp]

00004090 <l4006>:
    4090:	e98d54ff 	stmib	sp, {r0, r1, r2, r3, r4, r5, r6, r7, sl, ip, lr}

00004094 <l4007>:
    4094:	e55d2008 	ldrb	r2, [sp, #-8]

00004098 <l4008>:
    4098:	489d1066 	ldmmi	sp, {r1, r2, r5, r6, ip}

0000409c <l4009>:
    409c:	e59d1014 	ldr	r1, [sp, #20]

000040a0 <l4010>:
    40a0:	b1dd42d9 	ldrsblt	r4, [sp, #41]	; 0x29

000040a4 <l4011>:
    40a4:	e48d6038 	str	r6, [sp], #56	; 0x38

000040a8 <l4012>:
    40a8:	e9ad0022 	stmib	sp!, {r1, r5}

000040ac <l4013>:
    40ac:	e3a0401e 	mov	r4, #30

000040b0 <l4014>:
    40b0:	c11d90f4 	ldrshgt	r9, [sp, -r4]

000040b4 <l4015>:
    40b4:	e15d13d3 	ldrsb	r1, [sp, #-51]	; 0xffffffcd

000040b8 <l4016>:
    40b8:	e15da2df 	ldrsb	sl, [sp, #-47]	; 0xffffffd1

000040bc <l4017>:
    40bc:	e5ad9000 	str	r9, [sp, #0]!

000040c0 <l4018>:
    40c0:	e1a00000 	nop			; (mov r0, r0)

000040c4 <l4019>:
    40c4:	e15dc3da 	ldrsb	ip, [sp, #-58]	; 0xffffffc6

000040c8 <l4020>:
    40c8:	e1dd80b2 	ldrh	r8, [sp, #2]

000040cc <l4021>:
    40cc:	e3a03030 	mov	r3, #48	; 0x30

000040d0 <l4022>:
    40d0:	e61d1003 	ldr	r1, [sp], -r3

000040d4 <l4023>:
    40d4:	e3a04000 	mov	r4, #0

000040d8 <l4024>:
    40d8:	119d70d4 	ldrsbne	r7, [sp, r4]

000040dc <l4025>:
    40dc:	e5cdb00b 	strb	fp, [sp, #11]

000040e0 <l4026>:
    40e0:	91dd01fc 	ldrshls	r0, [sp, #28]

000040e4 <l4027>:
    40e4:	e5bd2004 	ldr	r2, [sp, #4]!

000040e8 <l4028>:
    40e8:	e3a03004 	mov	r3, #4

000040ec <l4029>:
    40ec:	211dc0b3 	ldrhcs	ip, [sp, -r3]

000040f0 <l4030>:
    40f0:	e5bdb008 	ldr	fp, [sp, #8]!

000040f4 <l4031>:
    40f4:	e9ad5f25 	stmib	sp!, {r0, r2, r5, r8, r9, sl, fp, ip, lr}

000040f8 <l4032>:
    40f8:	e93d0654 	ldmdb	sp!, {r2, r4, r6, r9, sl}

000040fc <l4033>:
    40fc:	e91d0039 	ldmdb	sp, {r0, r3, r4, r5}

00004100 <l4034>:
    4100:	e3a03032 	mov	r3, #50	; 0x32

00004104 <l4035>:
    4104:	410d30b3 	strhmi	r3, [sp, -r3]

00004108 <l4036>:
    4108:	e92d5a6b 	push	{r0, r1, r3, r5, r6, r9, fp, ip, lr}

0000410c <l4037>:
    410c:	a1dd73d3 	ldrsbge	r7, [sp, #51]	; 0x33

00004110 <l4038>:
    4110:	e3a04008 	mov	r4, #8

00004114 <l4039>:
    4114:	e7bda004 	ldr	sl, [sp, r4]!

00004118 <l4040>:
    4118:	415da0fe 	ldrshmi	sl, [sp, #-14]

0000411c <l4041>:
    411c:	e3a0e024 	mov	lr, #36	; 0x24

00004120 <l4042>:
    4120:	e78df00e 	str	pc, [sp, lr]

00004124 <l4043>:
    4124:	e1cde3b0 	strh	lr, [sp, #48]	; 0x30

00004128 <l4044>:
    4128:	e3a01002 	mov	r1, #2

0000412c <l4045>:
    412c:	e7dda001 	ldrb	sl, [sp, r1]

00004130 <l4046>:
    4130:	e3a06004 	mov	r6, #4

00004134 <l4047>:
    4134:	119d80f6 	ldrshne	r8, [sp, r6]

00004138 <l4048>:
    4138:	e89d5fed 	ldm	sp, {r0, r2, r3, r5, r6, r7, r8, r9, sl, fp, ip, lr}

0000413c <l4049>:
    413c:	e3a0c00e 	mov	ip, #14

00004140 <l4050>:
    4140:	d75d000c 	ldrble	r0, [sp, -ip]

00004144 <l4051>:
    4144:	e15dc0d5 	ldrsb	ip, [sp, #-5]

00004148 <l4052>:
    4148:	b55d1009 	ldrblt	r1, [sp, #-9]

0000414c <l4053>:
    414c:	e3a0502e 	mov	r5, #46	; 0x2e

00004150 <l4054>:
    4150:	e19d80b5 	ldrh	r8, [sp, r5]

00004154 <l4055>:
    4154:	91dd92ba 	ldrhls	r9, [sp, #42]	; 0x2a

00004158 <l4056>:
    4158:	e15db1f0 	ldrsh	fp, [sp, #-16]

0000415c <l4057>:
    415c:	e59d5028 	ldr	r5, [sp, #40]	; 0x28

00004160 <l4058>:
    4160:	e1a00000 	nop			; (mov r0, r0)

00004164 <l4059>:
    4164:	e3a08031 	mov	r8, #49	; 0x31

00004168 <l4060>:
    4168:	819d30d8 	ldrsbhi	r3, [sp, r8]

0000416c <l4061>:
    416c:	e91d1030 	ldmdb	sp, {r4, r5, ip}

00004170 <l4062>:
    4170:	e52da004 	push	{sl}		; (str sl, [sp, #-4]!)

00004174 <l4063>:
    4174:	d1dd93f2 	ldrshle	r9, [sp, #50]	; 0x32

