
and_1000.o:     file format elf32-littlearm


Disassembly of section .text:

00000000 <main>:
       0:	e05f000f 	subs	r0, pc, pc
       4:	e59fd000 	ldr	sp, [pc]	; c <val>
       8:	ea000000 	b	10 <next>

0000000c <val>:
       c:	000ffff0 	.word	0x000ffff0

00000010 <next>:
      10:	e59f1000 	ldr	r1, [pc]	; 18 <val1>
      14:	ea000000 	b	1c <next1>

00000018 <val1>:
      18:	a1071480 	.word	0xa1071480

0000001c <next1>:
      1c:	e59f2000 	ldr	r2, [pc]	; 24 <val2>
      20:	ea000000 	b	28 <next2>

00000024 <val2>:
      24:	afcbf01f 	.word	0xafcbf01f

00000028 <next2>:
      28:	e59f3000 	ldr	r3, [pc]	; 30 <val3>
      2c:	ea000000 	b	34 <next3>

00000030 <val3>:
      30:	b3e1fe12 	.word	0xb3e1fe12

00000034 <next3>:
      34:	e59f4000 	ldr	r4, [pc]	; 3c <val4>
      38:	ea000000 	b	40 <next4>

0000003c <val4>:
      3c:	93f5f911 	.word	0x93f5f911

00000040 <next4>:
      40:	e59f5000 	ldr	r5, [pc]	; 48 <val5>
      44:	ea000000 	b	4c <next5>

00000048 <val5>:
      48:	cdad9856 	.word	0xcdad9856

0000004c <next5>:
      4c:	e59f6000 	ldr	r6, [pc]	; 54 <val6>
      50:	ea000000 	b	58 <next6>

00000054 <val6>:
      54:	2b9e44dc 	.word	0x2b9e44dc

00000058 <next6>:
      58:	e59f7000 	ldr	r7, [pc]	; 60 <val7>
      5c:	ea000000 	b	64 <next7>

00000060 <val7>:
      60:	03b3c840 	.word	0x03b3c840

00000064 <next7>:
      64:	e59f8000 	ldr	r8, [pc]	; 6c <val8>
      68:	ea000000 	b	70 <next8>

0000006c <val8>:
      6c:	64b4ee93 	.word	0x64b4ee93

00000070 <next8>:
      70:	e59f9000 	ldr	r9, [pc]	; 78 <val9>
      74:	ea000000 	b	7c <next9>

00000078 <val9>:
      78:	8d03520a 	.word	0x8d03520a

0000007c <next9>:
      7c:	e59fa000 	ldr	sl, [pc]	; 84 <val10>
      80:	ea000000 	b	88 <next10>

00000084 <val10>:
      84:	55e6a031 	.word	0x55e6a031

00000088 <next10>:
      88:	e59fb000 	ldr	fp, [pc]	; 90 <val11>
      8c:	ea000000 	b	94 <next11>

00000090 <val11>:
      90:	4bcc19c7 	.word	0x4bcc19c7

00000094 <next11>:
      94:	e59fc000 	ldr	ip, [pc]	; 9c <val12>
      98:	ea000000 	b	a0 <next12>

0000009c <val12>:
      9c:	8e85435d 	.word	0x8e85435d

000000a0 <next12>:
      a0:	e59fe000 	ldr	lr, [pc]	; a8 <val14>
      a4:	ea000000 	b	ac <next14>

000000a8 <val14>:
      a8:	3f33e3fd 	.word	0x3f33e3fd

000000ac <next14>:
      ac:	e59f1000 	ldr	r1, [pc]	; b4 <val15>
      b0:	ea000000 	b	b8 <next15>

000000b4 <val15>:
      b4:	928728ff 	.word	0x928728ff

000000b8 <next15>:
      b8:	e58d1000 	str	r1, [sp]
      bc:	e59f1000 	ldr	r1, [pc]	; c4 <val16>
      c0:	ea000000 	b	c8 <next16>

000000c4 <val16>:
      c4:	c15e06df 	.word	0xc15e06df

000000c8 <next16>:
      c8:	e50d1004 	str	r1, [sp, #-4]
      cc:	e59f1000 	ldr	r1, [pc]	; d4 <val17>
      d0:	ea000000 	b	d8 <next17>

000000d4 <val17>:
      d4:	e2418f53 	.word	0xe2418f53

000000d8 <next17>:
      d8:	e50d1008 	str	r1, [sp, #-8]
      dc:	e59f1000 	ldr	r1, [pc]	; e4 <val18>
      e0:	ea000000 	b	e8 <next18>

000000e4 <val18>:
      e4:	9db05931 	.word	0x9db05931

000000e8 <next18>:
      e8:	e50d100c 	str	r1, [sp, #-12]
      ec:	e59f1000 	ldr	r1, [pc]	; f4 <val19>
      f0:	ea000000 	b	f8 <next19>

000000f4 <val19>:
      f4:	94ccbffd 	.word	0x94ccbffd

000000f8 <next19>:
      f8:	e50d1010 	str	r1, [sp, #-16]
      fc:	e59f1000 	ldr	r1, [pc]	; 104 <val20>
     100:	ea000000 	b	108 <next20>

00000104 <val20>:
     104:	9af9538b 	.word	0x9af9538b

00000108 <next20>:
     108:	e50d1014 	str	r1, [sp, #-20]
     10c:	e59f1000 	ldr	r1, [pc]	; 114 <val21>
     110:	ea000000 	b	118 <next21>

00000114 <val21>:
     114:	7d3df06e 	.word	0x7d3df06e

00000118 <next21>:
     118:	e50d1018 	str	r1, [sp, #-24]
     11c:	e59f1000 	ldr	r1, [pc]	; 124 <val22>
     120:	ea000000 	b	128 <next22>

00000124 <val22>:
     124:	926c39b9 	.word	0x926c39b9

00000128 <next22>:
     128:	e50d101c 	str	r1, [sp, #-28]
     12c:	e59f1000 	ldr	r1, [pc]	; 134 <val23>
     130:	ea000000 	b	138 <next23>

00000134 <val23>:
     134:	73d0d6bf 	.word	0x73d0d6bf

00000138 <next23>:
     138:	e50d1020 	str	r1, [sp, #-32]
     13c:	e59f1000 	ldr	r1, [pc]	; 144 <val24>
     140:	ea000000 	b	148 <next24>

00000144 <val24>:
     144:	2932ac62 	.word	0x2932ac62

00000148 <next24>:
     148:	e50d1024 	str	r1, [sp, #-36]	; 0x24
     14c:	e59f1000 	ldr	r1, [pc]	; 154 <val25>
     150:	ea000000 	b	158 <next25>

00000154 <val25>:
     154:	7f3d93cd 	.word	0x7f3d93cd

00000158 <next25>:
     158:	e50d1028 	str	r1, [sp, #-40]	; 0x28
     15c:	e59f1000 	ldr	r1, [pc]	; 164 <val26>
     160:	ea000000 	b	168 <next26>

00000164 <val26>:
     164:	a30a1288 	.word	0xa30a1288

00000168 <next26>:
     168:	e50d102c 	str	r1, [sp, #-44]	; 0x2c
     16c:	e59f1000 	ldr	r1, [pc]	; 174 <val27>
     170:	ea000000 	b	178 <next27>

00000174 <val27>:
     174:	083aa53d 	.word	0x083aa53d

00000178 <next27>:
     178:	e50d1030 	str	r1, [sp, #-48]	; 0x30
     17c:	e59f1000 	ldr	r1, [pc]	; 184 <val28>
     180:	ea000000 	b	188 <next28>

00000184 <val28>:
     184:	b883d997 	.word	0xb883d997

00000188 <next28>:
     188:	e50d1034 	str	r1, [sp, #-52]	; 0x34
     18c:	e59f1000 	ldr	r1, [pc]	; 194 <val29>
     190:	ea000000 	b	198 <next29>

00000194 <val29>:
     194:	499d1caa 	.word	0x499d1caa

00000198 <next29>:
     198:	e50d1038 	str	r1, [sp, #-56]	; 0x38
     19c:	e59f1000 	ldr	r1, [pc]	; 1a4 <val30>
     1a0:	ea000000 	b	1a8 <next30>

000001a4 <val30>:
     1a4:	e512fe3c 	.word	0xe512fe3c

000001a8 <next30>:
     1a8:	e50d103c 	str	r1, [sp, #-60]	; 0x3c
     1ac:	e59f1000 	ldr	r1, [pc]	; 1b4 <val31>
     1b0:	ea000000 	b	1b8 <next31>

000001b4 <val31>:
     1b4:	6f35f7b7 	.word	0x6f35f7b7

000001b8 <next31>:
     1b8:	e50d1040 	str	r1, [sp, #-64]	; 0x40
     1bc:	e59f1000 	ldr	r1, [pc]	; 1c4 <val32>
     1c0:	ea000000 	b	1c8 <next32>

000001c4 <val32>:
     1c4:	6b01dc09 	.word	0x6b01dc09

000001c8 <next32>:
     1c8:	e50d1044 	str	r1, [sp, #-68]	; 0x44
     1cc:	e59f1000 	ldr	r1, [pc]	; 1d4 <val33>
     1d0:	ea000000 	b	1d8 <next33>

000001d4 <val33>:
     1d4:	6f47a22d 	.word	0x6f47a22d

000001d8 <next33>:
     1d8:	e50d1048 	str	r1, [sp, #-72]	; 0x48
     1dc:	e59f1000 	ldr	r1, [pc]	; 1e4 <val34>
     1e0:	ea000000 	b	1e8 <next34>

000001e4 <val34>:
     1e4:	55c0743d 	.word	0x55c0743d

000001e8 <next34>:
     1e8:	e50d104c 	str	r1, [sp, #-76]	; 0x4c
     1ec:	e59f1000 	ldr	r1, [pc]	; 1f4 <val35>
     1f0:	ea000000 	b	1f8 <next35>

000001f4 <val35>:
     1f4:	fcd68200 	.word	0xfcd68200

000001f8 <next35>:
     1f8:	e50d1050 	str	r1, [sp, #-80]	; 0x50

000001fc <l1>:
     1fc:	e00f4009 	and	r4, pc, r9

00000200 <l2>:
     200:	e01e800c 	ands	r8, lr, ip

00000204 <l3>:
     204:	82140aab 	andshi	r0, r4, #700416	; 0xab000

00000208 <l4>:
     208:	e00ee008 	and	lr, lr, r8

0000020c <l5>:
     20c:	b00934a9 	andlt	r3, r9, r9, lsr #9

00000210 <l6>:
     210:	d215e645 	andsle	lr, r5, #72351744	; 0x4500000

00000214 <l7>:
     214:	e0070461 	and	r0, r7, r1, ror #8

00000218 <l8>:
     218:	b012bd40 	andslt	fp, r2, r0, asr #26

0000021c <l9>:
     21c:	e2041c11 	and	r1, r4, #4352	; 0x1100

00000220 <l10>:
     220:	e20b22a1 	and	r2, fp, #268435466	; 0x1000000a

00000224 <l11>:
     224:	421a29aa 	andsmi	r2, sl, #2785280	; 0x2a8000

00000228 <l12>:
     228:	e2117903 	ands	r7, r1, #49152	; 0xc000

0000022c <l13>:
     22c:	c01bc006 	andsgt	ip, fp, r6

00000230 <l14>:
     230:	50033006 	andpl	r3, r3, r6

00000234 <l15>:
     234:	821644f5 	andshi	r4, r6, #-184549376	; 0xf5000000

00000238 <l16>:
     238:	1206afca 	andne	sl, r6, #808	; 0x328

0000023c <l17>:
     23c:	101e8004 	andsne	r8, lr, r4

00000240 <l18>:
     240:	90128a7a 	andsls	r8, r2, sl, ror sl

00000244 <l19>:
     244:	720ee50e 	andvc	lr, lr, #58720256	; 0x3800000

00000248 <l20>:
     248:	e0159069 	ands	r9, r5, r9, rrx

0000024c <l21>:
     24c:	e2089a9e 	and	r9, r8, #647168	; 0x9e000

00000250 <l22>:
     250:	a006606c 	andge	r6, r6, ip, rrx

00000254 <l23>:
     254:	e0127002 	ands	r7, r2, r2

00000258 <l24>:
     258:	e0045003 	and	r5, r4, r3

0000025c <l25>:
     25c:	e0023e0c 	and	r3, r2, ip, lsl #28

00000260 <l26>:
     260:	e00be6e6 	and	lr, fp, r6, ror #13

00000264 <l27>:
     264:	70189007 	andsvc	r9, r8, r7

00000268 <l28>:
     268:	700f3001 	andvc	r3, pc, r1

0000026c <l29>:
     26c:	92111116 	andsls	r1, r1, #-2147483643	; 0x80000005

00000270 <l30>:
     270:	e014ca34 	ands	ip, r4, r4, lsr sl

00000274 <l31>:
     274:	e01c2ac3 	ands	r2, ip, r3, asr #21

00000278 <l32>:
     278:	e01f7069 	ands	r7, pc, r9, rrx

0000027c <l33>:
     27c:	b0128973 	andslt	r8, r2, r3, ror r9

00000280 <l34>:
     280:	b012b822 	andslt	fp, r2, r2, lsr #16

00000284 <l35>:
     284:	e0005062 	and	r5, r0, r2, rrx

00000288 <l36>:
     288:	d2156da6 	andsle	r6, r5, #10624	; 0x2980

0000028c <l37>:
     28c:	e008500f 	and	r5, r8, pc

00000290 <l38>:
     290:	020031fe 	andeq	r3, r0, #-2147483585	; 0x8000003f

00000294 <l39>:
     294:	2010ea12 	andscs	lr, r0, r2, lsl sl

00000298 <l40>:
     298:	9005000a 	andls	r0, r5, sl

0000029c <l41>:
     29c:	e011c00b 	ands	ip, r1, fp

000002a0 <l42>:
     2a0:	e0052006 	and	r2, r5, r6

000002a4 <l43>:
     2a4:	e202235b 	and	r2, r2, #1811939329	; 0x6c000001

000002a8 <l44>:
     2a8:	e000a00f 	and	sl, r0, pc

000002ac <l45>:
     2ac:	e0064a73 	and	r4, r6, r3, ror sl

000002b0 <l46>:
     2b0:	c0090419 	andgt	r0, r9, r9, lsl r4

000002b4 <l47>:
     2b4:	e007e2c9 	and	lr, r7, r9, asr #5

000002b8 <l48>:
     2b8:	5205a04b 	andpl	sl, r5, #75	; 0x4b

000002bc <l49>:
     2bc:	80145c54 	andshi	r5, r4, r4, asr ip

000002c0 <l50>:
     2c0:	c21ba47b 	andsgt	sl, fp, #2063597568	; 0x7b000000

000002c4 <l51>:
     2c4:	b2161a82 	andslt	r1, r6, #532480	; 0x82000

000002c8 <l52>:
     2c8:	e0157063 	ands	r7, r5, r3, rrx

000002cc <l53>:
     2cc:	701a300c 	andsvc	r3, sl, ip

000002d0 <l54>:
     2d0:	e0185732 	ands	r5, r8, r2, lsr r7

000002d4 <l55>:
     2d4:	e0157009 	ands	r7, r5, r9

000002d8 <l56>:
     2d8:	000b7004 	andeq	r7, fp, r4

000002dc <l57>:
     2dc:	e018b540 	ands	fp, r8, r0, asr #10

000002e0 <l58>:
     2e0:	e20e3084 	and	r3, lr, #132	; 0x84

000002e4 <l59>:
     2e4:	e2075113 	and	r5, r7, #-1073741820	; 0xc0000004

000002e8 <l60>:
     2e8:	50072066 	andpl	r2, r7, r6, rrx

000002ec <l61>:
     2ec:	e2033eb7 	and	r3, r3, #2928	; 0xb70

000002f0 <l62>:
     2f0:	90114976 	andsls	r4, r1, r6, ror r9

000002f4 <l63>:
     2f4:	901e84a4 	andsls	r8, lr, r4, lsr #9

000002f8 <l64>:
     2f8:	e00c6b1a 	and	r6, ip, sl, lsl fp

000002fc <l65>:
     2fc:	500c2002 	andpl	r2, ip, r2

00000300 <l66>:
     300:	9017c836 	andsls	ip, r7, r6, lsr r8

00000304 <l67>:
     304:	e015e00a 	ands	lr, r5, sl

00000308 <l68>:
     308:	e216cc13 	ands	ip, r6, #4864	; 0x1300

0000030c <l69>:
     30c:	42140eba 	andsmi	r0, r4, #2976	; 0xba0

00000310 <l70>:
     310:	62142b4b 	andsvs	r2, r4, #76800	; 0x12c00

00000314 <l71>:
     314:	e01eac75 	ands	sl, lr, r5, ror ip

00000318 <l72>:
     318:	e206e11d 	and	lr, r6, #1073741831	; 0x40000007

0000031c <l73>:
     31c:	e00b055a 	and	r0, fp, sl, asr r5

00000320 <l74>:
     320:	101ba97e 	andsne	sl, fp, lr, ror r9

00000324 <l75>:
     324:	c01a953a 	andsgt	r9, sl, sl, lsr r5

00000328 <l76>:
     328:	e01c9008 	ands	r9, ip, r8

0000032c <l77>:
     32c:	e20c4ab5 	and	r4, ip, #741376	; 0xb5000

00000330 <l78>:
     330:	9008e064 	andls	lr, r8, r4, rrx

00000334 <l79>:
     334:	e001c530 	and	ip, r1, r0, lsr r5

00000338 <l80>:
     338:	e0136002 	ands	r6, r3, r2

0000033c <l81>:
     33c:	e20e222d 	and	r2, lr, #-805306366	; 0xd0000002

00000340 <l82>:
     340:	e0121a2e 	ands	r1, r2, lr, lsr #20

00000344 <l83>:
     344:	e0128524 	ands	r8, r2, r4, lsr #10

00000348 <l84>:
     348:	30116e00 	andscc	r6, r1, r0, lsl #28

0000034c <l85>:
     34c:	40016386 	andmi	r6, r1, r6, lsl #7

00000350 <l86>:
     350:	a21c314e 	andsge	r3, ip, #-2147483629	; 0x80000013

00000354 <l87>:
     354:	e0044e01 	and	r4, r4, r1, lsl #28

00000358 <l88>:
     358:	d006853e 	andle	r8, r6, lr, lsr r5

0000035c <l89>:
     35c:	901a9485 	andsls	r9, sl, r5, lsl #9

00000360 <l90>:
     360:	e00f3007 	and	r3, pc, r7

00000364 <l91>:
     364:	40166ea1 	andsmi	r6, r6, r1, lsr #29

00000368 <l92>:
     368:	220ab905 	andcs	fp, sl, #81920	; 0x14000

0000036c <l93>:
     36c:	c207711a 	andgt	r7, r7, #-2147483642	; 0x80000006

00000370 <l94>:
     370:	80174009 	andshi	r4, r7, r9

00000374 <l95>:
     374:	000a8353 	andeq	r8, sl, r3, asr r3

00000378 <l96>:
     378:	e0124daf 	ands	r4, r2, pc, lsr #27

0000037c <l97>:
     37c:	e00ac00b 	and	ip, sl, fp

00000380 <l98>:
     380:	d0020317 	andle	r0, r2, r7, lsl r3

00000384 <l99>:
     384:	e01ac687 	ands	ip, sl, r7, lsl #13

00000388 <l100>:
     388:	d2189877 	andsle	r9, r8, #7798784	; 0x770000

0000038c <l101>:
     38c:	920cc8b3 	andls	ip, ip, #11730944	; 0xb30000

00000390 <l102>:
     390:	e00bc741 	and	ip, fp, r1, asr #14

00000394 <l103>:
     394:	e21a7d23 	ands	r7, sl, #2240	; 0x8c0

00000398 <l104>:
     398:	7208002b 	andvc	r0, r8, #43	; 0x2b

0000039c <l105>:
     39c:	d011e004 	andsle	lr, r1, r4

000003a0 <l106>:
     3a0:	e2060b26 	and	r0, r6, #38912	; 0x9800

000003a4 <l107>:
     3a4:	e00e9737 	and	r9, lr, r7, lsr r7

000003a8 <l108>:
     3a8:	521a9109 	andspl	r9, sl, #1073741826	; 0x40000002

000003ac <l109>:
     3ac:	2210e94e 	andscs	lr, r0, #1277952	; 0x138000

000003b0 <l110>:
     3b0:	e0110e88 	ands	r0, r1, r8, lsl #29

000003b4 <l111>:
     3b4:	5003841a 	andpl	r8, r3, sl, lsl r4

000003b8 <l112>:
     3b8:	c0087009 	andgt	r7, r8, r9

000003bc <l113>:
     3bc:	90006e82 	andls	r6, r0, r2, lsl #29

000003c0 <l114>:
     3c0:	30066006 	andcc	r6, r6, r6

000003c4 <l115>:
     3c4:	e00e6916 	and	r6, lr, r6, lsl r9

000003c8 <l116>:
     3c8:	801ea21a 	andshi	sl, lr, sl, lsl r2

000003cc <l117>:
     3cc:	12137fcb 	andsne	r7, r3, #812	; 0x32c

000003d0 <l118>:
     3d0:	a20a5ef5 	andge	r5, sl, #3920	; 0xf50

000003d4 <l119>:
     3d4:	c015706c 	andsgt	r7, r5, ip, rrx

000003d8 <l120>:
     3d8:	12096d09 	andne	r6, r9, #576	; 0x240

000003dc <l121>:
     3dc:	6001e770 	andvs	lr, r1, r0, ror r7

000003e0 <l122>:
     3e0:	e012e118 	ands	lr, r2, r8, lsl r1

000003e4 <l123>:
     3e4:	400aa063 	andmi	sl, sl, r3, rrx

000003e8 <l124>:
     3e8:	601e2273 	andsvs	r2, lr, r3, ror r2

000003ec <l125>:
     3ec:	001eb060 	andseq	fp, lr, r0, rrx

000003f0 <l126>:
     3f0:	e01a627c 	ands	r6, sl, ip, ror r2

000003f4 <l127>:
     3f4:	0204a526 	andeq	sl, r4, #159383552	; 0x9800000

000003f8 <l128>:
     3f8:	600346e1 	andvs	r4, r3, r1, ror #13

000003fc <l129>:
     3fc:	420e1a35 	andmi	r1, lr, #217088	; 0x35000

00000400 <l130>:
     400:	e01574c7 	ands	r7, r5, r7, asr #9

00000404 <l131>:
     404:	e2186606 	ands	r6, r8, #6291456	; 0x600000

00000408 <l132>:
     408:	50001001 	andpl	r1, r0, r1

0000040c <l133>:
     40c:	a21a0fd3 	andsge	r0, sl, #844	; 0x34c

00000410 <l134>:
     410:	60027a26 	andvs	r7, r2, r6, lsr #20

00000414 <l135>:
     414:	320b0cc1 	andcc	r0, fp, #49408	; 0xc100

00000418 <l136>:
     418:	c015e064 	andsgt	lr, r5, r4, rrx

0000041c <l137>:
     41c:	e2005a02 	and	r5, r0, #8192	; 0x2000

00000420 <l138>:
     420:	e015b00b 	ands	fp, r5, fp

00000424 <l139>:
     424:	e008e009 	and	lr, r8, r9

00000428 <l140>:
     428:	50039cc0 	andpl	r9, r3, r0, asr #25

0000042c <l141>:
     42c:	4002e88c 	andmi	lr, r2, ip, lsl #17

00000430 <l142>:
     430:	e01c900c 	ands	r9, ip, ip

00000434 <l143>:
     434:	50169aa1 	andspl	r9, r6, r1, lsr #21

00000438 <l144>:
     438:	e0133005 	ands	r3, r3, r5

0000043c <l145>:
     43c:	4217ea1d 	andsmi	lr, r7, #118784	; 0x1d000

00000440 <l146>:
     440:	701ca13a 	andsvc	sl, ip, sl, lsr r1

00000444 <l147>:
     444:	4004e062 	andmi	lr, r4, r2, rrx

00000448 <l148>:
     448:	e202b965 	and	fp, r2, #1654784	; 0x194000

0000044c <l149>:
     44c:	5014e8a7 	andspl	lr, r4, r7, lsr #17

00000450 <l150>:
     450:	e20f55a1 	and	r5, pc, #675282944	; 0x28400000

00000454 <l151>:
     454:	82060d7b 	andhi	r0, r6, #7872	; 0x1ec0

00000458 <l152>:
     458:	e01c800c 	ands	r8, ip, ip

0000045c <l153>:
     45c:	12099619 	andne	r9, r9, #26214400	; 0x1900000

00000460 <l154>:
     460:	e21e65be 	ands	r6, lr, #796917760	; 0x2f800000

00000464 <l155>:
     464:	e00a57c2 	and	r5, sl, r2, asr #15

00000468 <l156>:
     468:	e2179bf2 	ands	r9, r7, #247808	; 0x3c800

0000046c <l157>:
     46c:	e200e766 	and	lr, r0, #26738688	; 0x1980000

00000470 <l158>:
     470:	8011ce3c 	andshi	ip, r1, ip, lsr lr

00000474 <l159>:
     474:	a012a00a 	andsge	sl, r2, sl

00000478 <l160>:
     478:	e009022b 	and	r0, r9, fp, lsr #4

0000047c <l161>:
     47c:	c0089805 	andgt	r9, r8, r5, lsl #16

00000480 <l162>:
     480:	e002318a 	and	r3, r2, sl, lsl #3

00000484 <l163>:
     484:	e21c6af5 	ands	r6, ip, #1003520	; 0xf5000

00000488 <l164>:
     488:	e0139000 	ands	r9, r3, r0

0000048c <l165>:
     48c:	e0181610 	ands	r1, r8, r0, lsl r6

00000490 <l166>:
     490:	300fe4e9 	andcc	lr, pc, r9, ror #9

00000494 <l167>:
     494:	720f8a96 	andvc	r8, pc, #614400	; 0x96000

00000498 <l168>:
     498:	b01a3000 	andslt	r3, sl, r0

0000049c <l169>:
     49c:	e013b477 	ands	fp, r3, r7, ror r4

000004a0 <l170>:
     4a0:	90180008 	andsls	r0, r8, r8

000004a4 <l171>:
     4a4:	e00f8001 	and	r8, pc, r1

000004a8 <l172>:
     4a8:	a20abdd5 	andge	fp, sl, #13632	; 0x3540

000004ac <l173>:
     4ac:	e00c100a 	and	r1, ip, sl

000004b0 <l174>:
     4b0:	50076170 	andpl	r6, r7, r0, ror r1

000004b4 <l175>:
     4b4:	901c0000 	andsls	r0, ip, r0

000004b8 <l176>:
     4b8:	9013b00a 	andsls	fp, r3, sl

000004bc <l177>:
     4bc:	e216bbed 	ands	fp, r6, #242688	; 0x3b400

000004c0 <l178>:
     4c0:	d0022940 	andle	r2, r2, r0, asr #18

000004c4 <l179>:
     4c4:	e20a3437 	and	r3, sl, #922746880	; 0x37000000

000004c8 <l180>:
     4c8:	d005b002 	andle	fp, r5, r2

000004cc <l181>:
     4cc:	101731c3 	andsne	r3, r7, r3, asr #3

000004d0 <l182>:
     4d0:	001c053b 	andseq	r0, ip, fp, lsr r5

000004d4 <l183>:
     4d4:	92020a26 	andls	r0, r2, #155648	; 0x26000

000004d8 <l184>:
     4d8:	e013700e 	ands	r7, r3, lr

000004dc <l185>:
     4dc:	1014c00c 	andsne	ip, r4, ip

000004e0 <l186>:
     4e0:	e20ca38d 	and	sl, ip, #872415234	; 0x34000002

000004e4 <l187>:
     4e4:	c013ecaf 	andsgt	lr, r3, pc, lsr #25

000004e8 <l188>:
     4e8:	b2040109 	andlt	r0, r4, #1073741826	; 0x40000002

000004ec <l189>:
     4ec:	e21b9f47 	ands	r9, fp, #284	; 0x11c

000004f0 <l190>:
     4f0:	520ccc2b 	andpl	ip, ip, #11008	; 0x2b00

000004f4 <l191>:
     4f4:	e006b00c 	and	fp, r6, ip

000004f8 <l192>:
     4f8:	301a7c7b 	andscc	r7, sl, fp, ror ip

000004fc <l193>:
     4fc:	e01e9062 	ands	r9, lr, r2, rrx

00000500 <l194>:
     500:	321308d9 	andscc	r0, r3, #14221312	; 0xd90000

00000504 <l195>:
     504:	b0020001 	andlt	r0, r2, r1

00000508 <l196>:
     508:	e001b773 	and	fp, r1, r3, ror r7

0000050c <l197>:
     50c:	e202ec23 	and	lr, r2, #8960	; 0x2300

00000510 <l198>:
     510:	400fb007 	andmi	fp, pc, r7

00000514 <l199>:
     514:	600c4935 	andvs	r4, ip, r5, lsr r9

00000518 <l200>:
     518:	2200a14a 	andcs	sl, r0, #-2147483630	; 0x80000012

0000051c <l201>:
     51c:	d01f5009 	andsle	r5, pc, r9

00000520 <l202>:
     520:	e007513c 	and	r5, r7, ip, lsr r1

00000524 <l203>:
     524:	e01f4002 	ands	r4, pc, r2

00000528 <l204>:
     528:	60020005 	andvs	r0, r2, r5

0000052c <l205>:
     52c:	200b8d0b 	andcs	r8, fp, fp, lsl #26

00000530 <l206>:
     530:	e005583b 	and	r5, r5, fp, lsr r8

00000534 <l207>:
     534:	20048008 	andcs	r8, r4, r8

00000538 <l208>:
     538:	70124007 	andsvc	r4, r2, r7

0000053c <l209>:
     53c:	e00241a9 	and	r4, r2, r9, lsr #3

00000540 <l210>:
     540:	e00e7000 	and	r7, lr, r0

00000544 <l211>:
     544:	300bc001 	andcc	ip, fp, r1

00000548 <l212>:
     548:	601b9ec7 	andsvs	r9, fp, r7, asr #29

0000054c <l213>:
     54c:	e01a3a88 	ands	r3, sl, r8, lsl #21

00000550 <l214>:
     550:	a01c600b 	andsge	r6, ip, fp

00000554 <l215>:
     554:	92181d17 	andsls	r1, r8, #1472	; 0x5c0

00000558 <l216>:
     558:	420f6649 	andmi	r6, pc, #76546048	; 0x4900000

0000055c <l217>:
     55c:	c0046005 	andgt	r6, r4, r5

00000560 <l218>:
     560:	9007700f 	andls	r7, r7, pc

00000564 <l219>:
     564:	2214c9b7 	andscs	ip, r4, #2998272	; 0x2dc000

00000568 <l220>:
     568:	c003735c 	andgt	r7, r3, ip, asr r3

0000056c <l221>:
     56c:	d21e4a26 	andsle	r4, lr, #155648	; 0x26000

00000570 <l222>:
     570:	30073009 	andcc	r3, r7, r9

00000574 <l223>:
     574:	401c3473 	andsmi	r3, ip, r3, ror r4

00000578 <l224>:
     578:	e00e063c 	and	r0, lr, ip, lsr r6

0000057c <l225>:
     57c:	a01bb00e 	andsge	fp, fp, lr

00000580 <l226>:
     580:	a007944c 	andge	r9, r7, ip, asr #8

00000584 <l227>:
     584:	6008800a 	andvs	r8, r8, sl

00000588 <l228>:
     588:	9207678f 	andls	r6, r7, #37486592	; 0x23c0000

0000058c <l229>:
     58c:	601b79c1 	andsvs	r7, fp, r1, asr #19

00000590 <l230>:
     590:	e004c009 	and	ip, r4, r9

00000594 <l231>:
     594:	20036003 	andcs	r6, r3, r3

00000598 <l232>:
     598:	000a2009 	andeq	r2, sl, r9

0000059c <l233>:
     59c:	e00fcd2e 	and	ip, pc, lr, lsr #26

000005a0 <l234>:
     5a0:	701bac3e 	andsvc	sl, fp, lr, lsr ip

000005a4 <l235>:
     5a4:	600c6e77 	andvs	r6, ip, r7, ror lr

000005a8 <l236>:
     5a8:	e015e771 	ands	lr, r5, r1, ror r7

000005ac <l237>:
     5ac:	70075854 	andvc	r5, r7, r4, asr r8

000005b0 <l238>:
     5b0:	10057007 	andne	r7, r5, r7

000005b4 <l239>:
     5b4:	5005800b 	andpl	r8, r5, fp

000005b8 <l240>:
     5b8:	e012800a 	ands	r8, r2, sl

000005bc <l241>:
     5bc:	e20a593b 	and	r5, sl, #966656	; 0xec000

000005c0 <l242>:
     5c0:	e20e1db5 	and	r1, lr, #11584	; 0x2d40

000005c4 <l243>:
     5c4:	e00ca062 	and	sl, ip, r2, rrx

000005c8 <l244>:
     5c8:	e0050812 	and	r0, r5, r2, lsl r8

000005cc <l245>:
     5cc:	6000c565 	andvs	ip, r0, r5, ror #10

000005d0 <l246>:
     5d0:	e005e5ec 	and	lr, r5, ip, ror #11

000005d4 <l247>:
     5d4:	e013a00f 	ands	sl, r3, pc

000005d8 <l248>:
     5d8:	e004756c 	and	r7, r4, ip, ror #10

000005dc <l249>:
     5dc:	121417c5 	andsne	r1, r4, #51642368	; 0x3140000

000005e0 <l250>:
     5e0:	b0022dce 	andlt	r2, r2, lr, asr #27

000005e4 <l251>:
     5e4:	10114006 	andsne	r4, r1, r6

000005e8 <l252>:
     5e8:	121c83be 	andsne	r8, ip, #-134217726	; 0xf8000002

000005ec <l253>:
     5ec:	7018a11b 	andsvc	sl, r8, fp, lsl r1

000005f0 <l254>:
     5f0:	a00f2005 	andge	r2, pc, r5

000005f4 <l255>:
     5f4:	8001037a 	andhi	r0, r1, sl, ror r3

000005f8 <l256>:
     5f8:	d20c44df 	andle	r4, ip, #-553648128	; 0xdf000000

000005fc <l257>:
     5fc:	e010c006 	ands	ip, r0, r6

00000600 <l258>:
     600:	321e5113 	andscc	r5, lr, #-1073741820	; 0xc0000004

00000604 <l259>:
     604:	e0024005 	and	r4, r2, r5

00000608 <l260>:
     608:	300ce00e 	andcc	lr, ip, lr

0000060c <l261>:
     60c:	c01ec059 	andsgt	ip, lr, r9, asr r0

00000610 <l262>:
     610:	000b447b 	andeq	r4, fp, fp, ror r4

00000614 <l263>:
     614:	a01a500e 	andsge	r5, sl, lr

00000618 <l264>:
     618:	001c506e 	andseq	r5, ip, lr, rrx

0000061c <l265>:
     61c:	300c8476 	andcc	r8, ip, r6, ror r4

00000620 <l266>:
     620:	e00e0066 	and	r0, lr, r6, rrx

00000624 <l267>:
     624:	e008600e 	and	r6, r8, lr

00000628 <l268>:
     628:	50102061 	andspl	r2, r0, r1, rrx

0000062c <l269>:
     62c:	e01a575e 	ands	r5, sl, lr, asr r7

00000630 <l270>:
     630:	e01e0954 	ands	r0, lr, r4, asr r9

00000634 <l271>:
     634:	921425ba 	andsls	r2, r4, #780140544	; 0x2e800000

00000638 <l272>:
     638:	e203c81b 	and	ip, r3, #1769472	; 0x1b0000

0000063c <l273>:
     63c:	900e4068 	andls	r4, lr, r8, rrx

00000640 <l274>:
     640:	4204a006 	andmi	sl, r4, #6

00000644 <l275>:
     644:	5013a52f 	andspl	sl, r3, pc, lsr #10

00000648 <l276>:
     648:	e016947a 	ands	r9, r6, sl, ror r4

0000064c <l277>:
     64c:	e0171008 	ands	r1, r7, r8

00000650 <l278>:
     650:	8014e430 	andshi	lr, r4, r0, lsr r4

00000654 <l279>:
     654:	d010300e 	andsle	r3, r0, lr

00000658 <l280>:
     658:	e2126b0d 	ands	r6, r2, #13312	; 0x3400

0000065c <l281>:
     65c:	a0113358 	andsge	r3, r1, r8, asr r3

00000660 <l282>:
     660:	e0125007 	ands	r5, r2, r7

00000664 <l283>:
     664:	e01c1009 	ands	r1, ip, r9

00000668 <l284>:
     668:	60132a45 	andsvs	r2, r3, r5, asr #20

0000066c <l285>:
     66c:	10077981 	andne	r7, r7, r1, lsl #19

00000670 <l286>:
     670:	d005c00e 	andle	ip, r5, lr

00000674 <l287>:
     674:	b019b06b 	andslt	fp, r9, fp, rrx

00000678 <l288>:
     678:	e001e115 	and	lr, r1, r5, lsl r1

0000067c <l289>:
     67c:	8002c06e 	andhi	ip, r2, lr, rrx

00000680 <l290>:
     680:	e01cc007 	ands	ip, ip, r7

00000684 <l291>:
     684:	e00a1007 	and	r1, sl, r7

00000688 <l292>:
     688:	e01b2940 	ands	r2, fp, r0, asr #18

0000068c <l293>:
     68c:	30015153 	andcc	r5, r1, r3, asr r1

00000690 <l294>:
     690:	e01c4062 	ands	r4, ip, r2, rrx

00000694 <l295>:
     694:	221b728d 	andscs	r7, fp, #-805306360	; 0xd0000008

00000698 <l296>:
     698:	301e4f01 	andscc	r4, lr, r1, lsl #30

0000069c <l297>:
     69c:	e013bc1b 	ands	fp, r3, fp, lsl ip

000006a0 <l298>:
     6a0:	a001a9e2 	andge	sl, r1, r2, ror #19

000006a4 <l299>:
     6a4:	60107eae 	andsvs	r7, r0, lr, lsr #29

000006a8 <l300>:
     6a8:	8015c069 	andshi	ip, r5, r9, rrx

000006ac <l301>:
     6ac:	e00c8005 	and	r8, ip, r5

000006b0 <l302>:
     6b0:	b21b4549 	andslt	r4, fp, #306184192	; 0x12400000

000006b4 <l303>:
     6b4:	e001aa36 	and	sl, r1, r6, lsr sl

000006b8 <l304>:
     6b8:	6013e1a5 	andsvs	lr, r3, r5, lsr #3

000006bc <l305>:
     6bc:	42155cdd 	andsmi	r5, r5, #56576	; 0xdd00

000006c0 <l306>:
     6c0:	e013900b 	ands	r9, r3, fp

000006c4 <l307>:
     6c4:	42138bba 	andsmi	r8, r3, #190464	; 0x2e800

000006c8 <l308>:
     6c8:	60199831 	andsvs	r9, r9, r1, lsr r8

000006cc <l309>:
     6cc:	e00a3000 	and	r3, sl, r0

000006d0 <l310>:
     6d0:	e2127936 	ands	r7, r2, #884736	; 0xd8000

000006d4 <l311>:
     6d4:	e003448a 	and	r4, r3, sl, lsl #9

000006d8 <l312>:
     6d8:	a2057e23 	andge	r7, r5, #560	; 0x230

000006dc <l313>:
     6dc:	e001c00c 	and	ip, r1, ip

000006e0 <l314>:
     6e0:	c007ac51 	andgt	sl, r7, r1, asr ip

000006e4 <l315>:
     6e4:	e0184003 	ands	r4, r8, r3

000006e8 <l316>:
     6e8:	400e4130 	andmi	r4, lr, r0, lsr r1

000006ec <l317>:
     6ec:	700f4489 	andvc	r4, pc, r9, lsl #9

000006f0 <l318>:
     6f0:	e00e74e3 	and	r7, lr, r3, ror #9

000006f4 <l319>:
     6f4:	e015372f 	ands	r3, r5, pc, lsr #14

000006f8 <l320>:
     6f8:	8004800e 	andhi	r8, r4, lr

000006fc <l321>:
     6fc:	e01b94a7 	ands	r9, fp, r7, lsr #9

00000700 <l322>:
     700:	90179858 	andsls	r9, r7, r8, asr r8

00000704 <l323>:
     704:	4212c19a 	andsmi	ip, r2, #-2147483610	; 0x80000026

00000708 <l324>:
     708:	e017a00c 	ands	sl, r7, ip

0000070c <l325>:
     70c:	801e5116 	andshi	r5, lr, r6, lsl r1

00000710 <l326>:
     710:	1208bf89 	andne	fp, r8, #548	; 0x224

00000714 <l327>:
     714:	601b5ae8 	andsvs	r5, fp, r8, ror #21

00000718 <l328>:
     718:	42131b4a 	andsmi	r1, r3, #75776	; 0x12800

0000071c <l329>:
     71c:	70091e51 	andvc	r1, r9, r1, asr lr

00000720 <l330>:
     720:	9010b243 	andsls	fp, r0, r3, asr #4

00000724 <l331>:
     724:	601b800c 	andsvs	r8, fp, ip

00000728 <l332>:
     728:	b00c6430 	andlt	r6, ip, r0, lsr r4

0000072c <l333>:
     72c:	90138b8e 	andsls	r8, r3, lr, lsl #23

00000730 <l334>:
     730:	d21b58e5 	andsle	r5, fp, #15007744	; 0xe50000

00000734 <l335>:
     734:	c0121137 	andsgt	r1, r2, r7, lsr r1

00000738 <l336>:
     738:	d006eaca 	andle	lr, r6, sl, asr #21

0000073c <l337>:
     73c:	e004a275 	and	sl, r4, r5, ror r2

00000740 <l338>:
     740:	9003906f 	andls	r9, r3, pc, rrx

00000744 <l339>:
     744:	50103009 	andspl	r3, r0, r9

00000748 <l340>:
     748:	e01be00e 	ands	lr, fp, lr

0000074c <l341>:
     74c:	2016a003 	andscs	sl, r6, r3

00000750 <l342>:
     750:	3007180a 	andcc	r1, r7, sl, lsl #16

00000754 <l343>:
     754:	d0057006 	andle	r7, r5, r6

00000758 <l344>:
     758:	e0085a34 	and	r5, r8, r4, lsr sl

0000075c <l345>:
     75c:	e2012075 	and	r2, r1, #117	; 0x75

00000760 <l346>:
     760:	800e1009 	andhi	r1, lr, r9

00000764 <l347>:
     764:	e0168068 	ands	r8, r6, r8, rrx

00000768 <l348>:
     768:	c002406c 	andgt	r4, r2, ip, rrx

0000076c <l349>:
     76c:	401aeb7a 	andsmi	lr, sl, sl, ror fp

00000770 <l350>:
     770:	e012203e 	ands	r2, r2, lr, lsr r0

00000774 <l351>:
     774:	e2184098 	ands	r4, r8, #152	; 0x98

00000778 <l352>:
     778:	e0179003 	ands	r9, r7, r3

0000077c <l353>:
     77c:	e20723ed 	and	r2, r7, #-1275068413	; 0xb4000003

00000780 <l354>:
     780:	c005585c 	andgt	r5, r5, ip, asr r8

00000784 <l355>:
     784:	c208eda2 	andgt	lr, r8, #10368	; 0x2880

00000788 <l356>:
     788:	e2083c9e 	and	r3, r8, #40448	; 0x9e00

0000078c <l357>:
     78c:	20018009 	andcs	r8, r1, r9

00000790 <l358>:
     790:	e003b004 	and	fp, r3, r4

00000794 <l359>:
     794:	40068061 	andmi	r8, r6, r1, rrx

00000798 <l360>:
     798:	10169ae0 	andsne	r9, r6, r0, ror #21

0000079c <l361>:
     79c:	3005806e 	andcc	r8, r5, lr, rrx

000007a0 <l362>:
     7a0:	9014e97c 	andsls	lr, r4, ip, ror r9

000007a4 <l363>:
     7a4:	700b1005 	andvc	r1, fp, r5

000007a8 <l364>:
     7a8:	e0066069 	and	r6, r6, r9, rrx

000007ac <l365>:
     7ac:	12161c21 	andsne	r1, r6, #8448	; 0x2100

000007b0 <l366>:
     7b0:	801ab008 	andshi	fp, sl, r8

000007b4 <l367>:
     7b4:	a00be2ce 	andge	lr, fp, lr, asr #5

000007b8 <l368>:
     7b8:	a2055207 	andge	r5, r5, #1879048192	; 0x70000000

000007bc <l369>:
     7bc:	e0048b47 	and	r8, r4, r7, asr #22

000007c0 <l370>:
     7c0:	e00c100b 	and	r1, ip, fp

000007c4 <l371>:
     7c4:	60149007 	andsvs	r9, r4, r7

000007c8 <l372>:
     7c8:	521a2a61 	andspl	r2, sl, #397312	; 0x61000

000007cc <l373>:
     7cc:	20010b5b 	andcs	r0, r1, fp, asr fp

000007d0 <l374>:
     7d0:	e21e8fe5 	ands	r8, lr, #916	; 0x394

000007d4 <l375>:
     7d4:	e01b03a5 	ands	r0, fp, r5, lsr #7

000007d8 <l376>:
     7d8:	a0174008 	andsge	r4, r7, r8

000007dc <l377>:
     7dc:	b018ae57 	andslt	sl, r8, r7, asr lr

000007e0 <l378>:
     7e0:	b20aa921 	andlt	sl, sl, #540672	; 0x84000

000007e4 <l379>:
     7e4:	90149768 	andsls	r9, r4, r8, ror #14

000007e8 <l380>:
     7e8:	e2165ab3 	ands	r5, r6, #733184	; 0xb3000

000007ec <l381>:
     7ec:	401b8009 	andsmi	r8, fp, r9

000007f0 <l382>:
     7f0:	e00a2002 	and	r2, sl, r2

000007f4 <l383>:
     7f4:	c21f28cd 	andsgt	r2, pc, #13434880	; 0xcd0000

000007f8 <l384>:
     7f8:	4016100f 	andsmi	r1, r6, pc

000007fc <l385>:
     7fc:	4010c00e 	andsmi	ip, r0, lr

00000800 <l386>:
     800:	520e3b11 	andpl	r3, lr, #17408	; 0x4400

00000804 <l387>:
     804:	e0180778 	ands	r0, r8, r8, ror r7

00000808 <l388>:
     808:	e016b00c 	ands	fp, r6, ip

0000080c <l389>:
     80c:	e20e778f 	and	r7, lr, #37486592	; 0x23c0000

00000810 <l390>:
     810:	801b2001 	andshi	r2, fp, r1

00000814 <l391>:
     814:	1008426f 	andne	r4, r8, pc, ror #4

00000818 <l392>:
     818:	e00ca062 	and	sl, ip, r2, rrx

0000081c <l393>:
     81c:	e0173069 	ands	r3, r7, r9, rrx

00000820 <l394>:
     820:	a0162fa5 	andsge	r2, r6, r5, lsr #31

00000824 <l395>:
     824:	e0095c03 	and	r5, r9, r3, lsl #24

00000828 <l396>:
     828:	e00a5cc9 	and	r5, sl, r9, asr #25

0000082c <l397>:
     82c:	e00bb003 	and	fp, fp, r3

00000830 <l398>:
     830:	701587ab 	andsvc	r8, r5, fp, lsr #15

00000834 <l399>:
     834:	921cb437 	andsls	fp, ip, #922746880	; 0x37000000

00000838 <l400>:
     838:	5004b005 	andpl	fp, r4, r5

0000083c <l401>:
     83c:	5015500c 	andspl	r5, r5, ip

00000840 <l402>:
     840:	b00aa23b 	andlt	sl, sl, fp, lsr r2

00000844 <l403>:
     844:	e00a403b 	and	r4, sl, fp, lsr r0

00000848 <l404>:
     848:	d213e73b 	andsle	lr, r3, #15466496	; 0xec0000

0000084c <l405>:
     84c:	700c4c36 	andvc	r4, ip, r6, lsr ip

00000850 <l406>:
     850:	40096682 	andmi	r6, r9, r2, lsl #13

00000854 <l407>:
     854:	7210872f 	andsvc	r8, r0, #12320768	; 0xbc0000

00000858 <l408>:
     858:	500cc003 	andpl	ip, ip, r3

0000085c <l409>:
     85c:	e20a6236 	and	r6, sl, #1610612739	; 0x60000003

00000860 <l410>:
     860:	e00ae004 	and	lr, sl, r4

00000864 <l411>:
     864:	e018b565 	ands	fp, r8, r5, ror #10

00000868 <l412>:
     868:	001a5067 	andseq	r5, sl, r7, rrx

0000086c <l413>:
     86c:	02161609 	andseq	r1, r6, #9437184	; 0x900000

00000870 <l414>:
     870:	00127007 	andseq	r7, r2, r7

00000874 <l415>:
     874:	e01f9000 	ands	r9, pc, r0

00000878 <l416>:
     878:	90008067 	andls	r8, r0, r7, rrx

0000087c <l417>:
     87c:	e015b12a 	ands	fp, r5, sl, lsr #2

00000880 <l418>:
     880:	c004818c 	andgt	r8, r4, ip, lsl #3

00000884 <l419>:
     884:	520e5146 	andpl	r5, lr, #-2147483631	; 0x80000011

00000888 <l420>:
     888:	d203e012 	andle	lr, r3, #18

0000088c <l421>:
     88c:	e0141cc3 	ands	r1, r4, r3, asr #25

00000890 <l422>:
     890:	82005399 	andhi	r5, r0, #1677721602	; 0x64000002

00000894 <l423>:
     894:	e20a6cce 	and	r6, sl, #52736	; 0xce00

00000898 <l424>:
     898:	a21842ff 	andsge	r4, r8, #-268435441	; 0xf000000f

0000089c <l425>:
     89c:	b01c4a31 	andslt	r4, ip, r1, lsr sl

000008a0 <l426>:
     8a0:	32110b09 	andscc	r0, r1, #9216	; 0x2400

000008a4 <l427>:
     8a4:	b009e424 	andlt	lr, r9, r4, lsr #8

000008a8 <l428>:
     8a8:	c0052b1b 	andgt	r2, r5, fp, lsl fp

000008ac <l429>:
     8ac:	e2155b07 	ands	r5, r5, #7168	; 0x1c00

000008b0 <l430>:
     8b0:	e0017b50 	and	r7, r1, r0, asr fp

000008b4 <l431>:
     8b4:	20107511 	andscs	r7, r0, r1, lsl r5

000008b8 <l432>:
     8b8:	a01b900b 	andsge	r9, fp, fp

000008bc <l433>:
     8bc:	e21cb013 	ands	fp, ip, #19

000008c0 <l434>:
     8c0:	200c7115 	andcs	r7, ip, r5, lsl r1

000008c4 <l435>:
     8c4:	a007e007 	andge	lr, r7, r7

000008c8 <l436>:
     8c8:	e009c5c2 	and	ip, r9, r2, asr #11

000008cc <l437>:
     8cc:	e008167b 	and	r1, r8, fp, ror r6

000008d0 <l438>:
     8d0:	5013000f 	andspl	r0, r3, pc

000008d4 <l439>:
     8d4:	e206047b 	and	r0, r6, #2063597568	; 0x7b000000

000008d8 <l440>:
     8d8:	801ccf8e 	andshi	ip, ip, lr, lsl #31

000008dc <l441>:
     8dc:	70096d2f 	andvc	r6, r9, pc, lsr #26

000008e0 <l442>:
     8e0:	b0164877 	andslt	r4, r6, r7, ror r8

000008e4 <l443>:
     8e4:	520eaa33 	andpl	sl, lr, #208896	; 0x33000

000008e8 <l444>:
     8e8:	80051858 	andhi	r1, r5, r8, asr r8

000008ec <l445>:
     8ec:	10062714 	andne	r2, r6, r4, lsl r7

000008f0 <l446>:
     8f0:	70015005 	andvc	r5, r1, r5

000008f4 <l447>:
     8f4:	500bb753 	andpl	fp, fp, r3, asr r7

000008f8 <l448>:
     8f8:	9213adb6 	andsls	sl, r3, #11648	; 0x2d80

000008fc <l449>:
     8fc:	e202786f 	and	r7, r2, #7274496	; 0x6f0000

00000900 <l450>:
     900:	700c4239 	andvc	r4, ip, r9, lsr r2

00000904 <l451>:
     904:	e0031f62 	and	r1, r3, r2, ror #30

00000908 <l452>:
     908:	c006400f 	andgt	r4, r6, pc

0000090c <l453>:
     90c:	4006e55b 	andmi	lr, r6, fp, asr r5

00000910 <l454>:
     910:	e2192eed 	ands	r2, r9, #3792	; 0xed0

00000914 <l455>:
     914:	e00c7a20 	and	r7, ip, r0, lsr #20

00000918 <l456>:
     918:	e0190d83 	ands	r0, r9, r3, lsl #27

0000091c <l457>:
     91c:	7019e061 	andsvc	lr, r9, r1, rrx

00000920 <l458>:
     920:	e01e921e 	ands	r9, lr, lr, lsl r2

00000924 <l459>:
     924:	40092008 	andmi	r2, r9, r8

00000928 <l460>:
     928:	321f2ed1 	andscc	r2, pc, #3344	; 0xd10

0000092c <l461>:
     92c:	90119004 	andsls	r9, r1, r4

00000930 <l462>:
     930:	e0176108 	ands	r6, r7, r8, lsl #2

00000934 <l463>:
     934:	e00a2067 	and	r2, sl, r7, rrx

00000938 <l464>:
     938:	e007100f 	and	r1, r7, pc

0000093c <l465>:
     93c:	721f0032 	andsvc	r0, pc, #50	; 0x32

00000940 <l466>:
     940:	e0195b57 	ands	r5, r9, r7, asr fp

00000944 <l467>:
     944:	e0137063 	ands	r7, r3, r3, rrx

00000948 <l468>:
     948:	d00c2000 	andle	r2, ip, r0

0000094c <l469>:
     94c:	5003900c 	andpl	r9, r3, ip

00000950 <l470>:
     950:	c01b2008 	andsgt	r2, fp, r8

00000954 <l471>:
     954:	800bb005 	andhi	fp, fp, r5

00000958 <l472>:
     958:	20083d83 	andcs	r3, r8, r3, lsl #27

0000095c <l473>:
     95c:	b0060062 	andlt	r0, r6, r2, rrx

00000960 <l474>:
     960:	e010e002 	ands	lr, r0, r2

00000964 <l475>:
     964:	0011e065 	andseq	lr, r1, r5, rrx

00000968 <l476>:
     968:	e2037922 	and	r7, r3, #557056	; 0x88000

0000096c <l477>:
     96c:	e00f2069 	and	r2, pc, r9, rrx

00000970 <l478>:
     970:	e003b062 	and	fp, r3, r2, rrx

00000974 <l479>:
     974:	501eb067 	andspl	fp, lr, r7, rrx

00000978 <l480>:
     978:	0205b8c7 	andeq	fp, r5, #13041664	; 0xc70000

0000097c <l481>:
     97c:	b20e6e9f 	andlt	r6, lr, #2544	; 0x9f0

00000980 <l482>:
     980:	320f9ca1 	andcc	r9, pc, #41216	; 0xa100

00000984 <l483>:
     984:	72053cbb 	andvc	r3, r5, #47872	; 0xbb00

00000988 <l484>:
     988:	3201a587 	andcc	sl, r1, #566231040	; 0x21c00000

0000098c <l485>:
     98c:	1005a00c 	andne	sl, r5, ip

00000990 <l486>:
     990:	e20e0663 	and	r0, lr, #103809024	; 0x6300000

00000994 <l487>:
     994:	220c03c5 	andcs	r0, ip, #335544323	; 0x14000003

00000998 <l488>:
     998:	e000c006 	and	ip, r0, r6

0000099c <l489>:
     99c:	e00f5067 	and	r5, pc, r7, rrx

000009a0 <l490>:
     9a0:	e01ccb46 	ands	ip, ip, r6, asr #22

000009a4 <l491>:
     9a4:	62137933 	andsvs	r7, r3, #835584	; 0xcc000

000009a8 <l492>:
     9a8:	e0116f06 	ands	r6, r1, r6, lsl #30

000009ac <l493>:
     9ac:	e00b7612 	and	r7, fp, r2, lsl r6

000009b0 <l494>:
     9b0:	1010e06c 	andsne	lr, r0, ip, rrx

000009b4 <l495>:
     9b4:	e0067c12 	and	r7, r6, r2, lsl ip

000009b8 <l496>:
     9b8:	701e4000 	andsvc	r4, lr, r0

000009bc <l497>:
     9bc:	200180e6 	andcs	r8, r1, r6, ror #1

000009c0 <l498>:
     9c0:	901e900e 	andsls	r9, lr, lr

000009c4 <l499>:
     9c4:	201ea001 	andscs	sl, lr, r1

000009c8 <l500>:
     9c8:	e00a76ea 	and	r7, sl, sl, ror #13

000009cc <l501>:
     9cc:	e2088821 	and	r8, r8, #2162688	; 0x210000

000009d0 <l502>:
     9d0:	500f0006 	andpl	r0, pc, r6

000009d4 <l503>:
     9d4:	200f3105 	andcs	r3, pc, r5, lsl #2

000009d8 <l504>:
     9d8:	e210ca45 	ands	ip, r0, #282624	; 0x45000

000009dc <l505>:
     9dc:	900c9001 	andls	r9, ip, r1

000009e0 <l506>:
     9e0:	e00b2686 	and	r2, fp, r6, lsl #13

000009e4 <l507>:
     9e4:	e00851cc 	and	r5, r8, ip, asr #3

000009e8 <l508>:
     9e8:	e01026c4 	ands	r2, r0, r4, asr #13

000009ec <l509>:
     9ec:	e200b00b 	and	fp, r0, #11

000009f0 <l510>:
     9f0:	e213ce91 	ands	ip, r3, #2320	; 0x910

000009f4 <l511>:
     9f4:	c20cb202 	andgt	fp, ip, #536870912	; 0x20000000

000009f8 <l512>:
     9f8:	301a9007 	andscc	r9, sl, r7

000009fc <l513>:
     9fc:	e007300f 	and	r3, r7, pc

00000a00 <l514>:
     a00:	92070c9e 	andls	r0, r7, #40448	; 0x9e00

00000a04 <l515>:
     a04:	e20b803d 	and	r8, fp, #61	; 0x3d

00000a08 <l516>:
     a08:	e205e1af 	and	lr, r5, #-1073741781	; 0xc000002b

00000a0c <l517>:
     a0c:	e213a97e 	ands	sl, r3, #2064384	; 0x1f8000

00000a10 <l518>:
     a10:	e0107c30 	ands	r7, r0, r0, lsr ip

00000a14 <l519>:
     a14:	200c2066 	andcs	r2, ip, r6, rrx

00000a18 <l520>:
     a18:	c0155068 	andsgt	r5, r5, r8, rrx

00000a1c <l521>:
     a1c:	b20e91da 	andlt	r9, lr, #-2147483594	; 0x80000036

00000a20 <l522>:
     a20:	1206901e 	andne	r9, r6, #30

00000a24 <l523>:
     a24:	020c031d 	andeq	r0, ip, #1946157056	; 0x74000000

00000a28 <l524>:
     a28:	e00f3003 	and	r3, pc, r3

00000a2c <l525>:
     a2c:	e01e706a 	ands	r7, lr, sl, rrx

00000a30 <l526>:
     a30:	321721fa 	andscc	r2, r7, #-2147483586	; 0x8000003e

00000a34 <l527>:
     a34:	e209240b 	and	r2, r9, #184549376	; 0xb000000

00000a38 <l528>:
     a38:	601cb069 	andsvs	fp, ip, r9, rrx

00000a3c <l529>:
     a3c:	200c59eb 	andcs	r5, ip, fp, ror #19

00000a40 <l530>:
     a40:	d013e002 	andsle	lr, r3, r2

00000a44 <l531>:
     a44:	420ee7c3 	andmi	lr, lr, #51118080	; 0x30c0000

00000a48 <l532>:
     a48:	021c41c2 	andseq	r4, ip, #-2147483600	; 0x80000030

00000a4c <l533>:
     a4c:	100b8007 	andne	r8, fp, r7

00000a50 <l534>:
     a50:	c01c6e26 	andsgt	r6, ip, r6, lsr #28

00000a54 <l535>:
     a54:	b001eb78 	andlt	lr, r1, r8, ror fp

00000a58 <l536>:
     a58:	d006b80a 	andle	fp, r6, sl, lsl #16

00000a5c <l537>:
     a5c:	e20f95c1 	and	r9, pc, #809500672	; 0x30400000

00000a60 <l538>:
     a60:	e21739f7 	ands	r3, r7, #4046848	; 0x3dc000

00000a64 <l539>:
     a64:	e00b7009 	and	r7, fp, r9

00000a68 <l540>:
     a68:	d009cc49 	andle	ip, r9, r9, asr #24

00000a6c <l541>:
     a6c:	e018e213 	ands	lr, r8, r3, lsl r2

00000a70 <l542>:
     a70:	a00993c2 	andge	r9, r9, r2, asr #7

00000a74 <l543>:
     a74:	20179001 	andscs	r9, r7, r1

00000a78 <l544>:
     a78:	500c9d87 	andpl	r9, ip, r7, lsl #27

00000a7c <l545>:
     a7c:	c0090770 	andgt	r0, r9, r0, ror r7

00000a80 <l546>:
     a80:	401314e5 	andsmi	r1, r3, r5, ror #9

00000a84 <l547>:
     a84:	e00c706a 	and	r7, ip, sl, rrx

00000a88 <l548>:
     a88:	e00a573a 	and	r5, sl, sl, lsr r7

00000a8c <l549>:
     a8c:	e209ae8d 	and	sl, r9, #2256	; 0x8d0

00000a90 <l550>:
     a90:	4005e00c 	andmi	lr, r5, ip

00000a94 <l551>:
     a94:	e0015a1c 	and	r5, r1, ip, lsl sl

00000a98 <l552>:
     a98:	901e8067 	andsls	r8, lr, r7, rrx

00000a9c <l553>:
     a9c:	520f6001 	andpl	r6, pc, #1

00000aa0 <l554>:
     aa0:	821e4b03 	andshi	r4, lr, #3072	; 0xc00

00000aa4 <l555>:
     aa4:	70178b80 	andsvc	r8, r7, r0, lsl #23

00000aa8 <l556>:
     aa8:	e21490e1 	ands	r9, r4, #225	; 0xe1

00000aac <l557>:
     aac:	8014008c 	andshi	r0, r4, ip, lsl #1

00000ab0 <l558>:
     ab0:	e01093e3 	ands	r9, r0, r3, ror #7

00000ab4 <l559>:
     ab4:	501b2068 	andspl	r2, fp, r8, rrx

00000ab8 <l560>:
     ab8:	e21ba13e 	ands	sl, fp, #-2147483633	; 0x8000000f

00000abc <l561>:
     abc:	7008b95c 	andvc	fp, r8, ip, asr r9

00000ac0 <l562>:
     ac0:	e0172005 	ands	r2, r7, r5

00000ac4 <l563>:
     ac4:	b0136007 	andslt	r6, r3, r7

00000ac8 <l564>:
     ac8:	40016002 	andmi	r6, r1, r2

00000acc <l565>:
     acc:	600be935 	andvs	lr, fp, r5, lsr r9

00000ad0 <l566>:
     ad0:	c2054ebf 	andgt	r4, r5, #3056	; 0xbf0

00000ad4 <l567>:
     ad4:	600f200f 	andvs	r2, pc, pc

00000ad8 <l568>:
     ad8:	e00c603a 	and	r6, ip, sl, lsr r0

00000adc <l569>:
     adc:	1012e063 	andsne	lr, r2, r3, rrx

00000ae0 <l570>:
     ae0:	e00c0530 	and	r0, ip, r0, lsr r5

00000ae4 <l571>:
     ae4:	601f55e4 	andsvs	r5, pc, r4, ror #11

00000ae8 <l572>:
     ae8:	e0066616 	and	r6, r6, r6, lsl r6

00000aec <l573>:
     aec:	30018d00 	andcc	r8, r1, r0, lsl #26

00000af0 <l574>:
     af0:	e01f1000 	ands	r1, pc, r0

00000af4 <l575>:
     af4:	201693e5 	andscs	r9, r6, r5, ror #7

00000af8 <l576>:
     af8:	e0112009 	ands	r2, r1, r9

00000afc <l577>:
     afc:	901e6064 	andsls	r6, lr, r4, rrx

00000b00 <l578>:
     b00:	9002b87e 	andls	fp, r2, lr, ror r8

00000b04 <l579>:
     b04:	6006eecf 	andvs	lr, r6, pc, asr #29

00000b08 <l580>:
     b08:	c018e154 	andsgt	lr, r8, r4, asr r1

00000b0c <l581>:
     b0c:	e006e00e 	and	lr, r6, lr

00000b10 <l582>:
     b10:	e0070004 	and	r0, r7, r4

00000b14 <l583>:
     b14:	12064417 	andne	r4, r6, #385875968	; 0x17000000

00000b18 <l584>:
     b18:	720b585b 	andvc	r5, fp, #5963776	; 0x5b0000

00000b1c <l585>:
     b1c:	c203ed6f 	andgt	lr, r3, #7104	; 0x1bc0

00000b20 <l586>:
     b20:	000ebc81 	andeq	fp, lr, r1, lsl #25

00000b24 <l587>:
     b24:	001b7439 	andseq	r7, fp, r9, lsr r4

00000b28 <l588>:
     b28:	1213c01e 	andsne	ip, r3, #30

00000b2c <l589>:
     b2c:	00023004 	andeq	r3, r2, r4

00000b30 <l590>:
     b30:	e0191004 	ands	r1, r9, r4

00000b34 <l591>:
     b34:	e202303b 	and	r3, r2, #59	; 0x3b

00000b38 <l592>:
     b38:	e01c0007 	ands	r0, ip, r7

00000b3c <l593>:
     b3c:	c2005f8b 	andgt	r5, r0, #556	; 0x22c

00000b40 <l594>:
     b40:	1002eeef 	andne	lr, r2, pc, ror #29

00000b44 <l595>:
     b44:	e00f806b 	and	r8, pc, fp, rrx

00000b48 <l596>:
     b48:	2011806e 	andscs	r8, r1, lr, rrx

00000b4c <l597>:
     b4c:	a006c77c 	andge	ip, r6, ip, ror r7

00000b50 <l598>:
     b50:	e20a329f 	and	r3, sl, #-268435447	; 0xf0000009

00000b54 <l599>:
     b54:	721f9b05 	andsvc	r9, pc, #5120	; 0x1400

00000b58 <l600>:
     b58:	2008c855 	andcs	ip, r8, r5, asr r8

00000b5c <l601>:
     b5c:	10109000 	andsne	r9, r0, r0

00000b60 <l602>:
     b60:	e2158ad5 	ands	r8, r5, #872448	; 0xd5000

00000b64 <l603>:
     b64:	e00f100f 	and	r1, pc, pc

00000b68 <l604>:
     b68:	e21ec8bb 	ands	ip, lr, #12255232	; 0xbb0000

00000b6c <l605>:
     b6c:	e0101000 	ands	r1, r0, r0

00000b70 <l606>:
     b70:	e0158003 	ands	r8, r5, r3

00000b74 <l607>:
     b74:	900c2530 	andls	r2, ip, r0, lsr r5

00000b78 <l608>:
     b78:	200e9063 	andcs	r9, lr, r3, rrx

00000b7c <l609>:
     b7c:	e008600e 	and	r6, r8, lr

00000b80 <l610>:
     b80:	b2108315 	andslt	r8, r0, #1409286144	; 0x54000000

00000b84 <l611>:
     b84:	e210b772 	ands	fp, r0, #29884416	; 0x1c80000

00000b88 <l612>:
     b88:	c000958f 	andgt	r9, r0, pc, lsl #11

00000b8c <l613>:
     b8c:	e21f291d 	ands	r2, pc, #475136	; 0x74000

00000b90 <l614>:
     b90:	a0002515 	andge	r2, r0, r5, lsl r5

00000b94 <l615>:
     b94:	e01c200b 	ands	r2, ip, fp

00000b98 <l616>:
     b98:	e0011b22 	and	r1, r1, r2, lsr #22

00000b9c <l617>:
     b9c:	c004ba72 	andgt	fp, r4, r2, ror sl

00000ba0 <l618>:
     ba0:	e21726e6 	ands	r2, r7, #241172480	; 0xe600000

00000ba4 <l619>:
     ba4:	e204886b 	and	r8, r4, #7012352	; 0x6b0000

00000ba8 <l620>:
     ba8:	40178065 	andsmi	r8, r7, r5, rrx

00000bac <l621>:
     bac:	e210eaff 	ands	lr, r0, #1044480	; 0xff000

00000bb0 <l622>:
     bb0:	e21a70d8 	ands	r7, sl, #216	; 0xd8

00000bb4 <l623>:
     bb4:	e0188001 	ands	r8, r8, r1

00000bb8 <l624>:
     bb8:	301fee0c 	andscc	lr, pc, ip, lsl #28

00000bbc <l625>:
     bbc:	a200cea9 	andge	ip, r0, #2704	; 0xa90

00000bc0 <l626>:
     bc0:	001ab065 	andseq	fp, sl, r5, rrx

00000bc4 <l627>:
     bc4:	0000600a 	andeq	r6, r0, sl

00000bc8 <l628>:
     bc8:	e01a2dea 	ands	r2, sl, sl, ror #27

00000bcc <l629>:
     bcc:	200e695c 	andcs	r6, lr, ip, asr r9

00000bd0 <l630>:
     bd0:	401c7003 	andsmi	r7, ip, r3

00000bd4 <l631>:
     bd4:	10150004 	andsne	r0, r5, r4

00000bd8 <l632>:
     bd8:	e010e860 	ands	lr, r0, r0, ror #16

00000bdc <l633>:
     bdc:	9012372e 	andsls	r3, r2, lr, lsr #14

00000be0 <l634>:
     be0:	e0065061 	and	r5, r6, r1, rrx

00000be4 <l635>:
     be4:	e0071a10 	and	r1, r7, r0, lsl sl

00000be8 <l636>:
     be8:	e21360da 	ands	r6, r3, #218	; 0xda

00000bec <l637>:
     bec:	30048000 	andcc	r8, r4, r0

00000bf0 <l638>:
     bf0:	80190007 	andshi	r0, r9, r7

00000bf4 <l639>:
     bf4:	62069209 	andvs	r9, r6, #-1879048192	; 0x90000000

00000bf8 <l640>:
     bf8:	e003ce8e 	and	ip, r3, lr, lsl #29

00000bfc <l641>:
     bfc:	e012e00b 	ands	lr, r2, fp

00000c00 <l642>:
     c00:	e01f400f 	ands	r4, pc, pc

00000c04 <l643>:
     c04:	e01f6002 	ands	r6, pc, r2

00000c08 <l644>:
     c08:	e01132a1 	ands	r3, r1, r1, lsr #5

00000c0c <l645>:
     c0c:	e001a179 	and	sl, r1, r9, ror r1

00000c10 <l646>:
     c10:	d007bc1e 	andle	fp, r7, lr, lsl ip

00000c14 <l647>:
     c14:	d002c277 	andle	ip, r2, r7, ror r2

00000c18 <l648>:
     c18:	e00e9821 	and	r9, lr, r1, lsr #16

00000c1c <l649>:
     c1c:	e003c7a5 	and	ip, r3, r5, lsr #15

00000c20 <l650>:
     c20:	8001b00a 	andhi	fp, r1, sl

00000c24 <l651>:
     c24:	e004500f 	and	r5, r4, pc

00000c28 <l652>:
     c28:	e008900a 	and	r9, r8, sl

00000c2c <l653>:
     c2c:	20018002 	andcs	r8, r1, r2

00000c30 <l654>:
     c30:	e20b01a7 	and	r0, fp, #-1073741783	; 0xc0000029

00000c34 <l655>:
     c34:	401f6320 	andsmi	r6, pc, r0, lsr #6

00000c38 <l656>:
     c38:	321f601b 	andscc	r6, pc, #27

00000c3c <l657>:
     c3c:	e003b06f 	and	fp, r3, pc, rrx

00000c40 <l658>:
     c40:	80135064 	andshi	r5, r3, r4, rrx

00000c44 <l659>:
     c44:	7005a00a 	andvc	sl, r5, sl

00000c48 <l660>:
     c48:	e009806b 	and	r8, r9, fp, rrx

00000c4c <l661>:
     c4c:	e0058b39 	and	r8, r5, r9, lsr fp

00000c50 <l662>:
     c50:	60128f4b 	andsvs	r8, r2, fp, asr #30

00000c54 <l663>:
     c54:	e0074e55 	and	r4, r7, r5, asr lr

00000c58 <l664>:
     c58:	b00fe061 	andlt	lr, pc, r1, rrx

00000c5c <l665>:
     c5c:	e00ca007 	and	sl, ip, r7

00000c60 <l666>:
     c60:	7004000e 	andvc	r0, r4, lr

00000c64 <l667>:
     c64:	80004004 	andhi	r4, r0, r4

00000c68 <l668>:
     c68:	b002606a 	andlt	r6, r2, sl, rrx

00000c6c <l669>:
     c6c:	e00a8008 	and	r8, sl, r8

00000c70 <l670>:
     c70:	0002a976 	andeq	sl, r2, r6, ror r9

00000c74 <l671>:
     c74:	02037805 	andeq	r7, r3, #327680	; 0x50000

00000c78 <l672>:
     c78:	300a312b 	andcc	r3, sl, fp, lsr #2

00000c7c <l673>:
     c7c:	220a553e 	andcs	r5, sl, #260046848	; 0xf800000

00000c80 <l674>:
     c80:	e00cb625 	and	fp, ip, r5, lsr #12

00000c84 <l675>:
     c84:	d01c5b12 	andsle	r5, ip, r2, lsl fp

00000c88 <l676>:
     c88:	e00e700a 	and	r7, lr, sl

00000c8c <l677>:
     c8c:	e01e1e12 	ands	r1, lr, r2, lsl lr

00000c90 <l678>:
     c90:	8008855a 	andhi	r8, r8, sl, asr r5

00000c94 <l679>:
     c94:	121b84b6 	andsne	r8, fp, #-1241513984	; 0xb6000000

00000c98 <l680>:
     c98:	c0129a5b 	andsgt	r9, r2, fp, asr sl

00000c9c <l681>:
     c9c:	e00b324c 	and	r3, fp, ip, asr #4

00000ca0 <l682>:
     ca0:	e005c00b 	and	ip, r5, fp

00000ca4 <l683>:
     ca4:	e2145ab3 	ands	r5, r4, #733184	; 0xb3000

00000ca8 <l684>:
     ca8:	e01e200c 	ands	r2, lr, ip

00000cac <l685>:
     cac:	e0054066 	and	r4, r5, r6, rrx

00000cb0 <l686>:
     cb0:	520ae0d9 	andpl	lr, sl, #217	; 0xd9

00000cb4 <l687>:
     cb4:	600e71c9 	andvs	r7, lr, r9, asr #3

00000cb8 <l688>:
     cb8:	50154004 	andspl	r4, r5, r4

00000cbc <l689>:
     cbc:	e01e000a 	ands	r0, lr, sl

00000cc0 <l690>:
     cc0:	500f5009 	andpl	r5, pc, r9

00000cc4 <l691>:
     cc4:	e01b000e 	ands	r0, fp, lr

00000cc8 <l692>:
     cc8:	e0189c75 	ands	r9, r8, r5, ror ip

00000ccc <l693>:
     ccc:	6000cc71 	andvs	ip, r0, r1, ror ip

00000cd0 <l694>:
     cd0:	e00f4060 	and	r4, pc, r0, rrx

00000cd4 <l695>:
     cd4:	e209220d 	and	r2, r9, #-805306368	; 0xd0000000

00000cd8 <l696>:
     cd8:	7003c00b 	andvc	ip, r3, fp

00000cdc <l697>:
     cdc:	e00692a8 	and	r9, r6, r8, lsr #5

00000ce0 <l698>:
     ce0:	2004100e 	andcs	r1, r4, lr

00000ce4 <l699>:
     ce4:	50197008 	andspl	r7, r9, r8

00000ce8 <l700>:
     ce8:	0004500c 	andeq	r5, r4, ip

00000cec <l701>:
     cec:	300bcc33 	andcc	ip, fp, r3, lsr ip

00000cf0 <l702>:
     cf0:	02041c0d 	andeq	r1, r4, #3328	; 0xd00

00000cf4 <l703>:
     cf4:	42186405 	andsmi	r6, r8, #83886080	; 0x5000000

00000cf8 <l704>:
     cf8:	50183060 	andspl	r3, r8, r0, rrx

00000cfc <l705>:
     cfc:	4211b084 	andsmi	fp, r1, #132	; 0x84

00000d00 <l706>:
     d00:	e01a6154 	ands	r6, sl, r4, asr r1

00000d04 <l707>:
     d04:	e2051a27 	and	r1, r5, #159744	; 0x27000

00000d08 <l708>:
     d08:	20170006 	andscs	r0, r7, r6

00000d0c <l709>:
     d0c:	42075425 	andmi	r5, r7, #620756992	; 0x25000000

00000d10 <l710>:
     d10:	e017a531 	ands	sl, r7, r1, lsr r5

00000d14 <l711>:
     d14:	e0022726 	and	r2, r2, r6, lsr #14

00000d18 <l712>:
     d18:	e017b488 	ands	fp, r7, r8, lsl #9

00000d1c <l713>:
     d1c:	b01c603a 	andslt	r6, ip, sl, lsr r0

00000d20 <l714>:
     d20:	d00b415c 	andle	r4, fp, ip, asr r1

00000d24 <l715>:
     d24:	101f600f 	andsne	r6, pc, pc

00000d28 <l716>:
     d28:	e00f6005 	and	r6, pc, r5

00000d2c <l717>:
     d2c:	e001e81a 	and	lr, r1, sl, lsl r8

00000d30 <l718>:
     d30:	e0103166 	ands	r3, r0, r6, ror #2

00000d34 <l719>:
     d34:	e0198402 	ands	r8, r9, r2, lsl #8

00000d38 <l720>:
     d38:	92042c8b 	andls	r2, r4, #35584	; 0x8b00

00000d3c <l721>:
     d3c:	6217210e 	andsvs	r2, r7, #-2147483645	; 0x80000003

00000d40 <l722>:
     d40:	8215e004 	andshi	lr, r5, #4

00000d44 <l723>:
     d44:	e01e9009 	ands	r9, lr, r9

00000d48 <l724>:
     d48:	520612ea 	andpl	r1, r6, #-1610612722	; 0xa000000e

00000d4c <l725>:
     d4c:	e0091213 	and	r1, r9, r3, lsl r2

00000d50 <l726>:
     d50:	020a1d11 	andeq	r1, sl, #1088	; 0x440

00000d54 <l727>:
     d54:	b0080379 	andlt	r0, r8, r9, ror r3

00000d58 <l728>:
     d58:	e014e061 	ands	lr, r4, r1, rrx

00000d5c <l729>:
     d5c:	c0181000 	andsgt	r1, r8, r0

00000d60 <l730>:
     d60:	50167061 	andspl	r7, r6, r1, rrx

00000d64 <l731>:
     d64:	e207458d 	and	r4, r7, #591396864	; 0x23400000

00000d68 <l732>:
     d68:	e2007212 	and	r7, r0, #536870913	; 0x20000001

00000d6c <l733>:
     d6c:	401f200b 	andsmi	r2, pc, fp

00000d70 <l734>:
     d70:	e019300a 	ands	r3, r9, sl

00000d74 <l735>:
     d74:	e01fb10e 	ands	fp, pc, lr, lsl #2

00000d78 <l736>:
     d78:	521c9605 	andspl	r9, ip, #5242880	; 0x500000

00000d7c <l737>:
     d7c:	301ea004 	andscc	sl, lr, r4

00000d80 <l738>:
     d80:	e0032066 	and	r2, r3, r6, rrx

00000d84 <l739>:
     d84:	d20c8f9b 	andle	r8, ip, #620	; 0x26c

00000d88 <l740>:
     d88:	e2156602 	ands	r6, r5, #2097152	; 0x200000

00000d8c <l741>:
     d8c:	40078000 	andmi	r8, r7, r0

00000d90 <l742>:
     d90:	e20b24c7 	and	r2, fp, #-956301312	; 0xc7000000

00000d94 <l743>:
     d94:	e01658e4 	ands	r5, r6, r4, ror #17

00000d98 <l744>:
     d98:	e207a876 	and	sl, r7, #7733248	; 0x760000

00000d9c <l745>:
     d9c:	a0102008 	andsge	r2, r0, r8

00000da0 <l746>:
     da0:	900f400b 	andls	r4, pc, fp

00000da4 <l747>:
     da4:	20158009 	andscs	r8, r5, r9

00000da8 <l748>:
     da8:	e00b9002 	and	r9, fp, r2

00000dac <l749>:
     dac:	82011def 	andhi	r1, r1, #15296	; 0x3bc0

00000db0 <l750>:
     db0:	8008cd28 	andhi	ip, r8, r8, lsr #26

00000db4 <l751>:
     db4:	1018a64b 	andsne	sl, r8, fp, asr #12

00000db8 <l752>:
     db8:	60048005 	andvs	r8, r4, r5

00000dbc <l753>:
     dbc:	1217cc7e 	andsne	ip, r7, #32256	; 0x7e00

00000dc0 <l754>:
     dc0:	600ea007 	andvs	sl, lr, r7

00000dc4 <l755>:
     dc4:	e018ea7e 	ands	lr, r8, lr, ror sl

00000dc8 <l756>:
     dc8:	c004a002 	andgt	sl, r4, r2

00000dcc <l757>:
     dcc:	c010a812 	andsgt	sl, r0, r2, lsl r8

00000dd0 <l758>:
     dd0:	40028009 	andmi	r8, r2, r9

00000dd4 <l759>:
     dd4:	20068154 	andcs	r8, r6, r4, asr r1

00000dd8 <l760>:
     dd8:	e212b5fd 	ands	fp, r2, #1061158912	; 0x3f400000

00000ddc <l761>:
     ddc:	30126003 	andscc	r6, r2, r3

00000de0 <l762>:
     de0:	e007ac19 	and	sl, r7, r9, lsl ip

00000de4 <l763>:
     de4:	9012300c 	andsls	r3, r2, ip

00000de8 <l764>:
     de8:	e0154009 	ands	r4, r5, r9

00000dec <l765>:
     dec:	e0083060 	and	r3, r8, r0, rrx

00000df0 <l766>:
     df0:	2212610a 	andscs	r6, r2, #-2147483646	; 0x80000002

00000df4 <l767>:
     df4:	e21abb22 	ands	fp, sl, #34816	; 0x8800

00000df8 <l768>:
     df8:	6211ebab 	andsvs	lr, r1, #175104	; 0x2ac00

00000dfc <l769>:
     dfc:	7010b00f 	andsvc	fp, r0, pc

00000e00 <l770>:
     e00:	0003a008 	andeq	sl, r3, r8

00000e04 <l771>:
     e04:	5204c42b 	andpl	ip, r4, #721420288	; 0x2b000000

00000e08 <l772>:
     e08:	70084ac7 	andvc	r4, r8, r7, asr #21

00000e0c <l773>:
     e0c:	320e0529 	andcc	r0, lr, #171966464	; 0xa400000

00000e10 <l774>:
     e10:	c01a4003 	andsgt	r4, sl, r3

00000e14 <l775>:
     e14:	10197537 	andsne	r7, r9, r7, lsr r5

00000e18 <l776>:
     e18:	e01f700c 	ands	r7, pc, ip

00000e1c <l777>:
     e1c:	e0194e37 	ands	r4, r9, r7, lsr lr

00000e20 <l778>:
     e20:	421a5d9f 	andsmi	r5, sl, #10176	; 0x27c0

00000e24 <l779>:
     e24:	42171c2f 	andsmi	r1, r7, #12032	; 0x2f00

00000e28 <l780>:
     e28:	e21a302c 	ands	r3, sl, #44	; 0x2c

00000e2c <l781>:
     e2c:	a0067e54 	andge	r7, r6, r4, asr lr

00000e30 <l782>:
     e30:	e014b06e 	ands	fp, r4, lr, rrx

00000e34 <l783>:
     e34:	e019400c 	ands	r4, r9, ip

00000e38 <l784>:
     e38:	e00a1d64 	and	r1, sl, r4, ror #26

00000e3c <l785>:
     e3c:	000e8008 	andeq	r8, lr, r8

00000e40 <l786>:
     e40:	c01e28a2 	andsgt	r2, lr, r2, lsr #17

00000e44 <l787>:
     e44:	e012c003 	ands	ip, r2, r3

00000e48 <l788>:
     e48:	020ccd1a 	andeq	ip, ip, #1664	; 0x680

00000e4c <l789>:
     e4c:	e00b006b 	and	r0, fp, fp, rrx

00000e50 <l790>:
     e50:	e01a3066 	ands	r3, sl, r6, rrx

00000e54 <l791>:
     e54:	e2122071 	ands	r2, r2, #113	; 0x71

00000e58 <l792>:
     e58:	e013a009 	ands	sl, r3, r9

00000e5c <l793>:
     e5c:	b0004f23 	andlt	r4, r0, r3, lsr #30

00000e60 <l794>:
     e60:	620eeab1 	andvs	lr, lr, #724992	; 0xb1000

00000e64 <l795>:
     e64:	e019a06f 	ands	sl, r9, pc, rrx

00000e68 <l796>:
     e68:	e01a741c 	ands	r7, sl, ip, lsl r4

00000e6c <l797>:
     e6c:	e0049339 	and	r9, r4, r9, lsr r3

00000e70 <l798>:
     e70:	e0191cae 	ands	r1, r9, lr, lsr #25

00000e74 <l799>:
     e74:	0019ecea 	andseq	lr, r9, sl, ror #25

00000e78 <l800>:
     e78:	a21cb9c3 	andsge	fp, ip, #3194880	; 0x30c000

00000e7c <l801>:
     e7c:	8212c88d 	andshi	ip, r2, #9240576	; 0x8d0000

00000e80 <l802>:
     e80:	e21b9d0f 	ands	r9, fp, #960	; 0x3c0

00000e84 <l803>:
     e84:	3017b006 	andscc	fp, r7, r6

00000e88 <l804>:
     e88:	4004964c 	andmi	r9, r4, ip, asr #12

00000e8c <l805>:
     e8c:	e008130f 	and	r1, r8, pc, lsl #6

00000e90 <l806>:
     e90:	020a87ed 	andeq	r8, sl, #62128128	; 0x3b40000

00000e94 <l807>:
     e94:	e015800f 	ands	r8, r5, pc

00000e98 <l808>:
     e98:	e21205b3 	ands	r0, r2, #750780416	; 0x2cc00000

00000e9c <l809>:
     e9c:	70125336 	andsvc	r5, r2, r6, lsr r3

00000ea0 <l810>:
     ea0:	e00a700e 	and	r7, sl, lr

00000ea4 <l811>:
     ea4:	420c09db 	andmi	r0, ip, #3588096	; 0x36c000

00000ea8 <l812>:
     ea8:	e0119008 	ands	r9, r1, r8

00000eac <l813>:
     eac:	02042345 	andeq	r2, r4, #335544321	; 0x14000001

00000eb0 <l814>:
     eb0:	e0151005 	ands	r1, r5, r5

00000eb4 <l815>:
     eb4:	a0056063 	andge	r6, r5, r3, rrx

00000eb8 <l816>:
     eb8:	e0114000 	ands	r4, r1, r0

00000ebc <l817>:
     ebc:	80184359 	andshi	r4, r8, r9, asr r3

00000ec0 <l818>:
     ec0:	221b607a 	andscs	r6, fp, #122	; 0x7a

00000ec4 <l819>:
     ec4:	20187065 	andscs	r7, r8, r5, rrx

00000ec8 <l820>:
     ec8:	e003e4ec 	and	lr, r3, ip, ror #9

00000ecc <l821>:
     ecc:	b003ba20 	andlt	fp, r3, r0, lsr #20

00000ed0 <l822>:
     ed0:	3214523b 	andscc	r5, r4, #-1342177277	; 0xb0000003

00000ed4 <l823>:
     ed4:	e0134a5b 	ands	r4, r3, fp, asr sl

00000ed8 <l824>:
     ed8:	e20e76dd 	and	r7, lr, #231735296	; 0xdd00000

00000edc <l825>:
     edc:	e20767d9 	and	r6, r7, #56885248	; 0x3640000

00000ee0 <l826>:
     ee0:	5013edac 	andspl	lr, r3, ip, lsr #27

00000ee4 <l827>:
     ee4:	901b6a26 	andsls	r6, fp, r6, lsr #20

00000ee8 <l828>:
     ee8:	a01a1246 	andsge	r1, sl, r6, asr #4

00000eec <l829>:
     eec:	c01a907a 	andsgt	r9, sl, sl, ror r0

00000ef0 <l830>:
     ef0:	40178989 	andsmi	r8, r7, r9, lsl #19

00000ef4 <l831>:
     ef4:	e20b333b 	and	r3, fp, #-335544320	; 0xec000000

00000ef8 <l832>:
     ef8:	a20e851e 	andge	r8, lr, #125829120	; 0x7800000

00000efc <l833>:
     efc:	e019a038 	ands	sl, r9, r8, lsr r0

00000f00 <l834>:
     f00:	220932a7 	andcs	r3, r9, #1879048202	; 0x7000000a

00000f04 <l835>:
     f04:	400c300a 	andmi	r3, ip, sl

00000f08 <l836>:
     f08:	e2004be6 	and	r4, r0, #235520	; 0x39800

00000f0c <l837>:
     f0c:	401e8018 	andsmi	r8, lr, r8, lsl r0

00000f10 <l838>:
     f10:	920485ce 	andls	r8, r4, #864026624	; 0x33800000

00000f14 <l839>:
     f14:	e2164a1f 	ands	r4, r6, #126976	; 0x1f000

00000f18 <l840>:
     f18:	e016a000 	ands	sl, r6, r0

00000f1c <l841>:
     f1c:	e0119c75 	ands	r9, r1, r5, ror ip

00000f20 <l842>:
     f20:	d21b8d99 	andsle	r8, fp, #9792	; 0x2640

00000f24 <l843>:
     f24:	5011200f 	andspl	r2, r1, pc

00000f28 <l844>:
     f28:	600a3555 	andvs	r3, sl, r5, asr r5

00000f2c <l845>:
     f2c:	42154e8f 	andsmi	r4, r5, #2288	; 0x8f0

00000f30 <l846>:
     f30:	220c896d 	andcs	r8, ip, #1785856	; 0x1b4000

00000f34 <l847>:
     f34:	e20fc00c 	and	ip, pc, #12

00000f38 <l848>:
     f38:	42094201 	andmi	r4, r9, #268435456	; 0x10000000

00000f3c <l849>:
     f3c:	9011b2aa 	andsls	fp, r1, sl, lsr #5

00000f40 <l850>:
     f40:	40193001 	andsmi	r3, r9, r1

00000f44 <l851>:
     f44:	e002aa47 	and	sl, r2, r7, asr #20

00000f48 <l852>:
     f48:	e016100f 	ands	r1, r6, pc

00000f4c <l853>:
     f4c:	e0088007 	and	r8, r8, r7

00000f50 <l854>:
     f50:	e0122001 	ands	r2, r2, r1

00000f54 <l855>:
     f54:	e004e009 	and	lr, r4, r9

00000f58 <l856>:
     f58:	b00f700c 	andlt	r7, pc, ip

00000f5c <l857>:
     f5c:	001a9c36 	andseq	r9, sl, r6, lsr ip

00000f60 <l858>:
     f60:	e21bb4d3 	ands	fp, fp, #-754974720	; 0xd3000000

00000f64 <l859>:
     f64:	e01a5863 	ands	r5, sl, r3, ror #16

00000f68 <l860>:
     f68:	a018080f 	andsge	r0, r8, pc, lsl #16

00000f6c <l861>:
     f6c:	e0189002 	ands	r9, r8, r2

00000f70 <l862>:
     f70:	b007a004 	andlt	sl, r7, r4

00000f74 <l863>:
     f74:	02075b9f 	andeq	r5, r7, #162816	; 0x27c00

00000f78 <l864>:
     f78:	2016a137 	andscs	sl, r6, r7, lsr r1

00000f7c <l865>:
     f7c:	000b831a 	andeq	r8, fp, sl, lsl r3

00000f80 <l866>:
     f80:	e214943d 	ands	r9, r4, #1023410176	; 0x3d000000

00000f84 <l867>:
     f84:	e0014683 	and	r4, r1, r3, lsl #13

00000f88 <l868>:
     f88:	e2134102 	ands	r4, r3, #-2147483648	; 0x80000000

00000f8c <l869>:
     f8c:	e0050e8e 	and	r0, r5, lr, lsl #29

00000f90 <l870>:
     f90:	4009ebc8 	andmi	lr, r9, r8, asr #23

00000f94 <l871>:
     f94:	e005ca53 	and	ip, r5, r3, asr sl

00000f98 <l872>:
     f98:	500cc31a 	andpl	ip, ip, sl, lsl r3

00000f9c <l873>:
     f9c:	901ca068 	andsls	sl, ip, r8, rrx

00000fa0 <l874>:
     fa0:	e20f28df 	and	r2, pc, #14614528	; 0xdf0000

00000fa4 <l875>:
     fa4:	e0107434 	ands	r7, r0, r4, lsr r4

00000fa8 <l876>:
     fa8:	3005b00f 	andcc	fp, r5, pc

00000fac <l877>:
     fac:	60034009 	andvs	r4, r3, r9

00000fb0 <l878>:
     fb0:	d0000278 	andle	r0, r0, r8, ror r2

00000fb4 <l879>:
     fb4:	700c8067 	andvc	r8, ip, r7, rrx

00000fb8 <l880>:
     fb8:	00177062 	andseq	r7, r7, r2, rrx

00000fbc <l881>:
     fbc:	e01865af 	ands	r6, r8, pc, lsr #11

00000fc0 <l882>:
     fc0:	a007c007 	andge	ip, r7, r7

00000fc4 <l883>:
     fc4:	2219ccdf 	andscs	ip, r9, #57088	; 0xdf00

00000fc8 <l884>:
     fc8:	e2032417 	and	r2, r3, #385875968	; 0x17000000

00000fcc <l885>:
     fcc:	e0089174 	and	r9, r8, r4, ror r1

00000fd0 <l886>:
     fd0:	c003500b 	andgt	r5, r3, fp

00000fd4 <l887>:
     fd4:	e01b4d05 	ands	r4, fp, r5, lsl #26

00000fd8 <l888>:
     fd8:	e20c0ce1 	and	r0, ip, #57600	; 0xe100

00000fdc <l889>:
     fdc:	e0184b72 	ands	r4, r8, r2, ror fp

00000fe0 <l890>:
     fe0:	e00c2069 	and	r2, ip, r9, rrx

00000fe4 <l891>:
     fe4:	30031c19 	andcc	r1, r3, r9, lsl ip

00000fe8 <l892>:
     fe8:	8006b204 	andhi	fp, r6, r4, lsl #4

00000fec <l893>:
     fec:	b0007080 	andlt	r7, r0, r0, lsl #1

00000ff0 <l894>:
     ff0:	e005400e 	and	r4, r5, lr

00000ff4 <l895>:
     ff4:	4219401a 	andsmi	r4, r9, #26

00000ff8 <l896>:
     ff8:	5005b156 	andpl	fp, r5, r6, asr r1

00000ffc <l897>:
     ffc:	50004818 	andpl	r4, r0, r8, lsl r8

00001000 <l898>:
    1000:	2206a30b 	andcs	sl, r6, #738197504	; 0x2c000000

00001004 <l899>:
    1004:	e01c9071 	ands	r9, ip, r1, ror r0

00001008 <l900>:
    1008:	e017500c 	ands	r5, r7, ip

0000100c <l901>:
    100c:	1003500a 	andne	r5, r3, sl

00001010 <l902>:
    1010:	a0124f81 	andsge	r4, r2, r1, lsl #31

00001014 <l903>:
    1014:	e00a080c 	and	r0, sl, ip, lsl #16

00001018 <l904>:
    1018:	e214ec2f 	ands	lr, r4, #12032	; 0x2f00

0000101c <l905>:
    101c:	e0135607 	ands	r5, r3, r7, lsl #12

00001020 <l906>:
    1020:	421583bd 	andsmi	r8, r5, #-201326590	; 0xf4000002

00001024 <l907>:
    1024:	e207e906 	and	lr, r7, #98304	; 0x18000

00001028 <l908>:
    1028:	021f1b29 	andseq	r1, pc, #41984	; 0xa400

0000102c <l909>:
    102c:	301e6939 	andscc	r6, lr, r9, lsr r9

00001030 <l910>:
    1030:	e016000b 	ands	r0, r6, fp

00001034 <l911>:
    1034:	d00ee06f 	andle	lr, lr, pc, rrx

00001038 <l912>:
    1038:	c009106b 	andgt	r1, r9, fp, rrx

0000103c <l913>:
    103c:	0011c00c 	andseq	ip, r1, ip

00001040 <l914>:
    1040:	d20a120d 	andle	r1, sl, #-805306368	; 0xd0000000

00001044 <l915>:
    1044:	20098064 	andcs	r8, r9, r4, rrx

00001048 <l916>:
    1048:	7007c850 	andvc	ip, r7, r0, asr r8

0000104c <l917>:
    104c:	701b7559 	andsvc	r7, fp, r9, asr r5

00001050 <l918>:
    1050:	0000c00e 	andeq	ip, r0, lr

00001054 <l919>:
    1054:	50001003 	andpl	r1, r0, r3

00001058 <l920>:
    1058:	e21b316f 	ands	r3, fp, #-1073741797	; 0xc000001b

0000105c <l921>:
    105c:	a004a003 	andge	sl, r4, r3

00001060 <l922>:
    1060:	1000c005 	andne	ip, r0, r5

00001064 <l923>:
    1064:	e015c00a 	ands	ip, r5, sl

00001068 <l924>:
    1068:	e0013b2c 	and	r3, r1, ip, lsr #22

0000106c <l925>:
    106c:	d015200a 	andsle	r2, r5, sl

00001070 <l926>:
    1070:	201c2631 	andscs	r2, ip, r1, lsr r6

00001074 <l927>:
    1074:	c21b25e1 	andsgt	r2, fp, #943718400	; 0x38400000

00001078 <l928>:
    1078:	e009e001 	and	lr, r9, r1

0000107c <l929>:
    107c:	e01fa00c 	ands	sl, pc, ip

00001080 <l930>:
    1080:	e01c6c45 	ands	r6, ip, r5, asr #24

00001084 <l931>:
    1084:	200b9601 	andcs	r9, fp, r1, lsl #12

00001088 <l932>:
    1088:	e21354b7 	ands	r5, r3, #-1224736768	; 0xb7000000

0000108c <l933>:
    108c:	e00cc002 	and	ip, ip, r2

00001090 <l934>:
    1090:	e004e353 	and	lr, r4, r3, asr r3

00001094 <l935>:
    1094:	00136c35 	andseq	r6, r3, r5, lsr ip

00001098 <l936>:
    1098:	e0009a5a 	and	r9, r0, sl, asr sl

0000109c <l937>:
    109c:	501b9ca2 	andspl	r9, fp, r2, lsr #25

000010a0 <l938>:
    10a0:	d2115632 	andsle	r5, r1, #52428800	; 0x3200000

000010a4 <l939>:
    10a4:	b00a9b13 	andlt	r9, sl, r3, lsl fp

000010a8 <l940>:
    10a8:	e212c70a 	ands	ip, r2, #2621440	; 0x280000

000010ac <l941>:
    10ac:	b01b1453 	andslt	r1, fp, r3, asr r4

000010b0 <l942>:
    10b0:	2001117b 	andcs	r1, r1, fp, ror r1

000010b4 <l943>:
    10b4:	e20cb516 	and	fp, ip, #92274688	; 0x5800000

000010b8 <l944>:
    10b8:	200b806a 	andcs	r8, fp, sl, rrx

000010bc <l945>:
    10bc:	90095004 	andls	r5, r9, r4

000010c0 <l946>:
    10c0:	60151b18 	andsvs	r1, r5, r8, lsl fp

000010c4 <l947>:
    10c4:	700e6069 	andvc	r6, lr, r9, rrx

000010c8 <l948>:
    10c8:	e00bce54 	and	ip, fp, r4, asr lr

000010cc <l949>:
    10cc:	e0025155 	and	r5, r2, r5, asr r1

000010d0 <l950>:
    10d0:	e0185009 	ands	r5, r8, r9

000010d4 <l951>:
    10d4:	e0031004 	and	r1, r3, r4

000010d8 <l952>:
    10d8:	e214ec75 	ands	lr, r4, #29952	; 0x7500

000010dc <l953>:
    10dc:	80057c01 	andhi	r7, r5, r1, lsl #24

000010e0 <l954>:
    10e0:	c20a0d2d 	andgt	r0, sl, #2880	; 0xb40

000010e4 <l955>:
    10e4:	e00e3571 	and	r3, lr, r1, ror r5

000010e8 <l956>:
    10e8:	20065c24 	andcs	r5, r6, r4, lsr #24

000010ec <l957>:
    10ec:	e0145359 	ands	r5, r4, r9, asr r3

000010f0 <l958>:
    10f0:	420b8d1b 	andmi	r8, fp, #1728	; 0x6c0

000010f4 <l959>:
    10f4:	e21627d1 	ands	r2, r6, #54788096	; 0x3440000

000010f8 <l960>:
    10f8:	c0126009 	andsgt	r6, r2, r9

000010fc <l961>:
    10fc:	e01f506a 	ands	r5, pc, sl, rrx

00001100 <l962>:
    1100:	12079a6a 	andne	r9, r7, #434176	; 0x6a000

00001104 <l963>:
    1104:	e0146061 	ands	r6, r4, r1, rrx

00001108 <l964>:
    1108:	e211ba1d 	ands	fp, r1, #118784	; 0x1d000

0000110c <l965>:
    110c:	e00c800f 	and	r8, ip, pc

00001110 <l966>:
    1110:	d01c5607 	andsle	r5, ip, r7, lsl #12

00001114 <l967>:
    1114:	700b700b 	andvc	r7, fp, fp

00001118 <l968>:
    1118:	6015800e 	andsvs	r8, r5, lr

0000111c <l969>:
    111c:	b0099a83 	andlt	r9, r9, r3, lsl #21

00001120 <l970>:
    1120:	e01b9002 	ands	r9, fp, r2

00001124 <l971>:
    1124:	720c0e3f 	andvc	r0, ip, #1008	; 0x3f0

00001128 <l972>:
    1128:	b20e27d3 	andlt	r2, lr, #55312384	; 0x34c0000

0000112c <l973>:
    112c:	e013e93e 	ands	lr, r3, lr, lsr r9

00001130 <l974>:
    1130:	9212307b 	andsls	r3, r2, #123	; 0x7b

00001134 <l975>:
    1134:	8010500a 	andshi	r5, r0, sl

00001138 <l976>:
    1138:	e0032008 	and	r2, r3, r8

0000113c <l977>:
    113c:	2004aa3c 	andcs	sl, r4, ip, lsr sl

00001140 <l978>:
    1140:	321cc266 	andscc	ip, ip, #1610612742	; 0x60000006

00001144 <l979>:
    1144:	e019105c 	ands	r1, r9, ip, asr r0

00001148 <l980>:
    1148:	e2197367 	ands	r7, r9, #-1677721599	; 0x9c000001

0000114c <l981>:
    114c:	e009a000 	and	sl, r9, r0

00001150 <l982>:
    1150:	3010e3ab 	andscc	lr, r0, fp, lsr #7

00001154 <l983>:
    1154:	4018206e 	andsmi	r2, r8, lr, rrx

00001158 <l984>:
    1158:	e000406e 	and	r4, r0, lr, rrx

0000115c <l985>:
    115c:	e0173a5c 	ands	r3, r7, ip, asr sl

00001160 <l986>:
    1160:	e0025e17 	and	r5, r2, r7, lsl lr

00001164 <l987>:
    1164:	1016c005 	andsne	ip, r6, r5

00001168 <l988>:
    1168:	201b5066 	andscs	r5, fp, r6, rrx

0000116c <l989>:
    116c:	c0139004 	andsgt	r9, r3, r4

00001170 <l990>:
    1170:	b0030666 	andlt	r0, r3, r6, ror #12

00001174 <l991>:
    1174:	e019b001 	ands	fp, r9, r1

00001178 <l992>:
    1178:	e0107009 	ands	r7, r0, r9

0000117c <l993>:
    117c:	c016506a 	andsgt	r5, r6, sl, rrx

00001180 <l994>:
    1180:	301e8069 	andscc	r8, lr, r9, rrx

00001184 <l995>:
    1184:	00192060 	andseq	r2, r9, r0, rrx

00001188 <l996>:
    1188:	100bb000 	andne	fp, fp, r0

0000118c <l997>:
    118c:	d00b5c17 	andle	r5, fp, r7, lsl ip

00001190 <l998>:
    1190:	420cb7ef 	andmi	fp, ip, #62652416	; 0x3bc0000

00001194 <l999>:
    1194:	2001900c 	andcs	r9, r1, ip

00001198 <l1000>:
    1198:	e202e61d 	and	lr, r2, #30408704	; 0x1d00000

0000119c <end>:
    119c:	eafffffe 	b	119c <end>
