
bb_1000.o:     file format elf32-littlearm


Disassembly of section .text:

00000000 <main>:
       0:	e05f000f 	subs	r0, pc, pc
       4:	e59fd000 	ldr	sp, [pc]	; c <val>
       8:	ea000000 	b	10 <next>

0000000c <val>:
       c:	000ffff0 	.word	0x000ffff0

00000010 <next>:
      10:	e59f1000 	ldr	r1, [pc]	; 18 <val1>
      14:	ea000000 	b	1c <next1>

00000018 <val1>:
      18:	f246953a 	.word	0xf246953a

0000001c <next1>:
      1c:	e59f2000 	ldr	r2, [pc]	; 24 <val2>
      20:	ea000000 	b	28 <next2>

00000024 <val2>:
      24:	966750ea 	.word	0x966750ea

00000028 <next2>:
      28:	e59f3000 	ldr	r3, [pc]	; 30 <val3>
      2c:	ea000000 	b	34 <next3>

00000030 <val3>:
      30:	715a9899 	.word	0x715a9899

00000034 <next3>:
      34:	e59f4000 	ldr	r4, [pc]	; 3c <val4>
      38:	ea000000 	b	40 <next4>

0000003c <val4>:
      3c:	5444e1b7 	.word	0x5444e1b7

00000040 <next4>:
      40:	e59f5000 	ldr	r5, [pc]	; 48 <val5>
      44:	ea000000 	b	4c <next5>

00000048 <val5>:
      48:	b6a6680a 	.word	0xb6a6680a

0000004c <next5>:
      4c:	e59f6000 	ldr	r6, [pc]	; 54 <val6>
      50:	ea000000 	b	58 <next6>

00000054 <val6>:
      54:	9cbf0452 	.word	0x9cbf0452

00000058 <next6>:
      58:	e59f7000 	ldr	r7, [pc]	; 60 <val7>
      5c:	ea000000 	b	64 <next7>

00000060 <val7>:
      60:	d68614a7 	.word	0xd68614a7

00000064 <next7>:
      64:	e59f8000 	ldr	r8, [pc]	; 6c <val8>
      68:	ea000000 	b	70 <next8>

0000006c <val8>:
      6c:	4199e1dd 	.word	0x4199e1dd

00000070 <next8>:
      70:	e59f9000 	ldr	r9, [pc]	; 78 <val9>
      74:	ea000000 	b	7c <next9>

00000078 <val9>:
      78:	4c99a327 	.word	0x4c99a327

0000007c <next9>:
      7c:	e59fa000 	ldr	sl, [pc]	; 84 <val10>
      80:	ea000000 	b	88 <next10>

00000084 <val10>:
      84:	3cb2dc6d 	.word	0x3cb2dc6d

00000088 <next10>:
      88:	e59fb000 	ldr	fp, [pc]	; 90 <val11>
      8c:	ea000000 	b	94 <next11>

00000090 <val11>:
      90:	dfc050b7 	.word	0xdfc050b7

00000094 <next11>:
      94:	e59fc000 	ldr	ip, [pc]	; 9c <val12>
      98:	ea000000 	b	a0 <next12>

0000009c <val12>:
      9c:	7ed2055f 	.word	0x7ed2055f

000000a0 <next12>:
      a0:	e59fe000 	ldr	lr, [pc]	; a8 <val14>
      a4:	ea000000 	b	ac <next14>

000000a8 <val14>:
      a8:	9cfecf77 	.word	0x9cfecf77

000000ac <next14>:
      ac:	e59f1000 	ldr	r1, [pc]	; b4 <val15>
      b0:	ea000000 	b	b8 <next15>

000000b4 <val15>:
      b4:	858521ae 	.word	0x858521ae

000000b8 <next15>:
      b8:	e58d1000 	str	r1, [sp]
      bc:	e59f1000 	ldr	r1, [pc]	; c4 <val16>
      c0:	ea000000 	b	c8 <next16>

000000c4 <val16>:
      c4:	1c543ff5 	.word	0x1c543ff5

000000c8 <next16>:
      c8:	e50d1004 	str	r1, [sp, #-4]
      cc:	e59f1000 	ldr	r1, [pc]	; d4 <val17>
      d0:	ea000000 	b	d8 <next17>

000000d4 <val17>:
      d4:	5fdbb4e2 	.word	0x5fdbb4e2

000000d8 <next17>:
      d8:	e50d1008 	str	r1, [sp, #-8]
      dc:	e59f1000 	ldr	r1, [pc]	; e4 <val18>
      e0:	ea000000 	b	e8 <next18>

000000e4 <val18>:
      e4:	073194f7 	.word	0x073194f7

000000e8 <next18>:
      e8:	e50d100c 	str	r1, [sp, #-12]
      ec:	e59f1000 	ldr	r1, [pc]	; f4 <val19>
      f0:	ea000000 	b	f8 <next19>

000000f4 <val19>:
      f4:	26c15ef7 	.word	0x26c15ef7

000000f8 <next19>:
      f8:	e50d1010 	str	r1, [sp, #-16]
      fc:	e59f1000 	ldr	r1, [pc]	; 104 <val20>
     100:	ea000000 	b	108 <next20>

00000104 <val20>:
     104:	f92889fe 	.word	0xf92889fe

00000108 <next20>:
     108:	e50d1014 	str	r1, [sp, #-20]
     10c:	e59f1000 	ldr	r1, [pc]	; 114 <val21>
     110:	ea000000 	b	118 <next21>

00000114 <val21>:
     114:	4e6d93c8 	.word	0x4e6d93c8

00000118 <next21>:
     118:	e50d1018 	str	r1, [sp, #-24]
     11c:	e59f1000 	ldr	r1, [pc]	; 124 <val22>
     120:	ea000000 	b	128 <next22>

00000124 <val22>:
     124:	23f314e2 	.word	0x23f314e2

00000128 <next22>:
     128:	e50d101c 	str	r1, [sp, #-28]
     12c:	e59f1000 	ldr	r1, [pc]	; 134 <val23>
     130:	ea000000 	b	138 <next23>

00000134 <val23>:
     134:	4f216f1e 	.word	0x4f216f1e

00000138 <next23>:
     138:	e50d1020 	str	r1, [sp, #-32]
     13c:	e59f1000 	ldr	r1, [pc]	; 144 <val24>
     140:	ea000000 	b	148 <next24>

00000144 <val24>:
     144:	f21b1f12 	.word	0xf21b1f12

00000148 <next24>:
     148:	e50d1024 	str	r1, [sp, #-36]	; 0x24
     14c:	e59f1000 	ldr	r1, [pc]	; 154 <val25>
     150:	ea000000 	b	158 <next25>

00000154 <val25>:
     154:	088dde7f 	.word	0x088dde7f

00000158 <next25>:
     158:	e50d1028 	str	r1, [sp, #-40]	; 0x28
     15c:	e59f1000 	ldr	r1, [pc]	; 164 <val26>
     160:	ea000000 	b	168 <next26>

00000164 <val26>:
     164:	d5eeabf6 	.word	0xd5eeabf6

00000168 <next26>:
     168:	e50d102c 	str	r1, [sp, #-44]	; 0x2c
     16c:	e59f1000 	ldr	r1, [pc]	; 174 <val27>
     170:	ea000000 	b	178 <next27>

00000174 <val27>:
     174:	48687db2 	.word	0x48687db2

00000178 <next27>:
     178:	e50d1030 	str	r1, [sp, #-48]	; 0x30
     17c:	e59f1000 	ldr	r1, [pc]	; 184 <val28>
     180:	ea000000 	b	188 <next28>

00000184 <val28>:
     184:	262f815d 	.word	0x262f815d

00000188 <next28>:
     188:	e50d1034 	str	r1, [sp, #-52]	; 0x34
     18c:	e59f1000 	ldr	r1, [pc]	; 194 <val29>
     190:	ea000000 	b	198 <next29>

00000194 <val29>:
     194:	c07f3da2 	.word	0xc07f3da2

00000198 <next29>:
     198:	e50d1038 	str	r1, [sp, #-56]	; 0x38
     19c:	e59f1000 	ldr	r1, [pc]	; 1a4 <val30>
     1a0:	ea000000 	b	1a8 <next30>

000001a4 <val30>:
     1a4:	dd2cd5fb 	.word	0xdd2cd5fb

000001a8 <next30>:
     1a8:	e50d103c 	str	r1, [sp, #-60]	; 0x3c
     1ac:	e59f1000 	ldr	r1, [pc]	; 1b4 <val31>
     1b0:	ea000000 	b	1b8 <next31>

000001b4 <val31>:
     1b4:	abf18461 	.word	0xabf18461

000001b8 <next31>:
     1b8:	e50d1040 	str	r1, [sp, #-64]	; 0x40
     1bc:	e59f1000 	ldr	r1, [pc]	; 1c4 <val32>
     1c0:	ea000000 	b	1c8 <next32>

000001c4 <val32>:
     1c4:	38df3964 	.word	0x38df3964

000001c8 <next32>:
     1c8:	e50d1044 	str	r1, [sp, #-68]	; 0x44
     1cc:	e59f1000 	ldr	r1, [pc]	; 1d4 <val33>
     1d0:	ea000000 	b	1d8 <next33>

000001d4 <val33>:
     1d4:	1c87b839 	.word	0x1c87b839

000001d8 <next33>:
     1d8:	e50d1048 	str	r1, [sp, #-72]	; 0x48
     1dc:	e59f1000 	ldr	r1, [pc]	; 1e4 <val34>
     1e0:	ea000000 	b	1e8 <next34>

000001e4 <val34>:
     1e4:	d27a0398 	.word	0xd27a0398

000001e8 <next34>:
     1e8:	e50d104c 	str	r1, [sp, #-76]	; 0x4c
     1ec:	e59f1000 	ldr	r1, [pc]	; 1f4 <val35>
     1f0:	ea000000 	b	1f8 <next35>

000001f4 <val35>:
     1f4:	edef15a8 	.word	0xedef15a8

000001f8 <next35>:
     1f8:	e50d1050 	str	r1, [sp, #-80]	; 0x50

000001fc <l1>:
     1fc:	0049415e 	subeq	r4, r9, lr, asr r1

00000200 <l2>:
     200:	b153000a 	cmplt	r3, sl

00000204 <l3>:
     204:	ca000003 	bgt	218 <l8>

00000208 <l4>:
     208:	e280109f 	add	r1, r0, #159	; 0x9f

0000020c <l5>:
     20c:	e3a06a9a 	mov	r6, #630784	; 0x9a000

00000210 <l6>:
     210:	e13701e2 	teq	r7, r2, ror #3

00000214 <l7>:
     214:	ea000000 	b	21c <l9>

00000218 <l8>:
     218:	eafffffb 	b	20c <l5>

0000021c <l9>:
     21c:	53a00000 	movpl	r0, #0

00000220 <l10>:
     220:	e0ca4007 	sbc	r4, sl, r7

00000224 <l11>:
     224:	d22ee18d 	eorle	lr, lr, #1073741859	; 0x40000023

00000228 <l12>:
     228:	c1700009 	cmngt	r0, r9

0000022c <l13>:
     22c:	a02a1258 	eorge	r1, sl, r8, asr r2

00000230 <l14>:
     230:	e1a01731 	lsr	r1, r1, r7

00000234 <l15>:
     234:	21550003 	cmpcs	r5, r3

00000238 <l16>:
     238:	20a8e4ef 	adccs	lr, r8, pc, ror #9

0000023c <l17>:
     23c:	e020c00b 	eor	ip, r0, fp

00000240 <l18>:
     240:	e2427ab7 	sub	r7, r2, #749568	; 0xb7000

00000244 <l19>:
     244:	005c8007 	subseq	r8, ip, r7

00000248 <l20>:
     248:	73500626 	cmpvc	r0, #39845888	; 0x2600000

0000024c <l21>:
     24c:	916fcf13 	clzls	ip, r3

00000250 <l22>:
     250:	91928002 	orrsls	r8, r2, r2

00000254 <l23>:
     254:	70ff800f 	rscsvc	r8, pc, pc

00000258 <l24>:
     258:	e0160064 	ands	r0, r6, r4, rrx

0000025c <l25>:
     25c:	b3d9e02a 	bicslt	lr, r9, #42	; 0x2a

00000260 <l26>:
     260:	ba000007 	blt	284 <l35>

00000264 <l27>:
     264:	e280106a 	add	r1, r0, #106	; 0x6a

00000268 <l28>:
     268:	e16f2f17 	clz	r2, r7

0000026c <l29>:
     26c:	e046a659 	sub	sl, r6, r9, asr r6

00000270 <l30>:
     270:	e2d8bb75 	sbcs	fp, r8, #119808	; 0x1d400

00000274 <l31>:
     274:	416f5f1c 	clzmi	r5, ip

00000278 <l32>:
     278:	e07b4fc8 	rsbs	r4, fp, r8, asr #31

0000027c <l33>:
     27c:	e183e519 	orr	lr, r3, r9, lsl r5

00000280 <l34>:
     280:	ea000000 	b	288 <l36>

00000284 <l35>:
     284:	eafffff7 	b	268 <l28>

00000288 <l36>:
     288:	e211b913 	ands	fp, r1, #311296	; 0x4c000

0000028c <l37>:
     28c:	e158006f 	cmp	r8, pc, rrx

00000290 <l38>:
     290:	e231bd1b 	eors	fp, r1, #1728	; 0x6c0

00000294 <l39>:
     294:	e072306a 	rsbs	r3, r2, sl, rrx

00000298 <l40>:
     298:	50209066 	eorpl	r9, r0, r6, rrx

0000029c <l41>:
     29c:	717a0777 	cmnvc	sl, r7, ror r7

000002a0 <l42>:
     2a0:	5a000005 	bpl	2bc <l49>

000002a4 <l43>:
     2a4:	e2801081 	add	r1, r0, #129	; 0x81

000002a8 <l44>:
     2a8:	207b2007 	rsbscs	r2, fp, r7

000002ac <l45>:
     2ac:	e0861003 	add	r1, r6, r3

000002b0 <l46>:
     2b0:	7055235b 	subsvc	r2, r5, fp, asr r3

000002b4 <l47>:
     2b4:	e1500fe2 	cmp	r0, r2, ror #31

000002b8 <l48>:
     2b8:	ea000000 	b	2c0 <l50>

000002bc <l49>:
     2bc:	eafffff9 	b	2a8 <l44>

000002c0 <l50>:
     2c0:	1017706f 	andsne	r7, r7, pc, rrx

000002c4 <l51>:
     2c4:	40513000 	subsmi	r3, r1, r0

000002c8 <l52>:
     2c8:	837f092e 	cmnhi	pc, #753664	; 0xb8000

000002cc <l53>:
     2cc:	e3c18b29 	bic	r8, r1, #41984	; 0xa400

000002d0 <l54>:
     2d0:	e0c6c007 	sbc	ip, r6, r7

000002d4 <l55>:
     2d4:	00277612 	eoreq	r7, r7, r2, lsl r6

000002d8 <l56>:
     2d8:	e0195001 	ands	r5, r9, r1

000002dc <l57>:
     2dc:	e3780d2e 	cmn	r8, #2944	; 0xb80

000002e0 <l58>:
     2e0:	e0289350 	eor	r9, r8, r0, asr r3

000002e4 <l59>:
     2e4:	c0092009 	andgt	r2, r9, r9

000002e8 <l60>:
     2e8:	c1160373 	tstgt	r6, r3, ror r3

000002ec <l61>:
     2ec:	e00b8405 	and	r8, fp, r5, lsl #8

000002f0 <l62>:
     2f0:	91500000 	cmpls	r0, r0

000002f4 <l63>:
     2f4:	80131c14 	andshi	r1, r3, r4, lsl ip

000002f8 <l64>:
     2f8:	00f5543c 	rscseq	r5, r5, ip, lsr r4

000002fc <l65>:
     2fc:	90c90a55 	sbcls	r0, r9, r5, asr sl

00000300 <l66>:
     300:	e246003c 	sub	r0, r6, #60	; 0x3c

00000304 <l67>:
     304:	717a0008 	cmnvc	sl, r8

00000308 <l68>:
     308:	41c4b069 	bicmi	fp, r4, r9, rrx

0000030c <l69>:
     30c:	e151000e 	cmp	r1, lr

00000310 <l70>:
     310:	733e0f6f 	teqvc	lr, #444	; 0x1bc

00000314 <l71>:
     314:	c1b01231 	lsrsgt	r1, r1, r2

00000318 <l72>:
     318:	115c0951 	cmpne	ip, r1, asr r9

0000031c <l73>:
     31c:	a0b34003 	adcsge	r4, r3, r3

00000320 <l74>:
     320:	61a07911 	lslvs	r7, r1, r9

00000324 <l75>:
     324:	b35a0bf5 	cmplt	sl, #250880	; 0x3d400

00000328 <l76>:
     328:	e2b06d67 	adcs	r6, r0, #6592	; 0x19c0

0000032c <l77>:
     32c:	7a000005 	bvc	348 <l84>

00000330 <l78>:
     330:	e28010b7 	add	r1, r0, #183	; 0xb7

00000334 <l79>:
     334:	e0abb428 	adc	fp, fp, r8, lsr #8

00000338 <l80>:
     338:	e0a6bf80 	adc	fp, r6, r0, lsl #31

0000033c <l81>:
     33c:	e1e0e06c 	mvn	lr, ip, rrx

00000340 <l82>:
     340:	c0443ccb 	subgt	r3, r4, fp, asr #25

00000344 <l83>:
     344:	ea000000 	b	34c <l85>

00000348 <l84>:
     348:	eafffff9 	b	334 <l79>

0000034c <l85>:
     34c:	e16fcf18 	clz	ip, r8

00000350 <l86>:
     350:	233400f6 	teqcs	r4, #246	; 0xf6

00000354 <l87>:
     354:	e11c0b7b 	tst	ip, fp, ror fp

00000358 <l88>:
     358:	6038e650 	eorsvs	lr, r8, r0, asr r6

0000035c <l89>:
     35c:	e1d19d43 	bics	r9, r1, r3, asr #26

00000360 <l90>:
     360:	4388580a 	orrmi	r5, r8, #655360	; 0xa0000

00000364 <l91>:
     364:	60f6c855 	rscsvs	ip, r6, r5, asr r8

00000368 <l92>:
     368:	e15b000e 	cmp	fp, lr

0000036c <l93>:
     36c:	200b4009 	andcs	r4, fp, r9

00000370 <l94>:
     370:	e1550715 	cmp	r5, r5, lsl r7

00000374 <l95>:
     374:	d0e23b1a 	rscle	r3, r2, sl, lsl fp

00000378 <l96>:
     378:	11a0e004 	movne	lr, r4

0000037c <l97>:
     37c:	6052242e 	subsvs	r2, r2, lr, lsr #8

00000380 <l98>:
     380:	ea000006 	b	3a0 <l106>

00000384 <l99>:
     384:	e2801032 	add	r1, r0, #50	; 0x32

00000388 <l100>:
     388:	e1f00002 	mvns	r0, r2

0000038c <l101>:
     38c:	31f0300a 	mvnscc	r3, sl

00000390 <l102>:
     390:	61d5b54b 	bicsvs	fp, r5, fp, asr #10

00000394 <l103>:
     394:	e1cb3005 	bic	r3, fp, r5

00000398 <l104>:
     398:	a2eee8e3 	rscge	lr, lr, #14876672	; 0xe30000

0000039c <l105>:
     39c:	ea000000 	b	3a4 <l107>

000003a0 <l106>:
     3a0:	eafffff8 	b	388 <l100>

000003a4 <l107>:
     3a4:	10ff3a46 	rscsne	r3, pc, r6, asr #20

000003a8 <l108>:
     3a8:	32321315 	eorscc	r1, r2, #1409286144	; 0x54000000

000003ac <l109>:
     3ac:	71d2400f 	bicsvc	r4, r2, pc

000003b0 <l110>:
     3b0:	339791d2 	orrscc	r9, r7, #-2147483596	; 0x80000034

000003b4 <l111>:
     3b4:	71750b7a 	cmnvc	r5, sl, ror fp

000003b8 <l112>:
     3b8:	e1720061 	cmn	r2, r1, rrx

000003bc <l113>:
     3bc:	120985cb 	andne	r8, r9, #851443712	; 0x32c00000

000003c0 <l114>:
     3c0:	9023b67b 	eorls	fp, r3, fp, ror r6

000003c4 <l115>:
     3c4:	e1c47009 	bic	r7, r4, r9

000003c8 <l116>:
     3c8:	e1570323 	cmp	r7, r3, lsr #6

000003cc <l117>:
     3cc:	e1c70919 	bic	r0, r7, r9, lsl r9

000003d0 <l118>:
     3d0:	e05e7ba4 	subs	r7, lr, r4, lsr #23

000003d4 <l119>:
     3d4:	23330e27 	teqcs	r3, #624	; 0x270

000003d8 <l120>:
     3d8:	01880539 	orreq	r0, r8, r9, lsr r5

000003dc <l121>:
     3dc:	e1b0200f 	movs	r2, pc

000003e0 <l122>:
     3e0:	ca000003 	bgt	3f4 <l127>

000003e4 <l123>:
     3e4:	e28010f0 	add	r1, r0, #240	; 0xf0

000003e8 <l124>:
     3e8:	52e29df9 	rscpl	r9, r2, #15936	; 0x3e40

000003ec <l125>:
     3ec:	6244ecbd 	subvs	lr, r4, #48384	; 0xbd00

000003f0 <l126>:
     3f0:	ea000000 	b	3f8 <l128>

000003f4 <l127>:
     3f4:	eafffffb 	b	3e8 <l124>

000003f8 <l128>:
     3f8:	e0c3bc58 	sbc	fp, r3, r8, asr ip

000003fc <l129>:
     3fc:	e05fe006 	subs	lr, pc, r6

00000400 <l130>:
     400:	303e1111 	eorscc	r1, lr, r1, lsl r1

00000404 <l131>:
     404:	e21a3425 	ands	r3, sl, #620756992	; 0x25000000

00000408 <l132>:
     408:	e0dbe730 	sbcs	lr, fp, r0, lsr r7

0000040c <l133>:
     40c:	02524ca7 	subseq	r4, r2, #42752	; 0xa700

00000410 <l134>:
     410:	60586717 	subsvs	r6, r8, r7, lsl r7

00000414 <l135>:
     414:	a1f0700f 	mvnsge	r7, pc

00000418 <l136>:
     418:	d15f03e0 	cmple	pc, r0, ror #7

0000041c <l137>:
     41c:	6072b77e 	rsbsvs	fp, r2, lr, ror r7

00000420 <l138>:
     420:	e24ce436 	sub	lr, ip, #905969664	; 0x36000000

00000424 <l139>:
     424:	e1340200 	teq	r4, r0, lsl #4

00000428 <l140>:
     428:	01180006 	tsteq	r8, r6

0000042c <l141>:
     42c:	ba000002 	blt	43c <l145>

00000430 <l142>:
     430:	e280107e 	add	r1, r0, #126	; 0x7e

00000434 <l143>:
     434:	e16fef13 	clz	lr, r3

00000438 <l144>:
     438:	ea000000 	b	440 <l146>

0000043c <l145>:
     43c:	eafffffc 	b	434 <l143>

00000440 <l146>:
     440:	e1e0e00c 	mvn	lr, ip

00000444 <l147>:
     444:	11140009 	tstne	r4, r9

00000448 <l148>:
     448:	71a08e11 	lslvc	r8, r1, lr

0000044c <l149>:
     44c:	21380534 	teqcs	r8, r4, lsr r5

00000450 <l150>:
     450:	c05eab43 	subsgt	sl, lr, r3, asr #22

00000454 <l151>:
     454:	7237b4d7 	eorsvc	fp, r7, #-687865856	; 0xd7000000

00000458 <l152>:
     458:	81ce6a78 	bichi	r6, lr, r8, ror sl

0000045c <l153>:
     45c:	e1d5700c 	bics	r7, r5, ip

00000460 <l154>:
     460:	e13e0b10 	teq	lr, r0, lsl fp

00000464 <l155>:
     464:	81f0e619 	mvnshi	lr, r9, lsl r6

00000468 <l156>:
     468:	320674bd 	andcc	r7, r6, #-1124073472	; 0xbd000000

0000046c <l157>:
     46c:	ea000002 	b	47c <l161>

00000470 <l158>:
     470:	e280100e 	add	r1, r0, #14

00000474 <l159>:
     474:	e1a00001 	mov	r0, r1

00000478 <l160>:
     478:	ea000000 	b	480 <l162>

0000047c <l161>:
     47c:	eafffffc 	b	474 <l159>

00000480 <l162>:
     480:	e1e0900e 	mvn	r9, lr

00000484 <l163>:
     484:	e1180000 	tst	r8, r0

00000488 <l164>:
     488:	e1f05069 	mvns	r5, r9, rrx

0000048c <l165>:
     48c:	e3e077b1 	mvn	r7, #46399488	; 0x2c40000

00000490 <l166>:
     490:	e01f2da9 	ands	r2, pc, r9, lsr #27

00000494 <l167>:
     494:	619f5ca0 	orrsvs	r5, pc, r0, lsr #25

00000498 <l168>:
     498:	e3981659 	orrs	r1, r8, #93323264	; 0x5900000

0000049c <l169>:
     49c:	d1130554 	tstle	r3, r4, asr r5

000004a0 <l170>:
     4a0:	707b2063 	rsbsvc	r2, fp, r3, rrx

000004a4 <l171>:
     4a4:	e1d8000a 	bics	r0, r8, sl

000004a8 <l172>:
     4a8:	e25b44ad 	subs	r4, fp, #-1392508928	; 0xad000000

000004ac <l173>:
     4ac:	20549004 	subscs	r9, r4, r4

000004b0 <l174>:
     4b0:	12793517 	rsbsne	r3, r9, #96468992	; 0x5c00000

000004b4 <l175>:
     4b4:	e16f1f15 	clz	r1, r5

000004b8 <l176>:
     4b8:	31110156 	tstcc	r1, r6, asr r1

000004bc <l177>:
     4bc:	3267b035 	rsbcc	fp, r7, #53	; 0x35

000004c0 <l178>:
     4c0:	e2f78e3e 	rscs	r8, r7, #992	; 0x3e0

000004c4 <l179>:
     4c4:	41100210 	tstmi	r0, r0, lsl r2

000004c8 <l180>:
     4c8:	80eb2064 	rschi	r2, fp, r4, rrx

000004cc <l181>:
     4cc:	305121e0 	subscc	r2, r1, r0, ror #3

000004d0 <l182>:
     4d0:	70809977 	addvc	r9, r0, r7, ror r9

000004d4 <l183>:
     4d4:	316f9f15 	clzcc	r9, r5

000004d8 <l184>:
     4d8:	e053406b 	subs	r4, r3, fp, rrx

000004dc <l185>:
     4dc:	e1380658 	teq	r8, r8, asr r6

000004e0 <l186>:
     4e0:	a3da0eef 	bicsge	r0, sl, #3824	; 0xef0

000004e4 <l187>:
     4e4:	5026b06c 	eorpl	fp, r6, ip, rrx

000004e8 <l188>:
     4e8:	02716125 	rsbseq	r6, r1, #1073741833	; 0x40000009

000004ec <l189>:
     4ec:	e0842066 	add	r2, r4, r6, rrx

000004f0 <l190>:
     4f0:	c3720f96 	cmngt	r2, #600	; 0x258

000004f4 <l191>:
     4f4:	a1e03a62 	mvnge	r3, r2, ror #20

000004f8 <l192>:
     4f8:	e38fe008 	orr	lr, pc, #8

000004fc <l193>:
     4fc:	e0783005 	rsbs	r3, r8, r5

00000500 <l194>:
     500:	52ee9203 	rscpl	r9, lr, #805306368	; 0x30000000

00000504 <l195>:
     504:	2060e008 	rsbcs	lr, r0, r8

00000508 <l196>:
     508:	e3560b66 	cmp	r6, #104448	; 0x19800

0000050c <l197>:
     50c:	5a000006 	bpl	52c <l205>

00000510 <l198>:
     510:	e2801007 	add	r1, r0, #7

00000514 <l199>:
     514:	e11c000e 	tst	ip, lr

00000518 <l200>:
     518:	e044c00b 	sub	ip, r4, fp

0000051c <l201>:
     51c:	e35a02ef 	cmp	sl, #-268435442	; 0xf000000e

00000520 <l202>:
     520:	e0ceb239 	sbc	fp, lr, r9, lsr r2

00000524 <l203>:
     524:	71740060 	cmnvc	r4, r0, rrx

00000528 <l204>:
     528:	ea000000 	b	530 <l206>

0000052c <l205>:
     52c:	eafffff8 	b	514 <l199>

00000530 <l206>:
     530:	e1f0290b 	mvns	r2, fp, lsl #18

00000534 <l207>:
     534:	e2038165 	and	r8, r3, #1073741849	; 0x40000019

00000538 <l208>:
     538:	1056b00e 	subsne	fp, r6, lr

0000053c <l209>:
     53c:	d15e0063 	cmple	lr, r3, rrx

00000540 <l210>:
     540:	e0c8758c 	sbc	r7, r8, ip, lsl #11

00000544 <l211>:
     544:	c0583006 	subsgt	r3, r8, r6

00000548 <l212>:
     548:	117c0007 	cmnne	ip, r7

0000054c <l213>:
     54c:	e0833e30 	add	r3, r3, r0, lsr lr

00000550 <l214>:
     550:	e05507a8 	subs	r0, r5, r8, lsr #15

00000554 <l215>:
     554:	93b049c3 	movsls	r4, #3194880	; 0x30c000

00000558 <l216>:
     558:	81dce064 	bicshi	lr, ip, r4, rrx

0000055c <l217>:
     55c:	c2dbbc63 	sbcsgt	fp, fp, #25344	; 0x6300

00000560 <l218>:
     560:	ea000003 	b	574 <l223>

00000564 <l219>:
     564:	e2801057 	add	r1, r0, #87	; 0x57

00000568 <l220>:
     568:	81b04066 	rrxshi	r4, r6

0000056c <l221>:
     56c:	e1c170e3 	bic	r7, r1, r3, ror #1

00000570 <l222>:
     570:	ea000000 	b	578 <l224>

00000574 <l223>:
     574:	eafffffb 	b	568 <l220>

00000578 <l224>:
     578:	e0e5063a 	rsc	r0, r5, sl, lsr r6

0000057c <l225>:
     57c:	b354049f 	cmplt	r4, #-1627389952	; 0x9f000000

00000580 <l226>:
     580:	601c6005 	andsvs	r6, ip, r5

00000584 <l227>:
     584:	5181aa1e 	orrpl	sl, r1, lr, lsl sl

00000588 <l228>:
     588:	516f7f1e 	clzpl	r7, lr

0000058c <l229>:
     58c:	d3ce0c1e 	bicle	r0, lr, #7680	; 0x1e00

00000590 <l230>:
     590:	e07ce001 	rsbs	lr, ip, r1

00000594 <l231>:
     594:	e156000a 	cmp	r6, sl

00000598 <l232>:
     598:	a20e1ea7 	andge	r1, lr, #2672	; 0xa70

0000059c <l233>:
     59c:	516f7f1b 	clzpl	r7, fp

000005a0 <l234>:
     5a0:	e137000b 	teq	r7, fp

000005a4 <l235>:
     5a4:	e00b1734 	and	r1, fp, r4, lsr r7

000005a8 <l236>:
     5a8:	e16fef10 	clz	lr, r0

000005ac <l237>:
     5ac:	d1720c60 	cmnle	r2, r0, ror #24

000005b0 <l238>:
     5b0:	e0e1543c 	rsc	r5, r1, ip, lsr r4

000005b4 <l239>:
     5b4:	e15c0000 	cmp	ip, r0

000005b8 <l240>:
     5b8:	9154000e 	cmpls	r4, lr

000005bc <l241>:
     5bc:	e1760129 	cmn	r6, r9, lsr #2

000005c0 <l242>:
     5c0:	b2ae2d0b 	adclt	r2, lr, #704	; 0x2c0

000005c4 <l243>:
     5c4:	e17c0e50 	cmn	ip, r0, asr lr

000005c8 <l244>:
     5c8:	00227006 	eoreq	r7, r2, r6

000005cc <l245>:
     5cc:	aa000005 	bge	5e8 <l252>

000005d0 <l246>:
     5d0:	e2801048 	add	r1, r0, #72	; 0x48

000005d4 <l247>:
     5d4:	e234abd3 	eors	sl, r4, #216064	; 0x34c00

000005d8 <l248>:
     5d8:	e1530e01 	cmp	r3, r1, lsl #28

000005dc <l249>:
     5dc:	e002b003 	and	fp, r2, r3

000005e0 <l250>:
     5e0:	e196493a 	orrs	r4, r6, sl, lsr r9

000005e4 <l251>:
     5e4:	ea000000 	b	5ec <l253>

000005e8 <l252>:
     5e8:	eafffff9 	b	5d4 <l247>

000005ec <l253>:
     5ec:	e35a0b43 	cmp	sl, #68608	; 0x10c00

000005f0 <l254>:
     5f0:	007cc00f 	rsbseq	ip, ip, pc

000005f4 <l255>:
     5f4:	13c1c677 	bicne	ip, r1, #124780544	; 0x7700000

000005f8 <l256>:
     5f8:	235e01a9 	cmpcs	lr, #1073741866	; 0x4000002a

000005fc <l257>:
     5fc:	e094b001 	adds	fp, r4, r1

00000600 <l258>:
     600:	e255ae17 	subs	sl, r5, #368	; 0x170

00000604 <l259>:
     604:	43b057c6 	movsmi	r5, #51904512	; 0x3180000

00000608 <l260>:
     608:	c19b2006 	orrsgt	r2, fp, r6

0000060c <l261>:
     60c:	135905af 	cmpne	r9, #734003200	; 0x2bc00000

00000610 <l262>:
     610:	e117006e 	tst	r7, lr, rrx

00000614 <l263>:
     614:	e0b08005 	adcs	r8, r0, r5

00000618 <l264>:
     618:	e3ca381e 	bic	r3, sl, #1966080	; 0x1e0000

0000061c <l265>:
     61c:	e1d36f09 	bics	r6, r3, r9, lsl #30

00000620 <l266>:
     620:	e0e8c068 	rsc	ip, r8, r8, rrx

00000624 <l267>:
     624:	e16f7f14 	clz	r7, r4

00000628 <l268>:
     628:	40bba16b 	adcsmi	sl, fp, fp, ror #2

0000062c <l269>:
     62c:	e069e50a 	rsb	lr, r9, sl, lsl #10

00000630 <l270>:
     630:	e1e0300a 	mvn	r3, sl

00000634 <l271>:
     634:	2a000002 	bcs	644 <l275>

00000638 <l272>:
     638:	e28010b5 	add	r1, r0, #181	; 0xb5

0000063c <l273>:
     63c:	b1a06002 	movlt	r6, r2

00000640 <l274>:
     640:	ea000000 	b	648 <l276>

00000644 <l275>:
     644:	eafffffc 	b	63c <l273>

00000648 <l276>:
     648:	ea000002 	b	658 <l280>

0000064c <l277>:
     64c:	e280104b 	add	r1, r0, #75	; 0x4b

00000650 <l278>:
     650:	e28b580e 	add	r5, fp, #917504	; 0xe0000

00000654 <l279>:
     654:	ea000000 	b	65c <l281>

00000658 <l280>:
     658:	eafffffc 	b	650 <l278>

0000065c <l281>:
     65c:	ba000004 	blt	674 <l287>

00000660 <l282>:
     660:	e28010d7 	add	r1, r0, #215	; 0xd7

00000664 <l283>:
     664:	e17500c1 	cmn	r5, r1, asr #1

00000668 <l284>:
     668:	6095206e 	addsvs	r2, r5, lr, rrx

0000066c <l285>:
     66c:	e1cc301b 	bic	r3, ip, fp, lsl r0

00000670 <l286>:
     670:	ea000000 	b	678 <l288>

00000674 <l287>:
     674:	eafffffa 	b	664 <l283>

00000678 <l288>:
     678:	e3b0280a 	movs	r2, #655360	; 0xa0000

0000067c <l289>:
     67c:	c1310063 	teqgt	r1, r3, rrx

00000680 <l290>:
     680:	71f02004 	mvnsvc	r2, r4

00000684 <l291>:
     684:	e15a000a 	cmp	sl, sl

00000688 <l292>:
     688:	e1b08034 	lsrs	r8, r4, r0

0000068c <l293>:
     68c:	71e0b381 	mvnvc	fp, r1, lsl #7

00000690 <l294>:
     690:	4a000004 	bmi	6a8 <l300>

00000694 <l295>:
     694:	e280104e 	add	r1, r0, #78	; 0x4e

00000698 <l296>:
     698:	e2df8bde 	sbcs	r8, pc, #227328	; 0x37800

0000069c <l297>:
     69c:	d08ae00a 	addle	lr, sl, sl

000006a0 <l298>:
     6a0:	d02e1d82 	eorle	r1, lr, r2, lsl #27

000006a4 <l299>:
     6a4:	ea000000 	b	6ac <l301>

000006a8 <l300>:
     6a8:	eafffffa 	b	698 <l296>

000006ac <l301>:
     6ac:	e0da606c 	sbcs	r6, sl, ip, rrx

000006b0 <l302>:
     6b0:	83340933 	teqhi	r4, #835584	; 0xcc000

000006b4 <l303>:
     6b4:	e0ece431 	rsc	lr, ip, r1, lsr r4

000006b8 <l304>:
     6b8:	a1d7800b 	bicsge	r8, r7, fp

000006bc <l305>:
     6bc:	e39570e0 	orrs	r7, r5, #224	; 0xe0

000006c0 <l306>:
     6c0:	613a0068 	teqvs	sl, r8, rrx

000006c4 <l307>:
     6c4:	e03ab004 	eors	fp, sl, r4

000006c8 <l308>:
     6c8:	02790232 	rsbseq	r0, r9, #536870915	; 0x20000003

000006cc <l309>:
     6cc:	40090a2e 	andmi	r0, r9, lr, lsr #20

000006d0 <l310>:
     6d0:	e03b6062 	eors	r6, fp, r2, rrx

000006d4 <l311>:
     6d4:	c22190f0 	eorgt	r9, r1, #240	; 0xf0

000006d8 <l312>:
     6d8:	a01ab9ae 	andsge	fp, sl, lr, lsr #19

000006dc <l313>:
     6dc:	e3b0ab3b 	movs	sl, #60416	; 0xec00

000006e0 <l314>:
     6e0:	ca000005 	bgt	6fc <l321>

000006e4 <l315>:
     6e4:	e2801016 	add	r1, r0, #22

000006e8 <l316>:
     6e8:	e27938b1 	rsbs	r3, r9, #11599872	; 0xb10000

000006ec <l317>:
     6ec:	e3540d61 	cmp	r4, #6208	; 0x1840

000006f0 <l318>:
     6f0:	a216e7ce 	andsge	lr, r6, #54001664	; 0x3380000

000006f4 <l319>:
     6f4:	c044606c 	subgt	r6, r4, ip, rrx

000006f8 <l320>:
     6f8:	ea000000 	b	700 <l322>

000006fc <l321>:
     6fc:	eafffff9 	b	6e8 <l316>

00000700 <l322>:
     700:	e19645ac 	orrs	r4, r6, ip, lsr #11

00000704 <l323>:
     704:	e039ab66 	eors	sl, r9, r6, ror #22

00000708 <l324>:
     708:	e016c067 	ands	ip, r6, r7, rrx

0000070c <l325>:
     70c:	e0e5a255 	rsc	sl, r5, r5, asr r2

00000710 <l326>:
     710:	0228b383 	eoreq	fp, r8, #201326594	; 0xc000002

00000714 <l327>:
     714:	303117ec 	eorscc	r1, r1, ip, ror #15

00000718 <l328>:
     718:	a0455065 	subge	r5, r5, r5, rrx

0000071c <l329>:
     71c:	e152096c 	cmp	r2, ip, ror #18

00000720 <l330>:
     720:	31895c72 	orrcc	r5, r9, r2, ror ip

00000724 <l331>:
     724:	e0169934 	ands	r9, r6, r4, lsr r9

00000728 <l332>:
     728:	6a000004 	bvs	740 <l338>

0000072c <l333>:
     72c:	e28010c7 	add	r1, r0, #199	; 0xc7

00000730 <l334>:
     730:	51f0afc5 	mvnspl	sl, r5, asr #31

00000734 <l335>:
     734:	e11303c8 	tst	r3, r8, asr #7

00000738 <l336>:
     738:	a3f0c22a 	mvnsge	ip, #-1610612734	; 0xa0000002

0000073c <l337>:
     73c:	ea000000 	b	744 <l339>

00000740 <l338>:
     740:	eafffffa 	b	730 <l334>

00000744 <l339>:
     744:	e2e86e3f 	rsc	r6, r8, #1008	; 0x3f0

00000748 <l340>:
     748:	e077e06a 	rsbs	lr, r7, sl, rrx

0000074c <l341>:
     74c:	138221a9 	orrne	r2, r2, #1073741866	; 0x4000002a

00000750 <l342>:
     750:	a07f4cef 	rsbsge	r4, pc, pc, ror #25

00000754 <l343>:
     754:	006f5002 	rsbeq	r5, pc, r2

00000758 <l344>:
     758:	b15407ce 	cmplt	r4, lr, asr #15

0000075c <l345>:
     75c:	e11b0007 	tst	fp, r7

00000760 <l346>:
     760:	016faf15 	clzeq	sl, r5

00000764 <l347>:
     764:	e04f6003 	sub	r6, pc, r3

00000768 <l348>:
     768:	e150000e 	cmp	r0, lr

0000076c <l349>:
     76c:	11991a53 	orrsne	r1, r9, r3, asr sl

00000770 <l350>:
     770:	10ac800b 	adcne	r8, ip, fp

00000774 <l351>:
     774:	802055e5 	eorhi	r5, r0, r5, ror #11

00000778 <l352>:
     778:	703fce87 	eorsvc	ip, pc, r7, lsl #29

0000077c <l353>:
     77c:	e04c9a47 	sub	r9, ip, r7, asr #20

00000780 <l354>:
     780:	e1b0ce83 	lsls	ip, r3, #29

00000784 <l355>:
     784:	503ae27e 	eorspl	lr, sl, lr, ror r2

00000788 <l356>:
     788:	016f0f18 	clzeq	r0, r8

0000078c <l357>:
     78c:	9083a06c 	addls	sl, r3, ip, rrx

00000790 <l358>:
     790:	e0d06714 	sbcs	r6, r0, r4, lsl r7

00000794 <l359>:
     794:	811c0007 	tsthi	ip, r7

00000798 <l360>:
     798:	00024757 	andeq	r4, r2, r7, asr r7

0000079c <l361>:
     79c:	1186c06f 	orrne	ip, r6, pc, rrx

000007a0 <l362>:
     7a0:	92a1b9dd 	adcls	fp, r1, #3620864	; 0x374000

000007a4 <l363>:
     7a4:	e1520917 	cmp	r2, r7, lsl r9

000007a8 <l364>:
     7a8:	8a000007 	bhi	7cc <l373>

000007ac <l365>:
     7ac:	e28010ed 	add	r1, r0, #237	; 0xed

000007b0 <l366>:
     7b0:	a18134a5 	orrge	r3, r1, r5, lsr #9

000007b4 <l367>:
     7b4:	d0ae9aa5 	adcle	r9, lr, r5, lsr #21

000007b8 <l368>:
     7b8:	d3130cbf 	tstle	r3, #48896	; 0xbf00

000007bc <l369>:
     7bc:	105973e7 	subsne	r7, r9, r7, ror #7

000007c0 <l370>:
     7c0:	e0e2451a 	rsc	r4, r2, sl, lsl r5

000007c4 <l371>:
     7c4:	904c5210 	subls	r5, ip, r0, lsl r2

000007c8 <l372>:
     7c8:	ea000000 	b	7d0 <l374>

000007cc <l373>:
     7cc:	eafffff7 	b	7b0 <l366>

000007d0 <l374>:
     7d0:	9024e107 	eorls	lr, r4, r7, lsl #2

000007d4 <l375>:
     7d4:	e31b0205 	tst	fp, #1342177280	; 0x50000000

000007d8 <l376>:
     7d8:	e0006067 	and	r6, r0, r7, rrx

000007dc <l377>:
     7dc:	e31a0049 	tst	sl, #73	; 0x49

000007e0 <l378>:
     7e0:	515e0179 	cmppl	lr, r9, ror r1

000007e4 <l379>:
     7e4:	30904505 	addscc	r4, r0, r5, lsl #10

000007e8 <l380>:
     7e8:	b22b2743 	eorlt	r2, fp, #17563648	; 0x10c0000

000007ec <l381>:
     7ec:	e3a09003 	mov	r9, #3

000007f0 <l382>:
     7f0:	91760066 	cmnls	r6, r6, rrx

000007f4 <l383>:
     7f4:	e1180179 	tst	r8, r9, ror r1

000007f8 <l384>:
     7f8:	0006e25e 	andeq	lr, r6, lr, asr r2

000007fc <l385>:
     7fc:	213c000f 	teqcs	ip, pc

00000800 <l386>:
     800:	11b0c1e3 	rorsne	ip, r3, #3

00000804 <l387>:
     804:	7060215b 	rsbvc	r2, r0, fp, asr r1

00000808 <l388>:
     808:	e252b522 	subs	fp, r2, #142606336	; 0x8800000

0000080c <l389>:
     80c:	e0320134 	eors	r0, r2, r4, lsr r1

00000810 <l390>:
     810:	513b0003 	teqpl	fp, r3

00000814 <l391>:
     814:	e0392554 	eors	r2, r9, r4, asr r5

00000818 <l392>:
     818:	e15c0001 	cmp	ip, r1

0000081c <l393>:
     81c:	e3550fba 	cmp	r5, #744	; 0x2e8

00000820 <l394>:
     820:	73560a35 	cmpvc	r6, #217088	; 0x35000

00000824 <l395>:
     824:	e0959065 	adds	r9, r5, r5, rrx

00000828 <l396>:
     828:	e0b4800c 	adcs	r8, r4, ip

0000082c <l397>:
     82c:	10431d49 	subne	r1, r3, r9, asr #26

00000830 <l398>:
     830:	c1d9cd65 	bicsgt	ip, r9, r5, ror #26

00000834 <l399>:
     834:	e1924009 	orrs	r4, r2, r9

00000838 <l400>:
     838:	e0104005 	ands	r4, r0, r5

0000083c <l401>:
     83c:	0177006f 	cmneq	r7, pc, rrx

00000840 <l402>:
     840:	b08be066 	addlt	lr, fp, r6, rrx

00000844 <l403>:
     844:	e1f06716 	mvns	r6, r6, lsl r7

00000848 <l404>:
     848:	e0796652 	rsbs	r6, r9, r2, asr r6

0000084c <l405>:
     84c:	101a5064 	andsne	r5, sl, r4, rrx

00000850 <l406>:
     850:	30026450 	andcc	r6, r2, r0, asr r4

00000854 <l407>:
     854:	ea000004 	b	86c <l413>

00000858 <l408>:
     858:	e2801010 	add	r1, r0, #16

0000085c <l409>:
     85c:	e1802216 	orr	r2, r0, r6, lsl r2

00000860 <l410>:
     860:	e23f71d6 	eors	r7, pc, #-2147483595	; 0x80000035

00000864 <l411>:
     864:	90d20ae2 	sbcsls	r0, r2, r2, ror #21

00000868 <l412>:
     868:	ea000000 	b	870 <l414>

0000086c <l413>:
     86c:	eafffffa 	b	85c <l409>

00000870 <l414>:
     870:	ea000004 	b	888 <l420>

00000874 <l415>:
     874:	e2801028 	add	r1, r0, #40	; 0x28

00000878 <l416>:
     878:	4054300e 	subsmi	r3, r4, lr

0000087c <l417>:
     87c:	806c9178 	rsbhi	r9, ip, r8, ror r1

00000880 <l418>:
     880:	e1160068 	tst	r6, r8, rrx

00000884 <l419>:
     884:	ea000000 	b	88c <l421>

00000888 <l420>:
     888:	eafffffa 	b	878 <l416>

0000088c <l421>:
     88c:	235900f3 	cmpcs	r9, #243	; 0xf3

00000890 <l422>:
     890:	e0a73c38 	adc	r3, r7, r8, lsr ip

00000894 <l423>:
     894:	b2fe2eae 	rscslt	r2, lr, #2784	; 0xae0

00000898 <l424>:
     898:	d08409c8 	addle	r0, r4, r8, asr #19

0000089c <l425>:
     89c:	9047a00a 	subls	sl, r7, sl

000008a0 <l426>:
     8a0:	a034c001 	eorsge	ip, r4, r1

000008a4 <l427>:
     8a4:	ea000006 	b	8c4 <l435>

000008a8 <l428>:
     8a8:	e28010dd 	add	r1, r0, #221	; 0xdd

000008ac <l429>:
     8ac:	e19b8950 	orrs	r8, fp, r0, asr r9

000008b0 <l430>:
     8b0:	e0526008 	subs	r6, r2, r8

000008b4 <l431>:
     8b4:	1040b931 	subne	fp, r0, r1, lsr r9

000008b8 <l432>:
     8b8:	727582ed 	rsbsvc	r8, r5, #-805306354	; 0xd000000e

000008bc <l433>:
     8bc:	e1a0866e 	ror	r8, lr, #12

000008c0 <l434>:
     8c0:	ea000000 	b	8c8 <l436>

000008c4 <l435>:
     8c4:	eafffff8 	b	8ac <l429>

000008c8 <l436>:
     8c8:	e1120acb 	tst	r2, fp, asr #21

000008cc <l437>:
     8cc:	e3e05f66 	mvn	r5, #408	; 0x198

000008d0 <l438>:
     8d0:	d0d2300a 	sbcsle	r3, r2, sl

000008d4 <l439>:
     8d4:	80e3e06b 	rschi	lr, r3, fp, rrx

000008d8 <l440>:
     8d8:	e1170ee6 	tst	r7, r6, ror #29

000008dc <l441>:
     8dc:	30431fca 	subcc	r1, r3, sl, asr #31

000008e0 <l442>:
     8e0:	e02854aa 	eor	r5, r8, sl, lsr #9

000008e4 <l443>:
     8e4:	516fbf15 	clzpl	fp, r5

000008e8 <l444>:
     8e8:	e16fcf18 	clz	ip, r8

000008ec <l445>:
     8ec:	e16f5f1a 	clz	r5, sl

000008f0 <l446>:
     8f0:	e2ffa3d6 	rscs	sl, pc, #1476395011	; 0x58000003

000008f4 <l447>:
     8f4:	40b9c00e 	adcsmi	ip, r9, lr

000008f8 <l448>:
     8f8:	e0ab800b 	adc	r8, fp, fp

000008fc <l449>:
     8fc:	13f039fe 	mvnsne	r3, #4161536	; 0x3f8000

00000900 <l450>:
     900:	401f4007 	andsmi	r4, pc, r7

00000904 <l451>:
     904:	e3e03ab2 	mvn	r3, #729088	; 0xb2000

00000908 <l452>:
     908:	ea000007 	b	92c <l461>

0000090c <l453>:
     90c:	e28010dc 	add	r1, r0, #220	; 0xdc

00000910 <l454>:
     910:	41c1e064 	bicmi	lr, r1, r4, rrx

00000914 <l455>:
     914:	62fb0212 	rscsvs	r0, fp, #536870913	; 0x20000001

00000918 <l456>:
     918:	e16f3f17 	clz	r3, r7

0000091c <l457>:
     91c:	e2f8740f 	rscs	r7, r8, #251658240	; 0xf000000

00000920 <l458>:
     920:	d13a006a 	teqle	sl, sl, rrx

00000924 <l459>:
     924:	92472837 	subls	r2, r7, #3604480	; 0x370000

00000928 <l460>:
     928:	ea000000 	b	930 <l462>

0000092c <l461>:
     92c:	eafffff7 	b	910 <l454>

00000930 <l462>:
     930:	e21b2fa7 	ands	r2, fp, #668	; 0x29c

00000934 <l463>:
     934:	a1e0c06f 	mvnge	ip, pc, rrx

00000938 <l464>:
     938:	3119031b 	tstcc	r9, fp, lsl r3

0000093c <l465>:
     93c:	e2d81ac6 	sbcs	r1, r8, #811008	; 0xc6000

00000940 <l466>:
     940:	e21ce123 	ands	lr, ip, #-1073741816	; 0xc0000008

00000944 <l467>:
     944:	d2efbb35 	rscle	fp, pc, #54272	; 0xd400

00000948 <l468>:
     948:	e0ea6002 	rsc	r6, sl, r2

0000094c <l469>:
     94c:	00914001 	addseq	r4, r1, r1

00000950 <l470>:
     950:	3189b4ee 	orrcc	fp, r9, lr, ror #9

00000954 <l471>:
     954:	a372099e 	cmnge	r2, #2588672	; 0x278000

00000958 <l472>:
     958:	e02486e4 	eor	r8, r4, r4, ror #13

0000095c <l473>:
     95c:	733f09fb 	teqvc	pc, #4112384	; 0x3ec000

00000960 <l474>:
     960:	235b0f55 	cmpcs	fp, #340	; 0x154

00000964 <l475>:
     964:	e1190003 	tst	r9, r3

00000968 <l476>:
     968:	83b0e0ca 	movshi	lr, #202	; 0xca

0000096c <l477>:
     96c:	e3a050b7 	mov	r5, #183	; 0xb7

00000970 <l478>:
     970:	00b056cc 	adcseq	r5, r0, ip, asr #13

00000974 <l479>:
     974:	e016e063 	ands	lr, r6, r3, rrx

00000978 <l480>:
     978:	71110284 	tstvc	r1, r4, lsl #5

0000097c <l481>:
     97c:	e0167007 	ands	r7, r6, r7

00000980 <l482>:
     980:	e0525000 	subs	r5, r2, r0

00000984 <l483>:
     984:	006a264b 	rsbeq	r2, sl, fp, asr #12

00000988 <l484>:
     988:	e0882008 	add	r2, r8, r8

0000098c <l485>:
     98c:	e0753063 	rsbs	r3, r5, r3, rrx

00000990 <l486>:
     990:	51e06000 	mvnpl	r6, r0

00000994 <l487>:
     994:	0a000005 	beq	9b0 <l494>

00000998 <l488>:
     998:	e28010e3 	add	r1, r0, #227	; 0xe3

0000099c <l489>:
     99c:	e1f0262b 	mvns	r2, fp, lsr #12

000009a0 <l490>:
     9a0:	e1a0c939 	lsr	ip, r9, r9

000009a4 <l491>:
     9a4:	e1b08005 	movs	r8, r5

000009a8 <l492>:
     9a8:	804c4002 	subhi	r4, ip, r2

000009ac <l493>:
     9ac:	ea000000 	b	9b4 <l495>

000009b0 <l494>:
     9b0:	eafffff9 	b	99c <l489>

000009b4 <l495>:
     9b4:	a25f2b8f 	subsge	r2, pc, #146432	; 0x23c00

000009b8 <l496>:
     9b8:	01e0700b 	mvneq	r7, fp

000009bc <l497>:
     9bc:	008ab069 	addeq	fp, sl, r9, rrx

000009c0 <l498>:
     9c0:	9002b3c7 	andls	fp, r2, r7, asr #7

000009c4 <l499>:
     9c4:	3040a671 	subcc	sl, r0, r1, ror r6

000009c8 <l500>:
     9c8:	e1b09584 	lsls	r9, r4, #11

000009cc <l501>:
     9cc:	e045b064 	sub	fp, r5, r4, rrx

000009d0 <l502>:
     9d0:	1200c5dd 	andne	ip, r0, #926941184	; 0x37400000

000009d4 <l503>:
     9d4:	e1b0700b 	movs	r7, fp

000009d8 <l504>:
     9d8:	e1150063 	tst	r5, r3, rrx

000009dc <l505>:
     9dc:	937002da 	cmnls	r0, #-1610612723	; 0xa000000d

000009e0 <l506>:
     9e0:	e181800b 	orr	r8, r1, fp

000009e4 <l507>:
     9e4:	e0743006 	rsbs	r3, r4, r6

000009e8 <l508>:
     9e8:	80d79367 	sbcshi	r9, r7, r7, ror #6

000009ec <l509>:
     9ec:	e185b06f 	orr	fp, r5, pc, rrx

000009f0 <l510>:
     9f0:	7a000002 	bvc	a00 <l514>

000009f4 <l511>:
     9f4:	e2801081 	add	r1, r0, #129	; 0x81

000009f8 <l512>:
     9f8:	91d09c7c 	bicsls	r9, r0, ip, ror ip

000009fc <l513>:
     9fc:	ea000000 	b	a04 <l515>

00000a00 <l514>:
     a00:	eafffffc 	b	9f8 <l512>

00000a04 <l515>:
     a04:	e027e064 	eor	lr, r7, r4, rrx

00000a08 <l516>:
     a08:	100a4474 	andne	r4, sl, r4, ror r4

00000a0c <l517>:
     a0c:	b08997c3 	addlt	r9, r9, r3, asr #15

00000a10 <l518>:
     a10:	528284ce 	addpl	r8, r2, #-838860800	; 0xce000000

00000a14 <l519>:
     a14:	ea000007 	b	a38 <l528>

00000a18 <l520>:
     a18:	e280104b 	add	r1, r0, #75	; 0x4b

00000a1c <l521>:
     a1c:	e155055a 	cmp	r5, sl, asr r5

00000a20 <l522>:
     a20:	e055a00b 	subs	sl, r5, fp

00000a24 <l523>:
     a24:	61100ca2 	tstvs	r0, r2, lsr #25

00000a28 <l524>:
     a28:	e092a06c 	adds	sl, r2, ip, rrx

00000a2c <l525>:
     a2c:	e13c0873 	teq	ip, r3, ror r8

00000a30 <l526>:
     a30:	925a62da 	subsls	r6, sl, #-1610612723	; 0xa000000d

00000a34 <l527>:
     a34:	ea000000 	b	a3c <l529>

00000a38 <l528>:
     a38:	eafffff7 	b	a1c <l521>

00000a3c <l529>:
     a3c:	e135093b 	teq	r5, fp, lsr r9

00000a40 <l530>:
     a40:	13e01905 	mvnne	r1, #81920	; 0x14000

00000a44 <l531>:
     a44:	9234bc9d 	eorsls	fp, r4, #40192	; 0x9d00

00000a48 <l532>:
     a48:	e1760003 	cmn	r6, r3

00000a4c <l533>:
     a4c:	90d9671e 	sbcsls	r6, r9, lr, lsl r7

00000a50 <l534>:
     a50:	e02077a9 	eor	r7, r0, r9, lsr #15

00000a54 <l535>:
     a54:	a23c8e97 	eorsge	r8, ip, #2416	; 0x970

00000a58 <l536>:
     a58:	117e0252 	cmnne	lr, r2, asr r2

00000a5c <l537>:
     a5c:	e3a00add 	mov	r0, #905216	; 0xdd000

00000a60 <l538>:
     a60:	e2d832e6 	sbcs	r3, r8, #1610612750	; 0x6000000e

00000a64 <l539>:
     a64:	83a0a132 	movhi	sl, #-2147483636	; 0x8000000c

00000a68 <l540>:
     a68:	b0625063 	rsblt	r5, r2, r3, rrx

00000a6c <l541>:
     a6c:	b0358002 	eorslt	r8, r5, r2

00000a70 <l542>:
     a70:	a39abd35 	orrsge	fp, sl, #3392	; 0xd40

00000a74 <l543>:
     a74:	e0b47004 	adcs	r7, r4, r4

00000a78 <l544>:
     a78:	e04a2005 	sub	r2, sl, r5

00000a7c <l545>:
     a7c:	e16f3f14 	clz	r3, r4

00000a80 <l546>:
     a80:	e16fef16 	clz	lr, r6

00000a84 <l547>:
     a84:	e16f9f13 	clz	r9, r3

00000a88 <l548>:
     a88:	e1120001 	tst	r2, r1

00000a8c <l549>:
     a8c:	e0a8bc23 	adc	fp, r8, r3, lsr #24

00000a90 <l550>:
     a90:	e06999a3 	rsb	r9, r9, r3, lsr #19

00000a94 <l551>:
     a94:	e1330001 	teq	r3, r1

00000a98 <l552>:
     a98:	53170f86 	tstpl	r7, #536	; 0x218

00000a9c <l553>:
     a9c:	6034b130 	eorsvs	fp, r4, r0, lsr r1

00000aa0 <l554>:
     aa0:	50093216 	andpl	r3, r9, r6, lsl r2

00000aa4 <l555>:
     aa4:	e04cb009 	sub	fp, ip, r9

00000aa8 <l556>:
     aa8:	e2bcb5ce 	adcs	fp, ip, #864026624	; 0x33800000

00000aac <l557>:
     aac:	73540ecb 	cmpvc	r4, #3248	; 0xcb0

00000ab0 <l558>:
     ab0:	90082068 	andls	r2, r8, r8, rrx

00000ab4 <l559>:
     ab4:	e11c0e71 	tst	ip, r1, ror lr

00000ab8 <l560>:
     ab8:	91947711 	orrsls	r7, r4, r1, lsl r7

00000abc <l561>:
     abc:	e2b44e2e 	adcs	r4, r4, #736	; 0x2e0

00000ac0 <l562>:
     ac0:	e11500c9 	tst	r5, r9, asr #1

00000ac4 <l563>:
     ac4:	42525fa9 	subsmi	r5, r2, #676	; 0x2a4

00000ac8 <l564>:
     ac8:	40045006 	andmi	r5, r4, r6

00000acc <l565>:
     acc:	d0152863 	andsle	r2, r5, r3, ror #16

00000ad0 <l566>:
     ad0:	12d56d3f 	sbcsne	r6, r5, #4032	; 0xfc0

00000ad4 <l567>:
     ad4:	4182e972 	orrmi	lr, r2, r2, ror r9

00000ad8 <l568>:
     ad8:	d17a0c76 	cmnle	sl, r6, ror ip

00000adc <l569>:
     adc:	8a000002 	bhi	aec <l573>

00000ae0 <l570>:
     ae0:	e280100b 	add	r1, r0, #11

00000ae4 <l571>:
     ae4:	9077596f 	rsbsls	r5, r7, pc, ror #18

00000ae8 <l572>:
     ae8:	ea000000 	b	af0 <l574>

00000aec <l573>:
     aec:	eafffffc 	b	ae4 <l571>

00000af0 <l574>:
     af0:	13e05bb5 	mvnne	r5, #185344	; 0x2d400

00000af4 <l575>:
     af4:	e05b976b 	subs	r9, fp, fp, ror #14

00000af8 <l576>:
     af8:	e1510008 	cmp	r1, r8

00000afc <l577>:
     afc:	e3d6a070 	bics	sl, r6, #112	; 0x70

00000b00 <l578>:
     b00:	c0793e7e 	rsbsgt	r3, r9, lr, ror lr

00000b04 <l579>:
     b04:	c33004f1 	teqgt	r0, #-251658240	; 0xf1000000

00000b08 <l580>:
     b08:	21780006 	cmncs	r8, r6

00000b0c <l581>:
     b0c:	9046a004 	subls	sl, r6, r4

00000b10 <l582>:
     b10:	818fc643 	orrhi	ip, pc, r3, asr #12

00000b14 <l583>:
     b14:	c3550307 	cmpgt	r5, #469762048	; 0x1c000000

00000b18 <l584>:
     b18:	e157017e 	cmp	r7, lr, ror r1

00000b1c <l585>:
     b1c:	c1f0828b 	mvnsgt	r8, fp, lsl #5

00000b20 <l586>:
     b20:	e0382002 	eors	r2, r8, r2

00000b24 <l587>:
     b24:	b095c005 	addslt	ip, r5, r5

00000b28 <l588>:
     b28:	e1f01e72 	mvns	r1, r2, ror lr

00000b2c <l589>:
     b2c:	11f0400e 	mvnsne	r4, lr

00000b30 <l590>:
     b30:	e2ca11c2 	sbc	r1, sl, #-2147483600	; 0x80000030

00000b34 <l591>:
     b34:	e172067e 	cmn	r2, lr, ror r6

00000b38 <l592>:
     b38:	c1780064 	cmngt	r8, r4, rrx

00000b3c <l593>:
     b3c:	207244cf 	rsbscs	r4, r2, pc, asr #9

00000b40 <l594>:
     b40:	222e8ee2 	eorcs	r8, lr, #3616	; 0xe20

00000b44 <l595>:
     b44:	e0268064 	eor	r8, r6, r4, rrx

00000b48 <l596>:
     b48:	c1cb9616 	bicgt	r9, fp, r6, lsl r6

00000b4c <l597>:
     b4c:	e1780345 	cmn	r8, r5, asr #6

00000b50 <l598>:
     b50:	e1828060 	orr	r8, r2, r0, rrx

00000b54 <l599>:
     b54:	93b07030 	movsls	r7, #48	; 0x30

00000b58 <l600>:
     b58:	e27b7576 	rsbs	r7, fp, #494927872	; 0x1d800000

00000b5c <l601>:
     b5c:	22556b66 	subscs	r6, r5, #104448	; 0x19800

00000b60 <l602>:
     b60:	6002606f 	andvs	r6, r2, pc, rrx

00000b64 <l603>:
     b64:	9173000f 	cmnls	r3, pc

00000b68 <l604>:
     b68:	e1520b57 	cmp	r2, r7, asr fp

00000b6c <l605>:
     b6c:	907650c0 	rsbsls	r5, r6, r0, asr #1

00000b70 <l606>:
     b70:	ea000007 	b	b94 <l615>

00000b74 <l607>:
     b74:	e2801060 	add	r1, r0, #96	; 0x60

00000b78 <l608>:
     b78:	e068500e 	rsb	r5, r8, lr

00000b7c <l609>:
     b7c:	e03c14e4 	eors	r1, ip, r4, ror #9

00000b80 <l610>:
     b80:	e296e73f 	adds	lr, r6, #16515072	; 0xfc0000

00000b84 <l611>:
     b84:	e078ab19 	rsbs	sl, r8, r9, lsl fp

00000b88 <l612>:
     b88:	e2081abe 	and	r1, r8, #778240	; 0xbe000

00000b8c <l613>:
     b8c:	e16f9f1b 	clz	r9, fp

00000b90 <l614>:
     b90:	ea000000 	b	b98 <l616>

00000b94 <l615>:
     b94:	eafffff7 	b	b78 <l608>

00000b98 <l616>:
     b98:	b27c2b07 	rsbslt	r2, ip, #7168	; 0x1c00

00000b9c <l617>:
     b9c:	c0007b09 	andgt	r7, r0, r9, lsl #22

00000ba0 <l618>:
     ba0:	e0a88063 	adc	r8, r8, r3, rrx

00000ba4 <l619>:
     ba4:	70f5a06f 	rscsvc	sl, r5, pc, rrx

00000ba8 <l620>:
     ba8:	e3e0970f 	mvn	r9, #3932160	; 0x3c0000

00000bac <l621>:
     bac:	71d48b10 	bicsvc	r8, r4, r0, lsl fp

00000bb0 <l622>:
     bb0:	821e8752 	andshi	r8, lr, #21495808	; 0x1480000

00000bb4 <l623>:
     bb4:	a377003b 	cmnge	r7, #59	; 0x3b

00000bb8 <l624>:
     bb8:	511a0060 	tstpl	sl, r0, rrx

00000bbc <l625>:
     bbc:	915903e4 	cmpls	r9, r4, ror #7

00000bc0 <l626>:
     bc0:	c018eb59 	andsgt	lr, r8, r9, asr fp

00000bc4 <l627>:
     bc4:	a2326826 	eorsge	r6, r2, #2490368	; 0x260000

00000bc8 <l628>:
     bc8:	e0d0a062 	sbcs	sl, r0, r2, rrx

00000bcc <l629>:
     bcc:	e17c0e17 	cmn	ip, r7, lsl lr

00000bd0 <l630>:
     bd0:	80492e06 	subhi	r2, r9, r6, lsl #28

00000bd4 <l631>:
     bd4:	e0559005 	subs	r9, r5, r5

00000bd8 <l632>:
     bd8:	9050c000 	subsls	ip, r0, r0

00000bdc <l633>:
     bdc:	d15e07c3 	cmple	lr, r3, asr #15

00000be0 <l634>:
     be0:	42ec5c2b 	rscmi	r5, ip, #11008	; 0x2b00

00000be4 <l635>:
     be4:	e065400b 	rsb	r4, r5, fp

00000be8 <l636>:
     be8:	e0619614 	rsb	r9, r1, r4, lsl r6

00000bec <l637>:
     bec:	81b09002 	movshi	r9, r2

00000bf0 <l638>:
     bf0:	b33809cb 	teqlt	r8, #3325952	; 0x32c000

00000bf4 <l639>:
     bf4:	e119057e 	tst	r9, lr, ror r5

00000bf8 <l640>:
     bf8:	e068a003 	rsb	sl, r8, r3

00000bfc <l641>:
     bfc:	e0fc800c 	rscs	r8, ip, ip

00000c00 <l642>:
     c00:	b18e476e 	orrlt	r4, lr, lr, ror #14

00000c04 <l643>:
     c04:	716f9f1b 	clzvc	r9, fp

00000c08 <l644>:
     c08:	a1730000 	cmnge	r3, r0

00000c0c <l645>:
     c0c:	e17c0878 	cmn	ip, r8, ror r8

00000c10 <l646>:
     c10:	31b0900e 	movscc	r9, lr

00000c14 <l647>:
     c14:	a189b955 	orrge	fp, r9, r5, asr r9

00000c18 <l648>:
     c18:	e1cb0668 	bic	r0, fp, r8, ror #12

00000c1c <l649>:
     c1c:	e08e8000 	add	r8, lr, r0

00000c20 <l650>:
     c20:	107b4c77 	rsbsne	r4, fp, r7, ror ip

00000c24 <l651>:
     c24:	e042e069 	sub	lr, r2, r9, rrx

00000c28 <l652>:
     c28:	31e04068 	mvncc	r4, r8, rrx

00000c2c <l653>:
     c2c:	13790625 	cmnne	r9, #38797312	; 0x2500000

00000c30 <l654>:
     c30:	50b09064 	adcspl	r9, r0, r4, rrx

00000c34 <l655>:
     c34:	32b488c1 	adcscc	r8, r4, #12648448	; 0xc10000

00000c38 <l656>:
     c38:	211308e3 	tstcs	r3, r3, ror #17

00000c3c <l657>:
     c3c:	00d0200c 	sbcseq	r2, r0, ip

00000c40 <l658>:
     c40:	c17c0671 	cmngt	ip, r1, ror r6

00000c44 <l659>:
     c44:	10ae667e 	adcne	r6, lr, lr, ror r6

00000c48 <l660>:
     c48:	e280113d 	add	r1, r0, #1073741839	; 0x4000000f

00000c4c <l661>:
     c4c:	4056895b 	subsmi	r8, r6, fp, asr r9

00000c50 <l662>:
     c50:	ea000003 	b	c64 <l667>

00000c54 <l663>:
     c54:	e28010da 	add	r1, r0, #218	; 0xda

00000c58 <l664>:
     c58:	e2c089de 	sbc	r8, r0, #3637248	; 0x378000

00000c5c <l665>:
     c5c:	e3cc67f1 	bic	r6, ip, #63176704	; 0x3c40000

00000c60 <l666>:
     c60:	ea000000 	b	c68 <l668>

00000c64 <l667>:
     c64:	eafffffb 	b	c58 <l664>

00000c68 <l668>:
     c68:	e20fab03 	and	sl, pc, #3072	; 0xc00

00000c6c <l669>:
     c6c:	30e84007 	rsccc	r4, r8, r7

00000c70 <l670>:
     c70:	e17c000e 	cmn	ip, lr

00000c74 <l671>:
     c74:	e279580a 	rsbs	r5, r9, #655360	; 0xa0000

00000c78 <l672>:
     c78:	c04a1e54 	subgt	r1, sl, r4, asr lr

00000c7c <l673>:
     c7c:	e0f661ec 	rscs	r6, r6, ip, ror #3

00000c80 <l674>:
     c80:	a05a8001 	subsge	r8, sl, r1

00000c84 <l675>:
     c84:	c20099dd 	andgt	r9, r0, #3620864	; 0x374000

00000c88 <l676>:
     c88:	e04a7003 	sub	r7, sl, r3

00000c8c <l677>:
     c8c:	90711067 	rsbsls	r1, r1, r7, rrx

00000c90 <l678>:
     c90:	5053a206 	subspl	sl, r3, r6, lsl #4

00000c94 <l679>:
     c94:	ea000005 	b	cb0 <l686>

00000c98 <l680>:
     c98:	e28010c7 	add	r1, r0, #199	; 0xc7

00000c9c <l681>:
     c9c:	b0421007 	sublt	r1, r2, r7

00000ca0 <l682>:
     ca0:	416fcf11 	clzmi	ip, r1

00000ca4 <l683>:
     ca4:	d3f0945a 	mvnsle	r9, #1509949440	; 0x5a000000

00000ca8 <l684>:
     ca8:	c16fef1b 	clzgt	lr, fp

00000cac <l685>:
     cac:	ea000000 	b	cb4 <l687>

00000cb0 <l686>:
     cb0:	eafffff9 	b	c9c <l681>

00000cb4 <l687>:
     cb4:	7074c527 	rsbsvc	ip, r4, r7, lsr #10

00000cb8 <l688>:
     cb8:	d13a0913 	teqle	sl, r3, lsl r9

00000cbc <l689>:
     cbc:	a29f4192 	addsge	r4, pc, #-2147483612	; 0x80000024

00000cc0 <l690>:
     cc0:	e16fbf1c 	clz	fp, ip

00000cc4 <l691>:
     cc4:	015f0004 	cmpeq	pc, r4

00000cc8 <l692>:
     cc8:	21b01003 	movscs	r1, r3

00000ccc <l693>:
     ccc:	30cc1008 	sbccc	r1, ip, r8

00000cd0 <l694>:
     cd0:	e1c4b003 	bic	fp, r4, r3

00000cd4 <l695>:
     cd4:	e0496951 	sub	r6, r9, r1, asr r9

00000cd8 <l696>:
     cd8:	93e02014 	mvnls	r2, #20

00000cdc <l697>:
     cdc:	31d18672 	bicscc	r8, r1, r2, ror r6

00000ce0 <l698>:
     ce0:	d16fef14 	clzle	lr, r4

00000ce4 <l699>:
     ce4:	124a9cc2 	subne	r9, sl, #49664	; 0xc200

00000ce8 <l700>:
     ce8:	7051c067 	subsvc	ip, r1, r7, rrx

00000cec <l701>:
     cec:	40d8c005 	sbcsmi	ip, r8, r5

00000cf0 <l702>:
     cf0:	a17c0030 	cmnge	ip, r0, lsr r0

00000cf4 <l703>:
     cf4:	01976062 	orrseq	r6, r7, r2, rrx

00000cf8 <l704>:
     cf8:	e026c001 	eor	ip, r6, r1

00000cfc <l705>:
     cfc:	e2e7a916 	rsc	sl, r7, #360448	; 0x58000

00000d00 <l706>:
     d00:	c0293002 	eorgt	r3, r9, r2

00000d04 <l707>:
     d04:	c139000a 	teqgt	r9, sl

00000d08 <l708>:
     d08:	ea000005 	b	d24 <l715>

00000d0c <l709>:
     d0c:	e28010a4 	add	r1, r0, #164	; 0xa4

00000d10 <l710>:
     d10:	e0f64004 	rscs	r4, r6, r4

00000d14 <l711>:
     d14:	a0e9e007 	rscge	lr, r9, r7

00000d18 <l712>:
     d18:	e15e0747 	cmp	lr, r7, asr #14

00000d1c <l713>:
     d1c:	9252400c 	subsls	r4, r2, #12

00000d20 <l714>:
     d20:	ea000000 	b	d28 <l716>

00000d24 <l715>:
     d24:	eafffff9 	b	d10 <l710>

00000d28 <l716>:
     d28:	e0ee7a58 	rsc	r7, lr, r8, asr sl

00000d2c <l717>:
     d2c:	731b074a 	tstvc	fp, #19398656	; 0x1280000

00000d30 <l718>:
     d30:	01760886 	cmneq	r6, r6, lsl #17

00000d34 <l719>:
     d34:	e16f1f17 	clz	r1, r7

00000d38 <l720>:
     d38:	e230b2fa 	eors	fp, r0, #-1610612721	; 0xa000000f

00000d3c <l721>:
     d3c:	ea000007 	b	d60 <l730>

00000d40 <l722>:
     d40:	e280102c 	add	r1, r0, #44	; 0x2c

00000d44 <l723>:
     d44:	e3300609 	teq	r0, #9437184	; 0x900000

00000d48 <l724>:
     d48:	e0ba3582 	adcs	r3, sl, r2, lsl #11

00000d4c <l725>:
     d4c:	11c49ba5 	bicne	r9, r4, r5, lsr #23

00000d50 <l726>:
     d50:	c0c69c41 	sbcgt	r9, r6, r1, asr #24

00000d54 <l727>:
     d54:	2044e000 	subcs	lr, r4, r0

00000d58 <l728>:
     d58:	1007b00e 	andne	fp, r7, lr

00000d5c <l729>:
     d5c:	ea000000 	b	d64 <l731>

00000d60 <l730>:
     d60:	eafffff7 	b	d44 <l723>

00000d64 <l731>:
     d64:	e0552650 	subs	r2, r5, r0, asr r6

00000d68 <l732>:
     d68:	e1973373 	orrs	r3, r7, r3, ror r3

00000d6c <l733>:
     d6c:	22e3858d 	rsccs	r8, r3, #591396864	; 0x23400000

00000d70 <l734>:
     d70:	82ef6307 	rschi	r6, pc, #469762048	; 0x1c000000

00000d74 <l735>:
     d74:	e066a938 	rsb	sl, r6, r8, lsr r9

00000d78 <l736>:
     d78:	e1b06218 	lsls	r6, r8, r2

00000d7c <l737>:
     d7c:	b231008e 	eorslt	r0, r1, #142	; 0x8e

00000d80 <l738>:
     d80:	e0145689 	ands	r5, r4, r9, lsl #13

00000d84 <l739>:
     d84:	517b07c6 	cmnpl	fp, r6, asr #15

00000d88 <l740>:
     d88:	e0c10009 	sbc	r0, r1, r9

00000d8c <l741>:
     d8c:	2134006a 	teqcs	r4, sl, rrx

00000d90 <l742>:
     d90:	43110eef 	tstmi	r1, #3824	; 0xef0

00000d94 <l743>:
     d94:	e0026861 	and	r6, r2, r1, ror #16

00000d98 <l744>:
     d98:	e0489c49 	sub	r9, r8, r9, asr #24

00000d9c <l745>:
     d9c:	e1d03004 	bics	r3, r0, r4

00000da0 <l746>:
     da0:	e0334574 	eors	r4, r3, r4, ror r5

00000da4 <l747>:
     da4:	e010c74a 	ands	ip, r0, sl, asr #14

00000da8 <l748>:
     da8:	e17a000c 	cmn	sl, ip

00000dac <l749>:
     dac:	e06f4005 	rsb	r4, pc, r5

00000db0 <l750>:
     db0:	e036e000 	eors	lr, r6, r0

00000db4 <l751>:
     db4:	e1560a5a 	cmp	r6, sl, asr sl

00000db8 <l752>:
     db8:	20289062 	eorcs	r9, r8, r2, rrx

00000dbc <l753>:
     dbc:	c1770974 	cmngt	r7, r4, ror r9

00000dc0 <l754>:
     dc0:	525eab0f 	subspl	sl, lr, #15360	; 0x3c00

00000dc4 <l755>:
     dc4:	7038700f 	eorsvc	r7, r8, pc

00000dc8 <l756>:
     dc8:	91872212 	orrls	r2, r7, r2, lsl r2

00000dcc <l757>:
     dcc:	e1d71060 	bics	r1, r7, r0, rrx

00000dd0 <l758>:
     dd0:	e1a03e58 	asr	r3, r8, lr

00000dd4 <l759>:
     dd4:	d2db909d 	sbcsle	r9, fp, #157	; 0x9d

00000dd8 <l760>:
     dd8:	e1e0806f 	mvn	r8, pc, rrx

00000ddc <l761>:
     ddc:	a0ace0c9 	adcge	lr, ip, r9, asr #1

00000de0 <l762>:
     de0:	ea000004 	b	df8 <l768>

00000de4 <l763>:
     de4:	e28010fb 	add	r1, r0, #251	; 0xfb

00000de8 <l764>:
     de8:	e242b805 	sub	fp, r2, #327680	; 0x50000

00000dec <l765>:
     dec:	a07ab00e 	rsbsge	fp, sl, lr

00000df0 <l766>:
     df0:	e387ac7a 	orr	sl, r7, #31232	; 0x7a00

00000df4 <l767>:
     df4:	ea000000 	b	dfc <l769>

00000df8 <l768>:
     df8:	eafffffa 	b	de8 <l764>

00000dfc <l769>:
     dfc:	e3e0a66f 	mvn	sl, #116391936	; 0x6f00000

00000e00 <l770>:
     e00:	e3150617 	tst	r5, #24117248	; 0x1700000

00000e04 <l771>:
     e04:	503c9f29 	eorspl	r9, ip, r9, lsr #30

00000e08 <l772>:
     e08:	6185000e 	orrvs	r0, r5, lr

00000e0c <l773>:
     e0c:	c01a795a 	andsgt	r7, sl, sl, asr r9

00000e10 <l774>:
     e10:	91770118 	cmnls	r7, r8, lsl r1

00000e14 <l775>:
     e14:	e270409c 	rsbs	r4, r0, #156	; 0x9c

00000e18 <l776>:
     e18:	e387cd22 	orr	ip, r7, #2176	; 0x880

00000e1c <l777>:
     e1c:	e04a4827 	sub	r4, sl, r7, lsr #16

00000e20 <l778>:
     e20:	517b0958 	cmnpl	fp, r8, asr r9

00000e24 <l779>:
     e24:	e1740255 	cmn	r4, r5, asr r2

00000e28 <l780>:
     e28:	e3f08b2e 	mvns	r8, #47104	; 0xb800

00000e2c <l781>:
     e2c:	e26532a2 	rsb	r3, r5, #536870922	; 0x2000000a

00000e30 <l782>:
     e30:	3a000005 	bcc	e4c <l789>

00000e34 <l783>:
     e34:	e2801048 	add	r1, r0, #72	; 0x48

00000e38 <l784>:
     e38:	620c52dd 	andvs	r5, ip, #-805306355	; 0xd000000d

00000e3c <l785>:
     e3c:	116f1f15 	clzne	r1, r5

00000e40 <l786>:
     e40:	e372070e 	cmn	r2, #3670016	; 0x380000

00000e44 <l787>:
     e44:	50cec009 	sbcpl	ip, lr, r9

00000e48 <l788>:
     e48:	ea000000 	b	e50 <l790>

00000e4c <l789>:
     e4c:	eafffff9 	b	e38 <l784>

00000e50 <l790>:
     e50:	e137000a 	teq	r7, sl

00000e54 <l791>:
     e54:	c1e08583 	mvngt	r8, r3, lsl #11

00000e58 <l792>:
     e58:	b1d989cb 	bicslt	r8, r9, fp, asr #19

00000e5c <l793>:
     e5c:	e1780002 	cmn	r8, r2

00000e60 <l794>:
     e60:	90f9e065 	rscsls	lr, r9, r5, rrx

00000e64 <l795>:
     e64:	03b0c8fb 	movseq	ip, #16449536	; 0xfb0000

00000e68 <l796>:
     e68:	e1e0c002 	mvn	ip, r2

00000e6c <l797>:
     e6c:	e1350003 	teq	r5, r3

00000e70 <l798>:
     e70:	e0e80009 	rsc	r0, r8, r9

00000e74 <l799>:
     e74:	e291e3db 	adds	lr, r1, #1811939331	; 0x6c000003

00000e78 <l800>:
     e78:	e0acb00f 	adc	fp, ip, pc

00000e7c <l801>:
     e7c:	e1110868 	tst	r1, r8, ror #16

00000e80 <l802>:
     e80:	e0538b34 	subs	r8, r3, r4, lsr fp

00000e84 <l803>:
     e84:	201248ef 	andscs	r4, r2, pc, ror #17

00000e88 <l804>:
     e88:	d043a657 	suble	sl, r3, r7, asr r6

00000e8c <l805>:
     e8c:	e0174003 	ands	r4, r7, r3

00000e90 <l806>:
     e90:	e21f9038 	ands	r9, pc, #56	; 0x38

00000e94 <l807>:
     e94:	e1c19ccf 	bic	r9, r1, pc, asr #25

00000e98 <l808>:
     e98:	e0e7b005 	rsc	fp, r7, r5

00000e9c <l809>:
     e9c:	21360a1e 	teqcs	r6, lr, lsl sl

00000ea0 <l810>:
     ea0:	50113005 	andspl	r3, r1, r5

00000ea4 <l811>:
     ea4:	70370708 	eorsvc	r0, r7, r8, lsl #14

00000ea8 <l812>:
     ea8:	31f092a0 	mvnscc	r9, r0, lsr #5

00000eac <l813>:
     eac:	c28907d6 	addgt	r0, r9, #56098816	; 0x3580000

00000eb0 <l814>:
     eb0:	e0a24838 	adc	r4, r2, r8, lsr r8

00000eb4 <l815>:
     eb4:	e1b05fa9 	lsrs	r5, r9, #31

00000eb8 <l816>:
     eb8:	1070884f 	rsbsne	r8, r0, pc, asr #16

00000ebc <l817>:
     ebc:	11330a47 	teqne	r3, r7, asr #20

00000ec0 <l818>:
     ec0:	e0e368c7 	rsc	r6, r3, r7, asr #17

00000ec4 <l819>:
     ec4:	e2e8a637 	rsc	sl, r8, #57671680	; 0x3700000

00000ec8 <l820>:
     ec8:	e3a05313 	mov	r5, #1275068416	; 0x4c000000

00000ecc <l821>:
     ecc:	d25914f3 	subsle	r1, r9, #-218103808	; 0xf3000000

00000ed0 <l822>:
     ed0:	e0b67004 	adcs	r7, r6, r4

00000ed4 <l823>:
     ed4:	e11c0053 	tst	ip, r3, asr r0

00000ed8 <l824>:
     ed8:	e16f8f18 	clz	r8, r8

00000edc <l825>:
     edc:	e3d0802d 	bics	r8, r0, #45	; 0x2d

00000ee0 <l826>:
     ee0:	e01ca00f 	ands	sl, ip, pc

00000ee4 <l827>:
     ee4:	21970063 	orrscs	r0, r7, r3, rrx

00000ee8 <l828>:
     ee8:	e1e0306a 	mvn	r3, sl, rrx

00000eec <l829>:
     eec:	91570008 	cmpls	r7, r8

00000ef0 <l830>:
     ef0:	6373002c 	cmnvs	r3, #44	; 0x2c

00000ef4 <l831>:
     ef4:	e1e08516 	mvn	r8, r6, lsl r5

00000ef8 <l832>:
     ef8:	e0ab500e 	adc	r5, fp, lr

00000efc <l833>:
     efc:	e062a458 	rsb	sl, r2, r8, asr r4

00000f00 <l834>:
     f00:	e08e396b 	add	r3, lr, fp, ror #18

00000f04 <l835>:
     f04:	e1d72060 	bics	r2, r7, r0, rrx

00000f08 <l836>:
     f08:	e150003a 	cmp	r0, sl, lsr r0

00000f0c <l837>:
     f0c:	da000005 	ble	f28 <l844>

00000f10 <l838>:
     f10:	e28010cb 	add	r1, r0, #203	; 0xcb

00000f14 <l839>:
     f14:	e11c01a7 	tst	ip, r7, lsr #3

00000f18 <l840>:
     f18:	30723002 	rsbscc	r3, r2, r2

00000f1c <l841>:
     f1c:	e3e0073f 	mvn	r0, #16515072	; 0xfc0000

00000f20 <l842>:
     f20:	51a0216e 	rorpl	r2, lr, #2

00000f24 <l843>:
     f24:	ea000000 	b	f2c <l845>

00000f28 <l844>:
     f28:	eafffff9 	b	f14 <l839>

00000f2c <l845>:
     f2c:	81790005 	cmnhi	r9, r5

00000f30 <l846>:
     f30:	e33c0237 	teq	ip, #1879048195	; 0x70000003

00000f34 <l847>:
     f34:	c0a1525e 	adcgt	r5, r1, lr, asr r2

00000f38 <l848>:
     f38:	216f6f14 	clzcs	r6, r4

00000f3c <l849>:
     f3c:	d199cc85 	orrsle	ip, r9, r5, lsl #25

00000f40 <l850>:
     f40:	e18ec061 	orr	ip, lr, r1, rrx

00000f44 <l851>:
     f44:	b00b4003 	andlt	r4, fp, r3

00000f48 <l852>:
     f48:	e182000b 	orr	r0, r2, fp

00000f4c <l853>:
     f4c:	c0f70474 	rscsgt	r0, r7, r4, ror r4

00000f50 <l854>:
     f50:	a00b4001 	andge	r4, fp, r1

00000f54 <l855>:
     f54:	6042600c 	subvs	r6, r2, ip

00000f58 <l856>:
     f58:	01b0182a 	lsrseq	r1, sl, #16

00000f5c <l857>:
     f5c:	e1f0486b 	mvns	r4, fp, ror #16

00000f60 <l858>:
     f60:	d0982061 	addsle	r2, r8, r1, rrx

00000f64 <l859>:
     f64:	e04e900a 	sub	r9, lr, sl

00000f68 <l860>:
     f68:	e0054829 	and	r4, r5, r9, lsr #16

00000f6c <l861>:
     f6c:	e09155a2 	adds	r5, r1, r2, lsr #11

00000f70 <l862>:
     f70:	e034600b 	eors	r6, r4, fp

00000f74 <l863>:
     f74:	30951852 	addscc	r1, r5, r2, asr r8

00000f78 <l864>:
     f78:	e020c00c 	eor	ip, r0, ip

00000f7c <l865>:
     f7c:	43d31ce6 	bicsmi	r1, r3, #58880	; 0xe600

00000f80 <l866>:
     f80:	e04c418b 	sub	r4, ip, fp, lsl #3

00000f84 <l867>:
     f84:	e0057008 	and	r7, r5, r8

00000f88 <l868>:
     f88:	e02997ea 	eor	r9, r9, sl, ror #15

00000f8c <l869>:
     f8c:	e233122b 	eors	r1, r3, #-1342177278	; 0xb0000002

00000f90 <l870>:
     f90:	e1820005 	orr	r0, r2, r5

00000f94 <l871>:
     f94:	e0a01004 	adc	r1, r0, r4

00000f98 <l872>:
     f98:	e035c757 	eors	ip, r5, r7, asr r7

00000f9c <l873>:
     f9c:	815b03e4 	cmphi	fp, r4, ror #7

00000fa0 <l874>:
     fa0:	e3e0e68a 	mvn	lr, #144703488	; 0x8a00000

00000fa4 <l875>:
     fa4:	80461007 	subhi	r1, r6, r7

00000fa8 <l876>:
     fa8:	83f0932a 	mvnshi	r9, #-1476395008	; 0xa8000000

00000fac <l877>:
     fac:	a1a01d29 	lsrge	r1, r9, #26

00000fb0 <l878>:
     fb0:	e080a22e 	add	sl, r0, lr, lsr #4

00000fb4 <l879>:
     fb4:	b24f768a 	sublt	r7, pc, #144703488	; 0x8a00000

00000fb8 <l880>:
     fb8:	e1f0ebe2 	mvns	lr, r2, ror #23

00000fbc <l881>:
     fbc:	e1f0400b 	mvns	r4, fp

00000fc0 <l882>:
     fc0:	b24b82b1 	sublt	r8, fp, #268435467	; 0x1000000b

00000fc4 <l883>:
     fc4:	ea000005 	b	fe0 <l890>

00000fc8 <l884>:
     fc8:	e2801084 	add	r1, r0, #132	; 0x84

00000fcc <l885>:
     fcc:	e1a0100e 	mov	r1, lr

00000fd0 <l886>:
     fd0:	e2cfb23d 	sbc	fp, pc, #-805306365	; 0xd0000003

00000fd4 <l887>:
     fd4:	e038a628 	eors	sl, r8, r8, lsr #12

00000fd8 <l888>:
     fd8:	e07aa00b 	rsbs	sl, sl, fp

00000fdc <l889>:
     fdc:	ea000000 	b	fe4 <l891>

00000fe0 <l890>:
     fe0:	eafffff9 	b	fcc <l885>

00000fe4 <l891>:
     fe4:	93b0425b 	movsls	r4, #-1342177275	; 0xb0000005

00000fe8 <l892>:
     fe8:	71d3500c 	bicsvc	r5, r3, ip

00000fec <l893>:
     fec:	505c6061 	subspl	r6, ip, r1, rrx

00000ff0 <l894>:
     ff0:	21f0c07c 	mvnscs	ip, ip, ror r0

00000ff4 <l895>:
     ff4:	e1b0600a 	movs	r6, sl

00000ff8 <l896>:
     ff8:	c086400c 	addgt	r4, r6, ip

00000ffc <l897>:
     ffc:	e1a0e5ab 	lsr	lr, fp, #11

00001000 <l898>:
    1000:	e1150004 	tst	r5, r4

00001004 <l899>:
    1004:	73b0a726 	movsvc	sl, #9961472	; 0x980000

00001008 <l900>:
    1008:	b065100b 	rsblt	r1, r5, fp

0000100c <l901>:
    100c:	9a000003 	bls	1020 <l906>

00001010 <l902>:
    1010:	e2801034 	add	r1, r0, #52	; 0x34

00001014 <l903>:
    1014:	e06b228a 	rsb	r2, fp, sl, lsl #5

00001018 <l904>:
    1018:	e3330f7e 	teq	r3, #504	; 0x1f8

0000101c <l905>:
    101c:	ea000000 	b	1024 <l907>

00001020 <l906>:
    1020:	eafffffb 	b	1014 <l903>

00001024 <l907>:
    1024:	e179067b 	cmn	r9, fp, ror r6

00001028 <l908>:
    1028:	304c4009 	subcc	r4, ip, r9

0000102c <l909>:
    102c:	e0b43004 	adcs	r3, r4, r4

00001030 <l910>:
    1030:	e1310001 	teq	r1, r1

00001034 <l911>:
    1034:	e041b06e 	sub	fp, r1, lr, rrx

00001038 <l912>:
    1038:	c1a03eac 	lsrgt	r3, ip, #29

0000103c <l913>:
    103c:	e096c065 	adds	ip, r6, r5, rrx

00001040 <l914>:
    1040:	e1f04074 	mvns	r4, r4, ror r0

00001044 <l915>:
    1044:	415e0256 	cmpmi	lr, r6, asr r2

00001048 <l916>:
    1048:	c3d84d71 	bicsgt	r4, r8, #7232	; 0x1c40

0000104c <l917>:
    104c:	01750064 	cmneq	r5, r4, rrx

00001050 <l918>:
    1050:	b1cb1007 	biclt	r1, fp, r7

00001054 <l919>:
    1054:	e019a569 	ands	sl, r9, r9, ror #10

00001058 <l920>:
    1058:	da000007 	ble	107c <l929>

0000105c <l921>:
    105c:	e28010e1 	add	r1, r0, #225	; 0xe1

00001060 <l922>:
    1060:	e1e03000 	mvn	r3, r0

00001064 <l923>:
    1064:	e0699000 	rsb	r9, r9, r0

00001068 <l924>:
    1068:	61d3875b 	bicsvs	r8, r3, fp, asr r7

0000106c <l925>:
    106c:	729328bd 	addsvc	r2, r3, #12386304	; 0xbd0000

00001070 <l926>:
    1070:	213e0889 	teqcs	lr, r9, lsl #17

00001074 <l927>:
    1074:	13f0e369 	mvnsne	lr, #-1543503871	; 0xa4000001

00001078 <l928>:
    1078:	ea000000 	b	1080 <l930>

0000107c <l929>:
    107c:	eafffff7 	b	1060 <l922>

00001080 <l930>:
    1080:	207aadc0 	rsbscs	sl, sl, r0, asr #27

00001084 <l931>:
    1084:	e1500068 	cmp	r0, r8, rrx

00001088 <l932>:
    1088:	816faf13 	clzhi	sl, r3

0000108c <l933>:
    108c:	73cb102e 	bicvc	r1, fp, #46	; 0x2e

00001090 <l934>:
    1090:	416f3f11 	clzmi	r3, r1

00001094 <l935>:
    1094:	52a75df3 	adcpl	r5, r7, #15552	; 0x3cc0

00001098 <l936>:
    1098:	526e19fd 	rsbpl	r1, lr, #4145152	; 0x3f4000

0000109c <l937>:
    109c:	e0dec71e 	sbcs	ip, lr, lr, lsl r7

000010a0 <l938>:
    10a0:	e3db55d3 	bics	r5, fp, #884998144	; 0x34c00000

000010a4 <l939>:
    10a4:	e067500f 	rsb	r5, r7, pc

000010a8 <l940>:
    10a8:	209a4ec8 	addscs	r4, sl, r8, asr #29

000010ac <l941>:
    10ac:	e35604c1 	cmp	r6, #-1056964608	; 0xc1000000

000010b0 <l942>:
    10b0:	da000004 	ble	10c8 <l948>

000010b4 <l943>:
    10b4:	e28010f2 	add	r1, r0, #242	; 0xf2

000010b8 <l944>:
    10b8:	e2614e55 	rsb	r4, r1, #1360	; 0x550

000010bc <l945>:
    10bc:	e0779e4b 	rsbs	r9, r7, fp, asr #28

000010c0 <l946>:
    10c0:	e1110c2a 	tst	r1, sl, lsr #24

000010c4 <l947>:
    10c4:	ea000000 	b	10cc <l949>

000010c8 <l948>:
    10c8:	eafffffa 	b	10b8 <l944>

000010cc <l949>:
    10cc:	50ba7ca6 	adcspl	r7, sl, r6, lsr #25

000010d0 <l950>:
    10d0:	01530348 	cmpeq	r3, r8, asr #6

000010d4 <l951>:
    10d4:	e2a1a32f 	adc	sl, r1, #-1140850688	; 0xbc000000

000010d8 <l952>:
    10d8:	e3f01809 	mvns	r1, #589824	; 0x90000

000010dc <l953>:
    10dc:	e03bb831 	eors	fp, fp, r1, lsr r8

000010e0 <l954>:
    10e0:	11b01007 	movsne	r1, r7

000010e4 <l955>:
    10e4:	ea000002 	b	10f4 <l959>

000010e8 <l956>:
    10e8:	e28010f3 	add	r1, r0, #243	; 0xf3

000010ec <l957>:
    10ec:	e1770528 	cmn	r7, r8, lsr #10

000010f0 <l958>:
    10f0:	ea000000 	b	10f8 <l960>

000010f4 <l959>:
    10f4:	eafffffc 	b	10ec <l957>

000010f8 <l960>:
    10f8:	10c68007 	sbcne	r8, r6, r7

000010fc <l961>:
    10fc:	e3e00727 	mvn	r0, #10223616	; 0x9c0000

00001100 <l962>:
    1100:	c2cc51d2 	sbcgt	r5, ip, #-2147483596	; 0x80000034

00001104 <l963>:
    1104:	e0f67002 	rscs	r7, r6, r2

00001108 <l964>:
    1108:	c13109a4 	teqgt	r1, r4, lsr #19

0000110c <l965>:
    110c:	e24cb961 	sub	fp, ip, #1589248	; 0x184000

00001110 <l966>:
    1110:	a3c8b832 	bicge	fp, r8, #3276800	; 0x320000

00001114 <l967>:
    1114:	e26a8a02 	rsb	r8, sl, #8192	; 0x2000

00001118 <l968>:
    1118:	e16f0f17 	clz	r0, r7

0000111c <l969>:
    111c:	81db006e 	bicshi	r0, fp, lr, rrx

00001120 <l970>:
    1120:	e21f8612 	ands	r8, pc, #18874368	; 0x1200000

00001124 <l971>:
    1124:	e2578d07 	subs	r8, r7, #448	; 0x1c0

00001128 <l972>:
    1128:	c1120578 	tstgt	r2, r8, ror r5

0000112c <l973>:
    112c:	01300651 	teqeq	r0, r1, asr r6

00001130 <l974>:
    1130:	73760601 	cmnvc	r6, #1048576	; 0x100000

00001134 <l975>:
    1134:	e1c5b006 	bic	fp, r5, r6

00001138 <l976>:
    1138:	43110709 	tstmi	r1, #2359296	; 0x240000

0000113c <l977>:
    113c:	ba000002 	blt	114c <l981>

00001140 <l978>:
    1140:	e28010b3 	add	r1, r0, #179	; 0xb3

00001144 <l979>:
    1144:	516f8f14 	clzpl	r8, r4

00001148 <l980>:
    1148:	ea000000 	b	1150 <l982>

0000114c <l981>:
    114c:	eafffffc 	b	1144 <l979>

00001150 <l982>:
    1150:	90185125 	andsls	r5, r8, r5, lsr #2

00001154 <l983>:
    1154:	416fbf1a 	clzmi	fp, sl

00001158 <l984>:
    1158:	e035800c 	eors	r8, r5, ip

0000115c <l985>:
    115c:	5009906e 	andpl	r9, r9, lr, rrx

00001160 <l986>:
    1160:	2a000007 	bcs	1184 <l995>

00001164 <l987>:
    1164:	e2801091 	add	r1, r0, #145	; 0x91

00001168 <l988>:
    1168:	e09c3007 	adds	r3, ip, r7

0000116c <l989>:
    116c:	d001c00e 	andle	ip, r1, lr

00001170 <l990>:
    1170:	200bea75 	andcs	lr, fp, r5, ror sl

00001174 <l991>:
    1174:	e0b55871 	adcs	r5, r5, r1, ror r8

00001178 <l992>:
    1178:	e13c0853 	teq	ip, r3, asr r8

0000117c <l993>:
    117c:	e1b05a5b 	asrs	r5, fp, sl

00001180 <l994>:
    1180:	ea000000 	b	1188 <l996>

00001184 <l995>:
    1184:	eafffff7 	b	1168 <l988>

00001188 <l996>:
    1188:	20be4844 	adcscs	r4, lr, r4, asr #16

0000118c <l997>:
    118c:	e1a00000 	nop			; (mov r0, r0)

00001190 <l998>:
    1190:	e1a00000 	nop			; (mov r0, r0)

00001194 <l999>:
    1194:	e1b00003 	movs	r0, r3

00001198 <l1000>:
    1198:	e2389705 	eors	r9, r8, #1310720	; 0x140000

0000119c <end>:
    119c:	eafffffe 	b	119c <end>
