
cmp_1000.o:     file format elf32-littlearm


Disassembly of section .text:

00000000 <main>:
       0:	e05f000f 	subs	r0, pc, pc
       4:	e59fd000 	ldr	sp, [pc]	; c <val>
       8:	ea000000 	b	10 <next>

0000000c <val>:
       c:	000ffff0 	.word	0x000ffff0

00000010 <next>:
      10:	e59f1000 	ldr	r1, [pc]	; 18 <val1>
      14:	ea000000 	b	1c <next1>

00000018 <val1>:
      18:	6d1bd913 	.word	0x6d1bd913

0000001c <next1>:
      1c:	e59f2000 	ldr	r2, [pc]	; 24 <val2>
      20:	ea000000 	b	28 <next2>

00000024 <val2>:
      24:	247e24ab 	.word	0x247e24ab

00000028 <next2>:
      28:	e59f3000 	ldr	r3, [pc]	; 30 <val3>
      2c:	ea000000 	b	34 <next3>

00000030 <val3>:
      30:	2a02669c 	.word	0x2a02669c

00000034 <next3>:
      34:	e59f4000 	ldr	r4, [pc]	; 3c <val4>
      38:	ea000000 	b	40 <next4>

0000003c <val4>:
      3c:	3f89ee30 	.word	0x3f89ee30

00000040 <next4>:
      40:	e59f5000 	ldr	r5, [pc]	; 48 <val5>
      44:	ea000000 	b	4c <next5>

00000048 <val5>:
      48:	dcd4c7d6 	.word	0xdcd4c7d6

0000004c <next5>:
      4c:	e59f6000 	ldr	r6, [pc]	; 54 <val6>
      50:	ea000000 	b	58 <next6>

00000054 <val6>:
      54:	43beb091 	.word	0x43beb091

00000058 <next6>:
      58:	e59f7000 	ldr	r7, [pc]	; 60 <val7>
      5c:	ea000000 	b	64 <next7>

00000060 <val7>:
      60:	bd79fc88 	.word	0xbd79fc88

00000064 <next7>:
      64:	e59f8000 	ldr	r8, [pc]	; 6c <val8>
      68:	ea000000 	b	70 <next8>

0000006c <val8>:
      6c:	2661e6f0 	.word	0x2661e6f0

00000070 <next8>:
      70:	e59f9000 	ldr	r9, [pc]	; 78 <val9>
      74:	ea000000 	b	7c <next9>

00000078 <val9>:
      78:	db8642de 	.word	0xdb8642de

0000007c <next9>:
      7c:	e59fa000 	ldr	sl, [pc]	; 84 <val10>
      80:	ea000000 	b	88 <next10>

00000084 <val10>:
      84:	e5b5a1e7 	.word	0xe5b5a1e7

00000088 <next10>:
      88:	e59fb000 	ldr	fp, [pc]	; 90 <val11>
      8c:	ea000000 	b	94 <next11>

00000090 <val11>:
      90:	19837e62 	.word	0x19837e62

00000094 <next11>:
      94:	e59fc000 	ldr	ip, [pc]	; 9c <val12>
      98:	ea000000 	b	a0 <next12>

0000009c <val12>:
      9c:	95b7527e 	.word	0x95b7527e

000000a0 <next12>:
      a0:	e59fe000 	ldr	lr, [pc]	; a8 <val14>
      a4:	ea000000 	b	ac <next14>

000000a8 <val14>:
      a8:	3911574f 	.word	0x3911574f

000000ac <next14>:
      ac:	e59f1000 	ldr	r1, [pc]	; b4 <val15>
      b0:	ea000000 	b	b8 <next15>

000000b4 <val15>:
      b4:	643574bf 	.word	0x643574bf

000000b8 <next15>:
      b8:	e58d1000 	str	r1, [sp]
      bc:	e59f1000 	ldr	r1, [pc]	; c4 <val16>
      c0:	ea000000 	b	c8 <next16>

000000c4 <val16>:
      c4:	7387aca6 	.word	0x7387aca6

000000c8 <next16>:
      c8:	e50d1004 	str	r1, [sp, #-4]
      cc:	e59f1000 	ldr	r1, [pc]	; d4 <val17>
      d0:	ea000000 	b	d8 <next17>

000000d4 <val17>:
      d4:	d042d221 	.word	0xd042d221

000000d8 <next17>:
      d8:	e50d1008 	str	r1, [sp, #-8]
      dc:	e59f1000 	ldr	r1, [pc]	; e4 <val18>
      e0:	ea000000 	b	e8 <next18>

000000e4 <val18>:
      e4:	c08b0a52 	.word	0xc08b0a52

000000e8 <next18>:
      e8:	e50d100c 	str	r1, [sp, #-12]
      ec:	e59f1000 	ldr	r1, [pc]	; f4 <val19>
      f0:	ea000000 	b	f8 <next19>

000000f4 <val19>:
      f4:	dff2a7f3 	.word	0xdff2a7f3

000000f8 <next19>:
      f8:	e50d1010 	str	r1, [sp, #-16]
      fc:	e59f1000 	ldr	r1, [pc]	; 104 <val20>
     100:	ea000000 	b	108 <next20>

00000104 <val20>:
     104:	278a351d 	.word	0x278a351d

00000108 <next20>:
     108:	e50d1014 	str	r1, [sp, #-20]
     10c:	e59f1000 	ldr	r1, [pc]	; 114 <val21>
     110:	ea000000 	b	118 <next21>

00000114 <val21>:
     114:	5260af71 	.word	0x5260af71

00000118 <next21>:
     118:	e50d1018 	str	r1, [sp, #-24]
     11c:	e59f1000 	ldr	r1, [pc]	; 124 <val22>
     120:	ea000000 	b	128 <next22>

00000124 <val22>:
     124:	220742c6 	.word	0x220742c6

00000128 <next22>:
     128:	e50d101c 	str	r1, [sp, #-28]
     12c:	e59f1000 	ldr	r1, [pc]	; 134 <val23>
     130:	ea000000 	b	138 <next23>

00000134 <val23>:
     134:	b94ae84c 	.word	0xb94ae84c

00000138 <next23>:
     138:	e50d1020 	str	r1, [sp, #-32]
     13c:	e59f1000 	ldr	r1, [pc]	; 144 <val24>
     140:	ea000000 	b	148 <next24>

00000144 <val24>:
     144:	9588b298 	.word	0x9588b298

00000148 <next24>:
     148:	e50d1024 	str	r1, [sp, #-36]	; 0x24
     14c:	e59f1000 	ldr	r1, [pc]	; 154 <val25>
     150:	ea000000 	b	158 <next25>

00000154 <val25>:
     154:	24f3a05e 	.word	0x24f3a05e

00000158 <next25>:
     158:	e50d1028 	str	r1, [sp, #-40]	; 0x28
     15c:	e59f1000 	ldr	r1, [pc]	; 164 <val26>
     160:	ea000000 	b	168 <next26>

00000164 <val26>:
     164:	b751b7fd 	.word	0xb751b7fd

00000168 <next26>:
     168:	e50d102c 	str	r1, [sp, #-44]	; 0x2c
     16c:	e59f1000 	ldr	r1, [pc]	; 174 <val27>
     170:	ea000000 	b	178 <next27>

00000174 <val27>:
     174:	e534a579 	.word	0xe534a579

00000178 <next27>:
     178:	e50d1030 	str	r1, [sp, #-48]	; 0x30
     17c:	e59f1000 	ldr	r1, [pc]	; 184 <val28>
     180:	ea000000 	b	188 <next28>

00000184 <val28>:
     184:	053ad6dc 	.word	0x053ad6dc

00000188 <next28>:
     188:	e50d1034 	str	r1, [sp, #-52]	; 0x34
     18c:	e59f1000 	ldr	r1, [pc]	; 194 <val29>
     190:	ea000000 	b	198 <next29>

00000194 <val29>:
     194:	a5bcce32 	.word	0xa5bcce32

00000198 <next29>:
     198:	e50d1038 	str	r1, [sp, #-56]	; 0x38
     19c:	e59f1000 	ldr	r1, [pc]	; 1a4 <val30>
     1a0:	ea000000 	b	1a8 <next30>

000001a4 <val30>:
     1a4:	cedd5160 	.word	0xcedd5160

000001a8 <next30>:
     1a8:	e50d103c 	str	r1, [sp, #-60]	; 0x3c
     1ac:	e59f1000 	ldr	r1, [pc]	; 1b4 <val31>
     1b0:	ea000000 	b	1b8 <next31>

000001b4 <val31>:
     1b4:	057e2d6a 	.word	0x057e2d6a

000001b8 <next31>:
     1b8:	e50d1040 	str	r1, [sp, #-64]	; 0x40
     1bc:	e59f1000 	ldr	r1, [pc]	; 1c4 <val32>
     1c0:	ea000000 	b	1c8 <next32>

000001c4 <val32>:
     1c4:	8cf776f3 	.word	0x8cf776f3

000001c8 <next32>:
     1c8:	e50d1044 	str	r1, [sp, #-68]	; 0x44
     1cc:	e59f1000 	ldr	r1, [pc]	; 1d4 <val33>
     1d0:	ea000000 	b	1d8 <next33>

000001d4 <val33>:
     1d4:	d45e44d5 	.word	0xd45e44d5

000001d8 <next33>:
     1d8:	e50d1048 	str	r1, [sp, #-72]	; 0x48
     1dc:	e59f1000 	ldr	r1, [pc]	; 1e4 <val34>
     1e0:	ea000000 	b	1e8 <next34>

000001e4 <val34>:
     1e4:	ffdcfb0e 	.word	0xffdcfb0e

000001e8 <next34>:
     1e8:	e50d104c 	str	r1, [sp, #-76]	; 0x4c
     1ec:	e59f1000 	ldr	r1, [pc]	; 1f4 <val35>
     1f0:	ea000000 	b	1f8 <next35>

000001f4 <val35>:
     1f4:	b8911dd3 	.word	0xb8911dd3

000001f8 <next35>:
     1f8:	e50d1050 	str	r1, [sp, #-80]	; 0x50

000001fc <l1>:
     1fc:	91570825 	cmpls	r7, r5, lsr #16

00000200 <l2>:
     200:	b1500dc6 	cmplt	r0, r6, asr #27

00000204 <l3>:
     204:	11550650 	cmpne	r5, r0, asr r6

00000208 <l4>:
     208:	735b0233 	cmpvc	fp, #805306371	; 0x30000003

0000020c <l5>:
     20c:	c15a000a 	cmpgt	sl, sl

00000210 <l6>:
     210:	e3540eb2 	cmp	r4, #2848	; 0xb20

00000214 <l7>:
     214:	71540c36 	cmpvc	r4, r6, lsr ip

00000218 <l8>:
     218:	31540004 	cmpcc	r4, r4

0000021c <l9>:
     21c:	41520c52 	cmpmi	r2, r2, asr ip

00000220 <l10>:
     220:	e354031a 	cmp	r4, #1744830464	; 0x68000000

00000224 <l11>:
     224:	b15703c9 	cmplt	r7, r9, asr #7

00000228 <l12>:
     228:	01570068 	cmpeq	r7, r8, rrx

0000022c <l13>:
     22c:	a1540917 	cmpge	r4, r7, lsl r9

00000230 <l14>:
     230:	e15b0007 	cmp	fp, r7

00000234 <l15>:
     234:	e1560008 	cmp	r6, r8

00000238 <l16>:
     238:	e15c0b77 	cmp	ip, r7, ror fp

0000023c <l17>:
     23c:	e15f0001 	cmp	pc, r1

00000240 <l18>:
     240:	e35b072d 	cmp	fp, #11796480	; 0xb40000

00000244 <l19>:
     244:	e351050a 	cmp	r1, #41943040	; 0x2800000

00000248 <l20>:
     248:	e15f0f0e 	cmp	pc, lr, lsl #30

0000024c <l21>:
     24c:	03530fb3 	cmpeq	r3, #716	; 0x2cc

00000250 <l22>:
     250:	81560002 	cmphi	r6, r2

00000254 <l23>:
     254:	d159000e 	cmple	r9, lr

00000258 <l24>:
     258:	d35604d7 	cmple	r6, #-687865856	; 0xd7000000

0000025c <l25>:
     25c:	e1540069 	cmp	r4, r9, rrx

00000260 <l26>:
     260:	e158000a 	cmp	r8, sl

00000264 <l27>:
     264:	21590203 	cmpcs	r9, r3, lsl #4

00000268 <l28>:
     268:	815a0355 	cmphi	sl, r5, asr r3

0000026c <l29>:
     26c:	41520060 	cmpmi	r2, r0, rrx

00000270 <l30>:
     270:	c1510000 	cmpgt	r1, r0

00000274 <l31>:
     274:	d35f01bb 	cmple	pc, #-1073741778	; 0xc000002e

00000278 <l32>:
     278:	a15e0005 	cmpge	lr, r5

0000027c <l33>:
     27c:	c1560003 	cmpgt	r6, r3

00000280 <l34>:
     280:	735c02e7 	cmpvc	ip, #1879048206	; 0x7000000e

00000284 <l35>:
     284:	c3560382 	cmpgt	r6, #134217730	; 0x8000002

00000288 <l36>:
     288:	e159093e 	cmp	r9, lr, lsr r9

0000028c <l37>:
     28c:	53560c53 	cmppl	r6, #21248	; 0x5300

00000290 <l38>:
     290:	115106c1 	cmpne	r1, r1, asr #13

00000294 <l39>:
     294:	0157015a 	cmpeq	r7, sl, asr r1

00000298 <l40>:
     298:	e1550c18 	cmp	r5, r8, lsl ip

0000029c <l41>:
     29c:	41570677 	cmpmi	r7, r7, ror r6

000002a0 <l42>:
     2a0:	e3560ffb 	cmp	r6, #1004	; 0x3ec

000002a4 <l43>:
     2a4:	61540931 	cmpvs	r4, r1, lsr r9

000002a8 <l44>:
     2a8:	e150000a 	cmp	r0, sl

000002ac <l45>:
     2ac:	e3570d26 	cmp	r7, #2432	; 0x980

000002b0 <l46>:
     2b0:	a35a0c2e 	cmpge	sl, #11776	; 0x2e00

000002b4 <l47>:
     2b4:	e1550bc3 	cmp	r5, r3, asr #23

000002b8 <l48>:
     2b8:	435507f1 	cmpmi	r5, #63176704	; 0x3c40000

000002bc <l49>:
     2bc:	015f0061 	cmpeq	pc, r1, rrx

000002c0 <l50>:
     2c0:	e155000e 	cmp	r5, lr

000002c4 <l51>:
     2c4:	71570639 	cmpvc	r7, r9, lsr r6

000002c8 <l52>:
     2c8:	b358062b 	cmplt	r8, #45088768	; 0x2b00000

000002cc <l53>:
     2cc:	e15c08c3 	cmp	ip, r3, asr #17

000002d0 <l54>:
     2d0:	91550577 	cmpls	r5, r7, ror r5

000002d4 <l55>:
     2d4:	21530061 	cmpcs	r3, r1, rrx

000002d8 <l56>:
     2d8:	e1590006 	cmp	r9, r6

000002dc <l57>:
     2dc:	e15208c3 	cmp	r2, r3, asr #17

000002e0 <l58>:
     2e0:	e15c07c6 	cmp	ip, r6, asr #15

000002e4 <l59>:
     2e4:	e15a0970 	cmp	sl, r0, ror r9

000002e8 <l60>:
     2e8:	51530060 	cmppl	r3, r0, rrx

000002ec <l61>:
     2ec:	91570b54 	cmpls	r7, r4, asr fp

000002f0 <l62>:
     2f0:	e1510de2 	cmp	r1, r2, ror #27

000002f4 <l63>:
     2f4:	e3550779 	cmp	r5, #31719424	; 0x1e40000

000002f8 <l64>:
     2f8:	e15c0f41 	cmp	ip, r1, asr #30

000002fc <l65>:
     2fc:	c3530c99 	cmpgt	r3, #39168	; 0x9900

00000300 <l66>:
     300:	e15a0989 	cmp	sl, r9, lsl #19

00000304 <l67>:
     304:	115e000e 	cmpne	lr, lr

00000308 <l68>:
     308:	235e06cf 	cmpcs	lr, #217055232	; 0xcf00000

0000030c <l69>:
     30c:	a15e026c 	cmpge	lr, ip, ror #4

00000310 <l70>:
     310:	01510006 	cmpeq	r1, r6

00000314 <l71>:
     314:	81540f89 	cmphi	r4, r9, lsl #31

00000318 <l72>:
     318:	c1510c3b 	cmpgt	r1, fp, lsr ip

0000031c <l73>:
     31c:	e3560502 	cmp	r6, #8388608	; 0x800000

00000320 <l74>:
     320:	e155000a 	cmp	r5, sl

00000324 <l75>:
     324:	e154006b 	cmp	r4, fp, rrx

00000328 <l76>:
     328:	615e000e 	cmpvs	lr, lr

0000032c <l77>:
     32c:	e1580a15 	cmp	r8, r5, lsl sl

00000330 <l78>:
     330:	e15e000c 	cmp	lr, ip

00000334 <l79>:
     334:	e3530223 	cmp	r3, #805306370	; 0x30000002

00000338 <l80>:
     338:	b155000f 	cmplt	r5, pc

0000033c <l81>:
     33c:	735e0a35 	cmpvc	lr, #217088	; 0x35000

00000340 <l82>:
     340:	b15b0060 	cmplt	fp, r0, rrx

00000344 <l83>:
     344:	e1580953 	cmp	r8, r3, asr r9

00000348 <l84>:
     348:	e153041c 	cmp	r3, ip, lsl r4

0000034c <l85>:
     34c:	a35c063a 	cmpge	ip, #60817408	; 0x3a00000

00000350 <l86>:
     350:	e35a031a 	cmp	sl, #1744830464	; 0x68000000

00000354 <l87>:
     354:	b15a06ef 	cmplt	sl, pc, ror #13

00000358 <l88>:
     358:	035f0e1e 	cmpeq	pc, #480	; 0x1e0

0000035c <l89>:
     35c:	e1540416 	cmp	r4, r6, lsl r4

00000360 <l90>:
     360:	a354062e 	cmpge	r4, #48234496	; 0x2e00000

00000364 <l91>:
     364:	e1500158 	cmp	r0, r8, asr r1

00000368 <l92>:
     368:	c1530a16 	cmpgt	r3, r6, lsl sl

0000036c <l93>:
     36c:	e1520e70 	cmp	r2, r0, ror lr

00000370 <l94>:
     370:	d1560ee4 	cmple	r6, r4, ror #29

00000374 <l95>:
     374:	d1540007 	cmple	r4, r7

00000378 <l96>:
     378:	51580064 	cmppl	r8, r4, rrx

0000037c <l97>:
     37c:	e151015a 	cmp	r1, sl, asr r1

00000380 <l98>:
     380:	e3540826 	cmp	r4, #2490368	; 0x260000

00000384 <l99>:
     384:	835404a1 	cmphi	r4, #-1593835520	; 0xa1000000

00000388 <l100>:
     388:	e156000a 	cmp	r6, sl

0000038c <l101>:
     38c:	73580d42 	cmpvc	r8, #4224	; 0x1080

00000390 <l102>:
     390:	51590067 	cmppl	r9, r7, rrx

00000394 <l103>:
     394:	e3580213 	cmp	r8, #805306369	; 0x30000001

00000398 <l104>:
     398:	01550008 	cmpeq	r5, r8

0000039c <l105>:
     39c:	6153000b 	cmpvs	r3, fp

000003a0 <l106>:
     3a0:	c1500da2 	cmpgt	r0, r2, lsr #27

000003a4 <l107>:
     3a4:	31530b71 	cmpcc	r3, r1, ror fp

000003a8 <l108>:
     3a8:	e3530592 	cmp	r3, #612368384	; 0x24800000

000003ac <l109>:
     3ac:	e158062f 	cmp	r8, pc, lsr #12

000003b0 <l110>:
     3b0:	e158006f 	cmp	r8, pc, rrx

000003b4 <l111>:
     3b4:	41550277 	cmpmi	r5, r7, ror r2

000003b8 <l112>:
     3b8:	a1500233 	cmpge	r0, r3, lsr r2

000003bc <l113>:
     3bc:	e15f000e 	cmp	pc, lr

000003c0 <l114>:
     3c0:	51540065 	cmppl	r4, r5, rrx

000003c4 <l115>:
     3c4:	21530068 	cmpcs	r3, r8, rrx

000003c8 <l116>:
     3c8:	e1550008 	cmp	r5, r8

000003cc <l117>:
     3cc:	e15a0062 	cmp	sl, r2, rrx

000003d0 <l118>:
     3d0:	e1590c8e 	cmp	r9, lr, lsl #25

000003d4 <l119>:
     3d4:	e356060e 	cmp	r6, #14680064	; 0xe00000

000003d8 <l120>:
     3d8:	e1530006 	cmp	r3, r6

000003dc <l121>:
     3dc:	e1520738 	cmp	r2, r8, lsr r7

000003e0 <l122>:
     3e0:	e1530001 	cmp	r3, r1

000003e4 <l123>:
     3e4:	d1520c35 	cmple	r2, r5, lsr ip

000003e8 <l124>:
     3e8:	e1510fec 	cmp	r1, ip, ror #31

000003ec <l125>:
     3ec:	435b0712 	cmpmi	fp, #4718592	; 0x480000

000003f0 <l126>:
     3f0:	e35c061d 	cmp	ip, #30408704	; 0x1d00000

000003f4 <l127>:
     3f4:	e15b000b 	cmp	fp, fp

000003f8 <l128>:
     3f8:	a1560004 	cmpge	r6, r4

000003fc <l129>:
     3fc:	e1570039 	cmp	r7, r9, lsr r0

00000400 <l130>:
     400:	a15c000f 	cmpge	ip, pc

00000404 <l131>:
     404:	a1560209 	cmpge	r6, r9, lsl #4

00000408 <l132>:
     408:	9157052e 	cmpls	r7, lr, lsr #10

0000040c <l133>:
     40c:	e35c023b 	cmp	ip, #-1342177277	; 0xb0000003

00000410 <l134>:
     410:	e1590002 	cmp	r9, r2

00000414 <l135>:
     414:	015c0075 	cmpeq	ip, r5, ror r0

00000418 <l136>:
     418:	e1540916 	cmp	r4, r6, lsl r9

0000041c <l137>:
     41c:	a157021c 	cmpge	r7, ip, lsl r2

00000420 <l138>:
     420:	935a035e 	cmpls	sl, #2013265921	; 0x78000001

00000424 <l139>:
     424:	e1580077 	cmp	r8, r7, ror r0

00000428 <l140>:
     428:	e1560ecf 	cmp	r6, pc, asr #29

0000042c <l141>:
     42c:	e151091a 	cmp	r1, sl, lsl r9

00000430 <l142>:
     430:	51560007 	cmppl	r6, r7

00000434 <l143>:
     434:	73550beb 	cmpvc	r5, #240640	; 0x3ac00

00000438 <l144>:
     438:	e3500fa3 	cmp	r0, #652	; 0x28c

0000043c <l145>:
     43c:	b1520b1c 	cmplt	r2, ip, lsl fp

00000440 <l146>:
     440:	e35c0c56 	cmp	ip, #22016	; 0x5600

00000444 <l147>:
     444:	515b0062 	cmppl	fp, r2, rrx

00000448 <l148>:
     448:	415e0001 	cmpmi	lr, r1

0000044c <l149>:
     44c:	e15c0acb 	cmp	ip, fp, asr #21

00000450 <l150>:
     450:	e1590004 	cmp	r9, r4

00000454 <l151>:
     454:	e1520061 	cmp	r2, r1, rrx

00000458 <l152>:
     458:	a3530b2e 	cmpge	r3, #47104	; 0xb800

0000045c <l153>:
     45c:	a1570101 	cmpge	r7, r1, lsl #2

00000460 <l154>:
     460:	e15e0319 	cmp	lr, r9, lsl r3

00000464 <l155>:
     464:	e15207e0 	cmp	r2, r0, ror #15

00000468 <l156>:
     468:	e3580dcb 	cmp	r8, #12992	; 0x32c0

0000046c <l157>:
     46c:	e1590065 	cmp	r9, r5, rrx

00000470 <l158>:
     470:	c3500ad1 	cmpgt	r0, #856064	; 0xd1000

00000474 <l159>:
     474:	b1570066 	cmplt	r7, r6, rrx

00000478 <l160>:
     478:	e355051f 	cmp	r5, #130023424	; 0x7c00000

0000047c <l161>:
     47c:	515c0001 	cmppl	ip, r1

00000480 <l162>:
     480:	41510621 	cmpmi	r1, r1, lsr #12

00000484 <l163>:
     484:	91510005 	cmpls	r1, r5

00000488 <l164>:
     488:	815104ae 	cmphi	r1, lr, lsr #9

0000048c <l165>:
     48c:	b156000f 	cmplt	r6, pc

00000490 <l166>:
     490:	31590a52 	cmpcc	r9, r2, asr sl

00000494 <l167>:
     494:	d351090f 	cmple	r1, #245760	; 0x3c000

00000498 <l168>:
     498:	e15e000a 	cmp	lr, sl

0000049c <l169>:
     49c:	315b000c 	cmpcc	fp, ip

000004a0 <l170>:
     4a0:	e35e01cf 	cmp	lr, #-1073741773	; 0xc0000033

000004a4 <l171>:
     4a4:	8356097b 	cmphi	r6, #2015232	; 0x1ec000

000004a8 <l172>:
     4a8:	c15b043c 	cmpgt	fp, ip, lsr r4

000004ac <l173>:
     4ac:	c1550060 	cmpgt	r5, r0, rrx

000004b0 <l174>:
     4b0:	315208a9 	cmpcc	r2, r9, lsr #17

000004b4 <l175>:
     4b4:	e1500c7e 	cmp	r0, lr, ror ip

000004b8 <l176>:
     4b8:	a1540235 	cmpge	r4, r5, lsr r2

000004bc <l177>:
     4bc:	21550009 	cmpcs	r5, r9

000004c0 <l178>:
     4c0:	e15b0000 	cmp	fp, r0

000004c4 <l179>:
     4c4:	e1590003 	cmp	r9, r3

000004c8 <l180>:
     4c8:	b15706ee 	cmplt	r7, lr, ror #13

000004cc <l181>:
     4cc:	8155000e 	cmphi	r5, lr

000004d0 <l182>:
     4d0:	e3530305 	cmp	r3, #335544320	; 0x14000000

000004d4 <l183>:
     4d4:	915b0747 	cmpls	fp, r7, asr #14

000004d8 <l184>:
     4d8:	d15e006c 	cmple	lr, ip, rrx

000004dc <l185>:
     4dc:	c3510ec3 	cmpgt	r1, #3120	; 0xc30

000004e0 <l186>:
     4e0:	e3580d1a 	cmp	r8, #1664	; 0x680

000004e4 <l187>:
     4e4:	e1570b57 	cmp	r7, r7, asr fp

000004e8 <l188>:
     4e8:	e1590066 	cmp	r9, r6, rrx

000004ec <l189>:
     4ec:	e1550962 	cmp	r5, r2, ror #18

000004f0 <l190>:
     4f0:	d15e0014 	cmple	lr, r4, lsl r0

000004f4 <l191>:
     4f4:	815c0008 	cmphi	ip, r8

000004f8 <l192>:
     4f8:	e153000e 	cmp	r3, lr

000004fc <l193>:
     4fc:	c3550a75 	cmpgt	r5, #479232	; 0x75000

00000500 <l194>:
     500:	915c0253 	cmpls	ip, r3, asr r2

00000504 <l195>:
     504:	b15c006c 	cmplt	ip, ip, rrx

00000508 <l196>:
     508:	e1590e75 	cmp	r9, r5, ror lr

0000050c <l197>:
     50c:	d15b0001 	cmple	fp, r1

00000510 <l198>:
     510:	a15c01a6 	cmpge	ip, r6, lsr #3

00000514 <l199>:
     514:	53520d82 	cmppl	r2, #8320	; 0x2080

00000518 <l200>:
     518:	13520186 	cmpne	r2, #-2147483615	; 0x80000021

0000051c <l201>:
     51c:	135c08ff 	cmpne	ip, #16711680	; 0xff0000

00000520 <l202>:
     520:	915a0001 	cmpls	sl, r1

00000524 <l203>:
     524:	61540a84 	cmpvs	r4, r4, lsl #21

00000528 <l204>:
     528:	e15a0009 	cmp	sl, r9

0000052c <l205>:
     52c:	115a0712 	cmpne	sl, r2, lsl r7

00000530 <l206>:
     530:	61520b3b 	cmpvs	r2, fp, lsr fp

00000534 <l207>:
     534:	b15e000a 	cmplt	lr, sl

00000538 <l208>:
     538:	e1530627 	cmp	r3, r7, lsr #12

0000053c <l209>:
     53c:	e3570c1b 	cmp	r7, #6912	; 0x1b00

00000540 <l210>:
     540:	e35b0a02 	cmp	fp, #8192	; 0x2000

00000544 <l211>:
     544:	e154000e 	cmp	r4, lr

00000548 <l212>:
     548:	e35f0973 	cmp	pc, #1884160	; 0x1cc000

0000054c <l213>:
     54c:	e15e0066 	cmp	lr, r6, rrx

00000550 <l214>:
     550:	a15f0e01 	cmpge	pc, r1, lsl #28

00000554 <l215>:
     554:	e1590065 	cmp	r9, r5, rrx

00000558 <l216>:
     558:	e155045e 	cmp	r5, lr, asr r4

0000055c <l217>:
     55c:	815c087e 	cmphi	ip, lr, ror r8

00000560 <l218>:
     560:	61540476 	cmpvs	r4, r6, ror r4

00000564 <l219>:
     564:	e1540e31 	cmp	r4, r1, lsr lr

00000568 <l220>:
     568:	e1510067 	cmp	r1, r7, rrx

0000056c <l221>:
     56c:	31520006 	cmpcc	r2, r6

00000570 <l222>:
     570:	b35e069d 	cmplt	lr, #164626432	; 0x9d00000

00000574 <l223>:
     574:	81560233 	cmphi	r6, r3, lsr r2

00000578 <l224>:
     578:	e3520525 	cmp	r2, #155189248	; 0x9400000

0000057c <l225>:
     57c:	e1530001 	cmp	r3, r1

00000580 <l226>:
     580:	c1500e77 	cmpgt	r0, r7, ror lr

00000584 <l227>:
     584:	4154000a 	cmpmi	r4, sl

00000588 <l228>:
     588:	e3550ae3 	cmp	r5, #929792	; 0xe3000

0000058c <l229>:
     58c:	935a0ac3 	cmpls	sl, #798720	; 0xc3000

00000590 <l230>:
     590:	e15c0705 	cmp	ip, r5, lsl #14

00000594 <l231>:
     594:	e15a0006 	cmp	sl, r6

00000598 <l232>:
     598:	e1590710 	cmp	r9, r0, lsl r7

0000059c <l233>:
     59c:	c1550006 	cmpgt	r5, r6

000005a0 <l234>:
     5a0:	b357078f 	cmplt	r7, #37486592	; 0x23c0000

000005a4 <l235>:
     5a4:	335304be 	cmpcc	r3, #-1107296256	; 0xbe000000

000005a8 <l236>:
     5a8:	e15e0004 	cmp	lr, r4

000005ac <l237>:
     5ac:	1155000f 	cmpne	r5, pc

000005b0 <l238>:
     5b0:	735c0102 	cmpvc	ip, #-2147483648	; 0x80000000

000005b4 <l239>:
     5b4:	b15a0007 	cmplt	sl, r7

000005b8 <l240>:
     5b8:	61530000 	cmpvs	r3, r0

000005bc <l241>:
     5bc:	e1520001 	cmp	r2, r1

000005c0 <l242>:
     5c0:	71520478 	cmpvc	r2, r8, ror r4

000005c4 <l243>:
     5c4:	e15c0068 	cmp	ip, r8, rrx

000005c8 <l244>:
     5c8:	e35905ba 	cmp	r9, #780140544	; 0x2e800000

000005cc <l245>:
     5cc:	e154000e 	cmp	r4, lr

000005d0 <l246>:
     5d0:	63560221 	cmpvs	r6, #268435458	; 0x10000002

000005d4 <l247>:
     5d4:	71510003 	cmpvc	r1, r3

000005d8 <l248>:
     5d8:	8154006e 	cmphi	r4, lr, rrx

000005dc <l249>:
     5dc:	e15a000f 	cmp	sl, pc

000005e0 <l250>:
     5e0:	a35a0090 	cmpge	sl, #144	; 0x90

000005e4 <l251>:
     5e4:	71520008 	cmpvc	r2, r8

000005e8 <l252>:
     5e8:	015c035c 	cmpeq	ip, ip, asr r3

000005ec <l253>:
     5ec:	e35b0b25 	cmp	fp, #37888	; 0x9400

000005f0 <l254>:
     5f0:	b1550e6e 	cmplt	r5, lr, ror #28

000005f4 <l255>:
     5f4:	315c0005 	cmpcc	ip, r5

000005f8 <l256>:
     5f8:	e15e0004 	cmp	lr, r4

000005fc <l257>:
     5fc:	61520002 	cmpvs	r2, r2

00000600 <l258>:
     600:	015302c3 	cmpeq	r3, r3, asr #5

00000604 <l259>:
     604:	c1500834 	cmpgt	r0, r4, lsr r8

00000608 <l260>:
     608:	435b041f 	cmpmi	fp, #520093696	; 0x1f000000

0000060c <l261>:
     60c:	a35e0861 	cmpge	lr, #6356992	; 0x610000

00000610 <l262>:
     610:	33590dcf 	cmpcc	r9, #13248	; 0x33c0

00000614 <l263>:
     614:	81520012 	cmphi	r2, r2, lsl r0

00000618 <l264>:
     618:	31570038 	cmpcc	r7, r8, lsr r0

0000061c <l265>:
     61c:	21550000 	cmpcs	r5, r0

00000620 <l266>:
     620:	61530c59 	cmpvs	r3, r9, asr ip

00000624 <l267>:
     624:	01580b6b 	cmpeq	r8, fp, ror #22

00000628 <l268>:
     628:	035a045d 	cmpeq	sl, #1560281088	; 0x5d000000

0000062c <l269>:
     62c:	a157000f 	cmpge	r7, pc

00000630 <l270>:
     630:	515603c1 	cmppl	r6, r1, asr #7

00000634 <l271>:
     634:	61510008 	cmpvs	r1, r8

00000638 <l272>:
     638:	e1580007 	cmp	r8, r7

0000063c <l273>:
     63c:	315f0440 	cmpcc	pc, r0, asr #8

00000640 <l274>:
     640:	715a0e14 	cmpvc	sl, r4, lsl lr

00000644 <l275>:
     644:	91520065 	cmpls	r2, r5, rrx

00000648 <l276>:
     648:	d152006c 	cmple	r2, ip, rrx

0000064c <l277>:
     64c:	61510c64 	cmpvs	r1, r4, ror #24

00000650 <l278>:
     650:	e15e07e3 	cmp	lr, r3, ror #15

00000654 <l279>:
     654:	935e0c07 	cmpls	lr, #1792	; 0x700

00000658 <l280>:
     658:	a35507c3 	cmpge	r5, #51118080	; 0x30c0000

0000065c <l281>:
     65c:	e159000e 	cmp	r9, lr

00000660 <l282>:
     660:	31590005 	cmpcc	r9, r5

00000664 <l283>:
     664:	e1520007 	cmp	r2, r7

00000668 <l284>:
     668:	e15c000f 	cmp	ip, pc

0000066c <l285>:
     66c:	e15e0279 	cmp	lr, r9, ror r2

00000670 <l286>:
     670:	e35608d5 	cmp	r6, #13959168	; 0xd50000

00000674 <l287>:
     674:	a150006f 	cmpge	r0, pc, rrx

00000678 <l288>:
     678:	9156000b 	cmpls	r6, fp

0000067c <l289>:
     67c:	8156094b 	cmphi	r6, fp, asr #18

00000680 <l290>:
     680:	e3590716 	cmp	r9, #5767168	; 0x580000

00000684 <l291>:
     684:	a1510104 	cmpge	r1, r4, lsl #2

00000688 <l292>:
     688:	c15f0084 	cmpgt	pc, r4, lsl #1

0000068c <l293>:
     68c:	115704ec 	cmpne	r7, ip, ror #9

00000690 <l294>:
     690:	b3580c2e 	cmplt	r8, #11776	; 0x2e00

00000694 <l295>:
     694:	11590750 	cmpne	r9, r0, asr r7

00000698 <l296>:
     698:	e158000e 	cmp	r8, lr

0000069c <l297>:
     69c:	e35b085b 	cmp	fp, #5963776	; 0x5b0000

000006a0 <l298>:
     6a0:	81520066 	cmphi	r2, r6, rrx

000006a4 <l299>:
     6a4:	315b0f23 	cmpcc	fp, r3, lsr #30

000006a8 <l300>:
     6a8:	e157006a 	cmp	r7, sl, rrx

000006ac <l301>:
     6ac:	e35408c2 	cmp	r4, #12713984	; 0xc20000

000006b0 <l302>:
     6b0:	415f000b 	cmpmi	pc, fp

000006b4 <l303>:
     6b4:	c3530002 	cmpgt	r3, #2

000006b8 <l304>:
     6b8:	c1550a18 	cmpgt	r5, r8, lsl sl

000006bc <l305>:
     6bc:	31560006 	cmpcc	r6, r6

000006c0 <l306>:
     6c0:	315c0003 	cmpcc	ip, r3

000006c4 <l307>:
     6c4:	e15a0637 	cmp	sl, r7, lsr r6

000006c8 <l308>:
     6c8:	51510c39 	cmppl	r1, r9, lsr ip

000006cc <l309>:
     6cc:	e15a0481 	cmp	sl, r1, lsl #9

000006d0 <l310>:
     6d0:	315c08c1 	cmpcc	ip, r1, asr #17

000006d4 <l311>:
     6d4:	e35b0426 	cmp	fp, #637534208	; 0x26000000

000006d8 <l312>:
     6d8:	a15e0411 	cmpge	lr, r1, lsl r4

000006dc <l313>:
     6dc:	615f0069 	cmpvs	pc, r9, rrx

000006e0 <l314>:
     6e0:	81530000 	cmphi	r3, r0

000006e4 <l315>:
     6e4:	b35c063b 	cmplt	ip, #61865984	; 0x3b00000

000006e8 <l316>:
     6e8:	01530d0b 	cmpeq	r3, fp, lsl #26

000006ec <l317>:
     6ec:	4356076b 	cmpmi	r6, #28049408	; 0x1ac0000

000006f0 <l318>:
     6f0:	21520aa9 	cmpcs	r2, r9, lsr #21

000006f4 <l319>:
     6f4:	835e08f3 	cmphi	lr, #15925248	; 0xf30000

000006f8 <l320>:
     6f8:	e35602ef 	cmp	r6, #-268435442	; 0xf000000e

000006fc <l321>:
     6fc:	e156016b 	cmp	r6, fp, ror #2

00000700 <l322>:
     700:	e1510638 	cmp	r1, r8, lsr r6

00000704 <l323>:
     704:	e35c0267 	cmp	ip, #1879048198	; 0x70000006

00000708 <l324>:
     708:	e1590930 	cmp	r9, r0, lsr r9

0000070c <l325>:
     70c:	e15c000a 	cmp	ip, sl

00000710 <l326>:
     710:	41570b1a 	cmpmi	r7, sl, lsl fp

00000714 <l327>:
     714:	43510f93 	cmpmi	r1, #588	; 0x24c

00000718 <l328>:
     718:	1156033e 	cmpne	r6, lr, lsr r3

0000071c <l329>:
     71c:	015c0082 	cmpeq	ip, r2, lsl #1

00000720 <l330>:
     720:	a35305e9 	cmpge	r3, #977272832	; 0x3a400000

00000724 <l331>:
     724:	e1500135 	cmp	r0, r5, lsr r1

00000728 <l332>:
     728:	21590932 	cmpcs	r9, r2, lsr r9

0000072c <l333>:
     72c:	e15a0303 	cmp	sl, r3, lsl #6

00000730 <l334>:
     730:	e15c0251 	cmp	ip, r1, asr r2

00000734 <l335>:
     734:	d1590004 	cmple	r9, r4

00000738 <l336>:
     738:	415a0e1b 	cmpmi	sl, fp, lsl lr

0000073c <l337>:
     73c:	e154077c 	cmp	r4, ip, ror r7

00000740 <l338>:
     740:	a35b04e5 	cmpge	fp, #-452984832	; 0xe5000000

00000744 <l339>:
     744:	e35201c1 	cmp	r2, #1073741872	; 0x40000030

00000748 <l340>:
     748:	c1550004 	cmpgt	r5, r4

0000074c <l341>:
     74c:	71580060 	cmpvc	r8, r0, rrx

00000750 <l342>:
     750:	e15a0003 	cmp	sl, r3

00000754 <l343>:
     754:	e1540329 	cmp	r4, r9, lsr #6

00000758 <l344>:
     758:	7154006c 	cmpvc	r4, ip, rrx

0000075c <l345>:
     75c:	01540871 	cmpeq	r4, r1, ror r8

00000760 <l346>:
     760:	e156081b 	cmp	r6, fp, lsl r8

00000764 <l347>:
     764:	b35f00c9 	cmplt	pc, #201	; 0xc9

00000768 <l348>:
     768:	e3530b63 	cmp	r3, #101376	; 0x18c00

0000076c <l349>:
     76c:	615a05e7 	cmpvs	sl, r7, ror #11

00000770 <l350>:
     770:	c1560061 	cmpgt	r6, r1, rrx

00000774 <l351>:
     774:	b15c0371 	cmplt	ip, r1, ror r3

00000778 <l352>:
     778:	e159006f 	cmp	r9, pc, rrx

0000077c <l353>:
     77c:	715807a2 	cmpvc	r8, r2, lsr #15

00000780 <l354>:
     780:	31500dc8 	cmpcc	r0, r8, asr #27

00000784 <l355>:
     784:	e1580ac9 	cmp	r8, r9, asr #21

00000788 <l356>:
     788:	e15f000b 	cmp	pc, fp

0000078c <l357>:
     78c:	11550002 	cmpne	r5, r2

00000790 <l358>:
     790:	715e0068 	cmpvc	lr, r8, rrx

00000794 <l359>:
     794:	e156000a 	cmp	r6, sl

00000798 <l360>:
     798:	b1510007 	cmplt	r1, r7

0000079c <l361>:
     79c:	d1570009 	cmple	r7, r9

000007a0 <l362>:
     7a0:	e1520c31 	cmp	r2, r1, lsr ip

000007a4 <l363>:
     7a4:	c3560a35 	cmpgt	r6, #217088	; 0x35000

000007a8 <l364>:
     7a8:	e15e0f01 	cmp	lr, r1, lsl #30

000007ac <l365>:
     7ac:	e3570f8a 	cmp	r7, #552	; 0x228

000007b0 <l366>:
     7b0:	e1510063 	cmp	r1, r3, rrx

000007b4 <l367>:
     7b4:	61540002 	cmpvs	r4, r2

000007b8 <l368>:
     7b8:	e15303a2 	cmp	r3, r2, lsr #7

000007bc <l369>:
     7bc:	d3540e1a 	cmple	r4, #416	; 0x1a0

000007c0 <l370>:
     7c0:	535e04ba 	cmppl	lr, #-1174405120	; 0xba000000

000007c4 <l371>:
     7c4:	e35e0c01 	cmp	lr, #256	; 0x100

000007c8 <l372>:
     7c8:	71570274 	cmpvc	r7, r4, ror r2

000007cc <l373>:
     7cc:	5155000e 	cmppl	r5, lr

000007d0 <l374>:
     7d0:	e15a006b 	cmp	sl, fp, rrx

000007d4 <l375>:
     7d4:	23550945 	cmpcs	r5, #1130496	; 0x114000

000007d8 <l376>:
     7d8:	e35b0ff6 	cmp	fp, #984	; 0x3d8

000007dc <l377>:
     7dc:	c159000b 	cmpgt	r9, fp

000007e0 <l378>:
     7e0:	e35b092b 	cmp	fp, #704512	; 0xac000

000007e4 <l379>:
     7e4:	31570216 	cmpcc	r7, r6, lsl r2

000007e8 <l380>:
     7e8:	23590c75 	cmpcs	r9, #29952	; 0x7500

000007ec <l381>:
     7ec:	41520006 	cmpmi	r2, r6

000007f0 <l382>:
     7f0:	e1540933 	cmp	r4, r3, lsr r9

000007f4 <l383>:
     7f4:	e155035b 	cmp	r5, fp, asr r3

000007f8 <l384>:
     7f8:	415e0b12 	cmpmi	lr, r2, lsl fp

000007fc <l385>:
     7fc:	2159091c 	cmpcs	r9, ip, lsl r9

00000800 <l386>:
     800:	e1500003 	cmp	r0, r3

00000804 <l387>:
     804:	31590008 	cmpcc	r9, r8

00000808 <l388>:
     808:	915a0874 	cmpls	sl, r4, ror r8

0000080c <l389>:
     80c:	e1510068 	cmp	r1, r8, rrx

00000810 <l390>:
     810:	81580635 	cmphi	r8, r5, lsr r6

00000814 <l391>:
     814:	e15a0e35 	cmp	sl, r5, lsr lr

00000818 <l392>:
     818:	e1550067 	cmp	r5, r7, rrx

0000081c <l393>:
     81c:	e15c0084 	cmp	ip, r4, lsl #1

00000820 <l394>:
     820:	c150006a 	cmpgt	r0, sl, rrx

00000824 <l395>:
     824:	e15b000b 	cmp	fp, fp

00000828 <l396>:
     828:	7155006f 	cmpvc	r5, pc, rrx

0000082c <l397>:
     82c:	d1540005 	cmple	r4, r5

00000830 <l398>:
     830:	c3540fee 	cmpgt	r4, #952	; 0x3b8

00000834 <l399>:
     834:	53500205 	cmppl	r0, #1342177280	; 0x50000000

00000838 <l400>:
     838:	31530fc7 	cmpcc	r3, r7, asr #31

0000083c <l401>:
     83c:	e1530ce2 	cmp	r3, r2, ror #25

00000840 <l402>:
     840:	83590e4d 	cmphi	r9, #1232	; 0x4d0

00000844 <l403>:
     844:	e1530000 	cmp	r3, r0

00000848 <l404>:
     848:	e1580003 	cmp	r8, r3

0000084c <l405>:
     84c:	71590061 	cmpvc	r9, r1, rrx

00000850 <l406>:
     850:	91590b8f 	cmpls	r9, pc, lsl #23

00000854 <l407>:
     854:	e1570512 	cmp	r7, r2, lsl r5

00000858 <l408>:
     858:	e15f048b 	cmp	pc, fp, lsl #9

0000085c <l409>:
     85c:	915e0b12 	cmpls	lr, r2, lsl fp

00000860 <l410>:
     860:	43520306 	cmpmi	r2, #402653184	; 0x18000000

00000864 <l411>:
     864:	615c0062 	cmpvs	ip, r2, rrx

00000868 <l412>:
     868:	11530902 	cmpne	r3, r2, lsl #18

0000086c <l413>:
     86c:	e3570835 	cmp	r7, #3473408	; 0x350000

00000870 <l414>:
     870:	01570000 	cmpeq	r7, r0

00000874 <l415>:
     874:	e352059b 	cmp	r2, #650117120	; 0x26c00000

00000878 <l416>:
     878:	91500006 	cmpls	r0, r6

0000087c <l417>:
     87c:	515f006c 	cmppl	pc, ip, rrx

00000880 <l418>:
     880:	e15702ca 	cmp	r7, sl, asr #5

00000884 <l419>:
     884:	e15003a2 	cmp	r0, r2, lsr #7

00000888 <l420>:
     888:	01550e7b 	cmpeq	r5, fp, ror lr

0000088c <l421>:
     88c:	91510f42 	cmpls	r1, r2, asr #30

00000890 <l422>:
     890:	e1500c71 	cmp	r0, r1, ror ip

00000894 <l423>:
     894:	e1590009 	cmp	r9, r9

00000898 <l424>:
     898:	31560004 	cmpcc	r6, r4

0000089c <l425>:
     89c:	415e0219 	cmpmi	lr, r9, lsl r2

000008a0 <l426>:
     8a0:	e158031e 	cmp	r8, lr, lsl r3

000008a4 <l427>:
     8a4:	e15f0061 	cmp	pc, r1, rrx

000008a8 <l428>:
     8a8:	e3560722 	cmp	r6, #8912896	; 0x880000

000008ac <l429>:
     8ac:	a35a0056 	cmpge	sl, #86	; 0x56

000008b0 <l430>:
     8b0:	4156037a 	cmpmi	r6, sl, ror r3

000008b4 <l431>:
     8b4:	e3580b8f 	cmp	r8, #146432	; 0x23c00

000008b8 <l432>:
     8b8:	c35b0301 	cmpgt	fp, #67108864	; 0x4000000

000008bc <l433>:
     8bc:	9159000f 	cmpls	r9, pc

000008c0 <l434>:
     8c0:	915f0003 	cmpls	pc, r3

000008c4 <l435>:
     8c4:	115a006a 	cmpne	sl, sl, rrx

000008c8 <l436>:
     8c8:	93590601 	cmpls	r9, #1048576	; 0x100000

000008cc <l437>:
     8cc:	63520e3e 	cmpvs	r2, #992	; 0x3e0

000008d0 <l438>:
     8d0:	11510006 	cmpne	r1, r6

000008d4 <l439>:
     8d4:	4155006c 	cmpmi	r5, ip, rrx

000008d8 <l440>:
     8d8:	e1530479 	cmp	r3, r9, ror r4

000008dc <l441>:
     8dc:	e15c0a8e 	cmp	ip, lr, lsl #21

000008e0 <l442>:
     8e0:	415008a6 	cmpmi	r0, r6, lsr #17

000008e4 <l443>:
     8e4:	e3570596 	cmp	r7, #629145600	; 0x25800000

000008e8 <l444>:
     8e8:	91540236 	cmpls	r4, r6, lsr r2

000008ec <l445>:
     8ec:	e1500003 	cmp	r0, r3

000008f0 <l446>:
     8f0:	03530acb 	cmpeq	r3, #831488	; 0xcb000

000008f4 <l447>:
     8f4:	01500e87 	cmpeq	r0, r7, lsl #29

000008f8 <l448>:
     8f8:	e1540dc3 	cmp	r4, r3, asr #27

000008fc <l449>:
     8fc:	61520715 	cmpvs	r2, r5, lsl r7

00000900 <l450>:
     900:	315a0674 	cmpcc	sl, r4, ror r6

00000904 <l451>:
     904:	e154000a 	cmp	r4, sl

00000908 <l452>:
     908:	91550659 	cmpls	r5, r9, asr r6

0000090c <l453>:
     90c:	e3500109 	cmp	r0, #1073741826	; 0x40000002

00000910 <l454>:
     910:	e3550aa5 	cmp	r5, #675840	; 0xa5000

00000914 <l455>:
     914:	935b0d22 	cmpls	fp, #2176	; 0x880

00000918 <l456>:
     918:	815c0613 	cmphi	ip, r3, lsl r6

0000091c <l457>:
     91c:	e1560e7b 	cmp	r6, fp, ror lr

00000920 <l458>:
     920:	e35a062e 	cmp	sl, #48234496	; 0x2e00000

00000924 <l459>:
     924:	31560063 	cmpcc	r6, r3, rrx

00000928 <l460>:
     928:	11540071 	cmpne	r4, r1, ror r0

0000092c <l461>:
     92c:	c151000b 	cmpgt	r1, fp

00000930 <l462>:
     930:	c1530c76 	cmpgt	r3, r6, ror ip

00000934 <l463>:
     934:	e35e0a2f 	cmp	lr, #192512	; 0x2f000

00000938 <l464>:
     938:	51530008 	cmppl	r3, r8

0000093c <l465>:
     93c:	d1510e52 	cmple	r1, r2, asr lr

00000940 <l466>:
     940:	235e0077 	cmpcs	lr, #119	; 0x77

00000944 <l467>:
     944:	e15a034c 	cmp	sl, ip, asr #6

00000948 <l468>:
     948:	a1550fe2 	cmpge	r5, r2, ror #31

0000094c <l469>:
     94c:	e1530b53 	cmp	r3, r3, asr fp

00000950 <l470>:
     950:	315b0037 	cmpcc	fp, r7, lsr r0

00000954 <l471>:
     954:	d15a081a 	cmple	sl, sl, lsl r8

00000958 <l472>:
     958:	91530008 	cmpls	r3, r8

0000095c <l473>:
     95c:	21520006 	cmpcs	r2, r6

00000960 <l474>:
     960:	4157000f 	cmpmi	r7, pc

00000964 <l475>:
     964:	e15b0007 	cmp	fp, r7

00000968 <l476>:
     968:	e1510039 	cmp	r1, r9, lsr r0

0000096c <l477>:
     96c:	e15e006b 	cmp	lr, fp, rrx

00000970 <l478>:
     970:	81560002 	cmphi	r6, r2

00000974 <l479>:
     974:	41530217 	cmpmi	r3, r7, lsl r2

00000978 <l480>:
     978:	e15c0550 	cmp	ip, r0, asr r5

0000097c <l481>:
     97c:	e15407eb 	cmp	r4, fp, ror #15

00000980 <l482>:
     980:	e15a0914 	cmp	sl, r4, lsl r9

00000984 <l483>:
     984:	e15f0c28 	cmp	pc, r8, lsr #24

00000988 <l484>:
     988:	c1530c7a 	cmpgt	r3, sl, ror ip

0000098c <l485>:
     98c:	e15c0b39 	cmp	ip, r9, lsr fp

00000990 <l486>:
     990:	515b0063 	cmppl	fp, r3, rrx

00000994 <l487>:
     994:	e35f0e7e 	cmp	pc, #2016	; 0x7e0

00000998 <l488>:
     998:	c15c0aa8 	cmpgt	ip, r8, lsr #21

0000099c <l489>:
     99c:	415b006a 	cmpmi	fp, sl, rrx

000009a0 <l490>:
     9a0:	315a0000 	cmpcc	sl, r0

000009a4 <l491>:
     9a4:	e1550414 	cmp	r5, r4, lsl r4

000009a8 <l492>:
     9a8:	81570574 	cmphi	r7, r4, ror r5

000009ac <l493>:
     9ac:	61560215 	cmpvs	r6, r5, lsl r2

000009b0 <l494>:
     9b0:	e1580008 	cmp	r8, r8

000009b4 <l495>:
     9b4:	d15a0065 	cmple	sl, r5, rrx

000009b8 <l496>:
     9b8:	e15b0073 	cmp	fp, r3, ror r0

000009bc <l497>:
     9bc:	415f0003 	cmpmi	pc, r3

000009c0 <l498>:
     9c0:	815e090e 	cmphi	lr, lr, lsl #18

000009c4 <l499>:
     9c4:	e1530864 	cmp	r3, r4, ror #16

000009c8 <l500>:
     9c8:	9153000b 	cmpls	r3, fp

000009cc <l501>:
     9cc:	03520502 	cmpeq	r2, #8388608	; 0x800000

000009d0 <l502>:
     9d0:	815b0004 	cmphi	fp, r4

000009d4 <l503>:
     9d4:	215b07ea 	cmpcs	fp, sl, ror #15

000009d8 <l504>:
     9d8:	e1570001 	cmp	r7, r1

000009dc <l505>:
     9dc:	a15c0003 	cmpge	ip, r3

000009e0 <l506>:
     9e0:	e1510001 	cmp	r1, r1

000009e4 <l507>:
     9e4:	e3560037 	cmp	r6, #55	; 0x37

000009e8 <l508>:
     9e8:	e1530003 	cmp	r3, r3

000009ec <l509>:
     9ec:	01590002 	cmpeq	r9, r2

000009f0 <l510>:
     9f0:	e35b0a03 	cmp	fp, #12288	; 0x3000

000009f4 <l511>:
     9f4:	c1590e85 	cmpgt	r9, r5, lsl #29

000009f8 <l512>:
     9f8:	e15f000b 	cmp	pc, fp

000009fc <l513>:
     9fc:	615b0c70 	cmpvs	fp, r0, ror ip

00000a00 <l514>:
     a00:	e1540005 	cmp	r4, r5

00000a04 <l515>:
     a04:	e3500e1d 	cmp	r0, #464	; 0x1d0

00000a08 <l516>:
     a08:	e1510000 	cmp	r1, r0

00000a0c <l517>:
     a0c:	e150000f 	cmp	r0, pc

00000a10 <l518>:
     a10:	315c0455 	cmpcc	ip, r5, asr r4

00000a14 <l519>:
     a14:	53540e51 	cmppl	r4, #1296	; 0x510

00000a18 <l520>:
     a18:	e1570006 	cmp	r7, r6

00000a1c <l521>:
     a1c:	e1580614 	cmp	r8, r4, lsl r6

00000a20 <l522>:
     a20:	615c0b1a 	cmpvs	ip, sl, lsl fp

00000a24 <l523>:
     a24:	a15b0006 	cmpge	fp, r6

00000a28 <l524>:
     a28:	115e0000 	cmpne	lr, r0

00000a2c <l525>:
     a2c:	615b08a1 	cmpvs	fp, r1, lsr #17

00000a30 <l526>:
     a30:	e15905c9 	cmp	r9, r9, asr #11

00000a34 <l527>:
     a34:	e1540004 	cmp	r4, r4

00000a38 <l528>:
     a38:	7156018f 	cmpvc	r6, pc, lsl #3

00000a3c <l529>:
     a3c:	51590a37 	cmppl	r9, r7, lsr sl

00000a40 <l530>:
     a40:	91500e42 	cmpls	r0, r2, asr #28

00000a44 <l531>:
     a44:	e1520b3b 	cmp	r2, fp, lsr fp

00000a48 <l532>:
     a48:	e151000f 	cmp	r1, pc

00000a4c <l533>:
     a4c:	e1520009 	cmp	r2, r9

00000a50 <l534>:
     a50:	3356019f 	cmpcc	r6, #-1073741785	; 0xc0000027

00000a54 <l535>:
     a54:	415307e8 	cmpmi	r3, r8, ror #15

00000a58 <l536>:
     a58:	915601c3 	cmpls	r6, r3, asr #3

00000a5c <l537>:
     a5c:	d1500069 	cmple	r0, r9, rrx

00000a60 <l538>:
     a60:	c1540000 	cmpgt	r4, r0

00000a64 <l539>:
     a64:	61550c1b 	cmpvs	r5, fp, lsl ip

00000a68 <l540>:
     a68:	e155000c 	cmp	r5, ip

00000a6c <l541>:
     a6c:	23560000 	cmpcs	r6, #0

00000a70 <l542>:
     a70:	115e000b 	cmpne	lr, fp

00000a74 <l543>:
     a74:	935e0353 	cmpls	lr, #1275068417	; 0x4c000001

00000a78 <l544>:
     a78:	c1580002 	cmpgt	r8, r2

00000a7c <l545>:
     a7c:	21510000 	cmpcs	r1, r0

00000a80 <l546>:
     a80:	b351082d 	cmplt	r1, #2949120	; 0x2d0000

00000a84 <l547>:
     a84:	5154037a 	cmppl	r4, sl, ror r3

00000a88 <l548>:
     a88:	e1570263 	cmp	r7, r3, ror #4

00000a8c <l549>:
     a8c:	e159093b 	cmp	r9, fp, lsr r9

00000a90 <l550>:
     a90:	e150014f 	cmp	r0, pc, asr #2

00000a94 <l551>:
     a94:	915108a2 	cmpls	r1, r2, lsr #17

00000a98 <l552>:
     a98:	81530435 	cmphi	r3, r5, lsr r4

00000a9c <l553>:
     a9c:	e35002a1 	cmp	r0, #268435466	; 0x1000000a

00000aa0 <l554>:
     aa0:	e1580004 	cmp	r8, r4

00000aa4 <l555>:
     aa4:	93510adf 	cmpls	r1, #913408	; 0xdf000

00000aa8 <l556>:
     aa8:	93520b0b 	cmpls	r2, #11264	; 0x2c00

00000aac <l557>:
     aac:	e1520007 	cmp	r2, r7

00000ab0 <l558>:
     ab0:	c1550061 	cmpgt	r5, r1, rrx

00000ab4 <l559>:
     ab4:	3150093b 	cmpcc	r0, fp, lsr r9

00000ab8 <l560>:
     ab8:	635b0d2b 	cmpvs	fp, #2752	; 0xac0

00000abc <l561>:
     abc:	735a0b19 	cmpvc	sl, #25600	; 0x6400

00000ac0 <l562>:
     ac0:	e15e0525 	cmp	lr, r5, lsr #10

00000ac4 <l563>:
     ac4:	a356078e 	cmpge	r6, #37224448	; 0x2380000

00000ac8 <l564>:
     ac8:	61590069 	cmpvs	r9, r9, rrx

00000acc <l565>:
     acc:	e15f0069 	cmp	pc, r9, rrx

00000ad0 <l566>:
     ad0:	11520ccc 	cmpne	r2, ip, asr #25

00000ad4 <l567>:
     ad4:	e15c0064 	cmp	ip, r4, rrx

00000ad8 <l568>:
     ad8:	41590676 	cmpmi	r9, r6, ror r6

00000adc <l569>:
     adc:	e15f0062 	cmp	pc, r2, rrx

00000ae0 <l570>:
     ae0:	e15e0681 	cmp	lr, r1, lsl #13

00000ae4 <l571>:
     ae4:	e35f051a 	cmp	pc, #109051904	; 0x6800000

00000ae8 <l572>:
     ae8:	e35a0489 	cmp	sl, #-1996488704	; 0x89000000

00000aec <l573>:
     aec:	e1530036 	cmp	r3, r6, lsr r0

00000af0 <l574>:
     af0:	e15b000a 	cmp	fp, sl

00000af4 <l575>:
     af4:	e15c0008 	cmp	ip, r8

00000af8 <l576>:
     af8:	93530a0f 	cmpls	r3, #61440	; 0xf000

00000afc <l577>:
     afc:	e1540006 	cmp	r4, r6

00000b00 <l578>:
     b00:	815c0060 	cmphi	ip, r0, rrx

00000b04 <l579>:
     b04:	e15a0c52 	cmp	sl, r2, asr ip

00000b08 <l580>:
     b08:	835c0b51 	cmphi	ip, #82944	; 0x14400

00000b0c <l581>:
     b0c:	c1550033 	cmpgt	r5, r3, lsr r0

00000b10 <l582>:
     b10:	e1550001 	cmp	r5, r1

00000b14 <l583>:
     b14:	035e0050 	cmpeq	lr, #80	; 0x50

00000b18 <l584>:
     b18:	c15c006c 	cmpgt	ip, ip, rrx

00000b1c <l585>:
     b1c:	c1590006 	cmpgt	r9, r6

00000b20 <l586>:
     b20:	515b0b54 	cmppl	fp, r4, asr fp

00000b24 <l587>:
     b24:	b15b0007 	cmplt	fp, r7

00000b28 <l588>:
     b28:	e15b0006 	cmp	fp, r6

00000b2c <l589>:
     b2c:	e1590066 	cmp	r9, r6, rrx

00000b30 <l590>:
     b30:	91580009 	cmpls	r8, r9

00000b34 <l591>:
     b34:	01510004 	cmpeq	r1, r4

00000b38 <l592>:
     b38:	e15b0218 	cmp	fp, r8, lsl r2

00000b3c <l593>:
     b3c:	e1570004 	cmp	r7, r4

00000b40 <l594>:
     b40:	b1550e32 	cmplt	r5, r2, lsr lr

00000b44 <l595>:
     b44:	e1580a7b 	cmp	r8, fp, ror sl

00000b48 <l596>:
     b48:	e1500009 	cmp	r0, r9

00000b4c <l597>:
     b4c:	41580c67 	cmpmi	r8, r7, ror #24

00000b50 <l598>:
     b50:	81550008 	cmphi	r5, r8

00000b54 <l599>:
     b54:	e151064c 	cmp	r1, ip, asr #12

00000b58 <l600>:
     b58:	8356053d 	cmphi	r6, #255852544	; 0xf400000

00000b5c <l601>:
     b5c:	d1560037 	cmple	r6, r7, lsr r0

00000b60 <l602>:
     b60:	8158057a 	cmphi	r8, sl, ror r5

00000b64 <l603>:
     b64:	e350048e 	cmp	r0, #-1912602624	; 0x8e000000

00000b68 <l604>:
     b68:	e157000e 	cmp	r7, lr

00000b6c <l605>:
     b6c:	e15a0b42 	cmp	sl, r2, asr #22

00000b70 <l606>:
     b70:	e1550c58 	cmp	r5, r8, asr ip

00000b74 <l607>:
     b74:	e15807e2 	cmp	r8, r2, ror #15

00000b78 <l608>:
     b78:	91590007 	cmpls	r9, r7

00000b7c <l609>:
     b7c:	e15b000f 	cmp	fp, pc

00000b80 <l610>:
     b80:	915a0000 	cmpls	sl, r0

00000b84 <l611>:
     b84:	b15f000c 	cmplt	pc, ip

00000b88 <l612>:
     b88:	c35805fd 	cmpgt	r8, #1061158912	; 0x3f400000

00000b8c <l613>:
     b8c:	a3580609 	cmpge	r8, #9437184	; 0x900000

00000b90 <l614>:
     b90:	e3580ad3 	cmp	r8, #864256	; 0xd3000

00000b94 <l615>:
     b94:	d15900cf 	cmple	r9, pc, asr #1

00000b98 <l616>:
     b98:	9152000e 	cmpls	r2, lr

00000b9c <l617>:
     b9c:	81510005 	cmphi	r1, r5

00000ba0 <l618>:
     ba0:	21560572 	cmpcs	r6, r2, ror r5

00000ba4 <l619>:
     ba4:	715406c1 	cmpvc	r4, r1, asr #13

00000ba8 <l620>:
     ba8:	e1520c78 	cmp	r2, r8, ror ip

00000bac <l621>:
     bac:	e1500955 	cmp	r0, r5, asr r9

00000bb0 <l622>:
     bb0:	b1570464 	cmplt	r7, r4, ror #8

00000bb4 <l623>:
     bb4:	e351093f 	cmp	r1, #1032192	; 0xfc000

00000bb8 <l624>:
     bb8:	31540477 	cmpcc	r4, r7, ror r4

00000bbc <l625>:
     bbc:	e154000a 	cmp	r4, sl

00000bc0 <l626>:
     bc0:	e157070f 	cmp	r7, pc, lsl #14

00000bc4 <l627>:
     bc4:	315f0fa4 	cmpcc	pc, r4, lsr #31

00000bc8 <l628>:
     bc8:	e3540ce7 	cmp	r4, #59136	; 0xe700

00000bcc <l629>:
     bcc:	e150063b 	cmp	r0, fp, lsr r6

00000bd0 <l630>:
     bd0:	e15b041e 	cmp	fp, lr, lsl r4

00000bd4 <l631>:
     bd4:	e15a0585 	cmp	sl, r5, lsl #11

00000bd8 <l632>:
     bd8:	b1540c80 	cmplt	r4, r0, lsl #25

00000bdc <l633>:
     bdc:	e15a0039 	cmp	sl, r9, lsr r0

00000be0 <l634>:
     be0:	535f0094 	cmppl	pc, #148	; 0x94

00000be4 <l635>:
     be4:	e15e02ec 	cmp	lr, ip, ror #5

00000be8 <l636>:
     be8:	11570c16 	cmpne	r7, r6, lsl ip

00000bec <l637>:
     bec:	e15a0976 	cmp	sl, r6, ror r9

00000bf0 <l638>:
     bf0:	e1580006 	cmp	r8, r6

00000bf4 <l639>:
     bf4:	81540373 	cmphi	r4, r3, ror r3

00000bf8 <l640>:
     bf8:	33500946 	cmpcc	r0, #1146880	; 0x118000

00000bfc <l641>:
     bfc:	a158000c 	cmpge	r8, ip

00000c00 <l642>:
     c00:	9157095b 	cmpls	r7, fp, asr r9

00000c04 <l643>:
     c04:	7150005c 	cmpvc	r0, ip, asr r0

00000c08 <l644>:
     c08:	01510c6c 	cmpeq	r1, ip, ror #24

00000c0c <l645>:
     c0c:	11510845 	cmpne	r1, r5, asr #16

00000c10 <l646>:
     c10:	135300ed 	cmpne	r3, #237	; 0xed

00000c14 <l647>:
     c14:	215a000a 	cmpcs	sl, sl

00000c18 <l648>:
     c18:	e35e0c37 	cmp	lr, #14080	; 0x3700

00000c1c <l649>:
     c1c:	e1550c64 	cmp	r5, r4, ror #24

00000c20 <l650>:
     c20:	e157017a 	cmp	r7, sl, ror r1

00000c24 <l651>:
     c24:	d1550009 	cmple	r5, r9

00000c28 <l652>:
     c28:	e1520852 	cmp	r2, r2, asr r8

00000c2c <l653>:
     c2c:	2158000a 	cmpcs	r8, sl

00000c30 <l654>:
     c30:	c3570792 	cmpgt	r7, #38273024	; 0x2480000

00000c34 <l655>:
     c34:	e35a04d7 	cmp	sl, #-687865856	; 0xd7000000

00000c38 <l656>:
     c38:	e1540533 	cmp	r4, r3, lsr r5

00000c3c <l657>:
     c3c:	21550f2b 	cmpcs	r5, fp, lsr #30

00000c40 <l658>:
     c40:	315f08e1 	cmpcc	pc, r1, ror #17

00000c44 <l659>:
     c44:	e35b0912 	cmp	fp, #294912	; 0x48000

00000c48 <l660>:
     c48:	1150071e 	cmpne	r0, lr, lsl r7

00000c4c <l661>:
     c4c:	83530a3d 	cmphi	r3, #249856	; 0x3d000

00000c50 <l662>:
     c50:	e35605e7 	cmp	r6, #968884224	; 0x39c00000

00000c54 <l663>:
     c54:	d1570068 	cmple	r7, r8, rrx

00000c58 <l664>:
     c58:	e1530749 	cmp	r3, r9, asr #14

00000c5c <l665>:
     c5c:	b15e0234 	cmplt	lr, r4, lsr r2

00000c60 <l666>:
     c60:	91540006 	cmpls	r4, r6

00000c64 <l667>:
     c64:	e3510989 	cmp	r1, #2244608	; 0x224000

00000c68 <l668>:
     c68:	e35b0e1a 	cmp	fp, #416	; 0x1a0

00000c6c <l669>:
     c6c:	c154000f 	cmpgt	r4, pc

00000c70 <l670>:
     c70:	e35f0a71 	cmp	pc, #462848	; 0x71000

00000c74 <l671>:
     c74:	a15e0003 	cmpge	lr, r3

00000c78 <l672>:
     c78:	e155063c 	cmp	r5, ip, lsr r6

00000c7c <l673>:
     c7c:	e15401af 	cmp	r4, pc, lsr #3

00000c80 <l674>:
     c80:	21550005 	cmpcs	r5, r5

00000c84 <l675>:
     c84:	e1520436 	cmp	r2, r6, lsr r4

00000c88 <l676>:
     c88:	535108da 	cmppl	r1, #14286848	; 0xda0000

00000c8c <l677>:
     c8c:	e1570000 	cmp	r7, r0

00000c90 <l678>:
     c90:	e35c042f 	cmp	ip, #788529152	; 0x2f000000

00000c94 <l679>:
     c94:	51560060 	cmppl	r6, r0, rrx

00000c98 <l680>:
     c98:	c1500061 	cmpgt	r0, r1, rrx

00000c9c <l681>:
     c9c:	e151006a 	cmp	r1, sl, rrx

00000ca0 <l682>:
     ca0:	e1510002 	cmp	r1, r2

00000ca4 <l683>:
     ca4:	615c0004 	cmpvs	ip, r4

00000ca8 <l684>:
     ca8:	71540b7b 	cmpvc	r4, fp, ror fp

00000cac <l685>:
     cac:	e15e0132 	cmp	lr, r2, lsr r1

00000cb0 <l686>:
     cb0:	01540113 	cmpeq	r4, r3, lsl r1

00000cb4 <l687>:
     cb4:	e15a008f 	cmp	sl, pc, lsl #1

00000cb8 <l688>:
     cb8:	e35e07e2 	cmp	lr, #59244544	; 0x3880000

00000cbc <l689>:
     cbc:	e1520232 	cmp	r2, r2, lsr r2

00000cc0 <l690>:
     cc0:	e3560511 	cmp	r6, #71303168	; 0x4400000

00000cc4 <l691>:
     cc4:	41570000 	cmpmi	r7, r0

00000cc8 <l692>:
     cc8:	41540001 	cmpmi	r4, r1

00000ccc <l693>:
     ccc:	1159000f 	cmpne	r9, pc

00000cd0 <l694>:
     cd0:	e35e010a 	cmp	lr, #-2147483646	; 0x80000002

00000cd4 <l695>:
     cd4:	c35701b9 	cmpgt	r7, #1073741870	; 0x4000002e

00000cd8 <l696>:
     cd8:	e1590854 	cmp	r9, r4, asr r8

00000cdc <l697>:
     cdc:	b1590007 	cmplt	r9, r7

00000ce0 <l698>:
     ce0:	b1520084 	cmplt	r2, r4, lsl #1

00000ce4 <l699>:
     ce4:	e1560a79 	cmp	r6, r9, ror sl

00000ce8 <l700>:
     ce8:	e15e0902 	cmp	lr, r2, lsl #18

00000cec <l701>:
     cec:	e1530004 	cmp	r3, r4

00000cf0 <l702>:
     cf0:	b159006b 	cmplt	r9, fp, rrx

00000cf4 <l703>:
     cf4:	d3560405 	cmple	r6, #83886080	; 0x5000000

00000cf8 <l704>:
     cf8:	e156067c 	cmp	r6, ip, ror r6

00000cfc <l705>:
     cfc:	7159064e 	cmpvc	r9, lr, asr #12

00000d00 <l706>:
     d00:	e15f0008 	cmp	pc, r8

00000d04 <l707>:
     d04:	c3570923 	cmpgt	r7, #573440	; 0x8c000

00000d08 <l708>:
     d08:	e1530a37 	cmp	r3, r7, lsr sl

00000d0c <l709>:
     d0c:	e159025c 	cmp	r9, ip, asr r2

00000d10 <l710>:
     d10:	d3520000 	cmple	r2, #0

00000d14 <l711>:
     d14:	e3500526 	cmp	r0, #159383552	; 0x9800000

00000d18 <l712>:
     d18:	b3540a87 	cmplt	r4, #552960	; 0x87000

00000d1c <l713>:
     d1c:	1153006f 	cmpne	r3, pc, rrx

00000d20 <l714>:
     d20:	e3570432 	cmp	r7, #838860800	; 0x32000000

00000d24 <l715>:
     d24:	e35c00d0 	cmp	ip, #208	; 0xd0

00000d28 <l716>:
     d28:	e1510009 	cmp	r1, r9

00000d2c <l717>:
     d2c:	d15c0970 	cmple	ip, r0, ror r9

00000d30 <l718>:
     d30:	e15a006e 	cmp	sl, lr, rrx

00000d34 <l719>:
     d34:	e35e062f 	cmp	lr, #49283072	; 0x2f00000

00000d38 <l720>:
     d38:	e153006c 	cmp	r3, ip, rrx

00000d3c <l721>:
     d3c:	31560617 	cmpcc	r6, r7, lsl r6

00000d40 <l722>:
     d40:	a15c000b 	cmpge	ip, fp

00000d44 <l723>:
     d44:	9150020a 	cmpls	r0, sl, lsl #4

00000d48 <l724>:
     d48:	7159018f 	cmpvc	r9, pc, lsl #3

00000d4c <l725>:
     d4c:	81530002 	cmphi	r3, r2

00000d50 <l726>:
     d50:	e15c000c 	cmp	ip, ip

00000d54 <l727>:
     d54:	e35e0427 	cmp	lr, #654311424	; 0x27000000

00000d58 <l728>:
     d58:	93580e2a 	cmpls	r8, #672	; 0x2a0

00000d5c <l729>:
     d5c:	935c06d2 	cmpls	ip, #220200960	; 0xd200000

00000d60 <l730>:
     d60:	e1520068 	cmp	r2, r8, rrx

00000d64 <l731>:
     d64:	23530a77 	cmpcs	r3, #487424	; 0x77000

00000d68 <l732>:
     d68:	e3560bcd 	cmp	r6, #209920	; 0x33400

00000d6c <l733>:
     d6c:	d1570064 	cmple	r7, r4, rrx

00000d70 <l734>:
     d70:	e15e0067 	cmp	lr, r7, rrx

00000d74 <l735>:
     d74:	e1510063 	cmp	r1, r3, rrx

00000d78 <l736>:
     d78:	33540a8d 	cmpcc	r4, #577536	; 0x8d000

00000d7c <l737>:
     d7c:	515401e7 	cmppl	r4, r7, ror #3

00000d80 <l738>:
     d80:	41590813 	cmpmi	r9, r3, lsl r8

00000d84 <l739>:
     d84:	e150000f 	cmp	r0, pc

00000d88 <l740>:
     d88:	915b08c7 	cmpls	fp, r7, asr #17

00000d8c <l741>:
     d8c:	b15c090a 	cmplt	ip, sl, lsl #18

00000d90 <l742>:
     d90:	e15a011e 	cmp	sl, lr, lsl r1

00000d94 <l743>:
     d94:	b1560b73 	cmplt	r6, r3, ror fp

00000d98 <l744>:
     d98:	8155000b 	cmphi	r5, fp

00000d9c <l745>:
     d9c:	e1570004 	cmp	r7, r4

00000da0 <l746>:
     da0:	e1560004 	cmp	r6, r4

00000da4 <l747>:
     da4:	e159020b 	cmp	r9, fp, lsl #4

00000da8 <l748>:
     da8:	9159071e 	cmpls	r9, lr, lsl r7

00000dac <l749>:
     dac:	535407a1 	cmppl	r4, #42205184	; 0x2840000

00000db0 <l750>:
     db0:	015f000e 	cmpeq	pc, lr

00000db4 <l751>:
     db4:	e35a0393 	cmp	sl, #1275068418	; 0x4c000002

00000db8 <l752>:
     db8:	81550660 	cmphi	r5, r0, ror #12

00000dbc <l753>:
     dbc:	815b0954 	cmphi	fp, r4, asr r9

00000dc0 <l754>:
     dc0:	e15c000a 	cmp	ip, sl

00000dc4 <l755>:
     dc4:	935203fb 	cmpls	r2, #-335544317	; 0xec000003

00000dc8 <l756>:
     dc8:	e1540611 	cmp	r4, r1, lsl r6

00000dcc <l757>:
     dcc:	e1570006 	cmp	r7, r6

00000dd0 <l758>:
     dd0:	81500b84 	cmphi	r0, r4, lsl #23

00000dd4 <l759>:
     dd4:	e15c0514 	cmp	ip, r4, lsl r5

00000dd8 <l760>:
     dd8:	e15e0006 	cmp	lr, r6

00000ddc <l761>:
     ddc:	e1550003 	cmp	r5, r3

00000de0 <l762>:
     de0:	41530005 	cmpmi	r3, r5

00000de4 <l763>:
     de4:	d1570275 	cmple	r7, r5, ror r2

00000de8 <l764>:
     de8:	71570006 	cmpvc	r7, r6

00000dec <l765>:
     dec:	e35b0d2e 	cmp	fp, #2944	; 0xb80

00000df0 <l766>:
     df0:	e15701ec 	cmp	r7, ip, ror #3

00000df4 <l767>:
     df4:	c1560e37 	cmpgt	r6, r7, lsr lr

00000df8 <l768>:
     df8:	e1560002 	cmp	r6, r2

00000dfc <l769>:
     dfc:	01570671 	cmpeq	r7, r1, ror r6

00000e00 <l770>:
     e00:	535e0a1b 	cmppl	lr, #110592	; 0x1b000

00000e04 <l771>:
     e04:	73530c21 	cmpvc	r3, #8448	; 0x2100

00000e08 <l772>:
     e08:	935c0b0b 	cmpls	ip, #11264	; 0x2c00

00000e0c <l773>:
     e0c:	d1570007 	cmple	r7, r7

00000e10 <l774>:
     e10:	a15c04ae 	cmpge	ip, lr, lsr #9

00000e14 <l775>:
     e14:	31530003 	cmpcc	r3, r3

00000e18 <l776>:
     e18:	e15604cf 	cmp	r6, pc, asr #9

00000e1c <l777>:
     e1c:	e1590007 	cmp	r9, r7

00000e20 <l778>:
     e20:	91580007 	cmpls	r8, r7

00000e24 <l779>:
     e24:	e15f0069 	cmp	pc, r9, rrx

00000e28 <l780>:
     e28:	315f0008 	cmpcc	pc, r8

00000e2c <l781>:
     e2c:	e3570a16 	cmp	r7, #90112	; 0x16000

00000e30 <l782>:
     e30:	3150000c 	cmpcc	r0, ip

00000e34 <l783>:
     e34:	d35a0080 	cmple	sl, #128	; 0x80

00000e38 <l784>:
     e38:	4154000b 	cmpmi	r4, fp

00000e3c <l785>:
     e3c:	e15a000e 	cmp	sl, lr

00000e40 <l786>:
     e40:	e3530907 	cmp	r3, #114688	; 0x1c000

00000e44 <l787>:
     e44:	01540015 	cmpeq	r4, r5, lsl r0

00000e48 <l788>:
     e48:	1353074a 	cmpne	r3, #19398656	; 0x1280000

00000e4c <l789>:
     e4c:	015c0c11 	cmpeq	ip, r1, lsl ip

00000e50 <l790>:
     e50:	e15a07e3 	cmp	sl, r3, ror #15

00000e54 <l791>:
     e54:	d3590407 	cmple	r9, #117440512	; 0x7000000

00000e58 <l792>:
     e58:	e1500064 	cmp	r0, r4, rrx

00000e5c <l793>:
     e5c:	e15c0ae5 	cmp	ip, r5, ror #21

00000e60 <l794>:
     e60:	41550004 	cmpmi	r5, r4

00000e64 <l795>:
     e64:	31520153 	cmpcc	r2, r3, asr r1

00000e68 <l796>:
     e68:	e1530658 	cmp	r3, r8, asr r6

00000e6c <l797>:
     e6c:	91520067 	cmpls	r2, r7, rrx

00000e70 <l798>:
     e70:	b3540033 	cmplt	r4, #51	; 0x33

00000e74 <l799>:
     e74:	e35003ef 	cmp	r0, #-1140850685	; 0xbc000003

00000e78 <l800>:
     e78:	11540a72 	cmpne	r4, r2, ror sl

00000e7c <l801>:
     e7c:	e158006c 	cmp	r8, ip, rrx

00000e80 <l802>:
     e80:	93510737 	cmpls	r1, #14417920	; 0xdc0000

00000e84 <l803>:
     e84:	c1500003 	cmpgt	r0, r3

00000e88 <l804>:
     e88:	e15906c3 	cmp	r9, r3, asr #13

00000e8c <l805>:
     e8c:	71540006 	cmpvc	r4, r6

00000e90 <l806>:
     e90:	e15a063c 	cmp	sl, ip, lsr r6

00000e94 <l807>:
     e94:	33510d33 	cmpcc	r1, #3264	; 0xcc0

00000e98 <l808>:
     e98:	715c0a7c 	cmpvc	ip, ip, ror sl

00000e9c <l809>:
     e9c:	e157000c 	cmp	r7, ip

00000ea0 <l810>:
     ea0:	91520971 	cmpls	r2, r1, ror r9

00000ea4 <l811>:
     ea4:	715c081a 	cmpvc	ip, sl, lsl r8

00000ea8 <l812>:
     ea8:	63570001 	cmpvs	r7, #1

00000eac <l813>:
     eac:	d15a0c04 	cmple	sl, r4, lsl #24

00000eb0 <l814>:
     eb0:	e1560003 	cmp	r6, r3

00000eb4 <l815>:
     eb4:	e3550353 	cmp	r5, #1275068417	; 0x4c000001

00000eb8 <l816>:
     eb8:	c15a010a 	cmpgt	sl, sl, lsl #2

00000ebc <l817>:
     ebc:	e15a0009 	cmp	sl, r9

00000ec0 <l818>:
     ec0:	21580a38 	cmpcs	r8, r8, lsr sl

00000ec4 <l819>:
     ec4:	91540c7b 	cmpls	r4, fp, ror ip

00000ec8 <l820>:
     ec8:	e1510001 	cmp	r1, r1

00000ecc <l821>:
     ecc:	e1510006 	cmp	r1, r6

00000ed0 <l822>:
     ed0:	d15b0001 	cmple	fp, r1

00000ed4 <l823>:
     ed4:	e354027a 	cmp	r4, #-1610612729	; 0xa0000007

00000ed8 <l824>:
     ed8:	e15f0008 	cmp	pc, r8

00000edc <l825>:
     edc:	e156000b 	cmp	r6, fp

00000ee0 <l826>:
     ee0:	c15a0007 	cmpgt	sl, r7

00000ee4 <l827>:
     ee4:	e155000f 	cmp	r5, pc

00000ee8 <l828>:
     ee8:	e35b0b4a 	cmp	fp, #75776	; 0x12800

00000eec <l829>:
     eec:	5352007e 	cmppl	r2, #126	; 0x7e

00000ef0 <l830>:
     ef0:	e15e0839 	cmp	lr, r9, lsr r8

00000ef4 <l831>:
     ef4:	e1580c5b 	cmp	r8, fp, asr ip

00000ef8 <l832>:
     ef8:	9151000f 	cmpls	r1, pc

00000efc <l833>:
     efc:	e1590006 	cmp	r9, r6

00000f00 <l834>:
     f00:	e153000e 	cmp	r3, lr

00000f04 <l835>:
     f04:	235b0716 	cmpcs	fp, #5767168	; 0x580000

00000f08 <l836>:
     f08:	e1590218 	cmp	r9, r8, lsl r2

00000f0c <l837>:
     f0c:	e3500e7d 	cmp	r0, #2000	; 0x7d0

00000f10 <l838>:
     f10:	a151006e 	cmpge	r1, lr, rrx

00000f14 <l839>:
     f14:	4159011e 	cmpmi	r9, lr, lsl r1

00000f18 <l840>:
     f18:	e1570062 	cmp	r7, r2, rrx

00000f1c <l841>:
     f1c:	71520003 	cmpvc	r2, r3

00000f20 <l842>:
     f20:	515f080f 	cmppl	pc, pc, lsl #16

00000f24 <l843>:
     f24:	31500516 	cmpcc	r0, r6, lsl r5

00000f28 <l844>:
     f28:	035502de 	cmpeq	r5, #-536870899	; 0xe000000d

00000f2c <l845>:
     f2c:	e155038a 	cmp	r5, sl, lsl #7

00000f30 <l846>:
     f30:	41570053 	cmpmi	r7, r3, asr r0

00000f34 <l847>:
     f34:	e1550065 	cmp	r5, r5, rrx

00000f38 <l848>:
     f38:	e155006b 	cmp	r5, fp, rrx

00000f3c <l849>:
     f3c:	e15b02a1 	cmp	fp, r1, lsr #5

00000f40 <l850>:
     f40:	e152006f 	cmp	r2, pc, rrx

00000f44 <l851>:
     f44:	01510001 	cmpeq	r1, r1

00000f48 <l852>:
     f48:	635400d3 	cmpvs	r4, #211	; 0xd3

00000f4c <l853>:
     f4c:	11500983 	cmpne	r0, r3, lsl #19

00000f50 <l854>:
     f50:	e1500063 	cmp	r0, r3, rrx

00000f54 <l855>:
     f54:	e1550934 	cmp	r5, r4, lsr r9

00000f58 <l856>:
     f58:	61510000 	cmpvs	r1, r0

00000f5c <l857>:
     f5c:	e35905af 	cmp	r9, #734003200	; 0x2bc00000

00000f60 <l858>:
     f60:	e157006a 	cmp	r7, sl, rrx

00000f64 <l859>:
     f64:	63540dca 	cmpvs	r4, #12928	; 0x3280

00000f68 <l860>:
     f68:	d15b0e5b 	cmple	fp, fp, asr lr

00000f6c <l861>:
     f6c:	93520561 	cmpls	r2, #406847488	; 0x18400000

00000f70 <l862>:
     f70:	715f0943 	cmpvc	pc, r3, asr #18

00000f74 <l863>:
     f74:	e1570004 	cmp	r7, r4

00000f78 <l864>:
     f78:	e3580623 	cmp	r8, #36700160	; 0x2300000

00000f7c <l865>:
     f7c:	215e0001 	cmpcs	lr, r1

00000f80 <l866>:
     f80:	a1510954 	cmpge	r1, r4, asr r9

00000f84 <l867>:
     f84:	e35f051a 	cmp	pc, #109051904	; 0x6800000

00000f88 <l868>:
     f88:	31590007 	cmpcc	r9, r7

00000f8c <l869>:
     f8c:	53500499 	cmppl	r0, #-1728053248	; 0x99000000

00000f90 <l870>:
     f90:	03530233 	cmpeq	r3, #805306371	; 0x30000003

00000f94 <l871>:
     f94:	21510317 	cmpcs	r1, r7, lsl r3

00000f98 <l872>:
     f98:	e1580006 	cmp	r8, r6

00000f9c <l873>:
     f9c:	e1510e2b 	cmp	r1, fp, lsr #28

00000fa0 <l874>:
     fa0:	a1500b37 	cmpge	r0, r7, lsr fp

00000fa4 <l875>:
     fa4:	e15e0e1e 	cmp	lr, lr, lsl lr

00000fa8 <l876>:
     fa8:	e1590003 	cmp	r9, r3

00000fac <l877>:
     fac:	e3500c3e 	cmp	r0, #15872	; 0x3e00

00000fb0 <l878>:
     fb0:	e1590324 	cmp	r9, r4, lsr #6

00000fb4 <l879>:
     fb4:	e35809eb 	cmp	r8, #3850240	; 0x3ac000

00000fb8 <l880>:
     fb8:	e3570a1a 	cmp	r7, #106496	; 0x1a000

00000fbc <l881>:
     fbc:	e15508ef 	cmp	r5, pc, ror #17

00000fc0 <l882>:
     fc0:	e1590065 	cmp	r9, r5, rrx

00000fc4 <l883>:
     fc4:	d1520060 	cmple	r2, r0, rrx

00000fc8 <l884>:
     fc8:	3153000c 	cmpcc	r3, ip

00000fcc <l885>:
     fcc:	615a0e74 	cmpvs	sl, r4, ror lr

00000fd0 <l886>:
     fd0:	e35f0fbb 	cmp	pc, #748	; 0x2ec

00000fd4 <l887>:
     fd4:	c15c000c 	cmpgt	ip, ip

00000fd8 <l888>:
     fd8:	d3570cf6 	cmple	r7, #62976	; 0xf600

00000fdc <l889>:
     fdc:	515402c7 	cmppl	r4, r7, asr #5

00000fe0 <l890>:
     fe0:	e1590bc3 	cmp	r9, r3, asr #23

00000fe4 <l891>:
     fe4:	e1500009 	cmp	r0, r9

00000fe8 <l892>:
     fe8:	01510007 	cmpeq	r1, r7

00000fec <l893>:
     fec:	43560c01 	cmpmi	r6, #256	; 0x100

00000ff0 <l894>:
     ff0:	21530008 	cmpcs	r3, r8

00000ff4 <l895>:
     ff4:	01580431 	cmpeq	r8, r1, lsr r4

00000ff8 <l896>:
     ff8:	e15a0635 	cmp	sl, r5, lsr r6

00000ffc <l897>:
     ffc:	e1550c33 	cmp	r5, r3, lsr ip

00001000 <l898>:
    1000:	035908a3 	cmpeq	r9, #10682368	; 0xa30000

00001004 <l899>:
    1004:	3150047a 	cmpcc	r0, sl, ror r4

00001008 <l900>:
    1008:	e15f030a 	cmp	pc, sl, lsl #6

0000100c <l901>:
    100c:	e1540931 	cmp	r4, r1, lsr r9

00001010 <l902>:
    1010:	615300eb 	cmpvs	r3, fp, ror #1

00001014 <l903>:
    1014:	615a0819 	cmpvs	sl, r9, lsl r8

00001018 <l904>:
    1018:	e15b0b7c 	cmp	fp, ip, ror fp

0000101c <l905>:
    101c:	41560004 	cmpmi	r6, r4

00001020 <l906>:
    1020:	e3590439 	cmp	r9, #956301312	; 0x39000000

00001024 <l907>:
    1024:	e15b007c 	cmp	fp, ip, ror r0

00001028 <l908>:
    1028:	635f00b0 	cmpvs	pc, #176	; 0xb0

0000102c <l909>:
    102c:	a1500b61 	cmpge	r0, r1, ror #22

00001030 <l910>:
    1030:	3153063e 	cmpcc	r3, lr, lsr r6

00001034 <l911>:
    1034:	d1500259 	cmple	r0, r9, asr r2

00001038 <l912>:
    1038:	e1530286 	cmp	r3, r6, lsl #5

0000103c <l913>:
    103c:	81510515 	cmphi	r1, r5, lsl r5

00001040 <l914>:
    1040:	e1510001 	cmp	r1, r1

00001044 <l915>:
    1044:	e15f0060 	cmp	pc, r0, rrx

00001048 <l916>:
    1048:	415f0005 	cmpmi	pc, r5

0000104c <l917>:
    104c:	e35f0439 	cmp	pc, #956301312	; 0x39000000

00001050 <l918>:
    1050:	c15a000e 	cmpgt	sl, lr

00001054 <l919>:
    1054:	c35e0436 	cmpgt	lr, #905969664	; 0x36000000

00001058 <l920>:
    1058:	e3500513 	cmp	r0, #79691776	; 0x4c00000

0000105c <l921>:
    105c:	835c0062 	cmphi	ip, #98	; 0x62

00001060 <l922>:
    1060:	d15b0234 	cmple	fp, r4, lsr r2

00001064 <l923>:
    1064:	a1520056 	cmpge	r2, r6, asr r0

00001068 <l924>:
    1068:	21560005 	cmpcs	r6, r5

0000106c <l925>:
    106c:	91520618 	cmpls	r2, r8, lsl r6

00001070 <l926>:
    1070:	215f000b 	cmpcs	pc, fp

00001074 <l927>:
    1074:	11530005 	cmpne	r3, r5

00001078 <l928>:
    1078:	a1570d88 	cmpge	r7, r8, lsl #27

0000107c <l929>:
    107c:	d1590236 	cmple	r9, r6, lsr r2

00001080 <l930>:
    1080:	c15e043b 	cmpgt	lr, fp, lsr r4

00001084 <l931>:
    1084:	0159000a 	cmpeq	r9, sl

00001088 <l932>:
    1088:	91560079 	cmpls	r6, r9, ror r0

0000108c <l933>:
    108c:	e3530209 	cmp	r3, #-1879048192	; 0x90000000

00001090 <l934>:
    1090:	735b042b 	cmpvc	fp, #721420288	; 0x2b000000

00001094 <l935>:
    1094:	015b0001 	cmpeq	fp, r1

00001098 <l936>:
    1098:	11540179 	cmpne	r4, r9, ror r1

0000109c <l937>:
    109c:	e15c0007 	cmp	ip, r7

000010a0 <l938>:
    10a0:	e1590550 	cmp	r9, r0, asr r5

000010a4 <l939>:
    10a4:	e15a0065 	cmp	sl, r5, rrx

000010a8 <l940>:
    10a8:	11510b38 	cmpne	r1, r8, lsr fp

000010ac <l941>:
    10ac:	815b0712 	cmphi	fp, r2, lsl r7

000010b0 <l942>:
    10b0:	e1540009 	cmp	r4, r9

000010b4 <l943>:
    10b4:	e15f000e 	cmp	pc, lr

000010b8 <l944>:
    10b8:	5158000b 	cmppl	r8, fp

000010bc <l945>:
    10bc:	b35a01a6 	cmplt	sl, #-2147483607	; 0x80000029

000010c0 <l946>:
    10c0:	e1580004 	cmp	r8, r4

000010c4 <l947>:
    10c4:	e3510edf 	cmp	r1, #3568	; 0xdf0

000010c8 <l948>:
    10c8:	71510003 	cmpvc	r1, r3

000010cc <l949>:
    10cc:	81540006 	cmphi	r4, r6

000010d0 <l950>:
    10d0:	e3540af9 	cmp	r4, #1019904	; 0xf9000

000010d4 <l951>:
    10d4:	615f0901 	cmpvs	pc, r1, lsl #18

000010d8 <l952>:
    10d8:	e359095f 	cmp	r9, #1556480	; 0x17c000

000010dc <l953>:
    10dc:	0154000e 	cmpeq	r4, lr

000010e0 <l954>:
    10e0:	235e0907 	cmpcs	lr, #114688	; 0x1c000

000010e4 <l955>:
    10e4:	23590d9a 	cmpcs	r9, #9856	; 0x2680

000010e8 <l956>:
    10e8:	515c0f0c 	cmppl	ip, ip, lsl #30

000010ec <l957>:
    10ec:	a1590a61 	cmpge	r9, r1, ror #20

000010f0 <l958>:
    10f0:	e1570ba1 	cmp	r7, r1, lsr #23

000010f4 <l959>:
    10f4:	e15008e3 	cmp	r0, r3, ror #17

000010f8 <l960>:
    10f8:	a159000f 	cmpge	r9, pc

000010fc <l961>:
    10fc:	e1500064 	cmp	r0, r4, rrx

00001100 <l962>:
    1100:	c1590e03 	cmpgt	r9, r3, lsl #28

00001104 <l963>:
    1104:	d15a0156 	cmple	sl, r6, asr r1

00001108 <l964>:
    1108:	61510000 	cmpvs	r1, r0

0000110c <l965>:
    110c:	e35e05aa 	cmp	lr, #713031680	; 0x2a800000

00001110 <l966>:
    1110:	43540742 	cmpmi	r4, #17301504	; 0x1080000

00001114 <l967>:
    1114:	e35e0ffb 	cmp	lr, #1004	; 0x3ec

00001118 <l968>:
    1118:	e1570a54 	cmp	r7, r4, asr sl

0000111c <l969>:
    111c:	335a0243 	cmpcc	sl, #805306372	; 0x30000004

00001120 <l970>:
    1120:	31580b66 	cmpcc	r8, r6, ror #22

00001124 <l971>:
    1124:	e15e006c 	cmp	lr, ip, rrx

00001128 <l972>:
    1128:	e15a05ab 	cmp	sl, fp, lsr #11

0000112c <l973>:
    112c:	61570f2c 	cmpvs	r7, ip, lsr #30

00001130 <l974>:
    1130:	e1530068 	cmp	r3, r8, rrx

00001134 <l975>:
    1134:	e15104c9 	cmp	r1, r9, asr #9

00001138 <l976>:
    1138:	915b000f 	cmpls	fp, pc

0000113c <l977>:
    113c:	e15f0069 	cmp	pc, r9, rrx

00001140 <l978>:
    1140:	41550306 	cmpmi	r5, r6, lsl #6

00001144 <l979>:
    1144:	9151000c 	cmpls	r1, ip

00001148 <l980>:
    1148:	e15e0574 	cmp	lr, r4, ror r5

0000114c <l981>:
    114c:	635e018b 	cmpvs	lr, #-1073741790	; 0xc0000022

00001150 <l982>:
    1150:	61540008 	cmpvs	r4, r8

00001154 <l983>:
    1154:	e1500005 	cmp	r0, r5

00001158 <l984>:
    1158:	e1540002 	cmp	r4, r2

0000115c <l985>:
    115c:	d150000c 	cmple	r0, ip

00001160 <l986>:
    1160:	e35200ab 	cmp	r2, #171	; 0xab

00001164 <l987>:
    1164:	21580005 	cmpcs	r8, r5

00001168 <l988>:
    1168:	61530009 	cmpvs	r3, r9

0000116c <l989>:
    116c:	e1580c76 	cmp	r8, r6, ror ip

00001170 <l990>:
    1170:	8157063e 	cmphi	r7, lr, lsr r6

00001174 <l991>:
    1174:	a3590c56 	cmpge	r9, #22016	; 0x5600

00001178 <l992>:
    1178:	215702af 	cmpcs	r7, pc, lsr #5

0000117c <l993>:
    117c:	6152000f 	cmpvs	r2, pc

00001180 <l994>:
    1180:	a15a000b 	cmpge	sl, fp

00001184 <l995>:
    1184:	815a006b 	cmphi	sl, fp, rrx

00001188 <l996>:
    1188:	e1540004 	cmp	r4, r4

0000118c <l997>:
    118c:	815c0188 	cmphi	ip, r8, lsl #3

00001190 <l998>:
    1190:	e1570005 	cmp	r7, r5

00001194 <l999>:
    1194:	b15400c9 	cmplt	r4, r9, asr #1

00001198 <l1000>:
    1198:	e1500000 	cmp	r0, r0

0000119c <end>:
    119c:	eafffffe 	b	119c <end>
