
dpbls_5000.o:     file format elf32-littlearm


Disassembly of section .text:

00000000 <main>:
       0:	e05f000f 	subs	r0, pc, pc
       4:	e59fd000 	ldr	sp, [pc]	; c <val>
       8:	ea000000 	b	10 <next>

0000000c <val>:
       c:	000ffff0 	.word	0x000ffff0

00000010 <next>:
      10:	e59f1000 	ldr	r1, [pc]	; 18 <val1>
      14:	ea000000 	b	1c <next1>

00000018 <val1>:
      18:	19bf8c0f 	.word	0x19bf8c0f

0000001c <next1>:
      1c:	e59f2000 	ldr	r2, [pc]	; 24 <val2>
      20:	ea000000 	b	28 <next2>

00000024 <val2>:
      24:	897ebdfa 	.word	0x897ebdfa

00000028 <next2>:
      28:	e59f3000 	ldr	r3, [pc]	; 30 <val3>
      2c:	ea000000 	b	34 <next3>

00000030 <val3>:
      30:	76451785 	.word	0x76451785

00000034 <next3>:
      34:	e59f4000 	ldr	r4, [pc]	; 3c <val4>
      38:	ea000000 	b	40 <next4>

0000003c <val4>:
      3c:	06776c2a 	.word	0x06776c2a

00000040 <next4>:
      40:	e59f5000 	ldr	r5, [pc]	; 48 <val5>
      44:	ea000000 	b	4c <next5>

00000048 <val5>:
      48:	889be7d1 	.word	0x889be7d1

0000004c <next5>:
      4c:	e59f6000 	ldr	r6, [pc]	; 54 <val6>
      50:	ea000000 	b	58 <next6>

00000054 <val6>:
      54:	b3246ae9 	.word	0xb3246ae9

00000058 <next6>:
      58:	e59f7000 	ldr	r7, [pc]	; 60 <val7>
      5c:	ea000000 	b	64 <next7>

00000060 <val7>:
      60:	999b6383 	.word	0x999b6383

00000064 <next7>:
      64:	e59f8000 	ldr	r8, [pc]	; 6c <val8>
      68:	ea000000 	b	70 <next8>

0000006c <val8>:
      6c:	76d1c85a 	.word	0x76d1c85a

00000070 <next8>:
      70:	e59f9000 	ldr	r9, [pc]	; 78 <val9>
      74:	ea000000 	b	7c <next9>

00000078 <val9>:
      78:	819effec 	.word	0x819effec

0000007c <next9>:
      7c:	e59fa000 	ldr	sl, [pc]	; 84 <val10>
      80:	ea000000 	b	88 <next10>

00000084 <val10>:
      84:	484e87c4 	.word	0x484e87c4

00000088 <next10>:
      88:	e59fb000 	ldr	fp, [pc]	; 90 <val11>
      8c:	ea000000 	b	94 <next11>

00000090 <val11>:
      90:	85682ae1 	.word	0x85682ae1

00000094 <next11>:
      94:	e59fc000 	ldr	ip, [pc]	; 9c <val12>
      98:	ea000000 	b	a0 <next12>

0000009c <val12>:
      9c:	e3f389e6 	.word	0xe3f389e6

000000a0 <next12>:
      a0:	e59fe000 	ldr	lr, [pc]	; a8 <val14>
      a4:	ea000000 	b	ac <next14>

000000a8 <val14>:
      a8:	50c72b60 	.word	0x50c72b60

000000ac <next14>:
      ac:	e59f1000 	ldr	r1, [pc]	; b4 <val15>
      b0:	ea000000 	b	b8 <next15>

000000b4 <val15>:
      b4:	3f43ec29 	.word	0x3f43ec29

000000b8 <next15>:
      b8:	e58d1000 	str	r1, [sp]
      bc:	e59f1000 	ldr	r1, [pc]	; c4 <val16>
      c0:	ea000000 	b	c8 <next16>

000000c4 <val16>:
      c4:	e3d0e0f4 	.word	0xe3d0e0f4

000000c8 <next16>:
      c8:	e50d1004 	str	r1, [sp, #-4]
      cc:	e59f1000 	ldr	r1, [pc]	; d4 <val17>
      d0:	ea000000 	b	d8 <next17>

000000d4 <val17>:
      d4:	8f9a23f6 	.word	0x8f9a23f6

000000d8 <next17>:
      d8:	e50d1008 	str	r1, [sp, #-8]
      dc:	e59f1000 	ldr	r1, [pc]	; e4 <val18>
      e0:	ea000000 	b	e8 <next18>

000000e4 <val18>:
      e4:	5aebb6f5 	.word	0x5aebb6f5

000000e8 <next18>:
      e8:	e50d100c 	str	r1, [sp, #-12]
      ec:	e59f1000 	ldr	r1, [pc]	; f4 <val19>
      f0:	ea000000 	b	f8 <next19>

000000f4 <val19>:
      f4:	634a71ee 	.word	0x634a71ee

000000f8 <next19>:
      f8:	e50d1010 	str	r1, [sp, #-16]
      fc:	e59f1000 	ldr	r1, [pc]	; 104 <val20>
     100:	ea000000 	b	108 <next20>

00000104 <val20>:
     104:	426c0822 	.word	0x426c0822

00000108 <next20>:
     108:	e50d1014 	str	r1, [sp, #-20]
     10c:	e59f1000 	ldr	r1, [pc]	; 114 <val21>
     110:	ea000000 	b	118 <next21>

00000114 <val21>:
     114:	058793ee 	.word	0x058793ee

00000118 <next21>:
     118:	e50d1018 	str	r1, [sp, #-24]
     11c:	e59f1000 	ldr	r1, [pc]	; 124 <val22>
     120:	ea000000 	b	128 <next22>

00000124 <val22>:
     124:	cc8fd8b7 	.word	0xcc8fd8b7

00000128 <next22>:
     128:	e50d101c 	str	r1, [sp, #-28]
     12c:	e59f1000 	ldr	r1, [pc]	; 134 <val23>
     130:	ea000000 	b	138 <next23>

00000134 <val23>:
     134:	2db5cb48 	.word	0x2db5cb48

00000138 <next23>:
     138:	e50d1020 	str	r1, [sp, #-32]
     13c:	e59f1000 	ldr	r1, [pc]	; 144 <val24>
     140:	ea000000 	b	148 <next24>

00000144 <val24>:
     144:	9d4788c2 	.word	0x9d4788c2

00000148 <next24>:
     148:	e50d1024 	str	r1, [sp, #-36]	; 0x24
     14c:	e59f1000 	ldr	r1, [pc]	; 154 <val25>
     150:	ea000000 	b	158 <next25>

00000154 <val25>:
     154:	217aacda 	.word	0x217aacda

00000158 <next25>:
     158:	e50d1028 	str	r1, [sp, #-40]	; 0x28
     15c:	e59f1000 	ldr	r1, [pc]	; 164 <val26>
     160:	ea000000 	b	168 <next26>

00000164 <val26>:
     164:	70bbd0f5 	.word	0x70bbd0f5

00000168 <next26>:
     168:	e50d102c 	str	r1, [sp, #-44]	; 0x2c
     16c:	e59f1000 	ldr	r1, [pc]	; 174 <val27>
     170:	ea000000 	b	178 <next27>

00000174 <val27>:
     174:	ca5addee 	.word	0xca5addee

00000178 <next27>:
     178:	e50d1030 	str	r1, [sp, #-48]	; 0x30
     17c:	e59f1000 	ldr	r1, [pc]	; 184 <val28>
     180:	ea000000 	b	188 <next28>

00000184 <val28>:
     184:	f38f3d35 	.word	0xf38f3d35

00000188 <next28>:
     188:	e50d1034 	str	r1, [sp, #-52]	; 0x34
     18c:	e59f1000 	ldr	r1, [pc]	; 194 <val29>
     190:	ea000000 	b	198 <next29>

00000194 <val29>:
     194:	7608fb7f 	.word	0x7608fb7f

00000198 <next29>:
     198:	e50d1038 	str	r1, [sp, #-56]	; 0x38
     19c:	e59f1000 	ldr	r1, [pc]	; 1a4 <val30>
     1a0:	ea000000 	b	1a8 <next30>

000001a4 <val30>:
     1a4:	af3e0c74 	.word	0xaf3e0c74

000001a8 <next30>:
     1a8:	e50d103c 	str	r1, [sp, #-60]	; 0x3c
     1ac:	e59f1000 	ldr	r1, [pc]	; 1b4 <val31>
     1b0:	ea000000 	b	1b8 <next31>

000001b4 <val31>:
     1b4:	fb9b2831 	.word	0xfb9b2831

000001b8 <next31>:
     1b8:	e50d1040 	str	r1, [sp, #-64]	; 0x40
     1bc:	e59f1000 	ldr	r1, [pc]	; 1c4 <val32>
     1c0:	ea000000 	b	1c8 <next32>

000001c4 <val32>:
     1c4:	fc2d5f90 	.word	0xfc2d5f90

000001c8 <next32>:
     1c8:	e50d1044 	str	r1, [sp, #-68]	; 0x44
     1cc:	e59f1000 	ldr	r1, [pc]	; 1d4 <val33>
     1d0:	ea000000 	b	1d8 <next33>

000001d4 <val33>:
     1d4:	adbc4871 	.word	0xadbc4871

000001d8 <next33>:
     1d8:	e50d1048 	str	r1, [sp, #-72]	; 0x48
     1dc:	e59f1000 	ldr	r1, [pc]	; 1e4 <val34>
     1e0:	ea000000 	b	1e8 <next34>

000001e4 <val34>:
     1e4:	16e07c8a 	.word	0x16e07c8a

000001e8 <next34>:
     1e8:	e50d104c 	str	r1, [sp, #-76]	; 0x4c
     1ec:	e59f1000 	ldr	r1, [pc]	; 1f4 <val35>
     1f0:	ea000000 	b	1f8 <next35>

000001f4 <val35>:
     1f4:	b6d11106 	.word	0xb6d11106

000001f8 <next35>:
     1f8:	e50d1050 	str	r1, [sp, #-80]	; 0x50

000001fc <l1>:
     1fc:	e2661665 	rsb	r1, r6, #105906176	; 0x6500000

00000200 <l2>:
     200:	1a000003 	bne	214 <l7>

00000204 <l3>:
     204:	e2801040 	add	r1, r0, #64	; 0x40

00000208 <l4>:
     208:	516faf1c 	clzpl	sl, ip

0000020c <l5>:
     20c:	21790d4a 	cmncs	r9, sl, asr #26

00000210 <l6>:
     210:	ea000000 	b	218 <l8>

00000214 <l7>:
     214:	eafffffb 	b	208 <l4>

00000218 <l8>:
     218:	e066900e 	rsb	r9, r6, lr

0000021c <l9>:
     21c:	e3a0e00c 	mov	lr, #12

00000220 <l10>:
     220:	e73d600e 	ldr	r6, [sp, -lr]!

00000224 <l11>:
     224:	b27f7021 	rsbslt	r7, pc, #33	; 0x21

00000228 <l12>:
     228:	e0891066 	add	r1, r9, r6, rrx

0000022c <l13>:
     22c:	e009106a 	and	r1, r9, sl, rrx

00000230 <l14>:
     230:	e31404fb 	tst	r4, #-83886080	; 0xfb000000

00000234 <l15>:
     234:	91f0cc47 	mvnsls	ip, r7, asr #24

00000238 <l16>:
     238:	6358056e 	cmpvs	r8, #461373440	; 0x1b800000

0000023c <l17>:
     23c:	ea000001 	b	248 <l20>

00000240 <l18>:
     240:	b03f4008 	eorslt	r4, pc, r8

00000244 <l19>:
     244:	e09e6064 	adds	r6, lr, r4, rrx

00000248 <l20>:
     248:	6180c55b 	orrvs	ip, r0, fp, asr r5

0000024c <l21>:
     24c:	00777455 	rsbseq	r7, r7, r5, asr r4

00000250 <l22>:
     250:	e006517b 	and	r5, r6, fp, ror r1

00000254 <l23>:
     254:	e2381a0b 	eors	r1, r8, #45056	; 0xb000

00000258 <l24>:
     258:	e1310001 	teq	r1, r1

0000025c <l25>:
     25c:	c220a41a 	eorgt	sl, r0, #436207616	; 0x1a000000

00000260 <l26>:
     260:	e16faf19 	clz	sl, r9

00000264 <l27>:
     264:	e1300318 	teq	r0, r8, lsl r3

00000268 <l28>:
     268:	42222b7a 	eormi	r2, r2, #124928	; 0x1e800

0000026c <l29>:
     26c:	116f9f10 	clzne	r9, r0

00000270 <l30>:
     270:	e5ad4000 	str	r4, [sp, #0]!

00000274 <l31>:
     274:	e3a0b034 	mov	fp, #52	; 0x34

00000278 <l32>:
     278:	470db00b 	strmi	fp, [sp, -fp]

0000027c <l33>:
     27c:	c0515ce1 	subsgt	r5, r1, r1, ror #25

00000280 <l34>:
     280:	e031c633 	eors	ip, r1, r3, lsr r6

00000284 <l35>:
     284:	00169938 	andseq	r9, r6, r8, lsr r9

00000288 <l36>:
     288:	81a0100c 	movhi	r1, ip

0000028c <l37>:
     28c:	62b6c82f 	adcsvs	ip, r6, #3080192	; 0x2f0000

00000290 <l38>:
     290:	42593e93 	subsmi	r3, r9, #2352	; 0x930

00000294 <l39>:
     294:	1a000006 	bne	2b4 <l47>

00000298 <l40>:
     298:	e28010ea 	add	r1, r0, #234	; 0xea

0000029c <l41>:
     29c:	9077e00c 	rsbsls	lr, r7, ip

000002a0 <l42>:
     2a0:	e2a62522 	adc	r2, r6, #142606336	; 0x8800000

000002a4 <l43>:
     2a4:	000e9005 	andeq	r9, lr, r5

000002a8 <l44>:
     2a8:	d1de9be9 	bicsle	r9, lr, r9, ror #23

000002ac <l45>:
     2ac:	d3e0bb81 	mvnle	fp, #132096	; 0x20400

000002b0 <l46>:
     2b0:	ea000000 	b	2b8 <l48>

000002b4 <l47>:
     2b4:	eafffff8 	b	29c <l41>

000002b8 <l48>:
     2b8:	c3998ee6 	orrsgt	r8, r9, #3680	; 0xe60

000002bc <l49>:
     2bc:	ea000007 	b	2e0 <l58>

000002c0 <l50>:
     2c0:	e28010be 	add	r1, r0, #190	; 0xbe

000002c4 <l51>:
     2c4:	e3923c35 	orrs	r3, r2, #13568	; 0x3500

000002c8 <l52>:
     2c8:	e1350057 	teq	r5, r7, asr r0

000002cc <l53>:
     2cc:	731905dd 	tstvc	r9, #926941184	; 0x37400000

000002d0 <l54>:
     2d0:	5007b574 	andpl	fp, r7, r4, ror r5

000002d4 <l55>:
     2d4:	e1d4e339 	bics	lr, r4, r9, lsr r3

000002d8 <l56>:
     2d8:	e07a000f 	rsbs	r0, sl, pc

000002dc <l57>:
     2dc:	ea000000 	b	2e4 <l59>

000002e0 <l58>:
     2e0:	eafffff7 	b	2c4 <l51>

000002e4 <l59>:
     2e4:	e07e2558 	rsbs	r2, lr, r8, asr r5

000002e8 <l60>:
     2e8:	3134006b 	teqcc	r4, fp, rrx

000002ec <l61>:
     2ec:	e1140007 	tst	r4, r7

000002f0 <l62>:
     2f0:	e200100f 	and	r1, r0, #15

000002f4 <l63>:
     2f4:	a1a0a007 	movge	sl, r7

000002f8 <l64>:
     2f8:	226ab327 	rsbcs	fp, sl, #-1677721600	; 0x9c000000

000002fc <l65>:
     2fc:	522b951b 	eorpl	r9, fp, #113246208	; 0x6c00000

00000300 <l66>:
     300:	e3730a01 	cmn	r3, #4096	; 0x1000

00000304 <l67>:
     304:	61700d66 	cmnvs	r0, r6, ror #26

00000308 <l68>:
     308:	e20425a2 	and	r2, r4, #679477248	; 0x28800000

0000030c <l69>:
     30c:	c385230e 	orrgt	r2, r5, #939524096	; 0x38000000

00000310 <l70>:
     310:	416f5f1a 	clzmi	r5, sl

00000314 <l71>:
     314:	609b0ce4 	addsvs	r0, fp, r4, ror #25

00000318 <l72>:
     318:	109378eb 	addsne	r7, r3, fp, ror #17

0000031c <l73>:
     31c:	b1a06841 	asrlt	r6, r1, #16

00000320 <l74>:
     320:	e0a15004 	adc	r5, r1, r4

00000324 <l75>:
     324:	e1510b55 	cmp	r1, r5, asr fp

00000328 <l76>:
     328:	e2509c17 	subs	r9, r0, #5888	; 0x1700

0000032c <l77>:
     32c:	e2aac232 	adc	ip, sl, #536870915	; 0x20000003

00000330 <l78>:
     330:	333f0036 	teqcc	pc, #54	; 0x36

00000334 <l79>:
     334:	7a000007 	bvc	358 <l88>

00000338 <l80>:
     338:	10996da8 	addsne	r6, r9, r8, lsr #27

0000033c <l81>:
     33c:	21e0116e 	mvncs	r1, lr, ror #2

00000340 <l82>:
     340:	416f7f11 	clzmi	r7, r1

00000344 <l83>:
     344:	e133045c 	teq	r3, ip, asr r4

00000348 <l84>:
     348:	e1700b38 	cmn	r0, r8, lsr fp

0000034c <l85>:
     34c:	b0db5718 	sbcslt	r5, fp, r8, lsl r7

00000350 <l86>:
     350:	01530008 	cmpeq	r3, r8

00000354 <l87>:
     354:	c1560e7e 	cmpgt	r6, lr, ror lr

00000358 <l88>:
     358:	c13b000b 	teqgt	fp, fp

0000035c <l89>:
     35c:	da000005 	ble	378 <l96>

00000360 <l90>:
     360:	e2801049 	add	r1, r0, #73	; 0x49

00000364 <l91>:
     364:	724bb7a7 	subvc	fp, fp, #43778048	; 0x29c0000

00000368 <l92>:
     368:	e1a062ac 	lsr	r6, ip, #5

0000036c <l93>:
     36c:	60213436 	eorvs	r3, r1, r6, lsr r4

00000370 <l94>:
     370:	902c8000 	eorls	r8, ip, r0

00000374 <l95>:
     374:	ea000000 	b	37c <l97>

00000378 <l96>:
     378:	eafffff9 	b	364 <l91>

0000037c <l97>:
     37c:	c31a0d19 	tstgt	sl, #1600	; 0x640

00000380 <l98>:
     380:	7a000001 	bvc	38c <l101>

00000384 <l99>:
     384:	51a0a006 	movpl	sl, r6

00000388 <l100>:
     388:	e1a07006 	mov	r7, r6

0000038c <l101>:
     38c:	e1e0933c 	mvn	r9, ip, lsr r3

00000390 <l102>:
     390:	ea000006 	b	3b0 <l110>

00000394 <l103>:
     394:	e2801073 	add	r1, r0, #115	; 0x73

00000398 <l104>:
     398:	e26a9113 	rsb	r9, sl, #-1073741820	; 0xc0000004

0000039c <l105>:
     39c:	2182500f 	orrcs	r5, r2, pc

000003a0 <l106>:
     3a0:	e35008f5 	cmp	r0, #16056320	; 0xf50000

000003a4 <l107>:
     3a4:	01823143 	orreq	r3, r2, r3, asr #2

000003a8 <l108>:
     3a8:	d2362cfe 	eorsle	r2, r6, #65024	; 0xfe00

000003ac <l109>:
     3ac:	ea000000 	b	3b4 <l111>

000003b0 <l110>:
     3b0:	eafffff8 	b	398 <l104>

000003b4 <l111>:
     3b4:	e069cb57 	rsb	ip, r9, r7, asr fp

000003b8 <l112>:
     3b8:	ea000002 	b	3c8 <l116>

000003bc <l113>:
     3bc:	e2801081 	add	r1, r0, #129	; 0x81

000003c0 <l114>:
     3c0:	e1540735 	cmp	r4, r5, lsr r7

000003c4 <l115>:
     3c4:	ea000000 	b	3cc <l117>

000003c8 <l116>:
     3c8:	eafffffc 	b	3c0 <l114>

000003cc <l117>:
     3cc:	302ba062 	eorcc	sl, fp, r2, rrx

000003d0 <l118>:
     3d0:	a053bce5 	subsge	fp, r3, r5, ror #25

000003d4 <l119>:
     3d4:	02164a97 	andseq	r4, r6, #618496	; 0x97000

000003d8 <l120>:
     3d8:	81730009 	cmnhi	r3, r9

000003dc <l121>:
     3dc:	80015833 	andhi	r5, r1, r3, lsr r8

000003e0 <l122>:
     3e0:	e05b606b 	subs	r6, fp, fp, rrx

000003e4 <l123>:
     3e4:	d0af6d0f 	adcle	r6, pc, pc, lsl #26

000003e8 <l124>:
     3e8:	e0cc7000 	sbc	r7, ip, r0

000003ec <l125>:
     3ec:	41a01004 	movmi	r1, r4

000003f0 <l126>:
     3f0:	50109001 	andspl	r9, r0, r1

000003f4 <l127>:
     3f4:	c114006e 	tstgt	r4, lr, rrx

000003f8 <l128>:
     3f8:	80a6206c 	adchi	r2, r6, ip, rrx

000003fc <l129>:
     3fc:	e53da03c 	ldr	sl, [sp, #-60]!	; 0x3c

00000400 <l130>:
     400:	e172070f 	cmn	r2, pc, lsl #14

00000404 <l131>:
     404:	7a000005 	bvc	420 <l138>

00000408 <l132>:
     408:	e2801014 	add	r1, r0, #20

0000040c <l133>:
     40c:	41c75335 	bicmi	r5, r7, r5, lsr r3

00000410 <l134>:
     410:	916f7f18 	clzls	r7, r8

00000414 <l135>:
     414:	d1730003 	cmnle	r3, r3

00000418 <l136>:
     418:	e2c87f59 	sbc	r7, r8, #356	; 0x164

0000041c <l137>:
     41c:	ea000000 	b	424 <l139>

00000420 <l138>:
     420:	eafffff9 	b	40c <l133>

00000424 <l139>:
     424:	e48de028 	str	lr, [sp], #40	; 0x28

00000428 <l140>:
     428:	5a000005 	bpl	444 <l147>

0000042c <l141>:
     42c:	8015b061 	andshi	fp, r5, r1, rrx

00000430 <l142>:
     430:	83100000 	tsthi	r0, #0

00000434 <l143>:
     434:	e15e0006 	cmp	lr, r6

00000438 <l144>:
     438:	11130003 	tstne	r3, r3

0000043c <l145>:
     43c:	a1100007 	tstge	r0, r7

00000440 <l146>:
     440:	31730e7c 	cmncc	r3, ip, ror lr

00000444 <l147>:
     444:	60ae3004 	adcvs	r3, lr, r4

00000448 <l148>:
     448:	e001e158 	and	lr, r1, r8, asr r1

0000044c <l149>:
     44c:	9319092b 	tstls	r9, #704512	; 0xac000

00000450 <l150>:
     450:	e33b0c56 	teq	fp, #22016	; 0x5600

00000454 <l151>:
     454:	73b0862e 	movsvc	r8, #48234496	; 0x2e00000

00000458 <l152>:
     458:	205b2875 	subscs	r2, fp, r5, ror r8

0000045c <l153>:
     45c:	e20a451b 	and	r4, sl, #113246208	; 0x6c00000

00000460 <l154>:
     460:	70df406a 	sbcsvc	r4, pc, sl, rrx

00000464 <l155>:
     464:	e39ee3da 	orrs	lr, lr, #1744830467	; 0x68000003

00000468 <l156>:
     468:	9a000002 	bls	478 <l160>

0000046c <l157>:
     46c:	e280105a 	add	r1, r0, #90	; 0x5a

00000470 <l158>:
     470:	b37407de 	cmnlt	r4, #58195968	; 0x3780000

00000474 <l159>:
     474:	ea000000 	b	47c <l161>

00000478 <l160>:
     478:	eafffffc 	b	470 <l158>

0000047c <l161>:
     47c:	e3a01008 	mov	r1, #8

00000480 <l162>:
     480:	e79d8001 	ldr	r8, [sp, r1]

00000484 <l163>:
     484:	91710c4c 	cmnls	r1, ip, asr #24

00000488 <l164>:
     488:	816f2f1a 	clzhi	r2, sl

0000048c <l165>:
     48c:	e1a0300f 	mov	r3, pc

00000490 <l166>:
     490:	4021224f 	eormi	r2, r1, pc, asr #4

00000494 <l167>:
     494:	e48d9000 	str	r9, [sp], #0

00000498 <l168>:
     498:	b1130003 	tstlt	r3, r3

0000049c <l169>:
     49c:	6a000008 	bvs	4c4 <l179>

000004a0 <l170>:
     4a0:	e13a0206 	teq	sl, r6, lsl #4

000004a4 <l171>:
     4a4:	91968ea6 	orrsls	r8, r6, r6, lsr #29

000004a8 <l172>:
     4a8:	b1730b6c 	cmnlt	r3, ip, ror #22

000004ac <l173>:
     4ac:	604b300b 	subvs	r3, fp, fp

000004b0 <l174>:
     4b0:	d2809d05 	addle	r9, r0, #320	; 0x140

000004b4 <l175>:
     4b4:	b1a08435 	lsrlt	r8, r5, r4

000004b8 <l176>:
     4b8:	21f0a769 	mvnscs	sl, r9, ror #14

000004bc <l177>:
     4bc:	e1e0c063 	mvn	ip, r3, rrx

000004c0 <l178>:
     4c0:	e1d20062 	bics	r0, r2, r2, rrx

000004c4 <l179>:
     4c4:	1114088f 	tstne	r4, pc, lsl #17

000004c8 <l180>:
     4c8:	c2a4e2d7 	adcgt	lr, r4, #1879048205	; 0x7000000d

000004cc <l181>:
     4cc:	306bcd21 	rsbcc	ip, fp, r1, lsr #26

000004d0 <l182>:
     4d0:	c0821742 	addgt	r1, r2, r2, asr #14

000004d4 <l183>:
     4d4:	e0d03002 	sbcs	r3, r0, r2

000004d8 <l184>:
     4d8:	b16fcf11 	clzlt	ip, r1

000004dc <l185>:
     4dc:	416f5f16 	clzmi	r5, r6

000004e0 <l186>:
     4e0:	624e8b03 	subvs	r8, lr, #3072	; 0xc00

000004e4 <l187>:
     4e4:	e1310005 	teq	r1, r5

000004e8 <l188>:
     4e8:	103e3e85 	eorsne	r3, lr, r5, lsl #29

000004ec <l189>:
     4ec:	c11a000f 	tstgt	sl, pc

000004f0 <l190>:
     4f0:	33de7f93 	bicscc	r7, lr, #588	; 0x24c

000004f4 <l191>:
     4f4:	00d70acc 	sbcseq	r0, r7, ip, asr #21

000004f8 <l192>:
     4f8:	42d21aa6 	sbcsmi	r1, r2, #679936	; 0xa6000

000004fc <l193>:
     4fc:	91320000 	teqls	r2, r0

00000500 <l194>:
     500:	316faf13 	clzcc	sl, r3

00000504 <l195>:
     504:	0226bed6 	eoreq	fp, r6, #3424	; 0xd60

00000508 <l196>:
     508:	30d67c59 	sbcscc	r7, r6, r9, asr ip

0000050c <l197>:
     50c:	e16fcf11 	clz	ip, r1

00000510 <l198>:
     510:	e333061b 	teq	r3, #28311552	; 0x1b00000

00000514 <l199>:
     514:	ea000003 	b	528 <l204>

00000518 <l200>:
     518:	c0752851 	rsbsgt	r2, r5, r1, asr r8

0000051c <l201>:
     51c:	a2148c26 	andsge	r8, r4, #9728	; 0x2600

00000520 <l202>:
     520:	e0182a62 	ands	r2, r8, r2, ror #20

00000524 <l203>:
     524:	e02b600a 	eor	r6, fp, sl

00000528 <l204>:
     528:	e0da3a48 	sbcs	r3, sl, r8, asr #20

0000052c <l205>:
     52c:	e15a0060 	cmp	sl, r0, rrx

00000530 <l206>:
     530:	21510938 	cmpcs	r1, r8, lsr r9

00000534 <l207>:
     534:	e1cfe28c 	bic	lr, pc, ip, lsl #5

00000538 <l208>:
     538:	e0432313 	sub	r2, r3, r3, lsl r3

0000053c <l209>:
     53c:	722295b1 	eorvc	r9, r2, #742391808	; 0x2c400000

00000540 <l210>:
     540:	e2591d52 	subs	r1, r9, #5248	; 0x1480

00000544 <l211>:
     544:	e113000b 	tst	r3, fp

00000548 <l212>:
     548:	e06f1007 	rsb	r1, pc, r7

0000054c <l213>:
     54c:	e39a05ff 	orrs	r0, sl, #1069547520	; 0x3fc00000

00000550 <l214>:
     550:	002eb066 	eoreq	fp, lr, r6, rrx

00000554 <l215>:
     554:	102213e8 	eorne	r1, r2, r8, ror #7

00000558 <l216>:
     558:	1038806e 	eorsne	r8, r8, lr, rrx

0000055c <l217>:
     55c:	80513817 	subshi	r3, r1, r7, lsl r8

00000560 <l218>:
     560:	a203269b 	andge	r2, r3, #162529280	; 0x9b00000

00000564 <l219>:
     564:	d065e963 	rsble	lr, r5, r3, ror #18

00000568 <l220>:
     568:	e1770755 	cmn	r7, r5, asr r7

0000056c <l221>:
     56c:	e3580762 	cmp	r8, #25690112	; 0x1880000

00000570 <l222>:
     570:	e1865b14 	orr	r5, r6, r4, lsl fp

00000574 <l223>:
     574:	e082068f 	add	r0, r2, pc, lsl #13

00000578 <l224>:
     578:	11760001 	cmnne	r6, r1

0000057c <l225>:
     57c:	e04c413c 	sub	r4, ip, ip, lsr r1

00000580 <l226>:
     580:	e05216ee 	subs	r1, r2, lr, ror #13

00000584 <l227>:
     584:	e0743006 	rsbs	r3, r4, r6

00000588 <l228>:
     588:	305a44a6 	subscc	r4, sl, r6, lsr #9

0000058c <l229>:
     58c:	e027c000 	eor	ip, r7, r0

00000590 <l230>:
     590:	50c40065 	sbcpl	r0, r4, r5, rrx

00000594 <l231>:
     594:	e48dc004 	str	ip, [sp], #4

00000598 <l232>:
     598:	da000002 	ble	5a8 <l236>

0000059c <l233>:
     59c:	e2801020 	add	r1, r0, #32

000005a0 <l234>:
     5a0:	e1dc8067 	bics	r8, ip, r7, rrx

000005a4 <l235>:
     5a4:	ea000000 	b	5ac <l237>

000005a8 <l236>:
     5a8:	eafffffc 	b	5a0 <l234>

000005ac <l237>:
     5ac:	e20eb9ea 	and	fp, lr, #3833856	; 0x3a8000

000005b0 <l238>:
     5b0:	a1f05061 	mvnsge	r5, r1, rrx

000005b4 <l239>:
     5b4:	716f5f1a 	clzvc	r5, sl

000005b8 <l240>:
     5b8:	e1c16072 	bic	r6, r1, r2, ror r0

000005bc <l241>:
     5bc:	0a000002 	beq	5cc <l245>

000005c0 <l242>:
     5c0:	e2801089 	add	r1, r0, #137	; 0x89

000005c4 <l243>:
     5c4:	52b07b03 	adcspl	r7, r0, #3072	; 0xc00

000005c8 <l244>:
     5c8:	ea000000 	b	5d0 <l246>

000005cc <l245>:
     5cc:	eafffffc 	b	5c4 <l243>

000005d0 <l246>:
     5d0:	ea000002 	b	5e0 <l250>

000005d4 <l247>:
     5d4:	e2801041 	add	r1, r0, #65	; 0x41

000005d8 <l248>:
     5d8:	020ea861 	andeq	sl, lr, #6356992	; 0x610000

000005dc <l249>:
     5dc:	ea000000 	b	5e4 <l251>

000005e0 <l250>:
     5e0:	eafffffc 	b	5d8 <l248>

000005e4 <l251>:
     5e4:	d1f0a007 	mvnsle	sl, r7

000005e8 <l252>:
     5e8:	6a000005 	bvs	604 <l259>

000005ec <l253>:
     5ec:	e28010a3 	add	r1, r0, #163	; 0xa3

000005f0 <l254>:
     5f0:	91180064 	tstls	r8, r4, rrx

000005f4 <l255>:
     5f4:	502e386f 	eorpl	r3, lr, pc, ror #16

000005f8 <l256>:
     5f8:	e16fbf13 	clz	fp, r3

000005fc <l257>:
     5fc:	308fc224 	addcc	ip, pc, r4, lsr #4

00000600 <l258>:
     600:	ea000000 	b	608 <l260>

00000604 <l259>:
     604:	eafffff9 	b	5f0 <l254>

00000608 <l260>:
     608:	aa000005 	bge	624 <l267>

0000060c <l261>:
     60c:	e28010e0 	add	r1, r0, #224	; 0xe0

00000610 <l262>:
     610:	c06c5e60 	rsbgt	r5, ip, r0, ror #28

00000614 <l263>:
     614:	335c0ec7 	cmpcc	ip, #3184	; 0xc70

00000618 <l264>:
     618:	d1b08008 	movsle	r8, r8

0000061c <l265>:
     61c:	303a444a 	eorscc	r4, sl, sl, asr #8

00000620 <l266>:
     620:	ea000000 	b	628 <l268>

00000624 <l267>:
     624:	eafffff9 	b	610 <l262>

00000628 <l268>:
     628:	e2f0b917 	rscs	fp, r0, #376832	; 0x5c000

0000062c <l269>:
     62c:	30c96755 	sbccc	r6, r9, r5, asr r7

00000630 <l270>:
     630:	619e4b34 	orrsvs	r4, lr, r4, lsr fp

00000634 <l271>:
     634:	e0569576 	subs	r9, r6, r6, ror r5

00000638 <l272>:
     638:	a0542b87 	subsge	r2, r4, r7, lsl #23

0000063c <l273>:
     63c:	525e57b7 	subspl	r5, lr, #47972352	; 0x2dc0000

00000640 <l274>:
     640:	c016200a 	andsgt	r2, r6, sl

00000644 <l275>:
     644:	aa000003 	bge	658 <l280>

00000648 <l276>:
     648:	e28010d0 	add	r1, r0, #208	; 0xd0

0000064c <l277>:
     64c:	1196b14e 	orrsne	fp, r6, lr, asr #2

00000650 <l278>:
     650:	22253c29 	eorcs	r3, r5, #10496	; 0x2900

00000654 <l279>:
     654:	ea000000 	b	65c <l281>

00000658 <l280>:
     658:	eafffffb 	b	64c <l277>

0000065c <l281>:
     65c:	91a02000 	movls	r2, r0

00000660 <l282>:
     660:	51b09006 	movspl	r9, r6

00000664 <l283>:
     664:	82027483 	andhi	r7, r2, #-2097152000	; 0x83000000

00000668 <l284>:
     668:	621ee4a7 	andsvs	lr, lr, #-1493172224	; 0xa7000000

0000066c <l285>:
     66c:	a197b00a 	orrsge	fp, r7, sl

00000670 <l286>:
     670:	c138000e 	teqgt	r8, lr

00000674 <l287>:
     674:	a03a2001 	eorsge	r2, sl, r1

00000678 <l288>:
     678:	ea000000 	b	680 <l290>

0000067c <l289>:
     67c:	e3b0e256 	movs	lr, #1610612741	; 0x60000005

00000680 <l290>:
     680:	e0040061 	and	r0, r4, r1, rrx

00000684 <l291>:
     684:	e2cee73d 	sbc	lr, lr, #15990784	; 0xf40000

00000688 <l292>:
     688:	6246cee9 	subvs	ip, r6, #3728	; 0xe90

0000068c <l293>:
     68c:	60cbc757 	sbcvs	ip, fp, r7, asr r7

00000690 <l294>:
     690:	2a000003 	bcs	6a4 <l299>

00000694 <l295>:
     694:	2052500f 	subscs	r5, r2, pc

00000698 <l296>:
     698:	e1a0406c 	rrx	r4, ip

0000069c <l297>:
     69c:	e1140006 	tst	r4, r6

000006a0 <l298>:
     6a0:	a2c42393 	sbcge	r2, r4, #1275068418	; 0x4c000002

000006a4 <l299>:
     6a4:	e1cb9069 	bic	r9, fp, r9, rrx

000006a8 <l300>:
     6a8:	e3cc901d 	bic	r9, ip, #29

000006ac <l301>:
     6ac:	e00f5066 	and	r5, pc, r6, rrx

000006b0 <l302>:
     6b0:	e3a0100c 	mov	r1, #12

000006b4 <l303>:
     6b4:	e69d3001 	ldr	r3, [sp], r1

000006b8 <l304>:
     6b8:	3044c000 	subcc	ip, r4, r0

000006bc <l305>:
     6bc:	e0ea6f29 	rsc	r6, sl, r9, lsr #30

000006c0 <l306>:
     6c0:	83540b19 	cmphi	r4, #25600	; 0x6400

000006c4 <l307>:
     6c4:	e3a02038 	mov	r2, #56	; 0x38

000006c8 <l308>:
     6c8:	a71dc002 	ldrge	ip, [sp, -r2]

000006cc <l309>:
     6cc:	717b0061 	cmnvc	fp, r1, rrx

000006d0 <l310>:
     6d0:	20f92065 	rscscs	r2, r9, r5, rrx

000006d4 <l311>:
     6d4:	b1876005 	orrlt	r6, r7, r5

000006d8 <l312>:
     6d8:	80c5a005 	sbchi	sl, r5, r5

000006dc <l313>:
     6dc:	4020a311 	eormi	sl, r0, r1, lsl r3

000006e0 <l314>:
     6e0:	e18e806e 	orr	r8, lr, lr, rrx

000006e4 <l315>:
     6e4:	e3a0c014 	mov	ip, #20

000006e8 <l316>:
     6e8:	e72d100c 	str	r1, [sp, -ip]!

000006ec <l317>:
     6ec:	e014c830 	ands	ip, r4, r0, lsr r8

000006f0 <l318>:
     6f0:	a0510c2b 	subsge	r0, r1, fp, lsr #24

000006f4 <l319>:
     6f4:	e0db6069 	sbcs	r6, fp, r9, rrx

000006f8 <l320>:
     6f8:	e40d7024 	str	r7, [sp], #-36	; 0x24

000006fc <l321>:
     6fc:	e280481a 	add	r4, r0, #1703936	; 0x1a0000

00000700 <l322>:
     700:	e58d603c 	str	r6, [sp, #60]	; 0x3c

00000704 <l323>:
     704:	e0cc100b 	sbc	r1, ip, fp

00000708 <l324>:
     708:	a16fbf11 	clzge	fp, r1

0000070c <l325>:
     70c:	511c0009 	tstpl	ip, r9

00000710 <l326>:
     710:	e3140064 	tst	r4, #100	; 0x64

00000714 <l327>:
     714:	ea000003 	b	728 <l332>

00000718 <l328>:
     718:	e28010fd 	add	r1, r0, #253	; 0xfd

0000071c <l329>:
     71c:	e1d3b066 	bics	fp, r3, r6, rrx

00000720 <l330>:
     720:	e0cb783e 	sbc	r7, fp, lr, lsr r8

00000724 <l331>:
     724:	ea000000 	b	72c <l333>

00000728 <l332>:
     728:	eafffffb 	b	71c <l329>

0000072c <l333>:
     72c:	ba000005 	blt	748 <l340>

00000730 <l334>:
     730:	e1180717 	tst	r8, r7, lsl r7

00000734 <l335>:
     734:	21110553 	tstcs	r1, r3, asr r5

00000738 <l336>:
     738:	b0f7bd45 	rscslt	fp, r7, r5, asr #26

0000073c <l337>:
     73c:	e1300160 	teq	r0, r0, ror #2

00000740 <l338>:
     740:	e3d15d2d 	bics	r5, r1, #2880	; 0xb40

00000744 <l339>:
     744:	e3f04f86 	mvns	r4, #536	; 0x218

00000748 <l340>:
     748:	e0129239 	ands	r9, r2, r9, lsr r2

0000074c <l341>:
     74c:	91852007 	orrls	r2, r5, r7

00000750 <l342>:
     750:	e150000c 	cmp	r0, ip

00000754 <l343>:
     754:	e49d1018 	ldr	r1, [sp], #24

00000758 <l344>:
     758:	e0754546 	rsbs	r4, r5, r6, asr #10

0000075c <l345>:
     75c:	a3dec2d9 	bicsge	ip, lr, #-1879048179	; 0x9000000d

00000760 <l346>:
     760:	816fcf18 	clzhi	ip, r8

00000764 <l347>:
     764:	4139006a 	teqmi	r9, sl, rrx

00000768 <l348>:
     768:	a16faf17 	clzge	sl, r7

0000076c <l349>:
     76c:	b0590000 	subslt	r0, r9, r0

00000770 <l350>:
     770:	e53d600c 	ldr	r6, [sp, #-12]!

00000774 <l351>:
     774:	e2b06f96 	adcs	r6, r0, #600	; 0x258

00000778 <l352>:
     778:	a283605e 	addge	r6, r3, #94	; 0x5e

0000077c <l353>:
     77c:	e1e02060 	mvn	r2, r0, rrx

00000780 <l354>:
     780:	802c707a 	eorhi	r7, ip, sl, ror r0

00000784 <l355>:
     784:	ea000003 	b	798 <l360>

00000788 <l356>:
     788:	e2801017 	add	r1, r0, #23

0000078c <l357>:
     78c:	705be00f 	subsvc	lr, fp, pc

00000790 <l358>:
     790:	e1590c50 	cmp	r9, r0, asr ip

00000794 <l359>:
     794:	ea000000 	b	79c <l361>

00000798 <l360>:
     798:	eafffffb 	b	78c <l357>

0000079c <l361>:
     79c:	e3a07010 	mov	r7, #16

000007a0 <l362>:
     7a0:	aa000002 	bge	7b0 <l366>

000007a4 <l363>:
     7a4:	82a1c47b 	adchi	ip, r1, #2063597568	; 0x7b000000

000007a8 <l364>:
     7a8:	113409e6 	teqne	r4, r6, ror #19

000007ac <l365>:
     7ac:	e15b0066 	cmp	fp, r6, rrx

000007b0 <l366>:
     7b0:	0008200a 	andeq	r2, r8, sl

000007b4 <l367>:
     7b4:	e0f07063 	rscs	r7, r0, r3, rrx

000007b8 <l368>:
     7b8:	1157062a 	cmpne	r7, sl, lsr #12

000007bc <l369>:
     7bc:	91ce64cc 	bicls	r6, lr, ip, asr #9

000007c0 <l370>:
     7c0:	c0a915c7 	adcgt	r1, r9, r7, asr #11

000007c4 <l371>:
     7c4:	e0c3a031 	sbc	sl, r3, r1, lsr r0

000007c8 <l372>:
     7c8:	e00e2062 	and	r2, lr, r2, rrx

000007cc <l373>:
     7cc:	e358061e 	cmp	r8, #31457280	; 0x1e00000

000007d0 <l374>:
     7d0:	6a000005 	bvs	7ec <l381>

000007d4 <l375>:
     7d4:	013c0006 	teqeq	ip, r6

000007d8 <l376>:
     7d8:	4273865b 	rsbsmi	r8, r3, #95420416	; 0x5b00000

000007dc <l377>:
     7dc:	51e0b5ac 	mvnpl	fp, ip, lsr #11

000007e0 <l378>:
     7e0:	e35f049e 	cmp	pc, #-1644167168	; 0x9e000000

000007e4 <l379>:
     7e4:	4132000f 	teqmi	r2, pc

000007e8 <l380>:
     7e8:	1079900e 	rsbsne	r9, r9, lr

000007ec <l381>:
     7ec:	716f0f18 	clzvc	r0, r8

000007f0 <l382>:
     7f0:	8a000000 	bhi	7f8 <l384>

000007f4 <l383>:
     7f4:	11560e33 	cmpne	r6, r3, lsr lr

000007f8 <l384>:
     7f8:	e0504000 	subs	r4, r0, r0

000007fc <l385>:
     7fc:	e243b242 	sub	fp, r3, #536870916	; 0x20000004

00000800 <l386>:
     800:	e0dc2b77 	sbcs	r2, ip, r7, ror fp

00000804 <l387>:
     804:	e2fc2927 	rscs	r2, ip, #638976	; 0x9c000

00000808 <l388>:
     808:	6a000008 	bvs	830 <l398>

0000080c <l389>:
     80c:	007f6000 	rsbseq	r6, pc, r0

00000810 <l390>:
     810:	e038834c 	eors	r8, r8, ip, asr #6

00000814 <l391>:
     814:	e16faf19 	clz	sl, r9

00000818 <l392>:
     818:	2085ea1b 	addcs	lr, r5, fp, lsl sl

0000081c <l393>:
     81c:	01c14e1c 	biceq	r4, r1, ip, lsl lr

00000820 <l394>:
     820:	12bca35d 	adcsne	sl, ip, #1946157057	; 0x74000001

00000824 <l395>:
     824:	d00c6061 	andle	r6, ip, r1, rrx

00000828 <l396>:
     828:	23d47bb1 	bicscs	r7, r4, #181248	; 0x2c400

0000082c <l397>:
     82c:	e04a18ee 	sub	r1, sl, lr, ror #17

00000830 <l398>:
     830:	d0127004 	andsle	r7, r2, r4

00000834 <l399>:
     834:	41c53004 	bicmi	r3, r5, r4

00000838 <l400>:
     838:	b313042e 	tstlt	r3, #771751936	; 0x2e000000

0000083c <l401>:
     83c:	e086484a 	add	r4, r6, sl, asr #16

00000840 <l402>:
     840:	61853da9 	orrvs	r3, r5, r9, lsr #27

00000844 <l403>:
     844:	1088bac3 	addne	fp, r8, r3, asr #21

00000848 <l404>:
     848:	ea000005 	b	864 <l411>

0000084c <l405>:
     84c:	e28010ee 	add	r1, r0, #238	; 0xee

00000850 <l406>:
     850:	70c34065 	sbcvc	r4, r3, r5, rrx

00000854 <l407>:
     854:	7096e062 	addsvc	lr, r6, r2, rrx

00000858 <l408>:
     858:	516fef10 	clzpl	lr, r0

0000085c <l409>:
     85c:	304b5004 	subcc	r5, fp, r4

00000860 <l410>:
     860:	ea000000 	b	868 <l412>

00000864 <l411>:
     864:	eafffff9 	b	850 <l406>

00000868 <l412>:
     868:	e2218206 	eor	r8, r1, #1610612736	; 0x60000000

0000086c <l413>:
     86c:	1a000005 	bne	888 <l420>

00000870 <l414>:
     870:	e28010f0 	add	r1, r0, #240	; 0xf0

00000874 <l415>:
     874:	716fef15 	clzvc	lr, r5

00000878 <l416>:
     878:	415b006e 	cmpmi	fp, lr, rrx

0000087c <l417>:
     87c:	804e4e4e 	subhi	r4, lr, lr, asr #28

00000880 <l418>:
     880:	316f6f10 	clzcc	r6, r0

00000884 <l419>:
     884:	ea000000 	b	88c <l421>

00000888 <l420>:
     888:	eafffff9 	b	874 <l415>

0000088c <l421>:
     88c:	e048b009 	sub	fp, r8, r9

00000890 <l422>:
     890:	80356008 	eorshi	r6, r5, r8

00000894 <l423>:
     894:	502a4067 	eorpl	r4, sl, r7, rrx

00000898 <l424>:
     898:	e2c234ca 	sbc	r3, r2, #-905969664	; 0xca000000

0000089c <l425>:
     89c:	e1d2162c 	bics	r1, r2, ip, lsr #12

000008a0 <l426>:
     8a0:	e2165c06 	ands	r5, r6, #1536	; 0x600

000008a4 <l427>:
     8a4:	e1e04aac 	mvn	r4, ip, lsr #21

000008a8 <l428>:
     8a8:	e13b0672 	teq	fp, r2, ror r6

000008ac <l429>:
     8ac:	22a6c9d5 	adccs	ip, r6, #3489792	; 0x354000

000008b0 <l430>:
     8b0:	10772bca 	rsbsne	r2, r7, sl, asr #23

000008b4 <l431>:
     8b4:	2a000005 	bcs	8d0 <l438>

000008b8 <l432>:
     8b8:	e280108e 	add	r1, r0, #142	; 0x8e

000008bc <l433>:
     8bc:	5021ad6e 	eorpl	sl, r1, lr, ror #26

000008c0 <l434>:
     8c0:	e0100985 	ands	r0, r0, r5, lsl #19

000008c4 <l435>:
     8c4:	717c0005 	cmnvc	ip, r5

000008c8 <l436>:
     8c8:	a17800a1 	cmnge	r8, r1, lsr #1

000008cc <l437>:
     8cc:	ea000000 	b	8d4 <l439>

000008d0 <l438>:
     8d0:	eafffff9 	b	8bc <l433>

000008d4 <l439>:
     8d4:	e1cf172e 	bic	r1, pc, lr, lsr #14

000008d8 <l440>:
     8d8:	0199c281 	orrseq	ip, r9, r1, lsl #5

000008dc <l441>:
     8dc:	e48d6014 	str	r6, [sp], #20

000008e0 <l442>:
     8e0:	b172065a 	cmnlt	r2, sl, asr r6

000008e4 <l443>:
     8e4:	e52de018 	str	lr, [sp, #-24]!

000008e8 <l444>:
     8e8:	416f9f1c 	clzmi	r9, ip

000008ec <l445>:
     8ec:	ea000006 	b	90c <l453>

000008f0 <l446>:
     8f0:	e28010b9 	add	r1, r0, #185	; 0xb9

000008f4 <l447>:
     8f4:	9177000c 	cmnls	r7, ip

000008f8 <l448>:
     8f8:	e23bbd33 	eors	fp, fp, #3264	; 0xcc0

000008fc <l449>:
     8fc:	007c65a9 	rsbseq	r6, ip, r9, lsr #11

00000900 <l450>:
     900:	118baa6b 	orrne	sl, fp, fp, ror #20

00000904 <l451>:
     904:	70b0800b 	adcsvc	r8, r0, fp

00000908 <l452>:
     908:	ea000000 	b	910 <l454>

0000090c <l453>:
     90c:	eafffff8 	b	8f4 <l447>

00000910 <l454>:
     910:	ea000007 	b	934 <l463>

00000914 <l455>:
     914:	e28010cd 	add	r1, r0, #205	; 0xcd

00000918 <l456>:
     918:	a1d0e008 	bicsge	lr, r0, r8

0000091c <l457>:
     91c:	8359080b 	cmphi	r9, #720896	; 0xb0000

00000920 <l458>:
     920:	e0f49067 	rscs	r9, r4, r7, rrx

00000924 <l459>:
     924:	21b0800e 	movscs	r8, lr

00000928 <l460>:
     928:	e1e0700a 	mvn	r7, sl

0000092c <l461>:
     92c:	e2ca67e1 	sbc	r6, sl, #58982400	; 0x3840000

00000930 <l462>:
     930:	ea000000 	b	938 <l464>

00000934 <l463>:
     934:	eafffff7 	b	918 <l456>

00000938 <l464>:
     938:	a04ab038 	subge	fp, sl, r8, lsr r0

0000093c <l465>:
     93c:	e1780a10 	cmn	r8, r0, lsl sl

00000940 <l466>:
     940:	e0cb9009 	sbc	r9, fp, r9

00000944 <l467>:
     944:	ea000004 	b	95c <l473>

00000948 <l468>:
     948:	e280102c 	add	r1, r0, #44	; 0x2c

0000094c <l469>:
     94c:	c16f7f19 	clzgt	r7, r9

00000950 <l470>:
     950:	61dac473 	bicsvs	ip, sl, r3, ror r4

00000954 <l471>:
     954:	e0abbe04 	adc	fp, fp, r4, lsl #28

00000958 <l472>:
     958:	ea000000 	b	960 <l474>

0000095c <l473>:
     95c:	eafffffa 	b	94c <l469>

00000960 <l474>:
     960:	30299427 	eorcc	r9, r9, r7, lsr #8

00000964 <l475>:
     964:	53b04070 	movspl	r4, #112	; 0x70

00000968 <l476>:
     968:	61d3b86b 	bicsvs	fp, r3, fp, ror #16

0000096c <l477>:
     96c:	32813633 	addcc	r3, r1, #53477376	; 0x3300000

00000970 <l478>:
     970:	525cc32f 	subspl	ip, ip, #-1140850688	; 0xbc000000

00000974 <l479>:
     974:	e1710006 	cmn	r1, r6

00000978 <l480>:
     978:	10421018 	subne	r1, r2, r8, lsl r0

0000097c <l481>:
     97c:	b31f03fe 	tstlt	pc, #-134217725	; 0xf8000003

00000980 <l482>:
     980:	e58d4038 	str	r4, [sp, #56]	; 0x38

00000984 <l483>:
     984:	e1a0700f 	mov	r7, pc

00000988 <l484>:
     988:	61720067 	cmnvs	r2, r7, rrx

0000098c <l485>:
     98c:	12193106 	andsne	r3, r9, #-2147483647	; 0x80000001

00000990 <l486>:
     990:	e3500c0e 	cmp	r0, #3584	; 0xe00

00000994 <l487>:
     994:	c1dc2060 	bicsgt	r2, ip, r0, rrx

00000998 <l488>:
     998:	00f22008 	rscseq	r2, r2, r8

0000099c <l489>:
     99c:	e1730004 	cmn	r3, r4

000009a0 <l490>:
     9a0:	820fb8f7 	andhi	fp, pc, #16187392	; 0xf70000

000009a4 <l491>:
     9a4:	522ee932 	eorpl	lr, lr, #819200	; 0xc8000

000009a8 <l492>:
     9a8:	e1320165 	teq	r2, r5, ror #2

000009ac <l493>:
     9ac:	ea000006 	b	9cc <l501>

000009b0 <l494>:
     9b0:	e2801061 	add	r1, r0, #97	; 0x61

000009b4 <l495>:
     9b4:	e0545954 	subs	r5, r4, r4, asr r9

000009b8 <l496>:
     9b8:	e16f3f16 	clz	r3, r6

000009bc <l497>:
     9bc:	906c683c 	rsbls	r6, ip, ip, lsr r8

000009c0 <l498>:
     9c0:	115c020e 	cmpne	ip, lr, lsl #4

000009c4 <l499>:
     9c4:	925c8dc6 	subsls	r8, ip, #12672	; 0x3180

000009c8 <l500>:
     9c8:	ea000000 	b	9d0 <l502>

000009cc <l501>:
     9cc:	eafffff8 	b	9b4 <l495>

000009d0 <l502>:
     9d0:	ea000007 	b	9f4 <l511>

000009d4 <l503>:
     9d4:	e2801040 	add	r1, r0, #64	; 0x40

000009d8 <l504>:
     9d8:	216f7f11 	clzcs	r7, r1

000009dc <l505>:
     9dc:	e3730b92 	cmn	r3, #149504	; 0x24800

000009e0 <l506>:
     9e0:	e16fcf13 	clz	ip, r3

000009e4 <l507>:
     9e4:	924b3022 	subls	r3, fp, #34	; 0x22

000009e8 <l508>:
     9e8:	e0caaae9 	sbc	sl, sl, r9, ror #21

000009ec <l509>:
     9ec:	e16f0f15 	clz	r0, r5

000009f0 <l510>:
     9f0:	ea000000 	b	9f8 <l512>

000009f4 <l511>:
     9f4:	eafffff7 	b	9d8 <l504>

000009f8 <l512>:
     9f8:	ea000005 	b	a14 <l519>

000009fc <l513>:
     9fc:	e2801033 	add	r1, r0, #51	; 0x33

00000a00 <l514>:
     a00:	e057b359 	subs	fp, r7, r9, asr r3

00000a04 <l515>:
     a04:	b0dac006 	sbcslt	ip, sl, r6

00000a08 <l516>:
     a08:	22457107 	subcs	r7, r5, #-1073741823	; 0xc0000001

00000a0c <l517>:
     a0c:	e079a068 	rsbs	sl, r9, r8, rrx

00000a10 <l518>:
     a10:	ea000000 	b	a18 <l520>

00000a14 <l519>:
     a14:	eafffff9 	b	a00 <l514>

00000a18 <l520>:
     a18:	e03b0675 	eors	r0, fp, r5, ror r6

00000a1c <l521>:
     a1c:	e40d700c 	str	r7, [sp], #-12

00000a20 <l522>:
     a20:	e49de028 	ldr	lr, [sp], #40	; 0x28

00000a24 <l523>:
     a24:	e017a065 	ands	sl, r7, r5, rrx

00000a28 <l524>:
     a28:	72101807 	andsvc	r1, r0, #458752	; 0x70000

00000a2c <l525>:
     a2c:	e17c0e3c 	cmn	ip, ip, lsr lr

00000a30 <l526>:
     a30:	125a748a 	subsne	r7, sl, #-1979711488	; 0x8a000000

00000a34 <l527>:
     a34:	e2d1427e 	sbcs	r4, r1, #-536870905	; 0xe0000007

00000a38 <l528>:
     a38:	e1903467 	orrs	r3, r0, r7, ror #8

00000a3c <l529>:
     a3c:	b3c0503a 	biclt	r5, r0, #58	; 0x3a

00000a40 <l530>:
     a40:	a11f02c3 	tstge	pc, r3, asr #5

00000a44 <l531>:
     a44:	738e0afd 	orrvc	r0, lr, #1036288	; 0xfd000

00000a48 <l532>:
     a48:	e0d6a00a 	sbcs	sl, r6, sl

00000a4c <l533>:
     a4c:	416fcf19 	clzmi	ip, r9

00000a50 <l534>:
     a50:	e00cc001 	and	ip, ip, r1

00000a54 <l535>:
     a54:	e3d0333b 	bics	r3, r0, #-335544320	; 0xec000000

00000a58 <l536>:
     a58:	a1780370 	cmnge	r8, r0, ror r3

00000a5c <l537>:
     a5c:	22e473fe 	rsccs	r7, r4, #-134217725	; 0xf8000003

00000a60 <l538>:
     a60:	01801004 	orreq	r1, r0, r4

00000a64 <l539>:
     a64:	d1f0500c 	mvnsle	r5, ip

00000a68 <l540>:
     a68:	51540006 	cmppl	r4, r6

00000a6c <l541>:
     a6c:	42c14b95 	sbcmi	r4, r1, #152576	; 0x25400

00000a70 <l542>:
     a70:	9a000002 	bls	a80 <l546>

00000a74 <l543>:
     a74:	e2801007 	add	r1, r0, #7

00000a78 <l544>:
     a78:	3044ea49 	subcc	lr, r4, r9, asr #20

00000a7c <l545>:
     a7c:	ea000000 	b	a84 <l547>

00000a80 <l546>:
     a80:	eafffffc 	b	a78 <l544>

00000a84 <l547>:
     a84:	202b7355 	eorcs	r7, fp, r5, asr r3

00000a88 <l548>:
     a88:	71780001 	cmnvc	r8, r1

00000a8c <l549>:
     a8c:	61832e11 	orrvs	r2, r3, r1, lsl lr

00000a90 <l550>:
     a90:	9a000007 	bls	ab4 <l559>

00000a94 <l551>:
     a94:	71871008 	orrvc	r1, r7, r8

00000a98 <l552>:
     a98:	e0e4e328 	rsc	lr, r4, r8, lsr #6

00000a9c <l553>:
     a9c:	e16f0f11 	clz	r0, r1

00000aa0 <l554>:
     aa0:	e1809a3a 	orr	r9, r0, sl, lsr sl

00000aa4 <l555>:
     aa4:	b16f4f15 	clzlt	r4, r5

00000aa8 <l556>:
     aa8:	6173000e 	cmnvs	r3, lr

00000aac <l557>:
     aac:	e223ea0d 	eor	lr, r3, #53248	; 0xd000

00000ab0 <l558>:
     ab0:	611e0005 	tstvs	lr, r5

00000ab4 <l559>:
     ab4:	90ccea63 	sbcls	lr, ip, r3, ror #20

00000ab8 <l560>:
     ab8:	b20b6205 	andlt	r6, fp, #1342177280	; 0x50000000

00000abc <l561>:
     abc:	b3550d3d 	cmplt	r5, #3904	; 0xf40

00000ac0 <l562>:
     ac0:	e53d7020 	ldr	r7, [sp, #-32]!

00000ac4 <l563>:
     ac4:	c1a00753 	asrgt	r0, r3, r7

00000ac8 <l564>:
     ac8:	e15604c1 	cmp	r6, r1, asr #9

00000acc <l565>:
     acc:	61350729 	teqvs	r5, r9, lsr #14

00000ad0 <l566>:
     ad0:	e3a0001c 	mov	r0, #28

00000ad4 <l567>:
     ad4:	e7bd8000 	ldr	r8, [sp, r0]!

00000ad8 <l568>:
     ad8:	e3a04024 	mov	r4, #36	; 0x24

00000adc <l569>:
     adc:	e73d6004 	ldr	r6, [sp, -r4]!

00000ae0 <l570>:
     ae0:	e226a9d5 	eor	sl, r6, #3489792	; 0x354000

00000ae4 <l571>:
     ae4:	12067a1a 	andne	r7, r6, #106496	; 0x1a000

00000ae8 <l572>:
     ae8:	52072469 	andpl	r2, r7, #1761607680	; 0x69000000

00000aec <l573>:
     aec:	e1e06058 	mvn	r6, r8, asr r0

00000af0 <l574>:
     af0:	d1cce004 	bicle	lr, ip, r4

00000af4 <l575>:
     af4:	639c0312 	orrsvs	r0, ip, #1207959552	; 0x48000000

00000af8 <l576>:
     af8:	71560000 	cmpvc	r6, r0

00000afc <l577>:
     afc:	ea000008 	b	b24 <l587>

00000b00 <l578>:
     b00:	11f09009 	mvnsne	r9, r9

00000b04 <l579>:
     b04:	e153000b 	cmp	r3, fp

00000b08 <l580>:
     b08:	e16fcf18 	clz	ip, r8

00000b0c <l581>:
     b0c:	0285532b 	addeq	r5, r5, #-1409286144	; 0xac000000

00000b10 <l582>:
     b10:	e044a007 	sub	sl, r4, r7

00000b14 <l583>:
     b14:	70b41002 	adcsvc	r1, r4, r2

00000b18 <l584>:
     b18:	509c2002 	addspl	r2, ip, r2

00000b1c <l585>:
     b1c:	e053a06a 	subs	sl, r3, sl, rrx

00000b20 <l586>:
     b20:	01160a83 	tsteq	r6, r3, lsl #21

00000b24 <l587>:
     b24:	c02f9008 	eorgt	r9, pc, r8

00000b28 <l588>:
     b28:	216f2f14 	clzcs	r2, r4

00000b2c <l589>:
     b2c:	e17c031e 	cmn	ip, lr, lsl r3

00000b30 <l590>:
     b30:	d1d2500c 	bicsle	r5, r2, ip

00000b34 <l591>:
     b34:	e0719c59 	rsbs	r9, r1, r9, asr ip

00000b38 <l592>:
     b38:	ea000005 	b	b54 <l599>

00000b3c <l593>:
     b3c:	e280106f 	add	r1, r0, #111	; 0x6f

00000b40 <l594>:
     b40:	31f0300a 	mvnscc	r3, sl

00000b44 <l595>:
     b44:	01e07181 	mvneq	r7, r1, lsl #3

00000b48 <l596>:
     b48:	e1b0320a 	lsls	r3, sl, #4

00000b4c <l597>:
     b4c:	e03e3002 	eors	r3, lr, r2

00000b50 <l598>:
     b50:	ea000000 	b	b58 <l600>

00000b54 <l599>:
     b54:	eafffff9 	b	b40 <l594>

00000b58 <l600>:
     b58:	ea000004 	b	b70 <l606>

00000b5c <l601>:
     b5c:	a2f24536 	rscsge	r4, r2, #226492416	; 0xd800000

00000b60 <l602>:
     b60:	902eab43 	eorls	sl, lr, r3, asr #22

00000b64 <l603>:
     b64:	005e206b 	subseq	r2, lr, fp, rrx

00000b68 <l604>:
     b68:	e2dcb721 	sbcs	fp, ip, #8650752	; 0x840000

00000b6c <l605>:
     b6c:	e3ce322d 	bic	r3, lr, #-805306366	; 0xd0000002

00000b70 <l606>:
     b70:	00041259 	andeq	r1, r4, r9, asr r2

00000b74 <l607>:
     b74:	e3f03a1d 	mvns	r3, #118784	; 0x1d000

00000b78 <l608>:
     b78:	42300d0b 	eorsmi	r0, r0, #704	; 0x2c0

00000b7c <l609>:
     b7c:	90f4a679 	rscsls	sl, r4, r9, ror r6

00000b80 <l610>:
     b80:	117b0376 	cmnne	fp, r6, ror r3

00000b84 <l611>:
     b84:	e1110285 	tst	r1, r5, lsl #5

00000b88 <l612>:
     b88:	4a000000 	bmi	b90 <l614>

00000b8c <l613>:
     b8c:	e1a0a065 	rrx	sl, r5

00000b90 <l614>:
     b90:	e0b60161 	adcs	r0, r6, r1, ror #2

00000b94 <l615>:
     b94:	83f0c63f 	mvnshi	ip, #66060288	; 0x3f00000

00000b98 <l616>:
     b98:	6a000002 	bvs	ba8 <l620>

00000b9c <l617>:
     b9c:	e2801013 	add	r1, r0, #19

00000ba0 <l618>:
     ba0:	70011004 	andvc	r1, r1, r4

00000ba4 <l619>:
     ba4:	ea000000 	b	bac <l621>

00000ba8 <l620>:
     ba8:	eafffffc 	b	ba0 <l618>

00000bac <l621>:
     bac:	e03c0003 	eors	r0, ip, r3

00000bb0 <l622>:
     bb0:	8097000e 	addshi	r0, r7, lr

00000bb4 <l623>:
     bb4:	d38ca303 	orrle	sl, ip, #201326592	; 0xc000000

00000bb8 <l624>:
     bb8:	e1b01033 	lsrs	r1, r3, r0

00000bbc <l625>:
     bbc:	c1360005 	teqgt	r6, r5

00000bc0 <l626>:
     bc0:	e58d501c 	str	r5, [sp, #28]

00000bc4 <l627>:
     bc4:	e48db020 	str	fp, [sp], #32

00000bc8 <l628>:
     bc8:	e0b0683e 	adcs	r6, r0, lr, lsr r8

00000bcc <l629>:
     bcc:	4affffff 	bmi	bd0 <l630>

00000bd0 <l630>:
     bd0:	80405e1c 	subhi	r5, r0, ip, lsl lr

00000bd4 <l631>:
     bd4:	ba000002 	blt	be4 <l635>

00000bd8 <l632>:
     bd8:	e28010a1 	add	r1, r0, #161	; 0xa1

00000bdc <l633>:
     bdc:	1233b601 	eorsne	fp, r3, #1048576	; 0x100000

00000be0 <l634>:
     be0:	ea000000 	b	be8 <l636>

00000be4 <l635>:
     be4:	eafffffc 	b	bdc <l633>

00000be8 <l636>:
     be8:	459d2008 	ldrmi	r2, [sp, #8]

00000bec <l637>:
     bec:	e27be5b5 	rsbs	lr, fp, #759169024	; 0x2d400000

00000bf0 <l638>:
     bf0:	b3f030c1 	mvnslt	r3, #193	; 0xc1

00000bf4 <l639>:
     bf4:	b0381005 	eorslt	r1, r8, r5

00000bf8 <l640>:
     bf8:	615e000b 	cmpvs	lr, fp

00000bfc <l641>:
     bfc:	b3b09917 	movslt	r9, #376832	; 0x5c000

00000c00 <l642>:
     c00:	3159000c 	cmpcc	r9, ip

00000c04 <l643>:
     c04:	10b70b3b 	adcsne	r0, r7, fp, lsr fp

00000c08 <l644>:
     c08:	b397940b 	orrslt	r9, r7, #184549376	; 0xb000000

00000c0c <l645>:
     c0c:	ca000006 	bgt	c2c <l653>

00000c10 <l646>:
     c10:	e28010f7 	add	r1, r0, #247	; 0xf7

00000c14 <l647>:
     c14:	e1d54008 	bics	r4, r5, r8

00000c18 <l648>:
     c18:	d1e04004 	mvnle	r4, r4

00000c1c <l649>:
     c1c:	e16fcf17 	clz	ip, r7

00000c20 <l650>:
     c20:	e16f4f1a 	clz	r4, sl

00000c24 <l651>:
     c24:	40345000 	eorsmi	r5, r4, r0

00000c28 <l652>:
     c28:	ea000000 	b	c30 <l654>

00000c2c <l653>:
     c2c:	eafffff8 	b	c14 <l647>

00000c30 <l654>:
     c30:	ea000000 	b	c38 <l656>

00000c34 <l655>:
     c34:	c1140447 	tstgt	r4, r7, asr #8

00000c38 <l656>:
     c38:	e39a5155 	orrs	r5, sl, #1073741845	; 0x40000015

00000c3c <l657>:
     c3c:	e3a0e018 	mov	lr, #24

00000c40 <l658>:
     c40:	e7bd100e 	ldr	r1, [sp, lr]!

00000c44 <l659>:
     c44:	e3a06004 	mov	r6, #4

00000c48 <l660>:
     c48:	e60dc006 	str	ip, [sp], -r6

00000c4c <l661>:
     c4c:	1081e005 	addne	lr, r1, r5

00000c50 <l662>:
     c50:	20a01c50 	adccs	r1, r0, r0, asr ip

00000c54 <l663>:
     c54:	518b7002 	orrpl	r7, fp, r2

00000c58 <l664>:
     c58:	ea000002 	b	c68 <l668>

00000c5c <l665>:
     c5c:	e28010ae 	add	r1, r0, #174	; 0xae

00000c60 <l666>:
     c60:	43d796d7 	bicsmi	r9, r7, #225443840	; 0xd700000

00000c64 <l667>:
     c64:	ea000000 	b	c6c <l669>

00000c68 <l668>:
     c68:	eafffffc 	b	c60 <l666>

00000c6c <l669>:
     c6c:	a13a0008 	teqge	sl, r8

00000c70 <l670>:
     c70:	7a000005 	bvc	c8c <l677>

00000c74 <l671>:
     c74:	e2801018 	add	r1, r0, #24

00000c78 <l672>:
     c78:	93d53682 	bicsls	r3, r5, #136314880	; 0x8200000

00000c7c <l673>:
     c7c:	40733273 	rsbsmi	r3, r3, r3, ror r2

00000c80 <l674>:
     c80:	b094a332 	addslt	sl, r4, r2, lsr r3

00000c84 <l675>:
     c84:	20739262 	rsbscs	r9, r3, r2, ror #4

00000c88 <l676>:
     c88:	ea000000 	b	c90 <l678>

00000c8c <l677>:
     c8c:	eafffff9 	b	c78 <l672>

00000c90 <l678>:
     c90:	e0209518 	eor	r9, r0, r8, lsl r5

00000c94 <l679>:
     c94:	e41db01c 	ldr	fp, [sp], #-28

00000c98 <l680>:
     c98:	e1560006 	cmp	r6, r6

00000c9c <l681>:
     c9c:	e171000e 	cmn	r1, lr

00000ca0 <l682>:
     ca0:	e254104b 	subs	r1, r4, #75	; 0x4b

00000ca4 <l683>:
     ca4:	70f32061 	rscsvc	r2, r3, r1, rrx

00000ca8 <l684>:
     ca8:	e04b1005 	sub	r1, fp, r5

00000cac <l685>:
     cac:	233b027a 	teqcs	fp, #-1610612729	; 0xa0000007

00000cb0 <l686>:
     cb0:	e0d04e5a 	sbcs	r4, r0, sl, asr lr

00000cb4 <l687>:
     cb4:	00a96133 	adceq	r6, r9, r3, lsr r1

00000cb8 <l688>:
     cb8:	2a000004 	bcs	cd0 <l694>

00000cbc <l689>:
     cbc:	e0e0b008 	rsc	fp, r0, r8

00000cc0 <l690>:
     cc0:	e027a067 	eor	sl, r7, r7, rrx

00000cc4 <l691>:
     cc4:	31b07346 	asrscc	r7, r6, #6

00000cc8 <l692>:
     cc8:	e2e9a0df 	rsc	sl, r9, #223	; 0xdf

00000ccc <l693>:
     ccc:	e296e903 	adds	lr, r6, #49152	; 0xc000

00000cd0 <l694>:
     cd0:	e153074a 	cmp	r3, sl, asr #14

00000cd4 <l695>:
     cd4:	e020a06e 	eor	sl, r0, lr, rrx

00000cd8 <l696>:
     cd8:	40a3a654 	adcmi	sl, r3, r4, asr r6

00000cdc <l697>:
     cdc:	d3530902 	cmple	r3, #32768	; 0x8000

00000ce0 <l698>:
     ce0:	e04f7203 	sub	r7, pc, r3, lsl #4

00000ce4 <l699>:
     ce4:	e0490060 	sub	r0, r9, r0, rrx

00000ce8 <l700>:
     ce8:	911b01c1 	tstls	fp, r1, asr #3

00000cec <l701>:
     cec:	e0596002 	subs	r6, r9, r2

00000cf0 <l702>:
     cf0:	31530c41 	cmpcc	r3, r1, asr #24

00000cf4 <l703>:
     cf4:	c16f6f16 	clzgt	r6, r6

00000cf8 <l704>:
     cf8:	e24f45a1 	sub	r4, pc, #675282944	; 0x28400000

00000cfc <l705>:
     cfc:	91ce300f 	bicls	r3, lr, pc

00000d00 <l706>:
     d00:	6a000005 	bvs	d1c <l713>

00000d04 <l707>:
     d04:	e280105f 	add	r1, r0, #95	; 0x5f

00000d08 <l708>:
     d08:	e1a0006c 	rrx	r0, ip

00000d0c <l709>:
     d0c:	81790730 	cmnhi	r9, r0, lsr r7

00000d10 <l710>:
     d10:	1043b001 	subne	fp, r3, r1

00000d14 <l711>:
     d14:	c06ee951 	rsbgt	lr, lr, r1, asr r9

00000d18 <l712>:
     d18:	ea000000 	b	d20 <l714>

00000d1c <l713>:
     d1c:	eafffff9 	b	d08 <l708>

00000d20 <l714>:
     d20:	e1e00004 	mvn	r0, r4

00000d24 <l715>:
     d24:	216f6f10 	clzcs	r6, r0

00000d28 <l716>:
     d28:	309baa33 	addscc	sl, fp, r3, lsr sl

00000d2c <l717>:
     d2c:	5048b93b 	subpl	fp, r8, fp, lsr r9

00000d30 <l718>:
     d30:	e2bbb7aa 	adcs	fp, fp, #44564480	; 0x2a80000

00000d34 <l719>:
     d34:	633901a9 	teqvs	r9, #1073741866	; 0x4000002a

00000d38 <l720>:
     d38:	da000006 	ble	d58 <l728>

00000d3c <l721>:
     d3c:	e0e6506c 	rsc	r5, r6, ip, rrx

00000d40 <l722>:
     d40:	9002b440 	andls	fp, r2, r0, asr #8

00000d44 <l723>:
     d44:	2046c00b 	subcs	ip, r6, fp

00000d48 <l724>:
     d48:	704a5317 	subvc	r5, sl, r7, lsl r3

00000d4c <l725>:
     d4c:	a3590ad7 	cmpge	r9, #880640	; 0xd7000

00000d50 <l726>:
     d50:	e2bcadf5 	adcs	sl, ip, #15680	; 0x3d40

00000d54 <l727>:
     d54:	e1700f2e 	cmn	r0, lr, lsr #30

00000d58 <l728>:
     d58:	e04e9000 	sub	r9, lr, r0

00000d5c <l729>:
     d5c:	83e05e7d 	mvnhi	r5, #2000	; 0x7d0

00000d60 <l730>:
     d60:	e49d1004 	pop	{r1}		; (ldr r1, [sp], #4)

00000d64 <l731>:
     d64:	e3f067f3 	mvns	r6, #63700992	; 0x3cc0000

00000d68 <l732>:
     d68:	e159054c 	cmp	r9, ip, asr #10

00000d6c <l733>:
     d6c:	215a023a 	cmpcs	sl, sl, lsr r2

00000d70 <l734>:
     d70:	e25e469a 	subs	r4, lr, #161480704	; 0x9a00000

00000d74 <l735>:
     d74:	e1f08006 	mvns	r8, r6

00000d78 <l736>:
     d78:	e041ae48 	sub	sl, r1, r8, asr #28

00000d7c <l737>:
     d7c:	e17b000b 	cmn	fp, fp

00000d80 <l738>:
     d80:	e01bc001 	ands	ip, fp, r1

00000d84 <l739>:
     d84:	e0371060 	eors	r1, r7, r0, rrx

00000d88 <l740>:
     d88:	e1750e73 	cmn	r5, r3, ror lr

00000d8c <l741>:
     d8c:	5030a216 	eorspl	sl, r0, r6, lsl r2

00000d90 <l742>:
     d90:	1a000002 	bne	da0 <l746>

00000d94 <l743>:
     d94:	e0419005 	sub	r9, r1, r5

00000d98 <l744>:
     d98:	e3720e19 	cmn	r2, #400	; 0x190

00000d9c <l745>:
     d9c:	e0414480 	sub	r4, r1, r0, lsl #9

00000da0 <l746>:
     da0:	e0254003 	eor	r4, r5, r3

00000da4 <l747>:
     da4:	42cb3d51 	sbcmi	r3, fp, #5184	; 0x1440

00000da8 <l748>:
     da8:	b3c1552e 	biclt	r5, r1, #192937984	; 0xb800000

00000dac <l749>:
     dac:	11550f8c 	cmpne	r5, ip, lsl #31

00000db0 <l750>:
     db0:	e247e933 	sub	lr, r7, #835584	; 0xcc000

00000db4 <l751>:
     db4:	e15706eb 	cmp	r7, fp, ror #13

00000db8 <l752>:
     db8:	30be515c 	adcscc	r5, lr, ip, asr r1

00000dbc <l753>:
     dbc:	e243235b 	sub	r2, r3, #1811939329	; 0x6c000001

00000dc0 <l754>:
     dc0:	31d2400a 	bicscc	r4, r2, sl

00000dc4 <l755>:
     dc4:	40464356 	submi	r4, r6, r6, asr r3

00000dc8 <l756>:
     dc8:	1332089b 	teqne	r2, #10158080	; 0x9b0000

00000dcc <l757>:
     dcc:	93c83803 	bicls	r3, r8, #196608	; 0x30000

00000dd0 <l758>:
     dd0:	d2fe713d 	rscsle	r7, lr, #1073741839	; 0x4000000f

00000dd4 <l759>:
     dd4:	60258c1a 	eorvs	r8, r5, sl, lsl ip

00000dd8 <l760>:
     dd8:	02459063 	subeq	r9, r5, #99	; 0x63

00000ddc <l761>:
     ddc:	51580e7c 	cmppl	r8, ip, ror lr

00000de0 <l762>:
     de0:	4075b157 	rsbsmi	fp, r5, r7, asr r1

00000de4 <l763>:
     de4:	ea000002 	b	df4 <l767>

00000de8 <l764>:
     de8:	e2801020 	add	r1, r0, #32

00000dec <l765>:
     dec:	e35f0eeb 	cmp	pc, #3760	; 0xeb0

00000df0 <l766>:
     df0:	ea000000 	b	df8 <l768>

00000df4 <l767>:
     df4:	eafffffc 	b	dec <l765>

00000df8 <l768>:
     df8:	e2e067aa 	rsc	r6, r0, #44564480	; 0x2a80000

00000dfc <l769>:
     dfc:	e2d9439a 	sbcs	r4, r9, #1744830466	; 0x68000002

00000e00 <l770>:
     e00:	c1e06213 	mvngt	r6, r3, lsl r2

00000e04 <l771>:
     e04:	e0e74068 	rsc	r4, r7, r8, rrx

00000e08 <l772>:
     e08:	2a000002 	bcs	e18 <l776>

00000e0c <l773>:
     e0c:	e28010bc 	add	r1, r0, #188	; 0xbc

00000e10 <l774>:
     e10:	304c477b 	subcc	r4, ip, fp, ror r7

00000e14 <l775>:
     e14:	ea000000 	b	e1c <l777>

00000e18 <l776>:
     e18:	eafffffc 	b	e10 <l774>

00000e1c <l777>:
     e1c:	e3730fff 	cmn	r3, #1020	; 0x3fc

00000e20 <l778>:
     e20:	e08c0d2e 	add	r0, ip, lr, lsr #26

00000e24 <l779>:
     e24:	5a000005 	bpl	e40 <l786>

00000e28 <l780>:
     e28:	e28010d0 	add	r1, r0, #208	; 0xd0

00000e2c <l781>:
     e2c:	7003c47b 	andvc	ip, r3, fp, ror r4

00000e30 <l782>:
     e30:	e294208d 	adds	r2, r4, #141	; 0x8d

00000e34 <l783>:
     e34:	e0644007 	rsb	r4, r4, r7

00000e38 <l784>:
     e38:	e11b06e2 	tst	fp, r2, ror #13

00000e3c <l785>:
     e3c:	ea000000 	b	e44 <l787>

00000e40 <l786>:
     e40:	eafffff9 	b	e2c <l781>

00000e44 <l787>:
     e44:	e1dbb252 	bics	fp, fp, r2, asr r2

00000e48 <l788>:
     e48:	10f1cb69 	rscsne	ip, r1, r9, ror #22

00000e4c <l789>:
     e4c:	c04406ae 	subgt	r0, r4, lr, lsr #13

00000e50 <l790>:
     e50:	e41d1008 	ldr	r1, [sp], #-8

00000e54 <l791>:
     e54:	e0d9901e 	sbcs	r9, r9, lr, lsl r0

00000e58 <l792>:
     e58:	e5bd1010 	ldr	r1, [sp, #16]!

00000e5c <l793>:
     e5c:	9a000007 	bls	e80 <l802>

00000e60 <l794>:
     e60:	a074a23e 	rsbsge	sl, r4, lr, lsr r2

00000e64 <l795>:
     e64:	e33a0cab 	teq	sl, #43776	; 0xab00

00000e68 <l796>:
     e68:	e051406a 	subs	r4, r1, sl, rrx

00000e6c <l797>:
     e6c:	503a8610 	eorspl	r8, sl, r0, lsl r6

00000e70 <l798>:
     e70:	4190cb46 	orrsmi	ip, r0, r6, asr #22

00000e74 <l799>:
     e74:	03a09d29 	moveq	r9, #2624	; 0xa40

00000e78 <l800>:
     e78:	20e8e004 	rsccs	lr, r8, r4

00000e7c <l801>:
     e7c:	d1e06266 	mvnle	r6, r6, ror #4

00000e80 <l802>:
     e80:	a089c004 	addge	ip, r9, r4

00000e84 <l803>:
     e84:	b3c02597 	biclt	r2, r0, #633339904	; 0x25c00000

00000e88 <l804>:
     e88:	737801d9 	cmnvc	r8, #1073741878	; 0x40000036

00000e8c <l805>:
     e8c:	137a024b 	cmnne	sl, #-1342177276	; 0xb0000004

00000e90 <l806>:
     e90:	e3a00000 	mov	r0, #0

00000e94 <l807>:
     e94:	e7ade000 	str	lr, [sp, r0]!

00000e98 <l808>:
     e98:	027a3167 	rsbseq	r3, sl, #-1073741799	; 0xc0000019

00000e9c <l809>:
     e9c:	ea000002 	b	eac <l813>

00000ea0 <l810>:
     ea0:	e2801003 	add	r1, r0, #3

00000ea4 <l811>:
     ea4:	0196bb42 	orrseq	fp, r6, r2, asr #22

00000ea8 <l812>:
     ea8:	ea000000 	b	eb0 <l814>

00000eac <l813>:
     eac:	eafffffc 	b	ea4 <l811>

00000eb0 <l814>:
     eb0:	e2522c42 	subs	r2, r2, #16896	; 0x4200

00000eb4 <l815>:
     eb4:	e08f0061 	add	r0, pc, r1, rrx

00000eb8 <l816>:
     eb8:	e188ec62 	orr	lr, r8, r2, ror #24

00000ebc <l817>:
     ebc:	e16f3f12 	clz	r3, r2

00000ec0 <l818>:
     ec0:	31c0681e 	biccc	r6, r0, lr, lsl r8

00000ec4 <l819>:
     ec4:	e173000f 	cmn	r3, pc

00000ec8 <l820>:
     ec8:	30967b11 	addscc	r7, r6, r1, lsl fp

00000ecc <l821>:
     ecc:	e0a21480 	adc	r1, r2, r0, lsl #9

00000ed0 <l822>:
     ed0:	2008b06e 	andcs	fp, r8, lr, rrx

00000ed4 <l823>:
     ed4:	e1370067 	teq	r7, r7, rrx

00000ed8 <l824>:
     ed8:	e5ad9018 	str	r9, [sp, #24]!

00000edc <l825>:
     edc:	216f6f1c 	clzcs	r6, ip

00000ee0 <l826>:
     ee0:	d077400a 	rsbsle	r4, r7, sl

00000ee4 <l827>:
     ee4:	e1e0606f 	mvn	r6, pc, rrx

00000ee8 <l828>:
     ee8:	ea000004 	b	f00 <l834>

00000eec <l829>:
     eec:	e01b5fc4 	ands	r5, fp, r4, asr #31

00000ef0 <l830>:
     ef0:	5006647a 	andpl	r6, r6, sl, ror r4

00000ef4 <l831>:
     ef4:	e338079e 	teq	r8, #41418752	; 0x2780000

00000ef8 <l832>:
     ef8:	c050e004 	subsgt	lr, r0, r4

00000efc <l833>:
     efc:	d0de5c35 	sbcsle	r5, lr, r5, lsr ip

00000f00 <l834>:
     f00:	e16f8f17 	clz	r8, r7

00000f04 <l835>:
     f04:	ea000003 	b	f18 <l840>

00000f08 <l836>:
     f08:	1099cb32 	addsne	ip, r9, r2, lsr fp

00000f0c <l837>:
     f0c:	a38702ea 	orrge	r0, r7, #-1610612722	; 0xa000000e

00000f10 <l838>:
     f10:	e03a8570 	eors	r8, sl, r0, ror r5

00000f14 <l839>:
     f14:	71110189 	tstvc	r1, r9, lsl #3

00000f18 <l840>:
     f18:	017f0223 	cmneq	pc, r3, lsr #4

00000f1c <l841>:
     f1c:	80be3066 	adcshi	r3, lr, r6, rrx

00000f20 <l842>:
     f20:	01d1be76 	bicseq	fp, r1, r6, ror lr

00000f24 <l843>:
     f24:	92010018 	andls	r0, r1, #24

00000f28 <l844>:
     f28:	e00a1005 	and	r1, sl, r5

00000f2c <l845>:
     f2c:	e3710c5a 	cmn	r1, #23040	; 0x5a00

00000f30 <l846>:
     f30:	e1f0e00a 	mvns	lr, sl

00000f34 <l847>:
     f34:	3009206b 	andcc	r2, r9, fp, rrx

00000f38 <l848>:
     f38:	3382a313 	orrcc	sl, r2, #1275068416	; 0x4c000000

00000f3c <l849>:
     f3c:	e1170645 	tst	r7, r5, asr #12

00000f40 <l850>:
     f40:	22ba9c2f 	adcscs	r9, sl, #12032	; 0x2f00

00000f44 <l851>:
     f44:	b1a07065 	rrxlt	r7, r5

00000f48 <l852>:
     f48:	e15a0006 	cmp	sl, r6

00000f4c <l853>:
     f4c:	00540009 	subseq	r0, r4, r9

00000f50 <l854>:
     f50:	6035281e 	eorsvs	r2, r5, lr, lsl r8

00000f54 <l855>:
     f54:	d001c374 	andle	ip, r1, r4, ror r3

00000f58 <l856>:
     f58:	e41de024 	ldr	lr, [sp], #-36	; 0x24

00000f5c <l857>:
     f5c:	6032e060 	eorsvs	lr, r2, r0, rrx

00000f60 <l858>:
     f60:	e0830005 	add	r0, r3, r5

00000f64 <l859>:
     f64:	c0083a33 	andgt	r3, r8, r3, lsr sl

00000f68 <l860>:
     f68:	e3a0700c 	mov	r7, #12

00000f6c <l861>:
     f6c:	e7ad0007 	str	r0, [sp, r7]!

00000f70 <l862>:
     f70:	60f66113 	rscsvs	r6, r6, r3, lsl r1

00000f74 <l863>:
     f74:	33b0bb0e 	movscc	fp, #14336	; 0x3800

00000f78 <l864>:
     f78:	e24e3b72 	sub	r3, lr, #116736	; 0x1c800

00000f7c <l865>:
     f7c:	902c6c55 	eorls	r6, ip, r5, asr ip

00000f80 <l866>:
     f80:	e024c0ae 	eor	ip, r4, lr, lsr #1

00000f84 <l867>:
     f84:	51f00452 	mvnspl	r0, r2, asr r4

00000f88 <l868>:
     f88:	d0d48b51 	sbcsle	r8, r4, r1, asr fp

00000f8c <l869>:
     f8c:	617c0007 	cmnvs	ip, r7

00000f90 <l870>:
     f90:	a3e0101a 	mvnge	r1, #26

00000f94 <l871>:
     f94:	651d8004 	ldrvs	r8, [sp, #-4]

00000f98 <l872>:
     f98:	d2f8534b 	rscsle	r5, r8, #738197505	; 0x2c000001

00000f9c <l873>:
     f9c:	7028e007 	eorvc	lr, r8, r7

00000fa0 <l874>:
     fa0:	e0c06672 	sbc	r6, r0, r2, ror r6

00000fa4 <l875>:
     fa4:	c1c1b96a 	bicgt	fp, r1, sl, ror #18

00000fa8 <l876>:
     fa8:	01530ca7 	cmpeq	r3, r7, lsr #25

00000fac <l877>:
     fac:	e16f8f1e 	clz	r8, lr

00000fb0 <l878>:
     fb0:	509f0de2 	addspl	r0, pc, r2, ror #27

00000fb4 <l879>:
     fb4:	ba000002 	blt	fc4 <l883>

00000fb8 <l880>:
     fb8:	0072a007 	rsbseq	sl, r2, r7

00000fbc <l881>:
     fbc:	117f0008 	cmnne	pc, r8

00000fc0 <l882>:
     fc0:	4034c000 	eorsmi	ip, r4, r0

00000fc4 <l883>:
     fc4:	e15b0002 	cmp	fp, r2

00000fc8 <l884>:
     fc8:	726b51f6 	rsbvc	r5, fp, #-2147483587	; 0x8000003d

00000fcc <l885>:
     fcc:	4a000002 	bmi	fdc <l889>

00000fd0 <l886>:
     fd0:	e28010e2 	add	r1, r0, #226	; 0xe2

00000fd4 <l887>:
     fd4:	e18c2002 	orr	r2, ip, r2

00000fd8 <l888>:
     fd8:	ea000000 	b	fe0 <l890>

00000fdc <l889>:
     fdc:	eafffffc 	b	fd4 <l887>

00000fe0 <l890>:
     fe0:	a0c4475c 	sbcge	r4, r4, ip, asr r7

00000fe4 <l891>:
     fe4:	801918c7 	andshi	r1, r9, r7, asr #17

00000fe8 <l892>:
     fe8:	b2888d6f 	addlt	r8, r8, #7104	; 0x1bc0

00000fec <l893>:
     fec:	117e000f 	cmnne	lr, pc

00000ff0 <l894>:
     ff0:	9180a061 	orrls	sl, r0, r1, rrx

00000ff4 <l895>:
     ff4:	ba000004 	blt	100c <l901>

00000ff8 <l896>:
     ff8:	e2801074 	add	r1, r0, #116	; 0x74

00000ffc <l897>:
     ffc:	b38846ff 	orrlt	r4, r8, #267386880	; 0xff00000

00001000 <l898>:
    1000:	61710003 	cmnvs	r1, r3

00001004 <l899>:
    1004:	e2899079 	add	r9, r9, #121	; 0x79

00001008 <l900>:
    1008:	ea000000 	b	1010 <l902>

0000100c <l901>:
    100c:	eafffffa 	b	ffc <l897>

00001010 <l902>:
    1010:	61e04003 	mvnvs	r4, r3

00001014 <l903>:
    1014:	ea000002 	b	1024 <l907>

00001018 <l904>:
    1018:	e28010d5 	add	r1, r0, #213	; 0xd5

0000101c <l905>:
    101c:	d16f0f1e 	clzle	r0, lr

00001020 <l906>:
    1020:	ea000000 	b	1028 <l908>

00001024 <l907>:
    1024:	eafffffc 	b	101c <l905>

00001028 <l908>:
    1028:	ea000005 	b	1044 <l915>

0000102c <l909>:
    102c:	e2801052 	add	r1, r0, #82	; 0x52

00001030 <l910>:
    1030:	e0330068 	eors	r0, r3, r8, rrx

00001034 <l911>:
    1034:	e1cbc00c 	bic	ip, fp, ip

00001038 <l912>:
    1038:	e1e0ae4a 	mvn	sl, sl, asr #28

0000103c <l913>:
    103c:	e290ec9e 	adds	lr, r0, #40448	; 0x9e00

00001040 <l914>:
    1040:	ea000000 	b	1048 <l916>

00001044 <l915>:
    1044:	eafffff9 	b	1030 <l910>

00001048 <l916>:
    1048:	737b0957 	cmnvc	fp, #1425408	; 0x15c000

0000104c <l917>:
    104c:	b1160c3e 	tstlt	r6, lr, lsr ip

00001050 <l918>:
    1050:	c16f3f13 	clzgt	r3, r3

00001054 <l919>:
    1054:	e3a03014 	mov	r3, #20

00001058 <l920>:
    1058:	e71da003 	ldr	sl, [sp, -r3]

0000105c <l921>:
    105c:	91855659 	orrls	r5, r5, r9, asr r6

00001060 <l922>:
    1060:	81b02e03 	lslshi	r2, r3, #28

00001064 <l923>:
    1064:	e3a0e020 	mov	lr, #32

00001068 <l924>:
    1068:	e71d400e 	ldr	r4, [sp, -lr]

0000106c <l925>:
    106c:	b1e09b1c 	mvnlt	r9, ip, lsl fp

00001070 <l926>:
    1070:	e064422f 	rsb	r4, r4, pc, lsr #4

00001074 <l927>:
    1074:	40dc7008 	sbcsmi	r7, ip, r8

00001078 <l928>:
    1078:	ea000002 	b	1088 <l932>

0000107c <l929>:
    107c:	e280107f 	add	r1, r0, #127	; 0x7f

00001080 <l930>:
    1080:	31970611 	orrscc	r0, r7, r1, lsl r6

00001084 <l931>:
    1084:	ea000000 	b	108c <l933>

00001088 <l932>:
    1088:	eafffffc 	b	1080 <l930>

0000108c <l933>:
    108c:	60a9b003 	adcvs	fp, r9, r3

00001090 <l934>:
    1090:	e00a4a77 	and	r4, sl, r7, ror sl

00001094 <l935>:
    1094:	e0580064 	subs	r0, r8, r4, rrx

00001098 <l936>:
    1098:	b1350002 	teqlt	r5, r2

0000109c <l937>:
    109c:	919a6006 	orrsls	r6, sl, r6

000010a0 <l938>:
    10a0:	e357047a 	cmp	r7, #2046820352	; 0x7a000000

000010a4 <l939>:
    10a4:	e1120065 	tst	r2, r5, rrx

000010a8 <l940>:
    10a8:	006b3b60 	rsbeq	r3, fp, r0, ror #22

000010ac <l941>:
    10ac:	e0bf900c 	adcs	r9, pc, ip

000010b0 <l942>:
    10b0:	e0abe843 	adc	lr, fp, r3, asr #16

000010b4 <l943>:
    10b4:	e40da010 	str	sl, [sp], #-16

000010b8 <l944>:
    10b8:	b1a0590b 	lsllt	r5, fp, #18

000010bc <l945>:
    10bc:	e3a01008 	mov	r1, #8

000010c0 <l946>:
    10c0:	e72d5001 	str	r5, [sp, -r1]!

000010c4 <l947>:
    10c4:	e2181c5e 	ands	r1, r8, #24064	; 0x5e00

000010c8 <l948>:
    10c8:	70328bc7 	eorsvc	r8, r2, r7, asr #23

000010cc <l949>:
    10cc:	e1380001 	teq	r8, r1

000010d0 <l950>:
    10d0:	523b50d7 	eorspl	r5, fp, #215	; 0xd7

000010d4 <l951>:
    10d4:	b1952000 	orrslt	r2, r5, r0

000010d8 <l952>:
    10d8:	e31505e7 	tst	r5, #968884224	; 0x39c00000

000010dc <l953>:
    10dc:	11750001 	cmnne	r5, r1

000010e0 <l954>:
    10e0:	11110530 	tstne	r1, r0, lsr r5

000010e4 <l955>:
    10e4:	61c9cde8 	bicvs	ip, r9, r8, ror #27

000010e8 <l956>:
    10e8:	e52d6008 	str	r6, [sp, #-8]!

000010ec <l957>:
    10ec:	3058b060 	subscc	fp, r8, r0, rrx

000010f0 <l958>:
    10f0:	2affffff 	bcs	10f4 <l959>

000010f4 <l959>:
    10f4:	d1e03366 	mvnle	r3, r6, ror #6

000010f8 <l960>:
    10f8:	ea000004 	b	1110 <l966>

000010fc <l961>:
    10fc:	e2801043 	add	r1, r0, #67	; 0x43

00001100 <l962>:
    1100:	a0467065 	subge	r7, r6, r5, rrx

00001104 <l963>:
    1104:	20cee50b 	sbccs	lr, lr, fp, lsl #10

00001108 <l964>:
    1108:	e04b976e 	sub	r9, fp, lr, ror #14

0000110c <l965>:
    110c:	ea000000 	b	1114 <l967>

00001110 <l966>:
    1110:	eafffffa 	b	1100 <l962>

00001114 <l967>:
    1114:	439212ce 	orrsmi	r1, r2, #-536870900	; 0xe000000c

00001118 <l968>:
    1118:	11db5831 	bicsne	r5, fp, r1, lsr r8

0000111c <l969>:
    111c:	d3b0bb36 	movsle	fp, #55296	; 0xd800

00001120 <l970>:
    1120:	ea000005 	b	113c <l977>

00001124 <l971>:
    1124:	e280105e 	add	r1, r0, #94	; 0x5e

00001128 <l972>:
    1128:	e0362004 	eors	r2, r6, r4

0000112c <l973>:
    112c:	13823da3 	orrne	r3, r2, #10432	; 0x28c0

00001130 <l974>:
    1130:	c0db9006 	sbcsgt	r9, fp, r6

00001134 <l975>:
    1134:	e33200ff 	teq	r2, #255	; 0xff

00001138 <l976>:
    1138:	ea000000 	b	1140 <l978>

0000113c <l977>:
    113c:	eafffff9 	b	1128 <l972>

00001140 <l978>:
    1140:	e0a8a86f 	adc	sl, r8, pc, ror #16

00001144 <l979>:
    1144:	53a09216 	movpl	r9, #1610612737	; 0x60000001

00001148 <l980>:
    1148:	1a000006 	bne	1168 <l988>

0000114c <l981>:
    114c:	709ca223 	addsvc	sl, ip, r3, lsr #4

00001150 <l982>:
    1150:	617a000f 	cmnvs	sl, pc

00001154 <l983>:
    1154:	e292513b 	adds	r5, r2, #-1073741810	; 0xc000000e

00001158 <l984>:
    1158:	e1590002 	cmp	r9, r2

0000115c <l985>:
    115c:	e16f8f1c 	clz	r8, ip

00001160 <l986>:
    1160:	41a03004 	movmi	r3, r4

00001164 <l987>:
    1164:	31a0994b 	asrcc	r9, fp, #18

00001168 <l988>:
    1168:	30219009 	eorcc	r9, r1, r9

0000116c <l989>:
    116c:	e1cf4001 	bic	r4, pc, r1

00001170 <l990>:
    1170:	00316004 	eorseq	r6, r1, r4

00001174 <l991>:
    1174:	e58d0000 	str	r0, [sp]

00001178 <l992>:
    1178:	e3a0e014 	mov	lr, #20

0000117c <l993>:
    117c:	479d700e 	ldrmi	r7, [sp, lr]

00001180 <l994>:
    1180:	42d1af6f 	sbcsmi	sl, r1, #444	; 0x1bc

00001184 <l995>:
    1184:	ea000003 	b	1198 <l1000>

00001188 <l996>:
    1188:	c1710839 	cmngt	r1, r9, lsr r8

0000118c <l997>:
    118c:	e29c101c 	adds	r1, ip, #28

00001190 <l998>:
    1190:	e2854136 	add	r4, r5, #-2147483635	; 0x8000000d

00001194 <l999>:
    1194:	e3f04b32 	mvns	r4, #51200	; 0xc800

00001198 <l1000>:
    1198:	d0ca1006 	sbcle	r1, sl, r6

0000119c <l1001>:
    119c:	e3a04024 	mov	r4, #36	; 0x24

000011a0 <l1002>:
    11a0:	678d0004 	strvs	r0, [sp, r4]

000011a4 <l1003>:
    11a4:	e3a01030 	mov	r1, #48	; 0x30

000011a8 <l1004>:
    11a8:	e69db001 	ldr	fp, [sp], r1

000011ac <l1005>:
    11ac:	4a000004 	bmi	11c4 <l1011>

000011b0 <l1006>:
    11b0:	520849dd 	andpl	r4, r8, #3620864	; 0x374000

000011b4 <l1007>:
    11b4:	e0cbc005 	sbc	ip, fp, r5

000011b8 <l1008>:
    11b8:	e11a0a19 	tst	sl, r9, lsl sl

000011bc <l1009>:
    11bc:	e093afc3 	adds	sl, r3, r3, asr #31

000011c0 <l1010>:
    11c0:	e1120a87 	tst	r2, r7, lsl #21

000011c4 <l1011>:
    11c4:	e0bb0427 	adcs	r0, fp, r7, lsr #8

000011c8 <l1012>:
    11c8:	e0c2e005 	sbc	lr, r2, r5

000011cc <l1013>:
    11cc:	121170eb 	andsne	r7, r1, #235	; 0xeb

000011d0 <l1014>:
    11d0:	e25e233d 	subs	r2, lr, #-201326592	; 0xf4000000

000011d4 <l1015>:
    11d4:	216fcf12 	clzcs	ip, r2

000011d8 <l1016>:
    11d8:	e31e01b5 	tst	lr, #1073741869	; 0x4000002d

000011dc <l1017>:
    11dc:	e1750475 	cmn	r5, r5, ror r4

000011e0 <l1018>:
    11e0:	e1f0e005 	mvns	lr, r5

000011e4 <l1019>:
    11e4:	70077b36 	andvc	r7, r7, r6, lsr fp

000011e8 <l1020>:
    11e8:	e1560754 	cmp	r6, r4, asr r7

000011ec <l1021>:
    11ec:	037c0d2d 	cmneq	ip, #2880	; 0xb40

000011f0 <l1022>:
    11f0:	e0a80005 	adc	r0, r8, r5

000011f4 <l1023>:
    11f4:	6a000004 	bvs	120c <l1029>

000011f8 <l1024>:
    11f8:	e2801022 	add	r1, r0, #34	; 0x22

000011fc <l1025>:
    11fc:	e0050c61 	and	r0, r5, r1, ror #24

00001200 <l1026>:
    1200:	00136cef 	andseq	r6, r3, pc, ror #25

00001204 <l1027>:
    1204:	433e0369 	teqmi	lr, #-1543503871	; 0xa4000001

00001208 <l1028>:
    1208:	ea000000 	b	1210 <l1030>

0000120c <l1029>:
    120c:	eafffffa 	b	11fc <l1025>

00001210 <l1030>:
    1210:	a200b68f 	andge	fp, r0, #149946368	; 0x8f00000

00001214 <l1031>:
    1214:	22285312 	eorcs	r5, r8, #1207959552	; 0x48000000

00001218 <l1032>:
    1218:	e1a00148 	asr	r0, r8, #2

0000121c <l1033>:
    121c:	3a000007 	bcc	1240 <l1042>

00001220 <l1034>:
    1220:	e1e0400a 	mvn	r4, sl

00001224 <l1035>:
    1224:	504ba105 	subpl	sl, fp, r5, lsl #2

00001228 <l1036>:
    1228:	e33b03ea 	teq	fp, #-1476395005	; 0xa8000003

0000122c <l1037>:
    122c:	008a9061 	addeq	r9, sl, r1, rrx

00001230 <l1038>:
    1230:	71750c7b 	cmnvc	r5, fp, ror ip

00001234 <l1039>:
    1234:	b0434004 	sublt	r4, r3, r4

00001238 <l1040>:
    1238:	c0262c1c 	eorgt	r2, r6, ip, lsl ip

0000123c <l1041>:
    123c:	e1b0a00b 	movs	sl, fp

00001240 <l1042>:
    1240:	e0150007 	ands	r0, r5, r7

00001244 <l1043>:
    1244:	b0922185 	addslt	r2, r2, r5, lsl #3

00001248 <l1044>:
    1248:	e1130002 	tst	r3, r2

0000124c <l1045>:
    124c:	b16f8f17 	clzlt	r8, r7

00001250 <l1046>:
    1250:	e3a00038 	mov	r0, #56	; 0x38

00001254 <l1047>:
    1254:	e73d3000 	ldr	r3, [sp, -r0]!

00001258 <l1048>:
    1258:	e3a0e03c 	mov	lr, #60	; 0x3c

0000125c <l1049>:
    125c:	e7bd200e 	ldr	r2, [sp, lr]!

00001260 <l1050>:
    1260:	2118020b 	tstcs	r8, fp, lsl #4

00001264 <l1051>:
    1264:	e3530649 	cmp	r3, #76546048	; 0x4900000

00001268 <l1052>:
    1268:	41c0e87b 	bicmi	lr, r0, fp, ror r8

0000126c <l1053>:
    126c:	90490005 	subls	r0, r9, r5

00001270 <l1054>:
    1270:	739e8b17 	orrsvc	r8, lr, #23552	; 0x5c00

00001274 <l1055>:
    1274:	a29a6533 	addsge	r6, sl, #213909504	; 0xcc00000

00001278 <l1056>:
    1278:	e0ae771c 	adc	r7, lr, ip, lsl r7

0000127c <l1057>:
    127c:	e09a900c 	adds	r9, sl, ip

00001280 <l1058>:
    1280:	e3130cdf 	tst	r3, #57088	; 0xdf00

00001284 <l1059>:
    1284:	da000006 	ble	12a4 <l1067>

00001288 <l1060>:
    1288:	903bc067 	eorsls	ip, fp, r7, rrx

0000128c <l1061>:
    128c:	a20f6851 	andge	r6, pc, #5308416	; 0x510000

00001290 <l1062>:
    1290:	20fce349 	rscscs	lr, ip, r9, asr #6

00001294 <l1063>:
    1294:	e1e060c1 	mvn	r6, r1, asr #1

00001298 <l1064>:
    1298:	2151000a 	cmpcs	r1, sl

0000129c <l1065>:
    129c:	409c5e24 	addsmi	r5, ip, r4, lsr #28

000012a0 <l1066>:
    12a0:	e190ca84 	orrs	ip, r0, r4, lsl #21

000012a4 <l1067>:
    12a4:	205a6435 	subscs	r6, sl, r5, lsr r4

000012a8 <l1068>:
    12a8:	a19191ca 	orrsge	r9, r1, sl, asr #3

000012ac <l1069>:
    12ac:	b17b0001 	cmnlt	fp, r1

000012b0 <l1070>:
    12b0:	a2e47b0b 	rscge	r7, r4, #11264	; 0x2c00

000012b4 <l1071>:
    12b4:	1099e00a 	addsne	lr, r9, sl

000012b8 <l1072>:
    12b8:	d1560da8 	cmple	r6, r8, lsr #27

000012bc <l1073>:
    12bc:	e04e3ca3 	sub	r3, lr, r3, lsr #25

000012c0 <l1074>:
    12c0:	e3a06008 	mov	r6, #8

000012c4 <l1075>:
    12c4:	e7adf006 	str	pc, [sp, r6]!

000012c8 <l1076>:
    12c8:	516f0f13 	clzpl	r0, r3

000012cc <l1077>:
    12cc:	e0270337 	eor	r0, r7, r7, lsr r3

000012d0 <l1078>:
    12d0:	e1b0635e 	asrs	r6, lr, r3

000012d4 <l1079>:
    12d4:	d04f7b00 	suble	r7, pc, r0, lsl #22

000012d8 <l1080>:
    12d8:	a0b64a2c 	adcsge	r4, r6, ip, lsr #20

000012dc <l1081>:
    12dc:	c188a060 	orrgt	sl, r8, r0, rrx

000012e0 <l1082>:
    12e0:	8153006e 	cmphi	r3, lr, rrx

000012e4 <l1083>:
    12e4:	2191b006 	orrscs	fp, r1, r6

000012e8 <l1084>:
    12e8:	0115006f 	tsteq	r5, pc, rrx

000012ec <l1085>:
    12ec:	10624068 	rsbne	r4, r2, r8, rrx

000012f0 <l1086>:
    12f0:	e3a08034 	mov	r8, #52	; 0x34

000012f4 <l1087>:
    12f4:	e73d4008 	ldr	r4, [sp, -r8]!

000012f8 <l1088>:
    12f8:	e13c040b 	teq	ip, fp, lsl #8

000012fc <l1089>:
    12fc:	d16f4f1b 	clzle	r4, fp

00001300 <l1090>:
    1300:	e01e2986 	ands	r2, lr, r6, lsl #19

00001304 <l1091>:
    1304:	70ce206b 	sbcvc	r2, lr, fp, rrx

00001308 <l1092>:
    1308:	016faf15 	clzeq	sl, r5

0000130c <l1093>:
    130c:	60cc4008 	sbcvs	r4, ip, r8

00001310 <l1094>:
    1310:	91a06001 	movls	r6, r1

00001314 <l1095>:
    1314:	e192e2a5 	orrs	lr, r2, r5, lsr #5

00001318 <l1096>:
    1318:	e2c8320b 	sbc	r3, r8, #-1342177280	; 0xb0000000

0000131c <l1097>:
    131c:	e1730009 	cmn	r3, r9

00001320 <l1098>:
    1320:	63190d0a 	tstvs	r9, #640	; 0x280

00001324 <l1099>:
    1324:	91320ecc 	teqls	r2, ip, asr #29

00001328 <l1100>:
    1328:	82a92685 	adchi	r2, r9, #139460608	; 0x8500000

0000132c <l1101>:
    132c:	0055600c 	subseq	r6, r5, ip

00001330 <l1102>:
    1330:	e2d3ad82 	sbcs	sl, r3, #8320	; 0x2080

00001334 <l1103>:
    1334:	e3a05030 	mov	r5, #48	; 0x30

00001338 <l1104>:
    1338:	e79d1005 	ldr	r1, [sp, r5]

0000133c <l1105>:
    133c:	716f9f19 	clzvc	r9, r9

00001340 <l1106>:
    1340:	e16f3f1e 	clz	r3, lr

00001344 <l1107>:
    1344:	d2ba3a39 	adcsle	r3, sl, #233472	; 0x39000

00001348 <l1108>:
    1348:	359d800c 	ldrcc	r8, [sp, #12]

0000134c <l1109>:
    134c:	11e07003 	mvnne	r7, r3

00001350 <l1110>:
    1350:	215c0731 	cmpcs	ip, r1, lsr r7

00001354 <l1111>:
    1354:	e1e0eb56 	mvn	lr, r6, asr fp

00001358 <l1112>:
    1358:	e1932004 	orrs	r2, r3, r4

0000135c <l1113>:
    135c:	116f2f14 	clzne	r2, r4

00001360 <l1114>:
    1360:	401e6d6e 	andsmi	r6, lr, lr, ror #26

00001364 <l1115>:
    1364:	e59dc02c 	ldr	ip, [sp, #44]	; 0x2c

00001368 <l1116>:
    1368:	924787f6 	subls	r8, r7, #64487424	; 0x3d80000

0000136c <l1117>:
    136c:	d1730e30 	cmnle	r3, r0, lsr lr

00001370 <l1118>:
    1370:	e1740733 	cmn	r4, r3, lsr r7

00001374 <l1119>:
    1374:	1a000008 	bne	139c <l1129>

00001378 <l1120>:
    1378:	e052700c 	subs	r7, r2, ip

0000137c <l1121>:
    137c:	a13800ae 	teqge	r8, lr, lsr #1

00001380 <l1122>:
    1380:	e0dce002 	sbcs	lr, ip, r2

00001384 <l1123>:
    1384:	e13c0009 	teq	ip, r9

00001388 <l1124>:
    1388:	b0cfb008 	sbclt	fp, pc, r8

0000138c <l1125>:
    138c:	e017600e 	ands	r6, r7, lr

00001390 <l1126>:
    1390:	13dc4689 	bicsne	r4, ip, #143654912	; 0x8900000

00001394 <l1127>:
    1394:	d2513dc5 	subsle	r3, r1, #12608	; 0x3140

00001398 <l1128>:
    1398:	b1720187 	cmnlt	r2, r7, lsl #3

0000139c <l1129>:
    139c:	40e62e59 	rscmi	r2, r6, r9, asr lr

000013a0 <l1130>:
    13a0:	80368007 	eorshi	r8, r6, r7

000013a4 <l1131>:
    13a4:	c17b0850 	cmngt	fp, r0, asr r8

000013a8 <l1132>:
    13a8:	9a000002 	bls	13b8 <l1136>

000013ac <l1133>:
    13ac:	816fbf12 	clzhi	fp, r2

000013b0 <l1134>:
    13b0:	91d8b06e 	bicsls	fp, r8, lr, rrx

000013b4 <l1135>:
    13b4:	e18f0107 	orr	r0, pc, r7, lsl #2

000013b8 <l1136>:
    13b8:	40cf0960 	sbcmi	r0, pc, r0, ror #18

000013bc <l1137>:
    13bc:	da000002 	ble	13cc <l1141>

000013c0 <l1138>:
    13c0:	e2801088 	add	r1, r0, #136	; 0x88

000013c4 <l1139>:
    13c4:	c13a0528 	teqgt	sl, r8, lsr #10

000013c8 <l1140>:
    13c8:	ea000000 	b	13d0 <l1142>

000013cc <l1141>:
    13cc:	eafffffc 	b	13c4 <l1139>

000013d0 <l1142>:
    13d0:	e02e4003 	eor	r4, lr, r3

000013d4 <l1143>:
    13d4:	e175042f 	cmn	r5, pc, lsr #8

000013d8 <l1144>:
    13d8:	616f8f17 	clzvs	r8, r7

000013dc <l1145>:
    13dc:	e0b0b00c 	adcs	fp, r0, ip

000013e0 <l1146>:
    13e0:	e078ac8e 	rsbs	sl, r8, lr, lsl #25

000013e4 <l1147>:
    13e4:	43dee8eb 	bicsmi	lr, lr, #15400960	; 0xeb0000

000013e8 <l1148>:
    13e8:	e11f0001 	tst	pc, r1

000013ec <l1149>:
    13ec:	8a000005 	bhi	1408 <l1156>

000013f0 <l1150>:
    13f0:	92d710e1 	sbcsls	r1, r7, #225	; 0xe1

000013f4 <l1151>:
    13f4:	43da0366 	bicsmi	r0, sl, #-1744830463	; 0x98000001

000013f8 <l1152>:
    13f8:	73b04000 	movsvc	r4, #0

000013fc <l1153>:
    13fc:	c1877000 	orrgt	r7, r7, r0

00001400 <l1154>:
    1400:	2052a502 	subscs	sl, r2, r2, lsl #10

00001404 <l1155>:
    1404:	c05026c2 	subsgt	r2, r0, r2, asr #13

00001408 <l1156>:
    1408:	e333095f 	teq	r3, #1556480	; 0x17c000

0000140c <l1157>:
    140c:	a3e06077 	mvnge	r6, #119	; 0x77

00001410 <l1158>:
    1410:	7269402d 	rsbvc	r4, r9, #45	; 0x2d

00001414 <l1159>:
    1414:	b3f05000 	mvnslt	r5, #0

00001418 <l1160>:
    1418:	511e006f 	tstpl	lr, pc, rrx

0000141c <l1161>:
    141c:	731f07cf 	tstvc	pc, #54263808	; 0x33c0000

00001420 <l1162>:
    1420:	e1790004 	cmn	r9, r4

00001424 <l1163>:
    1424:	91180001 	tstls	r8, r1

00001428 <l1164>:
    1428:	e48d7018 	str	r7, [sp], #24

0000142c <l1165>:
    142c:	ca000008 	bgt	1454 <l1175>

00001430 <l1166>:
    1430:	e3861b66 	orr	r1, r6, #104448	; 0x19800

00001434 <l1167>:
    1434:	d042100f 	suble	r1, r2, pc

00001438 <l1168>:
    1438:	83190d83 	tsthi	r9, #8384	; 0x20c0

0000143c <l1169>:
    143c:	e0145006 	ands	r5, r4, r6

00001440 <l1170>:
    1440:	e05c5320 	subs	r5, ip, r0, lsr #6

00001444 <l1171>:
    1444:	8054e860 	subshi	lr, r4, r0, ror #16

00001448 <l1172>:
    1448:	e09e9057 	adds	r9, lr, r7, asr r0

0000144c <l1173>:
    144c:	103ae37c 	eorsne	lr, sl, ip, ror r3

00001450 <l1174>:
    1450:	b1f081e9 	mvnslt	r8, r9, ror #3

00001454 <l1175>:
    1454:	e0e63785 	rsc	r3, r6, r5, lsl #15

00001458 <l1176>:
    1458:	e15e006a 	cmp	lr, sl, rrx

0000145c <l1177>:
    145c:	e49d9008 	ldr	r9, [sp], #8

00001460 <l1178>:
    1460:	80cb8575 	sbchi	r8, fp, r5, ror r5

00001464 <l1179>:
    1464:	e35b072f 	cmp	fp, #12320768	; 0xbc0000

00001468 <l1180>:
    1468:	ea000005 	b	1484 <l1187>

0000146c <l1181>:
    146c:	e2801043 	add	r1, r0, #67	; 0x43

00001470 <l1182>:
    1470:	726c7619 	rsbvc	r7, ip, #26214400	; 0x1900000

00001474 <l1183>:
    1474:	e1f03064 	mvns	r3, r4, rrx

00001478 <l1184>:
    1478:	e257ea1d 	subs	lr, r7, #118784	; 0x1d000

0000147c <l1185>:
    147c:	e1d84834 	bics	r4, r8, r4, lsr r8

00001480 <l1186>:
    1480:	ea000000 	b	1488 <l1188>

00001484 <l1187>:
    1484:	eafffff9 	b	1470 <l1182>

00001488 <l1188>:
    1488:	21d4e067 	bicscs	lr, r4, r7, rrx

0000148c <l1189>:
    148c:	701c3221 	andsvc	r3, ip, r1, lsr #4

00001490 <l1190>:
    1490:	9090aa21 	addsls	sl, r0, r1, lsr #20

00001494 <l1191>:
    1494:	e3570000 	cmp	r7, #0

00001498 <l1192>:
    1498:	e19c3008 	orrs	r3, ip, r8

0000149c <l1193>:
    149c:	e1580000 	cmp	r8, r0

000014a0 <l1194>:
    14a0:	6a000001 	bvs	14ac <l1197>

000014a4 <l1195>:
    14a4:	e054587b 	subs	r5, r4, fp, ror r8

000014a8 <l1196>:
    14a8:	51cc200b 	bicpl	r2, ip, fp

000014ac <l1197>:
    14ac:	e05ba005 	subs	sl, fp, r5

000014b0 <l1198>:
    14b0:	60134005 	andsvs	r4, r3, r5

000014b4 <l1199>:
    14b4:	ea000002 	b	14c4 <l1203>

000014b8 <l1200>:
    14b8:	e28010f8 	add	r1, r0, #248	; 0xf8

000014bc <l1201>:
    14bc:	e0dc9000 	sbcs	r9, ip, r0

000014c0 <l1202>:
    14c0:	ea000000 	b	14c8 <l1204>

000014c4 <l1203>:
    14c4:	eafffffc 	b	14bc <l1201>

000014c8 <l1204>:
    14c8:	603161af 	eorsvs	r6, r1, pc, lsr #3

000014cc <l1205>:
    14cc:	e203a301 	and	sl, r3, #67108864	; 0x4000000

000014d0 <l1206>:
    14d0:	304b623c 	subcc	r6, fp, ip, lsr r2

000014d4 <l1207>:
    14d4:	8a000002 	bhi	14e4 <l1211>

000014d8 <l1208>:
    14d8:	e0612001 	rsb	r2, r1, r1

000014dc <l1209>:
    14dc:	e1710671 	cmn	r1, r1, ror r6

000014e0 <l1210>:
    14e0:	a05a1008 	subsge	r1, sl, r8

000014e4 <l1211>:
    14e4:	816fcf17 	clzhi	ip, r7

000014e8 <l1212>:
    14e8:	e1a0606c 	rrx	r6, ip

000014ec <l1213>:
    14ec:	c0bea51b 	adcsgt	sl, lr, fp, lsl r5

000014f0 <l1214>:
    14f0:	b2bea044 	adcslt	sl, lr, #68	; 0x44

000014f4 <l1215>:
    14f4:	2a000000 	bcs	14fc <l1217>

000014f8 <l1216>:
    14f8:	e0e4e009 	rsc	lr, r4, r9

000014fc <l1217>:
    14fc:	e0158267 	ands	r8, r5, r7, ror #4

00001500 <l1218>:
    1500:	a0358002 	eorsge	r8, r5, r2

00001504 <l1219>:
    1504:	e09a1008 	adds	r1, sl, r8

00001508 <l1220>:
    1508:	e17b037b 	cmn	fp, fp, ror r3

0000150c <l1221>:
    150c:	e0c27d0a 	sbc	r7, r2, sl, lsl #26

00001510 <l1222>:
    1510:	e1a0455c 	asr	r4, ip, r5

00001514 <l1223>:
    1514:	e13b0001 	teq	fp, r1

00001518 <l1224>:
    1518:	a223ed15 	eorge	lr, r3, #1344	; 0x540

0000151c <l1225>:
    151c:	80488c58 	subhi	r8, r8, r8, asr ip

00001520 <l1226>:
    1520:	0077a00b 	rsbseq	sl, r7, fp

00001524 <l1227>:
    1524:	715a0068 	cmpvc	sl, r8, rrx

00001528 <l1228>:
    1528:	e16fbf12 	clz	fp, r2

0000152c <l1229>:
    152c:	e5bd1008 	ldr	r1, [sp, #8]!

00001530 <l1230>:
    1530:	e3a00020 	mov	r0, #32

00001534 <l1231>:
    1534:	e72d0000 	str	r0, [sp, -r0]!

00001538 <l1232>:
    1538:	b03cc06e 	eorslt	ip, ip, lr, rrx

0000153c <l1233>:
    153c:	131e0010 	tstne	lr, #16

00001540 <l1234>:
    1540:	90469479 	subls	r9, r6, r9, ror r4

00001544 <l1235>:
    1544:	e027600b 	eor	r6, r7, fp

00001548 <l1236>:
    1548:	816faf18 	clzhi	sl, r8

0000154c <l1237>:
    154c:	71170359 	tstvc	r7, r9, asr r3

00001550 <l1238>:
    1550:	d0006004 	andle	r6, r0, r4

00001554 <l1239>:
    1554:	e1350c1c 	teq	r5, ip, lsl ip

00001558 <l1240>:
    1558:	004038a3 	subeq	r3, r0, r3, lsr #17

0000155c <l1241>:
    155c:	e1959001 	orrs	r9, r5, r1

00001560 <l1242>:
    1560:	11590e39 	cmpne	r9, r9, lsr lr

00001564 <l1243>:
    1564:	e00be000 	and	lr, fp, r0

00001568 <l1244>:
    1568:	70ecb00e 	rscvc	fp, ip, lr

0000156c <l1245>:
    156c:	e0df8aa4 	sbcs	r8, pc, r4, lsr #21

00001570 <l1246>:
    1570:	90334004 	eorsls	r4, r3, r4

00001574 <l1247>:
    1574:	e3510e6a 	cmp	r1, #1696	; 0x6a0

00001578 <l1248>:
    1578:	70c6000a 	sbcvc	r0, r6, sl

0000157c <l1249>:
    157c:	e03a4060 	eors	r4, sl, r0, rrx

00001580 <l1250>:
    1580:	e0da517c 	sbcs	r5, sl, ip, ror r1

00001584 <l1251>:
    1584:	e0697b7e 	rsb	r7, r9, lr, ror fp

00001588 <l1252>:
    1588:	e1d1400f 	bics	r4, r1, pc

0000158c <l1253>:
    158c:	9020a063 	eorls	sl, r0, r3, rrx

00001590 <l1254>:
    1590:	c50d3014 	strgt	r3, [sp, #-20]

00001594 <l1255>:
    1594:	12571682 	subsne	r1, r7, #136314880	; 0x8200000

00001598 <l1256>:
    1598:	83300a7f 	teqhi	r0, #520192	; 0x7f000

0000159c <l1257>:
    159c:	e33801e5 	teq	r8, #1073741881	; 0x40000039

000015a0 <l1258>:
    15a0:	e0174553 	ands	r4, r7, r3, asr r5

000015a4 <l1259>:
    15a4:	60997009 	addsvs	r7, r9, r9

000015a8 <l1260>:
    15a8:	d0211cc2 	eorle	r1, r1, r2, asr #25

000015ac <l1261>:
    15ac:	8a000003 	bhi	15c0 <l1266>

000015b0 <l1262>:
    15b0:	e28010d6 	add	r1, r0, #214	; 0xd6

000015b4 <l1263>:
    15b4:	c33e038f 	teqgt	lr, #1006632962	; 0x3c000002

000015b8 <l1264>:
    15b8:	22404e2b 	subcs	r4, r0, #688	; 0x2b0

000015bc <l1265>:
    15bc:	ea000000 	b	15c4 <l1267>

000015c0 <l1266>:
    15c0:	eafffffb 	b	15b4 <l1263>

000015c4 <l1267>:
    15c4:	e1b0523a 	lsrs	r5, sl, r2

000015c8 <l1268>:
    15c8:	e1f00005 	mvns	r0, r5

000015cc <l1269>:
    15cc:	e59d7024 	ldr	r7, [sp, #36]	; 0x24

000015d0 <l1270>:
    15d0:	a01fb065 	andsge	fp, pc, r5, rrx

000015d4 <l1271>:
    15d4:	03b01806 	movseq	r1, #393216	; 0x60000

000015d8 <l1272>:
    15d8:	72c99a87 	sbcvc	r9, r9, #552960	; 0x87000

000015dc <l1273>:
    15dc:	c07c4006 	rsbsgt	r4, ip, r6

000015e0 <l1274>:
    15e0:	d21a1e6f 	andsle	r1, sl, #1776	; 0x6f0

000015e4 <l1275>:
    15e4:	e1f0c000 	mvns	ip, r0

000015e8 <l1276>:
    15e8:	30589a47 	subscc	r9, r8, r7, asr #20

000015ec <l1277>:
    15ec:	b0afb00c 	adclt	fp, pc, ip

000015f0 <l1278>:
    15f0:	e0859b7b 	add	r9, r5, fp, ror fp

000015f4 <l1279>:
    15f4:	c0a7800a 	adcgt	r8, r7, sl

000015f8 <l1280>:
    15f8:	737a0089 	cmnvc	sl, #137	; 0x89

000015fc <l1281>:
    15fc:	e16f1f19 	clz	r1, r9

00001600 <l1282>:
    1600:	e59de030 	ldr	lr, [sp, #48]	; 0x30

00001604 <l1283>:
    1604:	e1390e5c 	teq	r9, ip, asr lr

00001608 <l1284>:
    1608:	40a3000f 	adcmi	r0, r3, pc

0000160c <l1285>:
    160c:	9a000003 	bls	1620 <l1290>

00001610 <l1286>:
    1610:	e2801042 	add	r1, r0, #66	; 0x42

00001614 <l1287>:
    1614:	e1300003 	teq	r0, r3

00001618 <l1288>:
    1618:	e18c206b 	orr	r2, ip, fp, rrx

0000161c <l1289>:
    161c:	ea000000 	b	1624 <l1291>

00001620 <l1290>:
    1620:	eafffffb 	b	1614 <l1287>

00001624 <l1291>:
    1624:	00d5b064 	sbcseq	fp, r5, r4, rrx

00001628 <l1292>:
    1628:	03b07e1e 	movseq	r7, #480	; 0x1e0

0000162c <l1293>:
    162c:	e1e02f67 	mvn	r2, r7, ror #30

00001630 <l1294>:
    1630:	ea000001 	b	163c <l1297>

00001634 <l1295>:
    1634:	00c74005 	sbceq	r4, r7, r5

00001638 <l1296>:
    1638:	61a06f67 	rorvs	r6, r7, #30

0000163c <l1297>:
    163c:	916fef11 	clzls	lr, r1

00001640 <l1298>:
    1640:	e5bd0018 	ldr	r0, [sp, #24]!

00001644 <l1299>:
    1644:	e186c009 	orr	ip, r6, r9

00001648 <l1300>:
    1648:	e1e003af 	mvn	r0, pc, lsr #7

0000164c <l1301>:
    164c:	e2f91d4b 	rscs	r1, r9, #4800	; 0x12c0

00001650 <l1302>:
    1650:	61cf3064 	bicvs	r3, pc, r4, rrx

00001654 <l1303>:
    1654:	506eb001 	rsbpl	fp, lr, r1

00001658 <l1304>:
    1658:	113f0061 	teqne	pc, r1, rrx

0000165c <l1305>:
    165c:	e2090f55 	and	r0, r9, #340	; 0x154

00001660 <l1306>:
    1660:	20de5014 	sbcscs	r5, lr, r4, lsl r0

00001664 <l1307>:
    1664:	50f3e006 	rscspl	lr, r3, r6

00001668 <l1308>:
    1668:	2385b2e7 	orrcs	fp, r5, #1879048206	; 0x7000000e

0000166c <l1309>:
    166c:	017c006f 	cmneq	ip, pc, rrx

00001670 <l1310>:
    1670:	511a0060 	tstpl	sl, r0, rrx

00001674 <l1311>:
    1674:	e31e0d8b 	tst	lr, #8896	; 0x22c0

00001678 <l1312>:
    1678:	e16faf1b 	clz	sl, fp

0000167c <l1313>:
    167c:	b1cec008 	biclt	ip, lr, r8

00001680 <l1314>:
    1680:	30996955 	addscc	r6, r9, r5, asr r9

00001684 <l1315>:
    1684:	e0ff600e 	rscs	r6, pc, lr

00001688 <l1316>:
    1688:	e1740356 	cmn	r4, r6, asr r3

0000168c <l1317>:
    168c:	e1c0c00e 	bic	ip, r0, lr

00001690 <l1318>:
    1690:	50446c53 	subpl	r6, r4, r3, asr ip

00001694 <l1319>:
    1694:	30b2700b 	adcscc	r7, r2, fp

00001698 <l1320>:
    1698:	e0694e0a 	rsb	r4, r9, sl, lsl #28

0000169c <l1321>:
    169c:	e1b08061 	rrxs	r8, r1

000016a0 <l1322>:
    16a0:	e0857003 	add	r7, r5, r3

000016a4 <l1323>:
    16a4:	e056a758 	subs	sl, r6, r8, asr r7

000016a8 <l1324>:
    16a8:	e1945a75 	orrs	r5, r4, r5, ror sl

000016ac <l1325>:
    16ac:	e0a48000 	adc	r8, r4, r0

000016b0 <l1326>:
    16b0:	c134053c 	teqgt	r4, ip, lsr r5

000016b4 <l1327>:
    16b4:	d31305ca 	tstle	r3, #847249408	; 0x32800000

000016b8 <l1328>:
    16b8:	81360571 	teqhi	r6, r1, ror r5

000016bc <l1329>:
    16bc:	e086a005 	add	sl, r6, r5

000016c0 <l1330>:
    16c0:	b2de7933 	sbcslt	r7, lr, #835584	; 0xcc000

000016c4 <l1331>:
    16c4:	e1120009 	tst	r2, r9

000016c8 <l1332>:
    16c8:	a0012009 	andge	r2, r1, r9

000016cc <l1333>:
    16cc:	e0594735 	subs	r4, r9, r5, lsr r7

000016d0 <l1334>:
    16d0:	d05f300e 	subsle	r3, pc, lr

000016d4 <l1335>:
    16d4:	e58d000c 	str	r0, [sp, #12]

000016d8 <l1336>:
    16d8:	2a000008 	bcs	1700 <l1346>

000016dc <l1337>:
    16dc:	203a100f 	eorscs	r1, sl, pc

000016e0 <l1338>:
    16e0:	515a0061 	cmppl	sl, r1, rrx

000016e4 <l1339>:
    16e4:	e1d49001 	bics	r9, r4, r1

000016e8 <l1340>:
    16e8:	e058bd61 	subs	fp, r8, r1, ror #26

000016ec <l1341>:
    16ec:	e35409e2 	cmp	r4, #3702784	; 0x388000

000016f0 <l1342>:
    16f0:	e0a20075 	adc	r0, r2, r5, ror r0

000016f4 <l1343>:
    16f4:	104549ea 	subne	r4, r5, sl, ror #19

000016f8 <l1344>:
    16f8:	416f3f17 	clzmi	r3, r7

000016fc <l1345>:
    16fc:	80d45922 	sbcshi	r5, r4, r2, lsr #18

00001700 <l1346>:
    1700:	10541f22 	subsne	r1, r4, r2, lsr #30

00001704 <l1347>:
    1704:	e16f4f1c 	clz	r4, ip

00001708 <l1348>:
    1708:	50a8187a 	adcpl	r1, r8, sl, ror r8

0000170c <l1349>:
    170c:	c08345ac 	addgt	r4, r3, ip, lsr #11

00001710 <l1350>:
    1710:	e1cbce16 	bic	ip, fp, r6, lsl lr

00001714 <l1351>:
    1714:	958d7000 	strls	r7, [sp]

00001718 <l1352>:
    1718:	a26a2ada 	rsbge	r2, sl, #892928	; 0xda000

0000171c <l1353>:
    171c:	113701a3 	teqne	r7, r3, lsr #3

00001720 <l1354>:
    1720:	2a000008 	bcs	1748 <l1364>

00001724 <l1355>:
    1724:	a08c2b64 	addge	r2, ip, r4, ror #22

00001728 <l1356>:
    1728:	6132000c 	teqvs	r2, ip

0000172c <l1357>:
    172c:	e2ee1636 	rsc	r1, lr, #56623104	; 0x3600000

00001730 <l1358>:
    1730:	13da0091 	bicsne	r0, sl, #145	; 0x91

00001734 <l1359>:
    1734:	82b040ca 	adcshi	r4, r0, #202	; 0xca

00001738 <l1360>:
    1738:	e17f0005 	cmn	pc, r5

0000173c <l1361>:
    173c:	e0584007 	subs	r4, r8, r7

00001740 <l1362>:
    1740:	b35b0565 	cmplt	fp, #423624704	; 0x19400000

00001744 <l1363>:
    1744:	e073532f 	rsbs	r5, r3, pc, lsr #6

00001748 <l1364>:
    1748:	51140aca 	tstpl	r4, sl, asr #21

0000174c <l1365>:
    174c:	20429009 	subcs	r9, r2, r9

00001750 <l1366>:
    1750:	2131000c 	teqcs	r1, ip

00001754 <l1367>:
    1754:	90e93e10 	rscls	r3, r9, r0, lsl lr

00001758 <l1368>:
    1758:	1a000006 	bne	1778 <l1376>

0000175c <l1369>:
    175c:	e0cac619 	sbc	ip, sl, r9, lsl r6

00001760 <l1370>:
    1760:	e0d34574 	sbcs	r4, r3, r4, ror r5

00001764 <l1371>:
    1764:	63b0a4df 	movsvs	sl, #-553648128	; 0xdf000000

00001768 <l1372>:
    1768:	e0e47639 	rsc	r7, r4, r9, lsr r6

0000176c <l1373>:
    176c:	e1d15817 	bics	r5, r1, r7, lsl r8

00001770 <l1374>:
    1770:	e155006e 	cmp	r5, lr, rrx

00001774 <l1375>:
    1774:	9247cf9d 	subls	ip, r7, #628	; 0x274

00001778 <l1376>:
    1778:	30b9000e 	adcscc	r0, r9, lr

0000177c <l1377>:
    177c:	da000002 	ble	178c <l1381>

00001780 <l1378>:
    1780:	e2801090 	add	r1, r0, #144	; 0x90

00001784 <l1379>:
    1784:	a0b40eee 	adcsge	r0, r4, lr, ror #29

00001788 <l1380>:
    1788:	ea000000 	b	1790 <l1382>

0000178c <l1381>:
    178c:	eafffffc 	b	1784 <l1379>

00001790 <l1382>:
    1790:	d1a0a003 	movle	sl, r3

00001794 <l1383>:
    1794:	e0838b36 	add	r8, r3, r6, lsr fp

00001798 <l1384>:
    1798:	e3a00018 	mov	r0, #24

0000179c <l1385>:
    179c:	e61dc000 	ldr	ip, [sp], -r0

000017a0 <l1386>:
    17a0:	e16f6f12 	clz	r6, r2

000017a4 <l1387>:
    17a4:	62878537 	addvs	r8, r7, #230686720	; 0xdc00000

000017a8 <l1388>:
    17a8:	22d29279 	sbcscs	r9, r2, #-1879048185	; 0x90000007

000017ac <l1389>:
    17ac:	6205e561 	andvs	lr, r5, #406847488	; 0x18400000

000017b0 <l1390>:
    17b0:	50c329e1 	sbcpl	r2, r3, r1, ror #19

000017b4 <l1391>:
    17b4:	30f1700a 	rscscc	r7, r1, sl

000017b8 <l1392>:
    17b8:	e056228b 	subs	r2, r6, fp, lsl #5

000017bc <l1393>:
    17bc:	616f8f10 	clzvs	r8, r0

000017c0 <l1394>:
    17c0:	009f6004 	addseq	r6, pc, r4

000017c4 <l1395>:
    17c4:	e0647155 	rsb	r7, r4, r5, asr r1

000017c8 <l1396>:
    17c8:	e2836825 	add	r6, r3, #2424832	; 0x250000

000017cc <l1397>:
    17cc:	3a000004 	bcc	17e4 <l1403>

000017d0 <l1398>:
    17d0:	e336030e 	teq	r6, #939524096	; 0x38000000

000017d4 <l1399>:
    17d4:	a2330f79 	eorsge	r0, r3, #484	; 0x1e4

000017d8 <l1400>:
    17d8:	617a0003 	cmnvs	sl, r3

000017dc <l1401>:
    17dc:	b1dcce17 	bicslt	ip, ip, r7, lsl lr

000017e0 <l1402>:
    17e0:	e11901ee 	tst	r9, lr, ror #3

000017e4 <l1403>:
    17e4:	e1b027c5 	asrs	r2, r5, #15

000017e8 <l1404>:
    17e8:	33780036 	cmncc	r8, #54	; 0x36

000017ec <l1405>:
    17ec:	6138023a 	teqvs	r8, sl, lsr r2

000017f0 <l1406>:
    17f0:	30fba98e 	rscscc	sl, fp, lr, lsl #19

000017f4 <l1407>:
    17f4:	222b831e 	eorcs	r8, fp, #2013265920	; 0x78000000

000017f8 <l1408>:
    17f8:	ea000005 	b	1814 <l1415>

000017fc <l1409>:
    17fc:	803b345b 	eorshi	r3, fp, fp, asr r4

00001800 <l1410>:
    1800:	e1530000 	cmp	r3, r0

00001804 <l1411>:
    1804:	43f06a35 	mvnsmi	r6, #217088	; 0x35000

00001808 <l1412>:
    1808:	e1360353 	teq	r6, r3, asr r3

0000180c <l1413>:
    180c:	a20aaa2d 	andge	sl, sl, #184320	; 0x2d000

00001810 <l1414>:
    1810:	81ce0063 	bichi	r0, lr, r3, rrx

00001814 <l1415>:
    1814:	e37b0c32 	cmn	fp, #12800	; 0x3200

00001818 <l1416>:
    1818:	ea000007 	b	183c <l1425>

0000181c <l1417>:
    181c:	e28010b5 	add	r1, r0, #181	; 0xb5

00001820 <l1418>:
    1820:	e0837e67 	add	r7, r3, r7, ror #28

00001824 <l1419>:
    1824:	33f0c37e 	mvnscc	ip, #-134217727	; 0xf8000001

00001828 <l1420>:
    1828:	e3150af9 	tst	r5, #1019904	; 0xf9000

0000182c <l1421>:
    182c:	e1350a0f 	teq	r5, pc, lsl #20

00001830 <l1422>:
    1830:	b1550c78 	cmplt	r5, r8, ror ip

00001834 <l1423>:
    1834:	3078200b 	rsbscc	r2, r8, fp

00001838 <l1424>:
    1838:	ea000000 	b	1840 <l1426>

0000183c <l1425>:
    183c:	eafffff7 	b	1820 <l1418>

00001840 <l1426>:
    1840:	ea000005 	b	185c <l1433>

00001844 <l1427>:
    1844:	e2801045 	add	r1, r0, #69	; 0x45

00001848 <l1428>:
    1848:	e1700067 	cmn	r0, r7, rrx

0000184c <l1429>:
    184c:	e1b04054 	asrs	r4, r4, r0

00001850 <l1430>:
    1850:	a16fcf10 	clzge	ip, r0

00001854 <l1431>:
    1854:	e1f07061 	mvns	r7, r1, rrx

00001858 <l1432>:
    1858:	ea000000 	b	1860 <l1434>

0000185c <l1433>:
    185c:	eafffff9 	b	1848 <l1428>

00001860 <l1434>:
    1860:	e3a0a000 	mov	sl, #0

00001864 <l1435>:
    1864:	e7adf00a 	str	pc, [sp, sl]!

00001868 <l1436>:
    1868:	e1d1a00b 	bics	sl, r1, fp

0000186c <l1437>:
    186c:	1a000006 	bne	188c <l1445>

00001870 <l1438>:
    1870:	e280104b 	add	r1, r0, #75	; 0x4b

00001874 <l1439>:
    1874:	51df5408 	bicspl	r5, pc, r8, lsl #8

00001878 <l1440>:
    1878:	e3520302 	cmp	r2, #134217728	; 0x8000000

0000187c <l1441>:
    187c:	2066c06b 	rsbcs	ip, r6, fp, rrx

00001880 <l1442>:
    1880:	e186e06b 	orr	lr, r6, fp, rrx

00001884 <l1443>:
    1884:	419251a6 	orrsmi	r5, r2, r6, lsr #3

00001888 <l1444>:
    1888:	ea000000 	b	1890 <l1446>

0000188c <l1445>:
    188c:	eafffff8 	b	1874 <l1439>

00001890 <l1446>:
    1890:	d193806a 	orrsle	r8, r3, sl, rrx

00001894 <l1447>:
    1894:	e0a8ae76 	adc	sl, r8, r6, ror lr

00001898 <l1448>:
    1898:	805e95c1 	subshi	r9, lr, r1, asr #11

0000189c <l1449>:
    189c:	e1760579 	cmn	r6, r9, ror r5

000018a0 <l1450>:
    18a0:	e03e133c 	eors	r1, lr, ip, lsr r3

000018a4 <l1451>:
    18a4:	4199763a 	orrsmi	r7, r9, sl, lsr r6

000018a8 <l1452>:
    18a8:	e0a83009 	adc	r3, r8, r9

000018ac <l1453>:
    18ac:	81d5c136 	bicshi	ip, r5, r6, lsr r1

000018b0 <l1454>:
    18b0:	e0458067 	sub	r8, r5, r7, rrx

000018b4 <l1455>:
    18b4:	3018400e 	andscc	r4, r8, lr

000018b8 <l1456>:
    18b8:	d1550faf 	cmple	r5, pc, lsr #31

000018bc <l1457>:
    18bc:	71f0e810 	mvnsvc	lr, r0, lsl r8

000018c0 <l1458>:
    18c0:	e007b233 	and	fp, r7, r3, lsr r2

000018c4 <l1459>:
    18c4:	e2fa2402 	rscs	r2, sl, #33554432	; 0x2000000

000018c8 <l1460>:
    18c8:	e063c117 	rsb	ip, r3, r7, lsl r1

000018cc <l1461>:
    18cc:	c0654005 	rsbgt	r4, r5, r5

000018d0 <l1462>:
    18d0:	c04e3a3c 	subgt	r3, lr, ip, lsr sl

000018d4 <l1463>:
    18d4:	ea000001 	b	18e0 <l1466>

000018d8 <l1464>:
    18d8:	e1c1e001 	bic	lr, r1, r1

000018dc <l1465>:
    18dc:	e38cc327 	orr	ip, ip, #-1677721600	; 0x9c000000

000018e0 <l1466>:
    18e0:	e1370988 	teq	r7, r8, lsl #19

000018e4 <l1467>:
    18e4:	d088b005 	addle	fp, r8, r5

000018e8 <l1468>:
    18e8:	e3a09004 	mov	r9, #4

000018ec <l1469>:
    18ec:	e7ad9009 	str	r9, [sp, r9]!

000018f0 <l1470>:
    18f0:	e16f3f15 	clz	r3, r5

000018f4 <l1471>:
    18f4:	e3a09008 	mov	r9, #8

000018f8 <l1472>:
    18f8:	e7bd4009 	ldr	r4, [sp, r9]!

000018fc <l1473>:
    18fc:	b0646008 	rsblt	r6, r4, r8

00001900 <l1474>:
    1900:	211a0c59 	tstcs	sl, r9, asr ip

00001904 <l1475>:
    1904:	22ae9a23 	adccs	r9, lr, #143360	; 0x23000

00001908 <l1476>:
    1908:	23720319 	cmncs	r2, #1677721600	; 0x64000000

0000190c <l1477>:
    190c:	30bfe06f 	adcscc	lr, pc, pc, rrx

00001910 <l1478>:
    1910:	401fe8ec 	andsmi	lr, pc, ip, ror #17

00001914 <l1479>:
    1914:	e0f24062 	rscs	r4, r2, r2, rrx

00001918 <l1480>:
    1918:	850d0014 	strhi	r0, [sp, #-20]

0000191c <l1481>:
    191c:	e296bc9d 	adds	fp, r6, #40192	; 0x9d00

00001920 <l1482>:
    1920:	e1f0a005 	mvns	sl, r5

00001924 <l1483>:
    1924:	058d500c 	streq	r5, [sp, #12]

00001928 <l1484>:
    1928:	e1d6247c 	bics	r2, r6, ip, ror r4

0000192c <l1485>:
    192c:	4198b930 	orrsmi	fp, r8, r0, lsr r9

00001930 <l1486>:
    1930:	2051200f 	subscs	r2, r1, pc

00001934 <l1487>:
    1934:	216faf17 	clzcs	sl, r7

00001938 <l1488>:
    1938:	909f1c2a 	addsls	r1, pc, sl, lsr #24

0000193c <l1489>:
    193c:	01cf964c 	biceq	r9, pc, ip, asr #12

00001940 <l1490>:
    1940:	0a000004 	beq	1958 <l1496>

00001944 <l1491>:
    1944:	20acc007 	adccs	ip, ip, r7

00001948 <l1492>:
    1948:	41876226 	orrmi	r6, r7, r6, lsr #4

0000194c <l1493>:
    194c:	e0e23dec 	rsc	r3, r2, ip, ror #27

00001950 <l1494>:
    1950:	e1980c55 	orrs	r0, r8, r5, asr ip

00001954 <l1495>:
    1954:	e1350ae2 	teq	r5, r2, ror #21

00001958 <l1496>:
    1958:	e2576b0a 	subs	r6, r7, #10240	; 0x2800

0000195c <l1497>:
    195c:	e0053e58 	and	r3, r5, r8, asr lr

00001960 <l1498>:
    1960:	e3a0401c 	mov	r4, #28

00001964 <l1499>:
    1964:	e72dc004 	str	ip, [sp, -r4]!

00001968 <l1500>:
    1968:	d181953b 	orrle	r9, r1, fp, lsr r5

0000196c <l1501>:
    196c:	91a0206a 	rrxls	r2, sl

00001970 <l1502>:
    1970:	e0109874 	ands	r9, r0, r4, ror r8

00001974 <l1503>:
    1974:	7a000000 	bvc	197c <l1505>

00001978 <l1504>:
    1978:	e039686b 	eors	r6, r9, fp, ror #16

0000197c <l1505>:
    197c:	c11f0284 	tstgt	pc, r4, lsl #5

00001980 <l1506>:
    1980:	ea000006 	b	19a0 <l1514>

00001984 <l1507>:
    1984:	e2801098 	add	r1, r0, #152	; 0x98

00001988 <l1508>:
    1988:	33c7cc23 	biccc	ip, r7, #8960	; 0x2300

0000198c <l1509>:
    198c:	70c67007 	sbcvc	r7, r6, r7

00001990 <l1510>:
    1990:	e379090f 	cmn	r9, #245760	; 0x3c000

00001994 <l1511>:
    1994:	e0312a37 	eors	r2, r1, r7, lsr sl

00001998 <l1512>:
    1998:	a1580e71 	cmpge	r8, r1, ror lr

0000199c <l1513>:
    199c:	ea000000 	b	19a4 <l1515>

000019a0 <l1514>:
    19a0:	eafffff8 	b	1988 <l1508>

000019a4 <l1515>:
    19a4:	b248bc1f 	sublt	fp, r8, #7936	; 0x1f00

000019a8 <l1516>:
    19a8:	40ea0710 	rscmi	r0, sl, r0, lsl r7

000019ac <l1517>:
    19ac:	e11a006b 	tst	sl, fp, rrx

000019b0 <l1518>:
    19b0:	e52da008 	str	sl, [sp, #-8]!

000019b4 <l1519>:
    19b4:	7152000f 	cmpvc	r2, pc

000019b8 <l1520>:
    19b8:	a2124d26 	andsge	r4, r2, #2432	; 0x980

000019bc <l1521>:
    19bc:	ea000006 	b	19dc <l1529>

000019c0 <l1522>:
    19c0:	e280103c 	add	r1, r0, #60	; 0x3c

000019c4 <l1523>:
    19c4:	e0442ce4 	sub	r2, r4, r4, ror #25

000019c8 <l1524>:
    19c8:	706f300a 	rsbvc	r3, pc, sl

000019cc <l1525>:
    19cc:	e19be06e 	orrs	lr, fp, lr, rrx

000019d0 <l1526>:
    19d0:	e04b60c8 	sub	r6, fp, r8, asr #1

000019d4 <l1527>:
    19d4:	70a3797a 	adcvc	r7, r3, sl, ror r9

000019d8 <l1528>:
    19d8:	ea000000 	b	19e0 <l1530>

000019dc <l1529>:
    19dc:	eafffff8 	b	19c4 <l1523>

000019e0 <l1530>:
    19e0:	4194000a 	orrsmi	r0, r4, sl

000019e4 <l1531>:
    19e4:	ea000008 	b	1a0c <l1541>

000019e8 <l1532>:
    19e8:	606e8936 	rsbvs	r8, lr, r6, lsr r9

000019ec <l1533>:
    19ec:	425c00cd 	subsmi	r0, ip, #205	; 0xcd

000019f0 <l1534>:
    19f0:	83a0ce61 	movhi	ip, #1552	; 0x610

000019f4 <l1535>:
    19f4:	e1d79000 	bics	r9, r7, r0

000019f8 <l1536>:
    19f8:	e0bb8073 	adcs	r8, fp, r3, ror r0

000019fc <l1537>:
    19fc:	11f02002 	mvnsne	r2, r2

00001a00 <l1538>:
    1a00:	e2599f6e 	subs	r9, r9, #440	; 0x1b8

00001a04 <l1539>:
    1a04:	e0646519 	rsb	r6, r4, r9, lsl r5

00001a08 <l1540>:
    1a08:	e1570008 	cmp	r7, r8

00001a0c <l1541>:
    1a0c:	e1c89979 	bic	r9, r8, r9, ror r9

00001a10 <l1542>:
    1a10:	30e1b001 	rsccc	fp, r1, r1

00001a14 <l1543>:
    1a14:	a16faf18 	clzge	sl, r8

00001a18 <l1544>:
    1a18:	013c0216 	teqeq	ip, r6, lsl r2

00001a1c <l1545>:
    1a1c:	d23bc91e 	eorsle	ip, fp, #491520	; 0x78000

00001a20 <l1546>:
    1a20:	a0465c63 	subge	r5, r6, r3, ror #24

00001a24 <l1547>:
    1a24:	e03be3e8 	eors	lr, fp, r8, ror #7

00001a28 <l1548>:
    1a28:	e1f03dac 	mvns	r3, ip, lsr #27

00001a2c <l1549>:
    1a2c:	d154000f 	cmple	r4, pc

00001a30 <l1550>:
    1a30:	a29390ec 	addsge	r9, r3, #236	; 0xec

00001a34 <l1551>:
    1a34:	7a000003 	bvc	1a48 <l1556>

00001a38 <l1552>:
    1a38:	e28010a5 	add	r1, r0, #165	; 0xa5

00001a3c <l1553>:
    1a3c:	0374082b 	cmneq	r4, #2818048	; 0x2b0000

00001a40 <l1554>:
    1a40:	61f0cd04 	mvnsvs	ip, r4, lsl #26

00001a44 <l1555>:
    1a44:	ea000000 	b	1a4c <l1557>

00001a48 <l1556>:
    1a48:	eafffffb 	b	1a3c <l1553>

00001a4c <l1557>:
    1a4c:	0182e00f 	orreq	lr, r2, pc

00001a50 <l1558>:
    1a50:	ba000002 	blt	1a60 <l1562>

00001a54 <l1559>:
    1a54:	e28010e5 	add	r1, r0, #229	; 0xe5

00001a58 <l1560>:
    1a58:	e17e085a 	cmn	lr, sl, asr r8

00001a5c <l1561>:
    1a5c:	ea000000 	b	1a64 <l1563>

00001a60 <l1562>:
    1a60:	eafffffc 	b	1a58 <l1560>

00001a64 <l1563>:
    1a64:	e15b044b 	cmp	fp, fp, asr #8

00001a68 <l1564>:
    1a68:	0004c062 	andeq	ip, r4, r2, rrx

00001a6c <l1565>:
    1a6c:	b0d9000a 	sbcslt	r0, r9, sl

00001a70 <l1566>:
    1a70:	e0fc800f 	rscs	r8, ip, pc

00001a74 <l1567>:
    1a74:	13d9a7b7 	bicsne	sl, r9, #47972352	; 0x2dc0000

00001a78 <l1568>:
    1a78:	d0f30e2c 	rscsle	r0, r3, ip, lsr #28

00001a7c <l1569>:
    1a7c:	60f0006b 	rscsvs	r0, r0, fp, rrx

00001a80 <l1570>:
    1a80:	e2782ab6 	rsbs	r2, r8, #745472	; 0xb6000

00001a84 <l1571>:
    1a84:	9a000005 	bls	1aa0 <l1578>

00001a88 <l1572>:
    1a88:	e2801052 	add	r1, r0, #82	; 0x52

00001a8c <l1573>:
    1a8c:	e3926a2f 	orrs	r6, r2, #192512	; 0x2f000

00001a90 <l1574>:
    1a90:	e2aabf99 	adc	fp, sl, #612	; 0x264

00001a94 <l1575>:
    1a94:	e0c82e7a 	sbc	r2, r8, sl, ror lr

00001a98 <l1576>:
    1a98:	e17f006a 	cmn	pc, sl, rrx

00001a9c <l1577>:
    1a9c:	ea000000 	b	1aa4 <l1579>

00001aa0 <l1578>:
    1aa0:	eafffff9 	b	1a8c <l1573>

00001aa4 <l1579>:
    1aa4:	ea000000 	b	1aac <l1581>

00001aa8 <l1580>:
    1aa8:	e2ff8f67 	rscs	r8, pc, #412	; 0x19c

00001aac <l1581>:
    1aac:	2067500a 	rsbcs	r5, r7, sl

00001ab0 <l1582>:
    1ab0:	81851842 	orrhi	r1, r5, r2, asr #16

00001ab4 <l1583>:
    1ab4:	e11f0001 	tst	pc, r1

00001ab8 <l1584>:
    1ab8:	41330b3e 	teqmi	r3, lr, lsr fp

00001abc <l1585>:
    1abc:	b046e86f 	sublt	lr, r6, pc, ror #16

00001ac0 <l1586>:
    1ac0:	d04e8465 	suble	r8, lr, r5, ror #8

00001ac4 <l1587>:
    1ac4:	aa000005 	bge	1ae0 <l1594>

00001ac8 <l1588>:
    1ac8:	e280101f 	add	r1, r0, #31

00001acc <l1589>:
    1acc:	e13f000a 	teq	pc, sl

00001ad0 <l1590>:
    1ad0:	e0eb0006 	rsc	r0, fp, r6

00001ad4 <l1591>:
    1ad4:	d38b2a57 	orrle	r2, fp, #356352	; 0x57000

00001ad8 <l1592>:
    1ad8:	70d87000 	sbcsvc	r7, r8, r0

00001adc <l1593>:
    1adc:	ea000000 	b	1ae4 <l1595>

00001ae0 <l1594>:
    1ae0:	eafffff9 	b	1acc <l1589>

00001ae4 <l1595>:
    1ae4:	e0bf9003 	adcs	r9, pc, r3

00001ae8 <l1596>:
    1ae8:	21130330 	tstcs	r3, r0, lsr r3

00001aec <l1597>:
    1aec:	41730e74 	cmnmi	r3, r4, ror lr

00001af0 <l1598>:
    1af0:	92ca9abe 	sbcls	r9, sl, #778240	; 0xbe000

00001af4 <l1599>:
    1af4:	e0c59063 	sbc	r9, r5, r3, rrx

00001af8 <l1600>:
    1af8:	e084b06c 	add	fp, r4, ip, rrx

00001afc <l1601>:
    1afc:	e17b000e 	cmn	fp, lr

00001b00 <l1602>:
    1b00:	701f0068 	andsvc	r0, pc, r8, rrx

00001b04 <l1603>:
    1b04:	3a000007 	bcc	1b28 <l1612>

00001b08 <l1604>:
    1b08:	e16f6f1a 	clz	r6, sl

00001b0c <l1605>:
    1b0c:	013a000f 	teqeq	sl, pc

00001b10 <l1606>:
    1b10:	40c12e2a 	sbcmi	r2, r1, sl, lsr #28

00001b14 <l1607>:
    1b14:	40d17540 	sbcsmi	r7, r1, r0, asr #10

00001b18 <l1608>:
    1b18:	41e0885a 	mvnmi	r8, sl, asr r8

00001b1c <l1609>:
    1b1c:	e2d66831 	sbcs	r6, r6, #3211264	; 0x310000

00001b20 <l1610>:
    1b20:	7087900c 	addvc	r9, r7, ip

00001b24 <l1611>:
    1b24:	303fa18c 	eorscc	sl, pc, ip, lsl #3

00001b28 <l1612>:
    1b28:	91170004 	tstls	r7, r4

00001b2c <l1613>:
    1b2c:	2259953a 	subscs	r9, r9, #243269632	; 0xe800000

00001b30 <l1614>:
    1b30:	73720501 	cmnvc	r2, #4194304	; 0x400000

00001b34 <l1615>:
    1b34:	10e4cc7b 	rscne	ip, r4, fp, ror ip

00001b38 <l1616>:
    1b38:	a193600e 	orrsge	r6, r3, lr

00001b3c <l1617>:
    1b3c:	e032e006 	eors	lr, r2, r6

00001b40 <l1618>:
    1b40:	a07ec002 	rsbsge	ip, lr, r2

00001b44 <l1619>:
    1b44:	90471cac 	subls	r1, r7, ip, lsr #25

00001b48 <l1620>:
    1b48:	70a88586 	adcvc	r8, r8, r6, lsl #11

00001b4c <l1621>:
    1b4c:	e3a08048 	mov	r8, #72	; 0x48

00001b50 <l1622>:
    1b50:	e79db008 	ldr	fp, [sp, r8]

00001b54 <l1623>:
    1b54:	e13c0158 	teq	ip, r8, asr r1

00001b58 <l1624>:
    1b58:	5374060f 	cmnpl	r4, #15728640	; 0xf00000

00001b5c <l1625>:
    1b5c:	e59dc038 	ldr	ip, [sp, #56]	; 0x38

00001b60 <l1626>:
    1b60:	c3560523 	cmpgt	r6, #146800640	; 0x8c00000

00001b64 <l1627>:
    1b64:	4192c00f 	orrsmi	ip, r2, pc

00001b68 <l1628>:
    1b68:	e17a0000 	cmn	sl, r0

00001b6c <l1629>:
    1b6c:	a0034006 	andge	r4, r3, r6

00001b70 <l1630>:
    1b70:	e19c7009 	orrs	r7, ip, r9

00001b74 <l1631>:
    1b74:	e21477e2 	ands	r7, r4, #59244544	; 0x3880000

00001b78 <l1632>:
    1b78:	d11e0068 	tstle	lr, r8, rrx

00001b7c <l1633>:
    1b7c:	858d3028 	strhi	r3, [sp, #40]	; 0x28

00001b80 <l1634>:
    1b80:	e0751001 	rsbs	r1, r5, r1

00001b84 <l1635>:
    1b84:	e33609ee 	teq	r6, #3899392	; 0x3b8000

00001b88 <l1636>:
    1b88:	da000005 	ble	1ba4 <l1643>

00001b8c <l1637>:
    1b8c:	01540103 	cmpeq	r4, r3, lsl #2

00001b90 <l1638>:
    1b90:	c2525303 	subsgt	r5, r2, #201326592	; 0xc000000

00001b94 <l1639>:
    1b94:	e2440063 	sub	r0, r4, #99	; 0x63

00001b98 <l1640>:
    1b98:	50e65e4a 	rscpl	r5, r6, sl, asr #28

00001b9c <l1641>:
    1b9c:	e194c881 	orrs	ip, r4, r1, lsl #17

00001ba0 <l1642>:
    1ba0:	e22f256e 	eor	r2, pc, #461373440	; 0x1b800000

00001ba4 <l1643>:
    1ba4:	e13c0b0f 	teq	ip, pc, lsl #22

00001ba8 <l1644>:
    1ba8:	e2b56b93 	adcs	r6, r5, #150528	; 0x24c00

00001bac <l1645>:
    1bac:	e16f3f10 	clz	r3, r0

00001bb0 <l1646>:
    1bb0:	ea000006 	b	1bd0 <l1654>

00001bb4 <l1647>:
    1bb4:	e280105a 	add	r1, r0, #90	; 0x5a

00001bb8 <l1648>:
    1bb8:	e1b0a002 	movs	sl, r2

00001bbc <l1649>:
    1bbc:	43100b3d 	tstmi	r0, #62464	; 0xf400

00001bc0 <l1650>:
    1bc0:	828f2a15 	addhi	r2, pc, #86016	; 0x15000

00001bc4 <l1651>:
    1bc4:	d1730062 	cmnle	r3, r2, rrx

00001bc8 <l1652>:
    1bc8:	e0ef7064 	rsc	r7, pc, r4, rrx

00001bcc <l1653>:
    1bcc:	ea000000 	b	1bd4 <l1655>

00001bd0 <l1654>:
    1bd0:	eafffff8 	b	1bb8 <l1648>

00001bd4 <l1655>:
    1bd4:	e1180008 	tst	r8, r8

00001bd8 <l1656>:
    1bd8:	e15f0a6c 	cmp	pc, ip, ror #20

00001bdc <l1657>:
    1bdc:	e0544a6f 	subs	r4, r4, pc, ror #20

00001be0 <l1658>:
    1be0:	8295a535 	addshi	sl, r5, #222298112	; 0xd400000

00001be4 <l1659>:
    1be4:	e04a4378 	sub	r4, sl, r8, ror r3

00001be8 <l1660>:
    1be8:	ea000007 	b	1c0c <l1669>

00001bec <l1661>:
    1bec:	e280103d 	add	r1, r0, #61	; 0x3d

00001bf0 <l1662>:
    1bf0:	b1530511 	cmplt	r3, r1, lsl r5

00001bf4 <l1663>:
    1bf4:	83e09c9a 	mvnhi	r9, #39424	; 0x9a00

00001bf8 <l1664>:
    1bf8:	b017600e 	andslt	r6, r7, lr

00001bfc <l1665>:
    1bfc:	e1770bc8 	cmn	r7, r8, asr #23

00001c00 <l1666>:
    1c00:	60e0e00c 	rscvs	lr, r0, ip

00001c04 <l1667>:
    1c04:	41da4838 	bicsmi	r4, sl, r8, lsr r8

00001c08 <l1668>:
    1c08:	ea000000 	b	1c10 <l1670>

00001c0c <l1669>:
    1c0c:	eafffff7 	b	1bf0 <l1662>

00001c10 <l1670>:
    1c10:	008ae007 	addeq	lr, sl, r7

00001c14 <l1671>:
    1c14:	b1e02065 	mvnlt	r2, r5, rrx

00001c18 <l1672>:
    1c18:	2a000007 	bcs	1c3c <l1681>

00001c1c <l1673>:
    1c1c:	e2801078 	add	r1, r0, #120	; 0x78

00001c20 <l1674>:
    1c20:	a3790899 	cmnge	r9, #10027008	; 0x990000

00001c24 <l1675>:
    1c24:	938391ab 	orrls	r9, r3, #-1073741782	; 0xc000002a

00001c28 <l1676>:
    1c28:	81d2886e 	bicshi	r8, r2, lr, ror #16

00001c2c <l1677>:
    1c2c:	91550067 	cmpls	r5, r7, rrx

00001c30 <l1678>:
    1c30:	91e0e06b 	mvnls	lr, fp, rrx

00001c34 <l1679>:
    1c34:	e2439a95 	sub	r9, r3, #610304	; 0x95000

00001c38 <l1680>:
    1c38:	ea000000 	b	1c40 <l1682>

00001c3c <l1681>:
    1c3c:	eafffff7 	b	1c20 <l1674>

00001c40 <l1682>:
    1c40:	ca000003 	bgt	1c54 <l1687>

00001c44 <l1683>:
    1c44:	e2801093 	add	r1, r0, #147	; 0x93

00001c48 <l1684>:
    1c48:	e0718066 	rsbs	r8, r1, r6, rrx

00001c4c <l1685>:
    1c4c:	a1868002 	orrge	r8, r6, r2

00001c50 <l1686>:
    1c50:	ea000000 	b	1c58 <l1688>

00001c54 <l1687>:
    1c54:	eafffffb 	b	1c48 <l1684>

00001c58 <l1688>:
    1c58:	ba000004 	blt	1c70 <l1694>

00001c5c <l1689>:
    1c5c:	e2801019 	add	r1, r0, #25

00001c60 <l1690>:
    1c60:	904b0202 	subls	r0, fp, r2, lsl #4

00001c64 <l1691>:
    1c64:	837009c7 	cmnhi	r0, #3260416	; 0x31c000

00001c68 <l1692>:
    1c68:	e17a0d4e 	cmn	sl, lr, asr #26

00001c6c <l1693>:
    1c6c:	ea000000 	b	1c74 <l1695>

00001c70 <l1694>:
    1c70:	eafffffa 	b	1c60 <l1690>

00001c74 <l1695>:
    1c74:	e3a00040 	mov	r0, #64	; 0x40

00001c78 <l1696>:
    1c78:	e7bd0000 	ldr	r0, [sp, r0]!

00001c7c <l1697>:
    1c7c:	d1c2200e 	bicle	r2, r2, lr

00001c80 <l1698>:
    1c80:	40c64e7c 	sbcmi	r4, r6, ip, ror lr

00001c84 <l1699>:
    1c84:	e040a008 	sub	sl, r0, r8

00001c88 <l1700>:
    1c88:	e1e02a79 	mvn	r2, r9, ror sl

00001c8c <l1701>:
    1c8c:	3083b004 	addcc	fp, r3, r4

00001c90 <l1702>:
    1c90:	e06a100e 	rsb	r1, sl, lr

00001c94 <l1703>:
    1c94:	61b04754 	asrsvs	r4, r4, r7

00001c98 <l1704>:
    1c98:	e3a0c030 	mov	ip, #48	; 0x30

00001c9c <l1705>:
    1c9c:	e61da00c 	ldr	sl, [sp], -ip

00001ca0 <l1706>:
    1ca0:	533b0723 	teqpl	fp, #9175040	; 0x8c0000

00001ca4 <l1707>:
    1ca4:	e16f7f1a 	clz	r7, sl

00001ca8 <l1708>:
    1ca8:	721fb281 	andsvc	fp, pc, #268435464	; 0x10000008

00001cac <l1709>:
    1cac:	e051442b 	subs	r4, r1, fp, lsr #8

00001cb0 <l1710>:
    1cb0:	e3a0b010 	mov	fp, #16

00001cb4 <l1711>:
    1cb4:	e72df00b 	str	pc, [sp, -fp]!

00001cb8 <l1712>:
    1cb8:	e1730005 	cmn	r3, r5

00001cbc <l1713>:
    1cbc:	908e8004 	addls	r8, lr, r4

00001cc0 <l1714>:
    1cc0:	015b0017 	cmpeq	fp, r7, lsl r0

00001cc4 <l1715>:
    1cc4:	60310779 	eorsvs	r0, r1, r9, ror r7

00001cc8 <l1716>:
    1cc8:	b1710852 	cmnlt	r1, r2, asr r8

00001ccc <l1717>:
    1ccc:	61520255 	cmpvs	r2, r5, asr r2

00001cd0 <l1718>:
    1cd0:	00f6806f 	rscseq	r8, r6, pc, rrx

00001cd4 <l1719>:
    1cd4:	d1a01835 	lsrle	r1, r5, r8

00001cd8 <l1720>:
    1cd8:	40e87972 	rscmi	r7, r8, r2, ror r9

00001cdc <l1721>:
    1cdc:	e0430009 	sub	r0, r3, r9

00001ce0 <l1722>:
    1ce0:	815501e0 	cmphi	r5, r0, ror #3

00001ce4 <l1723>:
    1ce4:	608b700f 	addvs	r7, fp, pc

00001ce8 <l1724>:
    1ce8:	722c9b6e 	eorvc	r9, ip, #112640	; 0x1b800

00001cec <l1725>:
    1cec:	e5ad2040 	str	r2, [sp, #64]!	; 0x40

00001cf0 <l1726>:
    1cf0:	91e0a864 	mvnls	sl, r4, ror #16

00001cf4 <l1727>:
    1cf4:	615b0008 	cmpvs	fp, r8

00001cf8 <l1728>:
    1cf8:	6180800f 	orrvs	r8, r0, pc

00001cfc <l1729>:
    1cfc:	d354072e 	cmple	r4, #12058624	; 0xb80000

00001d00 <l1730>:
    1d00:	91570060 	cmpls	r7, r0, rrx

00001d04 <l1731>:
    1d04:	21330007 	teqcs	r3, r7

00001d08 <l1732>:
    1d08:	e212702c 	ands	r7, r2, #44	; 0x2c

00001d0c <l1733>:
    1d0c:	1186278c 	orrne	r2, r6, ip, lsl #15

00001d10 <l1734>:
    1d10:	e1780b89 	cmn	r8, r9, lsl #23

00001d14 <l1735>:
    1d14:	716f3f1a 	clzvc	r3, sl

00001d18 <l1736>:
    1d18:	b075b41e 	rsbslt	fp, r5, lr, lsl r4

00001d1c <l1737>:
    1d1c:	e3a04004 	mov	r4, #4

00001d20 <l1738>:
    1d20:	e61d3004 	ldr	r3, [sp], -r4

00001d24 <l1739>:
    1d24:	3a000006 	bcc	1d44 <l1747>

00001d28 <l1740>:
    1d28:	e28010db 	add	r1, r0, #219	; 0xdb

00001d2c <l1741>:
    1d2c:	e16faf1a 	clz	sl, sl

00001d30 <l1742>:
    1d30:	e11f000e 	tst	pc, lr

00001d34 <l1743>:
    1d34:	e0cb4eae 	sbc	r4, fp, lr, lsr #29

00001d38 <l1744>:
    1d38:	516faf1a 	clzpl	sl, sl

00001d3c <l1745>:
    1d3c:	819a8002 	orrshi	r8, sl, r2

00001d40 <l1746>:
    1d40:	ea000000 	b	1d48 <l1748>

00001d44 <l1747>:
    1d44:	eafffff8 	b	1d2c <l1741>

00001d48 <l1748>:
    1d48:	e04f336e 	sub	r3, pc, lr, ror #6

00001d4c <l1749>:
    1d4c:	ea000006 	b	1d6c <l1757>

00001d50 <l1750>:
    1d50:	e28010a0 	add	r1, r0, #160	; 0xa0

00001d54 <l1751>:
    1d54:	60736004 	rsbsvs	r6, r3, r4

00001d58 <l1752>:
    1d58:	e39cce21 	orrs	ip, ip, #528	; 0x210

00001d5c <l1753>:
    1d5c:	e1780073 	cmn	r8, r3, ror r0

00001d60 <l1754>:
    1d60:	e098470e 	adds	r4, r8, lr, lsl #14

00001d64 <l1755>:
    1d64:	e0a35d21 	adc	r5, r3, r1, lsr #26

00001d68 <l1756>:
    1d68:	ea000000 	b	1d70 <l1758>

00001d6c <l1757>:
    1d6c:	eafffff8 	b	1d54 <l1751>

00001d70 <l1758>:
    1d70:	e2179619 	ands	r9, r7, #26214400	; 0x1900000

00001d74 <l1759>:
    1d74:	e1c25f8e 	bic	r5, r2, lr, lsl #31

00001d78 <l1760>:
    1d78:	c131006e 	teqgt	r1, lr, rrx

00001d7c <l1761>:
    1d7c:	e2d301dd 	sbcs	r0, r3, #1073741879	; 0x40000037

00001d80 <l1762>:
    1d80:	9240b39f 	subls	fp, r0, #2080374786	; 0x7c000002

00001d84 <l1763>:
    1d84:	5156051a 	cmppl	r6, sl, lsl r5

00001d88 <l1764>:
    1d88:	c13f0f48 	teqgt	pc, r8, asr #30

00001d8c <l1765>:
    1d8c:	e3a08000 	mov	r8, #0

00001d90 <l1766>:
    1d90:	e7ade008 	str	lr, [sp, r8]!

00001d94 <l1767>:
    1d94:	e16f8f1a 	clz	r8, sl

00001d98 <l1768>:
    1d98:	92d41021 	sbcsls	r1, r4, #33	; 0x21

00001d9c <l1769>:
    1d9c:	23c3315f 	biccs	r3, r3, #-1073741801	; 0xc0000017

00001da0 <l1770>:
    1da0:	9215b166 	andsls	fp, r5, #-2147483623	; 0x80000019

00001da4 <l1771>:
    1da4:	ea000002 	b	1db4 <l1775>

00001da8 <l1772>:
    1da8:	e2801082 	add	r1, r0, #130	; 0x82

00001dac <l1773>:
    1dac:	e1580430 	cmp	r8, r0, lsr r4

00001db0 <l1774>:
    1db0:	ea000000 	b	1db8 <l1776>

00001db4 <l1775>:
    1db4:	eafffffc 	b	1dac <l1773>

00001db8 <l1776>:
    1db8:	e098c06b 	adds	ip, r8, fp, rrx

00001dbc <l1777>:
    1dbc:	151d4004 	ldrne	r4, [sp, #-4]

00001dc0 <l1778>:
    1dc0:	b289722e 	addlt	r7, r9, #-536870910	; 0xe0000002

00001dc4 <l1779>:
    1dc4:	e2585034 	subs	r5, r8, #52	; 0x34

00001dc8 <l1780>:
    1dc8:	e1f0a062 	mvns	sl, r2, rrx

00001dcc <l1781>:
    1dcc:	61370066 	teqvs	r7, r6, rrx

00001dd0 <l1782>:
    1dd0:	d183600f 	orrle	r6, r3, pc

00001dd4 <l1783>:
    1dd4:	11d70a28 	bicsne	r0, r7, r8, lsr #20

00001dd8 <l1784>:
    1dd8:	e00ebf66 	and	fp, lr, r6, ror #30

00001ddc <l1785>:
    1ddc:	e1c2b008 	bic	fp, r2, r8

00001de0 <l1786>:
    1de0:	e3590131 	cmp	r9, #1073741836	; 0x4000000c

00001de4 <l1787>:
    1de4:	d0ceb065 	sbcle	fp, lr, r5, rrx

00001de8 <l1788>:
    1de8:	41140fa0 	tstmi	r4, r0, lsr #31

00001dec <l1789>:
    1dec:	4044e00f 	submi	lr, r4, pc

00001df0 <l1790>:
    1df0:	30d3106e 	sbcscc	r1, r3, lr, rrx

00001df4 <l1791>:
    1df4:	e11a0269 	tst	sl, r9, ror #4

00001df8 <l1792>:
    1df8:	ea000004 	b	1e10 <l1798>

00001dfc <l1793>:
    1dfc:	e1540454 	cmp	r4, r4, asr r4

00001e00 <l1794>:
    1e00:	a21a5cd9 	andsge	r5, sl, #55552	; 0xd900

00001e04 <l1795>:
    1e04:	e112024a 	tst	r2, sl, asr #4

00001e08 <l1796>:
    1e08:	904b7002 	subls	r7, fp, r2

00001e0c <l1797>:
    1e0c:	c017e06e 	andsgt	lr, r7, lr, rrx

00001e10 <l1798>:
    1e10:	b1f0600b 	mvnslt	r6, fp

00001e14 <l1799>:
    1e14:	90995b11 	addsls	r5, r9, r1, lsl fp

00001e18 <l1800>:
    1e18:	40569839 	subsmi	r9, r6, r9, lsr r8

00001e1c <l1801>:
    1e1c:	02532227 	subseq	r2, r3, #1879048194	; 0x70000002

00001e20 <l1802>:
    1e20:	ca000007 	bgt	1e44 <l1811>

00001e24 <l1803>:
    1e24:	11e08618 	mvnne	r8, r8, lsl r6

00001e28 <l1804>:
    1e28:	e25c4101 	subs	r4, ip, #1073741824	; 0x40000000

00001e2c <l1805>:
    1e2c:	e0064e4c 	and	r4, r6, ip, asr #28

00001e30 <l1806>:
    1e30:	b2eea963 	rsclt	sl, lr, #1622016	; 0x18c000

00001e34 <l1807>:
    1e34:	c16f2f13 	clzgt	r2, r3

00001e38 <l1808>:
    1e38:	c1760001 	cmngt	r6, r1

00001e3c <l1809>:
    1e3c:	e0321063 	eors	r1, r2, r3, rrx

00001e40 <l1810>:
    1e40:	e16f0f17 	clz	r0, r7

00001e44 <l1811>:
    1e44:	d1d3300f 	bicsle	r3, r3, pc

00001e48 <l1812>:
    1e48:	e319070d 	tst	r9, #3407872	; 0x340000

00001e4c <l1813>:
    1e4c:	a0b7100a 	adcsge	r1, r7, sl

00001e50 <l1814>:
    1e50:	aa000006 	bge	1e70 <l1822>

00001e54 <l1815>:
    1e54:	e2801064 	add	r1, r0, #100	; 0x64

00001e58 <l1816>:
    1e58:	e0117063 	ands	r7, r1, r3, rrx

00001e5c <l1817>:
    1e5c:	5035606f 	eorspl	r6, r5, pc, rrx

00001e60 <l1818>:
    1e60:	3316001c 	tstcc	r6, #28

00001e64 <l1819>:
    1e64:	50a89d21 	adcpl	r9, r8, r1, lsr #26

00001e68 <l1820>:
    1e68:	10176fa5 	andsne	r6, r7, r5, lsr #31

00001e6c <l1821>:
    1e6c:	ea000000 	b	1e74 <l1823>

00001e70 <l1822>:
    1e70:	eafffff8 	b	1e58 <l1816>

00001e74 <l1823>:
    1e74:	e0653f09 	rsb	r3, r5, r9, lsl #30

00001e78 <l1824>:
    1e78:	e0597f25 	subs	r7, r9, r5, lsr #30

00001e7c <l1825>:
    1e7c:	e09e1ae1 	adds	r1, lr, r1, ror #21

00001e80 <l1826>:
    1e80:	3234103f 	eorscc	r1, r4, #63	; 0x3f

00001e84 <l1827>:
    1e84:	e0f6200b 	rscs	r2, r6, fp

00001e88 <l1828>:
    1e88:	928b4a97 	addls	r4, fp, #618496	; 0x97000

00001e8c <l1829>:
    1e8c:	e1180211 	tst	r8, r1, lsl r2

00001e90 <l1830>:
    1e90:	ea000006 	b	1eb0 <l1838>

00001e94 <l1831>:
    1e94:	e1770283 	cmn	r7, r3, lsl #5

00001e98 <l1832>:
    1e98:	e1d03068 	bics	r3, r0, r8, rrx

00001e9c <l1833>:
    1e9c:	e16faf19 	clz	sl, r9

00001ea0 <l1834>:
    1ea0:	216f6f1b 	clzcs	r6, fp

00001ea4 <l1835>:
    1ea4:	e08b3b7e 	add	r3, fp, lr, ror fp

00001ea8 <l1836>:
    1ea8:	a0e20900 	rscge	r0, r2, r0, lsl #18

00001eac <l1837>:
    1eac:	b16f7f14 	clzlt	r7, r4

00001eb0 <l1838>:
    1eb0:	e1d8e947 	bics	lr, r8, r7, asr #18

00001eb4 <l1839>:
    1eb4:	3a000008 	bcc	1edc <l1849>

00001eb8 <l1840>:
    1eb8:	d16f7f1b 	clzle	r7, fp

00001ebc <l1841>:
    1ebc:	e08fbba0 	add	fp, pc, r0, lsr #23

00001ec0 <l1842>:
    1ec0:	c3db080f 	bicsgt	r0, fp, #983040	; 0xf0000

00001ec4 <l1843>:
    1ec4:	e3c54155 	bic	r4, r5, #1073741845	; 0x40000015

00001ec8 <l1844>:
    1ec8:	40e30a3c 	rscmi	r0, r3, ip, lsr sl

00001ecc <l1845>:
    1ecc:	e062a00f 	rsb	sl, r2, pc

00001ed0 <l1846>:
    1ed0:	911f0061 	tstls	pc, r1, rrx

00001ed4 <l1847>:
    1ed4:	60d7076b 	sbcsvs	r0, r7, fp, ror #14

00001ed8 <l1848>:
    1ed8:	e071400b 	rsbs	r4, r1, fp

00001edc <l1849>:
    1edc:	e0017764 	and	r7, r1, r4, ror #14

00001ee0 <l1850>:
    1ee0:	603e0001 	eorsvs	r0, lr, r1

00001ee4 <l1851>:
    1ee4:	a007137e 	andge	r1, r7, lr, ror r3

00001ee8 <l1852>:
    1ee8:	e0ee1d67 	rsc	r1, lr, r7, ror #26

00001eec <l1853>:
    1eec:	9a000005 	bls	1f08 <l1860>

00001ef0 <l1854>:
    1ef0:	e280102a 	add	r1, r0, #42	; 0x2a

00001ef4 <l1855>:
    1ef4:	e16f7f14 	clz	r7, r4

00001ef8 <l1856>:
    1ef8:	23a0a19d 	movcs	sl, #1073741863	; 0x40000027

00001efc <l1857>:
    1efc:	e1c92fae 	bic	r2, r9, lr, lsr #31

00001f00 <l1858>:
    1f00:	e35e04ce 	cmp	lr, #-838860800	; 0xce000000

00001f04 <l1859>:
    1f04:	ea000000 	b	1f0c <l1861>

00001f08 <l1860>:
    1f08:	eafffff9 	b	1ef4 <l1855>

00001f0c <l1861>:
    1f0c:	e41da014 	ldr	sl, [sp], #-20

00001f10 <l1862>:
    1f10:	e2b69cb3 	adcs	r9, r6, #45824	; 0xb300

00001f14 <l1863>:
    1f14:	e3a0101c 	mov	r1, #28

00001f18 <l1864>:
    1f18:	e7bde001 	ldr	lr, [sp, r1]!

00001f1c <l1865>:
    1f1c:	e02f9000 	eor	r9, pc, r0

00001f20 <l1866>:
    1f20:	e0f8500b 	rscs	r5, r8, fp

00001f24 <l1867>:
    1f24:	70033009 	andvc	r3, r3, r9

00001f28 <l1868>:
    1f28:	e0ec0003 	rsc	r0, ip, r3

00001f2c <l1869>:
    1f2c:	e1e04066 	mvn	r4, r6, rrx

00001f30 <l1870>:
    1f30:	2154015e 	cmpcs	r4, lr, asr r1

00001f34 <l1871>:
    1f34:	1378080d 	cmnne	r8, #851968	; 0xd0000

00001f38 <l1872>:
    1f38:	d1720764 	cmnle	r2, r4, ror #14

00001f3c <l1873>:
    1f3c:	80857cea 	addhi	r7, r5, sl, ror #25

00001f40 <l1874>:
    1f40:	ba000007 	blt	1f64 <l1883>

00001f44 <l1875>:
    1f44:	e2801072 	add	r1, r0, #114	; 0x72

00001f48 <l1876>:
    1f48:	00869068 	addeq	r9, r6, r8, rrx

00001f4c <l1877>:
    1f4c:	e0f97f40 	rscs	r7, r9, r0, asr #30

00001f50 <l1878>:
    1f50:	513a0009 	teqpl	sl, r9

00001f54 <l1879>:
    1f54:	12af4d33 	adcne	r4, pc, #3264	; 0xcc0

00001f58 <l1880>:
    1f58:	811004e7 	tsthi	r0, r7, ror #9

00001f5c <l1881>:
    1f5c:	41b057e5 	rorsmi	r5, r5, #15

00001f60 <l1882>:
    1f60:	ea000000 	b	1f68 <l1884>

00001f64 <l1883>:
    1f64:	eafffff7 	b	1f48 <l1876>

00001f68 <l1884>:
    1f68:	2a000006 	bcs	1f88 <l1892>

00001f6c <l1885>:
    1f6c:	e280103e 	add	r1, r0, #62	; 0x3e

00001f70 <l1886>:
    1f70:	e054b96a 	subs	fp, r4, sl, ror #18

00001f74 <l1887>:
    1f74:	316fef14 	clzcc	lr, r4

00001f78 <l1888>:
    1f78:	e19f4069 	orrs	r4, pc, r9, rrx

00001f7c <l1889>:
    1f7c:	2041316f 	subcs	r3, r1, pc, ror #2

00001f80 <l1890>:
    1f80:	d099006c 	addsle	r0, r9, ip, rrx

00001f84 <l1891>:
    1f84:	ea000000 	b	1f8c <l1893>

00001f88 <l1892>:
    1f88:	eafffff8 	b	1f70 <l1886>

00001f8c <l1893>:
    1f8c:	e24715db 	sub	r1, r7, #918552576	; 0x36c00000

00001f90 <l1894>:
    1f90:	e3a08004 	mov	r8, #4

00001f94 <l1895>:
    1f94:	e71d8008 	ldr	r8, [sp, -r8]

00001f98 <l1896>:
    1f98:	60951060 	addsvs	r1, r5, r0, rrx

00001f9c <l1897>:
    1f9c:	0a000004 	beq	1fb4 <l1903>

00001fa0 <l1898>:
    1fa0:	e1380e5e 	teq	r8, lr, asr lr

00001fa4 <l1899>:
    1fa4:	e1c12be4 	bic	r2, r1, r4, ror #23

00001fa8 <l1900>:
    1fa8:	7172000a 	cmnvc	r2, sl

00001fac <l1901>:
    1fac:	2042900a 	subcs	r9, r2, sl

00001fb0 <l1902>:
    1fb0:	e1590b88 	cmp	r9, r8, lsl #23

00001fb4 <l1903>:
    1fb4:	e0567000 	subs	r7, r6, r0

00001fb8 <l1904>:
    1fb8:	e004500a 	and	r5, r4, sl

00001fbc <l1905>:
    1fbc:	ea000002 	b	1fcc <l1909>

00001fc0 <l1906>:
    1fc0:	53f0520f 	mvnspl	r5, #-268435456	; 0xf0000000

00001fc4 <l1907>:
    1fc4:	e182a002 	orr	sl, r2, r2

00001fc8 <l1908>:
    1fc8:	e1780084 	cmn	r8, r4, lsl #1

00001fcc <l1909>:
    1fcc:	10cf2008 	sbcne	r2, pc, r8

00001fd0 <l1910>:
    1fd0:	635106b9 	cmpvs	r1, #193986560	; 0xb900000

00001fd4 <l1911>:
    1fd4:	902f3000 	eorls	r3, pc, r0

00001fd8 <l1912>:
    1fd8:	ea000004 	b	1ff0 <l1918>

00001fdc <l1913>:
    1fdc:	e28010d9 	add	r1, r0, #217	; 0xd9

00001fe0 <l1914>:
    1fe0:	e37b0e61 	cmn	fp, #1552	; 0x610

00001fe4 <l1915>:
    1fe4:	c1e0057b 	mvngt	r0, fp, ror r5

00001fe8 <l1916>:
    1fe8:	716fbf1e 	clzvc	fp, lr

00001fec <l1917>:
    1fec:	ea000000 	b	1ff4 <l1919>

00001ff0 <l1918>:
    1ff0:	eafffffa 	b	1fe0 <l1914>

00001ff4 <l1919>:
    1ff4:	60fe0008 	rscsvs	r0, lr, r8

00001ff8 <l1920>:
    1ff8:	30304069 	eorscc	r4, r0, r9, rrx

00001ffc <l1921>:
    1ffc:	9a000007 	bls	2020 <l1930>

00002000 <l1922>:
    2000:	e2801069 	add	r1, r0, #105	; 0x69

00002004 <l1923>:
    2004:	e13606c5 	teq	r6, r5, asr #13

00002008 <l1924>:
    2008:	305251a6 	subscc	r5, r2, r6, lsr #3

0000200c <l1925>:
    200c:	d09448ea 	addsle	r4, r4, sl, ror #17

00002010 <l1926>:
    2010:	e0b26009 	adcs	r6, r2, r9

00002014 <l1927>:
    2014:	e0df06ab 	sbcs	r0, pc, fp, lsr #13

00002018 <l1928>:
    2018:	82d799b5 	sbcshi	r9, r7, #2965504	; 0x2d4000

0000201c <l1929>:
    201c:	ea000000 	b	2024 <l1931>

00002020 <l1930>:
    2020:	eafffff7 	b	2004 <l1923>

00002024 <l1931>:
    2024:	81e0c001 	mvnhi	ip, r1

00002028 <l1932>:
    2028:	61d40000 	bicsvs	r0, r4, r0

0000202c <l1933>:
    202c:	a29fcde2 	addsge	ip, pc, #14464	; 0x3880

00002030 <l1934>:
    2030:	10e0c947 	rscne	ip, r0, r7, asr #18

00002034 <l1935>:
    2034:	c1956236 	orrsgt	r6, r5, r6, lsr r2

00002038 <l1936>:
    2038:	6026877a 	eorvs	r8, r6, sl, ror r7

0000203c <l1937>:
    203c:	e40d7044 	str	r7, [sp], #-68	; 0x44

00002040 <l1938>:
    2040:	0a000002 	beq	2050 <l1942>

00002044 <l1939>:
    2044:	e28010bd 	add	r1, r0, #189	; 0xbd

00002048 <l1940>:
    2048:	e0f5c52b 	rscs	ip, r5, fp, lsr #10

0000204c <l1941>:
    204c:	ea000000 	b	2054 <l1943>

00002050 <l1942>:
    2050:	eafffffc 	b	2048 <l1940>

00002054 <l1943>:
    2054:	e1320006 	teq	r2, r6

00002058 <l1944>:
    2058:	c294e0e0 	addsgt	lr, r4, #224	; 0xe0

0000205c <l1945>:
    205c:	3a000003 	bcc	2070 <l1950>

00002060 <l1946>:
    2060:	e1a0b483 	lsl	fp, r3, #9

00002064 <l1947>:
    2064:	80a17448 	adchi	r7, r1, r8, asr #8

00002068 <l1948>:
    2068:	e0ba8eab 	adcs	r8, sl, fp, lsr #29

0000206c <l1949>:
    206c:	13570d29 	cmpne	r7, #2624	; 0xa40

00002070 <l1950>:
    2070:	e0b95aa0 	adcs	r5, r9, r0, lsr #21

00002074 <l1951>:
    2074:	b3130301 	tstlt	r3, #67108864	; 0x4000000

00002078 <l1952>:
    2078:	e17f006f 	cmn	pc, pc, rrx

0000207c <l1953>:
    207c:	b0e24064 	rsclt	r4, r2, r4, rrx

00002080 <l1954>:
    2080:	e25bbbc9 	subs	fp, fp, #205824	; 0x32400

00002084 <l1955>:
    2084:	9045c06e 	subls	ip, r5, lr, rrx

00002088 <l1956>:
    2088:	e022400e 	eor	r4, r2, lr

0000208c <l1957>:
    208c:	b037c00f 	eorslt	ip, r7, pc

00002090 <l1958>:
    2090:	e33c0719 	teq	ip, #6553600	; 0x640000

00002094 <l1959>:
    2094:	50f8c060 	rscspl	ip, r8, r0, rrx

00002098 <l1960>:
    2098:	c186900e 	orrgt	r9, r6, lr

0000209c <l1961>:
    209c:	6012200a 	andsvs	r2, r2, sl

000020a0 <l1962>:
    20a0:	71c21009 	bicvc	r1, r2, r9

000020a4 <l1963>:
    20a4:	30bce707 	adcscc	lr, ip, r7, lsl #14

000020a8 <l1964>:
    20a8:	ea000004 	b	20c0 <l1970>

000020ac <l1965>:
    20ac:	e280108d 	add	r1, r0, #141	; 0x8d

000020b0 <l1966>:
    20b0:	53540426 	cmppl	r4, #637534208	; 0x26000000

000020b4 <l1967>:
    20b4:	71850064 	orrvc	r0, r5, r4, rrx

000020b8 <l1968>:
    20b8:	a3d0950a 	bicsge	r9, r0, #41943040	; 0x2800000

000020bc <l1969>:
    20bc:	ea000000 	b	20c4 <l1971>

000020c0 <l1970>:
    20c0:	eafffffa 	b	20b0 <l1966>

000020c4 <l1971>:
    20c4:	ea000008 	b	20ec <l1981>

000020c8 <l1972>:
    20c8:	c13c0172 	teqgt	ip, r2, ror r1

000020cc <l1973>:
    20cc:	e0b49002 	adcs	r9, r4, r2

000020d0 <l1974>:
    20d0:	93790b86 	cmnls	r9, #137216	; 0x21800

000020d4 <l1975>:
    20d4:	a04f7f29 	subge	r7, pc, r9, lsr #30

000020d8 <l1976>:
    20d8:	12920323 	addsne	r0, r2, #-1946157056	; 0x8c000000

000020dc <l1977>:
    20dc:	80821006 	addhi	r1, r2, r6

000020e0 <l1978>:
    20e0:	91c4900c 	bicls	r9, r4, ip

000020e4 <l1979>:
    20e4:	e16f7f14 	clz	r7, r4

000020e8 <l1980>:
    20e8:	e1550845 	cmp	r5, r5, asr #16

000020ec <l1981>:
    20ec:	329c6052 	addscc	r6, ip, #82	; 0x52

000020f0 <l1982>:
    20f0:	ea000008 	b	2118 <l1992>

000020f4 <l1983>:
    20f4:	b07b406e 	rsbslt	r4, fp, lr, rrx

000020f8 <l1984>:
    20f8:	31a05e1b 	lslcc	r5, fp, lr

000020fc <l1985>:
    20fc:	305eb41e 	subscc	fp, lr, lr, lsl r4

00002100 <l1986>:
    2100:	e310094f 	tst	r0, #1294336	; 0x13c000

00002104 <l1987>:
    2104:	001ab002 	andseq	fp, sl, r2

00002108 <l1988>:
    2108:	c0f42063 	rscsgt	r2, r4, r3, rrx

0000210c <l1989>:
    210c:	13530e1a 	cmpne	r3, #416	; 0x1a0

00002110 <l1990>:
    2110:	907bc064 	rsbsls	ip, fp, r4, rrx

00002114 <l1991>:
    2114:	5377052a 	cmnpl	r7, #176160768	; 0xa800000

00002118 <l1992>:
    2118:	e063c062 	rsb	ip, r3, r2, rrx

0000211c <l1993>:
    211c:	e3d4b4eb 	bics	fp, r4, #-352321536	; 0xeb000000

00002120 <l1994>:
    2120:	e1b0e003 	movs	lr, r3

00002124 <l1995>:
    2124:	e1c09006 	bic	r9, r0, r6

00002128 <l1996>:
    2128:	e1370837 	teq	r7, r7, lsr r8

0000212c <l1997>:
    212c:	016f1f1c 	clzeq	r1, ip

00002130 <l1998>:
    2130:	ea000004 	b	2148 <l2004>

00002134 <l1999>:
    2134:	e2b7290b 	adcs	r2, r7, #180224	; 0x2c000

00002138 <l2000>:
    2138:	e066e001 	rsb	lr, r6, r1

0000213c <l2001>:
    213c:	e11001e8 	tst	r0, r8, ror #3

00002140 <l2002>:
    2140:	53cb7836 	bicpl	r7, fp, #3538944	; 0x360000

00002144 <l2003>:
    2144:	e11e0566 	tst	lr, r6, ror #10

00002148 <l2004>:
    2148:	21f0c007 	mvnscs	ip, r7

0000214c <l2005>:
    214c:	b16fbf13 	clzlt	fp, r3

00002150 <l2006>:
    2150:	b2d4122d 	sbcslt	r1, r4, #-805306366	; 0xd0000002

00002154 <l2007>:
    2154:	da000006 	ble	2174 <l2015>

00002158 <l2008>:
    2158:	e2419c09 	sub	r9, r1, #2304	; 0x900

0000215c <l2009>:
    215c:	01e05469 	mvneq	r5, r9, ror #8

00002160 <l2010>:
    2160:	500e17a8 	andpl	r1, lr, r8, lsr #15

00002164 <l2011>:
    2164:	c294c068 	addsgt	ip, r4, #104	; 0x68

00002168 <l2012>:
    2168:	a0287619 	eorge	r7, r8, r9, lsl r6

0000216c <l2013>:
    216c:	e16f1f15 	clz	r1, r5

00002170 <l2014>:
    2170:	20ef4944 	rsccs	r4, pc, r4, asr #18

00002174 <l2015>:
    2174:	d05e2879 	subsle	r2, lr, r9, ror r8

00002178 <l2016>:
    2178:	635c0050 	cmpvs	ip, #80	; 0x50

0000217c <l2017>:
    217c:	e0eb000c 	rsc	r0, fp, ip

00002180 <l2018>:
    2180:	c15c04ae 	cmpgt	ip, lr, lsr #9

00002184 <l2019>:
    2184:	80c22a29 	sbchi	r2, r2, r9, lsr #20

00002188 <l2020>:
    2188:	129c88f5 	addsne	r8, ip, #16056320	; 0xf50000

0000218c <l2021>:
    218c:	e259b811 	subs	fp, r9, #1114112	; 0x110000

00002190 <l2022>:
    2190:	51c80e73 	bicpl	r0, r8, r3, ror lr

00002194 <l2023>:
    2194:	8affffff 	bhi	2198 <l2024>

00002198 <l2024>:
    2198:	6073100c 	rsbsvs	r1, r3, ip

0000219c <l2025>:
    219c:	5a000003 	bpl	21b0 <l2030>

000021a0 <l2026>:
    21a0:	e2801087 	add	r1, r0, #135	; 0x87

000021a4 <l2027>:
    21a4:	e0c9900e 	sbc	r9, r9, lr

000021a8 <l2028>:
    21a8:	e01653e1 	ands	r5, r6, r1, ror #7

000021ac <l2029>:
    21ac:	ea000000 	b	21b4 <l2031>

000021b0 <l2030>:
    21b0:	eafffffb 	b	21a4 <l2027>

000021b4 <l2031>:
    21b4:	9a000000 	bls	21bc <l2033>

000021b8 <l2032>:
    21b8:	12019201 	andne	r9, r1, #268435456	; 0x10000000

000021bc <l2033>:
    21bc:	e1390008 	teq	r9, r8

000021c0 <l2034>:
    21c0:	400a6e51 	andmi	r6, sl, r1, asr lr

000021c4 <l2035>:
    21c4:	117a0061 	cmnne	sl, r1, rrx

000021c8 <l2036>:
    21c8:	a2c3aeeb 	sbcge	sl, r3, #3760	; 0xeb0

000021cc <l2037>:
    21cc:	3196b1e6 	orrscc	fp, r6, r6, ror #3

000021d0 <l2038>:
    21d0:	e3b0980e 	movs	r9, #917504	; 0xe0000

000021d4 <l2039>:
    21d4:	038b63b6 	orreq	r6, fp, #-671088638	; 0xd8000002

000021d8 <l2040>:
    21d8:	e1590556 	cmp	r9, r6, asr r5

000021dc <l2041>:
    21dc:	61c9606e 	bicvs	r6, r9, lr, rrx

000021e0 <l2042>:
    21e0:	102e19ab 	eorne	r1, lr, fp, lsr #19

000021e4 <l2043>:
    21e4:	2249425d 	subcs	r4, r9, #-805306363	; 0xd0000005

000021e8 <l2044>:
    21e8:	839a1626 	orrshi	r1, sl, #39845888	; 0x2600000

000021ec <l2045>:
    21ec:	60ab1064 	adcvs	r1, fp, r4, rrx

000021f0 <l2046>:
    21f0:	91340f89 	teqls	r4, r9, lsl #31

000021f4 <l2047>:
    21f4:	ba000007 	blt	2218 <l2056>

000021f8 <l2048>:
    21f8:	80c6c97e 	sbchi	ip, r6, lr, ror r9

000021fc <l2049>:
    21fc:	e16f8f1b 	clz	r8, fp

00002200 <l2050>:
    2200:	e3320416 	teq	r2, #369098752	; 0x16000000

00002204 <l2051>:
    2204:	e0cb2a57 	sbc	r2, fp, r7, asr sl

00002208 <l2052>:
    2208:	e0cf9b23 	sbc	r9, pc, r3, lsr #22

0000220c <l2053>:
    220c:	b071b009 	rsbslt	fp, r1, r9

00002210 <l2054>:
    2210:	93b01807 	movsls	r1, #458752	; 0x70000

00002214 <l2055>:
    2214:	b010c466 	andslt	ip, r0, r6, ror #8

00002218 <l2056>:
    2218:	e115045a 	tst	r5, sl, asr r4

0000221c <l2057>:
    221c:	e0385008 	eors	r5, r8, r8

00002220 <l2058>:
    2220:	c19068e8 	orrsgt	r6, r0, r8, ror #17

00002224 <l2059>:
    2224:	308f652e 	addcc	r6, pc, lr, lsr #10

00002228 <l2060>:
    2228:	a0635162 	rsbge	r5, r3, r2, ror #2

0000222c <l2061>:
    222c:	e131000e 	teq	r1, lr

00002230 <l2062>:
    2230:	e034a411 	eors	sl, r4, r1, lsl r4

00002234 <l2063>:
    2234:	e05a0069 	subs	r0, sl, r9, rrx

00002238 <l2064>:
    2238:	6243a603 	subvs	sl, r3, #3145728	; 0x300000

0000223c <l2065>:
    223c:	c0578c52 	subsgt	r8, r7, r2, asr ip

00002240 <l2066>:
    2240:	e08c815c 	add	r8, ip, ip, asr r1

00002244 <l2067>:
    2244:	e266e7f5 	rsb	lr, r6, #64225280	; 0x3d40000

00002248 <l2068>:
    2248:	ea000007 	b	226c <l2077>

0000224c <l2069>:
    224c:	b2e0c0ed 	rsclt	ip, r0, #237	; 0xed

00002250 <l2070>:
    2250:	e2b98000 	adcs	r8, r9, #0

00002254 <l2071>:
    2254:	43150eca 	tstmi	r5, #3232	; 0xca0

00002258 <l2072>:
    2258:	70f32141 	rscsvc	r2, r3, r1, asr #2

0000225c <l2073>:
    225c:	433a0c0d 	teqmi	sl, #3328	; 0xd00

00002260 <l2074>:
    2260:	c1d90008 	bicsgt	r0, r9, r8

00002264 <l2075>:
    2264:	61150065 	tstvs	r5, r5, rrx

00002268 <l2076>:
    2268:	016f0f14 	clzeq	r0, r4

0000226c <l2077>:
    226c:	e1580007 	cmp	r8, r7

00002270 <l2078>:
    2270:	da000004 	ble	2288 <l2084>

00002274 <l2079>:
    2274:	e2801024 	add	r1, r0, #36	; 0x24

00002278 <l2080>:
    2278:	820f4931 	andhi	r4, pc, #802816	; 0xc4000

0000227c <l2081>:
    227c:	30b2c00c 	adcscc	ip, r2, ip

00002280 <l2082>:
    2280:	e2ee4241 	rsc	r4, lr, #268435460	; 0x10000004

00002284 <l2083>:
    2284:	ea000000 	b	228c <l2085>

00002288 <l2084>:
    2288:	eafffffa 	b	2278 <l2080>

0000228c <l2085>:
    228c:	a16fef1b 	clzge	lr, fp

00002290 <l2086>:
    2290:	e48d0030 	str	r0, [sp], #48	; 0x30

00002294 <l2087>:
    2294:	3038aaaa 	eorscc	sl, r8, sl, lsr #21

00002298 <l2088>:
    2298:	e1520914 	cmp	r2, r4, lsl r9

0000229c <l2089>:
    229c:	e006923e 	and	r9, r6, lr, lsr r2

000022a0 <l2090>:
    22a0:	2079606f 	rsbscs	r6, r9, pc, rrx

000022a4 <l2091>:
    22a4:	21c7137b 	biccs	r1, r7, fp, ror r3

000022a8 <l2092>:
    22a8:	c1340f6b 	teqgt	r4, fp, ror #30

000022ac <l2093>:
    22ac:	c0e98000 	rscgt	r8, r9, r0

000022b0 <l2094>:
    22b0:	c16f0f10 	clzgt	r0, r0

000022b4 <l2095>:
    22b4:	21a0506c 	rrxcs	r5, ip

000022b8 <l2096>:
    22b8:	e2a72b5f 	adc	r2, r7, #97280	; 0x17c00

000022bc <l2097>:
    22bc:	4a000004 	bmi	22d4 <l2103>

000022c0 <l2098>:
    22c0:	e0243670 	eor	r3, r4, r0, ror r6

000022c4 <l2099>:
    22c4:	40502065 	subsmi	r2, r0, r5, rrx

000022c8 <l2100>:
    22c8:	e1b0900e 	movs	r9, lr

000022cc <l2101>:
    22cc:	a1b08137 	lsrsge	r8, r7, r1

000022d0 <l2102>:
    22d0:	603bcf21 	eorsvs	ip, fp, r1, lsr #30

000022d4 <l2103>:
    22d4:	13f01d05 	mvnsne	r1, #320	; 0x140

000022d8 <l2104>:
    22d8:	ea000003 	b	22ec <l2109>

000022dc <l2105>:
    22dc:	e28010d5 	add	r1, r0, #213	; 0xd5

000022e0 <l2106>:
    22e0:	e254ad7a 	subs	sl, r4, #7808	; 0x1e80

000022e4 <l2107>:
    22e4:	1287870a 	addne	r8, r7, #2621440	; 0x280000

000022e8 <l2108>:
    22e8:	ea000000 	b	22f0 <l2110>

000022ec <l2109>:
    22ec:	eafffffb 	b	22e0 <l2106>

000022f0 <l2110>:
    22f0:	e16fbf1c 	clz	fp, ip

000022f4 <l2111>:
    22f4:	e03e7009 	eors	r7, lr, r9

000022f8 <l2112>:
    22f8:	c1e04def 	mvngt	r4, pc, ror #27

000022fc <l2113>:
    22fc:	50517001 	subspl	r7, r1, r1

00002300 <l2114>:
    2300:	e00a6916 	and	r6, sl, r6, lsl r9

00002304 <l2115>:
    2304:	419e4064 	orrsmi	r4, lr, r4, rrx

00002308 <l2116>:
    2308:	e0135069 	ands	r5, r3, r9, rrx

0000230c <l2117>:
    230c:	e08b3005 	add	r3, fp, r5

00002310 <l2118>:
    2310:	e0294003 	eor	r4, r9, r3

00002314 <l2119>:
    2314:	41550005 	cmpmi	r5, r5

00002318 <l2120>:
    2318:	e3a0b004 	mov	fp, #4

0000231c <l2121>:
    231c:	e60dc00b 	str	ip, [sp], -fp

00002320 <l2122>:
    2320:	e0615147 	rsb	r5, r1, r7, asr #2

00002324 <l2123>:
    2324:	e3700651 	cmn	r0, #84934656	; 0x5100000

00002328 <l2124>:
    2328:	00c52301 	sbceq	r2, r5, r1, lsl #6

0000232c <l2125>:
    232c:	116f7f1c 	clzne	r7, ip

00002330 <l2126>:
    2330:	e0cb3b56 	sbc	r3, fp, r6, asr fp

00002334 <l2127>:
    2334:	61e0a41c 	mvnvs	sl, ip, lsl r4

00002338 <l2128>:
    2338:	60519063 	subsvs	r9, r1, r3, rrx

0000233c <l2129>:
    233c:	e1f034cc 	mvns	r3, ip, asr #9

00002340 <l2130>:
    2340:	e056777a 	subs	r7, r6, sl, ror r7

00002344 <l2131>:
    2344:	a07b600a 	rsbsge	r6, fp, sl

00002348 <l2132>:
    2348:	e1a05771 	ror	r5, r1, r7

0000234c <l2133>:
    234c:	e37f0e92 	cmn	pc, #2336	; 0x920

00002350 <l2134>:
    2350:	e2857176 	add	r7, r5, #-2147483619	; 0x8000001d

00002354 <l2135>:
    2354:	22e94c87 	rsccs	r4, r9, #34560	; 0x8700

00002358 <l2136>:
    2358:	d35204d6 	cmple	r2, #-704643072	; 0xd6000000

0000235c <l2137>:
    235c:	659d8004 	ldrvs	r8, [sp, #4]

00002360 <l2138>:
    2360:	81f0500e 	mvnshi	r5, lr

00002364 <l2139>:
    2364:	ea000007 	b	2388 <l2148>

00002368 <l2140>:
    2368:	e280100b 	add	r1, r0, #11

0000236c <l2141>:
    236c:	e05a0007 	subs	r0, sl, r7

00002370 <l2142>:
    2370:	e33508e9 	teq	r5, #15269888	; 0xe90000

00002374 <l2143>:
    2374:	e2694892 	rsb	r4, r9, #9568256	; 0x920000

00002378 <l2144>:
    2378:	e1300bea 	teq	r0, sl, ror #23

0000237c <l2145>:
    237c:	a337065e 	teqge	r7, #98566144	; 0x5e00000

00002380 <l2146>:
    2380:	3173067b 	cmncc	r3, fp, ror r6

00002384 <l2147>:
    2384:	ea000000 	b	238c <l2149>

00002388 <l2148>:
    2388:	eafffff7 	b	236c <l2141>

0000238c <l2149>:
    238c:	72333d4f 	eorsvc	r3, r3, #5056	; 0x13c0

00002390 <l2150>:
    2390:	c05b8e51 	subsgt	r8, fp, r1, asr lr

00002394 <l2151>:
    2394:	c025635e 	eorgt	r6, r5, lr, asr r3

00002398 <l2152>:
    2398:	da000002 	ble	23a8 <l2156>

0000239c <l2153>:
    239c:	e280102b 	add	r1, r0, #43	; 0x2b

000023a0 <l2154>:
    23a0:	e0220009 	eor	r0, r2, r9

000023a4 <l2155>:
    23a4:	ea000000 	b	23ac <l2157>

000023a8 <l2156>:
    23a8:	eafffffc 	b	23a0 <l2154>

000023ac <l2157>:
    23ac:	e1360067 	teq	r6, r7, rrx

000023b0 <l2158>:
    23b0:	804eaaeb 	subhi	sl, lr, fp, ror #21

000023b4 <l2159>:
    23b4:	20f7071e 	rscscs	r0, r7, lr, lsl r7

000023b8 <l2160>:
    23b8:	439a6aaa 	orrsmi	r6, sl, #696320	; 0xaa000

000023bc <l2161>:
    23bc:	ea000003 	b	23d0 <l2166>

000023c0 <l2162>:
    23c0:	b11e0002 	tstlt	lr, r2

000023c4 <l2163>:
    23c4:	31b07c18 	lslscc	r7, r8, ip

000023c8 <l2164>:
    23c8:	224fe64d 	subcs	lr, pc, #80740352	; 0x4d00000

000023cc <l2165>:
    23cc:	e28fbb26 	add	fp, pc, #38912	; 0x9800

000023d0 <l2166>:
    23d0:	e0aeec29 	adc	lr, lr, r9, lsr #24

000023d4 <l2167>:
    23d4:	e3a0200c 	mov	r2, #12

000023d8 <l2168>:
    23d8:	e60db002 	str	fp, [sp], -r2

000023dc <l2169>:
    23dc:	a003200e 	andge	r2, r3, lr

000023e0 <l2170>:
    23e0:	e09278ac 	adds	r7, r2, ip, lsr #17

000023e4 <l2171>:
    23e4:	63935f9b 	orrsvs	r5, r3, #620	; 0x26c

000023e8 <l2172>:
    23e8:	c39c99ae 	orrsgt	r9, ip, #2850816	; 0x2b8000

000023ec <l2173>:
    23ec:	e17608e2 	cmn	r6, r2, ror #17

000023f0 <l2174>:
    23f0:	51d1400b 	bicspl	r4, r1, fp

000023f4 <l2175>:
    23f4:	b189c883 	orrlt	ip, r9, r3, lsl #17

000023f8 <l2176>:
    23f8:	817e000a 	cmnhi	lr, sl

000023fc <l2177>:
    23fc:	419c72e1 	orrsmi	r7, ip, r1, ror #5

00002400 <l2178>:
    2400:	e1550daf 	cmp	r5, pc, lsr #27

00002404 <l2179>:
    2404:	e116000e 	tst	r6, lr

00002408 <l2180>:
    2408:	324c56b5 	subcc	r5, ip, #189792256	; 0xb500000

0000240c <l2181>:
    240c:	e3a0401c 	mov	r4, #28

00002410 <l2182>:
    2410:	e73d5004 	ldr	r5, [sp, -r4]!

00002414 <l2183>:
    2414:	aa000008 	bge	243c <l2193>

00002418 <l2184>:
    2418:	e1c5200c 	bic	r2, r5, ip

0000241c <l2185>:
    241c:	e03325e0 	eors	r2, r3, r0, ror #11

00002420 <l2186>:
    2420:	311c0751 	tstcc	ip, r1, asr r7

00002424 <l2187>:
    2424:	e0406065 	sub	r6, r0, r5, rrx

00002428 <l2188>:
    2428:	e1170062 	tst	r7, r2, rrx

0000242c <l2189>:
    242c:	0354070d 	cmpeq	r4, #3407872	; 0x340000

00002430 <l2190>:
    2430:	50cc3061 	sbcpl	r3, ip, r1, rrx

00002434 <l2191>:
    2434:	e2ee931f 	rsc	r9, lr, #2080374784	; 0x7c000000

00002438 <l2192>:
    2438:	d246480b 	suble	r4, r6, #720896	; 0xb0000

0000243c <l2193>:
    243c:	113c0722 	teqne	ip, r2, lsr #14

00002440 <l2194>:
    2440:	e08b4005 	add	r4, fp, r5

00002444 <l2195>:
    2444:	e011900f 	ands	r9, r1, pc

00002448 <l2196>:
    2448:	73e05812 	mvnvc	r5, #1179648	; 0x120000

0000244c <l2197>:
    244c:	c1b03000 	movsgt	r3, r0

00002450 <l2198>:
    2450:	30204005 	eorcc	r4, r0, r5

00002454 <l2199>:
    2454:	e1a0c003 	mov	ip, r3

00002458 <l2200>:
    2458:	e00ec008 	and	ip, lr, r8

0000245c <l2201>:
    245c:	e3a0a03c 	mov	sl, #60	; 0x3c

00002460 <l2202>:
    2460:	279d100a 	ldrcs	r1, [sp, sl]

00002464 <l2203>:
    2464:	215a0e55 	cmpcs	sl, r5, asr lr

00002468 <l2204>:
    2468:	a24fe0ef 	subge	lr, pc, #239	; 0xef

0000246c <l2205>:
    246c:	e398a08b 	orrs	sl, r8, #139	; 0x8b

00002470 <l2206>:
    2470:	e3a0700c 	mov	r7, #12

00002474 <l2207>:
    2474:	078d0007 	streq	r0, [sp, r7]

00002478 <l2208>:
    2478:	203b7002 	eorscs	r7, fp, r2

0000247c <l2209>:
    247c:	e35c0b1f 	cmp	ip, #31744	; 0x7c00

00002480 <l2210>:
    2480:	80268003 	eorhi	r8, r6, r3

00002484 <l2211>:
    2484:	e026bd4b 	eor	fp, r6, fp, asr #26

00002488 <l2212>:
    2488:	ea000003 	b	249c <l2217>

0000248c <l2213>:
    248c:	e28010b1 	add	r1, r0, #177	; 0xb1

00002490 <l2214>:
    2490:	e0012d86 	and	r2, r1, r6, lsl #27

00002494 <l2215>:
    2494:	33780d0e 	cmncc	r8, #896	; 0x380

00002498 <l2216>:
    2498:	ea000000 	b	24a0 <l2218>

0000249c <l2217>:
    249c:	eafffffb 	b	2490 <l2214>

000024a0 <l2218>:
    24a0:	e1a0706c 	rrx	r7, ip

000024a4 <l2219>:
    24a4:	31c192e0 	biccc	r9, r1, r0, ror #5

000024a8 <l2220>:
    24a8:	e0460751 	sub	r0, r6, r1, asr r7

000024ac <l2221>:
    24ac:	e0bf4007 	adcs	r4, pc, r7

000024b0 <l2222>:
    24b0:	0a000007 	beq	24d4 <l2231>

000024b4 <l2223>:
    24b4:	20f1000b 	rscscs	r0, r1, fp

000024b8 <l2224>:
    24b8:	51b06000 	movspl	r6, r0

000024bc <l2225>:
    24bc:	a03c1231 	eorsge	r1, ip, r1, lsr r2

000024c0 <l2226>:
    24c0:	71510458 	cmpvc	r1, r8, asr r4

000024c4 <l2227>:
    24c4:	e1b09955 	asrs	r9, r5, r9

000024c8 <l2228>:
    24c8:	e0e73006 	rsc	r3, r7, r6

000024cc <l2229>:
    24cc:	a0623064 	rsbge	r3, r2, r4, rrx

000024d0 <l2230>:
    24d0:	416fbf19 	clzmi	fp, r9

000024d4 <l2231>:
    24d4:	40e9b008 	rscmi	fp, r9, r8

000024d8 <l2232>:
    24d8:	916f1f1b 	clzls	r1, fp

000024dc <l2233>:
    24dc:	aa000006 	bge	24fc <l2241>

000024e0 <l2234>:
    24e0:	e2801003 	add	r1, r0, #3

000024e4 <l2235>:
    24e4:	90af8007 	adcls	r8, pc, r7

000024e8 <l2236>:
    24e8:	e04f700c 	sub	r7, pc, ip

000024ec <l2237>:
    24ec:	e259e12a 	subs	lr, r9, #-2147483638	; 0x8000000a

000024f0 <l2238>:
    24f0:	91780004 	cmnls	r8, r4

000024f4 <l2239>:
    24f4:	e16fbf1b 	clz	fp, fp

000024f8 <l2240>:
    24f8:	ea000000 	b	2500 <l2242>

000024fc <l2241>:
    24fc:	eafffff8 	b	24e4 <l2235>

00002500 <l2242>:
    2500:	959d6004 	ldrls	r6, [sp, #4]

00002504 <l2243>:
    2504:	e48de038 	str	lr, [sp], #56	; 0x38

00002508 <l2244>:
    2508:	30209419 	eorcc	r9, r0, r9, lsl r4

0000250c <l2245>:
    250c:	01d2000a 	bicseq	r0, r2, sl

00002510 <l2246>:
    2510:	e1d72b33 	bics	r2, r7, r3, lsr fp

00002514 <l2247>:
    2514:	216fef12 	clzcs	lr, r2

00002518 <l2248>:
    2518:	216f6f18 	clzcs	r6, r8

0000251c <l2249>:
    251c:	529c6146 	addspl	r6, ip, #-2147483631	; 0x80000011

00002520 <l2250>:
    2520:	e1d57062 	bics	r7, r5, r2, rrx

00002524 <l2251>:
    2524:	80a45e5a 	adchi	r5, r4, sl, asr lr

00002528 <l2252>:
    2528:	71f02064 	mvnsvc	r2, r4, rrx

0000252c <l2253>:
    252c:	e0b2e009 	adcs	lr, r2, r9

00002530 <l2254>:
    2530:	515f006e 	cmppl	pc, lr, rrx

00002534 <l2255>:
    2534:	d08b9001 	addle	r9, fp, r1

00002538 <l2256>:
    2538:	033f0e6b 	teqeq	pc, #1712	; 0x6b0

0000253c <l2257>:
    253c:	6184700b 	orrvs	r7, r4, fp

00002540 <l2258>:
    2540:	e0647f22 	rsb	r7, r4, r2, lsr #30

00002544 <l2259>:
    2544:	b0b6300f 	adcslt	r3, r6, pc

00002548 <l2260>:
    2548:	e17b0baf 	cmn	fp, pc, lsr #23

0000254c <l2261>:
    254c:	e3e0810e 	mvn	r8, #-2147483645	; 0x80000003

00002550 <l2262>:
    2550:	351dc00c 	ldrcc	ip, [sp, #-12]

00002554 <l2263>:
    2554:	c1180003 	tstgt	r8, r3

00002558 <l2264>:
    2558:	e37a0289 	cmn	sl, #-1879048184	; 0x90000008

0000255c <l2265>:
    255c:	e3a0701c 	mov	r7, #28

00002560 <l2266>:
    2560:	e60db007 	str	fp, [sp], -r7

00002564 <l2267>:
    2564:	ea000004 	b	257c <l2273>

00002568 <l2268>:
    2568:	e280101e 	add	r1, r0, #30

0000256c <l2269>:
    256c:	e3cc9296 	bic	r9, ip, #1610612745	; 0x60000009

00002570 <l2270>:
    2570:	61806009 	orrvs	r6, r0, r9

00002574 <l2271>:
    2574:	e31609c6 	tst	r6, #3244032	; 0x318000

00002578 <l2272>:
    2578:	ea000000 	b	2580 <l2274>

0000257c <l2273>:
    257c:	eafffffa 	b	256c <l2269>

00002580 <l2274>:
    2580:	00746003 	rsbseq	r6, r4, r3

00002584 <l2275>:
    2584:	4198400a 	orrsmi	r4, r8, sl

00002588 <l2276>:
    2588:	e174000c 	cmn	r4, ip

0000258c <l2277>:
    258c:	92c54267 	sbcls	r4, r5, #1879048198	; 0x70000006

00002590 <l2278>:
    2590:	e0d1eec4 	sbcs	lr, r1, r4, asr #29

00002594 <l2279>:
    2594:	916f8f18 	clzls	r8, r8

00002598 <l2280>:
    2598:	e0f191c3 	rscs	r9, r1, r3, asr #3

0000259c <l2281>:
    259c:	1a000007 	bne	25c0 <l2290>

000025a0 <l2282>:
    25a0:	e2801004 	add	r1, r0, #4

000025a4 <l2283>:
    25a4:	31f0a030 	mvnscc	sl, r0, lsr r0

000025a8 <l2284>:
    25a8:	9040a946 	subls	sl, r0, r6, asr #18

000025ac <l2285>:
    25ac:	e2ef669b 	rsc	r6, pc, #162529280	; 0x9b00000

000025b0 <l2286>:
    25b0:	21980235 	orrscs	r0, r8, r5, lsr r2

000025b4 <l2287>:
    25b4:	e0502878 	subs	r2, r0, r8, ror r8

000025b8 <l2288>:
    25b8:	e25b5ef3 	subs	r5, fp, #3888	; 0xf30

000025bc <l2289>:
    25bc:	ea000000 	b	25c4 <l2291>

000025c0 <l2290>:
    25c0:	eafffff7 	b	25a4 <l2283>

000025c4 <l2291>:
    25c4:	b137042e 	teqlt	r7, lr, lsr #8

000025c8 <l2292>:
    25c8:	30161918 	andscc	r1, r6, r8, lsl r9

000025cc <l2293>:
    25cc:	d3de9201 	bicsle	r9, lr, #268435456	; 0x10000000

000025d0 <l2294>:
    25d0:	a1120c26 	tstge	r2, r6, lsr #24

000025d4 <l2295>:
    25d4:	e0c37002 	sbc	r7, r3, r2

000025d8 <l2296>:
    25d8:	e1b0af62 	rors	sl, r2, #30

000025dc <l2297>:
    25dc:	e1d638ce 	bics	r3, r6, lr, asr #17

000025e0 <l2298>:
    25e0:	e2e4ad4d 	rsc	sl, r4, #4928	; 0x1340

000025e4 <l2299>:
    25e4:	e3a02010 	mov	r2, #16

000025e8 <l2300>:
    25e8:	e7bd9002 	ldr	r9, [sp, r2]!

000025ec <l2301>:
    25ec:	018b121b 	orreq	r1, fp, fp, lsl r2

000025f0 <l2302>:
    25f0:	823306d9 	eorshi	r0, r3, #227540992	; 0xd900000

000025f4 <l2303>:
    25f4:	e01c4002 	ands	r4, ip, r2

000025f8 <l2304>:
    25f8:	615c0007 	cmpvs	ip, r7

000025fc <l2305>:
    25fc:	1054700f 	subsne	r7, r4, pc

00002600 <l2306>:
    2600:	e3a04010 	mov	r4, #16

00002604 <l2307>:
    2604:	e70d2004 	str	r2, [sp, -r4]

00002608 <l2308>:
    2608:	e0226932 	eor	r6, r2, r2, lsr r9

0000260c <l2309>:
    260c:	e1320069 	teq	r2, r9, rrx

00002610 <l2310>:
    2610:	a1570274 	cmpge	r7, r4, ror r2

00002614 <l2311>:
    2614:	e27327e2 	rsbs	r2, r3, #59244544	; 0x3880000

00002618 <l2312>:
    2618:	c031271c 	eorsgt	r2, r1, ip, lsl r7

0000261c <l2313>:
    261c:	e3a0e028 	mov	lr, #40	; 0x28

00002620 <l2314>:
    2620:	e61d700e 	ldr	r7, [sp], -lr

00002624 <l2315>:
    2624:	b2e99a33 	rsclt	r9, r9, #208896	; 0x33000

00002628 <l2316>:
    2628:	829fcb17 	addshi	ip, pc, #23552	; 0x5c00

0000262c <l2317>:
    262c:	e179000a 	cmn	r9, sl

00002630 <l2318>:
    2630:	e0538a5e 	subs	r8, r3, lr, asr sl

00002634 <l2319>:
    2634:	a0f24005 	rscsge	r4, r2, r5

00002638 <l2320>:
    2638:	e16f0f12 	clz	r0, r2

0000263c <l2321>:
    263c:	a25ea42b 	subsge	sl, lr, #721420288	; 0x2b000000

00002640 <l2322>:
    2640:	e52d6004 	push	{r6}		; (str r6, [sp, #-4]!)

00002644 <l2323>:
    2644:	e020ee4b 	eor	lr, r0, fp, asr #28

00002648 <l2324>:
    2648:	b05e441c 	subslt	r4, lr, ip, lsl r4

0000264c <l2325>:
    264c:	e051c004 	subs	ip, r1, r4

00002650 <l2326>:
    2650:	91750147 	cmnls	r5, r7, asr #2

00002654 <l2327>:
    2654:	43110013 	tstmi	r1, #19

00002658 <l2328>:
    2658:	d38917a1 	orrle	r1, r9, #42205184	; 0x2840000

0000265c <l2329>:
    265c:	c0336813 	eorsgt	r6, r3, r3, lsl r8

00002660 <l2330>:
    2660:	e3899903 	orr	r9, r9, #49152	; 0xc000

00002664 <l2331>:
    2664:	e3a01000 	mov	r1, #0

00002668 <l2332>:
    2668:	079d0001 	ldreq	r0, [sp, r1]

0000266c <l2333>:
    266c:	a11b07cb 	tstge	fp, fp, asr #15

00002670 <l2334>:
    2670:	e187006b 	orr	r0, r7, fp, rrx

00002674 <l2335>:
    2674:	b1a01006 	movlt	r1, r6

00002678 <l2336>:
    2678:	e01a5002 	ands	r5, sl, r2

0000267c <l2337>:
    267c:	e0f8200e 	rscs	r2, r8, lr

00002680 <l2338>:
    2680:	70d2e06e 	sbcsvc	lr, r2, lr, rrx

00002684 <l2339>:
    2684:	e15900c4 	cmp	r9, r4, asr #1

00002688 <l2340>:
    2688:	e11b0002 	tst	fp, r2

0000268c <l2341>:
    268c:	e1a09008 	mov	r9, r8

00002690 <l2342>:
    2690:	e16fef15 	clz	lr, r5

00002694 <l2343>:
    2694:	a054cc55 	subsge	ip, r4, r5, asr ip

00002698 <l2344>:
    2698:	e150041b 	cmp	r0, fp, lsl r4

0000269c <l2345>:
    269c:	d136000c 	teqle	r6, ip

000026a0 <l2346>:
    26a0:	e13a0069 	teq	sl, r9, rrx

000026a4 <l2347>:
    26a4:	e065b216 	rsb	fp, r5, r6, lsl r2

000026a8 <l2348>:
    26a8:	e0522972 	subs	r2, r2, r2, ror r9

000026ac <l2349>:
    26ac:	e2177f53 	ands	r7, r7, #332	; 0x14c

000026b0 <l2350>:
    26b0:	e061b009 	rsb	fp, r1, r9

000026b4 <l2351>:
    26b4:	e1c63609 	bic	r3, r6, r9, lsl #12

000026b8 <l2352>:
    26b8:	70b3e60f 	adcsvc	lr, r3, pc, lsl #12

000026bc <l2353>:
    26bc:	9a000000 	bls	26c4 <l2355>

000026c0 <l2354>:
    26c0:	e06e606c 	rsb	r6, lr, ip, rrx

000026c4 <l2355>:
    26c4:	716f1f15 	clzvc	r1, r5

000026c8 <l2356>:
    26c8:	e01c800c 	ands	r8, ip, ip

000026cc <l2357>:
    26cc:	619a722a 	orrsvs	r7, sl, sl, lsr #4

000026d0 <l2358>:
    26d0:	e0325d68 	eors	r5, r2, r8, ror #26

000026d4 <l2359>:
    26d4:	ea000003 	b	26e8 <l2364>

000026d8 <l2360>:
    26d8:	e28010d1 	add	r1, r0, #209	; 0xd1

000026dc <l2361>:
    26dc:	e1b01a2c 	lsrs	r1, ip, #20

000026e0 <l2362>:
    26e0:	e11b0073 	tst	fp, r3, ror r0

000026e4 <l2363>:
    26e4:	ea000000 	b	26ec <l2365>

000026e8 <l2364>:
    26e8:	eafffffb 	b	26dc <l2361>

000026ec <l2365>:
    26ec:	c0074b18 	andgt	r4, r7, r8, lsl fp

000026f0 <l2366>:
    26f0:	231402d3 	tstcs	r4, #805306381	; 0x3000000d

000026f4 <l2367>:
    26f4:	e1150070 	tst	r5, r0, ror r0

000026f8 <l2368>:
    26f8:	73300991 	teqvc	r0, #2375680	; 0x244000

000026fc <l2369>:
    26fc:	e0da300f 	sbcs	r3, sl, pc

00002700 <l2370>:
    2700:	501a5c5e 	andspl	r5, sl, lr, asr ip

00002704 <l2371>:
    2704:	e1100354 	tst	r0, r4, asr r3

00002708 <l2372>:
    2708:	e1740060 	cmn	r4, r0, rrx

0000270c <l2373>:
    270c:	e0fe9829 	rscs	r9, lr, r9, lsr #16

00002710 <l2374>:
    2710:	ba000005 	blt	272c <l2381>

00002714 <l2375>:
    2714:	e280101f 	add	r1, r0, #31

00002718 <l2376>:
    2718:	e1e05631 	mvn	r5, r1, lsr r6

0000271c <l2377>:
    271c:	40677c03 	rsbmi	r7, r7, r3, lsl #24

00002720 <l2378>:
    2720:	e17b0009 	cmn	fp, r9

00002724 <l2379>:
    2724:	e33a0123 	teq	sl, #-1073741816	; 0xc0000008

00002728 <l2380>:
    2728:	ea000000 	b	2730 <l2382>

0000272c <l2381>:
    272c:	eafffff9 	b	2718 <l2376>

00002730 <l2382>:
    2730:	23730632 	cmncs	r3, #52428800	; 0x3200000

00002734 <l2383>:
    2734:	ea000004 	b	274c <l2389>

00002738 <l2384>:
    2738:	e2801028 	add	r1, r0, #40	; 0x28

0000273c <l2385>:
    273c:	10be0005 	adcsne	r0, lr, r5

00002740 <l2386>:
    2740:	a282add7 	addge	sl, r2, #13760	; 0x35c0

00002744 <l2387>:
    2744:	e044e060 	sub	lr, r4, r0, rrx

00002748 <l2388>:
    2748:	ea000000 	b	2750 <l2390>

0000274c <l2389>:
    274c:	eafffffa 	b	273c <l2385>

00002750 <l2390>:
    2750:	0a000002 	beq	2760 <l2394>

00002754 <l2391>:
    2754:	51f0500e 	mvnspl	r5, lr

00002758 <l2392>:
    2758:	80a0100b 	adchi	r1, r0, fp

0000275c <l2393>:
    275c:	e136000c 	teq	r6, ip

00002760 <l2394>:
    2760:	413500e9 	teqmi	r5, r9, ror #1

00002764 <l2395>:
    2764:	51c90311 	bicpl	r0, r9, r1, lsl r3

00002768 <l2396>:
    2768:	d172037a 	cmnle	r2, sl, ror r3

0000276c <l2397>:
    276c:	e0413d8f 	sub	r3, r1, pc, lsl #27

00002770 <l2398>:
    2770:	e2cc057e 	sbc	r0, ip, #528482304	; 0x1f800000

00002774 <l2399>:
    2774:	11a0706e 	rrxne	r7, lr

00002778 <l2400>:
    2778:	ba000005 	blt	2794 <l2407>

0000277c <l2401>:
    277c:	d02cb304 	eorle	fp, ip, r4, lsl #6

00002780 <l2402>:
    2780:	2177000a 	cmncs	r7, sl

00002784 <l2403>:
    2784:	71b04003 	movsvc	r4, r3

00002788 <l2404>:
    2788:	e02f3069 	eor	r3, pc, r9, rrx

0000278c <l2405>:
    278c:	e24399ad 	sub	r9, r3, #2834432	; 0x2b4000

00002790 <l2406>:
    2790:	e1700379 	cmn	r0, r9, ror r3

00002794 <l2407>:
    2794:	21864583 	orrcs	r4, r6, r3, lsl #11

00002798 <l2408>:
    2798:	103b7e74 	eorsne	r7, fp, r4, ror lr

0000279c <l2409>:
    279c:	ea000002 	b	27ac <l2413>

000027a0 <l2410>:
    27a0:	e28010fe 	add	r1, r0, #254	; 0xfe

000027a4 <l2411>:
    27a4:	902e5001 	eorls	r5, lr, r1

000027a8 <l2412>:
    27a8:	ea000000 	b	27b0 <l2414>

000027ac <l2413>:
    27ac:	eafffffc 	b	27a4 <l2411>

000027b0 <l2414>:
    27b0:	e1750828 	cmn	r5, r8, lsr #16

000027b4 <l2415>:
    27b4:	40f40069 	rscsmi	r0, r4, r9, rrx

000027b8 <l2416>:
    27b8:	e5ad3008 	str	r3, [sp, #8]!

000027bc <l2417>:
    27bc:	e0e3e000 	rsc	lr, r3, r0

000027c0 <l2418>:
    27c0:	e3a03004 	mov	r3, #4

000027c4 <l2419>:
    27c4:	e79d3003 	ldr	r3, [sp, r3]

000027c8 <l2420>:
    27c8:	e3a0ee6a 	mov	lr, #1696	; 0x6a0

000027cc <l2421>:
    27cc:	e0778783 	rsbs	r8, r7, r3, lsl #15

000027d0 <l2422>:
    27d0:	e3b09b99 	movs	r9, #156672	; 0x26400

000027d4 <l2423>:
    27d4:	00a800ce 	adceq	r0, r8, lr, asr #1

000027d8 <l2424>:
    27d8:	e1951003 	orrs	r1, r5, r3

000027dc <l2425>:
    27dc:	e1a01c42 	asr	r1, r2, #24

000027e0 <l2426>:
    27e0:	e04511aa 	sub	r1, r5, sl, lsr #3

000027e4 <l2427>:
    27e4:	e1e015cf 	mvn	r1, pc, asr #11

000027e8 <l2428>:
    27e8:	816fcf17 	clzhi	ip, r7

000027ec <l2429>:
    27ec:	8affffff 	bhi	27f0 <l2430>

000027f0 <l2430>:
    27f0:	938eaee6 	orrls	sl, lr, #3680	; 0xe60

000027f4 <l2431>:
    27f4:	159d5014 	ldrne	r5, [sp, #20]

000027f8 <l2432>:
    27f8:	e16fef1e 	clz	lr, lr

000027fc <l2433>:
    27fc:	e2039031 	and	r9, r3, #49	; 0x31

00002800 <l2434>:
    2800:	e11b0476 	tst	fp, r6, ror r4

00002804 <l2435>:
    2804:	516f4f15 	clzpl	r4, r5

00002808 <l2436>:
    2808:	01780007 	cmneq	r8, r7

0000280c <l2437>:
    280c:	e06b5dca 	rsb	r5, fp, sl, asr #27

00002810 <l2438>:
    2810:	e1db4ce5 	bics	r4, fp, r5, ror #25

00002814 <l2439>:
    2814:	ea000006 	b	2834 <l2447>

00002818 <l2440>:
    2818:	e0f04005 	rscs	r4, r0, r5

0000281c <l2441>:
    281c:	90997004 	addsls	r7, r9, r4

00002820 <l2442>:
    2820:	e04acb8f 	sub	ip, sl, pc, lsl #23

00002824 <l2443>:
    2824:	908f9a22 	addls	r9, pc, r2, lsr #20

00002828 <l2444>:
    2828:	e1f02935 	mvns	r2, r5, lsr r9

0000282c <l2445>:
    282c:	0057c002 	subseq	ip, r7, r2

00002830 <l2446>:
    2830:	d11903e1 	tstle	r9, r1, ror #7

00002834 <l2447>:
    2834:	70f72515 	rscsvc	r2, r7, r5, lsl r5

00002838 <l2448>:
    2838:	b16f0f1c 	clzlt	r0, ip

0000283c <l2449>:
    283c:	4191a139 	orrsmi	sl, r1, r9, lsr r1

00002840 <l2450>:
    2840:	e01b9b83 	ands	r9, fp, r3, lsl #23

00002844 <l2451>:
    2844:	e191e760 	orrs	lr, r1, r0, ror #14

00002848 <l2452>:
    2848:	72476f9a 	subvc	r6, r7, #616	; 0x268

0000284c <l2453>:
    284c:	8a000005 	bhi	2868 <l2460>

00002850 <l2454>:
    2850:	a025c452 	eorge	ip, r5, r2, asr r4

00002854 <l2455>:
    2854:	e2666c13 	rsb	r6, r6, #4864	; 0x1300

00002858 <l2456>:
    2858:	2039b001 	eorscs	fp, r9, r1

0000285c <l2457>:
    285c:	e25601da 	subs	r0, r6, #-2147483594	; 0x80000036

00002860 <l2458>:
    2860:	e3cb624d 	bic	r6, fp, #-805306364	; 0xd0000004

00002864 <l2459>:
    2864:	e1f04a7a 	mvns	r4, sl, ror sl

00002868 <l2460>:
    2868:	e0e72706 	rsc	r2, r7, r6, lsl #14

0000286c <l2461>:
    286c:	e3a05030 	mov	r5, #48	; 0x30

00002870 <l2462>:
    2870:	e7bd7005 	ldr	r7, [sp, r5]!

00002874 <l2463>:
    2874:	e086861c 	add	r8, r6, ip, lsl r6

00002878 <l2464>:
    2878:	90371011 	eorsls	r1, r7, r1, lsl r0

0000287c <l2465>:
    287c:	515b0334 	cmppl	fp, r4, lsr r3

00002880 <l2466>:
    2880:	e31c08c5 	tst	ip, #12910592	; 0xc50000

00002884 <l2467>:
    2884:	20c7895e 	sbccs	r8, r7, lr, asr r9

00002888 <l2468>:
    2888:	03a018db 	moveq	r1, #14352384	; 0xdb0000

0000288c <l2469>:
    288c:	d0fa7670 	rscsle	r7, sl, r0, ror r6

00002890 <l2470>:
    2890:	e16f5f10 	clz	r5, r0

00002894 <l2471>:
    2894:	4affffff 	bmi	2898 <l2472>

00002898 <l2472>:
    2898:	605be001 	subsvs	lr, fp, r1

0000289c <l2473>:
    289c:	e3a0803c 	mov	r8, #60	; 0x3c

000028a0 <l2474>:
    28a0:	e72d6008 	str	r6, [sp, -r8]!

000028a4 <l2475>:
    28a4:	50140066 	andspl	r0, r4, r6, rrx

000028a8 <l2476>:
    28a8:	e047e35e 	sub	lr, r7, lr, asr r3

000028ac <l2477>:
    28ac:	70a52014 	adcvc	r2, r5, r4, lsl r0

000028b0 <l2478>:
    28b0:	e3160b12 	tst	r6, #18432	; 0x4800

000028b4 <l2479>:
    28b4:	e097200e 	adds	r2, r7, lr

000028b8 <l2480>:
    28b8:	e1790062 	cmn	r9, r2, rrx

000028bc <l2481>:
    28bc:	e3c34082 	bic	r4, r3, #130	; 0x82

000028c0 <l2482>:
    28c0:	10148009 	andsne	r8, r4, r9

000028c4 <l2483>:
    28c4:	3a000003 	bcc	28d8 <l2488>

000028c8 <l2484>:
    28c8:	e1530860 	cmp	r3, r0, ror #16

000028cc <l2485>:
    28cc:	e070e063 	rsbs	lr, r0, r3, rrx

000028d0 <l2486>:
    28d0:	e0767005 	rsbs	r7, r6, r5

000028d4 <l2487>:
    28d4:	e16f8f1c 	clz	r8, ip

000028d8 <l2488>:
    28d8:	802c506c 	eorhi	r5, ip, ip, rrx

000028dc <l2489>:
    28dc:	e13c0077 	teq	ip, r7, ror r0

000028e0 <l2490>:
    28e0:	90d82de3 	sbcsls	r2, r8, r3, ror #27

000028e4 <l2491>:
    28e4:	a0535005 	subsge	r5, r3, r5

000028e8 <l2492>:
    28e8:	816f9f19 	clzhi	r9, r9

000028ec <l2493>:
    28ec:	e1e08ba3 	mvn	r8, r3, lsr #23

000028f0 <l2494>:
    28f0:	71190001 	tstvc	r9, r1

000028f4 <l2495>:
    28f4:	611e017a 	tstvs	lr, sl, ror r1

000028f8 <l2496>:
    28f8:	516fcf11 	clzpl	ip, r1

000028fc <l2497>:
    28fc:	31e03760 	mvncc	r3, r0, ror #14

00002900 <l2498>:
    2900:	60961670 	addsvs	r1, r6, r0, ror r6

00002904 <l2499>:
    2904:	51920008 	orrspl	r0, r2, r8

00002908 <l2500>:
    2908:	a25ba593 	subsge	sl, fp, #616562688	; 0x24c00000

0000290c <l2501>:
    290c:	6a000003 	bvs	2920 <l2506>

00002910 <l2502>:
    2910:	409ea27a 	addsmi	sl, lr, sl, ror r2

00002914 <l2503>:
    2914:	b13f07a4 	teqlt	pc, r4, lsr #15

00002918 <l2504>:
    2918:	32905636 	addscc	r5, r0, #56623104	; 0x3600000

0000291c <l2505>:
    291c:	213e0c32 	teqcs	lr, r2, lsr ip

00002920 <l2506>:
    2920:	e0f2806a 	rscs	r8, r2, sl, rrx

00002924 <l2507>:
    2924:	b2fb3b8d 	rscslt	r3, fp, #144384	; 0x23400

00002928 <l2508>:
    2928:	e24443ff 	sub	r4, r4, #-67108861	; 0xfc000003

0000292c <l2509>:
    292c:	3a000003 	bcc	2940 <l2514>

00002930 <l2510>:
    2930:	505ab00e 	subspl	fp, sl, lr

00002934 <l2511>:
    2934:	e1e00007 	mvn	r0, r7

00002938 <l2512>:
    2938:	d210010f 	andsle	r0, r0, #-1073741821	; 0xc0000003

0000293c <l2513>:
    293c:	e058b062 	subs	fp, r8, r2, rrx

00002940 <l2514>:
    2940:	d2c64a36 	sbcle	r4, r6, #221184	; 0x36000

00002944 <l2515>:
    2944:	91c52928 	bicls	r2, r5, r8, lsr #18

00002948 <l2516>:
    2948:	3033200b 	eorscc	r2, r3, fp

0000294c <l2517>:
    294c:	e284e015 	add	lr, r4, #21

00002950 <l2518>:
    2950:	e3a0302c 	mov	r3, #44	; 0x2c

00002954 <l2519>:
    2954:	e7ad0003 	str	r0, [sp, r3]!

00002958 <l2520>:
    2958:	b0bbc4e2 	adcslt	ip, fp, r2, ror #9

0000295c <l2521>:
    295c:	907c8002 	rsbsls	r8, ip, r2

00002960 <l2522>:
    2960:	338550b4 	orrcc	r5, r5, #180	; 0xb4

00002964 <l2523>:
    2964:	0a000003 	beq	2978 <l2528>

00002968 <l2524>:
    2968:	e280104b 	add	r1, r0, #75	; 0x4b

0000296c <l2525>:
    296c:	e2f2ba71 	rscs	fp, r2, #462848	; 0x71000

00002970 <l2526>:
    2970:	511e0000 	tstpl	lr, r0

00002974 <l2527>:
    2974:	ea000000 	b	297c <l2529>

00002978 <l2528>:
    2978:	eafffffb 	b	296c <l2525>

0000297c <l2529>:
    297c:	41760e51 	cmnmi	r6, r1, asr lr

00002980 <l2530>:
    2980:	e04326ce 	sub	r2, r3, lr, asr #13

00002984 <l2531>:
    2984:	73780014 	cmnvc	r8, #20

00002988 <l2532>:
    2988:	10533933 	subsne	r3, r3, r3, lsr r9

0000298c <l2533>:
    298c:	e0c44068 	sbc	r4, r4, r8, rrx

00002990 <l2534>:
    2990:	e17e0068 	cmn	lr, r8, rrx

00002994 <l2535>:
    2994:	e16faf17 	clz	sl, r7

00002998 <l2536>:
    2998:	e020a35e 	eor	sl, r0, lr, asr r3

0000299c <l2537>:
    299c:	00e4496f 	rsceq	r4, r4, pc, ror #18

000029a0 <l2538>:
    29a0:	e2f4591d 	rscs	r5, r4, #475136	; 0x74000

000029a4 <l2539>:
    29a4:	ea000002 	b	29b4 <l2543>

000029a8 <l2540>:
    29a8:	e2801007 	add	r1, r0, #7

000029ac <l2541>:
    29ac:	b0a7c105 	adclt	ip, r7, r5, lsl #2

000029b0 <l2542>:
    29b0:	ea000000 	b	29b8 <l2544>

000029b4 <l2543>:
    29b4:	eafffffc 	b	29ac <l2541>

000029b8 <l2544>:
    29b8:	ea000002 	b	29c8 <l2548>

000029bc <l2545>:
    29bc:	e2801035 	add	r1, r0, #53	; 0x35

000029c0 <l2546>:
    29c0:	71f0e1e4 	mvnsvc	lr, r4, ror #3

000029c4 <l2547>:
    29c4:	ea000000 	b	29cc <l2549>

000029c8 <l2548>:
    29c8:	eafffffc 	b	29c0 <l2546>

000029cc <l2549>:
    29cc:	a18a59e2 	orrge	r5, sl, r2, ror #19

000029d0 <l2550>:
    29d0:	e41d8024 	ldr	r8, [sp], #-36	; 0x24

000029d4 <l2551>:
    29d4:	e16f4f17 	clz	r4, r7

000029d8 <l2552>:
    29d8:	23760be1 	cmncs	r6, #230400	; 0x38400

000029dc <l2553>:
    29dc:	201e406a 	andscs	r4, lr, sl, rrx

000029e0 <l2554>:
    29e0:	b0c50953 	sbclt	r0, r5, r3, asr r9

000029e4 <l2555>:
    29e4:	e3360bdb 	teq	r6, #224256	; 0x36c00

000029e8 <l2556>:
    29e8:	816fef14 	clzhi	lr, r4

000029ec <l2557>:
    29ec:	8258afe9 	subshi	sl, r8, #932	; 0x3a4

000029f0 <l2558>:
    29f0:	61861003 	orrvs	r1, r6, r3

000029f4 <l2559>:
    29f4:	e062a06e 	rsb	sl, r2, lr, rrx

000029f8 <l2560>:
    29f8:	aa000005 	bge	2a14 <l2567>

000029fc <l2561>:
    29fc:	00ca300c 	sbceq	r3, sl, ip

00002a00 <l2562>:
    2a00:	e189971a 	orr	r9, r9, sl, lsl r7

00002a04 <l2563>:
    2a04:	e2837c95 	add	r7, r3, #38144	; 0x9500

00002a08 <l2564>:
    2a08:	4112000a 	tstmi	r2, sl

00002a0c <l2565>:
    2a0c:	d16f0f1b 	clzle	r0, fp

00002a10 <l2566>:
    2a10:	d3720b62 	cmnle	r2, #100352	; 0x18800

00002a14 <l2567>:
    2a14:	100a8062 	andne	r8, sl, r2, rrx

00002a18 <l2568>:
    2a18:	b026c066 	eorlt	ip, r6, r6, rrx

00002a1c <l2569>:
    2a1c:	b065735b 	rsblt	r7, r5, fp, asr r3

00002a20 <l2570>:
    2a20:	0a000001 	beq	2a2c <l2573>

00002a24 <l2571>:
    2a24:	20318009 	eorscs	r8, r1, r9

00002a28 <l2572>:
    2a28:	837c0d81 	cmnhi	ip, #8256	; 0x2040

00002a2c <l2573>:
    2a2c:	e064a007 	rsb	sl, r4, r7

00002a30 <l2574>:
    2a30:	d0b55c77 	adcsle	r5, r5, r7, ror ip

00002a34 <l2575>:
    2a34:	c171015b 	cmngt	r1, fp, asr r1

00002a38 <l2576>:
    2a38:	22c85c36 	sbccs	r5, r8, #13824	; 0x3600

00002a3c <l2577>:
    2a3c:	325c8ee9 	subscc	r8, ip, #3728	; 0xe90

00002a40 <l2578>:
    2a40:	019ccaa1 	orrseq	ip, ip, r1, lsr #21

00002a44 <l2579>:
    2a44:	81100000 	tsthi	r0, r0

00002a48 <l2580>:
    2a48:	e182c000 	orr	ip, r2, r0

00002a4c <l2581>:
    2a4c:	e0543062 	subs	r3, r4, r2, rrx

00002a50 <l2582>:
    2a50:	e2d10039 	sbcs	r0, r1, #57	; 0x39

00002a54 <l2583>:
    2a54:	e1130222 	tst	r3, r2, lsr #4

00002a58 <l2584>:
    2a58:	128a0925 	addne	r0, sl, #606208	; 0x94000

00002a5c <l2585>:
    2a5c:	e49d7034 	ldr	r7, [sp], #52	; 0x34

00002a60 <l2586>:
    2a60:	e188c007 	orr	ip, r8, r7

00002a64 <l2587>:
    2a64:	21360812 	teqcs	r6, r2, lsl r8

00002a68 <l2588>:
    2a68:	b1852008 	orrlt	r2, r5, r8

00002a6c <l2589>:
    2a6c:	e3a04008 	mov	r4, #8

00002a70 <l2590>:
    2a70:	e72dc004 	str	ip, [sp, -r4]!

00002a74 <l2591>:
    2a74:	e188551c 	orr	r5, r8, ip, lsl r5

00002a78 <l2592>:
    2a78:	e1858067 	orr	r8, r5, r7, rrx

00002a7c <l2593>:
    2a7c:	e117065b 	tst	r7, fp, asr r6

00002a80 <l2594>:
    2a80:	d0cf23a6 	sbcle	r2, pc, r6, lsr #7

00002a84 <l2595>:
    2a84:	51740a1c 	cmnpl	r4, ip, lsl sl

00002a88 <l2596>:
    2a88:	8077a061 	rsbshi	sl, r7, r1, rrx

00002a8c <l2597>:
    2a8c:	e1f05004 	mvns	r5, r4

00002a90 <l2598>:
    2a90:	e1d61272 	bics	r1, r6, r2, ror r2

00002a94 <l2599>:
    2a94:	31c5ac1b 	biccc	sl, r5, fp, lsl ip

00002a98 <l2600>:
    2a98:	eaffffff 	b	2a9c <l2601>

00002a9c <l2601>:
    2a9c:	80532003 	subshi	r2, r3, r3

00002aa0 <l2602>:
    2aa0:	e0c8c64a 	sbc	ip, r8, sl, asr #12

00002aa4 <l2603>:
    2aa4:	e16fcf12 	clz	ip, r2

00002aa8 <l2604>:
    2aa8:	c18e5713 	orrgt	r5, lr, r3, lsl r7

00002aac <l2605>:
    2aac:	e0183062 	ands	r3, r8, r2, rrx

00002ab0 <l2606>:
    2ab0:	22225c31 	eorcs	r5, r2, #12544	; 0x3100

00002ab4 <l2607>:
    2ab4:	e186ce52 	orr	ip, r6, r2, asr lr

00002ab8 <l2608>:
    2ab8:	e065b06b 	rsb	fp, r5, fp, rrx

00002abc <l2609>:
    2abc:	e3a02010 	mov	r2, #16

00002ac0 <l2610>:
    2ac0:	e78d3002 	str	r3, [sp, r2]

00002ac4 <l2611>:
    2ac4:	516f5f13 	clzpl	r5, r3

00002ac8 <l2612>:
    2ac8:	ea000002 	b	2ad8 <l2616>

00002acc <l2613>:
    2acc:	e28010de 	add	r1, r0, #222	; 0xde

00002ad0 <l2614>:
    2ad0:	e16f8f19 	clz	r8, r9

00002ad4 <l2615>:
    2ad4:	ea000000 	b	2adc <l2617>

00002ad8 <l2616>:
    2ad8:	eafffffc 	b	2ad0 <l2614>

00002adc <l2617>:
    2adc:	e1500064 	cmp	r0, r4, rrx

00002ae0 <l2618>:
    2ae0:	017a0176 	cmneq	sl, r6, ror r1

00002ae4 <l2619>:
    2ae4:	da000008 	ble	2b0c <l2629>

00002ae8 <l2620>:
    2ae8:	a095367a 	addsge	r3, r5, sl, ror r6

00002aec <l2621>:
    2aec:	c2e61139 	rscgt	r1, r6, #1073741838	; 0x4000000e

00002af0 <l2622>:
    2af0:	e0b9100c 	adcs	r1, r9, ip

00002af4 <l2623>:
    2af4:	a007a009 	andge	sl, r7, r9

00002af8 <l2624>:
    2af8:	e1ca2d6a 	bic	r2, sl, sl, ror #26

00002afc <l2625>:
    2afc:	e2536812 	subs	r6, r3, #1179648	; 0x120000

00002b00 <l2626>:
    2b00:	e1c9400e 	bic	r4, r9, lr

00002b04 <l2627>:
    2b04:	016f4f1a 	clzeq	r4, sl

00002b08 <l2628>:
    2b08:	81a0c002 	movhi	ip, r2

00002b0c <l2629>:
    2b0c:	e1a0011e 	lsl	r0, lr, r1

00002b10 <l2630>:
    2b10:	e37b0187 	cmn	fp, #-1073741791	; 0xc0000021

00002b14 <l2631>:
    2b14:	c0453005 	subgt	r3, r5, r5

00002b18 <l2632>:
    2b18:	e0033522 	and	r3, r3, r2, lsr #10

00002b1c <l2633>:
    2b1c:	40cc6061 	sbcmi	r6, ip, r1, rrx

00002b20 <l2634>:
    2b20:	e0c2601e 	sbc	r6, r2, lr, lsl r0

00002b24 <l2635>:
    2b24:	21b0b7a4 	lsrscs	fp, r4, #15

00002b28 <l2636>:
    2b28:	6016763b 	andsvs	r7, r6, fp, lsr r6

00002b2c <l2637>:
    2b2c:	d1cce007 	bicle	lr, ip, r7

00002b30 <l2638>:
    2b30:	e17502e6 	cmn	r5, r6, ror #5

00002b34 <l2639>:
    2b34:	e041487b 	sub	r4, r1, fp, ror r8

00002b38 <l2640>:
    2b38:	716f5f15 	clzvc	r5, r5

00002b3c <l2641>:
    2b3c:	d3700a3a 	cmnle	r0, #237568	; 0x3a000

00002b40 <l2642>:
    2b40:	b0402b58 	sublt	r2, r0, r8, asr fp

00002b44 <l2643>:
    2b44:	6a000003 	bvs	2b58 <l2648>

00002b48 <l2644>:
    2b48:	11c7696a 	bicne	r6, r7, sl, ror #18

00002b4c <l2645>:
    2b4c:	21710378 	cmncs	r1, r8, ror r3

00002b50 <l2646>:
    2b50:	e26e5eb1 	rsb	r5, lr, #2832	; 0xb10

00002b54 <l2647>:
    2b54:	c09e600e 	addsgt	r6, lr, lr

00002b58 <l2648>:
    2b58:	01340033 	teqeq	r4, r3, lsr r0

00002b5c <l2649>:
    2b5c:	1a000002 	bne	2b6c <l2653>

00002b60 <l2650>:
    2b60:	e28010fc 	add	r1, r0, #252	; 0xfc

00002b64 <l2651>:
    2b64:	80071378 	andhi	r1, r7, r8, ror r3

00002b68 <l2652>:
    2b68:	ea000000 	b	2b70 <l2654>

00002b6c <l2653>:
    2b6c:	eafffffc 	b	2b64 <l2651>

00002b70 <l2654>:
    2b70:	e3b02b1e 	movs	r2, #30720	; 0x7800

00002b74 <l2655>:
    2b74:	10f25009 	rscsne	r5, r2, r9

00002b78 <l2656>:
    2b78:	ea000005 	b	2b94 <l2663>

00002b7c <l2657>:
    2b7c:	5024500c 	eorpl	r5, r4, ip

00002b80 <l2658>:
    2b80:	c0c9bb46 	sbcgt	fp, r9, r6, asr #22

00002b84 <l2659>:
    2b84:	e187e953 	orr	lr, r7, r3, asr r9

00002b88 <l2660>:
    2b88:	b1dab001 	bicslt	fp, sl, r1

00002b8c <l2661>:
    2b8c:	50ce700a 	sbcpl	r7, lr, sl

00002b90 <l2662>:
    2b90:	13540933 	cmpne	r4, #835584	; 0xcc000

00002b94 <l2663>:
    2b94:	61964fe2 	orrsvs	r4, r6, r2, ror #31

00002b98 <l2664>:
    2b98:	e3a0402c 	mov	r4, #44	; 0x2c

00002b9c <l2665>:
    2b9c:	e73db004 	ldr	fp, [sp, -r4]!

00002ba0 <l2666>:
    2ba0:	ea000008 	b	2bc8 <l2676>

00002ba4 <l2667>:
    2ba4:	e173000f 	cmn	r3, pc

00002ba8 <l2668>:
    2ba8:	01770187 	cmneq	r7, r7, lsl #3

00002bac <l2669>:
    2bac:	7092bfea 	addsvc	fp, r2, sl, ror #31

00002bb0 <l2670>:
    2bb0:	822e7d62 	eorhi	r7, lr, #6272	; 0x1880

00002bb4 <l2671>:
    2bb4:	3089a78b 	addcc	sl, r9, fp, lsl #15

00002bb8 <l2672>:
    2bb8:	3178023c 	cmncc	r8, ip, lsr r2

00002bbc <l2673>:
    2bbc:	b1500987 	cmplt	r0, r7, lsl #19

00002bc0 <l2674>:
    2bc0:	b13a006f 	teqlt	sl, pc, rrx

00002bc4 <l2675>:
    2bc4:	e3700506 	cmn	r0, #25165824	; 0x1800000

00002bc8 <l2676>:
    2bc8:	e022300e 	eor	r3, r2, lr

00002bcc <l2677>:
    2bcc:	e0bb5007 	adcs	r5, fp, r7

00002bd0 <l2678>:
    2bd0:	e18c600c 	orr	r6, ip, ip

00002bd4 <l2679>:
    2bd4:	8041e9aa 	subhi	lr, r1, sl, lsr #19

00002bd8 <l2680>:
    2bd8:	e017a006 	ands	sl, r7, r6

00002bdc <l2681>:
    2bdc:	e071c007 	rsbs	ip, r1, r7

00002be0 <l2682>:
    2be0:	8003206e 	andhi	r2, r3, lr, rrx

00002be4 <l2683>:
    2be4:	e08fe008 	add	lr, pc, r8

00002be8 <l2684>:
    2be8:	e01fa006 	ands	sl, pc, r6

00002bec <l2685>:
    2bec:	c0575000 	subsgt	r5, r7, r0

00002bf0 <l2686>:
    2bf0:	e0854003 	add	r4, r5, r3

00002bf4 <l2687>:
    2bf4:	e1d2800a 	bics	r8, r2, sl

00002bf8 <l2688>:
    2bf8:	e054b609 	subs	fp, r4, r9, lsl #12

00002bfc <l2689>:
    2bfc:	e16f7f1e 	clz	r7, lr

00002c00 <l2690>:
    2c00:	e1ce8815 	bic	r8, lr, r5, lsl r8

00002c04 <l2691>:
    2c04:	e24ec723 	sub	ip, lr, #9175040	; 0x8c0000

00002c08 <l2692>:
    2c08:	10a35aa9 	adcne	r5, r3, r9, lsr #21

00002c0c <l2693>:
    2c0c:	e1760002 	cmn	r6, r2

00002c10 <l2694>:
    2c10:	7031100a 	eorsvc	r1, r1, sl

00002c14 <l2695>:
    2c14:	a3880008 	orrge	r0, r8, #8

00002c18 <l2696>:
    2c18:	5043637e 	subpl	r6, r3, lr, ror r3

00002c1c <l2697>:
    2c1c:	0a000005 	beq	2c38 <l2704>

00002c20 <l2698>:
    2c20:	e113000f 	tst	r3, pc

00002c24 <l2699>:
    2c24:	c1120061 	tstgt	r2, r1, rrx

00002c28 <l2700>:
    2c28:	e0d8806e 	sbcs	r8, r8, lr, rrx

00002c2c <l2701>:
    2c2c:	e2dea065 	sbcs	sl, lr, #101	; 0x65

00002c30 <l2702>:
    2c30:	a0059b43 	andge	r9, r5, r3, asr #22

00002c34 <l2703>:
    2c34:	3192e371 	orrscc	lr, r2, r1, ror r3

00002c38 <l2704>:
    2c38:	a020c71b 	eorge	ip, r0, fp, lsl r7

00002c3c <l2705>:
    2c3c:	e050506f 	subs	r5, r0, pc, rrx

00002c40 <l2706>:
    2c40:	618f03c0 	orrvs	r0, pc, r0, asr #7

00002c44 <l2707>:
    2c44:	d0160004 	andsle	r0, r6, r4

00002c48 <l2708>:
    2c48:	411e000e 	tstmi	lr, lr

00002c4c <l2709>:
    2c4c:	c187ebca 	orrgt	lr, r7, sl, asr #23

00002c50 <l2710>:
    2c50:	e48de00c 	str	lr, [sp], #12

00002c54 <l2711>:
    2c54:	e15106c9 	cmp	r1, r9, asr #13

00002c58 <l2712>:
    2c58:	a3a02e9e 	movge	r2, #2528	; 0x9e0

00002c5c <l2713>:
    2c5c:	81500007 	cmphi	r0, r7

00002c60 <l2714>:
    2c60:	e1909335 	orrs	r9, r0, r5, lsr r3

00002c64 <l2715>:
    2c64:	e0f9a0e3 	rscs	sl, r9, r3, ror #1

00002c68 <l2716>:
    2c68:	72841a6f 	addvc	r1, r4, #454656	; 0x6f000

00002c6c <l2717>:
    2c6c:	e02a9833 	eor	r9, sl, r3, lsr r8

00002c70 <l2718>:
    2c70:	216fbf19 	clzcs	fp, r9

00002c74 <l2719>:
    2c74:	a1f0c572 	mvnsge	ip, r2, ror r5

00002c78 <l2720>:
    2c78:	ea000003 	b	2c8c <l2725>

00002c7c <l2721>:
    2c7c:	22a5c0f2 	adccs	ip, r5, #242	; 0xf2

00002c80 <l2722>:
    2c80:	c19c6069 	orrsgt	r6, ip, r9, rrx

00002c84 <l2723>:
    2c84:	e0a80e19 	adc	r0, r8, r9, lsl lr

00002c88 <l2724>:
    2c88:	e16f8f1a 	clz	r8, sl

00002c8c <l2725>:
    2c8c:	e291119a 	adds	r1, r1, #-2147483610	; 0x80000026

00002c90 <l2726>:
    2c90:	e1720000 	cmn	r2, r0

00002c94 <l2727>:
    2c94:	e1f0300a 	mvns	r3, sl

00002c98 <l2728>:
    2c98:	e061b419 	rsb	fp, r1, r9, lsl r4

00002c9c <l2729>:
    2c9c:	20f09007 	rscscs	r9, r0, r7

00002ca0 <l2730>:
    2ca0:	9a000005 	bls	2cbc <l2737>

00002ca4 <l2731>:
    2ca4:	716f8f1c 	clzvc	r8, ip

00002ca8 <l2732>:
    2ca8:	13877e2d 	orrne	r7, r7, #720	; 0x2d0

00002cac <l2733>:
    2cac:	0335050d 	teqeq	r5, #54525952	; 0x3400000

00002cb0 <l2734>:
    2cb0:	e253bcea 	subs	fp, r3, #59904	; 0xea00

00002cb4 <l2735>:
    2cb4:	e16f6f17 	clz	r6, r7

00002cb8 <l2736>:
    2cb8:	b1e0c685 	mvnlt	ip, r5, lsl #13

00002cbc <l2737>:
    2cbc:	e3f026d9 	mvns	r2, #227540992	; 0xd900000

00002cc0 <l2738>:
    2cc0:	eaffffff 	b	2cc4 <l2739>

00002cc4 <l2739>:
    2cc4:	c0353740 	eorsgt	r3, r5, r0, asr #14

00002cc8 <l2740>:
    2cc8:	e3a07010 	mov	r7, #16

00002ccc <l2741>:
    2ccc:	e73d0007 	ldr	r0, [sp, -r7]!

00002cd0 <l2742>:
    2cd0:	60d58004 	sbcsvs	r8, r5, r4

00002cd4 <l2743>:
    2cd4:	50536001 	subspl	r6, r3, r1

00002cd8 <l2744>:
    2cd8:	e1710003 	cmn	r1, r3

00002cdc <l2745>:
    2cdc:	e0cc6063 	sbc	r6, ip, r3, rrx

00002ce0 <l2746>:
    2ce0:	a0411003 	subge	r1, r1, r3

00002ce4 <l2747>:
    2ce4:	21d9b68b 	bicscs	fp, r9, fp, lsl #13

00002ce8 <l2748>:
    2ce8:	ea000007 	b	2d0c <l2757>

00002cec <l2749>:
    2cec:	e28010a9 	add	r1, r0, #169	; 0xa9

00002cf0 <l2750>:
    2cf0:	71a066c6 	asrvc	r6, r6, #13

00002cf4 <l2751>:
    2cf4:	d1e08b3c 	mvnle	r8, ip, lsr fp

00002cf8 <l2752>:
    2cf8:	c1570007 	cmpgt	r7, r7

00002cfc <l2753>:
    2cfc:	e031c00c 	eors	ip, r1, ip

00002d00 <l2754>:
    2d00:	d1150505 	tstle	r5, r5, lsl #10

00002d04 <l2755>:
    2d04:	519fcde2 	orrspl	ip, pc, r2, ror #27

00002d08 <l2756>:
    2d08:	ea000000 	b	2d10 <l2758>

00002d0c <l2757>:
    2d0c:	eafffff7 	b	2cf0 <l2750>

00002d10 <l2758>:
    2d10:	e16f9f1a 	clz	r9, sl

00002d14 <l2759>:
    2d14:	e16f3f15 	clz	r3, r5

00002d18 <l2760>:
    2d18:	e5bdc008 	ldr	ip, [sp, #8]!

00002d1c <l2761>:
    2d1c:	e1e04131 	mvn	r4, r1, lsr r1

00002d20 <l2762>:
    2d20:	e1760067 	cmn	r6, r7, rrx

00002d24 <l2763>:
    2d24:	52437c31 	subpl	r7, r3, #12544	; 0x3100

00002d28 <l2764>:
    2d28:	3001a06e 	andcc	sl, r1, lr, rrx

00002d2c <l2765>:
    2d2c:	e0d33477 	sbcs	r3, r3, r7, ror r4

00002d30 <l2766>:
    2d30:	e2465509 	sub	r5, r6, #37748736	; 0x2400000

00002d34 <l2767>:
    2d34:	80797001 	rsbshi	r7, r9, r1

00002d38 <l2768>:
    2d38:	3affffff 	bcc	2d3c <l2769>

00002d3c <l2769>:
    2d3c:	e03e9dec 	eors	r9, lr, ip, ror #27

00002d40 <l2770>:
    2d40:	350d2004 	strcc	r2, [sp, #-4]

00002d44 <l2771>:
    2d44:	d17b0889 	cmnle	fp, r9, lsl #17

00002d48 <l2772>:
    2d48:	00339005 	eorseq	r9, r3, r5

00002d4c <l2773>:
    2d4c:	e1d0c318 	bics	ip, r0, r8, lsl r3

00002d50 <l2774>:
    2d50:	e1140e86 	tst	r4, r6, lsl #29

00002d54 <l2775>:
    2d54:	e0eab850 	rsc	fp, sl, r0, asr r8

00002d58 <l2776>:
    2d58:	e2116455 	ands	r6, r1, #1426063360	; 0x55000000

00002d5c <l2777>:
    2d5c:	21b0a00b 	movscs	sl, fp

00002d60 <l2778>:
    2d60:	1a000003 	bne	2d74 <l2783>

00002d64 <l2779>:
    2d64:	6296ce15 	addsvs	ip, r6, #336	; 0x150

00002d68 <l2780>:
    2d68:	60cb300c 	sbcvs	r3, fp, ip

00002d6c <l2781>:
    2d6c:	c01ec00b 	andsgt	ip, lr, fp

00002d70 <l2782>:
    2d70:	e0635068 	rsb	r5, r3, r8, rrx

00002d74 <l2783>:
    2d74:	e37209b6 	cmn	r2, #2981888	; 0x2d8000

00002d78 <l2784>:
    2d78:	71110002 	tstvc	r1, r2

00002d7c <l2785>:
    2d7c:	e04c345e 	sub	r3, ip, lr, asr r4

00002d80 <l2786>:
    2d80:	c067a00e 	rsbgt	sl, r7, lr

00002d84 <l2787>:
    2d84:	400e9830 	andmi	r9, lr, r0, lsr r8

00002d88 <l2788>:
    2d88:	816f5f18 	clzhi	r5, r8

00002d8c <l2789>:
    2d8c:	ea000005 	b	2da8 <l2796>

00002d90 <l2790>:
    2d90:	90195b53 	andsls	r5, r9, r3, asr fp

00002d94 <l2791>:
    2d94:	e099b063 	adds	fp, r9, r3, rrx

00002d98 <l2792>:
    2d98:	e0b5b068 	adcs	fp, r5, r8, rrx

00002d9c <l2793>:
    2d9c:	b11e0dc7 	tstlt	lr, r7, asr #27

00002da0 <l2794>:
    2da0:	c08e9277 	addgt	r9, lr, r7, ror r2

00002da4 <l2795>:
    2da4:	e13a000f 	teq	sl, pc

00002da8 <l2796>:
    2da8:	e18ee730 	orr	lr, lr, r0, lsr r7

00002dac <l2797>:
    2dac:	e37707eb 	cmn	r7, #61603840	; 0x3ac0000

00002db0 <l2798>:
    2db0:	e04b1002 	sub	r1, fp, r2

00002db4 <l2799>:
    2db4:	e01f4069 	ands	r4, pc, r9, rrx

00002db8 <l2800>:
    2db8:	e0888cc0 	add	r8, r8, r0, asr #25

00002dbc <l2801>:
    2dbc:	0198e06a 	orrseq	lr, r8, sl, rrx

00002dc0 <l2802>:
    2dc0:	e0c3c004 	sbc	ip, r3, r4

00002dc4 <l2803>:
    2dc4:	e05e103b 	subs	r1, lr, fp, lsr r0

00002dc8 <l2804>:
    2dc8:	e19cb003 	orrs	fp, ip, r3

00002dcc <l2805>:
    2dcc:	11160069 	tstne	r6, r9, rrx

00002dd0 <l2806>:
    2dd0:	9a000002 	bls	2de0 <l2810>

00002dd4 <l2807>:
    2dd4:	e2801089 	add	r1, r0, #137	; 0x89

00002dd8 <l2808>:
    2dd8:	73110077 	tstvc	r1, #119	; 0x77

00002ddc <l2809>:
    2ddc:	ea000000 	b	2de4 <l2811>

00002de0 <l2810>:
    2de0:	eafffffc 	b	2dd8 <l2808>

00002de4 <l2811>:
    2de4:	b04261eb 	sublt	r6, r2, fp, ror #3

00002de8 <l2812>:
    2de8:	73b08000 	movsvc	r8, #0

00002dec <l2813>:
    2dec:	e0abae50 	adc	sl, fp, r0, asr lr

00002df0 <l2814>:
    2df0:	c092cda4 	addsgt	ip, r2, r4, lsr #27

00002df4 <l2815>:
    2df4:	ea000003 	b	2e08 <l2820>

00002df8 <l2816>:
    2df8:	e28010f6 	add	r1, r0, #246	; 0xf6

00002dfc <l2817>:
    2dfc:	8088900e 	addhi	r9, r8, lr

00002e00 <l2818>:
    2e00:	e3320afb 	teq	r2, #1028096	; 0xfb000

00002e04 <l2819>:
    2e04:	ea000000 	b	2e0c <l2821>

00002e08 <l2820>:
    2e08:	eafffffb 	b	2dfc <l2817>

00002e0c <l2821>:
    2e0c:	e3966fbe 	orrs	r6, r6, #760	; 0x2f8

00002e10 <l2822>:
    2e10:	e13c0009 	teq	ip, r9

00002e14 <l2823>:
    2e14:	b1550007 	cmplt	r5, r7

00002e18 <l2824>:
    2e18:	63f08c0d 	mvnsvs	r8, #3328	; 0xd00

00002e1c <l2825>:
    2e1c:	e2111b06 	ands	r1, r1, #6144	; 0x1800

00002e20 <l2826>:
    2e20:	12af77a1 	adcne	r7, pc, #42205184	; 0x2840000

00002e24 <l2827>:
    2e24:	e209739a 	and	r7, r9, #1744830466	; 0x68000002

00002e28 <l2828>:
    2e28:	51f09d6a 	mvnspl	r9, sl, ror #26

00002e2c <l2829>:
    2e2c:	d33f0060 	teqle	pc, #96	; 0x60

00002e30 <l2830>:
    2e30:	ba000007 	blt	2e54 <l2839>

00002e34 <l2831>:
    2e34:	e2801020 	add	r1, r0, #32

00002e38 <l2832>:
    2e38:	e1d4400a 	bics	r4, r4, sl

00002e3c <l2833>:
    2e3c:	e1c64003 	bic	r4, r6, r3

00002e40 <l2834>:
    2e40:	d1a01ca5 	lsrle	r1, r5, #25

00002e44 <l2835>:
    2e44:	e04b800b 	sub	r8, fp, fp

00002e48 <l2836>:
    2e48:	e245c08f 	sub	ip, r5, #143	; 0x8f

00002e4c <l2837>:
    2e4c:	01a05000 	moveq	r5, r0

00002e50 <l2838>:
    2e50:	ea000000 	b	2e58 <l2840>

00002e54 <l2839>:
    2e54:	eafffff7 	b	2e38 <l2832>

00002e58 <l2840>:
    2e58:	e09b0aef 	adds	r0, fp, pc, ror #21

00002e5c <l2841>:
    2e5c:	318e2347 	orrcc	r2, lr, r7, asr #6

00002e60 <l2842>:
    2e60:	03db91be 	bicseq	r9, fp, #-2147483601	; 0x8000002f

00002e64 <l2843>:
    2e64:	81d66b58 	bicshi	r6, r6, r8, asr fp

00002e68 <l2844>:
    2e68:	d1a07001 	movle	r7, r1

00002e6c <l2845>:
    2e6c:	e08c2d8f 	add	r2, ip, pc, lsl #27

00002e70 <l2846>:
    2e70:	51f0bf25 	mvnspl	fp, r5, lsr #30

00002e74 <l2847>:
    2e74:	4094700f 	addsmi	r7, r4, pc

00002e78 <l2848>:
    2e78:	70bb461c 	adcsvc	r4, fp, ip, lsl r6

00002e7c <l2849>:
    2e7c:	a3190c43 	tstge	r9, #17152	; 0x4300

00002e80 <l2850>:
    2e80:	e1b08bee 	rors	r8, lr, #23

00002e84 <l2851>:
    2e84:	e1760a75 	cmn	r6, r5, ror sl

00002e88 <l2852>:
    2e88:	ea000004 	b	2ea0 <l2858>

00002e8c <l2853>:
    2e8c:	e2801033 	add	r1, r0, #51	; 0x33

00002e90 <l2854>:
    2e90:	a16faf11 	clzge	sl, r1

00002e94 <l2855>:
    2e94:	d3360a45 	teqle	r6, #282624	; 0x45000

00002e98 <l2856>:
    2e98:	30e0068b 	rsccc	r0, r0, fp, lsl #13

00002e9c <l2857>:
    2e9c:	ea000000 	b	2ea4 <l2859>

00002ea0 <l2858>:
    2ea0:	eafffffa 	b	2e90 <l2854>

00002ea4 <l2859>:
    2ea4:	208bbc80 	addcs	fp, fp, r0, lsl #25

00002ea8 <l2860>:
    2ea8:	616f2f1a 	clzvs	r2, sl

00002eac <l2861>:
    2eac:	e1d10007 	bics	r0, r1, r7

00002eb0 <l2862>:
    2eb0:	e042100e 	sub	r1, r2, lr

00002eb4 <l2863>:
    2eb4:	e1d42772 	bics	r2, r4, r2, ror r7

00002eb8 <l2864>:
    2eb8:	ea000002 	b	2ec8 <l2868>

00002ebc <l2865>:
    2ebc:	23580b25 	cmpcs	r8, #37888	; 0x9400

00002ec0 <l2866>:
    2ec0:	a05c106a 	subsge	r1, ip, sl, rrx

00002ec4 <l2867>:
    2ec4:	437c093b 	cmnmi	ip, #966656	; 0xec000

00002ec8 <l2868>:
    2ec8:	61e06187 	mvnvs	r6, r7, lsl #3

00002ecc <l2869>:
    2ecc:	e1c5b912 	bic	fp, r5, r2, lsl r9

00002ed0 <l2870>:
    2ed0:	70438060 	subvc	r8, r3, r0, rrx

00002ed4 <l2871>:
    2ed4:	617e000b 	cmnvs	lr, fp

00002ed8 <l2872>:
    2ed8:	e0975a7b 	adds	r5, r7, fp, ror sl

00002edc <l2873>:
    2edc:	60f84004 	rscsvs	r4, r8, r4

00002ee0 <l2874>:
    2ee0:	c397091d 	orrsgt	r0, r7, #475136	; 0x74000

00002ee4 <l2875>:
    2ee4:	c0a12060 	adcgt	r2, r1, r0, rrx

00002ee8 <l2876>:
    2ee8:	42d9b8d3 	sbcsmi	fp, r9, #13828096	; 0xd30000

00002eec <l2877>:
    2eec:	6a000005 	bvs	2f08 <l2884>

00002ef0 <l2878>:
    2ef0:	e280101f 	add	r1, r0, #31

00002ef4 <l2879>:
    2ef4:	e2426c32 	sub	r6, r2, #12800	; 0x3200

00002ef8 <l2880>:
    2ef8:	e2535209 	subs	r5, r3, #-1879048192	; 0x90000000

00002efc <l2881>:
    2efc:	21a0871c 	lslcs	r8, ip, r7

00002f00 <l2882>:
    2f00:	e15c025b 	cmp	ip, fp, asr r2

00002f04 <l2883>:
    2f04:	ea000000 	b	2f0c <l2885>

00002f08 <l2884>:
    2f08:	eafffff9 	b	2ef4 <l2879>

00002f0c <l2885>:
    2f0c:	d0cb2009 	sbcle	r2, fp, r9

00002f10 <l2886>:
    2f10:	c039406c 	eorsgt	r4, r9, ip, rrx

00002f14 <l2887>:
    2f14:	2a000006 	bcs	2f34 <l2895>

00002f18 <l2888>:
    2f18:	e280105f 	add	r1, r0, #95	; 0x5f

00002f1c <l2889>:
    2f1c:	315e0c4e 	cmpcc	lr, lr, asr #24

00002f20 <l2890>:
    2f20:	d1815163 	orrle	r5, r1, r3, ror #2

00002f24 <l2891>:
    2f24:	113f006e 	teqne	pc, lr, rrx

00002f28 <l2892>:
    2f28:	e37605da 	cmn	r6, #914358272	; 0x36800000

00002f2c <l2893>:
    2f2c:	5216ca53 	andspl	ip, r6, #339968	; 0x53000

00002f30 <l2894>:
    2f30:	ea000000 	b	2f38 <l2896>

00002f34 <l2895>:
    2f34:	eafffff8 	b	2f1c <l2889>

00002f38 <l2896>:
    2f38:	9a000005 	bls	2f54 <l2903>

00002f3c <l2897>:
    2f3c:	e28010a4 	add	r1, r0, #164	; 0xa4

00002f40 <l2898>:
    2f40:	e3d15f91 	bics	r5, r1, #580	; 0x244

00002f44 <l2899>:
    2f44:	2297b717 	addscs	fp, r7, #6029312	; 0x5c0000

00002f48 <l2900>:
    2f48:	8335040f 	teqhi	r5, #251658240	; 0xf000000

00002f4c <l2901>:
    2f4c:	e38a3c65 	orr	r3, sl, #25856	; 0x6500

00002f50 <l2902>:
    2f50:	ea000000 	b	2f58 <l2904>

00002f54 <l2903>:
    2f54:	eafffff9 	b	2f40 <l2898>

00002f58 <l2904>:
    2f58:	ea000001 	b	2f64 <l2907>

00002f5c <l2905>:
    2f5c:	e02a3005 	eor	r3, sl, r5

00002f60 <l2906>:
    2f60:	e3330455 	teq	r3, #1426063360	; 0x55000000

00002f64 <l2907>:
    2f64:	b1f03a05 	mvnslt	r3, r5, lsl #20

00002f68 <l2908>:
    2f68:	809ab552 	addshi	fp, sl, r2, asr r5

00002f6c <l2909>:
    2f6c:	e3a0e014 	mov	lr, #20

00002f70 <l2910>:
    2f70:	e7bdb00e 	ldr	fp, [sp, lr]!

00002f74 <l2911>:
    2f74:	704b9006 	subvc	r9, fp, r6

00002f78 <l2912>:
    2f78:	03b03c29 	movseq	r3, #10496	; 0x2900

00002f7c <l2913>:
    2f7c:	da000006 	ble	2f9c <l2921>

00002f80 <l2914>:
    2f80:	e280107a 	add	r1, r0, #122	; 0x7a

00002f84 <l2915>:
    2f84:	a27687e3 	rsbsge	r8, r6, #59506688	; 0x38c0000

00002f88 <l2916>:
    2f88:	619361c2 	orrsvs	r6, r3, r2, asr #3

00002f8c <l2917>:
    2f8c:	81180001 	tsthi	r8, r1

00002f90 <l2918>:
    2f90:	815e0240 	cmphi	lr, r0, asr #4

00002f94 <l2919>:
    2f94:	e0d19008 	sbcs	r9, r1, r8

00002f98 <l2920>:
    2f98:	ea000000 	b	2fa0 <l2922>

00002f9c <l2921>:
    2f9c:	eafffff8 	b	2f84 <l2915>

00002fa0 <l2922>:
    2fa0:	c218ed1f 	andsgt	lr, r8, #1984	; 0x7c0

00002fa4 <l2923>:
    2fa4:	e188b00f 	orr	fp, r8, pc

00002fa8 <l2924>:
    2fa8:	e0fa0063 	rscs	r0, sl, r3, rrx

00002fac <l2925>:
    2fac:	7a000003 	bvc	2fc0 <l2930>

00002fb0 <l2926>:
    2fb0:	e0866002 	add	r6, r6, r2

00002fb4 <l2927>:
    2fb4:	e174000f 	cmn	r4, pc

00002fb8 <l2928>:
    2fb8:	a2f58e11 	rscsge	r8, r5, #272	; 0x110

00002fbc <l2929>:
    2fbc:	e13f0f81 	teq	pc, r1, lsl #31

00002fc0 <l2930>:
    2fc0:	500e2f61 	andpl	r2, lr, r1, ror #30

00002fc4 <l2931>:
    2fc4:	d11a0557 	tstle	sl, r7, asr r5

00002fc8 <l2932>:
    2fc8:	e3a05014 	mov	r5, #20

00002fcc <l2933>:
    2fcc:	e60da005 	str	sl, [sp], -r5

00002fd0 <l2934>:
    2fd0:	43900be2 	orrsmi	r0, r0, #231424	; 0x38800

00002fd4 <l2935>:
    2fd4:	0a000008 	beq	2ffc <l2945>

00002fd8 <l2936>:
    2fd8:	e33504d5 	teq	r5, #-721420288	; 0xd5000000

00002fdc <l2937>:
    2fdc:	e35f0ea6 	cmp	pc, #2656	; 0xa60

00002fe0 <l2938>:
    2fe0:	e02ba34c 	eor	sl, fp, ip, asr #6

00002fe4 <l2939>:
    2fe4:	d1300063 	teqle	r0, r3, rrx

00002fe8 <l2940>:
    2fe8:	e16fef18 	clz	lr, r8

00002fec <l2941>:
    2fec:	e11c0513 	tst	ip, r3, lsl r5

00002ff0 <l2942>:
    2ff0:	e26f8d1a 	rsb	r8, pc, #1664	; 0x680

00002ff4 <l2943>:
    2ff4:	c03cac02 	eorsgt	sl, ip, r2, lsl #24

00002ff8 <l2944>:
    2ff8:	e1e03005 	mvn	r3, r5

00002ffc <l2945>:
    2ffc:	d05f1cca 	subsle	r1, pc, sl, asr #25

00003000 <l2946>:
    3000:	8085e673 	addhi	lr, r5, r3, ror r6

00003004 <l2947>:
    3004:	ea000005 	b	3020 <l2954>

00003008 <l2948>:
    3008:	e31a0232 	tst	sl, #536870915	; 0x20000003

0000300c <l2949>:
    300c:	62f8663b 	rscsvs	r6, r8, #61865984	; 0x3b00000

00003010 <l2950>:
    3010:	d278879e 	rsbsle	r8, r8, #41418752	; 0x2780000

00003014 <l2951>:
    3014:	c1370006 	teqgt	r7, r6

00003018 <l2952>:
    3018:	e1f042ce 	mvns	r4, lr, asr #5

0000301c <l2953>:
    301c:	e189900f 	orr	r9, r9, pc

00003020 <l2954>:
    3020:	21320911 	teqcs	r2, r1, lsl r9

00003024 <l2955>:
    3024:	e03e800e 	eors	r8, lr, lr

00003028 <l2956>:
    3028:	10670004 	rsbne	r0, r7, r4

0000302c <l2957>:
    302c:	e35704ea 	cmp	r7, #-369098752	; 0xea000000

00003030 <l2958>:
    3030:	e157000f 	cmp	r7, pc

00003034 <l2959>:
    3034:	105182a0 	subsne	r8, r1, r0, lsr #5

00003038 <l2960>:
    3038:	e1b06005 	movs	r6, r5

0000303c <l2961>:
    303c:	e09b8003 	adds	r8, fp, r3

00003040 <l2962>:
    3040:	e0119270 	ands	r9, r1, r0, ror r2

00003044 <l2963>:
    3044:	e1160007 	tst	r6, r7

00003048 <l2964>:
    3048:	10679008 	rsbne	r9, r7, r8

0000304c <l2965>:
    304c:	e17506aa 	cmn	r5, sl, lsr #13

00003050 <l2966>:
    3050:	3a000000 	bcc	3058 <l2968>

00003054 <l2967>:
    3054:	10454a47 	subne	r4, r5, r7, asr #20

00003058 <l2968>:
    3058:	e17a0007 	cmn	sl, r7

0000305c <l2969>:
    305c:	61e04167 	mvnvs	r4, r7, ror #2

00003060 <l2970>:
    3060:	41100064 	tstmi	r0, r4, rrx

00003064 <l2971>:
    3064:	ea000006 	b	3084 <l2979>

00003068 <l2972>:
    3068:	e28010f4 	add	r1, r0, #244	; 0xf4

0000306c <l2973>:
    306c:	828350b7 	addhi	r5, r3, #183	; 0xb7

00003070 <l2974>:
    3070:	e1790a70 	cmn	r9, r0, ror sl

00003074 <l2975>:
    3074:	d04e7003 	suble	r7, lr, r3

00003078 <l2976>:
    3078:	e0596284 	subs	r6, r9, r4, lsl #5

0000307c <l2977>:
    307c:	52933d9a 	addspl	r3, r3, #9856	; 0x2680

00003080 <l2978>:
    3080:	ea000000 	b	3088 <l2980>

00003084 <l2979>:
    3084:	eafffff8 	b	306c <l2973>

00003088 <l2980>:
    3088:	713a0c39 	teqvc	sl, r9, lsr ip

0000308c <l2981>:
    308c:	02cc9507 	sbceq	r9, ip, #29360128	; 0x1c00000

00003090 <l2982>:
    3090:	e2957a2d 	adds	r7, r5, #184320	; 0x2d000

00003094 <l2983>:
    3094:	81560001 	cmphi	r6, r1

00003098 <l2984>:
    3098:	c3150c2f 	tstgt	r5, #12032	; 0x2f00

0000309c <l2985>:
    309c:	e5ade00c 	str	lr, [sp, #12]!

000030a0 <l2986>:
    30a0:	ea000005 	b	30bc <l2993>

000030a4 <l2987>:
    30a4:	e280100c 	add	r1, r0, #12

000030a8 <l2988>:
    30a8:	c2c47519 	sbcgt	r7, r4, #104857600	; 0x6400000

000030ac <l2989>:
    30ac:	a0008089 	andge	r8, r0, r9, lsl #1

000030b0 <l2990>:
    30b0:	b2ab8a16 	adclt	r8, fp, #90112	; 0x16000

000030b4 <l2991>:
    30b4:	e16f2f17 	clz	r2, r7

000030b8 <l2992>:
    30b8:	ea000000 	b	30c0 <l2994>

000030bc <l2993>:
    30bc:	eafffff9 	b	30a8 <l2988>

000030c0 <l2994>:
    30c0:	e067983b 	rsb	r9, r7, fp, lsr r8

000030c4 <l2995>:
    30c4:	e0292824 	eor	r2, r9, r4, lsr #16

000030c8 <l2996>:
    30c8:	60d6e068 	sbcsvs	lr, r6, r8, rrx

000030cc <l2997>:
    30cc:	ea000006 	b	30ec <l3005>

000030d0 <l2998>:
    30d0:	e28010fb 	add	r1, r0, #251	; 0xfb

000030d4 <l2999>:
    30d4:	d1872436 	orrle	r2, r7, r6, lsr r4

000030d8 <l3000>:
    30d8:	e1d2bd86 	bics	fp, r2, r6, lsl #27

000030dc <l3001>:
    30dc:	31510874 	cmpcc	r1, r4, ror r8

000030e0 <l3002>:
    30e0:	e07e4dea 	rsbs	r4, lr, sl, ror #27

000030e4 <l3003>:
    30e4:	e1b0851b 	lsls	r8, fp, r5

000030e8 <l3004>:
    30e8:	ea000000 	b	30f0 <l3006>

000030ec <l3005>:
    30ec:	eafffff8 	b	30d4 <l2999>

000030f0 <l3006>:
    30f0:	815a0129 	cmphi	sl, r9, lsr #2

000030f4 <l3007>:
    30f4:	ea000006 	b	3114 <l3015>

000030f8 <l3008>:
    30f8:	e2801062 	add	r1, r0, #98	; 0x62

000030fc <l3009>:
    30fc:	e3370d2f 	teq	r7, #3008	; 0xbc0

00003100 <l3010>:
    3100:	e0d33a4f 	sbcs	r3, r3, pc, asr #20

00003104 <l3011>:
    3104:	e3e02a2d 	mvn	r2, #184320	; 0x2d000

00003108 <l3012>:
    3108:	e3c828fb 	bic	r2, r8, #16449536	; 0xfb0000

0000310c <l3013>:
    310c:	e0923373 	adds	r3, r2, r3, ror r3

00003110 <l3014>:
    3110:	ea000000 	b	3118 <l3016>

00003114 <l3015>:
    3114:	eafffff8 	b	30fc <l3009>

00003118 <l3016>:
    3118:	e0938b54 	adds	r8, r3, r4, asr fp

0000311c <l3017>:
    311c:	e0508071 	subs	r8, r0, r1, ror r0

00003120 <l3018>:
    3120:	c03ac070 	eorsgt	ip, sl, r0, ror r0

00003124 <l3019>:
    3124:	ea000004 	b	313c <l3025>

00003128 <l3020>:
    3128:	e2801079 	add	r1, r0, #121	; 0x79

0000312c <l3021>:
    312c:	803a3924 	eorshi	r3, sl, r4, lsr #18

00003130 <l3022>:
    3130:	225b8ea5 	subscs	r8, fp, #2640	; 0xa50

00003134 <l3023>:
    3134:	11b04346 	asrsne	r4, r6, #6

00003138 <l3024>:
    3138:	ea000000 	b	3140 <l3026>

0000313c <l3025>:
    313c:	eafffffa 	b	312c <l3021>

00003140 <l3026>:
    3140:	e1130ca9 	tst	r3, r9, lsr #25

00003144 <l3027>:
    3144:	e0f3100b 	rscs	r1, r3, fp

00003148 <l3028>:
    3148:	7238b23f 	eorsvc	fp, r8, #-268435453	; 0xf0000003

0000314c <l3029>:
    314c:	21350c73 	teqcs	r5, r3, ror ip

00003150 <l3030>:
    3150:	e1550158 	cmp	r5, r8, asr r1

00003154 <l3031>:
    3154:	ca000002 	bgt	3164 <l3035>

00003158 <l3032>:
    3158:	e2801079 	add	r1, r0, #121	; 0x79

0000315c <l3033>:
    315c:	e15b0fc7 	cmp	fp, r7, asr #31

00003160 <l3034>:
    3160:	ea000000 	b	3168 <l3036>

00003164 <l3035>:
    3164:	eafffffc 	b	315c <l3033>

00003168 <l3036>:
    3168:	e04f4d8b 	sub	r4, pc, fp, lsl #27

0000316c <l3037>:
    316c:	c1a0706e 	rrxgt	r7, lr

00003170 <l3038>:
    3170:	e200930b 	and	r9, r0, #738197504	; 0x2c000000

00003174 <l3039>:
    3174:	ea000002 	b	3184 <l3043>

00003178 <l3040>:
    3178:	e2dcaef1 	sbcs	sl, ip, #3856	; 0xf10

0000317c <l3041>:
    317c:	904c4c5b 	subls	r4, ip, fp, asr ip

00003180 <l3042>:
    3180:	7192100b 	orrsvc	r1, r2, fp

00003184 <l3043>:
    3184:	e16f2f19 	clz	r2, r9

00003188 <l3044>:
    3188:	d182223c 	orrle	r2, r2, ip, lsr r2

0000318c <l3045>:
    318c:	833f0592 	teqhi	pc, #612368384	; 0x24800000

00003190 <l3046>:
    3190:	e041b00a 	sub	fp, r1, sl

00003194 <l3047>:
    3194:	521e0016 	andspl	r0, lr, #22

00003198 <l3048>:
    3198:	405c7008 	subsmi	r7, ip, r8

0000319c <l3049>:
    319c:	9226c6dd 	eorls	ip, r6, #231735296	; 0xdd00000

000031a0 <l3050>:
    31a0:	e176096e 	cmn	r6, lr, ror #18

000031a4 <l3051>:
    31a4:	52796a05 	rsbspl	r6, r9, #20480	; 0x5000

000031a8 <l3052>:
    31a8:	e2b4c20b 	adcs	ip, r4, #-1342177280	; 0xb0000000

000031ac <l3053>:
    31ac:	e3a06008 	mov	r6, #8

000031b0 <l3054>:
    31b0:	e71d3006 	ldr	r3, [sp, -r6]

000031b4 <l3055>:
    31b4:	e0154f43 	ands	r4, r5, r3, asr #30

000031b8 <l3056>:
    31b8:	e1a0e718 	lsl	lr, r8, r7

000031bc <l3057>:
    31bc:	8199a06e 	orrshi	sl, r9, lr, rrx

000031c0 <l3058>:
    31c0:	00ba9f60 	adcseq	r9, sl, r0, ror #30

000031c4 <l3059>:
    31c4:	eaffffff 	b	31c8 <l3060>

000031c8 <l3060>:
    31c8:	b045773a 	sublt	r7, r5, sl, lsr r7

000031cc <l3061>:
    31cc:	70fc9838 	rscsvc	r9, ip, r8, lsr r8

000031d0 <l3062>:
    31d0:	e16fef19 	clz	lr, r9

000031d4 <l3063>:
    31d4:	60f46757 	rscsvs	r6, r4, r7, asr r7

000031d8 <l3064>:
    31d8:	e032b837 	eors	fp, r2, r7, lsr r8

000031dc <l3065>:
    31dc:	a37c0aa6 	cmnge	ip, #679936	; 0xa6000

000031e0 <l3066>:
    31e0:	d0939f83 	addsle	r9, r3, r3, lsl #31

000031e4 <l3067>:
    31e4:	e0277008 	eor	r7, r7, r8

000031e8 <l3068>:
    31e8:	20f8a617 	rscscs	sl, r8, r7, lsl r6

000031ec <l3069>:
    31ec:	3a000004 	bcc	3204 <l3075>

000031f0 <l3070>:
    31f0:	e280104f 	add	r1, r0, #79	; 0x4f

000031f4 <l3071>:
    31f4:	e192a251 	orrs	sl, r2, r1, asr r2

000031f8 <l3072>:
    31f8:	e2a937a7 	adc	r3, r9, #43778048	; 0x29c0000

000031fc <l3073>:
    31fc:	33790038 	cmncc	r9, #56	; 0x38

00003200 <l3074>:
    3200:	ea000000 	b	3208 <l3076>

00003204 <l3075>:
    3204:	eafffffa 	b	31f4 <l3071>

00003208 <l3076>:
    3208:	e0f5ede6 	rscs	lr, r5, r6, ror #27

0000320c <l3077>:
    320c:	e2e04c2f 	rsc	r4, r0, #12032	; 0x2f00

00003210 <l3078>:
    3210:	c0005006 	andgt	r5, r0, r6

00003214 <l3079>:
    3214:	e0fe6139 	rscs	r6, lr, r9, lsr r1

00003218 <l3080>:
    3218:	e357043d 	cmp	r7, #1023410176	; 0x3d000000

0000321c <l3081>:
    321c:	e02b2000 	eor	r2, fp, r0

00003220 <l3082>:
    3220:	e0d62dc1 	sbcs	r2, r6, r1, asr #27

00003224 <l3083>:
    3224:	c2b5ad3a 	adcsgt	sl, r5, #3712	; 0xe80

00003228 <l3084>:
    3228:	c25958ae 	subsgt	r5, r9, #11403264	; 0xae0000

0000322c <l3085>:
    322c:	e5bd2020 	ldr	r2, [sp, #32]!

00003230 <l3086>:
    3230:	5a000001 	bpl	323c <l3089>

00003234 <l3087>:
    3234:	e16f7f1a 	clz	r7, sl

00003238 <l3088>:
    3238:	e2fb892b 	rscs	r8, fp, #704512	; 0xac000

0000323c <l3089>:
    323c:	e0f87061 	rscs	r7, r8, r1, rrx

00003240 <l3090>:
    3240:	b2af050a 	adclt	r0, pc, #41943040	; 0x2800000

00003244 <l3091>:
    3244:	e0b64a32 	adcs	r4, r6, r2, lsr sl

00003248 <l3092>:
    3248:	e1a0c4ec 	ror	ip, ip, #9

0000324c <l3093>:
    324c:	625e421a 	subsvs	r4, lr, #-1610612735	; 0xa0000001

00003250 <l3094>:
    3250:	e1150008 	tst	r5, r8

00003254 <l3095>:
    3254:	b0262b34 	eorlt	r2, r6, r4, lsr fp

00003258 <l3096>:
    3258:	30130089 	andscc	r0, r3, r9, lsl #1

0000325c <l3097>:
    325c:	e07888a8 	rsbs	r8, r8, r8, lsr #17

00003260 <l3098>:
    3260:	e293273d 	adds	r2, r3, #15990784	; 0xf40000

00003264 <l3099>:
    3264:	602c6114 	eorvs	r6, ip, r4, lsl r1

00003268 <l3100>:
    3268:	e1d8e48a 	bics	lr, r8, sl, lsl #9

0000326c <l3101>:
    326c:	3a000002 	bcc	327c <l3105>

00003270 <l3102>:
    3270:	e28010f7 	add	r1, r0, #247	; 0xf7

00003274 <l3103>:
    3274:	e15e0006 	cmp	lr, r6

00003278 <l3104>:
    3278:	ea000000 	b	3280 <l3106>

0000327c <l3105>:
    327c:	eafffffc 	b	3274 <l3103>

00003280 <l3106>:
    3280:	e1120005 	tst	r2, r5

00003284 <l3107>:
    3284:	7066a00e 	rsbvc	sl, r6, lr

00003288 <l3108>:
    3288:	e1d41e74 	bics	r1, r4, r4, ror lr

0000328c <l3109>:
    328c:	e3180965 	tst	r8, #1654784	; 0x194000

00003290 <l3110>:
    3290:	016f8f14 	clzeq	r8, r4

00003294 <l3111>:
    3294:	e0cbb240 	sbc	fp, fp, r0, asr #4

00003298 <l3112>:
    3298:	43560b86 	cmpmi	r6, #137216	; 0x21800

0000329c <l3113>:
    329c:	c0ef194a 	rscgt	r1, pc, sl, asr #18

000032a0 <l3114>:
    32a0:	d0911069 	addsle	r1, r1, r9, rrx

000032a4 <l3115>:
    32a4:	d1720005 	cmnle	r2, r5

000032a8 <l3116>:
    32a8:	13a0431a 	movne	r4, #1744830464	; 0x68000000

000032ac <l3117>:
    32ac:	e0161005 	ands	r1, r6, r5

000032b0 <l3118>:
    32b0:	e23a6b2b 	eors	r6, sl, #44032	; 0xac00

000032b4 <l3119>:
    32b4:	e0713751 	rsbs	r3, r1, r1, asr r7

000032b8 <l3120>:
    32b8:	51160837 	tstpl	r6, r7, lsr r8

000032bc <l3121>:
    32bc:	a3710058 	cmnge	r1, #88	; 0x58

000032c0 <l3122>:
    32c0:	e1e00008 	mvn	r0, r8

000032c4 <l3123>:
    32c4:	13a0e9d6 	movne	lr, #3506176	; 0x358000

000032c8 <l3124>:
    32c8:	e23fe305 	eors	lr, pc, #335544320	; 0x14000000

000032cc <l3125>:
    32cc:	e1350009 	teq	r5, r9

000032d0 <l3126>:
    32d0:	e030606c 	eors	r6, r0, ip, rrx

000032d4 <l3127>:
    32d4:	80eb5e5c 	rschi	r5, fp, ip, asr lr

000032d8 <l3128>:
    32d8:	9086c068 	addls	ip, r6, r8, rrx

000032dc <l3129>:
    32dc:	3a000002 	bcc	32ec <l3133>

000032e0 <l3130>:
    32e0:	e3e0081e 	mvn	r0, #1966080	; 0x1e0000

000032e4 <l3131>:
    32e4:	e0a24001 	adc	r4, r2, r1

000032e8 <l3132>:
    32e8:	3099a00f 	addscc	sl, r9, pc

000032ec <l3133>:
    32ec:	724b82f2 	subvc	r8, fp, #536870927	; 0x2000000f

000032f0 <l3134>:
    32f0:	e1350002 	teq	r5, r2

000032f4 <l3135>:
    32f4:	e0bac00e 	adcs	ip, sl, lr

000032f8 <l3136>:
    32f8:	d1f08535 	mvnsle	r8, r5, lsr r5

000032fc <l3137>:
    32fc:	10b4100a 	adcsne	r1, r4, sl

00003300 <l3138>:
    3300:	ea000002 	b	3310 <l3142>

00003304 <l3139>:
    3304:	e280107a 	add	r1, r0, #122	; 0x7a

00003308 <l3140>:
    3308:	23f070ea 	mvnscs	r7, #234	; 0xea

0000330c <l3141>:
    330c:	ea000000 	b	3314 <l3143>

00003310 <l3142>:
    3310:	eafffffc 	b	3308 <l3140>

00003314 <l3143>:
    3314:	e33504ad 	teq	r5, #-1392508928	; 0xad000000

00003318 <l3144>:
    3318:	e04669cf 	sub	r6, r6, pc, asr #19

0000331c <l3145>:
    331c:	e1b05005 	movs	r5, r5

00003320 <l3146>:
    3320:	ea000002 	b	3330 <l3150>

00003324 <l3147>:
    3324:	e28010d8 	add	r1, r0, #216	; 0xd8

00003328 <l3148>:
    3328:	515809c0 	cmppl	r8, r0, asr #19

0000332c <l3149>:
    332c:	ea000000 	b	3334 <l3151>

00003330 <l3150>:
    3330:	eafffffc 	b	3328 <l3148>

00003334 <l3151>:
    3334:	81b033c8 	asrshi	r3, r8, #7

00003338 <l3152>:
    3338:	e0722000 	rsbs	r2, r2, r0

0000333c <l3153>:
    333c:	e1190f4b 	tst	r9, fp, asr #30

00003340 <l3154>:
    3340:	b119000c 	tstlt	r9, ip

00003344 <l3155>:
    3344:	e16f8f13 	clz	r8, r3

00003348 <l3156>:
    3348:	e0a5e006 	adc	lr, r5, r6

0000334c <l3157>:
    334c:	03340ab7 	teqeq	r4, #749568	; 0xb7000

00003350 <l3158>:
    3350:	e3a06010 	mov	r6, #16

00003354 <l3159>:
    3354:	279d5006 	ldrcs	r5, [sp, r6]

00003358 <l3160>:
    3358:	71d1c838 	bicsvc	ip, r1, r8, lsr r8

0000335c <l3161>:
    335c:	e28c321a 	add	r3, ip, #-1610612735	; 0xa0000001

00003360 <l3162>:
    3360:	211b0c18 	tstcs	fp, r8, lsl ip

00003364 <l3163>:
    3364:	53850078 	orrpl	r0, r5, #120	; 0x78

00003368 <l3164>:
    3368:	902c8a72 	eorls	r8, ip, r2, ror sl

0000336c <l3165>:
    336c:	e0246003 	eor	r6, r4, r3

00003370 <l3166>:
    3370:	aaffffff 	bge	3374 <l3167>

00003374 <l3167>:
    3374:	116f4f1c 	clzne	r4, ip

00003378 <l3168>:
    3378:	916fbf11 	clzls	fp, r1

0000337c <l3169>:
    337c:	01f080ae 	mvnseq	r8, lr, lsr #1

00003380 <l3170>:
    3380:	ea000005 	b	339c <l3177>

00003384 <l3171>:
    3384:	e280105b 	add	r1, r0, #91	; 0x5b

00003388 <l3172>:
    3388:	a09e151b 	addsge	r1, lr, fp, lsl r5

0000338c <l3173>:
    338c:	e0f39662 	rscs	r9, r3, r2, ror #12

00003390 <l3174>:
    3390:	e1760004 	cmn	r6, r4

00003394 <l3175>:
    3394:	a27b5129 	rsbsge	r5, fp, #1073741834	; 0x4000000a

00003398 <l3176>:
    3398:	ea000000 	b	33a0 <l3178>

0000339c <l3177>:
    339c:	eafffff9 	b	3388 <l3172>

000033a0 <l3178>:
    33a0:	e3c4b822 	bic	fp, r4, #2228224	; 0x220000

000033a4 <l3179>:
    33a4:	02ee4937 	rsceq	r4, lr, #901120	; 0xdc000

000033a8 <l3180>:
    33a8:	51520752 	cmppl	r2, r2, asr r7

000033ac <l3181>:
    33ac:	ea000004 	b	33c4 <l3187>

000033b0 <l3182>:
    33b0:	e2801015 	add	r1, r0, #21

000033b4 <l3183>:
    33b4:	b0f3c1a8 	rscslt	ip, r3, r8, lsr #3

000033b8 <l3184>:
    33b8:	90543809 	subsls	r3, r4, r9, lsl #16

000033bc <l3185>:
    33bc:	d080c00b 	addle	ip, r0, fp

000033c0 <l3186>:
    33c0:	ea000000 	b	33c8 <l3188>

000033c4 <l3187>:
    33c4:	eafffffa 	b	33b4 <l3183>

000033c8 <l3188>:
    33c8:	3a000005 	bcc	33e4 <l3195>

000033cc <l3189>:
    33cc:	e280105a 	add	r1, r0, #90	; 0x5a

000033d0 <l3190>:
    33d0:	e1a0906f 	rrx	r9, pc

000033d4 <l3191>:
    33d4:	e16f2f18 	clz	r2, r8

000033d8 <l3192>:
    33d8:	e2ab9c8f 	adc	r9, fp, #36608	; 0x8f00

000033dc <l3193>:
    33dc:	e17a000a 	cmn	sl, sl

000033e0 <l3194>:
    33e0:	ea000000 	b	33e8 <l3196>

000033e4 <l3195>:
    33e4:	eafffff9 	b	33d0 <l3190>

000033e8 <l3196>:
    33e8:	e5bd9004 	ldr	r9, [sp, #4]!

000033ec <l3197>:
    33ec:	e1944068 	orrs	r4, r4, r8, rrx

000033f0 <l3198>:
    33f0:	7054a703 	subsvc	sl, r4, r3, lsl #14

000033f4 <l3199>:
    33f4:	e0309179 	eors	r9, r0, r9, ror r1

000033f8 <l3200>:
    33f8:	81cc7a51 	bichi	r7, ip, r1, asr sl

000033fc <l3201>:
    33fc:	ea000007 	b	3420 <l3210>

00003400 <l3202>:
    3400:	91f0ea01 	mvnsls	lr, r1, lsl #20

00003404 <l3203>:
    3404:	21590154 	cmpcs	r9, r4, asr r1

00003408 <l3204>:
    3408:	7134036c 	teqvc	r4, ip, ror #6

0000340c <l3205>:
    340c:	91ce2e85 	bicls	r2, lr, r5, lsl #29

00003410 <l3206>:
    3410:	4282bc85 	addmi	fp, r2, #34048	; 0x8500

00003414 <l3207>:
    3414:	c1550226 	cmpgt	r5, r6, lsr #4

00003418 <l3208>:
    3418:	e11e0e56 	tst	lr, r6, asr lr

0000341c <l3209>:
    341c:	e39e52db 	orrs	r5, lr, #-1342177267	; 0xb000000d

00003420 <l3210>:
    3420:	e0894758 	add	r4, r9, r8, asr r7

00003424 <l3211>:
    3424:	3a000006 	bcc	3444 <l3219>

00003428 <l3212>:
    3428:	e229a9dd 	eor	sl, r9, #3620864	; 0x374000

0000342c <l3213>:
    342c:	e22698bd 	eor	r9, r6, #12386304	; 0xbd0000

00003430 <l3214>:
    3430:	e13e000b 	teq	lr, fp

00003434 <l3215>:
    3434:	918fc002 	orrls	ip, pc, r2

00003438 <l3216>:
    3438:	e1cc3058 	bic	r3, ip, r8, asr r0

0000343c <l3217>:
    343c:	e0d818c0 	sbcs	r1, r8, r0, asr #17

00003440 <l3218>:
    3440:	e063332f 	rsb	r3, r3, pc, lsr #6

00003444 <l3219>:
    3444:	e02bc069 	eor	ip, fp, r9, rrx

00003448 <l3220>:
    3448:	ea000006 	b	3468 <l3228>

0000344c <l3221>:
    344c:	e2801071 	add	r1, r0, #113	; 0x71

00003450 <l3222>:
    3450:	e09c1005 	adds	r1, ip, r5

00003454 <l3223>:
    3454:	10d48742 	sbcsne	r8, r4, r2, asr #14

00003458 <l3224>:
    3458:	4069900f 	rsbmi	r9, r9, pc

0000345c <l3225>:
    345c:	213a063c 	teqcs	sl, ip, lsr r6

00003460 <l3226>:
    3460:	c0b4c00b 	adcsgt	ip, r4, fp

00003464 <l3227>:
    3464:	ea000000 	b	346c <l3229>

00003468 <l3228>:
    3468:	eafffff8 	b	3450 <l3222>

0000346c <l3229>:
    346c:	e51dc038 	ldr	ip, [sp, #-56]	; 0x38

00003470 <l3230>:
    3470:	b0579c1b 	subslt	r9, r7, fp, lsl ip

00003474 <l3231>:
    3474:	e16f0f1c 	clz	r0, ip

00003478 <l3232>:
    3478:	52d95fe5 	sbcspl	r5, r9, #916	; 0x394

0000347c <l3233>:
    347c:	e008600b 	and	r6, r8, fp

00003480 <l3234>:
    3480:	e0785e80 	rsbs	r5, r8, r0, lsl #29

00003484 <l3235>:
    3484:	c0129c12 	andsgt	r9, r2, r2, lsl ip

00003488 <l3236>:
    3488:	e1740187 	cmn	r4, r7, lsl #3

0000348c <l3237>:
    348c:	93996d7d 	orrsls	r6, r9, #8000	; 0x1f40

00003490 <l3238>:
    3490:	ca000008 	bgt	34b8 <l3248>

00003494 <l3239>:
    3494:	a0a03060 	adcge	r3, r0, r0, rrx

00003498 <l3240>:
    3498:	c08b700a 	addgt	r7, fp, sl

0000349c <l3241>:
    349c:	e1f08b65 	mvns	r8, r5, ror #22

000034a0 <l3242>:
    34a0:	e097c007 	adds	ip, r7, r7

000034a4 <l3243>:
    34a4:	6114006e 	tstvs	r4, lr, rrx

000034a8 <l3244>:
    34a8:	e0c0c986 	sbc	ip, r0, r6, lsl #19

000034ac <l3245>:
    34ac:	e16f6f1b 	clz	r6, fp

000034b0 <l3246>:
    34b0:	00462068 	subeq	r2, r6, r8, rrx

000034b4 <l3247>:
    34b4:	8067ab14 	rsbhi	sl, r7, r4, lsl fp

000034b8 <l3248>:
    34b8:	e1a03003 	mov	r3, r3

000034bc <l3249>:
    34bc:	e19a2b7e 	orrs	r2, sl, lr, ror fp

000034c0 <l3250>:
    34c0:	e50d4024 	str	r4, [sp, #-36]	; 0x24

000034c4 <l3251>:
    34c4:	d16f7f12 	clzle	r7, r2

000034c8 <l3252>:
    34c8:	ea000001 	b	34d4 <l3255>

000034cc <l3253>:
    34cc:	63740e42 	cmnvs	r4, #1056	; 0x420

000034d0 <l3254>:
    34d0:	93b0940e 	movsls	r9, #234881024	; 0xe000000

000034d4 <l3255>:
    34d4:	a3b0ebe9 	movsge	lr, #238592	; 0x3a400

000034d8 <l3256>:
    34d8:	1012a059 	andsne	sl, r2, r9, asr r0

000034dc <l3257>:
    34dc:	ea000005 	b	34f8 <l3264>

000034e0 <l3258>:
    34e0:	e1d88062 	bics	r8, r8, r2, rrx

000034e4 <l3259>:
    34e4:	40011004 	andmi	r1, r1, r4

000034e8 <l3260>:
    34e8:	71f0600c 	mvnsvc	r6, ip

000034ec <l3261>:
    34ec:	800a7007 	andhi	r7, sl, r7

000034f0 <l3262>:
    34f0:	11510506 	cmpne	r1, r6, lsl #10

000034f4 <l3263>:
    34f4:	91b085ec 	rorsls	r8, ip, #11

000034f8 <l3264>:
    34f8:	70819007 	addvc	r9, r1, r7

000034fc <l3265>:
    34fc:	51915439 	orrspl	r5, r1, r9, lsr r4

00003500 <l3266>:
    3500:	e29637ba 	adds	r3, r6, #48758784	; 0x2e80000

00003504 <l3267>:
    3504:	0a000007 	beq	3528 <l3276>

00003508 <l3268>:
    3508:	e28010dd 	add	r1, r0, #221	; 0xdd

0000350c <l3269>:
    350c:	52e70daa 	rscpl	r0, r7, #10880	; 0x2a80

00003510 <l3270>:
    3510:	91d463a9 	bicsls	r6, r4, r9, lsr #7

00003514 <l3271>:
    3514:	e1110064 	tst	r1, r4, rrx

00003518 <l3272>:
    3518:	80059002 	andhi	r9, r5, r2

0000351c <l3273>:
    351c:	03a09fba 	moveq	r9, #744	; 0x2e8

00003520 <l3274>:
    3520:	61a0636e 	rorvs	r6, lr, #6

00003524 <l3275>:
    3524:	ea000000 	b	352c <l3277>

00003528 <l3276>:
    3528:	eafffff7 	b	350c <l3269>

0000352c <l3277>:
    352c:	e2731306 	rsbs	r1, r3, #402653184	; 0x18000000

00003530 <l3278>:
    3530:	31b05759 	asrscc	r5, r9, r7

00003534 <l3279>:
    3534:	e2065905 	and	r5, r6, #81920	; 0x14000

00003538 <l3280>:
    3538:	e3a01018 	mov	r1, #24

0000353c <l3281>:
    353c:	e60de001 	str	lr, [sp], -r1

00003540 <l3282>:
    3540:	e3a0c01c 	mov	ip, #28

00003544 <l3283>:
    3544:	c79db00c 	ldrgt	fp, [sp, ip]

00003548 <l3284>:
    3548:	ea000004 	b	3560 <l3290>

0000354c <l3285>:
    354c:	91b0ceaa 	lsrsls	ip, sl, #29

00003550 <l3286>:
    3550:	c1370576 	teqgt	r7, r6, ror r5

00003554 <l3287>:
    3554:	e1cb806b 	bic	r8, fp, fp, rrx

00003558 <l3288>:
    3558:	804abc18 	subhi	fp, sl, r8, lsl ip

0000355c <l3289>:
    355c:	92e7e671 	rscls	lr, r7, #118489088	; 0x7100000

00003560 <l3290>:
    3560:	e0c0e06c 	sbc	lr, r0, ip, rrx

00003564 <l3291>:
    3564:	a0ac800e 	adcge	r8, ip, lr

00003568 <l3292>:
    3568:	0021c944 	eoreq	ip, r1, r4, asr #18

0000356c <l3293>:
    356c:	a1920b12 	orrsge	r0, r2, r2, lsl fp

00003570 <l3294>:
    3570:	e0166563 	ands	r6, r6, r3, ror #10

00003574 <l3295>:
    3574:	c0c2c06f 	sbcgt	ip, r2, pc, rrx

00003578 <l3296>:
    3578:	e5bdb01c 	ldr	fp, [sp, #28]!

0000357c <l3297>:
    357c:	c0085065 	andgt	r5, r8, r5, rrx

00003580 <l3298>:
    3580:	4187ca73 	orrmi	ip, r7, r3, ror sl

00003584 <l3299>:
    3584:	e2221171 	eor	r1, r2, #1073741852	; 0x4000001c

00003588 <l3300>:
    3588:	500b037b 	andpl	r0, fp, fp, ror r3

0000358c <l3301>:
    358c:	e02a0065 	eor	r0, sl, r5, rrx

00003590 <l3302>:
    3590:	11e01007 	mvnne	r1, r7

00003594 <l3303>:
    3594:	e170006c 	cmn	r0, ip, rrx

00003598 <l3304>:
    3598:	e0ba4237 	adcs	r4, sl, r7, lsr r2

0000359c <l3305>:
    359c:	a0c12007 	sbcge	r2, r1, r7

000035a0 <l3306>:
    35a0:	b1b02b37 	lsrslt	r2, r7, fp

000035a4 <l3307>:
    35a4:	824f9105 	subhi	r9, pc, #1073741825	; 0x40000001

000035a8 <l3308>:
    35a8:	e15a0653 	cmp	sl, r3, asr r6

000035ac <l3309>:
    35ac:	5a000002 	bpl	35bc <l3313>

000035b0 <l3310>:
    35b0:	e2801020 	add	r1, r0, #32

000035b4 <l3311>:
    35b4:	e2533060 	subs	r3, r3, #96	; 0x60

000035b8 <l3312>:
    35b8:	ea000000 	b	35c0 <l3314>

000035bc <l3313>:
    35bc:	eafffffc 	b	35b4 <l3311>

000035c0 <l3314>:
    35c0:	e1740001 	cmn	r4, r1

000035c4 <l3315>:
    35c4:	e0b87068 	adcs	r7, r8, r8, rrx

000035c8 <l3316>:
    35c8:	e31b071a 	tst	fp, #6815744	; 0x680000

000035cc <l3317>:
    35cc:	215c0000 	cmpcs	ip, r0

000035d0 <l3318>:
    35d0:	9025ca75 	eorls	ip, r5, r5, ror sl

000035d4 <l3319>:
    35d4:	e13b005c 	teq	fp, ip, asr r0

000035d8 <l3320>:
    35d8:	e1b01d4e 	asrs	r1, lr, #26

000035dc <l3321>:
    35dc:	2225bed2 	eorcs	fp, r5, #3360	; 0xd20

000035e0 <l3322>:
    35e0:	831504a2 	tsthi	r5, #-1577058304	; 0xa2000000

000035e4 <l3323>:
    35e4:	a352051f 	cmpge	r2, #130023424	; 0x7c00000

000035e8 <l3324>:
    35e8:	e0a73710 	adc	r3, r7, r0, lsl r7

000035ec <l3325>:
    35ec:	201b4063 	andscs	r4, fp, r3, rrx

000035f0 <l3326>:
    35f0:	3a000005 	bcc	360c <l3333>

000035f4 <l3327>:
    35f4:	e1390008 	teq	r9, r8

000035f8 <l3328>:
    35f8:	b1180002 	tstlt	r8, r2

000035fc <l3329>:
    35fc:	d0ee7911 	rscle	r7, lr, r1, lsl r9

00003600 <l3330>:
    3600:	e1a01a7a 	ror	r1, sl, sl

00003604 <l3331>:
    3604:	416fbf1c 	clzmi	fp, ip

00003608 <l3332>:
    3608:	e1160889 	tst	r6, r9, lsl #17

0000360c <l3333>:
    360c:	e15604c5 	cmp	r6, r5, asr #9

00003610 <l3334>:
    3610:	11390005 	teqne	r9, r5

00003614 <l3335>:
    3614:	71a04006 	movvc	r4, r6

00003618 <l3336>:
    3618:	50ab7013 	adcpl	r7, fp, r3, lsl r0

0000361c <l3337>:
    361c:	e0147066 	ands	r7, r4, r6, rrx

00003620 <l3338>:
    3620:	e16f8f1e 	clz	r8, lr

00003624 <l3339>:
    3624:	d1d0ee52 	bicsle	lr, r0, r2, asr lr

00003628 <l3340>:
    3628:	e16f9f1b 	clz	r9, fp

0000362c <l3341>:
    362c:	72bb4df3 	adcsvc	r4, fp, #15552	; 0x3cc0

00003630 <l3342>:
    3630:	9056100b 	subsls	r1, r6, fp

00003634 <l3343>:
    3634:	d21ab49a 	andsle	fp, sl, #-1711276032	; 0x9a000000

00003638 <l3344>:
    3638:	e1370221 	teq	r7, r1, lsr #4

0000363c <l3345>:
    363c:	e3a00040 	mov	r0, #64	; 0x40

00003640 <l3346>:
    3640:	e60d3000 	str	r3, [sp], -r0

00003644 <l3347>:
    3644:	81c479e4 	bichi	r7, r4, r4, ror #19

00003648 <l3348>:
    3648:	e1cea000 	bic	sl, lr, r0

0000364c <l3349>:
    364c:	70055060 	andvc	r5, r5, r0, rrx

00003650 <l3350>:
    3650:	e16f4f12 	clz	r4, r2

00003654 <l3351>:
    3654:	b273c5ae 	rsbslt	ip, r3, #729808896	; 0x2b800000

00003658 <l3352>:
    3658:	e2433b79 	sub	r3, r3, #123904	; 0x1e400

0000365c <l3353>:
    365c:	93901939 	orrsls	r1, r0, #933888	; 0xe4000

00003660 <l3354>:
    3660:	e0a0c376 	adc	ip, r0, r6, ror r3

00003664 <l3355>:
    3664:	821b6622 	andshi	r6, fp, #35651584	; 0x2200000

00003668 <l3356>:
    3668:	e11e0009 	tst	lr, r9

0000366c <l3357>:
    366c:	11330369 	teqne	r3, r9, ror #6

00003670 <l3358>:
    3670:	e036b063 	eors	fp, r6, r3, rrx

00003674 <l3359>:
    3674:	d16fef19 	clzle	lr, r9

00003678 <l3360>:
    3678:	913b006f 	teqls	fp, pc, rrx

0000367c <l3361>:
    367c:	51845030 	orrpl	r5, r4, r0, lsr r0

00003680 <l3362>:
    3680:	e3140982 	tst	r4, #2129920	; 0x208000

00003684 <l3363>:
    3684:	ea000007 	b	36a8 <l3372>

00003688 <l3364>:
    3688:	5050b00b 	subspl	fp, r0, fp

0000368c <l3365>:
    368c:	b287c43f 	addlt	ip, r7, #1056964608	; 0x3f000000

00003690 <l3366>:
    3690:	e1c09850 	bic	r9, r0, r0, asr r8

00003694 <l3367>:
    3694:	e0ff300f 	rscs	r3, pc, pc

00003698 <l3368>:
    3698:	33b06d32 	movscc	r6, #3200	; 0xc80

0000369c <l3369>:
    369c:	70296658 	eorvc	r6, r9, r8, asr r6

000036a0 <l3370>:
    36a0:	73780eda 	cmnvc	r8, #3488	; 0xda0

000036a4 <l3371>:
    36a4:	e24778a6 	sub	r7, r7, #10878976	; 0xa60000

000036a8 <l3372>:
    36a8:	e0f1c973 	rscs	ip, r1, r3, ror r9

000036ac <l3373>:
    36ac:	e17f0708 	cmn	pc, r8, lsl #14

000036b0 <l3374>:
    36b0:	10ac7008 	adcne	r7, ip, r8

000036b4 <l3375>:
    36b4:	ca000004 	bgt	36cc <l3381>

000036b8 <l3376>:
    36b8:	e2801036 	add	r1, r0, #54	; 0x36

000036bc <l3377>:
    36bc:	d05e400b 	subsle	r4, lr, fp

000036c0 <l3378>:
    36c0:	9221bd05 	eorls	fp, r1, #320	; 0x140

000036c4 <l3379>:
    36c4:	40541144 	subsmi	r1, r4, r4, asr #2

000036c8 <l3380>:
    36c8:	ea000000 	b	36d0 <l3382>

000036cc <l3381>:
    36cc:	eafffffa 	b	36bc <l3377>

000036d0 <l3382>:
    36d0:	e1a01aa3 	lsr	r1, r3, #21

000036d4 <l3383>:
    36d4:	91e0121a 	mvnls	r1, sl, lsl r2

000036d8 <l3384>:
    36d8:	e2270aa3 	eor	r0, r7, #667648	; 0xa3000

000036dc <l3385>:
    36dc:	511b000c 	tstpl	fp, ip

000036e0 <l3386>:
    36e0:	ea000007 	b	3704 <l3395>

000036e4 <l3387>:
    36e4:	e280102e 	add	r1, r0, #46	; 0x2e

000036e8 <l3388>:
    36e8:	0198901e 	orrseq	r9, r8, lr, lsl r0

000036ec <l3389>:
    36ec:	92ab602f 	adcls	r6, fp, #47	; 0x2f

000036f0 <l3390>:
    36f0:	e37b0b35 	cmn	fp, #54272	; 0xd400

000036f4 <l3391>:
    36f4:	e1b05068 	rrxs	r5, r8

000036f8 <l3392>:
    36f8:	93cab7d5 	bicls	fp, sl, #55836672	; 0x3540000

000036fc <l3393>:
    36fc:	e1b073c7 	asrs	r7, r7, #7

00003700 <l3394>:
    3700:	ea000000 	b	3708 <l3396>

00003704 <l3395>:
    3704:	eafffff7 	b	36e8 <l3388>

00003708 <l3396>:
    3708:	53360d2f 	teqpl	r6, #3008	; 0xbc0

0000370c <l3397>:
    370c:	616fbf19 	clzvs	fp, r9

00003710 <l3398>:
    3710:	a38e50e0 	orrge	r5, lr, #224	; 0xe0

00003714 <l3399>:
    3714:	50541de5 	subspl	r1, r4, r5, ror #27

00003718 <l3400>:
    3718:	611509e5 	tstvs	r5, r5, ror #19

0000371c <l3401>:
    371c:	50542003 	subspl	r2, r4, r3

00003720 <l3402>:
    3720:	eaffffff 	b	3724 <l3403>

00003724 <l3403>:
    3724:	e06be987 	rsb	lr, fp, r7, lsl #19

00003728 <l3404>:
    3728:	b16f4f18 	clzlt	r4, r8

0000372c <l3405>:
    372c:	103c01e6 	eorsne	r0, ip, r6, ror #3

00003730 <l3406>:
    3730:	9030b009 	eorsls	fp, r0, r9

00003734 <l3407>:
    3734:	41f032c9 	mvnsmi	r3, r9, asr #5

00003738 <l3408>:
    3738:	90117c7e 	andsls	r7, r1, lr, ror ip

0000373c <l3409>:
    373c:	b0696066 	rsblt	r6, r9, r6, rrx

00003740 <l3410>:
    3740:	60bbc007 	adcsvs	ip, fp, r7

00003744 <l3411>:
    3744:	e0f90008 	rscs	r0, r9, r8

00003748 <l3412>:
    3748:	e59d8028 	ldr	r8, [sp, #40]	; 0x28

0000374c <l3413>:
    374c:	91b07004 	movsls	r7, r4

00003750 <l3414>:
    3750:	e13e0069 	teq	lr, r9, rrx

00003754 <l3415>:
    3754:	5a000002 	bpl	3764 <l3419>

00003758 <l3416>:
    3758:	22b3a8a9 	adcscs	sl, r3, #11075584	; 0xa90000

0000375c <l3417>:
    375c:	91de500e 	bicsls	r5, lr, lr

00003760 <l3418>:
    3760:	e22ecdc3 	eor	ip, lr, #12480	; 0x30c0

00003764 <l3419>:
    3764:	c0548c77 	subsgt	r8, r4, r7, ror ip

00003768 <l3420>:
    3768:	4035866a 	eorsmi	r8, r5, sl, ror #12

0000376c <l3421>:
    376c:	b257732a 	subslt	r7, r7, #-1476395008	; 0xa8000000

00003770 <l3422>:
    3770:	ea000002 	b	3780 <l3426>

00003774 <l3423>:
    3774:	e2b3c501 	adcs	ip, r3, #4194304	; 0x400000

00003778 <l3424>:
    3778:	70270b36 	eorvc	r0, r7, r6, lsr fp

0000377c <l3425>:
    377c:	b0d74a5a 	sbcslt	r4, r7, sl, asr sl

00003780 <l3426>:
    3780:	e1b05e79 	rors	r5, r9, lr

00003784 <l3427>:
    3784:	1a000005 	bne	37a0 <l3434>

00003788 <l3428>:
    3788:	e280104e 	add	r1, r0, #78	; 0x4e

0000378c <l3429>:
    378c:	50ec7978 	rscpl	r7, ip, r8, ror r9

00003790 <l3430>:
    3790:	e1330630 	teq	r3, r0, lsr r6

00003794 <l3431>:
    3794:	e1e0706a 	mvn	r7, sl, rrx

00003798 <l3432>:
    3798:	a1827017 	orrge	r7, r2, r7, lsl r0

0000379c <l3433>:
    379c:	ea000000 	b	37a4 <l3435>

000037a0 <l3434>:
    37a0:	eafffff9 	b	378c <l3429>

000037a4 <l3435>:
    37a4:	e198b513 	orrs	fp, r8, r3, lsl r5

000037a8 <l3436>:
    37a8:	a066945c 	rsbge	r9, r6, ip, asr r4

000037ac <l3437>:
    37ac:	e0067005 	and	r7, r6, r5

000037b0 <l3438>:
    37b0:	ea000002 	b	37c0 <l3442>

000037b4 <l3439>:
    37b4:	e280106a 	add	r1, r0, #106	; 0x6a

000037b8 <l3440>:
    37b8:	e1ccb069 	bic	fp, ip, r9, rrx

000037bc <l3441>:
    37bc:	ea000000 	b	37c4 <l3443>

000037c0 <l3442>:
    37c0:	eafffffc 	b	37b8 <l3440>

000037c4 <l3443>:
    37c4:	e04ab5ca 	sub	fp, sl, sl, asr #11

000037c8 <l3444>:
    37c8:	1a000006 	bne	37e8 <l3452>

000037cc <l3445>:
    37cc:	12cf66a5 	sbcne	r6, pc, #173015040	; 0xa500000

000037d0 <l3446>:
    37d0:	91a01008 	movls	r1, r8

000037d4 <l3447>:
    37d4:	216fbf1b 	clzcs	fp, fp

000037d8 <l3448>:
    37d8:	515502a2 	cmppl	r5, r2, lsr #5

000037dc <l3449>:
    37dc:	d003900b 	andle	r9, r3, fp

000037e0 <l3450>:
    37e0:	a1580831 	cmpge	r8, r1, lsr r8

000037e4 <l3451>:
    37e4:	e0c2a536 	sbc	sl, r2, r6, lsr r5

000037e8 <l3452>:
    37e8:	d0461061 	suble	r1, r6, r1, rrx

000037ec <l3453>:
    37ec:	ea000000 	b	37f4 <l3455>

000037f0 <l3454>:
    37f0:	035a0b05 	cmpeq	sl, #5120	; 0x1400

000037f4 <l3455>:
    37f4:	60d04001 	sbcsvs	r4, r0, r1

000037f8 <l3456>:
    37f8:	31120007 	tstcc	r2, r7

000037fc <l3457>:
    37fc:	e051b789 	subs	fp, r1, r9, lsl #15

00003800 <l3458>:
    3800:	a3e05806 	mvnge	r5, #393216	; 0x60000

00003804 <l3459>:
    3804:	d0de79ac 	sbcsle	r7, lr, ip, lsr #19

00003808 <l3460>:
    3808:	707f362b 	rsbsvc	r3, pc, fp, lsr #12

0000380c <l3461>:
    380c:	c16fef12 	clzgt	lr, r2

00003810 <l3462>:
    3810:	d0716004 	rsbsle	r6, r1, r4

00003814 <l3463>:
    3814:	30131719 	andscc	r1, r3, r9, lsl r7

00003818 <l3464>:
    3818:	43570917 	cmpmi	r7, #376832	; 0x5c000

0000381c <l3465>:
    381c:	511b0009 	tstpl	fp, r9

00003820 <l3466>:
    3820:	201e4002 	andscs	r4, lr, r2

00003824 <l3467>:
    3824:	e3c88b26 	bic	r8, r8, #38912	; 0x9800

00003828 <l3468>:
    3828:	b3160a3e 	tstlt	r6, #253952	; 0x3e000

0000382c <l3469>:
    382c:	121b9bbd 	andsne	r9, fp, #193536	; 0x2f400

00003830 <l3470>:
    3830:	a191bc57 	orrsge	fp, r1, r7, asr ip

00003834 <l3471>:
    3834:	72b87661 	adcsvc	r7, r8, #101711872	; 0x6100000

00003838 <l3472>:
    3838:	e39b9bce 	orrs	r9, fp, #210944	; 0x33800

0000383c <l3473>:
    383c:	e0d7263e 	sbcs	r2, r7, lr, lsr r6

00003840 <l3474>:
    3840:	7a000006 	bvc	3860 <l3482>

00003844 <l3475>:
    3844:	e2801067 	add	r1, r0, #103	; 0x67

00003848 <l3476>:
    3848:	416f1f19 	clzmi	r1, r9

0000384c <l3477>:
    384c:	e0712523 	rsbs	r2, r1, r3, lsr #10

00003850 <l3478>:
    3850:	216f0f18 	clzcs	r0, r8

00003854 <l3479>:
    3854:	e15a000c 	cmp	sl, ip

00003858 <l3480>:
    3858:	e1f0cdaf 	mvns	ip, pc, lsr #27

0000385c <l3481>:
    385c:	ea000000 	b	3864 <l3483>

00003860 <l3482>:
    3860:	eafffff8 	b	3848 <l3476>

00003864 <l3483>:
    3864:	43e095ce 	mvnmi	r9, #864026624	; 0x33800000

00003868 <l3484>:
    3868:	e33901a3 	teq	r9, #-1073741784	; 0xc0000028

0000386c <l3485>:
    386c:	ca000006 	bgt	388c <l3493>

00003870 <l3486>:
    3870:	c2a48c3b 	adcgt	r8, r4, #15104	; 0x3b00

00003874 <l3487>:
    3874:	e3f056fd 	mvns	r5, #265289728	; 0xfd00000

00003878 <l3488>:
    3878:	820830f4 	andhi	r3, r8, #244	; 0xf4

0000387c <l3489>:
    387c:	22018b37 	andcs	r8, r1, #56320	; 0xdc00

00003880 <l3490>:
    3880:	7179000a 	cmnvc	r9, sl

00003884 <l3491>:
    3884:	e062907a 	rsb	r9, r2, sl, ror r0

00003888 <l3492>:
    3888:	d0185002 	andsle	r5, r8, r2

0000388c <l3493>:
    388c:	e1b03172 	rors	r3, r2, r1

00003890 <l3494>:
    3890:	01b01060 	rrxseq	r1, r0

00003894 <l3495>:
    3894:	d0e3ce30 	rscle	ip, r3, r0, lsr lr

00003898 <l3496>:
    3898:	b13e0e19 	teqlt	lr, r9, lsl lr

0000389c <l3497>:
    389c:	e1530aa0 	cmp	r3, r0, lsr #21

000038a0 <l3498>:
    38a0:	938768ef 	orrls	r6, r7, #15663104	; 0xef0000

000038a4 <l3499>:
    38a4:	e11c000f 	tst	ip, pc

000038a8 <l3500>:
    38a8:	e0b2506f 	adcs	r5, r2, pc, rrx

000038ac <l3501>:
    38ac:	31947338 	orrscc	r7, r4, r8, lsr r3

000038b0 <l3502>:
    38b0:	4170063b 	cmnmi	r0, fp, lsr r6

000038b4 <l3503>:
    38b4:	e16faf1c 	clz	sl, ip

000038b8 <l3504>:
    38b8:	e09105a5 	adds	r0, r1, r5, lsr #11

000038bc <l3505>:
    38bc:	e0042ccb 	and	r2, r4, fp, asr #25

000038c0 <l3506>:
    38c0:	4075bd0c 	rsbsmi	fp, r5, ip, lsl #26

000038c4 <l3507>:
    38c4:	82b029f5 	adcshi	r2, r0, #4014080	; 0x3d4000

000038c8 <l3508>:
    38c8:	ea000006 	b	38e8 <l3516>

000038cc <l3509>:
    38cc:	e280108f 	add	r1, r0, #143	; 0x8f

000038d0 <l3510>:
    38d0:	11790255 	cmnne	r9, r5, asr r2

000038d4 <l3511>:
    38d4:	a3962064 	orrsge	r2, r6, #100	; 0x64

000038d8 <l3512>:
    38d8:	7075757e 	rsbsvc	r7, r5, lr, ror r5

000038dc <l3513>:
    38dc:	a03f920b 	eorsge	r9, pc, fp, lsl #4

000038e0 <l3514>:
    38e0:	e1b0caee 	rors	ip, lr, #21

000038e4 <l3515>:
    38e4:	ea000000 	b	38ec <l3517>

000038e8 <l3516>:
    38e8:	eafffff8 	b	38d0 <l3510>

000038ec <l3517>:
    38ec:	61ce3351 	bicvs	r3, lr, r1, asr r3

000038f0 <l3518>:
    38f0:	216f0f1c 	clzcs	r0, ip

000038f4 <l3519>:
    38f4:	71804067 	orrvc	r4, r0, r7, rrx

000038f8 <l3520>:
    38f8:	e2c4c939 	sbc	ip, r4, #933888	; 0xe4000

000038fc <l3521>:
    38fc:	e242c8ae 	sub	ip, r2, #11403264	; 0xae0000

00003900 <l3522>:
    3900:	6035306a 	eorsvs	r3, r5, sl, rrx

00003904 <l3523>:
    3904:	80462068 	subhi	r2, r6, r8, rrx

00003908 <l3524>:
    3908:	e051100e 	subs	r1, r1, lr

0000390c <l3525>:
    390c:	e1ca000e 	bic	r0, sl, lr

00003910 <l3526>:
    3910:	e0ff000b 	rscs	r0, pc, fp

00003914 <l3527>:
    3914:	e007100b 	and	r1, r7, fp

00003918 <l3528>:
    3918:	e58d6048 	str	r6, [sp, #72]	; 0x48

0000391c <l3529>:
    391c:	11500007 	cmpne	r0, r7

00003920 <l3530>:
    3920:	e2dc353a 	sbcs	r3, ip, #243269632	; 0xe800000

00003924 <l3531>:
    3924:	e0ac770c 	adc	r7, ip, ip, lsl #14

00003928 <l3532>:
    3928:	4001a930 	andmi	sl, r1, r0, lsr r9

0000392c <l3533>:
    392c:	03904f9a 	orrseq	r4, r0, #616	; 0x268

00003930 <l3534>:
    3930:	40626007 	rsbmi	r6, r2, r7

00003934 <l3535>:
    3934:	116f6f16 	clzne	r6, r6

00003938 <l3536>:
    3938:	d013a873 	andsle	sl, r3, r3, ror r8

0000393c <l3537>:
    393c:	e259cda6 	subs	ip, r9, #10624	; 0x2980

00003940 <l3538>:
    3940:	816fef18 	clzhi	lr, r8

00003944 <l3539>:
    3944:	9a000002 	bls	3954 <l3543>

00003948 <l3540>:
    3948:	a006c06e 	andge	ip, r6, lr, rrx

0000394c <l3541>:
    394c:	e3340155 	teq	r4, #1073741845	; 0x40000015

00003950 <l3542>:
    3950:	201b100c 	andscs	r1, fp, ip

00003954 <l3543>:
    3954:	e1cb6172 	bic	r6, fp, r2, ror r1

00003958 <l3544>:
    3958:	31580074 	cmpcc	r8, r4, ror r0

0000395c <l3545>:
    395c:	e3a06024 	mov	r6, #36	; 0x24

00003960 <l3546>:
    3960:	e68db006 	str	fp, [sp], r6

00003964 <l3547>:
    3964:	e1da8031 	bics	r8, sl, r1, lsr r0

00003968 <l3548>:
    3968:	e17f000c 	cmn	pc, ip

0000396c <l3549>:
    396c:	ea000005 	b	3988 <l3556>

00003970 <l3550>:
    3970:	60dbe069 	sbcsvs	lr, fp, r9, rrx

00003974 <l3551>:
    3974:	30d32056 	sbcscc	r2, r3, r6, asr r0

00003978 <l3552>:
    3978:	216fcf1c 	clzcs	ip, ip

0000397c <l3553>:
    397c:	e151074b 	cmp	r1, fp, asr #14

00003980 <l3554>:
    3980:	d1320464 	teqle	r2, r4, ror #8

00003984 <l3555>:
    3984:	e11e0166 	tst	lr, r6, ror #2

00003988 <l3556>:
    3988:	e3e00037 	mvn	r0, #55	; 0x37

0000398c <l3557>:
    398c:	c1cb100f 	bicgt	r1, fp, pc

00003990 <l3558>:
    3990:	10297007 	eorne	r7, r9, r7

00003994 <l3559>:
    3994:	e1190008 	tst	r9, r8

00003998 <l3560>:
    3998:	d1720001 	cmnle	r2, r1

0000399c <l3561>:
    399c:	11700248 	cmnne	r0, r8, asr #4

000039a0 <l3562>:
    39a0:	e2101eb9 	ands	r1, r0, #2960	; 0xb90

000039a4 <l3563>:
    39a4:	22fc5bf1 	rscscs	r5, ip, #246784	; 0x3c400

000039a8 <l3564>:
    39a8:	e49da008 	ldr	sl, [sp], #8

000039ac <l3565>:
    39ac:	40052cce 	andmi	r2, r5, lr, asr #25

000039b0 <l3566>:
    39b0:	e040e00c 	sub	lr, r0, ip

000039b4 <l3567>:
    39b4:	258d201c 	strcs	r2, [sp, #28]

000039b8 <l3568>:
    39b8:	21140004 	tstcs	r4, r4

000039bc <l3569>:
    39bc:	91730002 	cmnls	r3, r2

000039c0 <l3570>:
    39c0:	d1e0c758 	mvnle	ip, r8, asr r7

000039c4 <l3571>:
    39c4:	aa000003 	bge	39d8 <l3576>

000039c8 <l3572>:
    39c8:	e1ce5778 	bic	r5, lr, r8, ror r7

000039cc <l3573>:
    39cc:	22316a3f 	eorscs	r6, r1, #258048	; 0x3f000

000039d0 <l3574>:
    39d0:	60bee00f 	adcsvs	lr, lr, pc

000039d4 <l3575>:
    39d4:	e17e0b57 	cmn	lr, r7, asr fp

000039d8 <l3576>:
    39d8:	3270b829 	rsbscc	fp, r0, #2686976	; 0x290000

000039dc <l3577>:
    39dc:	4a000006 	bmi	39fc <l3585>

000039e0 <l3578>:
    39e0:	e2801095 	add	r1, r0, #149	; 0x95

000039e4 <l3579>:
    39e4:	e0504e19 	subs	r4, r0, r9, lsl lr

000039e8 <l3580>:
    39e8:	e3f0501f 	mvns	r5, #31

000039ec <l3581>:
    39ec:	20078067 	andcs	r8, r7, r7, rrx

000039f0 <l3582>:
    39f0:	c1760369 	cmngt	r6, r9, ror #6

000039f4 <l3583>:
    39f4:	5021351c 	eorpl	r3, r1, ip, lsl r5

000039f8 <l3584>:
    39f8:	ea000000 	b	3a00 <l3586>

000039fc <l3585>:
    39fc:	eafffff8 	b	39e4 <l3579>

00003a00 <l3586>:
    3a00:	113a0d8a 	teqne	sl, sl, lsl #27

00003a04 <l3587>:
    3a04:	e25c3546 	subs	r3, ip, #293601280	; 0x11800000

00003a08 <l3588>:
    3a08:	e1971c50 	orrs	r1, r7, r0, asr ip

00003a0c <l3589>:
    3a0c:	2049900c 	subcs	r9, r9, ip

00003a10 <l3590>:
    3a10:	4a000004 	bmi	3a28 <l3596>

00003a14 <l3591>:
    3a14:	e28010d1 	add	r1, r0, #209	; 0xd1

00003a18 <l3592>:
    3a18:	e085c001 	add	ip, r5, r1

00003a1c <l3593>:
    3a1c:	90032008 	andls	r2, r3, r8

00003a20 <l3594>:
    3a20:	421c6a6f 	andsmi	r6, ip, #454656	; 0x6f000

00003a24 <l3595>:
    3a24:	ea000000 	b	3a2c <l3597>

00003a28 <l3596>:
    3a28:	eafffffa 	b	3a18 <l3592>

00003a2c <l3597>:
    3a2c:	32d38c05 	sbcscc	r8, r3, #1280	; 0x500

00003a30 <l3598>:
    3a30:	6a000007 	bvs	3a54 <l3607>

00003a34 <l3599>:
    3a34:	32382426 	eorscc	r2, r8, #637534208	; 0x26000000

00003a38 <l3600>:
    3a38:	e1a00004 	mov	r0, r4

00003a3c <l3601>:
    3a3c:	e33b0ee1 	teq	fp, #3600	; 0xe10

00003a40 <l3602>:
    3a40:	216f5f17 	clzcs	r5, r7

00003a44 <l3603>:
    3a44:	316f7f1a 	clzcc	r7, sl

00003a48 <l3604>:
    3a48:	a1c997c7 	bicge	r9, r9, r7, asr #15

00003a4c <l3605>:
    3a4c:	62e7be15 	rscvs	fp, r7, #336	; 0x150

00003a50 <l3606>:
    3a50:	a092ef69 	addsge	lr, r2, r9, ror #30

00003a54 <l3607>:
    3a54:	e06876a1 	rsb	r7, r8, r1, lsr #13

00003a58 <l3608>:
    3a58:	e04ecb75 	sub	ip, lr, r5, ror fp

00003a5c <l3609>:
    3a5c:	71340d20 	teqvc	r4, r0, lsr #26

00003a60 <l3610>:
    3a60:	ea000003 	b	3a74 <l3615>

00003a64 <l3611>:
    3a64:	e2801033 	add	r1, r0, #51	; 0x33

00003a68 <l3612>:
    3a68:	e16f3f12 	clz	r3, r2

00003a6c <l3613>:
    3a6c:	505c7006 	subspl	r7, ip, r6

00003a70 <l3614>:
    3a70:	ea000000 	b	3a78 <l3616>

00003a74 <l3615>:
    3a74:	eafffffb 	b	3a68 <l3612>

00003a78 <l3616>:
    3a78:	10148060 	andsne	r8, r4, r0, rrx

00003a7c <l3617>:
    3a7c:	ca000005 	bgt	3a98 <l3624>

00003a80 <l3618>:
    3a80:	e3110f7d 	tst	r1, #500	; 0x1f4

00003a84 <l3619>:
    3a84:	821c301c 	andshi	r3, ip, #28

00003a88 <l3620>:
    3a88:	51f0b000 	mvnspl	fp, r0

00003a8c <l3621>:
    3a8c:	e0c2c006 	sbc	ip, r2, r6

00003a90 <l3622>:
    3a90:	513a0007 	teqpl	sl, r7

00003a94 <l3623>:
    3a94:	73c07549 	bicvc	r7, r0, #306184192	; 0x12400000

00003a98 <l3624>:
    3a98:	e0d14324 	sbcs	r4, r1, r4, lsr #6

00003a9c <l3625>:
    3a9c:	4012be15 	andsmi	fp, r2, r5, lsl lr

00003aa0 <l3626>:
    3aa0:	e0ce4759 	sbc	r4, lr, r9, asr r7

00003aa4 <l3627>:
    3aa4:	911a0374 	tstls	sl, r4, ror r3

00003aa8 <l3628>:
    3aa8:	a008018a 	andge	r0, r8, sl, lsl #3

00003aac <l3629>:
    3aac:	e0871065 	add	r1, r7, r5, rrx

00003ab0 <l3630>:
    3ab0:	20476451 	subcs	r6, r7, r1, asr r4

00003ab4 <l3631>:
    3ab4:	1314082a 	tstne	r4, #2752512	; 0x2a0000

00003ab8 <l3632>:
    3ab8:	b1e01316 	mvnlt	r1, r6, lsl r3

00003abc <l3633>:
    3abc:	e3a0c00c 	mov	ip, #12

00003ac0 <l3634>:
    3ac0:	e73d800c 	ldr	r8, [sp, -ip]!

00003ac4 <l3635>:
    3ac4:	e02f87c6 	eor	r8, pc, r6, asr #15

00003ac8 <l3636>:
    3ac8:	d3c42bfb 	bicle	r2, r4, #257024	; 0x3ec00

00003acc <l3637>:
    3acc:	e1360007 	teq	r6, r7

00003ad0 <l3638>:
    3ad0:	a038501c 	eorsge	r5, r8, ip, lsl r0

00003ad4 <l3639>:
    3ad4:	e0f24007 	rscs	r4, r2, r7

00003ad8 <l3640>:
    3ad8:	da000006 	ble	3af8 <l3648>

00003adc <l3641>:
    3adc:	e2801090 	add	r1, r0, #144	; 0x90

00003ae0 <l3642>:
    3ae0:	9042e005 	subls	lr, r2, r5

00003ae4 <l3643>:
    3ae4:	01e01068 	mvneq	r1, r8, rrx

00003ae8 <l3644>:
    3ae8:	30c8aa5b 	sbccc	sl, r8, fp, asr sl

00003aec <l3645>:
    3aec:	e2fe960f 	rscs	r9, lr, #15728640	; 0xf00000

00003af0 <l3646>:
    3af0:	e07c500a 	rsbs	r5, ip, sl

00003af4 <l3647>:
    3af4:	ea000000 	b	3afc <l3649>

00003af8 <l3648>:
    3af8:	eafffff8 	b	3ae0 <l3642>

00003afc <l3649>:
    3afc:	023b591a 	eorseq	r5, fp, #425984	; 0x68000

00003b00 <l3650>:
    3b00:	ea000000 	b	3b08 <l3652>

00003b04 <l3651>:
    3b04:	c06fafe7 	rsbgt	sl, pc, r7, ror #31

00003b08 <l3652>:
    3b08:	21e0ea54 	mvncs	lr, r4, asr sl

00003b0c <l3653>:
    3b0c:	8092306f 	addshi	r3, r2, pc, rrx

00003b10 <l3654>:
    3b10:	e03e5061 	eors	r5, lr, r1, rrx

00003b14 <l3655>:
    3b14:	e1e09850 	mvn	r9, r0, asr r8

00003b18 <l3656>:
    3b18:	b01b6774 	andslt	r6, fp, r4, ror r7

00003b1c <l3657>:
    3b1c:	6020af6a 	eorvs	sl, r0, sl, ror #30

00003b20 <l3658>:
    3b20:	e1f00411 	mvns	r0, r1, lsl r4

00003b24 <l3659>:
    3b24:	6136000e 	teqvs	r6, lr

00003b28 <l3660>:
    3b28:	ea000002 	b	3b38 <l3664>

00003b2c <l3661>:
    3b2c:	e2801075 	add	r1, r0, #117	; 0x75

00003b30 <l3662>:
    3b30:	708ce675 	addvc	lr, ip, r5, ror r6

00003b34 <l3663>:
    3b34:	ea000000 	b	3b3c <l3665>

00003b38 <l3664>:
    3b38:	eafffffc 	b	3b30 <l3662>

00003b3c <l3665>:
    3b3c:	a0e48007 	rscge	r8, r4, r7

00003b40 <l3666>:
    3b40:	e1c6a31e 	bic	sl, r6, lr, lsl r3

00003b44 <l3667>:
    3b44:	d02a5450 	eorle	r5, sl, r0, asr r4

00003b48 <l3668>:
    3b48:	43c29589 	bicmi	r9, r2, #574619648	; 0x22400000

00003b4c <l3669>:
    3b4c:	11a02056 	asrne	r2, r6, r0

00003b50 <l3670>:
    3b50:	80394630 	eorshi	r4, r9, r0, lsr r6

00003b54 <l3671>:
    3b54:	6a000005 	bvs	3b70 <l3678>

00003b58 <l3672>:
    3b58:	b0d28067 	sbcslt	r8, r2, r7, rrx

00003b5c <l3673>:
    3b5c:	e0433bca 	sub	r3, r3, sl, asr #23

00003b60 <l3674>:
    3b60:	d16fef13 	clzle	lr, r3

00003b64 <l3675>:
    3b64:	70ab3644 	adcvc	r3, fp, r4, asr #12

00003b68 <l3676>:
    3b68:	8069c7c0 	rsbhi	ip, r9, r0, asr #15

00003b6c <l3677>:
    3b6c:	816f9f1c 	clzhi	r9, ip

00003b70 <l3678>:
    3b70:	d029010e 	eorle	r0, r9, lr, lsl #2

00003b74 <l3679>:
    3b74:	e0f47c45 	rscs	r7, r4, r5, asr #24

00003b78 <l3680>:
    3b78:	9199ae0b 	orrsls	sl, r9, fp, lsl #28

00003b7c <l3681>:
    3b7c:	e084600c 	add	r6, r4, ip

00003b80 <l3682>:
    3b80:	1a000005 	bne	3b9c <l3689>

00003b84 <l3683>:
    3b84:	b1340063 	teqlt	r4, r3, rrx

00003b88 <l3684>:
    3b88:	90e9c259 	rscls	ip, r9, r9, asr r2

00003b8c <l3685>:
    3b8c:	60eb200a 	rscvs	r2, fp, sl

00003b90 <l3686>:
    3b90:	e19e2249 	orrs	r2, lr, r9, asr #4

00003b94 <l3687>:
    3b94:	e0b4900e 	adcs	r9, r4, lr

00003b98 <l3688>:
    3b98:	109039ee 	addsne	r3, r0, lr, ror #19

00003b9c <l3689>:
    3b9c:	e13b0308 	teq	fp, r8, lsl #6

00003ba0 <l3690>:
    3ba0:	e13b006a 	teq	fp, sl, rrx

00003ba4 <l3691>:
    3ba4:	2082e06a 	addcs	lr, r2, sl, rrx

00003ba8 <l3692>:
    3ba8:	c084200b 	addgt	r2, r4, fp

00003bac <l3693>:
    3bac:	938498fd 	orrls	r9, r4, #16580608	; 0xfd0000

00003bb0 <l3694>:
    3bb0:	ea000006 	b	3bd0 <l3702>

00003bb4 <l3695>:
    3bb4:	e280102f 	add	r1, r0, #47	; 0x2f

00003bb8 <l3696>:
    3bb8:	e202a4c2 	and	sl, r2, #-1040187392	; 0xc2000000

00003bbc <l3697>:
    3bbc:	70706c7e 	rsbsvc	r6, r0, lr, ror ip

00003bc0 <l3698>:
    3bc0:	e1807b12 	orr	r7, r0, r2, lsl fp

00003bc4 <l3699>:
    3bc4:	e23a90ac 	eors	r9, sl, #172	; 0xac

00003bc8 <l3700>:
    3bc8:	51530a76 	cmppl	r3, r6, ror sl

00003bcc <l3701>:
    3bcc:	ea000000 	b	3bd4 <l3703>

00003bd0 <l3702>:
    3bd0:	eafffff8 	b	3bb8 <l3696>

00003bd4 <l3703>:
    3bd4:	60243069 	eorvs	r3, r4, r9, rrx

00003bd8 <l3704>:
    3bd8:	b01401aa 	andslt	r0, r4, sl, lsr #3

00003bdc <l3705>:
    3bdc:	03e0ce73 	mvneq	ip, #1840	; 0x730

00003be0 <l3706>:
    3be0:	23c80e1a 	biccs	r0, r8, #416	; 0x1a0

00003be4 <l3707>:
    3be4:	e3a0b024 	mov	fp, #36	; 0x24

00003be8 <l3708>:
    3be8:	b79d000b 	ldrlt	r0, [sp, fp]

00003bec <l3709>:
    3bec:	e3d011ba 	bics	r1, r0, #-2147483602	; 0x8000002e

00003bf0 <l3710>:
    3bf0:	e37c0955 	cmn	ip, #1392640	; 0x154000

00003bf4 <l3711>:
    3bf4:	d11b000f 	tstle	fp, pc

00003bf8 <l3712>:
    3bf8:	61170c18 	tstvs	r7, r8, lsl ip

00003bfc <l3713>:
    3bfc:	81380ac3 	teqhi	r8, r3, asr #21

00003c00 <l3714>:
    3c00:	c114000e 	tstgt	r4, lr

00003c04 <l3715>:
    3c04:	e2776d0b 	rsbs	r6, r7, #704	; 0x2c0

00003c08 <l3716>:
    3c08:	ea000000 	b	3c10 <l3718>

00003c0c <l3717>:
    3c0c:	e1944004 	orrs	r4, r4, r4

00003c10 <l3718>:
    3c10:	e01a3a53 	ands	r3, sl, r3, asr sl

00003c14 <l3719>:
    3c14:	60a71355 	adcvs	r1, r7, r5, asr r3

00003c18 <l3720>:
    3c18:	e0a8ec3e 	adc	lr, r8, lr, lsr ip

00003c1c <l3721>:
    3c1c:	523f1d7a 	eorspl	r1, pc, #7808	; 0x1e80

00003c20 <l3722>:
    3c20:	e1160063 	tst	r6, r3, rrx

00003c24 <l3723>:
    3c24:	316f9f13 	clzcc	r9, r3

00003c28 <l3724>:
    3c28:	a0026034 	andge	r6, r2, r4, lsr r0

00003c2c <l3725>:
    3c2c:	b2b07056 	adcslt	r7, r0, #86	; 0x56

00003c30 <l3726>:
    3c30:	e1b01004 	movs	r1, r4

00003c34 <l3727>:
    3c34:	10d21700 	sbcsne	r1, r2, r0, lsl #14

00003c38 <l3728>:
    3c38:	611e0e77 	tstvs	lr, r7, ror lr

00003c3c <l3729>:
    3c3c:	e0311003 	eors	r1, r1, r3

00003c40 <l3730>:
    3c40:	51843001 	orrpl	r3, r4, r1

00003c44 <l3731>:
    3c44:	10234c35 	eorne	r4, r3, r5, lsr ip

00003c48 <l3732>:
    3c48:	315c000f 	cmpcc	ip, pc

00003c4c <l3733>:
    3c4c:	e1750d81 	cmn	r5, r1, lsl #27

00003c50 <l3734>:
    3c50:	1affffff 	bne	3c54 <l3735>

00003c54 <l3735>:
    3c54:	4228419d 	eormi	r4, r8, #1073741863	; 0x40000027

00003c58 <l3736>:
    3c58:	52111025 	andspl	r1, r1, #37	; 0x25

00003c5c <l3737>:
    3c5c:	203e4030 	eorscs	r4, lr, r0, lsr r0

00003c60 <l3738>:
    3c60:	03a03222 	moveq	r3, #536870914	; 0x20000002

00003c64 <l3739>:
    3c64:	906b300f 	rsbls	r3, fp, pc

00003c68 <l3740>:
    3c68:	ea000000 	b	3c70 <l3742>

00003c6c <l3741>:
    3c6c:	41570e02 	cmpmi	r7, r2, lsl #28

00003c70 <l3742>:
    3c70:	e0319137 	eors	r9, r1, r7, lsr r1

00003c74 <l3743>:
    3c74:	ea000005 	b	3c90 <l3750>

00003c78 <l3744>:
    3c78:	41150215 	tstmi	r5, r5, lsl r2

00003c7c <l3745>:
    3c7c:	e33b0113 	teq	fp, #-1073741820	; 0xc0000004

00003c80 <l3746>:
    3c80:	a1f04115 	mvnsge	r4, r5, lsl r1

00003c84 <l3747>:
    3c84:	91300b33 	teqls	r0, r3, lsr fp

00003c88 <l3748>:
    3c88:	31c8997c 	biccc	r9, r8, ip, ror r9

00003c8c <l3749>:
    3c8c:	a1de5061 	bicsge	r5, lr, r1, rrx

00003c90 <l3750>:
    3c90:	80533000 	subshi	r3, r3, r0

00003c94 <l3751>:
    3c94:	d15e012c 	cmple	lr, ip, lsr #2

00003c98 <l3752>:
    3c98:	e00c7006 	and	r7, ip, r6

00003c9c <l3753>:
    3c9c:	416f4f1a 	clzmi	r4, sl

00003ca0 <l3754>:
    3ca0:	a0459003 	subge	r9, r5, r3

00003ca4 <l3755>:
    3ca4:	e1350d81 	teq	r5, r1, lsl #27

00003ca8 <l3756>:
    3ca8:	e0460005 	sub	r0, r6, r5

00003cac <l3757>:
    3cac:	e29364c3 	adds	r6, r3, #-1023410176	; 0xc3000000

00003cb0 <l3758>:
    3cb0:	233a0e11 	teqcs	sl, #272	; 0x110

00003cb4 <l3759>:
    3cb4:	80a3eb2b 	adchi	lr, r3, fp, lsr #22

00003cb8 <l3760>:
    3cb8:	606ca01b 	rsbvs	sl, ip, fp, lsl r0

00003cbc <l3761>:
    3cbc:	b0d793ea 	sbcslt	r9, r7, sl, ror #7

00003cc0 <l3762>:
    3cc0:	b02640a6 	eorlt	r4, r6, r6, lsr #1

00003cc4 <l3763>:
    3cc4:	e2022053 	and	r2, r2, #83	; 0x53

00003cc8 <l3764>:
    3cc8:	e24cc7aa 	sub	ip, ip, #44564480	; 0x2a80000

00003ccc <l3765>:
    3ccc:	205ee008 	subscs	lr, lr, r8

00003cd0 <l3766>:
    3cd0:	71360c78 	teqvc	r6, r8, ror ip

00003cd4 <l3767>:
    3cd4:	e0fa2e55 	rscs	r2, sl, r5, asr lr

00003cd8 <l3768>:
    3cd8:	111807a6 	tstne	r8, r6, lsr #15

00003cdc <l3769>:
    3cdc:	a1ca4116 	bicge	r4, sl, r6, lsl r1

00003ce0 <l3770>:
    3ce0:	831e030b 	tsthi	lr, #738197504	; 0x2c000000

00003ce4 <l3771>:
    3ce4:	704b4639 	subvc	r4, fp, r9, lsr r6

00003ce8 <l3772>:
    3ce8:	416fef17 	clzmi	lr, r7

00003cec <l3773>:
    3cec:	ca000000 	bgt	3cf4 <l3775>

00003cf0 <l3774>:
    3cf0:	e0f16623 	rscs	r6, r1, r3, lsr #12

00003cf4 <l3775>:
    3cf4:	62414cff 	subvs	r4, r1, #65280	; 0xff00

00003cf8 <l3776>:
    3cf8:	9051e23c 	subsls	lr, r1, ip, lsr r2

00003cfc <l3777>:
    3cfc:	e0b4e002 	adcs	lr, r4, r2

00003d00 <l3778>:
    3d00:	b22c0907 	eorlt	r0, ip, #114688	; 0x1c000

00003d04 <l3779>:
    3d04:	e1f0c00b 	mvns	ip, fp

00003d08 <l3780>:
    3d08:	e195506e 	orrs	r5, r5, lr, rrx

00003d0c <l3781>:
    3d0c:	4a000004 	bmi	3d24 <l3787>

00003d10 <l3782>:
    3d10:	e2801055 	add	r1, r0, #85	; 0x55

00003d14 <l3783>:
    3d14:	91e08671 	mvnls	r8, r1, ror r6

00003d18 <l3784>:
    3d18:	e291a26b 	adds	sl, r1, #-1342177274	; 0xb0000006

00003d1c <l3785>:
    3d1c:	028710e0 	addeq	r1, r7, #224	; 0xe0

00003d20 <l3786>:
    3d20:	ea000000 	b	3d28 <l3788>

00003d24 <l3787>:
    3d24:	eafffffa 	b	3d14 <l3783>

00003d28 <l3788>:
    3d28:	32908e3d 	addscc	r8, r0, #976	; 0x3d0

00003d2c <l3789>:
    3d2c:	e094c9a6 	adds	ip, r4, r6, lsr #19

00003d30 <l3790>:
    3d30:	0016b06a 	andseq	fp, r6, sl, rrx

00003d34 <l3791>:
    3d34:	00f90848 	rscseq	r0, r9, r8, asr #16

00003d38 <l3792>:
    3d38:	e0d25009 	sbcs	r5, r2, r9

00003d3c <l3793>:
    3d3c:	40b56008 	adcsmi	r6, r5, r8

00003d40 <l3794>:
    3d40:	4092ab1a 	addsmi	sl, r2, sl, lsl fp

00003d44 <l3795>:
    3d44:	b1d6c00f 	bicslt	ip, r6, pc

00003d48 <l3796>:
    3d48:	e2ff00a7 	rscs	r0, pc, #167	; 0xa7

00003d4c <l3797>:
    3d4c:	1198200a 	orrsne	r2, r8, sl

00003d50 <l3798>:
    3d50:	5138038e 	teqpl	r8, lr, lsl #7

00003d54 <l3799>:
    3d54:	b3ca4711 	biclt	r4, sl, #4456448	; 0x440000

00003d58 <l3800>:
    3d58:	e3a0901c 	mov	r9, #28

00003d5c <l3801>:
    3d5c:	e78df009 	str	pc, [sp, r9]

00003d60 <l3802>:
    3d60:	711a0545 	tstvc	sl, r5, asr #10

00003d64 <l3803>:
    3d64:	42783b1a 	rsbsmi	r3, r8, #26624	; 0x6800

00003d68 <l3804>:
    3d68:	63b03101 	movsvs	r3, #1073741824	; 0x40000000

00003d6c <l3805>:
    3d6c:	6a000003 	bvs	3d80 <l3810>

00003d70 <l3806>:
    3d70:	e2801025 	add	r1, r0, #37	; 0x25

00003d74 <l3807>:
    3d74:	e176006b 	cmn	r6, fp, rrx

00003d78 <l3808>:
    3d78:	e1886a7a 	orr	r6, r8, sl, ror sl

00003d7c <l3809>:
    3d7c:	ea000000 	b	3d84 <l3811>

00003d80 <l3810>:
    3d80:	eafffffb 	b	3d74 <l3807>

00003d84 <l3811>:
    3d84:	806b61e2 	rsbhi	r6, fp, r2, ror #3

00003d88 <l3812>:
    3d88:	e05243a6 	subs	r4, r2, r6, lsr #7

00003d8c <l3813>:
    3d8c:	e3f0e50a 	mvns	lr, #41943040	; 0x2800000

00003d90 <l3814>:
    3d90:	e2032412 	and	r2, r3, #301989888	; 0x12000000

00003d94 <l3815>:
    3d94:	ea000002 	b	3da4 <l3819>

00003d98 <l3816>:
    3d98:	e280104c 	add	r1, r0, #76	; 0x4c

00003d9c <l3817>:
    3d9c:	e032331b 	eors	r3, r2, fp, lsl r3

00003da0 <l3818>:
    3da0:	ea000000 	b	3da8 <l3820>

00003da4 <l3819>:
    3da4:	eafffffc 	b	3d9c <l3817>

00003da8 <l3820>:
    3da8:	e16f1f10 	clz	r1, r0

00003dac <l3821>:
    3dac:	e03c1224 	eors	r1, ip, r4, lsr #4

00003db0 <l3822>:
    3db0:	51520005 	cmppl	r2, r5

00003db4 <l3823>:
    3db4:	1054701a 	subsne	r7, r4, sl, lsl r0

00003db8 <l3824>:
    3db8:	d0567007 	subsle	r7, r6, r7

00003dbc <l3825>:
    3dbc:	e3a0800c 	mov	r8, #12

00003dc0 <l3826>:
    3dc0:	e7ade008 	str	lr, [sp, r8]!

00003dc4 <l3827>:
    3dc4:	81e0e008 	mvnhi	lr, r8

00003dc8 <l3828>:
    3dc8:	411b0003 	tstmi	fp, r3

00003dcc <l3829>:
    3dcc:	416f0f14 	clzmi	r0, r4

00003dd0 <l3830>:
    3dd0:	100f700e 	andne	r7, pc, lr

00003dd4 <l3831>:
    3dd4:	90528003 	subsls	r8, r2, r3

00003dd8 <l3832>:
    3dd8:	d0b0e75e 	adcsle	lr, r0, lr, asr r7

00003ddc <l3833>:
    3ddc:	e05e9479 	subs	r9, lr, r9, ror r4

00003de0 <l3834>:
    3de0:	80c8b532 	sbchi	fp, r8, r2, lsr r5

00003de4 <l3835>:
    3de4:	216fbf12 	clzcs	fp, r2

00003de8 <l3836>:
    3de8:	a51d7020 	ldrge	r7, [sp, #-32]

00003dec <l3837>:
    3dec:	40913000 	addsmi	r3, r1, r0

00003df0 <l3838>:
    3df0:	e2220341 	eor	r0, r2, #67108865	; 0x4000001

00003df4 <l3839>:
    3df4:	828c65a3 	addhi	r6, ip, #683671552	; 0x28c00000

00003df8 <l3840>:
    3df8:	ea000007 	b	3e1c <l3849>

00003dfc <l3841>:
    3dfc:	e28010e3 	add	r1, r0, #227	; 0xe3

00003e00 <l3842>:
    3e00:	e33200ae 	teq	r2, #174	; 0xae

00003e04 <l3843>:
    3e04:	e1320b15 	teq	r2, r5, lsl fp

00003e08 <l3844>:
    3e08:	21e0600a 	mvncs	r6, sl

00003e0c <l3845>:
    3e0c:	e0bb7003 	adcs	r7, fp, r3

00003e10 <l3846>:
    3e10:	e13b0006 	teq	fp, r6

00003e14 <l3847>:
    3e14:	e135000e 	teq	r5, lr

00003e18 <l3848>:
    3e18:	ea000000 	b	3e20 <l3850>

00003e1c <l3849>:
    3e1c:	eafffff7 	b	3e00 <l3842>

00003e20 <l3850>:
    3e20:	c0ec000b 	rscgt	r0, ip, fp

00003e24 <l3851>:
    3e24:	4a000008 	bmi	3e4c <l3861>

00003e28 <l3852>:
    3e28:	9033000b 	eorsls	r0, r3, fp

00003e2c <l3853>:
    3e2c:	a0252003 	eorge	r2, r5, r3

00003e30 <l3854>:
    3e30:	e193400f 	orrs	r4, r3, pc

00003e34 <l3855>:
    3e34:	e3120be6 	tst	r2, #235520	; 0x39800

00003e38 <l3856>:
    3e38:	e05b800b 	subs	r8, fp, fp

00003e3c <l3857>:
    3e3c:	e08f4001 	add	r4, pc, r1

00003e40 <l3858>:
    3e40:	80cea213 	sbchi	sl, lr, r3, lsl r2

00003e44 <l3859>:
    3e44:	e1ce5646 	bic	r5, lr, r6, asr #12

00003e48 <l3860>:
    3e48:	33e09b31 	mvncc	r9, #50176	; 0xc400

00003e4c <l3861>:
    3e4c:	e1f0c753 	mvns	ip, r3, asr r7

00003e50 <l3862>:
    3e50:	e3a0c020 	mov	ip, #32

00003e54 <l3863>:
    3e54:	e72d600c 	str	r6, [sp, -ip]!

00003e58 <l3864>:
    3e58:	60646f43 	rsbvs	r6, r4, r3, asr #30

00003e5c <l3865>:
    3e5c:	100f16c9 	andne	r1, pc, r9, asr #13

00003e60 <l3866>:
    3e60:	e1e0e101 	mvn	lr, r1, lsl #2

00003e64 <l3867>:
    3e64:	e3a0c020 	mov	ip, #32

00003e68 <l3868>:
    3e68:	e68d900c 	str	r9, [sp], ip

00003e6c <l3869>:
    3e6c:	e1390213 	teq	r9, r3, lsl r2

00003e70 <l3870>:
    3e70:	7a000005 	bvc	3e8c <l3877>

00003e74 <l3871>:
    3e74:	e28010ba 	add	r1, r0, #186	; 0xba

00003e78 <l3872>:
    3e78:	61819006 	orrvs	r9, r1, r6

00003e7c <l3873>:
    3e7c:	e25889da 	subs	r8, r8, #3571712	; 0x368000

00003e80 <l3874>:
    3e80:	e11f0a4e 	tst	pc, lr, asr #20

00003e84 <l3875>:
    3e84:	e2afed3a 	adc	lr, pc, #3712	; 0xe80

00003e88 <l3876>:
    3e88:	ea000000 	b	3e90 <l3878>

00003e8c <l3877>:
    3e8c:	eafffff9 	b	3e78 <l3872>

00003e90 <l3878>:
    3e90:	41b0400e 	movsmi	r4, lr

00003e94 <l3879>:
    3e94:	4018b000 	andsmi	fp, r8, r0

00003e98 <l3880>:
    3e98:	e0254086 	eor	r4, r5, r6, lsl #1

00003e9c <l3881>:
    3e9c:	7082b06b 	addvc	fp, r2, fp, rrx

00003ea0 <l3882>:
    3ea0:	e0f07003 	rscs	r7, r0, r3

00003ea4 <l3883>:
    3ea4:	2a000004 	bcs	3ebc <l3889>

00003ea8 <l3884>:
    3ea8:	e28010ba 	add	r1, r0, #186	; 0xba

00003eac <l3885>:
    3eac:	b1a05000 	movlt	r5, r0

00003eb0 <l3886>:
    3eb0:	e012e460 	ands	lr, r2, r0, ror #8

00003eb4 <l3887>:
    3eb4:	e25f659d 	subs	r6, pc, #658505728	; 0x27400000

00003eb8 <l3888>:
    3eb8:	ea000000 	b	3ec0 <l3890>

00003ebc <l3889>:
    3ebc:	eafffffa 	b	3eac <l3885>

00003ec0 <l3890>:
    3ec0:	e22b39a6 	eor	r3, fp, #2719744	; 0x298000

00003ec4 <l3891>:
    3ec4:	e3a0700c 	mov	r7, #12

00003ec8 <l3892>:
    3ec8:	e73d7007 	ldr	r7, [sp, -r7]!

00003ecc <l3893>:
    3ecc:	e35e0a16 	cmp	lr, #90112	; 0x16000

00003ed0 <l3894>:
    3ed0:	b350027e 	cmplt	r0, #-536870905	; 0xe0000007

00003ed4 <l3895>:
    3ed4:	6a000002 	bvs	3ee4 <l3899>

00003ed8 <l3896>:
    3ed8:	8192e008 	orrshi	lr, r2, r8

00003edc <l3897>:
    3edc:	c0ebe003 	rscgt	lr, fp, r3

00003ee0 <l3898>:
    3ee0:	82c9366f 	sbchi	r3, r9, #116391936	; 0x6f00000

00003ee4 <l3899>:
    3ee4:	713a0067 	teqvc	sl, r7, rrx

00003ee8 <l3900>:
    3ee8:	d1d84869 	bicsle	r4, r8, r9, ror #16

00003eec <l3901>:
    3eec:	e1150c18 	tst	r5, r8, lsl ip

00003ef0 <l3902>:
    3ef0:	e2b3b57b 	adcs	fp, r3, #515899392	; 0x1ec00000

00003ef4 <l3903>:
    3ef4:	e0cb1533 	sbc	r1, fp, r3, lsr r5

00003ef8 <l3904>:
    3ef8:	00188654 	andseq	r8, r8, r4, asr r6

00003efc <l3905>:
    3efc:	e1898837 	orr	r8, r9, r7, lsr r8

00003f00 <l3906>:
    3f00:	20c2b739 	sbccs	fp, r2, r9, lsr r7

00003f04 <l3907>:
    3f04:	e2a10887 	adc	r0, r1, #8847360	; 0x870000

00003f08 <l3908>:
    3f08:	8111006e 	tsthi	r1, lr, rrx

00003f0c <l3909>:
    3f0c:	a3897cc7 	orrge	r7, r9, #50944	; 0xc700

00003f10 <l3910>:
    3f10:	e0671071 	rsb	r1, r7, r1, ror r0

00003f14 <l3911>:
    3f14:	e172053e 	cmn	r2, lr, lsr r5

00003f18 <l3912>:
    3f18:	71a0374f 	asrvc	r3, pc, #14

00003f1c <l3913>:
    3f1c:	4a000003 	bmi	3f30 <l3918>

00003f20 <l3914>:
    3f20:	e280101f 	add	r1, r0, #31

00003f24 <l3915>:
    3f24:	6133024a 	teqvs	r3, sl, asr #4

00003f28 <l3916>:
    3f28:	41f02a5a 	mvnsmi	r2, sl, asr sl

00003f2c <l3917>:
    3f2c:	ea000000 	b	3f34 <l3919>

00003f30 <l3918>:
    3f30:	eafffffb 	b	3f24 <l3915>

00003f34 <l3919>:
    3f34:	e1dcc079 	bics	ip, ip, r9, ror r0

00003f38 <l3920>:
    3f38:	e20519c2 	and	r1, r5, #3178496	; 0x308000

00003f3c <l3921>:
    3f3c:	83e07adb 	mvnhi	r7, #897024	; 0xdb000

00003f40 <l3922>:
    3f40:	e3320c3d 	teq	r2, #15616	; 0x3d00

00003f44 <l3923>:
    3f44:	b17c0532 	cmnlt	ip, r2, lsr r5

00003f48 <l3924>:
    3f48:	80b52004 	adcshi	r2, r5, r4

00003f4c <l3925>:
    3f4c:	ea000004 	b	3f64 <l3931>

00003f50 <l3926>:
    3f50:	e28010dc 	add	r1, r0, #220	; 0xdc

00003f54 <l3927>:
    3f54:	e275342b 	rsbs	r3, r5, #721420288	; 0x2b000000

00003f58 <l3928>:
    3f58:	91f0e002 	mvnsls	lr, r2

00003f5c <l3929>:
    3f5c:	e16f5f1a 	clz	r5, sl

00003f60 <l3930>:
    3f60:	ea000000 	b	3f68 <l3932>

00003f64 <l3931>:
    3f64:	eafffffa 	b	3f54 <l3927>

00003f68 <l3932>:
    3f68:	e3d9b165 	bics	fp, r9, #1073741849	; 0x40000019

00003f6c <l3933>:
    3f6c:	e38c5e5b 	orr	r5, ip, #1456	; 0x5b0

00003f70 <l3934>:
    3f70:	e0b816a5 	adcs	r1, r8, r5, lsr #13

00003f74 <l3935>:
    3f74:	80429b12 	subhi	r9, r2, r2, lsl fp

00003f78 <l3936>:
    3f78:	816f2f11 	clzhi	r2, r1

00003f7c <l3937>:
    3f7c:	e04852e7 	sub	r5, r8, r7, ror #5

00003f80 <l3938>:
    3f80:	e133000b 	teq	r3, fp

00003f84 <l3939>:
    3f84:	7a000004 	bvc	3f9c <l3945>

00003f88 <l3940>:
    3f88:	e28010c2 	add	r1, r0, #194	; 0xc2

00003f8c <l3941>:
    3f8c:	7031b06e 	eorsvc	fp, r1, lr, rrx

00003f90 <l3942>:
    3f90:	e19b400c 	orrs	r4, fp, ip

00003f94 <l3943>:
    3f94:	e06ea000 	rsb	sl, lr, r0

00003f98 <l3944>:
    3f98:	ea000000 	b	3fa0 <l3946>

00003f9c <l3945>:
    3f9c:	eafffffa 	b	3f8c <l3941>

00003fa0 <l3946>:
    3fa0:	e0fae006 	rscs	lr, sl, r6

00003fa4 <l3947>:
    3fa4:	816f8f15 	clzhi	r8, r5

00003fa8 <l3948>:
    3fa8:	e02f200c 	eor	r2, pc, ip

00003fac <l3949>:
    3fac:	e09ae343 	adds	lr, sl, r3, asr #6

00003fb0 <l3950>:
    3fb0:	d0dc8826 	sbcsle	r8, ip, r6, lsr #16

00003fb4 <l3951>:
    3fb4:	0025c062 	eoreq	ip, r5, r2, rrx

00003fb8 <l3952>:
    3fb8:	d0668ec0 	rsble	r8, r6, r0, asr #29

00003fbc <l3953>:
    3fbc:	ea000002 	b	3fcc <l3957>

00003fc0 <l3954>:
    3fc0:	e28010a7 	add	r1, r0, #167	; 0xa7

00003fc4 <l3955>:
    3fc4:	e1a0eaef 	ror	lr, pc, #21

00003fc8 <l3956>:
    3fc8:	ea000000 	b	3fd0 <l3958>

00003fcc <l3957>:
    3fcc:	eafffffc 	b	3fc4 <l3955>

00003fd0 <l3958>:
    3fd0:	b086006c 	addlt	r0, r6, ip, rrx

00003fd4 <l3959>:
    3fd4:	d11b0065 	tstle	fp, r5, rrx

00003fd8 <l3960>:
    3fd8:	82020fa3 	andhi	r0, r2, #652	; 0x28c

00003fdc <l3961>:
    3fdc:	aa000002 	bge	3fec <l3965>

00003fe0 <l3962>:
    3fe0:	e1720254 	cmn	r2, r4, asr r2

00003fe4 <l3963>:
    3fe4:	a1b0306f 	rrxsge	r3, pc

00003fe8 <l3964>:
    3fe8:	80d126a4 	sbcshi	r2, r1, r4, lsr #13

00003fec <l3965>:
    3fec:	e16f6f13 	clz	r6, r3

00003ff0 <l3966>:
    3ff0:	617a0005 	cmnvs	sl, r5

00003ff4 <l3967>:
    3ff4:	92e0845a 	rscls	r8, r0, #1509949440	; 0x5a000000

00003ff8 <l3968>:
    3ff8:	e0475c37 	sub	r5, r7, r7, lsr ip

00003ffc <l3969>:
    3ffc:	e02a7068 	eor	r7, sl, r8, rrx

00004000 <l3970>:
    4000:	a28fa56b 	addge	sl, pc, #448790528	; 0x1ac00000

00004004 <l3971>:
    4004:	e3a0c008 	mov	ip, #8

00004008 <l3972>:
    4008:	b71d100c 	ldrlt	r1, [sp, -ip]

0000400c <l3973>:
    400c:	ea000004 	b	4024 <l3979>

00004010 <l3974>:
    4010:	a19bbe34 	orrsge	fp, fp, r4, lsr lr

00004014 <l3975>:
    4014:	30cb4301 	sbccc	r4, fp, r1, lsl #6

00004018 <l3976>:
    4018:	7082811c 	addvc	r8, r2, ip, lsl r1

0000401c <l3977>:
    401c:	00239006 	eoreq	r9, r3, r6

00004020 <l3978>:
    4020:	c2276905 	eorgt	r6, r7, #81920	; 0x14000

00004024 <l3979>:
    4024:	e2a9630f 	adc	r6, r9, #1006632960	; 0x3c000000

00004028 <l3980>:
    4028:	41530014 	cmpmi	r3, r4, lsl r0

0000402c <l3981>:
    402c:	e3a0e004 	mov	lr, #4

00004030 <l3982>:
    4030:	e72de00e 	str	lr, [sp, -lr]!

00004034 <l3983>:
    4034:	e17f0001 	cmn	pc, r1

00004038 <l3984>:
    4038:	52084989 	andpl	r4, r8, #2244608	; 0x224000

0000403c <l3985>:
    403c:	c0aa6001 	adcgt	r6, sl, r1

00004040 <l3986>:
    4040:	324c4c07 	subcc	r4, ip, #1792	; 0x700

00004044 <l3987>:
    4044:	daffffff 	ble	4048 <l3988>

00004048 <l3988>:
    4048:	13963b63 	orrsne	r3, r6, #101376	; 0x18c00

0000404c <l3989>:
    404c:	e0c15063 	sbc	r5, r1, r3, rrx

00004050 <l3990>:
    4050:	809b2006 	addshi	r2, fp, r6

00004054 <l3991>:
    4054:	e2560102 	subs	r0, r6, #-2147483648	; 0x80000000

00004058 <l3992>:
    4058:	e0ff5066 	rscs	r5, pc, r6, rrx

0000405c <l3993>:
    405c:	e59de000 	ldr	lr, [sp]

00004060 <l3994>:
    4060:	802437a7 	eorhi	r3, r4, r7, lsr #15

00004064 <l3995>:
    4064:	e031bd6a 	eors	fp, r1, sl, ror #26

00004068 <l3996>:
    4068:	b01b4bc6 	andslt	r4, fp, r6, asr #23

0000406c <l3997>:
    406c:	a11c0067 	tstge	ip, r7, rrx

00004070 <l3998>:
    4070:	316fbf17 	clzcc	fp, r7

00004074 <l3999>:
    4074:	71e0606e 	mvnvc	r6, lr, rrx

00004078 <l4000>:
    4078:	d0751005 	rsbsle	r1, r5, r5

0000407c <l4001>:
    407c:	e16f4f17 	clz	r4, r7

00004080 <l4002>:
    4080:	e0bc1009 	adcs	r1, ip, r9

00004084 <l4003>:
    4084:	c153000c 	cmpgt	r3, ip

00004088 <l4004>:
    4088:	e1b00067 	rrxs	r0, r7

0000408c <l4005>:
    408c:	e028406f 	eor	r4, r8, pc, rrx

00004090 <l4006>:
    4090:	a16f8f13 	clzge	r8, r3

00004094 <l4007>:
    4094:	e5ad9024 	str	r9, [sp, #36]!	; 0x24

00004098 <l4008>:
    4098:	e0422008 	sub	r2, r2, r8

0000409c <l4009>:
    409c:	615b000f 	cmpvs	fp, pc

000040a0 <l4010>:
    40a0:	e31a0936 	tst	sl, #884736	; 0xd8000

000040a4 <l4011>:
    40a4:	51da7715 	bicspl	r7, sl, r5, lsl r7

000040a8 <l4012>:
    40a8:	91c52673 	bicls	r2, r5, r3, ror r6

000040ac <l4013>:
    40ac:	31f0500a 	mvnscc	r5, sl

000040b0 <l4014>:
    40b0:	e15b000e 	cmp	fp, lr

000040b4 <l4015>:
    40b4:	d1a08004 	movle	r8, r4

000040b8 <l4016>:
    40b8:	e52dc020 	str	ip, [sp, #-32]!

000040bc <l4017>:
    40bc:	4a000002 	bmi	40cc <l4021>

000040c0 <l4018>:
    40c0:	e1550cce 	cmp	r5, lr, asr #25

000040c4 <l4019>:
    40c4:	116f5f1b 	clzne	r5, fp

000040c8 <l4020>:
    40c8:	d35006c3 	cmple	r0, #204472320	; 0xc300000

000040cc <l4021>:
    40cc:	e3b08626 	movs	r8, #39845888	; 0x2600000

000040d0 <l4022>:
    40d0:	53f01a31 	mvnspl	r1, #200704	; 0x31000

000040d4 <l4023>:
    40d4:	7a000007 	bvc	40f8 <l4032>

000040d8 <l4024>:
    40d8:	e2801050 	add	r1, r0, #80	; 0x50

000040dc <l4025>:
    40dc:	e0c8300b 	sbc	r3, r8, fp

000040e0 <l4026>:
    40e0:	e043b2aa 	sub	fp, r3, sl, lsr #5

000040e4 <l4027>:
    40e4:	309c32ef 	addscc	r3, ip, pc, ror #5

000040e8 <l4028>:
    40e8:	a0fe2063 	rscsge	r2, lr, r3, rrx

000040ec <l4029>:
    40ec:	831400fc 	tsthi	r4, #252	; 0xfc

000040f0 <l4030>:
    40f0:	61b02f81 	lslsvs	r2, r1, #31

000040f4 <l4031>:
    40f4:	ea000000 	b	40fc <l4033>

000040f8 <l4032>:
    40f8:	eafffff7 	b	40dc <l4025>

000040fc <l4033>:
    40fc:	e48d9008 	str	r9, [sp], #8

00004100 <l4034>:
    4100:	e0196a33 	ands	r6, r9, r3, lsr sl

00004104 <l4035>:
    4104:	71a03063 	rrxvc	r3, r3

00004108 <l4036>:
    4108:	3138021c 	teqcc	r8, ip, lsl r2

0000410c <l4037>:
    410c:	9a000005 	bls	4128 <l4044>

00004110 <l4038>:
    4110:	e2801052 	add	r1, r0, #82	; 0x52

00004114 <l4039>:
    4114:	e2aee581 	adc	lr, lr, #541065216	; 0x20400000

00004118 <l4040>:
    4118:	31390c7e 	teqcc	r9, lr, ror ip

0000411c <l4041>:
    411c:	6237e356 	eorsvs	lr, r7, #1476395009	; 0x58000001

00004120 <l4042>:
    4120:	e2522789 	subs	r2, r2, #35913728	; 0x2240000

00004124 <l4043>:
    4124:	ea000000 	b	412c <l4045>

00004128 <l4044>:
    4128:	eafffff9 	b	4114 <l4039>

0000412c <l4045>:
    412c:	93b0a907 	movsls	sl, #114688	; 0x1c000

00004130 <l4046>:
    4130:	c59dc000 	ldrgt	ip, [sp]

00004134 <l4047>:
    4134:	e0c05064 	sbc	r5, r0, r4, rrx

00004138 <l4048>:
    4138:	a155006b 	cmpge	r5, fp, rrx

0000413c <l4049>:
    413c:	b046433a 	sublt	r4, r6, sl, lsr r3

00004140 <l4050>:
    4140:	e3a04004 	mov	r4, #4

00004144 <l4051>:
    4144:	e78d5004 	str	r5, [sp, r4]

00004148 <l4052>:
    4148:	a2f10d79 	rscsge	r0, r1, #7744	; 0x1e40

0000414c <l4053>:
    414c:	033204be 	teqeq	r2, #-1107296256	; 0xbe000000

00004150 <l4054>:
    4150:	e3a01024 	mov	r1, #36	; 0x24

00004154 <l4055>:
    4154:	071dc001 	ldreq	ip, [sp, -r1]

00004158 <l4056>:
    4158:	e1931063 	orrs	r1, r3, r3, rrx

0000415c <l4057>:
    415c:	e390c40e 	orrs	ip, r0, #234881024	; 0xe000000

00004160 <l4058>:
    4160:	605496a1 	subsvs	r9, r4, r1, lsr #13

00004164 <l4059>:
    4164:	529a00c5 	addspl	r0, sl, #197	; 0xc5

00004168 <l4060>:
    4168:	b0455061 	sublt	r5, r5, r1, rrx

0000416c <l4061>:
    416c:	e3a03018 	mov	r3, #24

00004170 <l4062>:
    4170:	279db003 	ldrcs	fp, [sp, r3]

00004174 <l4063>:
    4174:	e40de01c 	str	lr, [sp], #-28

00004178 <l4064>:
    4178:	70665001 	rsbvc	r5, r6, r1

0000417c <l4065>:
    417c:	e5adb020 	str	fp, [sp, #32]!

00004180 <l4066>:
    4180:	650d800c 	strvs	r8, [sp, #-12]

00004184 <l4067>:
    4184:	80446007 	subhi	r6, r4, r7

00004188 <l4068>:
    4188:	e1947948 	orrs	r7, r4, r8, asr #18

0000418c <l4069>:
    418c:	e0df8002 	sbcs	r8, pc, r2

00004190 <l4070>:
    4190:	a1b018a2 	lsrsge	r1, r2, #17

00004194 <l4071>:
    4194:	0182c973 	orreq	ip, r2, r3, ror r9

00004198 <l4072>:
    4198:	e001c009 	and	ip, r1, r9

0000419c <l4073>:
    419c:	e41d6008 	ldr	r6, [sp], #-8

000041a0 <l4074>:
    41a0:	716faf11 	clzvc	sl, r1

000041a4 <l4075>:
    41a4:	d16f5f1c 	clzle	r5, ip

000041a8 <l4076>:
    41a8:	40046b14 	andmi	r6, r4, r4, lsl fp

000041ac <l4077>:
    41ac:	a0f9c003 	rscsge	ip, r9, r3

000041b0 <l4078>:
    41b0:	c0f6edea 	rscsgt	lr, r6, sl, ror #27

000041b4 <l4079>:
    41b4:	e130006e 	teq	r0, lr, rrx

000041b8 <l4080>:
    41b8:	9a000007 	bls	41dc <l4089>

000041bc <l4081>:
    41bc:	c1f05005 	mvnsgt	r5, r5

000041c0 <l4082>:
    41c0:	a1520967 	cmpge	r2, r7, ror #18

000041c4 <l4083>:
    41c4:	6013706c 	andsvs	r7, r3, ip, rrx

000041c8 <l4084>:
    41c8:	33180e6f 	tstcc	r8, #1776	; 0x6f0

000041cc <l4085>:
    41cc:	e0e55063 	rsc	r5, r5, r3, rrx

000041d0 <l4086>:
    41d0:	e1b0181a 	lsls	r1, sl, r8

000041d4 <l4087>:
    41d4:	01b0a770 	rorseq	sl, r0, r7

000041d8 <l4088>:
    41d8:	d05c3066 	subsle	r3, ip, r6, rrx

000041dc <l4089>:
    41dc:	50ec7004 	rscpl	r7, ip, r4

000041e0 <l4090>:
    41e0:	837101cf 	cmnhi	r1, #-1073741773	; 0xc0000033

000041e4 <l4091>:
    41e4:	ea000007 	b	4208 <l4100>

000041e8 <l4092>:
    41e8:	e280100f 	add	r1, r0, #15

000041ec <l4093>:
    41ec:	4060a651 	rsbmi	sl, r0, r1, asr r6

000041f0 <l4094>:
    41f0:	033a0b0f 	teqeq	sl, #15360	; 0x3c00

000041f4 <l4095>:
    41f4:	a1f028ca 	mvnsge	r2, sl, asr #17

000041f8 <l4096>:
    41f8:	e042406b 	sub	r4, r2, fp, rrx

000041fc <l4097>:
    41fc:	e180c062 	orr	ip, r0, r2, rrx

00004200 <l4098>:
    4200:	e18181e1 	orr	r8, r1, r1, ror #3

00004204 <l4099>:
    4204:	ea000000 	b	420c <l4101>

00004208 <l4100>:
    4208:	eafffff7 	b	41ec <l4093>

0000420c <l4101>:
    420c:	c088c928 	addgt	ip, r8, r8, lsr #18

00004210 <l4102>:
    4210:	c11c000c 	tstgt	ip, ip

00004214 <l4103>:
    4214:	e17b0b32 	cmn	fp, r2, lsr fp

00004218 <l4104>:
    4218:	3a000004 	bcc	4230 <l4110>

0000421c <l4105>:
    421c:	e28010f4 	add	r1, r0, #244	; 0xf4

00004220 <l4106>:
    4220:	e1530005 	cmp	r3, r5

00004224 <l4107>:
    4224:	c012ab41 	andsgt	sl, r2, r1, asr #22

00004228 <l4108>:
    4228:	d31c0e1f 	tstle	ip, #496	; 0x1f0

0000422c <l4109>:
    422c:	ea000000 	b	4234 <l4111>

00004230 <l4110>:
    4230:	eafffffa 	b	4220 <l4106>

00004234 <l4111>:
    4234:	e0c2006b 	sbc	r0, r2, fp, rrx

00004238 <l4112>:
    4238:	e0249310 	eor	r9, r4, r0, lsl r3

0000423c <l4113>:
    423c:	459da000 	ldrmi	sl, [sp]

00004240 <l4114>:
    4240:	e1b01a45 	asrs	r1, r5, #20

00004244 <l4115>:
    4244:	023c363d 	eorseq	r3, ip, #63963136	; 0x3d00000

00004248 <l4116>:
    4248:	b16faf13 	clzlt	sl, r3

0000424c <l4117>:
    424c:	e0a5a00f 	adc	sl, r5, pc

00004250 <l4118>:
    4250:	e1d10002 	bics	r0, r1, r2

00004254 <l4119>:
    4254:	1081e63c 	addne	lr, r1, ip, lsr r6

00004258 <l4120>:
    4258:	ea000000 	b	4260 <l4122>

0000425c <l4121>:
    425c:	21c3b002 	biccs	fp, r3, r2

00004260 <l4122>:
    4260:	41770818 	cmnmi	r7, r8, lsl r8

00004264 <l4123>:
    4264:	41a0682e 	lsrmi	r6, lr, #16

00004268 <l4124>:
    4268:	e0622001 	rsb	r2, r2, r1

0000426c <l4125>:
    426c:	7a000007 	bvc	4290 <l4134>

00004270 <l4126>:
    4270:	41b0506f 	rrxsmi	r5, pc

00004274 <l4127>:
    4274:	92457262 	subls	r7, r5, #536870918	; 0x20000006

00004278 <l4128>:
    4278:	d005e853 	andle	lr, r5, r3, asr r8

0000427c <l4129>:
    427c:	11f0053e 	mvnsne	r0, lr, lsr r5

00004280 <l4130>:
    4280:	e319050e 	tst	r9, #58720256	; 0x3800000

00004284 <l4131>:
    4284:	3058900f 	subscc	r9, r8, pc

00004288 <l4132>:
    4288:	2216a442 	andscs	sl, r6, #1107296256	; 0x42000000

0000428c <l4133>:
    428c:	e07cbe10 	rsbs	fp, ip, r0, lsl lr

00004290 <l4134>:
    4290:	a03a194b 	eorsge	r1, sl, fp, asr #18

00004294 <l4135>:
    4294:	e3a0a010 	mov	sl, #16

00004298 <l4136>:
    4298:	e73d500a 	ldr	r5, [sp, -sl]!

0000429c <l4137>:
    429c:	750df008 	strvc	pc, [sp, #-8]

000042a0 <l4138>:
    42a0:	a1e0a00f 	mvnge	sl, pc

000042a4 <l4139>:
    42a4:	10772442 	rsbsne	r2, r7, r2, asr #8

000042a8 <l4140>:
    42a8:	e37c0422 	cmn	ip, #570425344	; 0x22000000

000042ac <l4141>:
    42ac:	e25f2c71 	subs	r2, pc, #28928	; 0x7100

000042b0 <l4142>:
    42b0:	e3a0c004 	mov	ip, #4

000042b4 <l4143>:
    42b4:	e60d800c 	str	r8, [sp], -ip

000042b8 <l4144>:
    42b8:	e19e700b 	orrs	r7, lr, fp

000042bc <l4145>:
    42bc:	e203170d 	and	r1, r3, #3407872	; 0x340000

000042c0 <l4146>:
    42c0:	e1780006 	cmn	r8, r6

000042c4 <l4147>:
    42c4:	602b2fa2 	eorvs	r2, fp, r2, lsr #31

000042c8 <l4148>:
    42c8:	111e006a 	tstne	lr, sl, rrx

000042cc <l4149>:
    42cc:	e1a07066 	rrx	r7, r6

000042d0 <l4150>:
    42d0:	c23f6b11 	eorsgt	r6, pc, #17408	; 0x4400

000042d4 <l4151>:
    42d4:	61f04000 	mvnsvs	r4, r0

000042d8 <l4152>:
    42d8:	a011c06c 	andsge	ip, r1, ip, rrx

000042dc <l4153>:
    42dc:	00429ca1 	subeq	r9, r2, r1, lsr #25

000042e0 <l4154>:
    42e0:	819f63c8 	orrshi	r6, pc, r8, asr #7

000042e4 <l4155>:
    42e4:	ea000001 	b	42f0 <l4158>

000042e8 <l4156>:
    42e8:	c0545062 	subsgt	r5, r4, r2, rrx

000042ec <l4157>:
    42ec:	40583169 	subsmi	r3, r8, r9, ror #2

000042f0 <l4158>:
    42f0:	735b0789 	cmpvc	fp, #35913728	; 0x2240000

000042f4 <l4159>:
    42f4:	b59d9038 	ldrlt	r9, [sp, #56]	; 0x38

000042f8 <l4160>:
    42f8:	e0d7c035 	sbcs	ip, r7, r5, lsr r0

000042fc <l4161>:
    42fc:	9a000008 	bls	4324 <l4171>

00004300 <l4162>:
    4300:	11e05b55 	mvnne	r5, r5, asr fp

00004304 <l4163>:
    4304:	815f040b 	cmphi	pc, fp, lsl #8

00004308 <l4164>:
    4308:	807b1000 	rsbshi	r1, fp, r0

0000430c <l4165>:
    430c:	e1cf006c 	bic	r0, pc, ip, rrx

00004310 <l4166>:
    4310:	60734002 	rsbsvs	r4, r3, r2

00004314 <l4167>:
    4314:	e0d3cae4 	sbcs	ip, r3, r4, ror #21

00004318 <l4168>:
    4318:	40b8cd24 	adcsmi	ip, r8, r4, lsr #26

0000431c <l4169>:
    431c:	e2899ffd 	add	r9, r9, #1012	; 0x3f4

00004320 <l4170>:
    4320:	835c0d42 	cmphi	ip, #4224	; 0x1080

00004324 <l4171>:
    4324:	309e957e 	addscc	r9, lr, lr, ror r5

00004328 <l4172>:
    4328:	81720003 	cmnhi	r2, r3

0000432c <l4173>:
    432c:	613b000c 	teqvs	fp, ip

00004330 <l4174>:
    4330:	e2b943b6 	adcs	r4, r9, #-671088638	; 0xd8000002

00004334 <l4175>:
    4334:	e22c013b 	eor	r0, ip, #-1073741810	; 0xc000000e

00004338 <l4176>:
    4338:	ea000000 	b	4340 <l4178>

0000433c <l4177>:
    433c:	413a0001 	teqmi	sl, r1

00004340 <l4178>:
    4340:	807b806c 	rsbshi	r8, fp, ip, rrx

00004344 <l4179>:
    4344:	7a000000 	bvc	434c <l4181>

00004348 <l4180>:
    4348:	61550003 	cmpvs	r5, r3

0000434c <l4181>:
    434c:	30529c2c 	subscc	r9, r2, ip, lsr #24

00004350 <l4182>:
    4350:	d2b0a92e 	adcsle	sl, r0, #753664	; 0xb8000

00004354 <l4183>:
    4354:	e16f2f1c 	clz	r2, ip

00004358 <l4184>:
    4358:	00ca6002 	sbceq	r6, sl, r2

0000435c <l4185>:
    435c:	2a000001 	bcs	4368 <l4188>

00004360 <l4186>:
    4360:	12393589 	eorsne	r3, r9, #574619648	; 0x22400000

00004364 <l4187>:
    4364:	e01456a3 	ands	r5, r4, r3, lsr #13

00004368 <l4188>:
    4368:	e1a03605 	lsl	r3, r5, #12

0000436c <l4189>:
    436c:	e0b5bc78 	adcs	fp, r5, r8, ror ip

00004370 <l4190>:
    4370:	e1a07002 	mov	r7, r2

00004374 <l4191>:
    4374:	3a000004 	bcc	438c <l4197>

00004378 <l4192>:
    4378:	e2801002 	add	r1, r0, #2

0000437c <l4193>:
    437c:	e04ec008 	sub	ip, lr, r8

00004380 <l4194>:
    4380:	e018b0c0 	ands	fp, r8, r0, asr #1

00004384 <l4195>:
    4384:	81e0006b 	mvnhi	r0, fp, rrx

00004388 <l4196>:
    4388:	ea000000 	b	4390 <l4198>

0000438c <l4197>:
    438c:	eafffffa 	b	437c <l4193>

00004390 <l4198>:
    4390:	40055001 	andmi	r5, r5, r1

00004394 <l4199>:
    4394:	e014c009 	ands	ip, r4, r9

00004398 <l4200>:
    4398:	e399502d 	orrs	r5, r9, #45	; 0x2d

0000439c <l4201>:
    439c:	e0a71e13 	adc	r1, r7, r3, lsl lr

000043a0 <l4202>:
    43a0:	e05f87ef 	subs	r8, pc, pc, ror #15

000043a4 <l4203>:
    43a4:	e3b0c926 	movs	ip, #622592	; 0x98000

000043a8 <l4204>:
    43a8:	c237871d 	eorsgt	r8, r7, #7602176	; 0x740000

000043ac <l4205>:
    43ac:	63a01509 	movvs	r1, #37748736	; 0x2400000

000043b0 <l4206>:
    43b0:	e08fc06f 	add	ip, pc, pc, rrx

000043b4 <l4207>:
    43b4:	e2723841 	rsbs	r3, r2, #4259840	; 0x410000

000043b8 <l4208>:
    43b8:	e1d25b5b 	bics	r5, r2, fp, asr fp

000043bc <l4209>:
    43bc:	e044c060 	sub	ip, r4, r0, rrx

000043c0 <l4210>:
    43c0:	e0a03007 	adc	r3, r0, r7

000043c4 <l4211>:
    43c4:	11b00e61 	rorsne	r0, r1, #28

000043c8 <l4212>:
    43c8:	e02c2518 	eor	r2, ip, r8, lsl r5

000043cc <l4213>:
    43cc:	e0250ea6 	eor	r0, r5, r6, lsr #29

000043d0 <l4214>:
    43d0:	6200ca3d 	andvs	ip, r0, #249856	; 0x3d000

000043d4 <l4215>:
    43d4:	616f5f15 	clzvs	r5, r5

000043d8 <l4216>:
    43d8:	e27900f2 	rsbs	r0, r9, #242	; 0xf2

000043dc <l4217>:
    43dc:	100b4007 	andne	r4, fp, r7

000043e0 <l4218>:
    43e0:	21c0cd03 	biccs	ip, r0, r3, lsl #26

000043e4 <l4219>:
    43e4:	10ae100b 	adcne	r1, lr, fp

000043e8 <l4220>:
    43e8:	e3a0500c 	mov	r5, #12

000043ec <l4221>:
    43ec:	378d5005 	strcc	r5, [sp, r5]

000043f0 <l4222>:
    43f0:	30735007 	rsbscc	r5, r3, r7

000043f4 <l4223>:
    43f4:	1111000e 	tstne	r1, lr

000043f8 <l4224>:
    43f8:	e0af796e 	adc	r7, pc, lr, ror #18

000043fc <l4225>:
    43fc:	91550002 	cmpls	r5, r2

00004400 <l4226>:
    4400:	01150f6f 	tsteq	r5, pc, ror #30

00004404 <l4227>:
    4404:	30ce2001 	sbccc	r2, lr, r1

00004408 <l4228>:
    4408:	11760007 	cmnne	r6, r7

0000440c <l4229>:
    440c:	937c0a13 	cmnls	ip, #77824	; 0x13000

00004410 <l4230>:
    4410:	e13e0a3e 	teq	lr, lr, lsr sl

00004414 <l4231>:
    4414:	d1a01002 	movle	r1, r2

00004418 <l4232>:
    4418:	909c273e 	addsls	r2, ip, lr, lsr r7

0000441c <l4233>:
    441c:	5a000003 	bpl	4430 <l4238>

00004420 <l4234>:
    4420:	e2801043 	add	r1, r0, #67	; 0x43

00004424 <l4235>:
    4424:	00494003 	subeq	r4, r9, r3

00004428 <l4236>:
    4428:	e3827119 	orr	r7, r2, #1073741830	; 0x40000006

0000442c <l4237>:
    442c:	ea000000 	b	4434 <l4239>

00004430 <l4238>:
    4430:	eafffffb 	b	4424 <l4235>

00004434 <l4239>:
    4434:	e11c006b 	tst	ip, fp, rrx

00004438 <l4240>:
    4438:	e1e0200b 	mvn	r2, fp

0000443c <l4241>:
    443c:	e064505a 	rsb	r5, r4, sl, asr r0

00004440 <l4242>:
    4440:	d0d6ea11 	sbcsle	lr, r6, r1, lsl sl

00004444 <l4243>:
    4444:	e48d301c 	str	r3, [sp], #28

00004448 <l4244>:
    4448:	e40d2014 	str	r2, [sp], #-20

0000444c <l4245>:
    444c:	30c0bbaf 	sbccc	fp, r0, pc, lsr #23

00004450 <l4246>:
    4450:	313a0004 	teqcc	sl, r4

00004454 <l4247>:
    4454:	e0e1be17 	rsc	fp, r1, r7, lsl lr

00004458 <l4248>:
    4458:	e16f0f17 	clz	r0, r7

0000445c <l4249>:
    445c:	e1750005 	cmn	r5, r5

00004460 <l4250>:
    4460:	e3d85eee 	bics	r5, r8, #3808	; 0xee0

00004464 <l4251>:
    4464:	31a07857 	asrcc	r7, r7, r8

00004468 <l4252>:
    4468:	e3130303 	tst	r3, #201326592	; 0xc000000

0000446c <l4253>:
    446c:	e1e0000a 	mvn	r0, sl

00004470 <l4254>:
    4470:	416f4f16 	clzmi	r4, r6

00004474 <l4255>:
    4474:	e3a0c020 	mov	ip, #32

00004478 <l4256>:
    4478:	e7bdc00c 	ldr	ip, [sp, ip]!

0000447c <l4257>:
    447c:	335a01d3 	cmpcc	sl, #-1073741772	; 0xc0000034

00004480 <l4258>:
    4480:	e2887c1e 	add	r7, r8, #7680	; 0x1e00

00004484 <l4259>:
    4484:	020f813b 	andeq	r8, pc, #-1073741810	; 0xc000000e

00004488 <l4260>:
    4488:	d1720572 	cmnle	r2, r2, ror r5

0000448c <l4261>:
    448c:	e3a05004 	mov	r5, #4

00004490 <l4262>:
    4490:	e68d2005 	str	r2, [sp], r5

00004494 <l4263>:
    4494:	e0b0a006 	adcs	sl, r0, r6

00004498 <l4264>:
    4498:	31d85622 	bicscc	r5, r8, r2, lsr #12

0000449c <l4265>:
    449c:	e37a0685 	cmn	sl, #139460608	; 0x8500000

000044a0 <l4266>:
    44a0:	920179a3 	andls	r7, r1, #2670592	; 0x28c000

000044a4 <l4267>:
    44a4:	e05b3007 	subs	r3, fp, r7

000044a8 <l4268>:
    44a8:	60d17064 	sbcsvs	r7, r1, r4, rrx

000044ac <l4269>:
    44ac:	337f09d1 	cmncc	pc, #3424256	; 0x344000

000044b0 <l4270>:
    44b0:	e03be83c 	eors	lr, fp, ip, lsr r8

000044b4 <l4271>:
    44b4:	6210480e 	andsvs	r4, r0, #917504	; 0xe0000

000044b8 <l4272>:
    44b8:	809cb00c 	addshi	fp, ip, ip

000044bc <l4273>:
    44bc:	e136067c 	teq	r6, ip, ror r6

000044c0 <l4274>:
    44c0:	7a000007 	bvc	44e4 <l4283>

000044c4 <l4275>:
    44c4:	e2801030 	add	r1, r0, #48	; 0x30

000044c8 <l4276>:
    44c8:	5069bf8e 	rsbpl	fp, r9, lr, lsl #31

000044cc <l4277>:
    44cc:	e157084c 	cmp	r7, ip, asr #16

000044d0 <l4278>:
    44d0:	e2468fdd 	sub	r8, r6, #884	; 0x374

000044d4 <l4279>:
    44d4:	816f1f1a 	clzhi	r1, sl

000044d8 <l4280>:
    44d8:	1095763c 	addsne	r7, r5, ip, lsr r6

000044dc <l4281>:
    44dc:	e040b00e 	sub	fp, r0, lr

000044e0 <l4282>:
    44e0:	ea000000 	b	44e8 <l4284>

000044e4 <l4283>:
    44e4:	eafffff7 	b	44c8 <l4276>

000044e8 <l4284>:
    44e8:	e3a07034 	mov	r7, #52	; 0x34

000044ec <l4285>:
    44ec:	e60da007 	str	sl, [sp], -r7

000044f0 <l4286>:
    44f0:	107ba004 	rsbsne	sl, fp, r4

000044f4 <l4287>:
    44f4:	ea000006 	b	4514 <l4295>

000044f8 <l4288>:
    44f8:	e2801006 	add	r1, r0, #6

000044fc <l4289>:
    44fc:	e1a03647 	asr	r3, r7, #12

00004500 <l4290>:
    4500:	e2dec10d 	sbcs	ip, lr, #1073741827	; 0x40000003

00004504 <l4291>:
    4504:	b11e0c76 	tstlt	lr, r6, ror ip

00004508 <l4292>:
    4508:	e132006a 	teq	r2, sl, rrx

0000450c <l4293>:
    450c:	e069c27b 	rsb	ip, r9, fp, ror r2

00004510 <l4294>:
    4510:	ea000000 	b	4518 <l4296>

00004514 <l4295>:
    4514:	eafffff8 	b	44fc <l4289>

00004518 <l4296>:
    4518:	c16faf12 	clzgt	sl, r2

0000451c <l4297>:
    451c:	e0e91066 	rsc	r1, r9, r6, rrx

00004520 <l4298>:
    4520:	d1180001 	tstle	r8, r1

00004524 <l4299>:
    4524:	e021b00c 	eor	fp, r1, ip

00004528 <l4300>:
    4528:	b05b1f4c 	subslt	r1, fp, ip, asr #30

0000452c <l4301>:
    452c:	0134068f 	teqeq	r4, pc, lsl #13

00004530 <l4302>:
    4530:	b0560a1e 	subslt	r0, r6, lr, lsl sl

00004534 <l4303>:
    4534:	e055c321 	subs	ip, r5, r1, lsr #6

00004538 <l4304>:
    4538:	358df03c 	strcc	pc, [sp, #60]	; 0x3c

0000453c <l4305>:
    453c:	c05c3006 	subsgt	r3, ip, r6

00004540 <l4306>:
    4540:	a37b008c 	cmnge	fp, #140	; 0x8c

00004544 <l4307>:
    4544:	703ab003 	eorsvc	fp, sl, r3

00004548 <l4308>:
    4548:	52f26b79 	rscspl	r6, r2, #123904	; 0x1e400

0000454c <l4309>:
    454c:	b17204a4 	cmnlt	r2, r4, lsr #9

00004550 <l4310>:
    4550:	e3da6709 	bics	r6, sl, #2359296	; 0x240000

00004554 <l4311>:
    4554:	e16f2f1a 	clz	r2, sl

00004558 <l4312>:
    4558:	31977c66 	orrscc	r7, r7, r6, ror #24

0000455c <l4313>:
    455c:	20bf600b 	adcscs	r6, pc, fp

00004560 <l4314>:
    4560:	111b0e36 	tstne	fp, r6, lsr lr

00004564 <l4315>:
    4564:	5a000006 	bpl	4584 <l4323>

00004568 <l4316>:
    4568:	e2801005 	add	r1, r0, #5

0000456c <l4317>:
    456c:	016f0f11 	clzeq	r0, r1

00004570 <l4318>:
    4570:	e16f8f1b 	clz	r8, fp

00004574 <l4319>:
    4574:	e15b0009 	cmp	fp, r9

00004578 <l4320>:
    4578:	e3e03962 	mvn	r3, #1605632	; 0x188000

0000457c <l4321>:
    457c:	30e80949 	rsccc	r0, r8, r9, asr #18

00004580 <l4322>:
    4580:	ea000000 	b	4588 <l4324>

00004584 <l4323>:
    4584:	eafffff8 	b	456c <l4317>

00004588 <l4324>:
    4588:	80a364e4 	adchi	r6, r3, r4, ror #9

0000458c <l4325>:
    458c:	eaffffff 	b	4590 <l4326>

00004590 <l4326>:
    4590:	b221b47f 	eorlt	fp, r1, #2130706432	; 0x7f000000

00004594 <l4327>:
    4594:	213c0004 	teqcs	ip, r4

00004598 <l4328>:
    4598:	e182592f 	orr	r5, r2, pc, lsr #18

0000459c <l4329>:
    459c:	5031800a 	eorspl	r8, r1, sl

000045a0 <l4330>:
    45a0:	e03e4006 	eors	r4, lr, r6

000045a4 <l4331>:
    45a4:	a1c5a064 	bicge	sl, r5, r4, rrx

000045a8 <l4332>:
    45a8:	90585112 	subsls	r5, r8, r2, lsl r1

000045ac <l4333>:
    45ac:	4033e257 	eorsmi	lr, r3, r7, asr r2

000045b0 <l4334>:
    45b0:	e0401004 	sub	r1, r0, r4

000045b4 <l4335>:
    45b4:	e00a2510 	and	r2, sl, r0, lsl r5

000045b8 <l4336>:
    45b8:	1043a000 	subne	sl, r3, r0

000045bc <l4337>:
    45bc:	3130000c 	teqcc	r0, ip

000045c0 <l4338>:
    45c0:	b13a09ab 	teqlt	sl, fp, lsr #19

000045c4 <l4339>:
    45c4:	c02e3004 	eorgt	r3, lr, r4

000045c8 <l4340>:
    45c8:	e0bea06e 	adcs	sl, lr, lr, rrx

000045cc <l4341>:
    45cc:	00902001 	addseq	r2, r0, r1

000045d0 <l4342>:
    45d0:	e05fa008 	subs	sl, pc, r8

000045d4 <l4343>:
    45d4:	73b00d83 	movsvc	r0, #8384	; 0x20c0

000045d8 <l4344>:
    45d8:	e0eb6100 	rsc	r6, fp, r0, lsl #2

000045dc <l4345>:
    45dc:	e1cb3850 	bic	r3, fp, r0, asr r8

000045e0 <l4346>:
    45e0:	e175006a 	cmn	r5, sl, rrx

000045e4 <l4347>:
    45e4:	e1c3aa56 	bic	sl, r3, r6, asr sl

000045e8 <l4348>:
    45e8:	b16fcf17 	clzlt	ip, r7

000045ec <l4349>:
    45ec:	80573ba6 	subshi	r3, r7, r6, lsr #23

000045f0 <l4350>:
    45f0:	e33909a1 	teq	r9, #2637824	; 0x284000

000045f4 <l4351>:
    45f4:	c318093e 	tstgt	r8, #1015808	; 0xf8000

000045f8 <l4352>:
    45f8:	8192b8a3 	orrshi	fp, r2, r3, lsr #17

000045fc <l4353>:
    45fc:	e0254068 	eor	r4, r5, r8, rrx

00004600 <l4354>:
    4600:	a17e0003 	cmnge	lr, r3

00004604 <l4355>:
    4604:	22a2678d 	adccs	r6, r2, #36962304	; 0x2340000

00004608 <l4356>:
    4608:	e15b025c 	cmp	fp, ip, asr r2

0000460c <l4357>:
    460c:	72583e32 	subsvc	r3, r8, #800	; 0x320

00004610 <l4358>:
    4610:	718b4007 	orrvc	r4, fp, r7

00004614 <l4359>:
    4614:	e35f00d2 	cmp	pc, #210	; 0xd2

00004618 <l4360>:
    4618:	c3b04809 	movsgt	r4, #589824	; 0x90000

0000461c <l4361>:
    461c:	402f8005 	eormi	r8, pc, r5

00004620 <l4362>:
    4620:	e15e0550 	cmp	lr, r0, asr r5

00004624 <l4363>:
    4624:	a0c02e34 	sbcge	r2, r0, r4, lsr lr

00004628 <l4364>:
    4628:	6253cbed 	subsvs	ip, r3, #242688	; 0x3b400

0000462c <l4365>:
    462c:	e2ffbc05 	rscs	fp, pc, #1280	; 0x500

00004630 <l4366>:
    4630:	ea000002 	b	4640 <l4370>

00004634 <l4367>:
    4634:	e2801052 	add	r1, r0, #82	; 0x52

00004638 <l4368>:
    4638:	9005900b 	andls	r9, r5, fp

0000463c <l4369>:
    463c:	ea000000 	b	4644 <l4371>

00004640 <l4370>:
    4640:	eafffffc 	b	4638 <l4368>

00004644 <l4371>:
    4644:	e1b06065 	rrxs	r6, r5

00004648 <l4372>:
    4648:	e04c0211 	sub	r0, ip, r1, lsl r2

0000464c <l4373>:
    464c:	e21943bf 	ands	r4, r9, #-67108862	; 0xfc000002

00004650 <l4374>:
    4650:	60491007 	subvs	r1, r9, r7

00004654 <l4375>:
    4654:	d1836b17 	orrle	r6, r3, r7, lsl fp

00004658 <l4376>:
    4658:	b59d2004 	ldrlt	r2, [sp, #4]

0000465c <l4377>:
    465c:	e0d49064 	sbcs	r9, r4, r4, rrx

00004660 <l4378>:
    4660:	e3a00030 	mov	r0, #48	; 0x30

00004664 <l4379>:
    4664:	e69d5000 	ldr	r5, [sp], r0

00004668 <l4380>:
    4668:	e018007b 	ands	r0, r8, fp, ror r0

0000466c <l4381>:
    466c:	109e606e 	addsne	r6, lr, lr, rrx

00004670 <l4382>:
    4670:	6173006e 	cmnvs	r3, lr, rrx

00004674 <l4383>:
    4674:	e13708ce 	teq	r7, lr, asr #17

00004678 <l4384>:
    4678:	e07a891c 	rsbs	r8, sl, ip, lsl r9

0000467c <l4385>:
    467c:	e2f362d3 	rscs	r6, r3, #805306381	; 0x3000000d

00004680 <l4386>:
    4680:	41d63005 	bicsmi	r3, r6, r5

00004684 <l4387>:
    4684:	0054e001 	subseq	lr, r4, r1

00004688 <l4388>:
    4688:	d187b8e2 	orrle	fp, r7, r2, ror #17

0000468c <l4389>:
    468c:	915b0069 	cmpls	fp, r9, rrx

00004690 <l4390>:
    4690:	90a08c1a 	adcls	r8, r0, sl, lsl ip

00004694 <l4391>:
    4694:	ea000006 	b	46b4 <l4399>

00004698 <l4392>:
    4698:	e2801044 	add	r1, r0, #68	; 0x44

0000469c <l4393>:
    469c:	51f0e87a 	mvnspl	lr, sl, ror r8

000046a0 <l4394>:
    46a0:	135107a7 	cmpne	r1, #43778048	; 0x29c0000

000046a4 <l4395>:
    46a4:	a16f4f15 	clzge	r4, r5

000046a8 <l4396>:
    46a8:	d3b06702 	movsle	r6, #524288	; 0x80000

000046ac <l4397>:
    46ac:	d0b26063 	adcsle	r6, r2, r3, rrx

000046b0 <l4398>:
    46b0:	ea000000 	b	46b8 <l4400>

000046b4 <l4399>:
    46b4:	eafffff8 	b	469c <l4393>

000046b8 <l4400>:
    46b8:	51a07003 	movpl	r7, r3

000046bc <l4401>:
    46bc:	92520b0e 	subsls	r0, r2, #14336	; 0x3800

000046c0 <l4402>:
    46c0:	250d301c 	strcs	r3, [sp, #-28]

000046c4 <l4403>:
    46c4:	ea000006 	b	46e4 <l4411>

000046c8 <l4404>:
    46c8:	e28010d6 	add	r1, r0, #214	; 0xd6

000046cc <l4405>:
    46cc:	e0f0b61e 	rscs	fp, r0, lr, lsl r6

000046d0 <l4406>:
    46d0:	502b574b 	eorpl	r5, fp, fp, asr #14

000046d4 <l4407>:
    46d4:	415e000f 	cmpmi	lr, pc

000046d8 <l4408>:
    46d8:	500a7411 	andpl	r7, sl, r1, lsl r4

000046dc <l4409>:
    46dc:	61e0485a 	mvnvs	r4, sl, asr r8

000046e0 <l4410>:
    46e0:	ea000000 	b	46e8 <l4412>

000046e4 <l4411>:
    46e4:	eafffff8 	b	46cc <l4405>

000046e8 <l4412>:
    46e8:	a16f5f1c 	clzge	r5, ip

000046ec <l4413>:
    46ec:	e1e09069 	mvn	r9, r9, rrx

000046f0 <l4414>:
    46f0:	6180a3cc 	orrvs	sl, r0, ip, asr #7

000046f4 <l4415>:
    46f4:	a0580d66 	subsge	r0, r8, r6, ror #26

000046f8 <l4416>:
    46f8:	e3a03038 	mov	r3, #56	; 0x38

000046fc <l4417>:
    46fc:	970db003 	strls	fp, [sp, -r3]

00004700 <l4418>:
    4700:	e15c0b35 	cmp	ip, r5, lsr fp

00004704 <l4419>:
    4704:	e3a0502c 	mov	r5, #44	; 0x2c

00004708 <l4420>:
    4708:	e72d7005 	str	r7, [sp, -r5]!

0000470c <l4421>:
    470c:	e310090e 	tst	r0, #229376	; 0x38000

00004710 <l4422>:
    4710:	e13802c2 	teq	r8, r2, asr #5

00004714 <l4423>:
    4714:	e19a4009 	orrs	r4, sl, r9

00004718 <l4424>:
    4718:	931f0ff6 	tstls	pc, #984	; 0x3d8

0000471c <l4425>:
    471c:	8a000003 	bhi	4730 <l4430>

00004720 <l4426>:
    4720:	31d88001 	bicscc	r8, r8, r1

00004724 <l4427>:
    4724:	709fb00b 	addsvc	fp, pc, fp

00004728 <l4428>:
    4728:	a2e9a9f3 	rscge	sl, r9, #3981312	; 0x3cc000

0000472c <l4429>:
    472c:	915e000a 	cmpls	lr, sl

00004730 <l4430>:
    4730:	70a543cb 	adcvc	r4, r5, fp, asr #7

00004734 <l4431>:
    4734:	c1c9c6a7 	bicgt	ip, r9, r7, lsr #13

00004738 <l4432>:
    4738:	e0d94806 	sbcs	r4, r9, r6, lsl #16

0000473c <l4433>:
    473c:	e0d11e4c 	sbcs	r1, r1, ip, asr #28

00004740 <l4434>:
    4740:	7a000007 	bvc	4764 <l4443>

00004744 <l4435>:
    4744:	e280102d 	add	r1, r0, #45	; 0x2d

00004748 <l4436>:
    4748:	91e00281 	mvnls	r0, r1, lsl #5

0000474c <l4437>:
    474c:	e0951a85 	adds	r1, r5, r5, lsl #21

00004750 <l4438>:
    4750:	e09b200b 	adds	r2, fp, fp

00004754 <l4439>:
    4754:	e2578253 	subs	r8, r7, #805306373	; 0x30000005

00004758 <l4440>:
    4758:	e11b0065 	tst	fp, r5, rrx

0000475c <l4441>:
    475c:	e24842ff 	sub	r4, r8, #-268435441	; 0xf000000f

00004760 <l4442>:
    4760:	ea000000 	b	4768 <l4444>

00004764 <l4443>:
    4764:	eafffff7 	b	4748 <l4436>

00004768 <l4444>:
    4768:	d15b0c1a 	cmple	fp, sl, lsl ip

0000476c <l4445>:
    476c:	90d3bbc4 	sbcsls	fp, r3, r4, asr #23

00004770 <l4446>:
    4770:	2a000007 	bcs	4794 <l4455>

00004774 <l4447>:
    4774:	e2801021 	add	r1, r0, #33	; 0x21

00004778 <l4448>:
    4778:	628c10b9 	addvs	r1, ip, #185	; 0xb9

0000477c <l4449>:
    477c:	a1e09400 	mvnge	r9, r0, lsl #8

00004780 <l4450>:
    4780:	e0026776 	and	r6, r2, r6, ror r7

00004784 <l4451>:
    4784:	e0543802 	subs	r3, r4, r2, lsl #16

00004788 <l4452>:
    4788:	33370cb3 	teqcc	r7, #45824	; 0xb300

0000478c <l4453>:
    478c:	716f0f1e 	clzvc	r0, lr

00004790 <l4454>:
    4790:	ea000000 	b	4798 <l4456>

00004794 <l4455>:
    4794:	eafffff7 	b	4778 <l4448>

00004798 <l4456>:
    4798:	8a000002 	bhi	47a8 <l4460>

0000479c <l4457>:
    479c:	e28010ac 	add	r1, r0, #172	; 0xac

000047a0 <l4458>:
    47a0:	e282a16e 	add	sl, r2, #-2147483621	; 0x8000001b

000047a4 <l4459>:
    47a4:	ea000000 	b	47ac <l4461>

000047a8 <l4460>:
    47a8:	eafffffc 	b	47a0 <l4458>

000047ac <l4461>:
    47ac:	e0793009 	rsbs	r3, r9, r9

000047b0 <l4462>:
    47b0:	d0e91007 	rscle	r1, r9, r7

000047b4 <l4463>:
    47b4:	e5bd6018 	ldr	r6, [sp, #24]!

000047b8 <l4464>:
    47b8:	ea000005 	b	47d4 <l4471>

000047bc <l4465>:
    47bc:	80239064 	eorhi	r9, r3, r4, rrx

000047c0 <l4466>:
    47c0:	e225e0bf 	eor	lr, r5, #191	; 0xbf

000047c4 <l4467>:
    47c4:	e16f1f19 	clz	r1, r9

000047c8 <l4468>:
    47c8:	9032e00f 	eorsls	lr, r2, pc

000047cc <l4469>:
    47cc:	b0d04a81 	sbcslt	r4, r0, r1, lsl #21

000047d0 <l4470>:
    47d0:	e017c654 	ands	ip, r7, r4, asr r6

000047d4 <l4471>:
    47d4:	8210e58a 	andshi	lr, r0, #578813952	; 0x22800000

000047d8 <l4472>:
    47d8:	ca000006 	bgt	47f8 <l4480>

000047dc <l4473>:
    47dc:	e2801093 	add	r1, r0, #147	; 0x93

000047e0 <l4474>:
    47e0:	72198000 	andsvc	r8, r9, #0

000047e4 <l4475>:
    47e4:	e0ce8067 	sbc	r8, lr, r7, rrx

000047e8 <l4476>:
    47e8:	e16f0f12 	clz	r0, r2

000047ec <l4477>:
    47ec:	c33f0953 	teqgt	pc, #1359872	; 0x14c000

000047f0 <l4478>:
    47f0:	811603ef 	tsthi	r6, pc, ror #7

000047f4 <l4479>:
    47f4:	ea000000 	b	47fc <l4481>

000047f8 <l4480>:
    47f8:	eafffff8 	b	47e0 <l4474>

000047fc <l4481>:
    47fc:	e20a7ac3 	and	r7, sl, #798720	; 0xc3000

00004800 <l4482>:
    4800:	2a000000 	bcs	4808 <l4484>

00004804 <l4483>:
    4804:	52474275 	subpl	r4, r7, #1342177287	; 0x50000007

00004808 <l4484>:
    4808:	e251c029 	subs	ip, r1, #41	; 0x29

0000480c <l4485>:
    480c:	2a000004 	bcs	4824 <l4491>

00004810 <l4486>:
    4810:	e2801026 	add	r1, r0, #38	; 0x26

00004814 <l4487>:
    4814:	a37b0905 	cmnge	fp, #81920	; 0x14000

00004818 <l4488>:
    4818:	b1d4ca48 	bicslt	ip, r4, r8, asr #20

0000481c <l4489>:
    481c:	11a0a00e 	movne	sl, lr

00004820 <l4490>:
    4820:	ea000000 	b	4828 <l4492>

00004824 <l4491>:
    4824:	eafffffa 	b	4814 <l4487>

00004828 <l4492>:
    4828:	02c216a2 	sbceq	r1, r2, #169869312	; 0xa200000

0000482c <l4493>:
    482c:	11ca2b02 	bicne	r2, sl, r2, lsl #22

00004830 <l4494>:
    4830:	b0387005 	eorslt	r7, r8, r5

00004834 <l4495>:
    4834:	41e01002 	mvnmi	r1, r2

00004838 <l4496>:
    4838:	e276642a 	rsbs	r6, r6, #704643072	; 0x2a000000

0000483c <l4497>:
    483c:	60baa069 	adcsvs	sl, sl, r9, rrx

00004840 <l4498>:
    4840:	e1d3455a 	bics	r4, r3, sl, asr r5

00004844 <l4499>:
    4844:	559d4024 	ldrpl	r4, [sp, #36]	; 0x24

00004848 <l4500>:
    4848:	e021a00c 	eor	sl, r1, ip

0000484c <l4501>:
    484c:	e11c060e 	tst	ip, lr, lsl #12

00004850 <l4502>:
    4850:	419ae002 	orrsmi	lr, sl, r2

00004854 <l4503>:
    4854:	ea000001 	b	4860 <l4506>

00004858 <l4504>:
    4858:	a25c2901 	subsge	r2, ip, #16384	; 0x4000

0000485c <l4505>:
    485c:	5043100e 	subpl	r1, r3, lr

00004860 <l4506>:
    4860:	324983d7 	subcc	r8, r9, #1543503875	; 0x5c000003

00004864 <l4507>:
    4864:	e3a05a12 	mov	r5, #73728	; 0x12000

00004868 <l4508>:
    4868:	33d508ff 	bicscc	r0, r5, #16711680	; 0xff0000

0000486c <l4509>:
    486c:	1139086f 	teqne	r9, pc, ror #16

00004870 <l4510>:
    4870:	53560d2f 	cmppl	r6, #3008	; 0xbc0

00004874 <l4511>:
    4874:	10664006 	rsbne	r4, r6, r6

00004878 <l4512>:
    4878:	119a6919 	orrsne	r6, sl, r9, lsl r9

0000487c <l4513>:
    487c:	9115000e 	tstls	r5, lr

00004880 <l4514>:
    4880:	e177000a 	cmn	r7, sl

00004884 <l4515>:
    4884:	10504d03 	subsne	r4, r0, r3, lsl #26

00004888 <l4516>:
    4888:	e3a04018 	mov	r4, #24

0000488c <l4517>:
    488c:	e7ad8004 	str	r8, [sp, r4]!

00004890 <l4518>:
    4890:	b1540004 	cmplt	r4, r4

00004894 <l4519>:
    4894:	93c3e02f 	bicls	lr, r3, #47	; 0x2f

00004898 <l4520>:
    4898:	7a000005 	bvc	48b4 <l4527>

0000489c <l4521>:
    489c:	21110f6c 	tstcs	r1, ip, ror #30

000048a0 <l4522>:
    48a0:	b0901005 	addslt	r1, r0, r5

000048a4 <l4523>:
    48a4:	22a2a1f5 	adccs	sl, r2, #1073741885	; 0x4000003d

000048a8 <l4524>:
    48a8:	60507bce 	subsvs	r7, r0, lr, asr #23

000048ac <l4525>:
    48ac:	e04737af 	sub	r3, r7, pc, lsr #15

000048b0 <l4526>:
    48b0:	e0b1300f 	adcs	r3, r1, pc

000048b4 <l4527>:
    48b4:	915f0f04 	cmpls	pc, r4, lsl #30

000048b8 <l4528>:
    48b8:	a040bc13 	subge	fp, r0, r3, lsl ip

000048bc <l4529>:
    48bc:	a3db0c46 	bicsge	r0, fp, #17920	; 0x4600

000048c0 <l4530>:
    48c0:	b24b7a9f 	sublt	r7, fp, #651264	; 0x9f000

000048c4 <l4531>:
    48c4:	d2c2a094 	sbcle	sl, r2, #148	; 0x94

000048c8 <l4532>:
    48c8:	e13c0112 	teq	ip, r2, lsl r1

000048cc <l4533>:
    48cc:	911b0007 	tstls	fp, r7

000048d0 <l4534>:
    48d0:	21370008 	teqcs	r7, r8

000048d4 <l4535>:
    48d4:	6a000003 	bvs	48e8 <l4540>

000048d8 <l4536>:
    48d8:	e28010ee 	add	r1, r0, #238	; 0xee

000048dc <l4537>:
    48dc:	a2722ffa 	rsbsge	r2, r2, #1000	; 0x3e8

000048e0 <l4538>:
    48e0:	d0d6906a 	sbcsle	r9, r6, sl, rrx

000048e4 <l4539>:
    48e4:	ea000000 	b	48ec <l4541>

000048e8 <l4540>:
    48e8:	eafffffb 	b	48dc <l4537>

000048ec <l4541>:
    48ec:	e0bcc8ca 	adcs	ip, ip, sl, asr #17

000048f0 <l4542>:
    48f0:	6006121c 	andvs	r1, r6, ip, lsl r2

000048f4 <l4543>:
    48f4:	20486002 	subcs	r6, r8, r2

000048f8 <l4544>:
    48f8:	2a000003 	bcs	490c <l4549>

000048fc <l4545>:
    48fc:	e28010fd 	add	r1, r0, #253	; 0xfd

00004900 <l4546>:
    4900:	e15f0127 	cmp	pc, r7, lsr #2

00004904 <l4547>:
    4904:	e3520921 	cmp	r2, #540672	; 0x84000

00004908 <l4548>:
    4908:	ea000000 	b	4910 <l4550>

0000490c <l4549>:
    490c:	eafffffb 	b	4900 <l4546>

00004910 <l4550>:
    4910:	10490952 	subne	r0, r9, r2, asr r9

00004914 <l4551>:
    4914:	e27c7b13 	rsbs	r7, ip, #19456	; 0x4c00

00004918 <l4552>:
    4918:	90441c52 	subls	r1, r4, r2, asr ip

0000491c <l4553>:
    491c:	ea000003 	b	4930 <l4558>

00004920 <l4554>:
    4920:	a1930216 	orrsge	r0, r3, r6, lsl r2

00004924 <l4555>:
    4924:	e1b0000b 	movs	r0, fp

00004928 <l4556>:
    4928:	c16f7f19 	clzgt	r7, r9

0000492c <l4557>:
    492c:	e151006b 	cmp	r1, fp, rrx

00004930 <l4558>:
    4930:	40f49002 	rscsmi	r9, r4, r2

00004934 <l4559>:
    4934:	e3a0a034 	mov	sl, #52	; 0x34

00004938 <l4560>:
    4938:	e60d100a 	str	r1, [sp], -sl

0000493c <l4561>:
    493c:	e0847002 	add	r7, r4, r2

00004940 <l4562>:
    4940:	927bbd29 	rsbsls	fp, fp, #2624	; 0xa40

00004944 <l4563>:
    4944:	d092e006 	addsle	lr, r2, r6

00004948 <l4564>:
    4948:	ea000007 	b	496c <l4573>

0000494c <l4565>:
    494c:	e2801021 	add	r1, r0, #33	; 0x21

00004950 <l4566>:
    4950:	e0b01437 	adcs	r1, r0, r7, lsr r4

00004954 <l4567>:
    4954:	c0815f2e 	addgt	r5, r1, lr, lsr #30

00004958 <l4568>:
    4958:	00c3b63a 	sbceq	fp, r3, sl, lsr r6

0000495c <l4569>:
    495c:	e1390478 	teq	r9, r8, ror r4

00004960 <l4570>:
    4960:	c19a32c6 	orrsgt	r3, sl, r6, asr #5

00004964 <l4571>:
    4964:	e033c740 	eors	ip, r3, r0, asr #14

00004968 <l4572>:
    4968:	ea000000 	b	4970 <l4574>

0000496c <l4573>:
    496c:	eafffff7 	b	4950 <l4566>

00004970 <l4574>:
    4970:	e088756f 	add	r7, r8, pc, ror #10

00004974 <l4575>:
    4974:	80833061 	addhi	r3, r3, r1, rrx

00004978 <l4576>:
    4978:	e19c4a73 	orrs	r4, ip, r3, ror sl

0000497c <l4577>:
    497c:	11310617 	teqne	r1, r7, lsl r6

00004980 <l4578>:
    4980:	b135006f 	teqlt	r5, pc, rrx

00004984 <l4579>:
    4984:	c2ec7ef1 	rscgt	r7, ip, #3856	; 0xf10

00004988 <l4580>:
    4988:	e3a09008 	mov	r9, #8

0000498c <l4581>:
    498c:	e60d5009 	str	r5, [sp], -r9

00004990 <l4582>:
    4990:	b38690a2 	orrlt	r9, r6, #162	; 0xa2

00004994 <l4583>:
    4994:	003a0438 	eorseq	r0, sl, r8, lsr r4

00004998 <l4584>:
    4998:	11876006 	orrne	r6, r7, r6

0000499c <l4585>:
    499c:	e3a07004 	mov	r7, #4

000049a0 <l4586>:
    49a0:	e68d9007 	str	r9, [sp], r7

000049a4 <l4587>:
    49a4:	60986b89 	addsvs	r6, r8, r9, lsl #23

000049a8 <l4588>:
    49a8:	ea000005 	b	49c4 <l4595>

000049ac <l4589>:
    49ac:	e2801016 	add	r1, r0, #22

000049b0 <l4590>:
    49b0:	53c6320b 	bicpl	r3, r6, #-1342177280	; 0xb0000000

000049b4 <l4591>:
    49b4:	e051c001 	subs	ip, r1, r1

000049b8 <l4592>:
    49b8:	e08c997b 	add	r9, ip, fp, ror r9

000049bc <l4593>:
    49bc:	516f4f10 	clzpl	r4, r0

000049c0 <l4594>:
    49c0:	ea000000 	b	49c8 <l4596>

000049c4 <l4595>:
    49c4:	eafffff9 	b	49b0 <l4590>

000049c8 <l4596>:
    49c8:	e181a00e 	orr	sl, r1, lr

000049cc <l4597>:
    49cc:	70583005 	subsvc	r3, r8, r5

000049d0 <l4598>:
    49d0:	e2944702 	adds	r4, r4, #524288	; 0x80000

000049d4 <l4599>:
    49d4:	501b4008 	andspl	r4, fp, r8

000049d8 <l4600>:
    49d8:	a22bc3a1 	eorge	ip, fp, #-2080374782	; 0x84000002

000049dc <l4601>:
    49dc:	e49d4028 	ldr	r4, [sp], #40	; 0x28

000049e0 <l4602>:
    49e0:	a04a19cc 	subge	r1, sl, ip, asr #19

000049e4 <l4603>:
    49e4:	33a0070b 	movcc	r0, #2883584	; 0x2c0000

000049e8 <l4604>:
    49e8:	e02b0a15 	eor	r0, fp, r5, lsl sl

000049ec <l4605>:
    49ec:	d0a58c70 	adcle	r8, r5, r0, ror ip

000049f0 <l4606>:
    49f0:	c178000a 	cmngt	r8, sl

000049f4 <l4607>:
    49f4:	e1f06068 	mvns	r6, r8, rrx

000049f8 <l4608>:
    49f8:	e1d5506a 	bics	r5, r5, sl, rrx

000049fc <l4609>:
    49fc:	61d7b008 	bicsvs	fp, r7, r8

00004a00 <l4610>:
    4a00:	e1b03009 	movs	r3, r9

00004a04 <l4611>:
    4a04:	52cfe489 	sbcpl	lr, pc, #-1996488704	; 0x89000000

00004a08 <l4612>:
    4a08:	321bc8df 	andscc	ip, fp, #14614528	; 0xdf0000

00004a0c <l4613>:
    4a0c:	e1c959aa 	bic	r5, r9, sl, lsr #19

00004a10 <l4614>:
    4a10:	1a000006 	bne	4a30 <l4622>

00004a14 <l4615>:
    4a14:	e28010c8 	add	r1, r0, #200	; 0xc8

00004a18 <l4616>:
    4a18:	915b0717 	cmpls	fp, r7, lsl r7

00004a1c <l4617>:
    4a1c:	e389bb2f 	orr	fp, r9, #48128	; 0xbc00

00004a20 <l4618>:
    4a20:	e112010c 	tst	r2, ip, lsl #2

00004a24 <l4619>:
    4a24:	20614410 	rsbcs	r4, r1, r0, lsl r4

00004a28 <l4620>:
    4a28:	a049b001 	subge	fp, r9, r1

00004a2c <l4621>:
    4a2c:	ea000000 	b	4a34 <l4623>

00004a30 <l4622>:
    4a30:	eafffff8 	b	4a18 <l4616>

00004a34 <l4623>:
    4a34:	e11004a0 	tst	r0, r0, lsr #9

00004a38 <l4624>:
    4a38:	e0fe4068 	rscs	r4, lr, r8, rrx

00004a3c <l4625>:
    4a3c:	e1939061 	orrs	r9, r3, r1, rrx

00004a40 <l4626>:
    4a40:	b2daca32 	sbcslt	ip, sl, #204800	; 0x32000

00004a44 <l4627>:
    4a44:	6a000007 	bvs	4a68 <l4636>

00004a48 <l4628>:
    4a48:	e280109a 	add	r1, r0, #154	; 0x9a

00004a4c <l4629>:
    4a4c:	e1b0eb78 	rors	lr, r8, fp

00004a50 <l4630>:
    4a50:	00e9c370 	rsceq	ip, r9, r0, ror r3

00004a54 <l4631>:
    4a54:	e04c6727 	sub	r6, ip, r7, lsr #14

00004a58 <l4632>:
    4a58:	e380b98a 	orr	fp, r0, #2260992	; 0x228000

00004a5c <l4633>:
    4a5c:	e1e070c3 	mvn	r7, r3, asr #1

00004a60 <l4634>:
    4a60:	e1590b73 	cmp	r9, r3, ror fp

00004a64 <l4635>:
    4a64:	ea000000 	b	4a6c <l4637>

00004a68 <l4636>:
    4a68:	eafffff7 	b	4a4c <l4629>

00004a6c <l4637>:
    4a6c:	e5adf014 	str	pc, [sp, #20]!

00004a70 <l4638>:
    4a70:	e39431c6 	orrs	r3, r4, #-2147483599	; 0x80000031

00004a74 <l4639>:
    4a74:	e08e5b12 	add	r5, lr, r2, lsl fp

00004a78 <l4640>:
    4a78:	e095a00b 	adds	sl, r5, fp

00004a7c <l4641>:
    4a7c:	42fc57e5 	rscsmi	r5, ip, #60030976	; 0x3940000

00004a80 <l4642>:
    4a80:	508b7736 	addpl	r7, fp, r6, lsr r7

00004a84 <l4643>:
    4a84:	528b2c0f 	addpl	r2, fp, #3840	; 0xf00

00004a88 <l4644>:
    4a88:	3a000002 	bcc	4a98 <l4648>

00004a8c <l4645>:
    4a8c:	211a0005 	tstcs	sl, r5

00004a90 <l4646>:
    4a90:	e17b0010 	cmn	fp, r0, lsl r0

00004a94 <l4647>:
    4a94:	81750000 	cmnhi	r5, r0

00004a98 <l4648>:
    4a98:	11590000 	cmpne	r9, r0

00004a9c <l4649>:
    4a9c:	a37c01db 	cmnge	ip, #-1073741770	; 0xc0000036

00004aa0 <l4650>:
    4aa0:	e3a05004 	mov	r5, #4

00004aa4 <l4651>:
    4aa4:	d78d9005 	strle	r9, [sp, r5]

00004aa8 <l4652>:
    4aa8:	e002293b 	and	r2, r2, fp, lsr r9

00004aac <l4653>:
    4aac:	73340131 	teqvc	r4, #1073741836	; 0x4000000c

00004ab0 <l4654>:
    4ab0:	52d67cfd 	sbcspl	r7, r6, #64768	; 0xfd00

00004ab4 <l4655>:
    4ab4:	71c6e95a 	bicvc	lr, r6, sl, asr r9

00004ab8 <l4656>:
    4ab8:	e08f100b 	add	r1, pc, fp

00004abc <l4657>:
    4abc:	20946007 	addscs	r6, r4, r7

00004ac0 <l4658>:
    4ac0:	d1ce7062 	bicle	r7, lr, r2, rrx

00004ac4 <l4659>:
    4ac4:	211e065e 	tstcs	lr, lr, asr r6

00004ac8 <l4660>:
    4ac8:	b058b000 	subslt	fp, r8, r0

00004acc <l4661>:
    4acc:	91160069 	tstls	r6, r9, rrx

00004ad0 <l4662>:
    4ad0:	e0023917 	and	r3, r2, r7, lsl r9

00004ad4 <l4663>:
    4ad4:	31160004 	tstcc	r6, r4

00004ad8 <l4664>:
    4ad8:	e155021c 	cmp	r5, ip, lsl r2

00004adc <l4665>:
    4adc:	5112061a 	tstpl	r2, sl, lsl r6

00004ae0 <l4666>:
    4ae0:	20ee4005 	rsccs	r4, lr, r5

00004ae4 <l4667>:
    4ae4:	e1560067 	cmp	r6, r7, rrx

00004ae8 <l4668>:
    4ae8:	62f4b0b6 	rscsvs	fp, r4, #182	; 0xb6

00004aec <l4669>:
    4aec:	e53db020 	ldr	fp, [sp, #-32]!

00004af0 <l4670>:
    4af0:	e23e8a93 	eors	r8, lr, #602112	; 0x93000

00004af4 <l4671>:
    4af4:	e00e4c84 	and	r4, lr, r4, lsl #25

00004af8 <l4672>:
    4af8:	10cc2000 	sbcne	r2, ip, r0

00004afc <l4673>:
    4afc:	5a000005 	bpl	4b18 <l4680>

00004b00 <l4674>:
    4b00:	a0090b5e 	andge	r0, r9, lr, asr fp

00004b04 <l4675>:
    4b04:	819e54ae 	orrshi	r5, lr, lr, lsr #9

00004b08 <l4676>:
    4b08:	3000a003 	andcc	sl, r0, r3

00004b0c <l4677>:
    4b0c:	e1f03653 	mvns	r3, r3, asr r6

00004b10 <l4678>:
    4b10:	e07e4fcb 	rsbs	r4, lr, fp, asr #31

00004b14 <l4679>:
    4b14:	41a0e00f 	movmi	lr, pc

00004b18 <l4680>:
    4b18:	31e0800f 	mvncc	r8, pc

00004b1c <l4681>:
    4b1c:	2189793e 	orrcs	r7, r9, lr, lsr r9

00004b20 <l4682>:
    4b20:	e16f6f11 	clz	r6, r1

00004b24 <l4683>:
    4b24:	e11c0067 	tst	ip, r7, rrx

00004b28 <l4684>:
    4b28:	e0c3a00a 	sbc	sl, r3, sl

00004b2c <l4685>:
    4b2c:	10fa7010 	rscsne	r7, sl, r0, lsl r0

00004b30 <l4686>:
    4b30:	c0f5000f 	rscsgt	r0, r5, pc

00004b34 <l4687>:
    4b34:	e01c0618 	ands	r0, ip, r8, lsl r6

00004b38 <l4688>:
    4b38:	e1c36065 	bic	r6, r3, r5, rrx

00004b3c <l4689>:
    4b3c:	016f1f12 	clzeq	r1, r2

00004b40 <l4690>:
    4b40:	aa000003 	bge	4b54 <l4695>

00004b44 <l4691>:
    4b44:	e280103c 	add	r1, r0, #60	; 0x3c

00004b48 <l4692>:
    4b48:	21892004 	orrcs	r2, r9, r4

00004b4c <l4693>:
    4b4c:	e2fac107 	rscs	ip, sl, #-1073741823	; 0xc0000001

00004b50 <l4694>:
    4b50:	ea000000 	b	4b58 <l4696>

00004b54 <l4695>:
    4b54:	eafffffb 	b	4b48 <l4692>

00004b58 <l4696>:
    4b58:	30989284 	addscc	r9, r8, r4, lsl #5

00004b5c <l4697>:
    4b5c:	c241e11d 	subgt	lr, r1, #1073741831	; 0x40000007

00004b60 <l4698>:
    4b60:	80a06003 	adchi	r6, r0, r3

00004b64 <l4699>:
    4b64:	80930ea8 	addshi	r0, r3, r8, lsr #29

00004b68 <l4700>:
    4b68:	e131000b 	teq	r1, fp

00004b6c <l4701>:
    4b6c:	e16faf1e 	clz	sl, lr

00004b70 <l4702>:
    4b70:	5049c068 	subpl	ip, r9, r8, rrx

00004b74 <l4703>:
    4b74:	ea000007 	b	4b98 <l4712>

00004b78 <l4704>:
    4b78:	e280109a 	add	r1, r0, #154	; 0x9a

00004b7c <l4705>:
    4b7c:	d0018008 	andle	r8, r1, r8

00004b80 <l4706>:
    4b80:	e2268eaa 	eor	r8, r6, #2720	; 0xaa0

00004b84 <l4707>:
    4b84:	01865001 	orreq	r5, r6, r1

00004b88 <l4708>:
    4b88:	b1e091af 	mvnlt	r9, pc, lsr #3

00004b8c <l4709>:
    4b8c:	d2ea0553 	rscle	r0, sl, #348127232	; 0x14c00000

00004b90 <l4710>:
    4b90:	e0336ea3 	eors	r6, r3, r3, lsr #29

00004b94 <l4711>:
    4b94:	ea000000 	b	4b9c <l4713>

00004b98 <l4712>:
    4b98:	eafffff7 	b	4b7c <l4705>

00004b9c <l4713>:
    4b9c:	e3a0c020 	mov	ip, #32

00004ba0 <l4714>:
    4ba0:	e72d800c 	str	r8, [sp, -ip]!

00004ba4 <l4715>:
    4ba4:	b0b0c000 	adcslt	ip, r0, r0

00004ba8 <l4716>:
    4ba8:	80699819 	rsbhi	r9, r9, r9, lsl r8

00004bac <l4717>:
    4bac:	e01b8454 	ands	r8, fp, r4, asr r4

00004bb0 <l4718>:
    4bb0:	e0e87081 	rsc	r7, r8, r1, lsl #1

00004bb4 <l4719>:
    4bb4:	72a0cb07 	adcvc	ip, r0, #7168	; 0x1c00

00004bb8 <l4720>:
    4bb8:	9affffff 	bls	4bbc <l4721>

00004bbc <l4721>:
    4bbc:	e0f34858 	rscs	r4, r3, r8, asr r8

00004bc0 <l4722>:
    4bc0:	e17e085b 	cmn	lr, fp, asr r8

00004bc4 <l4723>:
    4bc4:	e265b523 	rsb	fp, r5, #146800640	; 0x8c00000

00004bc8 <l4724>:
    4bc8:	ea000001 	b	4bd4 <l4727>

00004bcc <l4725>:
    4bcc:	e0e90c53 	rsc	r0, r9, r3, asr ip

00004bd0 <l4726>:
    4bd0:	13b0c76f 	movsne	ip, #29097984	; 0x1bc0000

00004bd4 <l4727>:
    4bd4:	e0960008 	adds	r0, r6, r8

00004bd8 <l4728>:
    4bd8:	111c000e 	tstne	ip, lr

00004bdc <l4729>:
    4bdc:	e3a05030 	mov	r5, #48	; 0x30

00004be0 <l4730>:
    4be0:	e69dc005 	ldr	ip, [sp], r5

00004be4 <l4731>:
    4be4:	40492009 	submi	r2, r9, r9

00004be8 <l4732>:
    4be8:	41b07931 	lsrsmi	r7, r1, r9

00004bec <l4733>:
    4bec:	e3a0a014 	mov	sl, #20

00004bf0 <l4734>:
    4bf0:	e7bdb00a 	ldr	fp, [sp, sl]!

00004bf4 <l4735>:
    4bf4:	c1e0ae19 	mvngt	sl, r9, lsl lr

00004bf8 <l4736>:
    4bf8:	31b04447 	asrscc	r4, r7, #8

00004bfc <l4737>:
    4bfc:	e3540496 	cmp	r4, #-1778384896	; 0x96000000

00004c00 <l4738>:
    4c00:	e061c064 	rsb	ip, r1, r4, rrx

00004c04 <l4739>:
    4c04:	a31a0916 	tstge	sl, #360448	; 0x58000

00004c08 <l4740>:
    4c08:	e094600e 	adds	r6, r4, lr

00004c0c <l4741>:
    4c0c:	ea000004 	b	4c24 <l4747>

00004c10 <l4742>:
    4c10:	53945b55 	orrspl	r5, r4, #87040	; 0x15400

00004c14 <l4743>:
    4c14:	e23a503d 	eors	r5, sl, #61	; 0x3d

00004c18 <l4744>:
    4c18:	e175000b 	cmn	r5, fp

00004c1c <l4745>:
    4c1c:	11520536 	cmpne	r2, r6, lsr r5

00004c20 <l4746>:
    4c20:	e042e06c 	sub	lr, r2, ip, rrx

00004c24 <l4747>:
    4c24:	5094811c 	addspl	r8, r4, ip, lsl r1

00004c28 <l4748>:
    4c28:	7a000002 	bvc	4c38 <l4752>

00004c2c <l4749>:
    4c2c:	e056a008 	subs	sl, r6, r8

00004c30 <l4750>:
    4c30:	e2cbb95e 	sbc	fp, fp, #1540096	; 0x178000

00004c34 <l4751>:
    4c34:	a06ac07e 	rsbge	ip, sl, lr, ror r0

00004c38 <l4752>:
    4c38:	63f01b2a 	mvnsvs	r1, #43008	; 0xa800

00004c3c <l4753>:
    4c3c:	e1740063 	cmn	r4, r3, rrx

00004c40 <l4754>:
    4c40:	e3c1c9c7 	bic	ip, r1, #3260416	; 0x31c000

00004c44 <l4755>:
    4c44:	aa000008 	bge	4c6c <l4765>

00004c48 <l4756>:
    4c48:	316f1f11 	clzcc	r1, r1

00004c4c <l4757>:
    4c4c:	e25f8097 	subs	r8, pc, #151	; 0x97

00004c50 <l4758>:
    4c50:	83f0e40d 	mvnshi	lr, #218103808	; 0xd000000

00004c54 <l4759>:
    4c54:	e1b07733 	lsrs	r7, r3, r7

00004c58 <l4760>:
    4c58:	e11a0062 	tst	sl, r2, rrx

00004c5c <l4761>:
    4c5c:	11350002 	teqne	r5, r2

00004c60 <l4762>:
    4c60:	016fbf1b 	clzeq	fp, fp

00004c64 <l4763>:
    4c64:	e02cc7ee 	eor	ip, ip, lr, ror #15

00004c68 <l4764>:
    4c68:	7000bd80 	andvc	fp, r0, r0, lsl #27

00004c6c <l4765>:
    4c6c:	e0dca005 	sbcs	sl, ip, r5

00004c70 <l4766>:
    4c70:	805a3ee1 	subshi	r3, sl, r1, ror #29

00004c74 <l4767>:
    4c74:	d29349ff 	addsle	r4, r3, #4177920	; 0x3fc000

00004c78 <l4768>:
    4c78:	b0320671 	eorslt	r0, r2, r1, ror r6

00004c7c <l4769>:
    4c7c:	2056225c 	subscs	r2, r6, ip, asr r2

00004c80 <l4770>:
    4c80:	e06a837e 	rsb	r8, sl, lr, ror r3

00004c84 <l4771>:
    4c84:	c0d26c37 	sbcsgt	r6, r2, r7, lsr ip

00004c88 <l4772>:
    4c88:	e083000e 	add	r0, r3, lr

00004c8c <l4773>:
    4c8c:	11e0a002 	mvnne	sl, r2

00004c90 <l4774>:
    4c90:	e09ae16b 	adds	lr, sl, fp, ror #2

00004c94 <l4775>:
    4c94:	ea000006 	b	4cb4 <l4783>

00004c98 <l4776>:
    4c98:	e280100a 	add	r1, r0, #10

00004c9c <l4777>:
    4c9c:	e2865439 	add	r5, r6, #956301312	; 0x39000000

00004ca0 <l4778>:
    4ca0:	b11a0b57 	tstlt	sl, r7, asr fp

00004ca4 <l4779>:
    4ca4:	7252e080 	subsvc	lr, r2, #128	; 0x80

00004ca8 <l4780>:
    4ca8:	e3e09416 	mvn	r9, #369098752	; 0x16000000

00004cac <l4781>:
    4cac:	20f83006 	rscscs	r3, r8, r6

00004cb0 <l4782>:
    4cb0:	ea000000 	b	4cb8 <l4784>

00004cb4 <l4783>:
    4cb4:	eafffff8 	b	4c9c <l4777>

00004cb8 <l4784>:
    4cb8:	e3a00024 	mov	r0, #36	; 0x24

00004cbc <l4785>:
    4cbc:	e73d0000 	ldr	r0, [sp, -r0]!

00004cc0 <l4786>:
    4cc0:	ea000002 	b	4cd0 <l4790>

00004cc4 <l4787>:
    4cc4:	e0306113 	eors	r6, r0, r3, lsl r1

00004cc8 <l4788>:
    4cc8:	01b08066 	rrxseq	r8, r6

00004ccc <l4789>:
    4ccc:	d199400b 	orrsle	r4, r9, fp

00004cd0 <l4790>:
    4cd0:	115e0004 	cmpne	lr, r4

00004cd4 <l4791>:
    4cd4:	e3a0101c 	mov	r1, #28

00004cd8 <l4792>:
    4cd8:	e7ada001 	str	sl, [sp, r1]!

00004cdc <l4793>:
    4cdc:	a50df004 	strge	pc, [sp, #-4]

00004ce0 <l4794>:
    4ce0:	e1740539 	cmn	r4, r9, lsr r5

00004ce4 <l4795>:
    4ce4:	60736002 	rsbsvs	r6, r3, r2

00004ce8 <l4796>:
    4ce8:	d0890865 	addle	r0, r9, r5, ror #16

00004cec <l4797>:
    4cec:	216f7f11 	clzcs	r7, r1

00004cf0 <l4798>:
    4cf0:	e1911054 	orrs	r1, r1, r4, asr r0

00004cf4 <l4799>:
    4cf4:	22fb72aa 	rscscs	r7, fp, #-1610612726	; 0xa000000a

00004cf8 <l4800>:
    4cf8:	e16faf14 	clz	sl, r4

00004cfc <l4801>:
    4cfc:	e3a04004 	mov	r4, #4

00004d00 <l4802>:
    4d00:	e73d0004 	ldr	r0, [sp, -r4]!

00004d04 <l4803>:
    4d04:	b13f08a2 	teqlt	pc, r2, lsr #17

00004d08 <l4804>:
    4d08:	10d3417b 	sbcsne	r4, r3, fp, ror r1

00004d0c <l4805>:
    4d0c:	d11a0281 	tstle	sl, r1, lsl #5

00004d10 <l4806>:
    4d10:	b2dfcd55 	sbcslt	ip, pc, #5440	; 0x1540

00004d14 <l4807>:
    4d14:	c3f09eff 	mvnsgt	r9, #4080	; 0xff0

00004d18 <l4808>:
    4d18:	2a000006 	bcs	4d38 <l4816>

00004d1c <l4809>:
    4d1c:	e28010c3 	add	r1, r0, #195	; 0xc3

00004d20 <l4810>:
    4d20:	d19b9007 	orrsle	r9, fp, r7

00004d24 <l4811>:
    4d24:	b1780065 	cmnlt	r8, r5, rrx

00004d28 <l4812>:
    4d28:	e1934735 	orrs	r4, r3, r5, lsr r7

00004d2c <l4813>:
    4d2c:	42689afe 	rsbmi	r9, r8, #1040384	; 0xfe000

00004d30 <l4814>:
    4d30:	c24ab66e 	subgt	fp, sl, #115343360	; 0x6e00000

00004d34 <l4815>:
    4d34:	ea000000 	b	4d3c <l4817>

00004d38 <l4816>:
    4d38:	eafffff8 	b	4d20 <l4810>

00004d3c <l4817>:
    4d3c:	8264e61b 	rsbhi	lr, r4, #28311552	; 0x1b00000

00004d40 <l4818>:
    4d40:	e05e5009 	subs	r5, lr, r9

00004d44 <l4819>:
    4d44:	922e1b6a 	eorls	r1, lr, #108544	; 0x1a800

00004d48 <l4820>:
    4d48:	ea000006 	b	4d68 <l4828>

00004d4c <l4821>:
    4d4c:	e28010e5 	add	r1, r0, #229	; 0xe5

00004d50 <l4822>:
    4d50:	e1f01bcb 	mvns	r1, fp, asr #23

00004d54 <l4823>:
    4d54:	e16fef14 	clz	lr, r4

00004d58 <l4824>:
    4d58:	305eb009 	subscc	fp, lr, r9

00004d5c <l4825>:
    4d5c:	e05ce068 	subs	lr, ip, r8, rrx

00004d60 <l4826>:
    4d60:	e1790e7b 	cmn	r9, fp, ror lr

00004d64 <l4827>:
    4d64:	ea000000 	b	4d6c <l4829>

00004d68 <l4828>:
    4d68:	eafffff8 	b	4d50 <l4822>

00004d6c <l4829>:
    4d6c:	815f0006 	cmphi	pc, r6

00004d70 <l4830>:
    4d70:	e079400f 	rsbs	r4, r9, pc

00004d74 <l4831>:
    4d74:	e3a03034 	mov	r3, #52	; 0x34

00004d78 <l4832>:
    4d78:	e73d6003 	ldr	r6, [sp, -r3]!

00004d7c <l4833>:
    4d7c:	a18eea86 	orrge	lr, lr, r6, lsl #21

00004d80 <l4834>:
    4d80:	90e07005 	rscls	r7, r0, r5

00004d84 <l4835>:
    4d84:	e1f02063 	mvns	r2, r3, rrx

00004d88 <l4836>:
    4d88:	e0d90003 	sbcs	r0, r9, r3

00004d8c <l4837>:
    4d8c:	e23412b1 	eors	r1, r4, #268435467	; 0x1000000b

00004d90 <l4838>:
    4d90:	a2825a0f 	addge	r5, r2, #61440	; 0xf000

00004d94 <l4839>:
    4d94:	e27fab27 	rsbs	sl, pc, #39936	; 0x9c00

00004d98 <l4840>:
    4d98:	e24fc377 	sub	ip, pc, #-603979775	; 0xdc000001

00004d9c <l4841>:
    4d9c:	01560069 	cmpeq	r6, r9, rrx

00004da0 <l4842>:
    4da0:	6a000000 	bvs	4da8 <l4844>

00004da4 <l4843>:
    4da4:	e1790c38 	cmn	r9, r8, lsr ip

00004da8 <l4844>:
    4da8:	d1935003 	orrsle	r5, r3, r3

00004dac <l4845>:
    4dac:	e3a0b030 	mov	fp, #48	; 0x30

00004db0 <l4846>:
    4db0:	b78d600b 	strlt	r6, [sp, fp]

00004db4 <l4847>:
    4db4:	e011e559 	ands	lr, r1, r9, asr r5

00004db8 <l4848>:
    4db8:	e1110b21 	tst	r1, r1, lsr #22

00004dbc <l4849>:
    4dbc:	a1a01002 	movge	r1, r2

00004dc0 <l4850>:
    4dc0:	c1e03068 	mvngt	r3, r8, rrx

00004dc4 <l4851>:
    4dc4:	11f08009 	mvnsne	r8, r9

00004dc8 <l4852>:
    4dc8:	90532612 	subsls	r2, r3, r2, lsl r6

00004dcc <l4853>:
    4dcc:	c3e031e7 	mvngt	r3, #-1073741767	; 0xc0000039

00004dd0 <l4854>:
    4dd0:	e0159004 	ands	r9, r5, r4

00004dd4 <l4855>:
    4dd4:	a19918c5 	orrsge	r1, r9, r5, asr #17

00004dd8 <l4856>:
    4dd8:	d0749064 	rsbsle	r9, r4, r4, rrx

00004ddc <l4857>:
    4ddc:	ea000005 	b	4df8 <l4864>

00004de0 <l4858>:
    4de0:	017c0856 	cmneq	ip, r6, asr r8

00004de4 <l4859>:
    4de4:	42484d3b 	submi	r4, r8, #3776	; 0xec0

00004de8 <l4860>:
    4de8:	11360330 	teqne	r6, r0, lsr r3

00004dec <l4861>:
    4dec:	e09c9060 	adds	r9, ip, r0, rrx

00004df0 <l4862>:
    4df0:	416f3f11 	clzmi	r3, r1

00004df4 <l4863>:
    4df4:	801e8e27 	andshi	r8, lr, r7, lsr #28

00004df8 <l4864>:
    4df8:	704358e5 	subvc	r5, r3, r5, ror #17

00004dfc <l4865>:
    4dfc:	e15e0539 	cmp	lr, r9, lsr r5

00004e00 <l4866>:
    4e00:	7a000006 	bvc	4e20 <l4874>

00004e04 <l4867>:
    4e04:	e0a99e68 	adc	r9, r9, r8, ror #28

00004e08 <l4868>:
    4e08:	5016e00c 	andspl	lr, r6, ip

00004e0c <l4869>:
    4e0c:	11d75002 	bicsne	r5, r7, r2

00004e10 <l4870>:
    4e10:	631e092a 	tstvs	lr, #688128	; 0xa8000

00004e14 <l4871>:
    4e14:	81e08c27 	mvnhi	r8, r7, lsr #24

00004e18 <l4872>:
    4e18:	5199e008 	orrspl	lr, r9, r8

00004e1c <l4873>:
    4e1c:	701c9676 	andsvc	r9, ip, r6, ror r6

00004e20 <l4874>:
    4e20:	02606401 	rsbeq	r6, r0, #16777216	; 0x1000000

00004e24 <l4875>:
    4e24:	b1520b18 	cmplt	r2, r8, lsl fp

00004e28 <l4876>:
    4e28:	316f7f14 	clzcc	r7, r4

00004e2c <l4877>:
    4e2c:	40b21006 	adcsmi	r1, r2, r6

00004e30 <l4878>:
    4e30:	e0489c72 	sub	r9, r8, r2, ror ip

00004e34 <l4879>:
    4e34:	7a000004 	bvc	4e4c <l4885>

00004e38 <l4880>:
    4e38:	e2801078 	add	r1, r0, #120	; 0x78

00004e3c <l4881>:
    4e3c:	e2987133 	adds	r7, r8, #-1073741812	; 0xc000000c

00004e40 <l4882>:
    4e40:	e1530986 	cmp	r3, r6, lsl #19

00004e44 <l4883>:
    4e44:	e383b5eb 	orr	fp, r3, #985661440	; 0x3ac00000

00004e48 <l4884>:
    4e48:	ea000000 	b	4e50 <l4886>

00004e4c <l4885>:
    4e4c:	eafffffa 	b	4e3c <l4881>

00004e50 <l4886>:
    4e50:	b223ec2f 	eorlt	lr, r3, #12032	; 0x2f00

00004e54 <l4887>:
    4e54:	23b0a95a 	movscs	sl, #1474560	; 0x168000

00004e58 <l4888>:
    4e58:	a1590361 	cmpge	r9, r1, ror #6

00004e5c <l4889>:
    4e5c:	216f8f12 	clzcs	r8, r2

00004e60 <l4890>:
    4e60:	e050a313 	subs	sl, r0, r3, lsl r3

00004e64 <l4891>:
    4e64:	e3a0a01c 	mov	sl, #28

00004e68 <l4892>:
    4e68:	e7bd200a 	ldr	r2, [sp, sl]!

00004e6c <l4893>:
    4e6c:	e046751c 	sub	r7, r6, ip, lsl r5

00004e70 <l4894>:
    4e70:	e18b693b 	orr	r6, fp, fp, lsr r9

00004e74 <l4895>:
    4e74:	e33909ee 	teq	r9, #3899392	; 0x3b8000

00004e78 <l4896>:
    4e78:	60399003 	eorsvs	r9, r9, r3

00004e7c <l4897>:
    4e7c:	e0fa9fe0 	rscs	r9, sl, r0, ror #31

00004e80 <l4898>:
    4e80:	e1770841 	cmn	r7, r1, asr #16

00004e84 <l4899>:
    4e84:	da000002 	ble	4e94 <l4903>

00004e88 <l4900>:
    4e88:	101ab712 	andsne	fp, sl, r2, lsl r7

00004e8c <l4901>:
    4e8c:	80748718 	rsbshi	r8, r4, r8, lsl r7

00004e90 <l4902>:
    4e90:	e2ee6696 	rsc	r6, lr, #157286400	; 0x9600000

00004e94 <l4903>:
    4e94:	51a0a06a 	rrxpl	sl, sl

00004e98 <l4904>:
    4e98:	61a0a776 	rorvs	sl, r6, r7

00004e9c <l4905>:
    4e9c:	10be7000 	adcsne	r7, lr, r0

00004ea0 <l4906>:
    4ea0:	e1b06001 	movs	r6, r1

00004ea4 <l4907>:
    4ea4:	e2eb0766 	rsc	r0, fp, #26738688	; 0x1980000

00004ea8 <l4908>:
    4ea8:	409ba006 	addsmi	sl, fp, r6

00004eac <l4909>:
    4eac:	ea000000 	b	4eb4 <l4911>

00004eb0 <l4910>:
    4eb0:	a2a22c07 	adcge	r2, r2, #1792	; 0x700

00004eb4 <l4911>:
    4eb4:	e16fcf14 	clz	ip, r4

00004eb8 <l4912>:
    4eb8:	a0d989a8 	sbcsge	r8, r9, r8, lsr #19

00004ebc <l4913>:
    4ebc:	e1f0a000 	mvns	sl, r0

00004ec0 <l4914>:
    4ec0:	c16faf1a 	clzgt	sl, sl

00004ec4 <l4915>:
    4ec4:	e18a6659 	orr	r6, sl, r9, asr r6

00004ec8 <l4916>:
    4ec8:	5352029b 	cmppl	r2, #-1342177271	; 0xb0000009

00004ecc <l4917>:
    4ecc:	c0867066 	addgt	r7, r6, r6, rrx

00004ed0 <l4918>:
    4ed0:	21f0700b 	mvnscs	r7, fp

00004ed4 <l4919>:
    4ed4:	4073b001 	rsbsmi	fp, r3, r1

00004ed8 <l4920>:
    4ed8:	e23cbe7e 	eors	fp, ip, #2016	; 0x7e0

00004edc <l4921>:
    4edc:	da000003 	ble	4ef0 <l4926>

00004ee0 <l4922>:
    4ee0:	e28010fc 	add	r1, r0, #252	; 0xfc

00004ee4 <l4923>:
    4ee4:	e3110321 	tst	r1, #-2080374784	; 0x84000000

00004ee8 <l4924>:
    4ee8:	a04a200c 	subge	r2, sl, ip

00004eec <l4925>:
    4eec:	ea000000 	b	4ef4 <l4927>

00004ef0 <l4926>:
    4ef0:	eafffffb 	b	4ee4 <l4923>

00004ef4 <l4927>:
    4ef4:	e1180e8c 	tst	r8, ip, lsl #29

00004ef8 <l4928>:
    4ef8:	e1580c6c 	cmp	r8, ip, ror #24

00004efc <l4929>:
    4efc:	40324008 	eorsmi	r4, r2, r8

00004f00 <l4930>:
    4f00:	12847e15 	addne	r7, r4, #336	; 0x150

00004f04 <l4931>:
    4f04:	d1937b18 	orrsle	r7, r3, r8, lsl fp

00004f08 <l4932>:
    4f08:	3a000000 	bcc	4f10 <l4934>

00004f0c <l4933>:
    4f0c:	c26a7c27 	rsbgt	r7, sl, #9984	; 0x2700

00004f10 <l4934>:
    4f10:	102630c1 	eorne	r3, r6, r1, asr #1

00004f14 <l4935>:
    4f14:	8a000005 	bhi	4f30 <l4942>

00004f18 <l4936>:
    4f18:	e2801046 	add	r1, r0, #70	; 0x46

00004f1c <l4937>:
    4f1c:	a3b08b3b 	movsge	r8, #60416	; 0xec00

00004f20 <l4938>:
    4f20:	c0489116 	subgt	r9, r8, r6, lsl r1

00004f24 <l4939>:
    4f24:	e3f0eba7 	mvns	lr, #171008	; 0x29c00

00004f28 <l4940>:
    4f28:	b16fbf16 	clzlt	fp, r6

00004f2c <l4941>:
    4f2c:	ea000000 	b	4f34 <l4943>

00004f30 <l4942>:
    4f30:	eafffff9 	b	4f1c <l4937>

00004f34 <l4943>:
    4f34:	816f9f18 	clzhi	r9, r8

00004f38 <l4944>:
    4f38:	b0d60003 	sbcslt	r0, r6, r3

00004f3c <l4945>:
    4f3c:	92a84a35 	adcls	r4, r8, #217088	; 0x35000

00004f40 <l4946>:
    4f40:	e00435a1 	and	r3, r4, r1, lsr #11

00004f44 <l4947>:
    4f44:	e0576667 	subs	r6, r7, r7, ror #12

00004f48 <l4948>:
    4f48:	e40d3004 	str	r3, [sp], #-4

00004f4c <l4949>:
    4f4c:	ca000007 	bgt	4f70 <l4958>

00004f50 <l4950>:
    4f50:	e2801091 	add	r1, r0, #145	; 0x91

00004f54 <l4951>:
    4f54:	108f6f45 	addne	r6, pc, r5, asr #30

00004f58 <l4952>:
    4f58:	4072506a 	rsbsmi	r5, r2, sl, rrx

00004f5c <l4953>:
    4f5c:	e187155b 	orr	r1, r7, fp, asr r5

00004f60 <l4954>:
    4f60:	e2cfc807 	sbc	ip, pc, #458752	; 0x70000

00004f64 <l4955>:
    4f64:	02ea8417 	rsceq	r8, sl, #385875968	; 0x17000000

00004f68 <l4956>:
    4f68:	a15c09a4 	cmpge	ip, r4, lsr #19

00004f6c <l4957>:
    4f6c:	ea000000 	b	4f74 <l4959>

00004f70 <l4958>:
    4f70:	eafffff7 	b	4f54 <l4951>

00004f74 <l4959>:
    4f74:	80963b7b 	addshi	r3, r6, fp, ror fp

00004f78 <l4960>:
    4f78:	e51dc010 	ldr	ip, [sp, #-16]

00004f7c <l4961>:
    4f7c:	119c6069 	orrsne	r6, ip, r9, rrx

00004f80 <l4962>:
    4f80:	ea000000 	b	4f88 <l4964>

00004f84 <l4963>:
    4f84:	e23215de 	eors	r1, r2, #931135488	; 0x37800000

00004f88 <l4964>:
    4f88:	51e0b006 	mvnpl	fp, r6

00004f8c <l4965>:
    4f8c:	e3a09000 	mov	r9, #0

00004f90 <l4966>:
    4f90:	e69d5009 	ldr	r5, [sp], r9

00004f94 <l4967>:
    4f94:	926f1000 	rsbls	r1, pc, #0

00004f98 <l4968>:
    4f98:	e089a008 	add	sl, r9, r8

00004f9c <l4969>:
    4f9c:	00967008 	addseq	r7, r6, r8

00004fa0 <l4970>:
    4fa0:	ea000007 	b	4fc4 <l4979>

00004fa4 <l4971>:
    4fa4:	61e01a31 	mvnvs	r1, r1, lsr sl

00004fa8 <l4972>:
    4fa8:	e0c39516 	sbc	r9, r3, r6, lsl r5

00004fac <l4973>:
    4fac:	805b6212 	subshi	r6, fp, r2, lsl r2

00004fb0 <l4974>:
    4fb0:	81590577 	cmphi	r9, r7, ror r5

00004fb4 <l4975>:
    4fb4:	e1100e86 	tst	r0, r6, lsl #29

00004fb8 <l4976>:
    4fb8:	e1510749 	cmp	r1, r9, asr #14

00004fbc <l4977>:
    4fbc:	d06b016f 	rsble	r0, fp, pc, ror #2

00004fc0 <l4978>:
    4fc0:	21a097e7 	rorcs	r9, r7, #15

00004fc4 <l4979>:
    4fc4:	516fbf11 	clzpl	fp, r1

00004fc8 <l4980>:
    4fc8:	e03a0cac 	eors	r0, sl, ip, lsr #25

00004fcc <l4981>:
    4fcc:	e3a0e01c 	mov	lr, #28

00004fd0 <l4982>:
    4fd0:	e69de00e 	ldr	lr, [sp], lr

00004fd4 <l4983>:
    4fd4:	20f35065 	rscscs	r5, r3, r5, rrx

00004fd8 <l4984>:
    4fd8:	e16f1f15 	clz	r1, r5

00004fdc <l4985>:
    4fdc:	8a000004 	bhi	4ff4 <l4991>

00004fe0 <l4986>:
    4fe0:	e280107d 	add	r1, r0, #125	; 0x7d

00004fe4 <l4987>:
    4fe4:	83e0ec43 	mvnhi	lr, #17152	; 0x4300

00004fe8 <l4988>:
    4fe8:	115b085c 	cmpne	fp, ip, asr r8

00004fec <l4989>:
    4fec:	609f706c 	addsvs	r7, pc, ip, rrx

00004ff0 <l4990>:
    4ff0:	ea000000 	b	4ff8 <l4992>

00004ff4 <l4991>:
    4ff4:	eafffffa 	b	4fe4 <l4987>

00004ff8 <l4992>:
    4ff8:	408fafe4 	addmi	sl, pc, r4, ror #31

00004ffc <l4993>:
    4ffc:	e395e389 	orrs	lr, r5, #603979778	; 0x24000002

00005000 <l4994>:
    5000:	e1a00000 	nop			; (mov r0, r0)

00005004 <l4995>:
    5004:	302b2006 	eorcc	r2, fp, r6

00005008 <l4996>:
    5008:	e1c9ab76 	bic	sl, r9, r6, ror fp

0000500c <l4997>:
    500c:	81720056 	cmnhi	r2, r6, asr r0

00005010 <l4998>:
    5010:	e281b907 	add	fp, r1, #114688	; 0x1c000

00005014 <l4999>:
    5014:	e0103101 	ands	r3, r0, r1, lsl #2

00005018 <l5000>:
    5018:	e00ac008 	and	ip, sl, r8

0000501c <end>:
    501c:	eafffffe 	b	501c <end>
