
dpbls_5000.o:     file format elf32-littlearm


Disassembly of section .text:

00000000 <main>:
       0:	e05f000f 	subs	r0, pc, pc
       4:	e59fd000 	ldr	sp, [pc]	; c <val>
       8:	ea000000 	b	10 <next>

0000000c <val>:
       c:	000ffff0 	.word	0x000ffff0

00000010 <next>:
      10:	e59f1000 	ldr	r1, [pc]	; 18 <val1>
      14:	ea000000 	b	1c <next1>

00000018 <val1>:
      18:	c370042c 	.word	0xc370042c

0000001c <next1>:
      1c:	e59f2000 	ldr	r2, [pc]	; 24 <val2>
      20:	ea000000 	b	28 <next2>

00000024 <val2>:
      24:	b7cbdb14 	.word	0xb7cbdb14

00000028 <next2>:
      28:	e59f3000 	ldr	r3, [pc]	; 30 <val3>
      2c:	ea000000 	b	34 <next3>

00000030 <val3>:
      30:	1580df65 	.word	0x1580df65

00000034 <next3>:
      34:	e59f4000 	ldr	r4, [pc]	; 3c <val4>
      38:	ea000000 	b	40 <next4>

0000003c <val4>:
      3c:	3c4aced5 	.word	0x3c4aced5

00000040 <next4>:
      40:	e59f5000 	ldr	r5, [pc]	; 48 <val5>
      44:	ea000000 	b	4c <next5>

00000048 <val5>:
      48:	962ea794 	.word	0x962ea794

0000004c <next5>:
      4c:	e59f6000 	ldr	r6, [pc]	; 54 <val6>
      50:	ea000000 	b	58 <next6>

00000054 <val6>:
      54:	ea6968a0 	.word	0xea6968a0

00000058 <next6>:
      58:	e59f7000 	ldr	r7, [pc]	; 60 <val7>
      5c:	ea000000 	b	64 <next7>

00000060 <val7>:
      60:	b9e3235a 	.word	0xb9e3235a

00000064 <next7>:
      64:	e59f8000 	ldr	r8, [pc]	; 6c <val8>
      68:	ea000000 	b	70 <next8>

0000006c <val8>:
      6c:	22ad5d6e 	.word	0x22ad5d6e

00000070 <next8>:
      70:	e59f9000 	ldr	r9, [pc]	; 78 <val9>
      74:	ea000000 	b	7c <next9>

00000078 <val9>:
      78:	35d33cd7 	.word	0x35d33cd7

0000007c <next9>:
      7c:	e59fa000 	ldr	sl, [pc]	; 84 <val10>
      80:	ea000000 	b	88 <next10>

00000084 <val10>:
      84:	b4f86c09 	.word	0xb4f86c09

00000088 <next10>:
      88:	e59fb000 	ldr	fp, [pc]	; 90 <val11>
      8c:	ea000000 	b	94 <next11>

00000090 <val11>:
      90:	1bf83016 	.word	0x1bf83016

00000094 <next11>:
      94:	e59fc000 	ldr	ip, [pc]	; 9c <val12>
      98:	ea000000 	b	a0 <next12>

0000009c <val12>:
      9c:	6799a549 	.word	0x6799a549

000000a0 <next12>:
      a0:	e59fe000 	ldr	lr, [pc]	; a8 <val14>
      a4:	ea000000 	b	ac <next14>

000000a8 <val14>:
      a8:	bb74e6cd 	.word	0xbb74e6cd

000000ac <next14>:
      ac:	e59f1000 	ldr	r1, [pc]	; b4 <val15>
      b0:	ea000000 	b	b8 <next15>

000000b4 <val15>:
      b4:	edabc772 	.word	0xedabc772

000000b8 <next15>:
      b8:	e58d1000 	str	r1, [sp]
      bc:	e59f1000 	ldr	r1, [pc]	; c4 <val16>
      c0:	ea000000 	b	c8 <next16>

000000c4 <val16>:
      c4:	49bff6f6 	.word	0x49bff6f6

000000c8 <next16>:
      c8:	e50d1004 	str	r1, [sp, #-4]
      cc:	e59f1000 	ldr	r1, [pc]	; d4 <val17>
      d0:	ea000000 	b	d8 <next17>

000000d4 <val17>:
      d4:	cf544827 	.word	0xcf544827

000000d8 <next17>:
      d8:	e50d1008 	str	r1, [sp, #-8]
      dc:	e59f1000 	ldr	r1, [pc]	; e4 <val18>
      e0:	ea000000 	b	e8 <next18>

000000e4 <val18>:
      e4:	377ec1e6 	.word	0x377ec1e6

000000e8 <next18>:
      e8:	e50d100c 	str	r1, [sp, #-12]
      ec:	e59f1000 	ldr	r1, [pc]	; f4 <val19>
      f0:	ea000000 	b	f8 <next19>

000000f4 <val19>:
      f4:	c9352f43 	.word	0xc9352f43

000000f8 <next19>:
      f8:	e50d1010 	str	r1, [sp, #-16]
      fc:	e59f1000 	ldr	r1, [pc]	; 104 <val20>
     100:	ea000000 	b	108 <next20>

00000104 <val20>:
     104:	a4650995 	.word	0xa4650995

00000108 <next20>:
     108:	e50d1014 	str	r1, [sp, #-20]
     10c:	e59f1000 	ldr	r1, [pc]	; 114 <val21>
     110:	ea000000 	b	118 <next21>

00000114 <val21>:
     114:	0006b666 	.word	0x0006b666

00000118 <next21>:
     118:	e50d1018 	str	r1, [sp, #-24]
     11c:	e59f1000 	ldr	r1, [pc]	; 124 <val22>
     120:	ea000000 	b	128 <next22>

00000124 <val22>:
     124:	af0642c0 	.word	0xaf0642c0

00000128 <next22>:
     128:	e50d101c 	str	r1, [sp, #-28]
     12c:	e59f1000 	ldr	r1, [pc]	; 134 <val23>
     130:	ea000000 	b	138 <next23>

00000134 <val23>:
     134:	be8ca5d3 	.word	0xbe8ca5d3

00000138 <next23>:
     138:	e50d1020 	str	r1, [sp, #-32]
     13c:	e59f1000 	ldr	r1, [pc]	; 144 <val24>
     140:	ea000000 	b	148 <next24>

00000144 <val24>:
     144:	f2c5586f 	.word	0xf2c5586f

00000148 <next24>:
     148:	e50d1024 	str	r1, [sp, #-36]	; 0x24
     14c:	e59f1000 	ldr	r1, [pc]	; 154 <val25>
     150:	ea000000 	b	158 <next25>

00000154 <val25>:
     154:	cf24dc83 	.word	0xcf24dc83

00000158 <next25>:
     158:	e50d1028 	str	r1, [sp, #-40]	; 0x28
     15c:	e59f1000 	ldr	r1, [pc]	; 164 <val26>
     160:	ea000000 	b	168 <next26>

00000164 <val26>:
     164:	945002bd 	.word	0x945002bd

00000168 <next26>:
     168:	e50d102c 	str	r1, [sp, #-44]	; 0x2c
     16c:	e59f1000 	ldr	r1, [pc]	; 174 <val27>
     170:	ea000000 	b	178 <next27>

00000174 <val27>:
     174:	ceca2fff 	.word	0xceca2fff

00000178 <next27>:
     178:	e50d1030 	str	r1, [sp, #-48]	; 0x30
     17c:	e59f1000 	ldr	r1, [pc]	; 184 <val28>
     180:	ea000000 	b	188 <next28>

00000184 <val28>:
     184:	e1559d70 	.word	0xe1559d70

00000188 <next28>:
     188:	e50d1034 	str	r1, [sp, #-52]	; 0x34
     18c:	e59f1000 	ldr	r1, [pc]	; 194 <val29>
     190:	ea000000 	b	198 <next29>

00000194 <val29>:
     194:	6d718f0d 	.word	0x6d718f0d

00000198 <next29>:
     198:	e50d1038 	str	r1, [sp, #-56]	; 0x38
     19c:	e59f1000 	ldr	r1, [pc]	; 1a4 <val30>
     1a0:	ea000000 	b	1a8 <next30>

000001a4 <val30>:
     1a4:	40606c0b 	.word	0x40606c0b

000001a8 <next30>:
     1a8:	e50d103c 	str	r1, [sp, #-60]	; 0x3c
     1ac:	e59f1000 	ldr	r1, [pc]	; 1b4 <val31>
     1b0:	ea000000 	b	1b8 <next31>

000001b4 <val31>:
     1b4:	bf835c04 	.word	0xbf835c04

000001b8 <next31>:
     1b8:	e50d1040 	str	r1, [sp, #-64]	; 0x40
     1bc:	e59f1000 	ldr	r1, [pc]	; 1c4 <val32>
     1c0:	ea000000 	b	1c8 <next32>

000001c4 <val32>:
     1c4:	7d6fe35b 	.word	0x7d6fe35b

000001c8 <next32>:
     1c8:	e50d1044 	str	r1, [sp, #-68]	; 0x44
     1cc:	e59f1000 	ldr	r1, [pc]	; 1d4 <val33>
     1d0:	ea000000 	b	1d8 <next33>

000001d4 <val33>:
     1d4:	4143f1bc 	.word	0x4143f1bc

000001d8 <next33>:
     1d8:	e50d1048 	str	r1, [sp, #-72]	; 0x48
     1dc:	e59f1000 	ldr	r1, [pc]	; 1e4 <val34>
     1e0:	ea000000 	b	1e8 <next34>

000001e4 <val34>:
     1e4:	9b20c3b8 	.word	0x9b20c3b8

000001e8 <next34>:
     1e8:	e50d104c 	str	r1, [sp, #-76]	; 0x4c
     1ec:	e59f1000 	ldr	r1, [pc]	; 1f4 <val35>
     1f0:	ea000000 	b	1f8 <next35>

000001f4 <val35>:
     1f4:	a42b9ee2 	.word	0xa42b9ee2

000001f8 <next35>:
     1f8:	e50d1050 	str	r1, [sp, #-80]	; 0x50

000001fc <l1>:
     1fc:	9a000007 	bls	220 <l10>

00000200 <l2>:
     200:	e28010c9 	add	r1, r0, #201	; 0xc9

00000204 <l3>:
     204:	b19c1009 	orrslt	r1, ip, r9

00000208 <l4>:
     208:	e0445217 	sub	r5, r4, r7, lsl r2

0000020c <l5>:
     20c:	6001106f 	andvs	r1, r1, pc, rrx

00000210 <l6>:
     210:	e15607e8 	cmp	r6, r8, ror #15

00000214 <l7>:
     214:	e0bbb01c 	adcs	fp, fp, ip, lsl r0

00000218 <l8>:
     218:	b1f0b06c 	mvnslt	fp, ip, rrx

0000021c <l9>:
     21c:	ea000000 	b	224 <l11>

00000220 <l10>:
     220:	eafffff7 	b	204 <l3>

00000224 <l11>:
     224:	4176000b 	cmnmi	r6, fp

00000228 <l12>:
     228:	e0a316a5 	adc	r1, r3, r5, lsr #13

0000022c <l13>:
     22c:	b354053a 	cmplt	r4, #243269632	; 0xe800000

00000230 <l14>:
     230:	e086306e 	add	r3, r6, lr, rrx

00000234 <l15>:
     234:	d0996060 	addsle	r6, r9, r0, rrx

00000238 <l16>:
     238:	81d77007 	bicshi	r7, r7, r7

0000023c <l17>:
     23c:	02db695d 	sbcseq	r6, fp, #1523712	; 0x174000

00000240 <l18>:
     240:	4a000003 	bmi	254 <l23>

00000244 <l19>:
     244:	a1130b50 	tstge	r3, r0, asr fp

00000248 <l20>:
     248:	e3130901 	tst	r3, #16384	; 0x4000

0000024c <l21>:
     24c:	0221cca2 	eoreq	ip, r1, #41472	; 0xa200

00000250 <l22>:
     250:	a1cce009 	bicge	lr, ip, r9

00000254 <l23>:
     254:	e1310002 	teq	r1, r2

00000258 <l24>:
     258:	e2540432 	subs	r0, r4, #838860800	; 0x32000000

0000025c <l25>:
     25c:	d0d4c849 	sbcsle	ip, r4, r9, asr #16

00000260 <l26>:
     260:	30abe466 	adccc	lr, fp, r6, ror #8

00000264 <l27>:
     264:	e0e4800b 	rsc	r8, r4, fp

00000268 <l28>:
     268:	01530a3e 	cmpeq	r3, lr, lsr sl

0000026c <l29>:
     26c:	e3a0c03c 	mov	ip, #60	; 0x3c

00000270 <l30>:
     270:	e70d800c 	str	r8, [sp, -ip]

00000274 <l31>:
     274:	ea000007 	b	298 <l40>

00000278 <l32>:
     278:	e280106b 	add	r1, r0, #107	; 0x6b

0000027c <l33>:
     27c:	e18eb942 	orr	fp, lr, r2, asr #18

00000280 <l34>:
     280:	e01e7b53 	ands	r7, lr, r3, asr fp

00000284 <l35>:
     284:	133c0e4e 	teqne	ip, #1248	; 0x4e0

00000288 <l36>:
     288:	b376054b 	cmnlt	r6, #314572800	; 0x12c00000

0000028c <l37>:
     28c:	016f3f19 	clzeq	r3, r9

00000290 <l38>:
     290:	b1d81003 	bicslt	r1, r8, r3

00000294 <l39>:
     294:	ea000000 	b	29c <l41>

00000298 <l40>:
     298:	eafffff7 	b	27c <l33>

0000029c <l41>:
     29c:	50d9500f 	sbcspl	r5, r9, pc

000002a0 <l42>:
     2a0:	ea000004 	b	2b8 <l48>

000002a4 <l43>:
     2a4:	e2801092 	add	r1, r0, #146	; 0x92

000002a8 <l44>:
     2a8:	e0992704 	adds	r2, r9, r4, lsl #14

000002ac <l45>:
     2ac:	e093a009 	adds	sl, r3, r9

000002b0 <l46>:
     2b0:	e1160067 	tst	r6, r7, rrx

000002b4 <l47>:
     2b4:	ea000000 	b	2bc <l49>

000002b8 <l48>:
     2b8:	eafffffa 	b	2a8 <l44>

000002bc <l49>:
     2bc:	e3a0804e 	mov	r8, #78	; 0x4e

000002c0 <l50>:
     2c0:	e73d9008 	ldr	r9, [sp, -r8]!

000002c4 <l51>:
     2c4:	b048885a 	sublt	r8, r8, sl, asr r8

000002c8 <l52>:
     2c8:	e1e02005 	mvn	r2, r5

000002cc <l53>:
     2cc:	e07ee00b 	rsbs	lr, lr, fp

000002d0 <l54>:
     2d0:	e49d7003 	ldr	r7, [sp], #3

000002d4 <l55>:
     2d4:	e2450739 	sub	r0, r5, #14942208	; 0xe40000

000002d8 <l56>:
     2d8:	5a000003 	bpl	2ec <l61>

000002dc <l57>:
     2dc:	e28010e0 	add	r1, r0, #224	; 0xe0

000002e0 <l58>:
     2e0:	e0650587 	rsb	r0, r5, r7, lsl #11

000002e4 <l59>:
     2e4:	e0415004 	sub	r5, r1, r4

000002e8 <l60>:
     2e8:	ea000000 	b	2f0 <l62>

000002ec <l61>:
     2ec:	eafffffb 	b	2e0 <l58>

000002f0 <l62>:
     2f0:	e3a02013 	mov	r2, #19

000002f4 <l63>:
     2f4:	e68d5002 	str	r5, [sp], r2

000002f8 <l64>:
     2f8:	229b3bd2 	addscs	r3, fp, #215040	; 0x34800

000002fc <l65>:
     2fc:	c044000e 	subgt	r0, r4, lr

00000300 <l66>:
     300:	e0d30006 	sbcs	r0, r3, r6

00000304 <l67>:
     304:	e5bd8021 	ldr	r8, [sp, #33]!	; 0x21

00000308 <l68>:
     308:	e1f0145c 	mvns	r1, ip, asr r4

0000030c <l69>:
     30c:	8a000007 	bhi	330 <l78>

00000310 <l70>:
     310:	e2801060 	add	r1, r0, #96	; 0x60

00000314 <l71>:
     314:	e056400a 	subs	r4, r6, sl

00000318 <l72>:
     318:	50e477a2 	rscpl	r7, r4, r2, lsr #15

0000031c <l73>:
     31c:	e16f9f1e 	clz	r9, lr

00000320 <l74>:
     320:	41510a06 	cmpmi	r1, r6, lsl #20

00000324 <l75>:
     324:	e13e000f 	teq	lr, pc

00000328 <l76>:
     328:	e0ce5007 	sbc	r5, lr, r7

0000032c <l77>:
     32c:	ea000000 	b	334 <l79>

00000330 <l78>:
     330:	eafffff7 	b	314 <l71>

00000334 <l79>:
     334:	02b2b423 	adcseq	fp, r2, #587202560	; 0x23000000

00000338 <l80>:
     338:	71a05005 	movvc	r5, r5

0000033c <l81>:
     33c:	c0fa6009 	rscsgt	r6, sl, r9

00000340 <l82>:
     340:	31190008 	tstcc	r9, r8

00000344 <l83>:
     344:	40c8106b 	sbcmi	r1, r8, fp, rrx

00000348 <l84>:
     348:	705bb00c 	subsvc	fp, fp, ip

0000034c <l85>:
     34c:	e001100e 	and	r1, r1, lr

00000350 <l86>:
     350:	9a000006 	bls	370 <l94>

00000354 <l87>:
     354:	e1370b6f 	teq	r7, pc, ror #22

00000358 <l88>:
     358:	43320c11 	teqmi	r2, #4352	; 0x1100

0000035c <l89>:
     35c:	e311037f 	tst	r1, #-67108863	; 0xfc000001

00000360 <l90>:
     360:	52b9b95a 	adcspl	fp, r9, #1474560	; 0x168000

00000364 <l91>:
     364:	c1740824 	cmngt	r4, r4, lsr #16

00000368 <l92>:
     368:	71c0700a 	bicvc	r7, r0, sl

0000036c <l93>:
     36c:	e151052a 	cmp	r1, sl, lsr #10

00000370 <l94>:
     370:	c04a1c3a 	subgt	r1, sl, sl, lsr ip

00000374 <l95>:
     374:	916f1f18 	clzls	r1, r8

00000378 <l96>:
     378:	a0340062 	eorsge	r0, r4, r2, rrx

0000037c <l97>:
     37c:	50ca02e5 	sbcpl	r0, sl, r5, ror #5

00000380 <l98>:
     380:	e16faf11 	clz	sl, r1

00000384 <l99>:
     384:	905b6838 	subsls	r6, fp, r8, lsr r8

00000388 <l100>:
     388:	9a000005 	bls	3a4 <l107>

0000038c <l101>:
     38c:	e280103a 	add	r1, r0, #58	; 0x3a

00000390 <l102>:
     390:	e1730063 	cmn	r3, r3, rrx

00000394 <l103>:
     394:	e0f780c3 	rscs	r8, r7, r3, asr #1

00000398 <l104>:
     398:	e1d39001 	bics	r9, r3, r1

0000039c <l105>:
     39c:	116f9f1e 	clzne	r9, lr

000003a0 <l106>:
     3a0:	ea000000 	b	3a8 <l108>

000003a4 <l107>:
     3a4:	eafffff9 	b	390 <l102>

000003a8 <l108>:
     3a8:	00508064 	subseq	r8, r0, r4, rrx

000003ac <l109>:
     3ac:	e19c100a 	orrs	r1, ip, sl

000003b0 <l110>:
     3b0:	53550502 	cmppl	r5, #8388608	; 0x800000

000003b4 <l111>:
     3b4:	80896006 	addhi	r6, r9, r6

000003b8 <l112>:
     3b8:	ea000005 	b	3d4 <l119>

000003bc <l113>:
     3bc:	e28010cd 	add	r1, r0, #205	; 0xcd

000003c0 <l114>:
     3c0:	e38c9546 	orr	r9, ip, #293601280	; 0x11800000

000003c4 <l115>:
     3c4:	e1720001 	cmn	r2, r1

000003c8 <l116>:
     3c8:	40dc433e 	sbcsmi	r4, ip, lr, lsr r3

000003cc <l117>:
     3cc:	a1170c72 	tstge	r7, r2, ror ip

000003d0 <l118>:
     3d0:	ea000000 	b	3d8 <l120>

000003d4 <l119>:
     3d4:	eafffff9 	b	3c0 <l114>

000003d8 <l120>:
     3d8:	8054bc14 	subshi	fp, r4, r4, lsl ip

000003dc <l121>:
     3dc:	e2411415 	sub	r1, r1, #352321536	; 0x15000000

000003e0 <l122>:
     3e0:	201fc1e6 	andscs	ip, pc, r6, ror #3

000003e4 <l123>:
     3e4:	e1330000 	teq	r3, r0

000003e8 <l124>:
     3e8:	e3a0c085 	mov	ip, #133	; 0x85

000003ec <l125>:
     3ec:	022be60e 	eoreq	lr, fp, #14680064	; 0xe00000

000003f0 <l126>:
     3f0:	9a000008 	bls	418 <l136>

000003f4 <l127>:
     3f4:	a1330068 	teqge	r3, r8, rrx

000003f8 <l128>:
     3f8:	118fa00b 	orrne	sl, pc, fp

000003fc <l129>:
     3fc:	c0721e33 	rsbsgt	r1, r2, r3, lsr lr

00000400 <l130>:
     400:	e17a0889 	cmn	sl, r9, lsl #17

00000404 <l131>:
     404:	83c73477 	bichi	r3, r7, #1996488704	; 0x77000000

00000408 <l132>:
     408:	013b0f8a 	teqeq	fp, sl, lsl #31

0000040c <l133>:
     40c:	e02a900b 	eor	r9, sl, fp

00000410 <l134>:
     410:	c1e00001 	mvngt	r0, r1

00000414 <l135>:
     414:	713a0081 	teqvc	sl, r1, lsl #1

00000418 <l136>:
     418:	a0449c88 	subge	r9, r4, r8, lsl #25

0000041c <l137>:
     41c:	e097e007 	adds	lr, r7, r7

00000420 <l138>:
     420:	b1ce8002 	biclt	r8, lr, r2

00000424 <l139>:
     424:	da000004 	ble	43c <l145>

00000428 <l140>:
     428:	e2801009 	add	r1, r0, #9

0000042c <l141>:
     42c:	11c12061 	bicne	r2, r1, r1, rrx

00000430 <l142>:
     430:	e019bb5c 	ands	fp, r9, ip, asr fp

00000434 <l143>:
     434:	a00e4a57 	andge	r4, lr, r7, asr sl

00000438 <l144>:
     438:	ea000000 	b	440 <l146>

0000043c <l145>:
     43c:	eafffffa 	b	42c <l141>

00000440 <l146>:
     440:	d16f6f1e 	clzle	r6, lr

00000444 <l147>:
     444:	e16fef16 	clz	lr, r6

00000448 <l148>:
     448:	d3510e17 	cmple	r1, #368	; 0x170

0000044c <l149>:
     44c:	92d76ee9 	sbcsls	r6, r7, #3728	; 0xe90

00000450 <l150>:
     450:	e0e3900e 	rsc	r9, r3, lr

00000454 <l151>:
     454:	e37f009c 	cmn	pc, #156	; 0x9c

00000458 <l152>:
     458:	e056ec36 	subs	lr, r6, r6, lsr ip

0000045c <l153>:
     45c:	e3a07000 	mov	r7, #0

00000460 <l154>:
     460:	e73db007 	ldr	fp, [sp, -r7]!

00000464 <l155>:
     464:	e33704b9 	teq	r7, #-1191182336	; 0xb9000000

00000468 <l156>:
     468:	30d7900f 	sbcscc	r9, r7, pc

0000046c <l157>:
     46c:	e1db9456 	bics	r9, fp, r6, asr r4

00000470 <l158>:
     470:	e2877826 	add	r7, r7, #2490368	; 0x260000

00000474 <l159>:
     474:	115e0b5c 	cmpne	lr, ip, asr fp

00000478 <l160>:
     478:	1a000004 	bne	490 <l166>

0000047c <l161>:
     47c:	40c42060 	sbcmi	r2, r4, r0, rrx

00000480 <l162>:
     480:	e0199060 	ands	r9, r9, r0, rrx

00000484 <l163>:
     484:	d1580006 	cmple	r8, r6

00000488 <l164>:
     488:	211e047b 	tstcs	lr, fp, ror r4

0000048c <l165>:
     48c:	b11c00ae 	tstlt	ip, lr, lsr #1

00000490 <l166>:
     490:	e2f421d2 	rscs	r2, r4, #-2147483596	; 0x80000034

00000494 <l167>:
     494:	8202e9e5 	andhi	lr, r2, #3751936	; 0x394000

00000498 <l168>:
     498:	7259a6eb 	subsvc	sl, r9, #246415360	; 0xeb00000

0000049c <l169>:
     49c:	c16f2f15 	clzgt	r2, r5

000004a0 <l170>:
     4a0:	e1190b3c 	tst	r9, ip, lsr fp

000004a4 <l171>:
     4a4:	c0fc3064 	rscsgt	r3, ip, r4, rrx

000004a8 <l172>:
     4a8:	e0e37e18 	rsc	r7, r3, r8, lsl lr

000004ac <l173>:
     4ac:	40d20007 	sbcsmi	r0, r2, r7

000004b0 <l174>:
     4b0:	2082800c 	addcs	r8, r2, ip

000004b4 <l175>:
     4b4:	0a000006 	beq	4d4 <l183>

000004b8 <l176>:
     4b8:	e2801014 	add	r1, r0, #20

000004bc <l177>:
     4bc:	a0debee2 	sbcsge	fp, lr, r2, ror #29

000004c0 <l178>:
     4c0:	01c81061 	biceq	r1, r8, r1, rrx

000004c4 <l179>:
     4c4:	90d3341e 	sbcsls	r3, r3, lr, lsl r4

000004c8 <l180>:
     4c8:	3206c63e 	andcc	ip, r6, #65011712	; 0x3e00000

000004cc <l181>:
     4cc:	c11e0b73 	tstgt	lr, r3, ror fp

000004d0 <l182>:
     4d0:	ea000000 	b	4d8 <l184>

000004d4 <l183>:
     4d4:	eafffff8 	b	4bc <l177>

000004d8 <l184>:
     4d8:	30d731aa 	sbcscc	r3, r7, sl, lsr #3

000004dc <l185>:
     4dc:	ba000002 	blt	4ec <l189>

000004e0 <l186>:
     4e0:	b16fef17 	clzlt	lr, r7

000004e4 <l187>:
     4e4:	422b010d 	eormi	r0, fp, #1073741827	; 0x40000003

000004e8 <l188>:
     4e8:	00766651 	rsbseq	r6, r6, r1, asr r6

000004ec <l189>:
     4ec:	a130013c 	teqge	r0, ip, lsr r1

000004f0 <l190>:
     4f0:	c0f7e00a 	rscsgt	lr, r7, sl

000004f4 <l191>:
     4f4:	e16f2f19 	clz	r2, r9

000004f8 <l192>:
     4f8:	6a000001 	bvs	504 <l195>

000004fc <l193>:
     4fc:	81310002 	teqhi	r1, r2

00000500 <l194>:
     500:	c01ee002 	andsgt	lr, lr, r2

00000504 <l195>:
     504:	e16f6f1c 	clz	r6, ip

00000508 <l196>:
     508:	23b0c063 	movscs	ip, #99	; 0x63

0000050c <l197>:
     50c:	6a000006 	bvs	52c <l205>

00000510 <l198>:
     510:	e16f1f16 	clz	r1, r6

00000514 <l199>:
     514:	e037c926 	eors	ip, r7, r6, lsr #18

00000518 <l200>:
     518:	e1e0be54 	mvn	fp, r4, asr lr

0000051c <l201>:
     51c:	e35e0d52 	cmp	lr, #5248	; 0x1480

00000520 <l202>:
     520:	e00b200c 	and	r2, fp, ip

00000524 <l203>:
     524:	e0653004 	rsb	r3, r5, r4

00000528 <l204>:
     528:	31e0c553 	mvncc	ip, r3, asr r5

0000052c <l205>:
     52c:	e0525008 	subs	r5, r2, r8

00000530 <l206>:
     530:	71d94fa9 	bicsvc	r4, r9, r9, lsr #31

00000534 <l207>:
     534:	e3a0101e 	mov	r1, #30

00000538 <l208>:
     538:	171da001 	ldrne	sl, [sp, -r1]

0000053c <l209>:
     53c:	e25c5029 	subs	r5, ip, #41	; 0x29

00000540 <l210>:
     540:	e09a5009 	adds	r5, sl, r9

00000544 <l211>:
     544:	e07be007 	rsbs	lr, fp, r7

00000548 <l212>:
     548:	01c67731 	biceq	r7, r6, r1, lsr r7

0000054c <l213>:
     54c:	90096206 	andls	r6, r9, r6, lsl #4

00000550 <l214>:
     550:	ca000008 	bgt	578 <l224>

00000554 <l215>:
     554:	00a15c57 	adceq	r5, r1, r7, asr ip

00000558 <l216>:
     558:	82c6306b 	sbchi	r3, r6, #107	; 0x6b

0000055c <l217>:
     55c:	d2610302 	rsble	r0, r1, #134217728	; 0x8000000

00000560 <l218>:
     560:	328ee7c1 	addcc	lr, lr, #50593792	; 0x3040000

00000564 <l219>:
     564:	41cbc924 	bicmi	ip, fp, r4, lsr #18

00000568 <l220>:
     568:	e216ee3d 	ands	lr, r6, #976	; 0x3d0

0000056c <l221>:
     56c:	60b89060 	adcsvs	r9, r8, r0, rrx

00000570 <l222>:
     570:	e380a013 	orr	sl, r0, #19

00000574 <l223>:
     574:	21e07b1b 	mvncs	r7, fp, lsl fp

00000578 <l224>:
     578:	409e8000 	addsmi	r8, lr, r0

0000057c <l225>:
     57c:	31e045c4 	mvncc	r4, r4, asr #11

00000580 <l226>:
     580:	e183b06e 	orr	fp, r3, lr, rrx

00000584 <l227>:
     584:	938327c2 	orrls	r2, r3, #50855936	; 0x3080000

00000588 <l228>:
     588:	53380717 	teqpl	r8, #6029312	; 0x5c0000

0000058c <l229>:
     58c:	61340803 	teqvs	r4, r3, lsl #16

00000590 <l230>:
     590:	e21b9359 	ands	r9, fp, #1677721601	; 0x64000001

00000594 <l231>:
     594:	01f09e57 	mvnseq	r9, r7, asr lr

00000598 <l232>:
     598:	30233064 	eorcc	r3, r3, r4, rrx

0000059c <l233>:
     59c:	21f0541e 	mvnscs	r5, lr, lsl r4

000005a0 <l234>:
     5a0:	50e66064 	rscpl	r6, r6, r4, rrx

000005a4 <l235>:
     5a4:	919cc06e 	orrsls	ip, ip, lr, rrx

000005a8 <l236>:
     5a8:	e3d5b5a7 	bics	fp, r5, #700448768	; 0x29c00000

000005ac <l237>:
     5ac:	43b0610a 	movsmi	r6, #-2147483646	; 0x80000002

000005b0 <l238>:
     5b0:	c0432067 	subgt	r2, r3, r7, rrx

000005b4 <l239>:
     5b4:	70e6b00c 	rscvc	fp, r6, ip

000005b8 <l240>:
     5b8:	a16f6f15 	clzge	r6, r5

000005bc <l241>:
     5bc:	e3b0a1de 	movs	sl, #-2147483593	; 0x80000037

000005c0 <l242>:
     5c0:	61c78182 	bicvs	r8, r7, r2, lsl #3

000005c4 <l243>:
     5c4:	7076c003 	rsbsvc	ip, r6, r3

000005c8 <l244>:
     5c8:	2a000008 	bcs	5f0 <l254>

000005cc <l245>:
     5cc:	239e358b 	orrscs	r3, lr, #583008256	; 0x22c00000

000005d0 <l246>:
     5d0:	e16f5f16 	clz	r5, r6

000005d4 <l247>:
     5d4:	e3a01409 	mov	r1, #150994944	; 0x9000000

000005d8 <l248>:
     5d8:	311b0008 	tstcc	fp, r8

000005dc <l249>:
     5dc:	e130051c 	teq	r0, ip, lsl r5

000005e0 <l250>:
     5e0:	e0622132 	rsb	r2, r2, r2, lsr r1

000005e4 <l251>:
     5e4:	315709ea 	cmpcc	r7, sl, ror #19

000005e8 <l252>:
     5e8:	e0353064 	eors	r3, r5, r4, rrx

000005ec <l253>:
     5ec:	e0160875 	ands	r0, r6, r5, ror r8

000005f0 <l254>:
     5f0:	1316020f 	tstne	r6, #-268435456	; 0xf0000000

000005f4 <l255>:
     5f4:	338bc43b 	orrcc	ip, fp, #989855744	; 0x3b000000

000005f8 <l256>:
     5f8:	303b845e 	eorscc	r8, fp, lr, asr r4

000005fc <l257>:
     5fc:	41e0e003 	mvnmi	lr, r3

00000600 <l258>:
     600:	e3a04003 	mov	r4, #3

00000604 <l259>:
     604:	e7ad0004 	str	r0, [sp, r4]!

00000608 <l260>:
     608:	e0148002 	ands	r8, r4, r2

0000060c <l261>:
     60c:	438b9821 	orrmi	r9, fp, #2162688	; 0x210000

00000610 <l262>:
     610:	235c030b 	cmpcs	ip, #738197504	; 0x2c000000

00000614 <l263>:
     614:	e159013b 	cmp	r9, fp, lsr r1

00000618 <l264>:
     618:	e0353001 	eors	r3, r5, r1

0000061c <l265>:
     61c:	22e070a8 	rsccs	r7, r0, #168	; 0xa8

00000620 <l266>:
     620:	e3808f42 	orr	r8, r0, #264	; 0x108

00000624 <l267>:
     624:	31a07007 	movcc	r7, r7

00000628 <l268>:
     628:	71e0bca5 	mvnvc	fp, r5, lsr #25

0000062c <l269>:
     62c:	901c7a8e 	andsls	r7, ip, lr, lsl #21

00000630 <l270>:
     630:	7a000008 	bvc	658 <l280>

00000634 <l271>:
     634:	b2a9257d 	adclt	r2, r9, #524288000	; 0x1f400000

00000638 <l272>:
     638:	31e0e0a6 	mvncc	lr, r6, lsr #1

0000063c <l273>:
     63c:	01d89062 	bicseq	r9, r8, r2, rrx

00000640 <l274>:
     640:	e11a0065 	tst	sl, r5, rrx

00000644 <l275>:
     644:	e03c8004 	eors	r8, ip, r4

00000648 <l276>:
     648:	937106d6 	cmnls	r1, #224395264	; 0xd600000

0000064c <l277>:
     64c:	508615e2 	addpl	r1, r6, r2, ror #11

00000650 <l278>:
     650:	80f8b000 	rscshi	fp, r8, r0

00000654 <l279>:
     654:	e1710631 	cmn	r1, r1, lsr r6

00000658 <l280>:
     658:	50458488 	subpl	r8, r5, r8, lsl #9

0000065c <l281>:
     65c:	8a000005 	bhi	678 <l288>

00000660 <l282>:
     660:	e28010e1 	add	r1, r0, #225	; 0xe1

00000664 <l283>:
     664:	e16fcf14 	clz	ip, r4

00000668 <l284>:
     668:	e1f08061 	mvns	r8, r1, rrx

0000066c <l285>:
     66c:	e1540c03 	cmp	r4, r3, lsl #24

00000670 <l286>:
     670:	500c2270 	andpl	r2, ip, r0, ror r2

00000674 <l287>:
     674:	ea000000 	b	67c <l289>

00000678 <l288>:
     678:	eafffff9 	b	664 <l283>

0000067c <l289>:
     67c:	e39c886e 	orrs	r8, ip, #7208960	; 0x6e0000

00000680 <l290>:
     680:	91350003 	teqls	r5, r3

00000684 <l291>:
     684:	e0be9d28 	adcs	r9, lr, r8, lsr #26

00000688 <l292>:
     688:	a04a1001 	subge	r1, sl, r1

0000068c <l293>:
     68c:	91720007 	cmnls	r2, r7

00000690 <l294>:
     690:	6355096a 	cmpvs	r5, #1736704	; 0x1a8000

00000694 <l295>:
     694:	aa000007 	bge	6b8 <l304>

00000698 <l296>:
     698:	e28010c3 	add	r1, r0, #195	; 0xc3

0000069c <l297>:
     69c:	e093900f 	adds	r9, r3, pc

000006a0 <l298>:
     6a0:	e37409d1 	cmn	r4, #3424256	; 0x344000

000006a4 <l299>:
     6a4:	a0951005 	addsge	r1, r5, r5

000006a8 <l300>:
     6a8:	31e08516 	mvncc	r8, r6, lsl r5

000006ac <l301>:
     6ac:	d210073e 	andsle	r0, r0, #16252928	; 0xf80000

000006b0 <l302>:
     6b0:	e0682671 	rsb	r2, r8, r1, ror r6

000006b4 <l303>:
     6b4:	ea000000 	b	6bc <l305>

000006b8 <l304>:
     6b8:	eafffff7 	b	69c <l297>

000006bc <l305>:
     6bc:	e1a04065 	rrx	r4, r5

000006c0 <l306>:
     6c0:	918a2004 	orrls	r2, sl, r4

000006c4 <l307>:
     6c4:	904a3813 	subls	r3, sl, r3, lsl r8

000006c8 <l308>:
     6c8:	e17f0067 	cmn	pc, r7, rrx

000006cc <l309>:
     6cc:	e1f00068 	mvns	r0, r8, rrx

000006d0 <l310>:
     6d0:	e1e05903 	mvn	r5, r3, lsl #18

000006d4 <l311>:
     6d4:	103e827a 	eorsne	r8, lr, sl, ror r2

000006d8 <l312>:
     6d8:	40396060 	eorsmi	r6, r9, r0, rrx

000006dc <l313>:
     6dc:	e33403b5 	teq	r4, #-738197502	; 0xd4000002

000006e0 <l314>:
     6e0:	e49d600c 	ldr	r6, [sp], #12

000006e4 <l315>:
     6e4:	e15a0001 	cmp	sl, r1

000006e8 <l316>:
     6e8:	7a000004 	bvc	700 <l322>

000006ec <l317>:
     6ec:	713a0913 	teqvc	sl, r3, lsl r9

000006f0 <l318>:
     6f0:	e0ac6573 	adc	r6, ip, r3, ror r5

000006f4 <l319>:
     6f4:	3136006e 	teqcc	r6, lr, rrx

000006f8 <l320>:
     6f8:	a1c51007 	bicge	r1, r5, r7

000006fc <l321>:
     6fc:	219fb000 	orrscs	fp, pc, r0

00000700 <l322>:
     700:	705b0c34 	subsvc	r0, fp, r4, lsr ip

00000704 <l323>:
     704:	e1380004 	teq	r8, r4

00000708 <l324>:
     708:	ea000005 	b	724 <l331>

0000070c <l325>:
     70c:	e280100d 	add	r1, r0, #13

00000710 <l326>:
     710:	e1a0500b 	mov	r5, fp

00000714 <l327>:
     714:	e0816000 	add	r6, r1, r0

00000718 <l328>:
     718:	e262271e 	rsb	r2, r2, #7864320	; 0x780000

0000071c <l329>:
     71c:	e0e4100c 	rsc	r1, r4, ip

00000720 <l330>:
     720:	ea000000 	b	728 <l332>

00000724 <l331>:
     724:	eafffff9 	b	710 <l326>

00000728 <l332>:
     728:	a05a3756 	subsge	r3, sl, r6, asr r7

0000072c <l333>:
     72c:	42ee90d8 	rscmi	r9, lr, #216	; 0xd8

00000730 <l334>:
     730:	e2195701 	ands	r5, r9, #262144	; 0x40000

00000734 <l335>:
     734:	ea000004 	b	74c <l341>

00000738 <l336>:
     738:	e2801049 	add	r1, r0, #73	; 0x49

0000073c <l337>:
     73c:	613f000f 	teqvs	pc, pc

00000740 <l338>:
     740:	e37c0437 	cmn	ip, #922746880	; 0x37000000

00000744 <l339>:
     744:	e0a26061 	adc	r6, r2, r1, rrx

00000748 <l340>:
     748:	ea000000 	b	750 <l342>

0000074c <l341>:
     74c:	eafffffa 	b	73c <l337>

00000750 <l342>:
     750:	10e2447b 	rscne	r4, r2, fp, ror r4

00000754 <l343>:
     754:	e384b15b 	orr	fp, r4, #-1073741802	; 0xc0000016

00000758 <l344>:
     758:	e41d902c 	ldr	r9, [sp], #-44	; 0x2c

0000075c <l345>:
     75c:	e222941b 	eor	r9, r2, #452984832	; 0x1b000000

00000760 <l346>:
     760:	51b03e2f 	lsrspl	r3, pc, #28

00000764 <l347>:
     764:	da000005 	ble	780 <l354>

00000768 <l348>:
     768:	e280109a 	add	r1, r0, #154	; 0x9a

0000076c <l349>:
     76c:	b0339741 	eorslt	r9, r3, r1, asr #14

00000770 <l350>:
     770:	91d531e4 	bicsls	r3, r5, r4, ror #3

00000774 <l351>:
     774:	c010ce1e 	andsgt	ip, r0, lr, lsl lr

00000778 <l352>:
     778:	c0f02009 	rscsgt	r2, r0, r9

0000077c <l353>:
     77c:	ea000000 	b	784 <l355>

00000780 <l354>:
     780:	eafffff9 	b	76c <l349>

00000784 <l355>:
     784:	e18e5009 	orr	r5, lr, r9

00000788 <l356>:
     788:	e5ad301c 	str	r3, [sp, #28]!

0000078c <l357>:
     78c:	e16fef10 	clz	lr, r0

00000790 <l358>:
     790:	82181d2a 	andshi	r1, r8, #2688	; 0xa80

00000794 <l359>:
     794:	80d64d80 	sbcshi	r4, r6, r0, lsl #27

00000798 <l360>:
     798:	ea000004 	b	7b0 <l366>

0000079c <l361>:
     79c:	e2801093 	add	r1, r0, #147	; 0x93

000007a0 <l362>:
     7a0:	91b0607c 	rorsls	r6, ip, r0

000007a4 <l363>:
     7a4:	10d57005 	sbcsne	r7, r5, r5

000007a8 <l364>:
     7a8:	3187a27a 	orrcc	sl, r7, sl, ror r2

000007ac <l365>:
     7ac:	ea000000 	b	7b4 <l367>

000007b0 <l366>:
     7b0:	eafffffa 	b	7a0 <l362>

000007b4 <l367>:
     7b4:	70024b71 	andvc	r4, r2, r1, ror fp

000007b8 <l368>:
     7b8:	e03e8008 	eors	r8, lr, r8

000007bc <l369>:
     7bc:	e250642e 	subs	r6, r0, #771751936	; 0x2e000000

000007c0 <l370>:
     7c0:	4054c069 	subsmi	ip, r4, r9, rrx

000007c4 <l371>:
     7c4:	e3a06023 	mov	r6, #35	; 0x23

000007c8 <l372>:
     7c8:	e73da006 	ldr	sl, [sp, -r6]!

000007cc <l373>:
     7cc:	b0a0000b 	adclt	r0, r0, fp

000007d0 <l374>:
     7d0:	101f9a01 	andsne	r9, pc, r1, lsl #20

000007d4 <l375>:
     7d4:	206cb202 	rsbcs	fp, ip, r2, lsl #4

000007d8 <l376>:
     7d8:	e33901b5 	teq	r9, #1073741869	; 0x4000002d

000007dc <l377>:
     7dc:	01710212 	cmneq	r1, r2, lsl r2

000007e0 <l378>:
     7e0:	70070003 	andvc	r0, r7, r3

000007e4 <l379>:
     7e4:	b1a08068 	rrxlt	r8, r8

000007e8 <l380>:
     7e8:	30029000 	andcc	r9, r2, r0

000007ec <l381>:
     7ec:	b0447003 	sublt	r7, r4, r3

000007f0 <l382>:
     7f0:	c0347623 	eorsgt	r7, r4, r3, lsr #12

000007f4 <l383>:
     7f4:	e08a600a 	add	r6, sl, sl

000007f8 <l384>:
     7f8:	325ebd62 	subscc	fp, lr, #6272	; 0x1880

000007fc <l385>:
     7fc:	c2c3008d 	sbcgt	r0, r3, #141	; 0x8d

00000800 <l386>:
     800:	e196900a 	orrs	r9, r6, sl

00000804 <l387>:
     804:	e3b0ec47 	movs	lr, #18176	; 0x4700

00000808 <l388>:
     808:	e1300001 	teq	r0, r1

0000080c <l389>:
     80c:	50fe7e19 	rscspl	r7, lr, r9, lsl lr

00000810 <l390>:
     810:	eaffffff 	b	814 <l391>

00000814 <l391>:
     814:	72503876 	subsvc	r3, r0, #7733248	; 0x760000

00000818 <l392>:
     818:	51c50a08 	bicpl	r0, r5, r8, lsl #20

0000081c <l393>:
     81c:	e16f4f10 	clz	r4, r0

00000820 <l394>:
     820:	d2d90d97 	sbcsle	r0, r9, #9664	; 0x25c0

00000824 <l395>:
     824:	000279a1 	andeq	r7, r2, r1, lsr #19

00000828 <l396>:
     828:	c19771a8 	orrsgt	r7, r7, r8, lsr #3

0000082c <l397>:
     82c:	b3140d4f 	tstlt	r4, #5056	; 0x13c0

00000830 <l398>:
     830:	613e0934 	teqvs	lr, r4, lsr r9

00000834 <l399>:
     834:	513f0001 	teqpl	pc, r1

00000838 <l400>:
     838:	d03338ee 	eorsle	r3, r3, lr, ror #17

0000083c <l401>:
     83c:	e184000f 	orr	r0, r4, pc

00000840 <l402>:
     840:	311200a7 	tstcc	r2, r7, lsr #1

00000844 <l403>:
     844:	725b6016 	subsvc	r6, fp, #22

00000848 <l404>:
     848:	c17e0002 	cmngt	lr, r2

0000084c <l405>:
     84c:	e070c514 	rsbs	ip, r0, r4, lsl r5

00000850 <l406>:
     850:	9a000006 	bls	870 <l414>

00000854 <l407>:
     854:	e1a05062 	rrx	r5, r2

00000858 <l408>:
     858:	824ee0d6 	subhi	lr, lr, #214	; 0xd6

0000085c <l409>:
     85c:	30d35a35 	sbcscc	r5, r3, r5, lsr sl

00000860 <l410>:
     860:	202ce00f 	eorcs	lr, ip, pc

00000864 <l411>:
     864:	e0473230 	sub	r3, r7, r0, lsr r2

00000868 <l412>:
     868:	e1e0200a 	mvn	r2, sl

0000086c <l413>:
     86c:	e1f0000b 	mvns	r0, fp

00000870 <l414>:
     870:	33770555 	cmncc	r7, #356515840	; 0x15400000

00000874 <l415>:
     874:	e0d5960b 	sbcs	r9, r5, fp, lsl #12

00000878 <l416>:
     878:	e5ad302b 	str	r3, [sp, #43]!	; 0x2b

0000087c <l417>:
     87c:	3a000006 	bcc	89c <l425>

00000880 <l418>:
     880:	e1340007 	teq	r4, r7

00000884 <l419>:
     884:	e1f07003 	mvns	r7, r3

00000888 <l420>:
     888:	e08c406b 	add	r4, ip, fp, rrx

0000088c <l421>:
     88c:	10799065 	rsbsne	r9, r9, r5, rrx

00000890 <l422>:
     890:	c1510e88 	cmpgt	r1, r8, lsl #29

00000894 <l423>:
     894:	e1340004 	teq	r4, r4

00000898 <l424>:
     898:	e1835e86 	orr	r5, r3, r6, lsl #29

0000089c <l425>:
     89c:	a17f0007 	cmnge	pc, r7

000008a0 <l426>:
     8a0:	123b610d 	eorsne	r6, fp, #1073741827	; 0x40000003

000008a4 <l427>:
     8a4:	c3b042c2 	movsgt	r4, #536870924	; 0x2000000c

000008a8 <l428>:
     8a8:	73110b01 	tstvc	r1, #1024	; 0x400

000008ac <l429>:
     8ac:	e0039370 	and	r9, r3, r0, ror r3

000008b0 <l430>:
     8b0:	e198e067 	orrs	lr, r8, r7, rrx

000008b4 <l431>:
     8b4:	e0b59005 	adcs	r9, r5, r5

000008b8 <l432>:
     8b8:	e03c8004 	eors	r8, ip, r4

000008bc <l433>:
     8bc:	aa000005 	bge	8d8 <l440>

000008c0 <l434>:
     8c0:	e2801088 	add	r1, r0, #136	; 0x88

000008c4 <l435>:
     8c4:	c07ca000 	rsbsgt	sl, ip, r0

000008c8 <l436>:
     8c8:	c13e0276 	teqgt	lr, r6, ror r2

000008cc <l437>:
     8cc:	113c0239 	teqne	ip, r9, lsr r2

000008d0 <l438>:
     8d0:	e16f8f16 	clz	r8, r6

000008d4 <l439>:
     8d4:	ea000000 	b	8dc <l441>

000008d8 <l440>:
     8d8:	eafffff9 	b	8c4 <l435>

000008dc <l441>:
     8dc:	811802e9 	tsthi	r8, r9, ror #5

000008e0 <l442>:
     8e0:	e2128d1d 	ands	r8, r2, #1856	; 0x740

000008e4 <l443>:
     8e4:	e0250069 	eor	r0, r5, r9, rrx

000008e8 <l444>:
     8e8:	e3550e1f 	cmp	r5, #496	; 0x1f0

000008ec <l445>:
     8ec:	20472fee 	subcs	r2, r7, lr, ror #31

000008f0 <l446>:
     8f0:	e054165e 	subs	r1, r4, lr, asr r6

000008f4 <l447>:
     8f4:	50f6510e 	rscspl	r5, r6, lr, lsl #2

000008f8 <l448>:
     8f8:	aaffffff 	bge	8fc <l449>

000008fc <l449>:
     8fc:	601f6004 	andsvs	r6, pc, r4

00000900 <l450>:
     900:	d1100e33 	tstle	r0, r3, lsr lr

00000904 <l451>:
     904:	e1b08c7c 	rors	r8, ip, ip

00000908 <l452>:
     908:	e0a746c5 	adc	r4, r7, r5, asr #13

0000090c <l453>:
     90c:	e3a05040 	mov	r5, #64	; 0x40

00000910 <l454>:
     910:	e72db005 	str	fp, [sp, -r5]!

00000914 <l455>:
     914:	e11c081b 	tst	ip, fp, lsl r8

00000918 <l456>:
     918:	a018b061 	andsge	fp, r8, r1, rrx

0000091c <l457>:
     91c:	d1560067 	cmple	r6, r7, rrx

00000920 <l458>:
     920:	23f0aeee 	mvnscs	sl, #3808	; 0xee0

00000924 <l459>:
     924:	00feeb59 	rscseq	lr, lr, r9, asr fp

00000928 <l460>:
     928:	d16f7f17 	clzle	r7, r7

0000092c <l461>:
     92c:	2a000003 	bcs	940 <l466>

00000930 <l462>:
     930:	e2801032 	add	r1, r0, #50	; 0x32

00000934 <l463>:
     934:	e27e0403 	rsbs	r0, lr, #50331648	; 0x3000000

00000938 <l464>:
     938:	e1340061 	teq	r4, r1, rrx

0000093c <l465>:
     93c:	ea000000 	b	944 <l467>

00000940 <l466>:
     940:	eafffffb 	b	934 <l463>

00000944 <l467>:
     944:	90582570 	subsls	r2, r8, r0, ror r5

00000948 <l468>:
     948:	41100fc6 	tstmi	r0, r6, asr #31

0000094c <l469>:
     94c:	e48d001c 	str	r0, [sp], #28

00000950 <l470>:
     950:	21ccc18b 	biccs	ip, ip, fp, lsl #3

00000954 <l471>:
     954:	316fbf16 	clzcc	fp, r6

00000958 <l472>:
     958:	3a000007 	bcc	97c <l481>

0000095c <l473>:
     95c:	416f0f18 	clzmi	r0, r8

00000960 <l474>:
     960:	e1a0200c 	mov	r2, ip

00000964 <l475>:
     964:	62c7980e 	sbcvs	r9, r7, #917504	; 0xe0000

00000968 <l476>:
     968:	6391985a 	orrsvs	r9, r1, #5898240	; 0x5a0000

0000096c <l477>:
     96c:	035c057d 	cmpeq	ip, #524288000	; 0x1f400000

00000970 <l478>:
     970:	121f8462 	andsne	r8, pc, #1644167168	; 0x62000000

00000974 <l479>:
     974:	316f4f19 	clzcc	r4, r9

00000978 <l480>:
     978:	e391c903 	orrs	ip, r1, #49152	; 0xc000

0000097c <l481>:
     97c:	e1880061 	orr	r0, r8, r1, rrx

00000980 <l482>:
     980:	e3a02014 	mov	r2, #20

00000984 <l483>:
     984:	e60d2002 	str	r2, [sp], -r2

00000988 <l484>:
     988:	c0d928c8 	sbcsgt	r2, r9, r8, asr #17

0000098c <l485>:
     98c:	816fef13 	clzhi	lr, r3

00000990 <l486>:
     990:	e059ce32 	subs	ip, r9, r2, lsr lr

00000994 <l487>:
     994:	e0551004 	subs	r1, r5, r4

00000998 <l488>:
     998:	a17001ee 	cmnge	r0, lr, ror #3

0000099c <l489>:
     99c:	ea000003 	b	9b0 <l494>

000009a0 <l490>:
     9a0:	e28010c7 	add	r1, r0, #199	; 0xc7

000009a4 <l491>:
     9a4:	e1700154 	cmn	r0, r4, asr r1

000009a8 <l492>:
     9a8:	031b06b5 	tsteq	fp, #189792256	; 0xb500000

000009ac <l493>:
     9ac:	ea000000 	b	9b4 <l495>

000009b0 <l494>:
     9b0:	eafffffb 	b	9a4 <l491>

000009b4 <l495>:
     9b4:	c0430947 	subgt	r0, r3, r7, asr #18

000009b8 <l496>:
     9b8:	e051a003 	subs	sl, r1, r3

000009bc <l497>:
     9bc:	d0c9100f 	sbcle	r1, r9, pc

000009c0 <l498>:
     9c0:	e04f0063 	sub	r0, pc, r3, rrx

000009c4 <l499>:
     9c4:	10bf0969 	adcsne	r0, pc, r9, ror #18

000009c8 <l500>:
     9c8:	1058ad8e 	subsne	sl, r8, lr, lsl #27

000009cc <l501>:
     9cc:	ea000006 	b	9ec <l509>

000009d0 <l502>:
     9d0:	e28010c5 	add	r1, r0, #197	; 0xc5

000009d4 <l503>:
     9d4:	c0232069 	eorgt	r2, r3, r9, rrx

000009d8 <l504>:
     9d8:	124316dd 	subne	r1, r3, #231735296	; 0xdd00000

000009dc <l505>:
     9dc:	a0558001 	subsge	r8, r5, r1

000009e0 <l506>:
     9e0:	5228844a 	eorpl	r8, r8, #1241513984	; 0x4a000000

000009e4 <l507>:
     9e4:	8211c31d 	andshi	ip, r1, #1946157056	; 0x74000000

000009e8 <l508>:
     9e8:	ea000000 	b	9f0 <l510>

000009ec <l509>:
     9ec:	eafffff8 	b	9d4 <l503>

000009f0 <l510>:
     9f0:	91cb6871 	bicls	r6, fp, r1, ror r8

000009f4 <l511>:
     9f4:	ea000002 	b	a04 <l515>

000009f8 <l512>:
     9f8:	e28010d7 	add	r1, r0, #215	; 0xd7

000009fc <l513>:
     9fc:	e0961912 	adds	r1, r6, r2, lsl r9

00000a00 <l514>:
     a00:	ea000000 	b	a08 <l516>

00000a04 <l515>:
     a04:	eafffffc 	b	9fc <l513>

00000a08 <l516>:
     a08:	a1300004 	teqge	r0, r4

00000a0c <l517>:
     a0c:	da000003 	ble	a20 <l522>

00000a10 <l518>:
     a10:	e280102c 	add	r1, r0, #44	; 0x2c

00000a14 <l519>:
     a14:	31b05633 	lsrscc	r5, r3, r6

00000a18 <l520>:
     a18:	83b0182e 	movshi	r1, #3014656	; 0x2e0000

00000a1c <l521>:
     a1c:	ea000000 	b	a24 <l523>

00000a20 <l522>:
     a20:	eafffffb 	b	a14 <l519>

00000a24 <l523>:
     a24:	aa000004 	bge	a3c <l529>

00000a28 <l524>:
     a28:	e06a5a32 	rsb	r5, sl, r2, lsr sl

00000a2c <l525>:
     a2c:	e11c001b 	tst	ip, fp, lsl r0

00000a30 <l526>:
     a30:	70b948e5 	adcsvc	r4, r9, r5, ror #17

00000a34 <l527>:
     a34:	e1a0b069 	rrx	fp, r9

00000a38 <l528>:
     a38:	500f4066 	andpl	r4, pc, r6, rrx

00000a3c <l529>:
     a3c:	4334042b 	teqmi	r4, #721420288	; 0x2b000000

00000a40 <l530>:
     a40:	201b8541 	andscs	r8, fp, r1, asr #10

00000a44 <l531>:
     a44:	e1500b10 	cmp	r0, r0, lsl fp

00000a48 <l532>:
     a48:	70b3ce15 	adcsvc	ip, r3, r5, lsl lr

00000a4c <l533>:
     a4c:	e3a0203f 	mov	r2, #63	; 0x3f

00000a50 <l534>:
     a50:	d79da002 	ldrle	sl, [sp, r2]

00000a54 <l535>:
     a54:	626fe5b2 	rsbvs	lr, pc, #746586112	; 0x2c800000

00000a58 <l536>:
     a58:	eaffffff 	b	a5c <l537>

00000a5c <l537>:
     a5c:	e0a63065 	adc	r3, r6, r5, rrx

00000a60 <l538>:
     a60:	8233e7da 	eorshi	lr, r3, #57147392	; 0x3680000

00000a64 <l539>:
     a64:	c0965578 	addsgt	r5, r6, r8, ror r5

00000a68 <l540>:
     a68:	e1e05828 	mvn	r5, r8, lsr #16

00000a6c <l541>:
     a6c:	e25716c5 	subs	r1, r7, #206569472	; 0xc500000

00000a70 <l542>:
     a70:	e1d7a265 	bics	sl, r7, r5, ror #4

00000a74 <l543>:
     a74:	3211e577 	andscc	lr, r1, #499122176	; 0x1dc00000

00000a78 <l544>:
     a78:	20c12082 	sbccs	r2, r1, r2, lsl #1

00000a7c <l545>:
     a7c:	4037b821 	eorsmi	fp, r7, r1, lsr #16

00000a80 <l546>:
     a80:	d084e06f 	addle	lr, r4, pc, rrx

00000a84 <l547>:
     a84:	b0d73946 	sbcslt	r3, r7, r6, asr #18

00000a88 <l548>:
     a88:	e270b021 	rsbs	fp, r0, #33	; 0x21

00000a8c <l549>:
     a8c:	e29ea83f 	adds	sl, lr, #4128768	; 0x3f0000

00000a90 <l550>:
     a90:	e49d4011 	ldr	r4, [sp], #17

00000a94 <l551>:
     a94:	038fa86e 	orreq	sl, pc, #7208960	; 0x6e0000

00000a98 <l552>:
     a98:	41860017 	orrmi	r0, r6, r7, lsl r0

00000a9c <l553>:
     a9c:	00ae500f 	adceq	r5, lr, pc

00000aa0 <l554>:
     aa0:	419f8065 	orrsmi	r8, pc, r5, rrx

00000aa4 <l555>:
     aa4:	e097300b 	adds	r3, r7, fp

00000aa8 <l556>:
     aa8:	61e03002 	mvnvs	r3, r2

00000aac <l557>:
     aac:	a08e2009 	addge	r2, lr, r9

00000ab0 <l558>:
     ab0:	e1ca2009 	bic	r2, sl, r9

00000ab4 <l559>:
     ab4:	2008200b 	andcs	r2, r8, fp

00000ab8 <l560>:
     ab8:	ea000006 	b	ad8 <l568>

00000abc <l561>:
     abc:	e2801038 	add	r1, r0, #56	; 0x38

00000ac0 <l562>:
     ac0:	113005a3 	teqne	r0, r3, lsr #11

00000ac4 <l563>:
     ac4:	e0302009 	eors	r2, r0, r9

00000ac8 <l564>:
     ac8:	51d88066 	bicspl	r8, r8, r6, rrx

00000acc <l565>:
     acc:	5085906b 	addpl	r9, r5, fp, rrx

00000ad0 <l566>:
     ad0:	41d33c38 	bicsmi	r3, r3, r8, lsr ip

00000ad4 <l567>:
     ad4:	ea000000 	b	adc <l569>

00000ad8 <l568>:
     ad8:	eafffff8 	b	ac0 <l562>

00000adc <l569>:
     adc:	b3e03733 	mvnlt	r3, #13369344	; 0xcc0000

00000ae0 <l570>:
     ae0:	e3f0875e 	mvns	r8, #24641536	; 0x1780000

00000ae4 <l571>:
     ae4:	d0c43001 	sbcle	r3, r4, r1

00000ae8 <l572>:
     ae8:	30a8100e 	adccc	r1, r8, lr

00000aec <l573>:
     aec:	7a000002 	bvc	afc <l577>

00000af0 <l574>:
     af0:	e3dc89d9 	bics	r8, ip, #3555328	; 0x364000

00000af4 <l575>:
     af4:	e273553b 	rsbs	r5, r3, #247463936	; 0xec00000

00000af8 <l576>:
     af8:	c3e0ba02 	mvngt	fp, #8192	; 0x2000

00000afc <l577>:
     afc:	a06fcfc5 	rsbge	ip, pc, r5, asr #31

00000b00 <l578>:
     b00:	e35207b5 	cmp	r2, #47448064	; 0x2d40000

00000b04 <l579>:
     b04:	031a0d1a 	tsteq	sl, #1664	; 0x680

00000b08 <l580>:
     b08:	e28fa96d 	add	sl, pc, #1785856	; 0x1b4000

00000b0c <l581>:
     b0c:	e52d1009 	str	r1, [sp, #-9]!

00000b10 <l582>:
     b10:	5a000003 	bpl	b24 <l587>

00000b14 <l583>:
     b14:	e280102c 	add	r1, r0, #44	; 0x2c

00000b18 <l584>:
     b18:	a1f0437b 	mvnsge	r4, fp, ror r3

00000b1c <l585>:
     b1c:	e1d51067 	bics	r1, r5, r7, rrx

00000b20 <l586>:
     b20:	ea000000 	b	b28 <l588>

00000b24 <l587>:
     b24:	eafffffb 	b	b18 <l584>

00000b28 <l588>:
     b28:	e3a06010 	mov	r6, #16

00000b2c <l589>:
     b2c:	e72d7006 	str	r7, [sp, -r6]!

00000b30 <l590>:
     b30:	7a000001 	bvc	b3c <l593>

00000b34 <l591>:
     b34:	40403008 	submi	r3, r0, r8

00000b38 <l592>:
     b38:	b1700083 	cmnlt	r0, r3, lsl #1

00000b3c <l593>:
     b3c:	e33001be 	teq	r0, #-2147483601	; 0x8000002f

00000b40 <l594>:
     b40:	ea000003 	b	b54 <l599>

00000b44 <l595>:
     b44:	e2801042 	add	r1, r0, #66	; 0x42

00000b48 <l596>:
     b48:	00f24057 	rscseq	r4, r2, r7, asr r0

00000b4c <l597>:
     b4c:	e001306c 	and	r3, r1, ip, rrx

00000b50 <l598>:
     b50:	ea000000 	b	b58 <l600>

00000b54 <l599>:
     b54:	eafffffb 	b	b48 <l596>

00000b58 <l600>:
     b58:	33a02bfb 	movcc	r2, #257024	; 0x3ec00

00000b5c <l601>:
     b5c:	e1510851 	cmp	r1, r1, asr r8

00000b60 <l602>:
     b60:	91340005 	teqls	r4, r5

00000b64 <l603>:
     b64:	9055e007 	subsls	lr, r5, r7

00000b68 <l604>:
     b68:	e0d98006 	sbcs	r8, r9, r6

00000b6c <l605>:
     b6c:	e0167007 	ands	r7, r6, r7

00000b70 <l606>:
     b70:	01b0b511 	lslseq	fp, r1, r5

00000b74 <l607>:
     b74:	018ce175 	orreq	lr, ip, r5, ror r1

00000b78 <l608>:
     b78:	8288e476 	addhi	lr, r8, #1979711488	; 0x76000000

00000b7c <l609>:
     b7c:	520171bd 	andpl	r7, r1, #1073741871	; 0x4000002f

00000b80 <l610>:
     b80:	e0536e36 	subs	r6, r3, r6, lsr lr

00000b84 <l611>:
     b84:	e16fbf1b 	clz	fp, fp

00000b88 <l612>:
     b88:	e16f5f14 	clz	r5, r4

00000b8c <l613>:
     b8c:	a0f8e004 	rscsge	lr, r8, r4

00000b90 <l614>:
     b90:	e0aec00b 	adc	ip, lr, fp

00000b94 <l615>:
     b94:	b194400b 	orrslt	r4, r4, fp

00000b98 <l616>:
     b98:	e49d3049 	ldr	r3, [sp], #73	; 0x49

00000b9c <l617>:
     b9c:	015f0ba5 	cmpeq	pc, r5, lsr #23

00000ba0 <l618>:
     ba0:	016f8f15 	clzeq	r8, r5

00000ba4 <l619>:
     ba4:	5021000c 	eorpl	r0, r1, ip

00000ba8 <l620>:
     ba8:	616f6f19 	clzvs	r6, r9

00000bac <l621>:
     bac:	e1e04003 	mvn	r4, r3

00000bb0 <l622>:
     bb0:	c00c9566 	andgt	r9, ip, r6, ror #10

00000bb4 <l623>:
     bb4:	e01ee032 	ands	lr, lr, r2, lsr r0

00000bb8 <l624>:
     bb8:	e240cf41 	sub	ip, r0, #260	; 0x104

00000bbc <l625>:
     bbc:	e18f6689 	orr	r6, pc, r9, lsl #13

00000bc0 <l626>:
     bc0:	c0067003 	andgt	r7, r6, r3

00000bc4 <l627>:
     bc4:	e17006e0 	cmn	r0, r0, ror #13

00000bc8 <l628>:
     bc8:	71b04009 	movsvc	r4, r9

00000bcc <l629>:
     bcc:	a1760002 	cmnge	r6, r2

00000bd0 <l630>:
     bd0:	e3e0090a 	mvn	r0, #163840	; 0x28000

00000bd4 <l631>:
     bd4:	72c17c1e 	sbcvc	r7, r1, #7680	; 0x1e00

00000bd8 <l632>:
     bd8:	e1710b70 	cmn	r1, r0, ror fp

00000bdc <l633>:
     bdc:	e18b0003 	orr	r0, fp, r3

00000be0 <l634>:
     be0:	131507f6 	tstne	r5, #64487424	; 0x3d80000

00000be4 <l635>:
     be4:	e0945066 	adds	r5, r4, r6, rrx

00000be8 <l636>:
     be8:	6a000000 	bvs	bf0 <l638>

00000bec <l637>:
     bec:	924fc6c6 	subls	ip, pc, #207618048	; 0xc600000

00000bf0 <l638>:
     bf0:	01a08a3c 	lsreq	r8, ip, sl

00000bf4 <l639>:
     bf4:	eaffffff 	b	bf8 <l640>

00000bf8 <l640>:
     bf8:	21c09132 	biccs	r9, r0, r2, lsr r1

00000bfc <l641>:
     bfc:	816f2f19 	clzhi	r2, r9

00000c00 <l642>:
     c00:	e0d44a3e 	sbcs	r4, r4, lr, lsr sl

00000c04 <l643>:
     c04:	e086aa3b 	add	sl, r6, fp, lsr sl

00000c08 <l644>:
     c08:	e381eab1 	orr	lr, r1, #724992	; 0xb1000

00000c0c <l645>:
     c0c:	617e0060 	cmnvs	lr, r0, rrx

00000c10 <l646>:
     c10:	e1370000 	teq	r7, r0

00000c14 <l647>:
     c14:	b173000e 	cmnlt	r3, lr

00000c18 <l648>:
     c18:	926162c1 	rsbls	r6, r1, #268435468	; 0x1000000c

00000c1c <l649>:
     c1c:	21130177 	tstcs	r3, r7, ror r1

00000c20 <l650>:
     c20:	e1a0043b 	lsr	r0, fp, r4

00000c24 <l651>:
     c24:	e055a62b 	subs	sl, r5, fp, lsr #12

00000c28 <l652>:
     c28:	425b5385 	subsmi	r5, fp, #335544322	; 0x14000002

00000c2c <l653>:
     c2c:	e1760009 	cmn	r6, r9

00000c30 <l654>:
     c30:	4a000007 	bmi	c54 <l663>

00000c34 <l655>:
     c34:	6338094f 	teqvs	r8, #1294336	; 0x13c000

00000c38 <l656>:
     c38:	e0760009 	rsbs	r0, r6, r9

00000c3c <l657>:
     c3c:	e045c9ea 	sub	ip, r5, sl, ror #19

00000c40 <l658>:
     c40:	31f0b73b 	mvnscc	fp, fp, lsr r7

00000c44 <l659>:
     c44:	611c0938 	tstvs	ip, r8, lsr r9

00000c48 <l660>:
     c48:	e2a30301 	adc	r0, r3, #67108864	; 0x4000000

00000c4c <l661>:
     c4c:	e17c01e2 	cmn	ip, r2, ror #3

00000c50 <l662>:
     c50:	e139000e 	teq	r9, lr

00000c54 <l663>:
     c54:	e1e09003 	mvn	r9, r3

00000c58 <l664>:
     c58:	e1b0312b 	lsrs	r3, fp, #2

00000c5c <l665>:
     c5c:	e3a0b039 	mov	fp, #57	; 0x39

00000c60 <l666>:
     c60:	a70d800b 	strge	r8, [sp, -fp]

00000c64 <l667>:
     c64:	90338b11 	eorsls	r8, r3, r1, lsl fp

00000c68 <l668>:
     c68:	e16f6f16 	clz	r6, r6

00000c6c <l669>:
     c6c:	9192e42e 	orrsls	lr, r2, lr, lsr #8

00000c70 <l670>:
     c70:	b1130061 	tstlt	r3, r1, rrx

00000c74 <l671>:
     c74:	404e3060 	submi	r3, lr, r0, rrx

00000c78 <l672>:
     c78:	731f0086 	tstvc	pc, #134	; 0x86

00000c7c <l673>:
     c7c:	d19b9e3c 	orrsle	r9, fp, ip, lsr lr

00000c80 <l674>:
     c80:	617a0001 	cmnvs	sl, r1

00000c84 <l675>:
     c84:	c16faf1e 	clzgt	sl, lr

00000c88 <l676>:
     c88:	62bca289 	adcsvs	sl, ip, #-1879048184	; 0x90000008

00000c8c <l677>:
     c8c:	6247cc2b 	subvs	ip, r7, #11008	; 0x2b00

00000c90 <l678>:
     c90:	2a000006 	bcs	cb0 <l686>

00000c94 <l679>:
     c94:	e280105a 	add	r1, r0, #90	; 0x5a

00000c98 <l680>:
     c98:	e35f050a 	cmp	pc, #41943040	; 0x2800000

00000c9c <l681>:
     c9c:	205f2068 	subscs	r2, pc, r8, rrx

00000ca0 <l682>:
     ca0:	51f0500f 	mvnspl	r5, pc

00000ca4 <l683>:
     ca4:	e31502d2 	tst	r5, #536870925	; 0x2000000d

00000ca8 <l684>:
     ca8:	90365a60 	eorsls	r5, r6, r0, ror #20

00000cac <l685>:
     cac:	ea000000 	b	cb4 <l687>

00000cb0 <l686>:
     cb0:	eafffff8 	b	c98 <l680>

00000cb4 <l687>:
     cb4:	ea000006 	b	cd4 <l695>

00000cb8 <l688>:
     cb8:	e280100b 	add	r1, r0, #11

00000cbc <l689>:
     cbc:	61710f05 	cmnvs	r1, r5, lsl #30

00000cc0 <l690>:
     cc0:	71720008 	cmnvc	r2, r8

00000cc4 <l691>:
     cc4:	e22f003a 	eor	r0, pc, #58	; 0x3a

00000cc8 <l692>:
     cc8:	e0df72ec 	sbcs	r7, pc, ip, ror #5

00000ccc <l693>:
     ccc:	e029106b 	eor	r1, r9, fp, rrx

00000cd0 <l694>:
     cd0:	ea000000 	b	cd8 <l696>

00000cd4 <l695>:
     cd4:	eafffff8 	b	cbc <l689>

00000cd8 <l696>:
     cd8:	316f7f1b 	clzcc	r7, fp

00000cdc <l697>:
     cdc:	a1928aaf 	orrsge	r8, r2, pc, lsr #21

00000ce0 <l698>:
     ce0:	b0c83006 	sbclt	r3, r8, r6

00000ce4 <l699>:
     ce4:	10099a7b 	andne	r9, r9, fp, ror sl

00000ce8 <l700>:
     ce8:	ea000002 	b	cf8 <l704>

00000cec <l701>:
     cec:	5020900a 	eorpl	r9, r0, sl

00000cf0 <l702>:
     cf0:	e0948005 	adds	r8, r4, r5

00000cf4 <l703>:
     cf4:	9130086e 	teqls	r0, lr, ror #16

00000cf8 <l704>:
     cf8:	c1a0ec78 	rorgt	lr, r8, ip

00000cfc <l705>:
     cfc:	42a33dfe 	adcmi	r3, r3, #16256	; 0x3f80

00000d00 <l706>:
     d00:	e3740b31 	cmn	r4, #50176	; 0xc400

00000d04 <l707>:
     d04:	50c79867 	sbcpl	r9, r7, r7, ror #16

00000d08 <l708>:
     d08:	ea000003 	b	d1c <l713>

00000d0c <l709>:
     d0c:	e280106d 	add	r1, r0, #109	; 0x6d

00000d10 <l710>:
     d10:	a026e052 	eorge	lr, r6, r2, asr r0

00000d14 <l711>:
     d14:	417008eb 	cmnmi	r0, fp, ror #17

00000d18 <l712>:
     d18:	ea000000 	b	d20 <l714>

00000d1c <l713>:
     d1c:	eafffffb 	b	d10 <l710>

00000d20 <l714>:
     d20:	e0409007 	sub	r9, r0, r7

00000d24 <l715>:
     d24:	ea000006 	b	d44 <l723>

00000d28 <l716>:
     d28:	e28010ed 	add	r1, r0, #237	; 0xed

00000d2c <l717>:
     d2c:	e3c2c951 	bic	ip, r2, #1327104	; 0x144000

00000d30 <l718>:
     d30:	61c32078 	bicvs	r2, r3, r8, ror r0

00000d34 <l719>:
     d34:	81890673 	orrhi	r0, r9, r3, ror r6

00000d38 <l720>:
     d38:	91110e7a 	tstls	r1, sl, ror lr

00000d3c <l721>:
     d3c:	10643062 	rsbne	r3, r4, r2, rrx

00000d40 <l722>:
     d40:	ea000000 	b	d48 <l724>

00000d44 <l723>:
     d44:	eafffff8 	b	d2c <l717>

00000d48 <l724>:
     d48:	e3560e89 	cmp	r6, #2192	; 0x890

00000d4c <l725>:
     d4c:	23e0a556 	mvncs	sl, #360710144	; 0x15800000

00000d50 <l726>:
     d50:	5183453a 	orrpl	r4, r3, sl, lsr r5

00000d54 <l727>:
     d54:	e3550313 	cmp	r5, #1275068416	; 0x4c000000

00000d58 <l728>:
     d58:	e19a3003 	orrs	r3, sl, r3

00000d5c <l729>:
     d5c:	e2d20782 	sbcs	r0, r2, #34078720	; 0x2080000

00000d60 <l730>:
     d60:	e1b04771 	rors	r4, r1, r7

00000d64 <l731>:
     d64:	e1a04657 	asr	r4, r7, r6

00000d68 <l732>:
     d68:	337306a2 	cmncc	r3, #169869312	; 0xa200000

00000d6c <l733>:
     d6c:	11951606 	orrsne	r1, r5, r6, lsl #12

00000d70 <l734>:
     d70:	10995008 	addsne	r5, r9, r8

00000d74 <l735>:
     d74:	e0cb5773 	sbc	r5, fp, r3, ror r7

00000d78 <l736>:
     d78:	31b0a06c 	rrxscc	sl, ip

00000d7c <l737>:
     d7c:	e239e216 	eors	lr, r9, #1610612737	; 0x60000001

00000d80 <l738>:
     d80:	b0578c84 	subslt	r8, r7, r4, lsl #25

00000d84 <l739>:
     d84:	e0254002 	eor	r4, r5, r2

00000d88 <l740>:
     d88:	e2b49429 	adcs	r9, r4, #687865856	; 0x29000000

00000d8c <l741>:
     d8c:	61a0600a 	movvs	r6, sl

00000d90 <l742>:
     d90:	50424e36 	subpl	r4, r2, r6, lsr lr

00000d94 <l743>:
     d94:	e0970050 	adds	r0, r7, r0, asr r0

00000d98 <l744>:
     d98:	e04b030f 	sub	r0, fp, pc, lsl #6

00000d9c <l745>:
     d9c:	00e0b062 	rsceq	fp, r0, r2, rrx

00000da0 <l746>:
     da0:	e3a09021 	mov	r9, #33	; 0x21

00000da4 <l747>:
     da4:	e72d7009 	str	r7, [sp, -r9]!

00000da8 <l748>:
     da8:	e3510561 	cmp	r1, #406847488	; 0x18400000

00000dac <l749>:
     dac:	e16f9f1a 	clz	r9, sl

00000db0 <l750>:
     db0:	e0c32066 	sbc	r2, r3, r6, rrx

00000db4 <l751>:
     db4:	e0cc300b 	sbc	r3, ip, fp

00000db8 <l752>:
     db8:	82812e87 	addhi	r2, r1, #2160	; 0x870

00000dbc <l753>:
     dbc:	124c0997 	subne	r0, ip, #2473984	; 0x25c000

00000dc0 <l754>:
     dc0:	9190941c 	orrsls	r9, r0, ip, lsl r4

00000dc4 <l755>:
     dc4:	c15c0005 	cmpgt	ip, r5

00000dc8 <l756>:
     dc8:	d075a064 	rsbsle	sl, r5, r4, rrx

00000dcc <l757>:
     dcc:	e16fef16 	clz	lr, r6

00000dd0 <l758>:
     dd0:	d1931f61 	orrsle	r1, r3, r1, ror #30

00000dd4 <l759>:
     dd4:	c0692009 	rsbgt	r2, r9, r9

00000dd8 <l760>:
     dd8:	e3550bfe 	cmp	r5, #260096	; 0x3f800

00000ddc <l761>:
     ddc:	6240842d 	subvs	r8, r0, #754974720	; 0x2d000000

00000de0 <l762>:
     de0:	218ca006 	orrcs	sl, ip, r6

00000de4 <l763>:
     de4:	c0476e57 	subgt	r6, r7, r7, asr lr

00000de8 <l764>:
     de8:	e3a0a004 	mov	sl, #4

00000dec <l765>:
     dec:	e79d700a 	ldr	r7, [sp, sl]

00000df0 <l766>:
     df0:	e054106c 	subs	r1, r4, ip, rrx

00000df4 <l767>:
     df4:	e39f232b 	orrs	r2, pc, #-1409286144	; 0xac000000

00000df8 <l768>:
     df8:	a50dc01c 	strge	ip, [sp, #-28]

00000dfc <l769>:
     dfc:	ea000007 	b	e20 <l778>

00000e00 <l770>:
     e00:	904b863c 	subls	r8, fp, ip, lsr r6

00000e04 <l771>:
     e04:	117e0009 	cmnne	lr, r9

00000e08 <l772>:
     e08:	e2957587 	adds	r7, r5, #566231040	; 0x21c00000

00000e0c <l773>:
     e0c:	b1a0906e 	rrxlt	r9, lr

00000e10 <l774>:
     e10:	a16f7f15 	clzge	r7, r5

00000e14 <l775>:
     e14:	e0ce2ac2 	sbc	r2, lr, r2, asr #21

00000e18 <l776>:
     e18:	116f4f10 	clzne	r4, r0

00000e1c <l777>:
     e1c:	713f006e 	teqvc	pc, lr, rrx

00000e20 <l778>:
     e20:	71570067 	cmpvc	r7, r7, rrx

00000e24 <l779>:
     e24:	e3a0e004 	mov	lr, #4

00000e28 <l780>:
     e28:	e72de00e 	str	lr, [sp, -lr]!

00000e2c <l781>:
     e2c:	ea000005 	b	e48 <l788>

00000e30 <l782>:
     e30:	e2801001 	add	r1, r0, #1

00000e34 <l783>:
     e34:	e1a0af45 	asr	sl, r5, #30

00000e38 <l784>:
     e38:	c2d2a557 	sbcsgt	sl, r2, #364904448	; 0x15c00000

00000e3c <l785>:
     e3c:	e1f0e5ea 	mvns	lr, sl, ror #11

00000e40 <l786>:
     e40:	61580754 	cmpvs	r8, r4, asr r7

00000e44 <l787>:
     e44:	ea000000 	b	e4c <l789>

00000e48 <l788>:
     e48:	eafffff9 	b	e34 <l783>

00000e4c <l789>:
     e4c:	e035c23a 	eors	ip, r5, sl, lsr r2

00000e50 <l790>:
     e50:	5035b00c 	eorspl	fp, r5, ip

00000e54 <l791>:
     e54:	e3a0901c 	mov	r9, #28

00000e58 <l792>:
     e58:	e79da009 	ldr	sl, [sp, r9]

00000e5c <l793>:
     e5c:	9a000003 	bls	e70 <l798>

00000e60 <l794>:
     e60:	0053e00a 	subseq	lr, r3, sl

00000e64 <l795>:
     e64:	422fcb95 	eormi	ip, pc, #152576	; 0x25400

00000e68 <l796>:
     e68:	8384416e 	orrhi	r4, r4, #-2147483621	; 0x8000001b

00000e6c <l797>:
     e6c:	51f0884c 	mvnspl	r8, ip, asr #16

00000e70 <l798>:
     e70:	a07c1009 	rsbsge	r1, ip, r9

00000e74 <l799>:
     e74:	e0225352 	eor	r5, r2, r2, asr r3

00000e78 <l800>:
     e78:	e53d801c 	ldr	r8, [sp, #-28]!

00000e7c <l801>:
     e7c:	e0ef8780 	rsc	r8, pc, r0, lsl #15

00000e80 <l802>:
     e80:	d0f42007 	rscsle	r2, r4, r7

00000e84 <l803>:
     e84:	ea000002 	b	e94 <l807>

00000e88 <l804>:
     e88:	e2801055 	add	r1, r0, #85	; 0x55

00000e8c <l805>:
     e8c:	021e5609 	andseq	r5, lr, #9437184	; 0x900000

00000e90 <l806>:
     e90:	ea000000 	b	e98 <l808>

00000e94 <l807>:
     e94:	eafffffc 	b	e8c <l805>

00000e98 <l808>:
     e98:	1139000e 	teqne	r9, lr

00000e9c <l809>:
     e9c:	e18b28ef 	orr	r2, fp, pc, ror #17

00000ea0 <l810>:
     ea0:	316f8f12 	clzcc	r8, r2

00000ea4 <l811>:
     ea4:	b05a500b 	subslt	r5, sl, fp

00000ea8 <l812>:
     ea8:	e026e005 	eor	lr, r6, r5

00000eac <l813>:
     eac:	e259996b 	subs	r9, r9, #1753088	; 0x1ac000

00000eb0 <l814>:
     eb0:	2041c008 	subcs	ip, r1, r8

00000eb4 <l815>:
     eb4:	00e7a00f 	rsceq	sl, r7, pc

00000eb8 <l816>:
     eb8:	e5ad9030 	str	r9, [sp, #48]!	; 0x30

00000ebc <l817>:
     ebc:	91d29064 	bicsls	r9, r2, r4, rrx

00000ec0 <l818>:
     ec0:	e3a05014 	mov	r5, #20

00000ec4 <l819>:
     ec4:	e60d6005 	str	r6, [sp], -r5

00000ec8 <l820>:
     ec8:	8054a003 	subshi	sl, r4, r3

00000ecc <l821>:
     ecc:	e3a0e0cf 	mov	lr, #207	; 0xcf

00000ed0 <l822>:
     ed0:	daffffff 	ble	ed4 <l823>

00000ed4 <l823>:
     ed4:	716f8f12 	clzvc	r8, r2

00000ed8 <l824>:
     ed8:	702be061 	eorvc	lr, fp, r1, rrx

00000edc <l825>:
     edc:	e182b0e7 	orr	fp, r2, r7, ror #1

00000ee0 <l826>:
     ee0:	e191c658 	orrs	ip, r1, r8, asr r6

00000ee4 <l827>:
     ee4:	e1e05200 	mvn	r5, r0, lsl #4

00000ee8 <l828>:
     ee8:	e0e3ab23 	rsc	sl, r3, r3, lsr #22

00000eec <l829>:
     eec:	8a000003 	bhi	f00 <l834>

00000ef0 <l830>:
     ef0:	e28010e0 	add	r1, r0, #224	; 0xe0

00000ef4 <l831>:
     ef4:	007a806f 	rsbseq	r8, sl, pc, rrx

00000ef8 <l832>:
     ef8:	9139031c 	teqls	r9, ip, lsl r3

00000efc <l833>:
     efc:	ea000000 	b	f04 <l835>

00000f00 <l834>:
     f00:	eafffffb 	b	ef4 <l831>

00000f04 <l835>:
     f04:	e0f74eaa 	rscs	r4, r7, sl, lsr #29

00000f08 <l836>:
     f08:	1281775e 	addne	r7, r1, #24641536	; 0x1780000

00000f0c <l837>:
     f0c:	015a0008 	cmpeq	sl, r8

00000f10 <l838>:
     f10:	b01275e5 	andslt	r7, r2, r5, ror #11

00000f14 <l839>:
     f14:	e003a007 	and	sl, r3, r7

00000f18 <l840>:
     f18:	e03317c0 	eors	r1, r3, r0, asr #15

00000f1c <l841>:
     f1c:	40e3e00a 	rscmi	lr, r3, sl

00000f20 <l842>:
     f20:	e252982e 	subs	r9, r2, #3014656	; 0x2e0000

00000f24 <l843>:
     f24:	1a000003 	bne	f38 <l848>

00000f28 <l844>:
     f28:	e28010d1 	add	r1, r0, #209	; 0xd1

00000f2c <l845>:
     f2c:	d1c47069 	bicle	r7, r4, r9, rrx

00000f30 <l846>:
     f30:	9020923c 	eorls	r9, r0, ip, lsr r2

00000f34 <l847>:
     f34:	ea000000 	b	f3c <l849>

00000f38 <l848>:
     f38:	eafffffb 	b	f2c <l845>

00000f3c <l849>:
     f3c:	e05c9005 	subs	r9, ip, r5

00000f40 <l850>:
     f40:	03c4043a 	biceq	r0, r4, #973078528	; 0x3a000000

00000f44 <l851>:
     f44:	1037a005 	eorsne	sl, r7, r5

00000f48 <l852>:
     f48:	e17b006e 	cmn	fp, lr, rrx

00000f4c <l853>:
     f4c:	d24e8e77 	suble	r8, lr, #1904	; 0x770

00000f50 <l854>:
     f50:	c0ef50ef 	rscgt	r5, pc, pc, ror #1

00000f54 <l855>:
     f54:	ea000001 	b	f60 <l858>

00000f58 <l856>:
     f58:	e16f2f18 	clz	r2, r8

00000f5c <l857>:
     f5c:	500fa06f 	andpl	sl, pc, pc, rrx

00000f60 <l858>:
     f60:	116f7f1b 	clzne	r7, fp

00000f64 <l859>:
     f64:	3a000002 	bcc	f74 <l863>

00000f68 <l860>:
     f68:	419f7067 	orrsmi	r7, pc, r7, rrx

00000f6c <l861>:
     f6c:	60b25c36 	adcsvs	r5, r2, r6, lsr ip

00000f70 <l862>:
     f70:	c268e43d 	rsbgt	lr, r8, #1023410176	; 0x3d000000

00000f74 <l863>:
     f74:	909ce35a 	addsls	lr, ip, sl, asr r3

00000f78 <l864>:
     f78:	927f6359 	rsbsls	r6, pc, #1677721601	; 0x64000001

00000f7c <l865>:
     f7c:	413a0002 	teqmi	sl, r2

00000f80 <l866>:
     f80:	e1dc3e28 	bics	r3, ip, r8, lsr #28

00000f84 <l867>:
     f84:	da000004 	ble	f9c <l873>

00000f88 <l868>:
     f88:	e28010f8 	add	r1, r0, #248	; 0xf8

00000f8c <l869>:
     f8c:	e16fbf11 	clz	fp, r1

00000f90 <l870>:
     f90:	82888631 	addhi	r8, r8, #51380224	; 0x3100000

00000f94 <l871>:
     f94:	e3380401 	teq	r8, #16777216	; 0x1000000

00000f98 <l872>:
     f98:	ea000000 	b	fa0 <l874>

00000f9c <l873>:
     f9c:	eafffffa 	b	f8c <l869>

00000fa0 <l874>:
     fa0:	9178025b 	cmnls	r8, fp, asr r2

00000fa4 <l875>:
     fa4:	b0298451 	eorlt	r8, r9, r1, asr r4

00000fa8 <l876>:
     fa8:	1a000005 	bne	fc4 <l883>

00000fac <l877>:
     fac:	e28010d5 	add	r1, r0, #213	; 0xd5

00000fb0 <l878>:
     fb0:	90b8e005 	adcsls	lr, r8, r5

00000fb4 <l879>:
     fb4:	e1f0c337 	mvns	ip, r7, lsr r3

00000fb8 <l880>:
     fb8:	91883007 	orrls	r3, r8, r7

00000fbc <l881>:
     fbc:	8184600a 	orrhi	r6, r4, sl

00000fc0 <l882>:
     fc0:	ea000000 	b	fc8 <l884>

00000fc4 <l883>:
     fc4:	eafffff9 	b	fb0 <l878>

00000fc8 <l884>:
     fc8:	a1f06f66 	mvnsge	r6, r6, ror #30

00000fcc <l885>:
     fcc:	da000007 	ble	ff0 <l894>

00000fd0 <l886>:
     fd0:	e280100e 	add	r1, r0, #14

00000fd4 <l887>:
     fd4:	91160068 	tstls	r6, r8, rrx

00000fd8 <l888>:
     fd8:	d318072a 	tstle	r8, #11010048	; 0xa80000

00000fdc <l889>:
     fdc:	e11c0d03 	tst	ip, r3, lsl #26

00000fe0 <l890>:
     fe0:	e2582503 	subs	r2, r8, #12582912	; 0xc00000

00000fe4 <l891>:
     fe4:	e38f2ec3 	orr	r2, pc, #3120	; 0xc30

00000fe8 <l892>:
     fe8:	e1c75c51 	bic	r5, r7, r1, asr ip

00000fec <l893>:
     fec:	ea000000 	b	ff4 <l895>

00000ff0 <l894>:
     ff0:	eafffff7 	b	fd4 <l887>

00000ff4 <l895>:
     ff4:	e1360500 	teq	r6, r0, lsl #10

00000ff8 <l896>:
     ff8:	61540000 	cmpvs	r4, r0

00000ffc <l897>:
     ffc:	e18b4833 	orr	r4, fp, r3, lsr r8

00001000 <l898>:
    1000:	316f0f17 	clzcc	r0, r7

00001004 <l899>:
    1004:	403ab002 	eorsmi	fp, sl, r2

00001008 <l900>:
    1008:	63360fc5 	teqvs	r6, #788	; 0x314

0000100c <l901>:
    100c:	026e340d 	rsbeq	r3, lr, #218103808	; 0xd000000

00001010 <l902>:
    1010:	da000000 	ble	1018 <l904>

00001014 <l903>:
    1014:	816f8f1c 	clzhi	r8, ip

00001018 <l904>:
    1018:	e24750d3 	sub	r5, r7, #211	; 0xd3

0000101c <l905>:
    101c:	40468a44 	submi	r8, r6, r4, asr #20

00001020 <l906>:
    1020:	02424e17 	subeq	r4, r2, #368	; 0x170

00001024 <l907>:
    1024:	e00b200e 	and	r2, fp, lr

00001028 <l908>:
    1028:	21520061 	cmpcs	r2, r1, rrx

0000102c <l909>:
    102c:	e09ceec6 	adds	lr, ip, r6, asr #29

00001030 <l910>:
    1030:	e16f0f1e 	clz	r0, lr

00001034 <l911>:
    1034:	e51d0009 	ldr	r0, [sp, #-9]

00001038 <l912>:
    1038:	0199a00b 	orrseq	sl, r9, fp

0000103c <l913>:
    103c:	e09ca002 	adds	sl, ip, r2

00001040 <l914>:
    1040:	a21045c3 	andsge	r4, r0, #817889280	; 0x30c00000

00001044 <l915>:
    1044:	e35c018a 	cmp	ip, #-2147483614	; 0x80000022

00001048 <l916>:
    1048:	90a58aa8 	adcls	r8, r5, r8, lsr #21

0000104c <l917>:
    104c:	e1cb6000 	bic	r6, fp, r0

00001050 <l918>:
    1050:	e1854535 	orr	r4, r5, r5, lsr r5

00001054 <l919>:
    1054:	116f0f1b 	clzne	r0, fp

00001058 <l920>:
    1058:	e0412006 	sub	r2, r1, r6

0000105c <l921>:
    105c:	da000005 	ble	1078 <l928>

00001060 <l922>:
    1060:	e026841b 	eor	r8, r6, fp, lsl r4

00001064 <l923>:
    1064:	e0a51060 	adc	r1, r5, r0, rrx

00001068 <l924>:
    1068:	e16fcf18 	clz	ip, r8

0000106c <l925>:
    106c:	e11c0a14 	tst	ip, r4, lsl sl

00001070 <l926>:
    1070:	116faf18 	clzne	sl, r8

00001074 <l927>:
    1074:	e3b01d5a 	movs	r1, #5760	; 0x1680

00001078 <l928>:
    1078:	e1130065 	tst	r3, r5, rrx

0000107c <l929>:
    107c:	eaffffff 	b	1080 <l930>

00001080 <l930>:
    1080:	e2a74193 	adc	r4, r7, #-1073741788	; 0xc0000024

00001084 <l931>:
    1084:	c05c1e3c 	subsgt	r1, ip, ip, lsr lr

00001088 <l932>:
    1088:	c1a04473 	rorgt	r4, r3, r4

0000108c <l933>:
    108c:	e48d100c 	str	r1, [sp], #12

00001090 <l934>:
    1090:	4a000006 	bmi	10b0 <l942>

00001094 <l935>:
    1094:	d0225883 	eorle	r5, r2, r3, lsl #17

00001098 <l936>:
    1098:	30bec007 	adcscc	ip, lr, r7

0000109c <l937>:
    109c:	e0c0200a 	sbc	r2, r0, sl

000010a0 <l938>:
    10a0:	e0c26e33 	sbc	r6, r2, r3, lsr lr

000010a4 <l939>:
    10a4:	413f0064 	teqmi	pc, r4, rrx

000010a8 <l940>:
    10a8:	104a6659 	subne	r6, sl, r9, asr r6

000010ac <l941>:
    10ac:	51d91006 	bicspl	r1, r9, r6

000010b0 <l942>:
    10b0:	c1f08007 	mvnsgt	r8, r7

000010b4 <l943>:
    10b4:	8a000006 	bhi	10d4 <l951>

000010b8 <l944>:
    10b8:	e284a635 	add	sl, r4, #55574528	; 0x3500000

000010bc <l945>:
    10bc:	20103a7a 	andscs	r3, r0, sl, ror sl

000010c0 <l946>:
    10c0:	e0178de9 	ands	r8, r7, r9, ror #27

000010c4 <l947>:
    10c4:	0118006b 	tsteq	r8, fp, rrx

000010c8 <l948>:
    10c8:	e2f4cded 	rscs	ip, r4, #15168	; 0x3b40

000010cc <l949>:
    10cc:	e1e0207b 	mvn	r2, fp, ror r0

000010d0 <l950>:
    10d0:	e0518c3b 	subs	r8, r1, fp, lsr ip

000010d4 <l951>:
    10d4:	e27fc2a2 	rsbs	ip, pc, #536870922	; 0x2000000a

000010d8 <l952>:
    10d8:	5a000000 	bpl	10e0 <l954>

000010dc <l953>:
    10dc:	31150487 	tstcc	r5, r7, lsl #9

000010e0 <l954>:
    10e0:	a1f05007 	mvnsge	r5, r7

000010e4 <l955>:
    10e4:	e1d31a5a 	bics	r1, r3, sl, asr sl

000010e8 <l956>:
    10e8:	800c431e 	andhi	r4, ip, lr, lsl r3

000010ec <l957>:
    10ec:	d1190001 	tstle	r9, r1

000010f0 <l958>:
    10f0:	e1f01172 	mvns	r1, r2, ror r1

000010f4 <l959>:
    10f4:	e2539e33 	subs	r9, r3, #816	; 0x330

000010f8 <l960>:
    10f8:	e3750907 	cmn	r5, #114688	; 0x1c000

000010fc <l961>:
    10fc:	e036294a 	eors	r2, r6, sl, asr #18

00001100 <l962>:
    1100:	13720c1a 	cmnne	r2, #6656	; 0x1a00

00001104 <l963>:
    1104:	40b3e060 	adcsmi	lr, r3, r0, rrx

00001108 <l964>:
    1108:	da000005 	ble	1124 <l971>

0000110c <l965>:
    110c:	c0b27fa6 	adcsgt	r7, r2, r6, lsr #31

00001110 <l966>:
    1110:	e11b0ccc 	tst	fp, ip, asr #25

00001114 <l967>:
    1114:	617b0c78 	cmnvs	fp, r8, ror ip

00001118 <l968>:
    1118:	e05c9372 	subs	r9, ip, r2, ror r3

0000111c <l969>:
    111c:	0050200a 	subseq	r2, r0, sl

00001120 <l970>:
    1120:	e2183836 	ands	r3, r8, #3538944	; 0x360000

00001124 <l971>:
    1124:	22914eb2 	addscs	r4, r1, #2848	; 0xb20

00001128 <l972>:
    1128:	e0738955 	rsbs	r8, r3, r5, asr r9

0000112c <l973>:
    112c:	1254160e 	subsne	r1, r4, #14680064	; 0xe00000

00001130 <l974>:
    1130:	402f964c 	eormi	r9, pc, ip, asr #12

00001134 <l975>:
    1134:	a1770009 	cmnge	r7, r9

00001138 <l976>:
    1138:	51a0306b 	rrxpl	r3, fp

0000113c <l977>:
    113c:	e152058f 	cmp	r2, pc, lsl #11

00001140 <l978>:
    1140:	e1f06006 	mvns	r6, r6

00001144 <l979>:
    1144:	c0032238 	andgt	r2, r3, r8, lsr r2

00001148 <l980>:
    1148:	ea000005 	b	1164 <l987>

0000114c <l981>:
    114c:	e28010f9 	add	r1, r0, #249	; 0xf9

00001150 <l982>:
    1150:	e3140be2 	tst	r4, #231424	; 0x38800

00001154 <l983>:
    1154:	538c9050 	orrpl	r9, ip, #80	; 0x50

00001158 <l984>:
    1158:	e0e7000b 	rsc	r0, r7, fp

0000115c <l985>:
    115c:	d0c09069 	sbcle	r9, r0, r9, rrx

00001160 <l986>:
    1160:	ea000000 	b	1168 <l988>

00001164 <l987>:
    1164:	eafffff9 	b	1150 <l982>

00001168 <l988>:
    1168:	e0b7a006 	adcs	sl, r7, r6

0000116c <l989>:
    116c:	e0794415 	rsbs	r4, r9, r5, lsl r4

00001170 <l990>:
    1170:	e0da6005 	sbcs	r6, sl, r5

00001174 <l991>:
    1174:	e17c0fe7 	cmn	ip, r7, ror #31

00001178 <l992>:
    1178:	e1760773 	cmn	r6, r3, ror r7

0000117c <l993>:
    117c:	416f3f17 	clzmi	r3, r7

00001180 <l994>:
    1180:	e068e664 	rsb	lr, r8, r4, ror #12

00001184 <l995>:
    1184:	51a03ce8 	rorpl	r3, r8, #25

00001188 <l996>:
    1188:	ea000000 	b	1190 <l998>

0000118c <l997>:
    118c:	e2b7ade7 	adcs	sl, r7, #14784	; 0x39c0

00001190 <l998>:
    1190:	4087606a 	addmi	r6, r7, sl, rrx

00001194 <l999>:
    1194:	20c37007 	sbccs	r7, r3, r7

00001198 <l1000>:
    1198:	ba000004 	blt	11b0 <l1006>

0000119c <l1001>:
    119c:	e2295fda 	eor	r5, r9, #872	; 0x368

000011a0 <l1002>:
    11a0:	e1190748 	tst	r9, r8, asr #14

000011a4 <l1003>:
    11a4:	a0aa5268 	adcge	r5, sl, r8, ror #4

000011a8 <l1004>:
    11a8:	a1b0b007 	movsge	fp, r7

000011ac <l1005>:
    11ac:	e030a076 	eors	sl, r0, r6, ror r0

000011b0 <l1006>:
    11b0:	e38e42cd 	orr	r4, lr, #-805306356	; 0xd000000c

000011b4 <l1007>:
    11b4:	520b5211 	andpl	r5, fp, #268435457	; 0x10000001

000011b8 <l1008>:
    11b8:	ea000005 	b	11d4 <l1015>

000011bc <l1009>:
    11bc:	73390e1e 	teqvc	r9, #480	; 0x1e0

000011c0 <l1010>:
    11c0:	a299cfb7 	addsge	ip, r9, #732	; 0x2dc

000011c4 <l1011>:
    11c4:	e07c1578 	rsbs	r1, ip, r8, ror r5

000011c8 <l1012>:
    11c8:	e298b951 	adds	fp, r8, #1327104	; 0x144000

000011cc <l1013>:
    11cc:	e1b05003 	movs	r5, r3

000011d0 <l1014>:
    11d0:	e0c1c003 	sbc	ip, r1, r3

000011d4 <l1015>:
    11d4:	e0e20302 	rsc	r0, r2, r2, lsl #6

000011d8 <l1016>:
    11d8:	e33c03b2 	teq	ip, #-939524094	; 0xc8000002

000011dc <l1017>:
    11dc:	70d74e33 	sbcsvc	r4, r7, r3, lsr lr

000011e0 <l1018>:
    11e0:	e1510bc9 	cmp	r1, r9, asr #23

000011e4 <l1019>:
    11e4:	e15a0002 	cmp	sl, r2

000011e8 <l1020>:
    11e8:	e1c90808 	bic	r0, r9, r8, lsl #16

000011ec <l1021>:
    11ec:	e5ad5000 	str	r5, [sp, #0]!

000011f0 <l1022>:
    11f0:	e0525003 	subs	r5, r2, r3

000011f4 <l1023>:
    11f4:	e2c6e905 	sbc	lr, r6, #81920	; 0x14000

000011f8 <l1024>:
    11f8:	91370061 	teqls	r7, r1, rrx

000011fc <l1025>:
    11fc:	e177000b 	cmn	r7, fp

00001200 <l1026>:
    1200:	e16faf19 	clz	sl, r9

00001204 <l1027>:
    1204:	ea000003 	b	1218 <l1032>

00001208 <l1028>:
    1208:	90c3e875 	sbcls	lr, r3, r5, ror r8

0000120c <l1029>:
    120c:	61130062 	tstvs	r3, r2, rrx

00001210 <l1030>:
    1210:	e18c8035 	orr	r8, ip, r5, lsr r0

00001214 <l1031>:
    1214:	e16fbf1b 	clz	fp, fp

00001218 <l1032>:
    1218:	c1f01c70 	mvnsgt	r1, r0, ror ip

0000121c <l1033>:
    121c:	018e35c1 	orreq	r3, lr, r1, asr #11

00001220 <l1034>:
    1220:	d014b45e 	andsle	fp, r4, lr, asr r4

00001224 <l1035>:
    1224:	e1f02056 	mvns	r2, r6, asr r0

00001228 <l1036>:
    1228:	e0bc6a6f 	adcs	r6, ip, pc, ror #20

0000122c <l1037>:
    122c:	618f8064 	orrvs	r8, pc, r4, rrx

00001230 <l1038>:
    1230:	e336030d 	teq	r6, #872415232	; 0x34000000

00001234 <l1039>:
    1234:	ea000006 	b	1254 <l1047>

00001238 <l1040>:
    1238:	e06f8a63 	rsb	r8, pc, r3, ror #20

0000123c <l1041>:
    123c:	3181abe6 	orrcc	sl, r1, r6, ror #23

00001240 <l1042>:
    1240:	e1770065 	cmn	r7, r5, rrx

00001244 <l1043>:
    1244:	e0390c79 	eors	r0, r9, r9, ror ip

00001248 <l1044>:
    1248:	93370995 	teqls	r7, #2441216	; 0x254000

0000124c <l1045>:
    124c:	20a6306b 	adccs	r3, r6, fp, rrx

00001250 <l1046>:
    1250:	40450b40 	submi	r0, r5, r0, asr #22

00001254 <l1047>:
    1254:	e1760009 	cmn	r6, r9

00001258 <l1048>:
    1258:	e53d801e 	ldr	r8, [sp, #-30]!

0000125c <l1049>:
    125c:	e3c83d2d 	bic	r3, r8, #2880	; 0xb40

00001260 <l1050>:
    1260:	e0f32065 	rscs	r2, r3, r5, rrx

00001264 <l1051>:
    1264:	e06ce009 	rsb	lr, ip, r9

00001268 <l1052>:
    1268:	d3700d2d 	cmnle	r0, #2880	; 0xb40

0000126c <l1053>:
    126c:	e0c7c005 	sbc	ip, r7, r5

00001270 <l1054>:
    1270:	e40db002 	str	fp, [sp], #-2

00001274 <l1055>:
    1274:	50675713 	rsbpl	r5, r7, r3, lsl r7

00001278 <l1056>:
    1278:	a35a0ca9 	cmpge	sl, #43264	; 0xa900

0000127c <l1057>:
    127c:	23c23203 	biccs	r3, r2, #805306368	; 0x30000000

00001280 <l1058>:
    1280:	e0c19839 	sbc	r9, r1, r9, lsr r8

00001284 <l1059>:
    1284:	e0ce4003 	sbc	r4, lr, r3

00001288 <l1060>:
    1288:	615e02c6 	cmpvs	lr, r6, asr #5

0000128c <l1061>:
    128c:	2a000005 	bcs	12a8 <l1068>

00001290 <l1062>:
    1290:	e280100f 	add	r1, r0, #15

00001294 <l1063>:
    1294:	a29554d6 	addsge	r5, r5, #-704643072	; 0xd6000000

00001298 <l1064>:
    1298:	400f700e 	andmi	r7, pc, lr

0000129c <l1065>:
    129c:	20619617 	rsbcs	r9, r1, r7, lsl r6

000012a0 <l1066>:
    12a0:	135f0a2a 	cmpne	pc, #172032	; 0x2a000

000012a4 <l1067>:
    12a4:	ea000000 	b	12ac <l1069>

000012a8 <l1068>:
    12a8:	eafffff9 	b	1294 <l1063>

000012ac <l1069>:
    12ac:	62da90eb 	sbcsvs	r9, sl, #235	; 0xeb

000012b0 <l1070>:
    12b0:	00497757 	subeq	r7, r9, r7, asr r7

000012b4 <l1071>:
    12b4:	ea000002 	b	12c4 <l1075>

000012b8 <l1072>:
    12b8:	e0518470 	subs	r8, r1, r0, ror r4

000012bc <l1073>:
    12bc:	d16faf1b 	clzle	sl, fp

000012c0 <l1074>:
    12c0:	e25e9029 	subs	r9, lr, #41	; 0x29

000012c4 <l1075>:
    12c4:	e1b04ee3 	rors	r4, r3, #29

000012c8 <l1076>:
    12c8:	e0312a7a 	eors	r2, r1, sl, ror sl

000012cc <l1077>:
    12cc:	e06a0003 	rsb	r0, sl, r3

000012d0 <l1078>:
    12d0:	61cf700c 	bicvs	r7, pc, ip

000012d4 <l1079>:
    12d4:	e178000c 	cmn	r8, ip

000012d8 <l1080>:
    12d8:	51b0700a 	movspl	r7, sl

000012dc <l1081>:
    12dc:	3247e2f9 	subcc	lr, r7, #-1879048177	; 0x9000000f

000012e0 <l1082>:
    12e0:	e05b6003 	subs	r6, fp, r3

000012e4 <l1083>:
    12e4:	9011a007 	andsls	sl, r1, r7

000012e8 <l1084>:
    12e8:	e1740009 	cmn	r4, r9

000012ec <l1085>:
    12ec:	e39b0e11 	orrs	r0, fp, #272	; 0x110

000012f0 <l1086>:
    12f0:	417a0004 	cmnmi	sl, r4

000012f4 <l1087>:
    12f4:	7a000001 	bvc	1300 <l1090>

000012f8 <l1088>:
    12f8:	a00f8a86 	andge	r8, pc, r6, lsl #21

000012fc <l1089>:
    12fc:	41570004 	cmpmi	r7, r4

00001300 <l1090>:
    1300:	a042795a 	subge	r7, r2, sl, asr r9

00001304 <l1091>:
    1304:	719a0457 	orrsvc	r0, sl, r7, asr r4

00001308 <l1092>:
    1308:	c2635040 	rsbgt	r5, r3, #64	; 0x40

0000130c <l1093>:
    130c:	4a000003 	bmi	1320 <l1098>

00001310 <l1094>:
    1310:	c3c4ce43 	bicgt	ip, r4, #1072	; 0x430

00001314 <l1095>:
    1314:	d173000f 	cmnle	r3, pc

00001318 <l1096>:
    1318:	40630006 	rsbmi	r0, r3, r6

0000131c <l1097>:
    131c:	b0845a7e 	addlt	r5, r4, lr, ror sl

00001320 <l1098>:
    1320:	b1f0bc10 	mvnslt	fp, r0, lsl ip

00001324 <l1099>:
    1324:	b051b838 	subslt	fp, r1, r8, lsr r8

00001328 <l1100>:
    1328:	e113006f 	tst	r3, pc, rrx

0000132c <l1101>:
    132c:	b24bb569 	sublt	fp, fp, #440401920	; 0x1a400000

00001330 <l1102>:
    1330:	90c3ba1b 	sbcls	fp, r3, fp, lsl sl

00001334 <l1103>:
    1334:	e0ebb06e 	rsc	fp, fp, lr, rrx

00001338 <l1104>:
    1338:	e01b6175 	ands	r6, fp, r5, ror r1

0000133c <l1105>:
    133c:	e09acbcb 	adds	ip, sl, fp, asr #23

00001340 <l1106>:
    1340:	e05b8970 	subs	r8, fp, r0, ror r9

00001344 <l1107>:
    1344:	e2085060 	and	r5, r8, #96	; 0x60

00001348 <l1108>:
    1348:	2a000004 	bcs	1360 <l1114>

0000134c <l1109>:
    134c:	e2801071 	add	r1, r0, #113	; 0x71

00001350 <l1110>:
    1350:	90a73001 	adcls	r3, r7, r1

00001354 <l1111>:
    1354:	e0f73007 	rscs	r3, r7, r7

00001358 <l1112>:
    1358:	9188600b 	orrls	r6, r8, fp

0000135c <l1113>:
    135c:	ea000000 	b	1364 <l1115>

00001360 <l1114>:
    1360:	eafffffa 	b	1350 <l1110>

00001364 <l1115>:
    1364:	e0179371 	ands	r9, r7, r1, ror r3

00001368 <l1116>:
    1368:	80f5400e 	rscshi	r4, r5, lr

0000136c <l1117>:
    136c:	c0f97372 	rscsgt	r7, r9, r2, ror r3

00001370 <l1118>:
    1370:	91f0b4c9 	mvnsls	fp, r9, asr #9

00001374 <l1119>:
    1374:	e00818a9 	and	r1, r8, r9, lsr #17

00001378 <l1120>:
    1378:	ea000008 	b	13a0 <l1130>

0000137c <l1121>:
    137c:	b1790dc1 	cmnlt	r9, r1, asr #27

00001380 <l1122>:
    1380:	90640001 	rsbls	r0, r4, r1

00001384 <l1123>:
    1384:	216fef10 	clzcs	lr, r0

00001388 <l1124>:
    1388:	72af348a 	adcvc	r3, pc, #-1979711488	; 0x8a000000

0000138c <l1125>:
    138c:	50314005 	eorspl	r4, r1, r5

00001390 <l1126>:
    1390:	c050100f 	subsgt	r1, r0, pc

00001394 <l1127>:
    1394:	3196806e 	orrscc	r8, r6, lr, rrx

00001398 <l1128>:
    1398:	e000e015 	and	lr, r0, r5, lsl r0

0000139c <l1129>:
    139c:	a1e09006 	mvnge	r9, r6

000013a0 <l1130>:
    13a0:	42f0ab5d 	rscsmi	sl, r0, #95232	; 0x17400

000013a4 <l1131>:
    13a4:	93c51e7b 	bicls	r1, r5, #1968	; 0x7b0

000013a8 <l1132>:
    13a8:	709fa06a 	addsvc	sl, pc, sl, rrx

000013ac <l1133>:
    13ac:	c0916477 	addsgt	r6, r1, r7, ror r4

000013b0 <l1134>:
    13b0:	e0185e56 	ands	r5, r8, r6, asr lr

000013b4 <l1135>:
    13b4:	e19b3009 	orrs	r3, fp, r9

000013b8 <l1136>:
    13b8:	21e07670 	mvncs	r7, r0, ror r6

000013bc <l1137>:
    13bc:	ea000007 	b	13e0 <l1146>

000013c0 <l1138>:
    13c0:	e280105e 	add	r1, r0, #94	; 0x5e

000013c4 <l1139>:
    13c4:	e06c4c77 	rsb	r4, ip, r7, ror ip

000013c8 <l1140>:
    13c8:	e223b5eb 	eor	fp, r3, #985661440	; 0x3ac00000

000013cc <l1141>:
    13cc:	e2d6640d 	sbcs	r6, r6, #218103808	; 0xd000000

000013d0 <l1142>:
    13d0:	11e0200a 	mvnne	r2, sl

000013d4 <l1143>:
    13d4:	80df3007 	sbcshi	r3, pc, r7

000013d8 <l1144>:
    13d8:	a13b0004 	teqge	fp, r4

000013dc <l1145>:
    13dc:	ea000000 	b	13e4 <l1147>

000013e0 <l1146>:
    13e0:	eafffff7 	b	13c4 <l1139>

000013e4 <l1147>:
    13e4:	902f7640 	eorls	r7, pc, r0, asr #12

000013e8 <l1148>:
    13e8:	d3a0e203 	movle	lr, #805306368	; 0x30000000

000013ec <l1149>:
    13ec:	e16f1f19 	clz	r1, r9

000013f0 <l1150>:
    13f0:	e3a0b004 	mov	fp, #4

000013f4 <l1151>:
    13f4:	e68de00b 	str	lr, [sp], fp

000013f8 <l1152>:
    13f8:	e030e00e 	eors	lr, r0, lr

000013fc <l1153>:
    13fc:	5194cb75 	orrspl	ip, r4, r5, ror fp

00001400 <l1154>:
    1400:	e3a094ae 	mov	r9, #-1375731712	; 0xae000000

00001404 <l1155>:
    1404:	106e500e 	rsbne	r5, lr, lr

00001408 <l1156>:
    1408:	e3a02007 	mov	r2, #7

0000140c <l1157>:
    140c:	e61dc002 	ldr	ip, [sp], -r2

00001410 <l1158>:
    1410:	ca000005 	bgt	142c <l1165>

00001414 <l1159>:
    1414:	000f2062 	andeq	r2, pc, r2, rrx

00001418 <l1160>:
    1418:	009fb24e 	addseq	fp, pc, lr, asr #4

0000141c <l1161>:
    141c:	e13a0006 	teq	sl, r6

00001420 <l1162>:
    1420:	11100115 	tstne	r0, r5, lsl r1

00001424 <l1163>:
    1424:	e048106b 	sub	r1, r8, fp, rrx

00001428 <l1164>:
    1428:	51540008 	cmppl	r4, r8

0000142c <l1165>:
    142c:	e00b0007 	and	r0, fp, r7

00001430 <l1166>:
    1430:	439642db 	orrsmi	r4, r6, #-1342177267	; 0xb000000d

00001434 <l1167>:
    1434:	ea000007 	b	1458 <l1176>

00001438 <l1168>:
    1438:	e2801079 	add	r1, r0, #121	; 0x79

0000143c <l1169>:
    143c:	e2feec3e 	rscs	lr, lr, #15872	; 0x3e00

00001440 <l1170>:
    1440:	0044c54e 	subeq	ip, r4, lr, asr #10

00001444 <l1171>:
    1444:	a3540291 	cmpge	r4, #268435465	; 0x10000009

00001448 <l1172>:
    1448:	613f0fc4 	teqvs	pc, r4, asr #31

0000144c <l1173>:
    144c:	a0c1a202 	sbcge	sl, r1, r2, lsl #4

00001450 <l1174>:
    1450:	e0587b65 	subs	r7, r8, r5, ror #22

00001454 <l1175>:
    1454:	ea000000 	b	145c <l1177>

00001458 <l1176>:
    1458:	eafffff7 	b	143c <l1169>

0000145c <l1177>:
    145c:	43730901 	cmnmi	r3, #16384	; 0x4000

00001460 <l1178>:
    1460:	ea000007 	b	1484 <l1187>

00001464 <l1179>:
    1464:	e2801014 	add	r1, r0, #20

00001468 <l1180>:
    1468:	b2a30ace 	adclt	r0, r3, #843776	; 0xce000

0000146c <l1181>:
    146c:	e1b085a0 	lsrs	r8, r0, #11

00001470 <l1182>:
    1470:	913e0a60 	teqls	lr, r0, ror #20

00001474 <l1183>:
    1474:	71390384 	teqvc	r9, r4, lsl #7

00001478 <l1184>:
    1478:	12f93b02 	rscsne	r3, r9, #2048	; 0x800

0000147c <l1185>:
    147c:	81300008 	teqhi	r0, r8

00001480 <l1186>:
    1480:	ea000000 	b	1488 <l1188>

00001484 <l1187>:
    1484:	eafffff7 	b	1468 <l1180>

00001488 <l1188>:
    1488:	11160953 	tstne	r6, r3, asr r9

0000148c <l1189>:
    148c:	ba000000 	blt	1494 <l1191>

00001490 <l1190>:
    1490:	50a20da8 	adcpl	r0, r2, r8, lsr #27

00001494 <l1191>:
    1494:	e1b06a70 	rors	r6, r0, sl

00001498 <l1192>:
    1498:	a0e8e004 	rscge	lr, r8, r4

0000149c <l1193>:
    149c:	913a0064 	teqls	sl, r4, rrx

000014a0 <l1194>:
    14a0:	e00cc06f 	and	ip, ip, pc, rrx

000014a4 <l1195>:
    14a4:	337c00f2 	cmncc	ip, #242	; 0xf2

000014a8 <l1196>:
    14a8:	305cbec6 	subscc	fp, ip, r6, asr #29

000014ac <l1197>:
    14ac:	ea000004 	b	14c4 <l1203>

000014b0 <l1198>:
    14b0:	e0151060 	ands	r1, r5, r0, rrx

000014b4 <l1199>:
    14b4:	d1a0897e 	rorle	r8, lr, r9

000014b8 <l1200>:
    14b8:	d1f0a004 	mvnsle	sl, r4

000014bc <l1201>:
    14bc:	e1c12015 	bic	r2, r1, r5, lsl r0

000014c0 <l1202>:
    14c0:	4110057e 	tstmi	r0, lr, ror r5

000014c4 <l1203>:
    14c4:	700e57c5 	andvc	r5, lr, r5, asr #15

000014c8 <l1204>:
    14c8:	d2b30a6d 	adcsle	r0, r3, #446464	; 0x6d000

000014cc <l1205>:
    14cc:	c284a12e 	addgt	sl, r4, #-2147483637	; 0x8000000b

000014d0 <l1206>:
    14d0:	737f034e 	cmnvc	pc, #939524097	; 0x38000001

000014d4 <l1207>:
    14d4:	e0eccd0a 	rsc	ip, ip, sl, lsl #26

000014d8 <l1208>:
    14d8:	e38b7dab 	orr	r7, fp, #10944	; 0x2ac0

000014dc <l1209>:
    14dc:	20ea5007 	rsccs	r5, sl, r7

000014e0 <l1210>:
    14e0:	e16f7f19 	clz	r7, r9

000014e4 <l1211>:
    14e4:	ea000005 	b	1500 <l1218>

000014e8 <l1212>:
    14e8:	e2801012 	add	r1, r0, #18

000014ec <l1213>:
    14ec:	e1100009 	tst	r0, r9

000014f0 <l1214>:
    14f0:	e054200a 	subs	r2, r4, sl

000014f4 <l1215>:
    14f4:	e0a358c1 	adc	r5, r3, r1, asr #17

000014f8 <l1216>:
    14f8:	a27231bf 	rsbsge	r3, r2, #-1073741777	; 0xc000002f

000014fc <l1217>:
    14fc:	ea000000 	b	1504 <l1219>

00001500 <l1218>:
    1500:	eafffff9 	b	14ec <l1213>

00001504 <l1219>:
    1504:	8058e637 	subshi	lr, r8, r7, lsr r6

00001508 <l1220>:
    1508:	6387716d 	orrvs	r7, r7, #1073741851	; 0x4000001b

0000150c <l1221>:
    150c:	013804ac 	teqeq	r8, ip, lsr #9

00001510 <l1222>:
    1510:	92bb62fe 	adcsls	r6, fp, #-536870897	; 0xe000000f

00001514 <l1223>:
    1514:	c3770503 	cmngt	r7, #12582912	; 0xc00000

00001518 <l1224>:
    1518:	a16f5f18 	clzge	r5, r8

0000151c <l1225>:
    151c:	e24ac11a 	sub	ip, sl, #-2147483642	; 0x80000006

00001520 <l1226>:
    1520:	e1f03007 	mvns	r3, r7

00001524 <l1227>:
    1524:	e1760007 	cmn	r6, r7

00001528 <l1228>:
    1528:	e065b6a3 	rsb	fp, r5, r3, lsr #13

0000152c <l1229>:
    152c:	51e0b068 	mvnpl	fp, r8, rrx

00001530 <l1230>:
    1530:	72c122e1 	sbcvc	r2, r1, #268435470	; 0x1000000e

00001534 <l1231>:
    1534:	e1500000 	cmp	r0, r0

00001538 <l1232>:
    1538:	e3a0002b 	mov	r0, #43	; 0x2b

0000153c <l1233>:
    153c:	e68d8000 	str	r8, [sp], r0

00001540 <l1234>:
    1540:	e3898f92 	orr	r8, r9, #584	; 0x248

00001544 <l1235>:
    1544:	e16f2f13 	clz	r2, r3

00001548 <l1236>:
    1548:	e1a0e001 	mov	lr, r1

0000154c <l1237>:
    154c:	d0e8b003 	rscle	fp, r8, r3

00001550 <l1238>:
    1550:	516f4f1a 	clzpl	r4, sl

00001554 <l1239>:
    1554:	e1b090a5 	lsrs	r9, r5, #1

00001558 <l1240>:
    1558:	c0d676a0 	sbcsgt	r7, r6, r0, lsr #13

0000155c <l1241>:
    155c:	b239600f 	eorslt	r6, r9, #15

00001560 <l1242>:
    1560:	e04c4064 	sub	r4, ip, r4, rrx

00001564 <l1243>:
    1564:	da000003 	ble	1578 <l1248>

00001568 <l1244>:
    1568:	e280100a 	add	r1, r0, #10

0000156c <l1245>:
    156c:	e185e571 	orr	lr, r5, r1, ror r5

00001570 <l1246>:
    1570:	e186c956 	orr	ip, r6, r6, asr r9

00001574 <l1247>:
    1574:	ea000000 	b	157c <l1249>

00001578 <l1248>:
    1578:	eafffffb 	b	156c <l1245>

0000157c <l1249>:
    157c:	e0d79d6e 	sbcs	r9, r7, lr, ror #26

00001580 <l1250>:
    1580:	91d56005 	bicsls	r6, r5, r5

00001584 <l1251>:
    1584:	d1500b89 	cmple	r0, r9, lsl #23

00001588 <l1252>:
    1588:	e199eb8a 	orrs	lr, r9, sl, lsl #23

0000158c <l1253>:
    158c:	11170eca 	tstne	r7, sl, asr #29

00001590 <l1254>:
    1590:	4a000006 	bmi	15b0 <l1262>

00001594 <l1255>:
    1594:	e28010e4 	add	r1, r0, #228	; 0xe4

00001598 <l1256>:
    1598:	e0a65960 	adc	r5, r6, r0, ror #18

0000159c <l1257>:
    159c:	e2b84a33 	adcs	r4, r8, #208896	; 0x33000

000015a0 <l1258>:
    15a0:	e1932065 	orrs	r2, r3, r5, rrx

000015a4 <l1259>:
    15a4:	e0f7e001 	rscs	lr, r7, r1

000015a8 <l1260>:
    15a8:	e2171e6d 	ands	r1, r7, #1744	; 0x6d0

000015ac <l1261>:
    15ac:	ea000000 	b	15b4 <l1263>

000015b0 <l1262>:
    15b0:	eafffff8 	b	1598 <l1256>

000015b4 <l1263>:
    15b4:	8a000001 	bhi	15c0 <l1266>

000015b8 <l1264>:
    15b8:	e0eb3004 	rsc	r3, fp, r4

000015bc <l1265>:
    15bc:	e13b09e5 	teq	fp, r5, ror #19

000015c0 <l1266>:
    15c0:	211e0301 	tstcs	lr, r1, lsl #6

000015c4 <l1267>:
    15c4:	019c7006 	orrseq	r7, ip, r6

000015c8 <l1268>:
    15c8:	01c240cb 	biceq	r4, r2, fp, asr #1

000015cc <l1269>:
    15cc:	e05cb611 	subs	fp, ip, r1, lsl r6

000015d0 <l1270>:
    15d0:	e19383a5 	orrs	r8, r3, r5, lsr #7

000015d4 <l1271>:
    15d4:	b15a0064 	cmplt	sl, r4, rrx

000015d8 <l1272>:
    15d8:	11160b04 	tstne	r6, r4, lsl #22

000015dc <l1273>:
    15dc:	20576375 	subscs	r6, r7, r5, ror r3

000015e0 <l1274>:
    15e0:	e1e0114f 	mvn	r1, pc, asr #2

000015e4 <l1275>:
    15e4:	52215057 	eorpl	r5, r1, #87	; 0x57

000015e8 <l1276>:
    15e8:	01d34068 	bicseq	r4, r3, r8, rrx

000015ec <l1277>:
    15ec:	11a07003 	movne	r7, r3

000015f0 <l1278>:
    15f0:	e0254001 	eor	r4, r5, r1

000015f4 <l1279>:
    15f4:	951d8035 	ldrls	r8, [sp, #-53]	; 0x35

000015f8 <l1280>:
    15f8:	aa000004 	bge	1610 <l1286>

000015fc <l1281>:
    15fc:	33150111 	tstcc	r5, #1073741828	; 0x40000004

00001600 <l1282>:
    1600:	e3560b56 	cmp	r6, #88064	; 0x15800

00001604 <l1283>:
    1604:	11370068 	teqne	r7, r8, rrx

00001608 <l1284>:
    1608:	e33b03c1 	teq	fp, #67108867	; 0x4000003

0000160c <l1285>:
    160c:	215b0b55 	cmpcs	fp, r5, asr fp

00001610 <l1286>:
    1610:	e1c85005 	bic	r5, r8, r5

00001614 <l1287>:
    1614:	e02c3002 	eor	r3, ip, r2

00001618 <l1288>:
    1618:	e52db014 	str	fp, [sp, #-20]!

0000161c <l1289>:
    161c:	804a500f 	subhi	r5, sl, pc

00001620 <l1290>:
    1620:	6013806e 	andsvs	r8, r3, lr, rrx

00001624 <l1291>:
    1624:	813c090e 	teqhi	ip, lr, lsl #18

00001628 <l1292>:
    1628:	e48d0024 	str	r0, [sp], #36	; 0x24

0000162c <l1293>:
    162c:	ea000004 	b	1644 <l1299>

00001630 <l1294>:
    1630:	e28010c7 	add	r1, r0, #199	; 0xc7

00001634 <l1295>:
    1634:	e1f02906 	mvns	r2, r6, lsl #18

00001638 <l1296>:
    1638:	9050300c 	subsls	r3, r0, ip

0000163c <l1297>:
    163c:	e055a759 	subs	sl, r5, r9, asr r7

00001640 <l1298>:
    1640:	ea000000 	b	1648 <l1300>

00001644 <l1299>:
    1644:	eafffffa 	b	1634 <l1295>

00001648 <l1300>:
    1648:	6a000004 	bvs	1660 <l1306>

0000164c <l1301>:
    164c:	e280103c 	add	r1, r0, #60	; 0x3c

00001650 <l1302>:
    1650:	80715017 	rsbshi	r5, r1, r7, lsl r0

00001654 <l1303>:
    1654:	80608202 	rsbhi	r8, r0, r2, lsl #4

00001658 <l1304>:
    1658:	51790008 	cmnpl	r9, r8

0000165c <l1305>:
    165c:	ea000000 	b	1664 <l1307>

00001660 <l1306>:
    1660:	eafffffa 	b	1650 <l1302>

00001664 <l1307>:
    1664:	30644d02 	rsbcc	r4, r4, r2, lsl #26

00001668 <l1308>:
    1668:	e2063083 	and	r3, r6, #131	; 0x83

0000166c <l1309>:
    166c:	e05f5000 	subs	r5, pc, r0

00001670 <l1310>:
    1670:	ea000004 	b	1688 <l1316>

00001674 <l1311>:
    1674:	a041e006 	subge	lr, r1, r6

00001678 <l1312>:
    1678:	d15a0006 	cmple	sl, r6

0000167c <l1313>:
    167c:	916f4f1a 	clzls	r4, sl

00001680 <l1314>:
    1680:	e16f5f18 	clz	r5, r8

00001684 <l1315>:
    1684:	e23bb060 	eors	fp, fp, #96	; 0x60

00001688 <l1316>:
    1688:	216f0f12 	clzcs	r0, r2

0000168c <l1317>:
    168c:	e232ecc9 	eors	lr, r2, #51456	; 0xc900

00001690 <l1318>:
    1690:	325c81bf 	subscc	r8, ip, #-1073741777	; 0xc000002f

00001694 <l1319>:
    1694:	e1790e8f 	cmn	r9, pc, lsl #29

00001698 <l1320>:
    1698:	a05465c2 	subsge	r6, r4, r2, asr #11

0000169c <l1321>:
    169c:	3a000002 	bcc	16ac <l1325>

000016a0 <l1322>:
    16a0:	e28010f4 	add	r1, r0, #244	; 0xf4

000016a4 <l1323>:
    16a4:	211e0b52 	tstcs	lr, r2, asr fp

000016a8 <l1324>:
    16a8:	ea000000 	b	16b0 <l1326>

000016ac <l1325>:
    16ac:	eafffffc 	b	16a4 <l1323>

000016b0 <l1326>:
    16b0:	e0a3a4c5 	adc	sl, r3, r5, asr #9

000016b4 <l1327>:
    16b4:	51300005 	teqpl	r0, r5

000016b8 <l1328>:
    16b8:	e24e28d7 	sub	r2, lr, #14090240	; 0xd70000

000016bc <l1329>:
    16bc:	e1f00007 	mvns	r0, r7

000016c0 <l1330>:
    16c0:	e2da86f6 	sbcs	r8, sl, #257949696	; 0xf600000

000016c4 <l1331>:
    16c4:	e05b6010 	subs	r6, fp, r0, lsl r0

000016c8 <l1332>:
    16c8:	113e000c 	teqne	lr, ip

000016cc <l1333>:
    16cc:	d0ffc18c 	rscsle	ip, pc, ip, lsl #3

000016d0 <l1334>:
    16d0:	e062100f 	rsb	r1, r2, pc

000016d4 <l1335>:
    16d4:	e0294375 	eor	r4, r9, r5, ror r3

000016d8 <l1336>:
    16d8:	d1938005 	orrsle	r8, r3, r5

000016dc <l1337>:
    16dc:	e2352209 	eors	r2, r5, #-1879048192	; 0x90000000

000016e0 <l1338>:
    16e0:	e1868c72 	orr	r8, r6, r2, ror ip

000016e4 <l1339>:
    16e4:	e09a006b 	adds	r0, sl, fp, rrx

000016e8 <l1340>:
    16e8:	20d3e002 	sbcscs	lr, r3, r2

000016ec <l1341>:
    16ec:	315c006a 	cmpcc	ip, sl, rrx

000016f0 <l1342>:
    16f0:	e1730621 	cmn	r3, r1, lsr #12

000016f4 <l1343>:
    16f4:	4a000004 	bmi	170c <l1349>

000016f8 <l1344>:
    16f8:	e2801059 	add	r1, r0, #89	; 0x59

000016fc <l1345>:
    16fc:	b08a406f 	addlt	r4, sl, pc, rrx

00001700 <l1346>:
    1700:	80be1c1b 	adcshi	r1, lr, fp, lsl ip

00001704 <l1347>:
    1704:	e1100e31 	tst	r0, r1, lsr lr

00001708 <l1348>:
    1708:	ea000000 	b	1710 <l1350>

0000170c <l1349>:
    170c:	eafffffa 	b	16fc <l1345>

00001710 <l1350>:
    1710:	e199600b 	orrs	r6, r9, fp

00001714 <l1351>:
    1714:	116fef13 	clzne	lr, r3

00001718 <l1352>:
    1718:	e0438001 	sub	r8, r3, r1

0000171c <l1353>:
    171c:	6070e008 	rsbsvs	lr, r0, r8

00001720 <l1354>:
    1720:	ea000007 	b	1744 <l1363>

00001724 <l1355>:
    1724:	e28010e0 	add	r1, r0, #224	; 0xe0

00001728 <l1356>:
    1728:	a0db800c 	sbcsge	r8, fp, ip

0000172c <l1357>:
    172c:	e16fbf19 	clz	fp, r9

00001730 <l1358>:
    1730:	e3140322 	tst	r4, #-2013265920	; 0x88000000

00001734 <l1359>:
    1734:	23750d59 	cmncs	r5, #5696	; 0x1640

00001738 <l1360>:
    1738:	e17a0f6c 	cmn	sl, ip, ror #30

0000173c <l1361>:
    173c:	80a75004 	adchi	r5, r7, r4

00001740 <l1362>:
    1740:	ea000000 	b	1748 <l1364>

00001744 <l1363>:
    1744:	eafffff7 	b	1728 <l1356>

00001748 <l1364>:
    1748:	81e02371 	mvnhi	r2, r1, ror r3

0000174c <l1365>:
    174c:	e0c79433 	sbc	r9, r7, r3, lsr r4

00001750 <l1366>:
    1750:	7085c00b 	addvc	ip, r5, fp

00001754 <l1367>:
    1754:	e1c33ec3 	bic	r3, r3, r3, asr #29

00001758 <l1368>:
    1758:	e1c0c007 	bic	ip, r0, r7

0000175c <l1369>:
    175c:	20dc500e 	sbcscs	r5, ip, lr

00001760 <l1370>:
    1760:	9207758d 	andls	r7, r7, #591396864	; 0x23400000

00001764 <l1371>:
    1764:	b1d99c3e 	bicslt	r9, r9, lr, lsr ip

00001768 <l1372>:
    1768:	e19be737 	orrs	lr, fp, r7, lsr r7

0000176c <l1373>:
    176c:	d0eb9a5b 	rscle	r9, fp, fp, asr sl

00001770 <l1374>:
    1770:	a17f0a0a 	cmnge	pc, sl, lsl #20

00001774 <l1375>:
    1774:	e13c0007 	teq	ip, r7

00001778 <l1376>:
    1778:	e1db0009 	bics	r0, fp, r9

0000177c <l1377>:
    177c:	e1812b86 	orr	r2, r1, r6, lsl #23

00001780 <l1378>:
    1780:	03f0e202 	mvnseq	lr, #536870912	; 0x20000000

00001784 <l1379>:
    1784:	3159000a 	cmpcc	r9, sl

00001788 <l1380>:
    1788:	41320c2a 	teqmi	r2, sl, lsr #24

0000178c <l1381>:
    178c:	e0010002 	and	r0, r1, r2

00001790 <l1382>:
    1790:	a0203b30 	eorge	r3, r0, r0, lsr fp

00001794 <l1383>:
    1794:	e1500937 	cmp	r0, r7, lsr r9

00001798 <l1384>:
    1798:	e1989740 	orrs	r9, r8, r0, asr #14

0000179c <l1385>:
    179c:	aa000004 	bge	17b4 <l1391>

000017a0 <l1386>:
    17a0:	e28010ae 	add	r1, r0, #174	; 0xae

000017a4 <l1387>:
    17a4:	e197a061 	orrs	sl, r7, r1, rrx

000017a8 <l1388>:
    17a8:	b030500a 	eorslt	r5, r0, sl

000017ac <l1389>:
    17ac:	e0406858 	sub	r6, r0, r8, asr r8

000017b0 <l1390>:
    17b0:	ea000000 	b	17b8 <l1392>

000017b4 <l1391>:
    17b4:	eafffffa 	b	17a4 <l1387>

000017b8 <l1392>:
    17b8:	90fea22f 	rscsls	sl, lr, pc, lsr #4

000017bc <l1393>:
    17bc:	6271ee49 	rsbsvs	lr, r1, #1168	; 0x490

000017c0 <l1394>:
    17c0:	aa000004 	bge	17d8 <l1400>

000017c4 <l1395>:
    17c4:	d35b0ef7 	cmple	fp, #3952	; 0xf70

000017c8 <l1396>:
    17c8:	701a0000 	andsvc	r0, sl, r0

000017cc <l1397>:
    17cc:	e0e92004 	rsc	r2, r9, r4

000017d0 <l1398>:
    17d0:	20928658 	addscs	r8, r2, r8, asr r6

000017d4 <l1399>:
    17d4:	e3e0b121 	mvn	fp, #1073741832	; 0x40000008

000017d8 <l1400>:
    17d8:	9049a007 	subls	sl, r9, r7

000017dc <l1401>:
    17dc:	60b270a7 	adcsvs	r7, r2, r7, lsr #1

000017e0 <l1402>:
    17e0:	409371a7 	addsmi	r7, r3, r7, lsr #3

000017e4 <l1403>:
    17e4:	e3a05028 	mov	r5, #40	; 0x28

000017e8 <l1404>:
    17e8:	170db005 	strne	fp, [sp, -r5]

000017ec <l1405>:
    17ec:	419c226f 	orrsmi	r2, ip, pc, ror #4

000017f0 <l1406>:
    17f0:	82d76135 	sbcshi	r6, r7, #1073741837	; 0x4000000d

000017f4 <l1407>:
    17f4:	e3c7eb26 	bic	lr, r7, #38912	; 0x9800

000017f8 <l1408>:
    17f8:	e41db044 	ldr	fp, [sp], #-68	; 0x44

000017fc <l1409>:
    17fc:	a2ab4d83 	adcge	r4, fp, #8384	; 0x20c0

00001800 <l1410>:
    1800:	b0033001 	andlt	r3, r3, r1

00001804 <l1411>:
    1804:	33100932 	tstcc	r0, #819200	; 0xc8000

00001808 <l1412>:
    1808:	e01a2c3e 	ands	r2, sl, lr, lsr ip

0000180c <l1413>:
    180c:	e0c36133 	sbc	r6, r3, r3, lsr r1

00001810 <l1414>:
    1810:	80a1306b 	adchi	r3, r1, fp, rrx

00001814 <l1415>:
    1814:	a0b75079 	adcsge	r5, r7, r9, ror r0

00001818 <l1416>:
    1818:	8133000b 	teqhi	r3, fp

0000181c <l1417>:
    181c:	e1310511 	teq	r1, r1, lsl r5

00001820 <l1418>:
    1820:	e397ea17 	orrs	lr, r7, #94208	; 0x17000

00001824 <l1419>:
    1824:	e07ee978 	rsbs	lr, lr, r8, ror r9

00001828 <l1420>:
    1828:	229ba103 	addscs	sl, fp, #-1073741824	; 0xc0000000

0000182c <l1421>:
    182c:	d1b0ec70 	rorsle	lr, r0, ip

00001830 <l1422>:
    1830:	604ae210 	subvs	lr, sl, r0, lsl r2

00001834 <l1423>:
    1834:	e01cb7c0 	ands	fp, ip, r0, asr #15

00001838 <l1424>:
    1838:	e098600b 	adds	r6, r8, fp

0000183c <l1425>:
    183c:	7071c91e 	rsbsvc	ip, r1, lr, lsl r9

00001840 <l1426>:
    1840:	91340c42 	teqls	r4, r2, asr #24

00001844 <l1427>:
    1844:	e00ae3a7 	and	lr, sl, r7, lsr #7

00001848 <l1428>:
    1848:	e18ae3e6 	orr	lr, sl, r6, ror #7

0000184c <l1429>:
    184c:	e03bb06c 	eors	fp, fp, ip, rrx

00001850 <l1430>:
    1850:	e0936007 	adds	r6, r3, r7

00001854 <l1431>:
    1854:	d026a73a 	eorle	sl, r6, sl, lsr r7

00001858 <l1432>:
    1858:	816fef1a 	clzhi	lr, sl

0000185c <l1433>:
    185c:	404b3772 	submi	r3, fp, r2, ror r7

00001860 <l1434>:
    1860:	53c0cac6 	bicpl	ip, r0, #811008	; 0xc6000

00001864 <l1435>:
    1864:	e059400a 	subs	r4, r9, sl

00001868 <l1436>:
    1868:	ea000006 	b	1888 <l1444>

0000186c <l1437>:
    186c:	41e0ee1c 	mvnmi	lr, ip, lsl lr

00001870 <l1438>:
    1870:	e2a1e34b 	adc	lr, r1, #738197505	; 0x2c000001

00001874 <l1439>:
    1874:	e3c1b70b 	bic	fp, r1, #2883584	; 0x2c0000

00001878 <l1440>:
    1878:	63750383 	cmnvs	r5, #201326594	; 0xc000002

0000187c <l1441>:
    187c:	51a06a7a 	rorpl	r6, sl, sl

00001880 <l1442>:
    1880:	e1710e46 	cmn	r1, r6, asr #28

00001884 <l1443>:
    1884:	1190e341 	orrsne	lr, r0, r1, asr #6

00001888 <l1444>:
    1888:	80e9800c 	rschi	r8, r9, ip

0000188c <l1445>:
    188c:	e0f102e8 	rscs	r0, r1, r8, ror #5

00001890 <l1446>:
    1890:	a2caa157 	sbcge	sl, sl, #-1073741803	; 0xc0000015

00001894 <l1447>:
    1894:	e13a0cec 	teq	sl, ip, ror #25

00001898 <l1448>:
    1898:	e075480a 	rsbs	r4, r5, sl, lsl #16

0000189c <l1449>:
    189c:	e18a006f 	orr	r0, sl, pc, rrx

000018a0 <l1450>:
    18a0:	90ca3f4a 	sbcls	r3, sl, sl, asr #30

000018a4 <l1451>:
    18a4:	e1a0806c 	rrx	r8, ip

000018a8 <l1452>:
    18a8:	e02bc94a 	eor	ip, fp, sl, asr #18

000018ac <l1453>:
    18ac:	e0676a12 	rsb	r6, r7, r2, lsl sl

000018b0 <l1454>:
    18b0:	7244b519 	subvc	fp, r4, #104857600	; 0x6400000

000018b4 <l1455>:
    18b4:	0a000007 	beq	18d8 <l1464>

000018b8 <l1456>:
    18b8:	e2801004 	add	r1, r0, #4

000018bc <l1457>:
    18bc:	722c946e 	eorvc	r9, ip, #1845493760	; 0x6e000000

000018c0 <l1458>:
    18c0:	d3370fcd 	teqle	r7, #820	; 0x334

000018c4 <l1459>:
    18c4:	118c1aef 	orrne	r1, ip, pc, ror #21

000018c8 <l1460>:
    18c8:	e1f0862a 	mvns	r8, sl, lsr #12

000018cc <l1461>:
    18cc:	e16faf14 	clz	sl, r4

000018d0 <l1462>:
    18d0:	e001000c 	and	r0, r1, ip

000018d4 <l1463>:
    18d4:	ea000000 	b	18dc <l1465>

000018d8 <l1464>:
    18d8:	eafffff7 	b	18bc <l1457>

000018dc <l1465>:
    18dc:	32d46137 	sbcscc	r6, r4, #-1073741811	; 0xc000000d

000018e0 <l1466>:
    18e0:	e2df5bfe 	sbcs	r5, pc, #260096	; 0x3f800

000018e4 <l1467>:
    18e4:	00e1a002 	rsceq	sl, r1, r2

000018e8 <l1468>:
    18e8:	e48d403c 	str	r4, [sp], #60	; 0x3c

000018ec <l1469>:
    18ec:	9a000003 	bls	1900 <l1474>

000018f0 <l1470>:
    18f0:	e280102d 	add	r1, r0, #45	; 0x2d

000018f4 <l1471>:
    18f4:	e0506b41 	subs	r6, r0, r1, asr #22

000018f8 <l1472>:
    18f8:	e1cac006 	bic	ip, sl, r6

000018fc <l1473>:
    18fc:	ea000000 	b	1904 <l1475>

00001900 <l1474>:
    1900:	eafffffb 	b	18f4 <l1471>

00001904 <l1475>:
    1904:	b1320008 	teqlt	r2, r8

00001908 <l1476>:
    1908:	e1340003 	teq	r4, r3

0000190c <l1477>:
    190c:	c1939005 	orrsgt	r9, r3, r5

00001910 <l1478>:
    1910:	ca000003 	bgt	1924 <l1483>

00001914 <l1479>:
    1914:	e280105b 	add	r1, r0, #91	; 0x5b

00001918 <l1480>:
    1918:	c0f0e003 	rscsgt	lr, r0, r3

0000191c <l1481>:
    191c:	e04e73ef 	sub	r7, lr, pc, ror #7

00001920 <l1482>:
    1920:	ea000000 	b	1928 <l1484>

00001924 <l1483>:
    1924:	eafffffb 	b	1918 <l1480>

00001928 <l1484>:
    1928:	7095e002 	addsvc	lr, r5, r2

0000192c <l1485>:
    192c:	20936317 	addscs	r6, r3, r7, lsl r3

00001930 <l1486>:
    1930:	e0a02658 	adc	r2, r0, r8, asr r6

00001934 <l1487>:
    1934:	e09a4c7c 	adds	r4, sl, ip, ror ip

00001938 <l1488>:
    1938:	e18aa173 	orr	sl, sl, r3, ror r1

0000193c <l1489>:
    193c:	e06c26e7 	rsb	r2, ip, r7, ror #13

00001940 <l1490>:
    1940:	52e7c595 	rscpl	ip, r7, #624951296	; 0x25400000

00001944 <l1491>:
    1944:	3a000008 	bcc	196c <l1501>

00001948 <l1492>:
    1948:	e05f8001 	subs	r8, pc, r1

0000194c <l1493>:
    194c:	b15f0007 	cmplt	pc, r7

00001950 <l1494>:
    1950:	e063b139 	rsb	fp, r3, r9, lsr r1

00001954 <l1495>:
    1954:	a1d243a5 	bicsge	r4, r2, r5, lsr #7

00001958 <l1496>:
    1958:	00515009 	subseq	r5, r1, r9

0000195c <l1497>:
    195c:	7372047a 	cmnvc	r2, #2046820352	; 0x7a000000

00001960 <l1498>:
    1960:	b044aa51 	sublt	sl, r4, r1, asr sl

00001964 <l1499>:
    1964:	e3a00c05 	mov	r0, #1280	; 0x500

00001968 <l1500>:
    1968:	a03608a1 	eorsge	r0, r6, r1, lsr #17

0000196c <l1501>:
    196c:	e035b000 	eors	fp, r5, r0

00001970 <l1502>:
    1970:	5015300a 	andspl	r3, r5, sl

00001974 <l1503>:
    1974:	90509574 	subsls	r9, r0, r4, ror r5

00001978 <l1504>:
    1978:	12cf3991 	sbcne	r3, pc, #2375680	; 0x244000

0000197c <l1505>:
    197c:	aa000003 	bge	1990 <l1510>

00001980 <l1506>:
    1980:	40da8007 	sbcsmi	r8, sl, r7

00001984 <l1507>:
    1984:	e172010c 	cmn	r2, ip, lsl #2

00001988 <l1508>:
    1988:	11c40e33 	bicne	r0, r4, r3, lsr lr

0000198c <l1509>:
    198c:	21a0e871 	rorcs	lr, r1, r8

00001990 <l1510>:
    1990:	00bae787 	adcseq	lr, sl, r7, lsl #15

00001994 <l1511>:
    1994:	a057e00e 	subsge	lr, r7, lr

00001998 <l1512>:
    1998:	e3a0a008 	mov	sl, #8

0000199c <l1513>:
    199c:	e70d000a 	str	r0, [sp, -sl]

000019a0 <l1514>:
    19a0:	e52d2018 	str	r2, [sp, #-24]!

000019a4 <l1515>:
    19a4:	b35c03df 	cmplt	ip, #2080374787	; 0x7c000003

000019a8 <l1516>:
    19a8:	e1540a51 	cmp	r4, r1, asr sl

000019ac <l1517>:
    19ac:	e3550c2a 	cmp	r5, #10752	; 0x2a00

000019b0 <l1518>:
    19b0:	e1110360 	tst	r1, r0, ror #6

000019b4 <l1519>:
    19b4:	ea000004 	b	19cc <l1525>

000019b8 <l1520>:
    19b8:	e2801091 	add	r1, r0, #145	; 0x91

000019bc <l1521>:
    19bc:	90fb500a 	rscsls	r5, fp, sl

000019c0 <l1522>:
    19c0:	a1590004 	cmpge	r9, r4

000019c4 <l1523>:
    19c4:	21d81e61 	bicscs	r1, r8, r1, ror #28

000019c8 <l1524>:
    19c8:	ea000000 	b	19d0 <l1526>

000019cc <l1525>:
    19cc:	eafffffa 	b	19bc <l1521>

000019d0 <l1526>:
    19d0:	821830f4 	andshi	r3, r8, #244	; 0xf4

000019d4 <l1527>:
    19d4:	9a000006 	bls	19f4 <l1535>

000019d8 <l1528>:
    19d8:	80568005 	subshi	r8, r6, r5

000019dc <l1529>:
    19dc:	5170018c 	cmnpl	r0, ip, lsl #3

000019e0 <l1530>:
    19e0:	e0e83c88 	rsc	r3, r8, r8, lsl #25

000019e4 <l1531>:
    19e4:	e0e09004 	rsc	r9, r0, r4

000019e8 <l1532>:
    19e8:	405c7008 	subsmi	r7, ip, r8

000019ec <l1533>:
    19ec:	73f0012d 	mvnsvc	r0, #1073741835	; 0x4000000b

000019f0 <l1534>:
    19f0:	e1b0b703 	lsls	fp, r3, #14

000019f4 <l1535>:
    19f4:	e19ab00b 	orrs	fp, sl, fp

000019f8 <l1536>:
    19f8:	e1160060 	tst	r6, r0, rrx

000019fc <l1537>:
    19fc:	e3f0c8e2 	mvns	ip, #14811136	; 0xe20000

00001a00 <l1538>:
    1a00:	e0b802af 	adcs	r0, r8, pc, lsr #5

00001a04 <l1539>:
    1a04:	e53d7026 	ldr	r7, [sp, #-38]!	; 0x26

00001a08 <l1540>:
    1a08:	2affffff 	bcs	1a0c <l1541>

00001a0c <l1541>:
    1a0c:	e0756e05 	rsbs	r6, r5, r5, lsl #28

00001a10 <l1542>:
    1a10:	7a000002 	bvc	1a20 <l1546>

00001a14 <l1543>:
    1a14:	02b0209e 	adcseq	r2, r0, #158	; 0x9e

00001a18 <l1544>:
    1a18:	706e2003 	rsbvc	r2, lr, r3

00001a1c <l1545>:
    1a1c:	e330017a 	teq	r0, #-2147483618	; 0x8000001e

00001a20 <l1546>:
    1a20:	e2933736 	adds	r3, r3, #14155776	; 0xd80000

00001a24 <l1547>:
    1a24:	e0989776 	adds	r9, r8, r6, ror r7

00001a28 <l1548>:
    1a28:	e33c024e 	teq	ip, #-536870908	; 0xe0000004

00001a2c <l1549>:
    1a2c:	e1b0c002 	movs	ip, r2

00001a30 <l1550>:
    1a30:	d19f7006 	orrsle	r7, pc, r6

00001a34 <l1551>:
    1a34:	103aa00e 	eorsne	sl, sl, lr

00001a38 <l1552>:
    1a38:	711a0237 	tstvc	sl, r7, lsr r2

00001a3c <l1553>:
    1a3c:	e2be259a 	adcs	r2, lr, #645922816	; 0x26800000

00001a40 <l1554>:
    1a40:	004a9000 	subeq	r9, sl, r0

00001a44 <l1555>:
    1a44:	11972347 	orrsne	r2, r7, r7, asr #6

00001a48 <l1556>:
    1a48:	415e0e26 	cmpmi	lr, r6, lsr #28

00001a4c <l1557>:
    1a4c:	71540438 	cmpvc	r4, r8, lsr r4

00001a50 <l1558>:
    1a50:	81897005 	orrhi	r7, r9, r5

00001a54 <l1559>:
    1a54:	e036c06e 	eors	ip, r6, lr, rrx

00001a58 <l1560>:
    1a58:	e16fcf16 	clz	ip, r6

00001a5c <l1561>:
    1a5c:	7371065d 	cmnvc	r1, #97517568	; 0x5d00000

00001a60 <l1562>:
    1a60:	e3f036fe 	mvns	r3, #266338304	; 0xfe00000

00001a64 <l1563>:
    1a64:	e16f2f19 	clz	r2, r9

00001a68 <l1564>:
    1a68:	c0e51009 	rscgt	r1, r5, r9

00001a6c <l1565>:
    1a6c:	e59da047 	ldr	sl, [sp, #71]	; 0x47

00001a70 <l1566>:
    1a70:	e3a00e2f 	mov	r0, #752	; 0x2f0

00001a74 <l1567>:
    1a74:	e1160a78 	tst	r6, r8, ror sl

00001a78 <l1568>:
    1a78:	5a000003 	bpl	1a8c <l1573>

00001a7c <l1569>:
    1a7c:	e2801091 	add	r1, r0, #145	; 0x91

00001a80 <l1570>:
    1a80:	e05b1008 	subs	r1, fp, r8

00001a84 <l1571>:
    1a84:	a0bb2007 	adcsge	r2, fp, r7

00001a88 <l1572>:
    1a88:	ea000000 	b	1a90 <l1574>

00001a8c <l1573>:
    1a8c:	eafffffb 	b	1a80 <l1570>

00001a90 <l1574>:
    1a90:	e16f7f11 	clz	r7, r1

00001a94 <l1575>:
    1a94:	537202c6 	cmnpl	r2, #1610612748	; 0x6000000c

00001a98 <l1576>:
    1a98:	ea000005 	b	1ab4 <l1583>

00001a9c <l1577>:
    1a9c:	e28010ec 	add	r1, r0, #236	; 0xec

00001aa0 <l1578>:
    1aa0:	e16f6f19 	clz	r6, r9

00001aa4 <l1579>:
    1aa4:	e0a08009 	adc	r8, r0, r9

00001aa8 <l1580>:
    1aa8:	e03e3006 	eors	r3, lr, r6

00001aac <l1581>:
    1aac:	615c0004 	cmpvs	ip, r4

00001ab0 <l1582>:
    1ab0:	ea000000 	b	1ab8 <l1584>

00001ab4 <l1583>:
    1ab4:	eafffff9 	b	1aa0 <l1578>

00001ab8 <l1584>:
    1ab8:	21e0300b 	mvncs	r3, fp

00001abc <l1585>:
    1abc:	e3d86a92 	bics	r6, r8, #598016	; 0x92000

00001ac0 <l1586>:
    1ac0:	e15703c4 	cmp	r7, r4, asr #7

00001ac4 <l1587>:
    1ac4:	e051bbc3 	subs	fp, r1, r3, asr #23

00001ac8 <l1588>:
    1ac8:	00a88e7a 	adceq	r8, r8, sl, ror lr

00001acc <l1589>:
    1acc:	e1120007 	tst	r2, r7

00001ad0 <l1590>:
    1ad0:	e5bd000d 	ldr	r0, [sp, #13]!

00001ad4 <l1591>:
    1ad4:	e1c0cbca 	bic	ip, r0, sl, asr #23

00001ad8 <l1592>:
    1ad8:	e0a8b61e 	adc	fp, r8, lr, lsl r6

00001adc <l1593>:
    1adc:	e2a32a06 	adc	r2, r3, #24576	; 0x6000

00001ae0 <l1594>:
    1ae0:	ea000001 	b	1aec <l1597>

00001ae4 <l1595>:
    1ae4:	e276acc7 	rsbs	sl, r6, #50944	; 0xc700

00001ae8 <l1596>:
    1ae8:	61780009 	cmnvs	r8, r9

00001aec <l1597>:
    1aec:	616f7f13 	clzvs	r7, r3

00001af0 <l1598>:
    1af0:	ea000002 	b	1b00 <l1602>

00001af4 <l1599>:
    1af4:	e33e0825 	teq	lr, #2424832	; 0x250000

00001af8 <l1600>:
    1af8:	e1e09fa6 	mvn	r9, r6, lsr #31

00001afc <l1601>:
    1afc:	43e0b19e 	mvnmi	fp, #-2147483609	; 0x80000027

00001b00 <l1602>:
    1b00:	c17e0885 	cmngt	lr, r5, lsl #17

00001b04 <l1603>:
    1b04:	e3a00022 	mov	r0, #34	; 0x22

00001b08 <l1604>:
    1b08:	e69d6000 	ldr	r6, [sp], r0

00001b0c <l1605>:
    1b0c:	a3e00ce6 	mvnge	r0, #58880	; 0xe600

00001b10 <l1606>:
    1b10:	3061407b 	rsbcc	r4, r1, fp, ror r0

00001b14 <l1607>:
    1b14:	e18f4067 	orr	r4, pc, r7, rrx

00001b18 <l1608>:
    1b18:	10535508 	subsne	r5, r3, r8, lsl #10

00001b1c <l1609>:
    1b1c:	ea000004 	b	1b34 <l1615>

00001b20 <l1610>:
    1b20:	e2801054 	add	r1, r0, #84	; 0x54

00001b24 <l1611>:
    1b24:	e02eaee6 	eor	sl, lr, r6, ror #29

00001b28 <l1612>:
    1b28:	e1520e34 	cmp	r2, r4, lsr lr

00001b2c <l1613>:
    1b2c:	a1899003 	orrge	r9, r9, r3

00001b30 <l1614>:
    1b30:	ea000000 	b	1b38 <l1616>

00001b34 <l1615>:
    1b34:	eafffffa 	b	1b24 <l1611>

00001b38 <l1616>:
    1b38:	51360c53 	teqpl	r6, r3, asr ip

00001b3c <l1617>:
    1b3c:	806bc84b 	rsbhi	ip, fp, fp, asr #16

00001b40 <l1618>:
    1b40:	e006920e 	and	r9, r6, lr, lsl #4

00001b44 <l1619>:
    1b44:	e52d402d 	str	r4, [sp, #-45]!	; 0x2d

00001b48 <l1620>:
    1b48:	d0461aca 	suble	r1, r6, sl, asr #21

00001b4c <l1621>:
    1b4c:	017b000b 	cmneq	fp, fp

00001b50 <l1622>:
    1b50:	62f15332 	rscsvs	r5, r1, #-939524096	; 0xc8000000

00001b54 <l1623>:
    1b54:	e0fe29ce 	rscs	r2, lr, lr, asr #19

00001b58 <l1624>:
    1b58:	40b70069 	adcsmi	r0, r7, r9, rrx

00001b5c <l1625>:
    1b5c:	716faf1b 	clzvc	sl, fp

00001b60 <l1626>:
    1b60:	c39fc8a7 	orrsgt	ip, pc, #10944512	; 0xa70000

00001b64 <l1627>:
    1b64:	e2a86767 	adc	r6, r8, #27000832	; 0x19c0000

00001b68 <l1628>:
    1b68:	e1560baa 	cmp	r6, sl, lsr #23

00001b6c <l1629>:
    1b6c:	e02b254b 	eor	r2, fp, fp, asr #10

00001b70 <l1630>:
    1b70:	6a000005 	bvs	1b8c <l1637>

00001b74 <l1631>:
    1b74:	b088e008 	addlt	lr, r8, r8

00001b78 <l1632>:
    1b78:	90172bac 	andsls	r2, r7, ip, lsr #23

00001b7c <l1633>:
    1b7c:	82266e3d 	eorhi	r6, r6, #976	; 0x3d0

00001b80 <l1634>:
    1b80:	a068553c 	rsbge	r5, r8, ip, lsr r5

00001b84 <l1635>:
    1b84:	e1f0c386 	mvns	ip, r6, lsl #7

00001b88 <l1636>:
    1b88:	90d70000 	sbcsls	r0, r7, r0

00001b8c <l1637>:
    1b8c:	e0489008 	sub	r9, r8, r8

00001b90 <l1638>:
    1b90:	01100009 	tsteq	r0, r9

00001b94 <l1639>:
    1b94:	713c0e6f 	teqvc	ip, pc, ror #28

00001b98 <l1640>:
    1b98:	ca000003 	bgt	1bac <l1645>

00001b9c <l1641>:
    1b9c:	e3e08faf 	mvn	r8, #700	; 0x2bc

00001ba0 <l1642>:
    1ba0:	e13e0638 	teq	lr, r8, lsr r6

00001ba4 <l1643>:
    1ba4:	c0523067 	subsgt	r3, r2, r7, rrx

00001ba8 <l1644>:
    1ba8:	c21aa070 	andsgt	sl, sl, #112	; 0x70

00001bac <l1645>:
    1bac:	119aa008 	orrsne	sl, sl, r8

00001bb0 <l1646>:
    1bb0:	e248cd7d 	sub	ip, r8, #8000	; 0x1f40

00001bb4 <l1647>:
    1bb4:	a27729f6 	rsbsge	r2, r7, #4030464	; 0x3d8000

00001bb8 <l1648>:
    1bb8:	e19a3063 	orrs	r3, sl, r3, rrx

00001bbc <l1649>:
    1bbc:	4053a002 	subsmi	sl, r3, r2

00001bc0 <l1650>:
    1bc0:	6a000003 	bvs	1bd4 <l1655>

00001bc4 <l1651>:
    1bc4:	e2801091 	add	r1, r0, #145	; 0x91

00001bc8 <l1652>:
    1bc8:	e1a0600e 	mov	r6, lr

00001bcc <l1653>:
    1bcc:	e1730007 	cmn	r3, r7

00001bd0 <l1654>:
    1bd0:	ea000000 	b	1bd8 <l1656>

00001bd4 <l1655>:
    1bd4:	eafffffb 	b	1bc8 <l1652>

00001bd8 <l1656>:
    1bd8:	908f01c3 	addls	r0, pc, r3, asr #3

00001bdc <l1657>:
    1bdc:	e17f0000 	cmn	pc, r0

00001be0 <l1658>:
    1be0:	e0d92654 	sbcs	r2, r9, r4, asr r6

00001be4 <l1659>:
    1be4:	aa000003 	bge	1bf8 <l1664>

00001be8 <l1660>:
    1be8:	e28010ac 	add	r1, r0, #172	; 0xac

00001bec <l1661>:
    1bec:	e2f895d7 	rscs	r9, r8, #901775360	; 0x35c00000

00001bf0 <l1662>:
    1bf0:	d16f5f19 	clzle	r5, r9

00001bf4 <l1663>:
    1bf4:	ea000000 	b	1bfc <l1665>

00001bf8 <l1664>:
    1bf8:	eafffffb 	b	1bec <l1661>

00001bfc <l1665>:
    1bfc:	305b400c 	subscc	r4, fp, ip

00001c00 <l1666>:
    1c00:	e48db034 	str	fp, [sp], #52	; 0x34

00001c04 <l1667>:
    1c04:	e216c3f9 	ands	ip, r6, #-469762045	; 0xe4000003

00001c08 <l1668>:
    1c08:	e18e121e 	orr	r1, lr, lr, lsl r2

00001c0c <l1669>:
    1c0c:	3196797c 	orrscc	r7, r6, ip, ror r9

00001c10 <l1670>:
    1c10:	a31c0c01 	tstge	ip, #256	; 0x100

00001c14 <l1671>:
    1c14:	01f0a3ac 	mvnseq	sl, ip, lsr #7

00001c18 <l1672>:
    1c18:	51da0067 	bicspl	r0, sl, r7, rrx

00001c1c <l1673>:
    1c1c:	41f05873 	mvnsmi	r5, r3, ror r8

00001c20 <l1674>:
    1c20:	61c0045b 	bicvs	r0, r0, fp, asr r4

00001c24 <l1675>:
    1c24:	e07e1005 	rsbs	r1, lr, r5

00001c28 <l1676>:
    1c28:	116f2f1e 	clzne	r2, lr

00001c2c <l1677>:
    1c2c:	ba000000 	blt	1c34 <l1679>

00001c30 <l1678>:
    1c30:	316f4f1e 	clzcc	r4, lr

00001c34 <l1679>:
    1c34:	e3973432 	orrs	r3, r7, #838860800	; 0x32000000

00001c38 <l1680>:
    1c38:	d390630a 	orrsle	r6, r0, #671088640	; 0x28000000

00001c3c <l1681>:
    1c3c:	aa000006 	bge	1c5c <l1689>

00001c40 <l1682>:
    1c40:	31cea51a 	biccc	sl, lr, sl, lsl r5

00001c44 <l1683>:
    1c44:	602a9a1a 	eorvs	r9, sl, sl, lsl sl

00001c48 <l1684>:
    1c48:	e1e0efa6 	mvn	lr, r6, lsr #31

00001c4c <l1685>:
    1c4c:	81b07075 	rorshi	r7, r5, r0

00001c50 <l1686>:
    1c50:	c16faf13 	clzgt	sl, r3

00001c54 <l1687>:
    1c54:	e1390a60 	teq	r9, r0, ror #20

00001c58 <l1688>:
    1c58:	a2426e61 	subge	r6, r2, #1552	; 0x610

00001c5c <l1689>:
    1c5c:	e1b0e00e 	movs	lr, lr

00001c60 <l1690>:
    1c60:	a11b006e 	tstge	fp, lr, rrx

00001c64 <l1691>:
    1c64:	e1a0cb50 	asr	ip, r0, fp

00001c68 <l1692>:
    1c68:	407287ef 	rsbsmi	r8, r2, pc, ror #15

00001c6c <l1693>:
    1c6c:	b0561f63 	subslt	r1, r6, r3, ror #30

00001c70 <l1694>:
    1c70:	33c59d8d 	biccc	r9, r5, #9024	; 0x2340

00001c74 <l1695>:
    1c74:	816f9f11 	clzhi	r9, r1

00001c78 <l1696>:
    1c78:	e018c270 	ands	ip, r8, r0, ror r2

00001c7c <l1697>:
    1c7c:	02953c5d 	addseq	r3, r5, #23808	; 0x5d00

00001c80 <l1698>:
    1c80:	41db5836 	bicsmi	r5, fp, r6, lsr r8

00001c84 <l1699>:
    1c84:	40954737 	addsmi	r4, r5, r7, lsr r7

00001c88 <l1700>:
    1c88:	60774008 	rsbsvs	r4, r7, r8

00001c8c <l1701>:
    1c8c:	e0be2002 	adcs	r2, lr, r2

00001c90 <l1702>:
    1c90:	e0100000 	ands	r0, r0, r0

00001c94 <l1703>:
    1c94:	41f01e3a 	mvnsmi	r1, sl, lsr lr

00001c98 <l1704>:
    1c98:	e39c8b19 	orrs	r8, ip, #25600	; 0x6400

00001c9c <l1705>:
    1c9c:	ea000002 	b	1cac <l1709>

00001ca0 <l1706>:
    1ca0:	e2801099 	add	r1, r0, #153	; 0x99

00001ca4 <l1707>:
    1ca4:	139abe26 	orrsne	fp, sl, #608	; 0x260

00001ca8 <l1708>:
    1ca8:	ea000000 	b	1cb0 <l1710>

00001cac <l1709>:
    1cac:	eafffffc 	b	1ca4 <l1707>

00001cb0 <l1710>:
    1cb0:	e59de013 	ldr	lr, [sp, #19]

00001cb4 <l1711>:
    1cb4:	61872004 	orrvs	r2, r7, r4

00001cb8 <l1712>:
    1cb8:	e0991be9 	adds	r1, r9, r9, ror #23

00001cbc <l1713>:
    1cbc:	30205004 	eorcc	r5, r0, r4

00001cc0 <l1714>:
    1cc0:	33e0732e 	mvncc	r7, #-1207959552	; 0xb8000000

00001cc4 <l1715>:
    1cc4:	e011a060 	ands	sl, r1, r0, rrx

00001cc8 <l1716>:
    1cc8:	10590a23 	subsne	r0, r9, r3, lsr #20

00001ccc <l1717>:
    1ccc:	31170e71 	tstcc	r7, r1, ror lr

00001cd0 <l1718>:
    1cd0:	e1a04005 	mov	r4, r5

00001cd4 <l1719>:
    1cd4:	e5ad000c 	str	r0, [sp, #12]!

00001cd8 <l1720>:
    1cd8:	d1e09bc0 	mvnle	r9, r0, asr #23

00001cdc <l1721>:
    1cdc:	211b0009 	tstcs	fp, r9

00001ce0 <l1722>:
    1ce0:	e152000f 	cmp	r2, pc

00001ce4 <l1723>:
    1ce4:	e16f6f16 	clz	r6, r6

00001ce8 <l1724>:
    1ce8:	e40d103c 	str	r1, [sp], #-60	; 0x3c

00001cec <l1725>:
    1cec:	e02222ea 	eor	r2, r2, sl, ror #5

00001cf0 <l1726>:
    1cf0:	eaffffff 	b	1cf4 <l1727>

00001cf4 <l1727>:
    1cf4:	e1a02008 	mov	r2, r8

00001cf8 <l1728>:
    1cf8:	da000004 	ble	1d10 <l1734>

00001cfc <l1729>:
    1cfc:	e150036f 	cmp	r0, pc, ror #6

00001d00 <l1730>:
    1d00:	a256c010 	subsge	ip, r6, #16

00001d04 <l1731>:
    1d04:	827fab19 	rsbshi	sl, pc, #25600	; 0x6400

00001d08 <l1732>:
    1d08:	e1c09d06 	bic	r9, r0, r6, lsl #26

00001d0c <l1733>:
    1d0c:	e03cc97a 	eors	ip, ip, sl, ror r9

00001d10 <l1734>:
    1d10:	00032a18 	andeq	r2, r3, r8, lsl sl

00001d14 <l1735>:
    1d14:	3a000003 	bcc	1d28 <l1740>

00001d18 <l1736>:
    1d18:	e2801064 	add	r1, r0, #100	; 0x64

00001d1c <l1737>:
    1d1c:	e3b039a9 	movs	r3, #2768896	; 0x2a4000

00001d20 <l1738>:
    1d20:	e05cc00a 	subs	ip, ip, sl

00001d24 <l1739>:
    1d24:	ea000000 	b	1d2c <l1741>

00001d28 <l1740>:
    1d28:	eafffffb 	b	1d1c <l1737>

00001d2c <l1741>:
    1d2c:	71560060 	cmpvc	r6, r0, rrx

00001d30 <l1742>:
    1d30:	e33e0809 	teq	lr, #589824	; 0x90000

00001d34 <l1743>:
    1d34:	e39450dc 	orrs	r5, r4, #220	; 0xdc

00001d38 <l1744>:
    1d38:	e31f04ef 	tst	pc, #-285212672	; 0xef000000

00001d3c <l1745>:
    1d3c:	31d54f69 	bicscc	r4, r5, r9, ror #30

00001d40 <l1746>:
    1d40:	90ef9062 	rscls	r9, pc, r2, rrx

00001d44 <l1747>:
    1d44:	e152000c 	cmp	r2, ip

00001d48 <l1748>:
    1d48:	e2a54707 	adc	r4, r5, #1835008	; 0x1c0000

00001d4c <l1749>:
    1d4c:	a0435235 	subge	r5, r3, r5, lsr r2

00001d50 <l1750>:
    1d50:	c15b0005 	cmpgt	fp, r5

00001d54 <l1751>:
    1d54:	5186efac 	orrpl	lr, r6, ip, lsr #31

00001d58 <l1752>:
    1d58:	e3500a2d 	cmp	r0, #184320	; 0x2d000

00001d5c <l1753>:
    1d5c:	11c46066 	bicne	r6, r4, r6, rrx

00001d60 <l1754>:
    1d60:	e04ca009 	sub	sl, ip, r9

00001d64 <l1755>:
    1d64:	aa000004 	bge	1d7c <l1761>

00001d68 <l1756>:
    1d68:	508cb705 	addpl	fp, ip, r5, lsl #14

00001d6c <l1757>:
    1d6c:	0055ee67 	subseq	lr, r5, r7, ror #28

00001d70 <l1758>:
    1d70:	e13b0004 	teq	fp, r4

00001d74 <l1759>:
    1d74:	40106364 	andsmi	r6, r0, r4, ror #6

00001d78 <l1760>:
    1d78:	e183b18e 	orr	fp, r3, lr, lsl #3

00001d7c <l1761>:
    1d7c:	715e02ce 	cmpvc	lr, lr, asr #5

00001d80 <l1762>:
    1d80:	b26bab15 	rsblt	sl, fp, #21504	; 0x5400

00001d84 <l1763>:
    1d84:	40bf9d2b 	adcsmi	r9, pc, fp, lsr #26

00001d88 <l1764>:
    1d88:	e15f0de3 	cmp	pc, r3, ror #27

00001d8c <l1765>:
    1d8c:	b398ac32 	orrslt	sl, r8, #12800	; 0x3200

00001d90 <l1766>:
    1d90:	30896f4a 	addcc	r6, r9, sl, asr #30

00001d94 <l1767>:
    1d94:	2a000001 	bcs	1da0 <l1770>

00001d98 <l1768>:
    1d98:	e33b07c6 	teq	fp, #51904512	; 0x3180000

00001d9c <l1769>:
    1d9c:	70e522e2 	rscvc	r2, r5, r2, ror #5

00001da0 <l1770>:
    1da0:	e1a01cef 	ror	r1, pc, #25

00001da4 <l1771>:
    1da4:	0a000007 	beq	1dc8 <l1780>

00001da8 <l1772>:
    1da8:	80386f22 	eorshi	r6, r8, r2, lsr #30

00001dac <l1773>:
    1dac:	537a0149 	cmnpl	sl, #1073741842	; 0x40000012

00001db0 <l1774>:
    1db0:	e2567e4d 	subs	r7, r6, #1232	; 0x4d0

00001db4 <l1775>:
    1db4:	e0d50061 	sbcs	r0, r5, r1, rrx

00001db8 <l1776>:
    1db8:	5090500b 	addspl	r5, r0, fp

00001dbc <l1777>:
    1dbc:	105b500b 	subsne	r5, fp, fp

00001dc0 <l1778>:
    1dc0:	e2c834de 	sbc	r3, r8, #-570425344	; 0xde000000

00001dc4 <l1779>:
    1dc4:	e1f0000a 	mvns	r0, sl

00001dc8 <l1780>:
    1dc8:	015a0003 	cmpeq	sl, r3

00001dcc <l1781>:
    1dcc:	10584003 	subsne	r4, r8, r3

00001dd0 <l1782>:
    1dd0:	e0649008 	rsb	r9, r4, r8

00001dd4 <l1783>:
    1dd4:	703195c0 	eorsvc	r9, r1, r0, asr #11

00001dd8 <l1784>:
    1dd8:	e1780178 	cmn	r8, r8, ror r1

00001ddc <l1785>:
    1ddc:	e3a0b040 	mov	fp, #64	; 0x40

00001de0 <l1786>:
    1de0:	e7bdc00b 	ldr	ip, [sp, fp]!

00001de4 <l1787>:
    1de4:	e09f186e 	adds	r1, pc, lr, ror #16

00001de8 <l1788>:
    1de8:	0a000004 	beq	1e00 <l1794>

00001dec <l1789>:
    1dec:	e280106f 	add	r1, r0, #111	; 0x6f

00001df0 <l1790>:
    1df0:	e0861e14 	add	r1, r6, r4, lsl lr

00001df4 <l1791>:
    1df4:	e0284859 	eor	r4, r8, r9, asr r8

00001df8 <l1792>:
    1df8:	b17e0006 	cmnlt	lr, r6

00001dfc <l1793>:
    1dfc:	ea000000 	b	1e04 <l1795>

00001e00 <l1794>:
    1e00:	eafffffa 	b	1df0 <l1790>

00001e04 <l1795>:
    1e04:	e17c0063 	cmn	ip, r3, rrx

00001e08 <l1796>:
    1e08:	e3c00733 	bic	r0, r0, #13369344	; 0xcc0000

00001e0c <l1797>:
    1e0c:	e3170169 	tst	r7, #1073741850	; 0x4000001a

00001e10 <l1798>:
    1e10:	e0386007 	eors	r6, r8, r7

00001e14 <l1799>:
    1e14:	21b02066 	rrxscs	r2, r6

00001e18 <l1800>:
    1e18:	0a000004 	beq	1e30 <l1806>

00001e1c <l1801>:
    1e1c:	e07f906f 	rsbs	r9, pc, pc, rrx

00001e20 <l1802>:
    1e20:	61530000 	cmpvs	r3, r0

00001e24 <l1803>:
    1e24:	e0ace00e 	adc	lr, ip, lr

00001e28 <l1804>:
    1e28:	31c73063 	biccc	r3, r7, r3, rrx

00001e2c <l1805>:
    1e2c:	e0c65008 	sbc	r5, r6, r8

00001e30 <l1806>:
    1e30:	70b1606b 	adcsvc	r6, r1, fp, rrx

00001e34 <l1807>:
    1e34:	e0db3067 	sbcs	r3, fp, r7, rrx

00001e38 <l1808>:
    1e38:	5062235e 	rsbpl	r2, r2, lr, asr r3

00001e3c <l1809>:
    1e3c:	a16fcf10 	clzge	ip, r0

00001e40 <l1810>:
    1e40:	e1180acc 	tst	r8, ip, asr #21

00001e44 <l1811>:
    1e44:	e00f806c 	and	r8, pc, ip, rrx

00001e48 <l1812>:
    1e48:	23d3985b 	bicscs	r9, r3, #5963776	; 0x5b0000

00001e4c <l1813>:
    1e4c:	aa000005 	bge	1e68 <l1820>

00001e50 <l1814>:
    1e50:	81380665 	teqhi	r8, r5, ror #12

00001e54 <l1815>:
    1e54:	d065ed8f 	rsble	lr, r5, pc, lsl #27

00001e58 <l1816>:
    1e58:	e0232006 	eor	r2, r3, r6

00001e5c <l1817>:
    1e5c:	60364004 	eorsvs	r4, r6, r4

00001e60 <l1818>:
    1e60:	03130566 	tsteq	r3, #427819008	; 0x19800000

00001e64 <l1819>:
    1e64:	e3b07a0b 	movs	r7, #45056	; 0xb000

00001e68 <l1820>:
    1e68:	e045c74a 	sub	ip, r5, sl, asr #14

00001e6c <l1821>:
    1e6c:	71740065 	cmnvc	r4, r5, rrx

00001e70 <l1822>:
    1e70:	e0464fc8 	sub	r4, r6, r8, asr #31

00001e74 <l1823>:
    1e74:	e3510c76 	cmp	r1, #30208	; 0x7600

00001e78 <l1824>:
    1e78:	e08b64c9 	add	r6, fp, r9, asr #9

00001e7c <l1825>:
    1e7c:	93913786 	orrsls	r3, r1, #35127296	; 0x2180000

00001e80 <l1826>:
    1e80:	01dba002 	bicseq	sl, fp, r2

00001e84 <l1827>:
    1e84:	2a000006 	bcs	1ea4 <l1835>

00001e88 <l1828>:
    1e88:	e280108e 	add	r1, r0, #142	; 0x8e

00001e8c <l1829>:
    1e8c:	916f5f12 	clzls	r5, r2

00001e90 <l1830>:
    1e90:	d209afe1 	andle	sl, r9, #900	; 0x384

00001e94 <l1831>:
    1e94:	133a0496 	teqne	sl, #-1778384896	; 0x96000000

00001e98 <l1832>:
    1e98:	e0a42757 	adc	r2, r4, r7, asr r7

00001e9c <l1833>:
    1e9c:	e1e0a001 	mvn	sl, r1

00001ea0 <l1834>:
    1ea0:	ea000000 	b	1ea8 <l1836>

00001ea4 <l1835>:
    1ea4:	eafffff8 	b	1e8c <l1829>

00001ea8 <l1836>:
    1ea8:	537b065f 	cmnpl	fp, #99614720	; 0x5f00000

00001eac <l1837>:
    1eac:	ea000007 	b	1ed0 <l1846>

00001eb0 <l1838>:
    1eb0:	e2801066 	add	r1, r0, #102	; 0x66

00001eb4 <l1839>:
    1eb4:	e233e8cf 	eors	lr, r3, #13565952	; 0xcf0000

00001eb8 <l1840>:
    1eb8:	e07f8383 	rsbs	r8, pc, r3, lsl #7

00001ebc <l1841>:
    1ebc:	e018be4c 	ands	fp, r8, ip, asr #28

00001ec0 <l1842>:
    1ec0:	c1868006 	orrgt	r8, r6, r6

00001ec4 <l1843>:
    1ec4:	e1560760 	cmp	r6, r0, ror #14

00001ec8 <l1844>:
    1ec8:	935c0913 	cmpls	ip, #311296	; 0x4c000

00001ecc <l1845>:
    1ecc:	ea000000 	b	1ed4 <l1847>

00001ed0 <l1846>:
    1ed0:	eafffff7 	b	1eb4 <l1839>

00001ed4 <l1847>:
    1ed4:	e187e00f 	orr	lr, r7, pc

00001ed8 <l1848>:
    1ed8:	e3a0e008 	mov	lr, #8

00001edc <l1849>:
    1edc:	e71d700e 	ldr	r7, [sp, -lr]

00001ee0 <l1850>:
    1ee0:	e398809a 	orrs	r8, r8, #154	; 0x9a

00001ee4 <l1851>:
    1ee4:	ea000006 	b	1f04 <l1859>

00001ee8 <l1852>:
    1ee8:	e28010c3 	add	r1, r0, #195	; 0xc3

00001eec <l1853>:
    1eec:	d19e4453 	orrsle	r4, lr, r3, asr r4

00001ef0 <l1854>:
    1ef0:	033a03c5 	teqeq	sl, #335544323	; 0x14000003

00001ef4 <l1855>:
    1ef4:	e38fa21f 	orr	sl, pc, #-268435455	; 0xf0000001

00001ef8 <l1856>:
    1ef8:	e196b376 	orrs	fp, r6, r6, ror r3

00001efc <l1857>:
    1efc:	e077272b 	rsbs	r2, r7, fp, lsr #14

00001f00 <l1858>:
    1f00:	ea000000 	b	1f08 <l1860>

00001f04 <l1859>:
    1f04:	eafffff8 	b	1eec <l1853>

00001f08 <l1860>:
    1f08:	40cf7000 	sbcmi	r7, pc, r0

00001f0c <l1861>:
    1f0c:	c0ea6066 	rscgt	r6, sl, r6, rrx

00001f10 <l1862>:
    1f10:	e2154421 	ands	r4, r5, #553648128	; 0x21000000

00001f14 <l1863>:
    1f14:	7a000003 	bvc	1f28 <l1868>

00001f18 <l1864>:
    1f18:	e0f8a673 	rscs	sl, r8, r3, ror r6

00001f1c <l1865>:
    1f1c:	e3700c7f 	cmn	r0, #32512	; 0x7f00

00001f20 <l1866>:
    1f20:	80e6206e 	rschi	r2, r6, lr, rrx

00001f24 <l1867>:
    1f24:	c3f03929 	mvnsgt	r3, #671744	; 0xa4000

00001f28 <l1868>:
    1f28:	225ec505 	subscs	ip, lr, #20971520	; 0x1400000

00001f2c <l1869>:
    1f2c:	20476934 	subcs	r6, r7, r4, lsr r9

00001f30 <l1870>:
    1f30:	e28022be 	add	r2, r0, #-536870901	; 0xe000000b

00001f34 <l1871>:
    1f34:	e3a04028 	mov	r4, #40	; 0x28

00001f38 <l1872>:
    1f38:	970d0004 	strls	r0, [sp, -r4]

00001f3c <l1873>:
    1f3c:	e49dc002 	ldr	ip, [sp], #2

00001f40 <l1874>:
    1f40:	e17a000e 	cmn	sl, lr

00001f44 <l1875>:
    1f44:	e1360009 	teq	r6, r9

00001f48 <l1876>:
    1f48:	e178011e 	cmn	r8, lr, lsl r1

00001f4c <l1877>:
    1f4c:	31350faf 	teqcc	r5, pc, lsr #31

00001f50 <l1878>:
    1f50:	ea000004 	b	1f68 <l1884>

00001f54 <l1879>:
    1f54:	e28010dd 	add	r1, r0, #221	; 0xdd

00001f58 <l1880>:
    1f58:	20458008 	subcs	r8, r5, r8

00001f5c <l1881>:
    1f5c:	d16fcf11 	clzle	ip, r1

00001f60 <l1882>:
    1f60:	e16fcf15 	clz	ip, r5

00001f64 <l1883>:
    1f64:	ea000000 	b	1f6c <l1885>

00001f68 <l1884>:
    1f68:	eafffffa 	b	1f58 <l1880>

00001f6c <l1885>:
    1f6c:	ea000002 	b	1f7c <l1889>

00001f70 <l1886>:
    1f70:	e280103b 	add	r1, r0, #59	; 0x3b

00001f74 <l1887>:
    1f74:	21b02a53 	asrscs	r2, r3, sl

00001f78 <l1888>:
    1f78:	ea000000 	b	1f80 <l1890>

00001f7c <l1889>:
    1f7c:	eafffffc 	b	1f74 <l1887>

00001f80 <l1890>:
    1f80:	901a606b 	andsls	r6, sl, fp, rrx

00001f84 <l1891>:
    1f84:	c0414b7a 	subgt	r4, r1, sl, ror fp

00001f88 <l1892>:
    1f88:	b1809034 	orrlt	r9, r0, r4, lsr r0

00001f8c <l1893>:
    1f8c:	70079007 	andvc	r9, r7, r7

00001f90 <l1894>:
    1f90:	d0b0b000 	adcsle	fp, r0, r0

00001f94 <l1895>:
    1f94:	9194c615 	orrsls	ip, r4, r5, lsl r6

00001f98 <l1896>:
    1f98:	a0e951e5 	rscge	r5, r9, r5, ror #3

00001f9c <l1897>:
    1f9c:	82a7023b 	adchi	r0, r7, #-1342177277	; 0xb0000003

00001fa0 <l1898>:
    1fa0:	e17e0e35 	cmn	lr, r5, lsr lr

00001fa4 <l1899>:
    1fa4:	e0d9e066 	sbcs	lr, r9, r6, rrx

00001fa8 <l1900>:
    1fa8:	51b00002 	movspl	r0, r2

00001fac <l1901>:
    1fac:	300a101e 	andcc	r1, sl, lr, lsl r0

00001fb0 <l1902>:
    1fb0:	e0c7c16f 	sbc	ip, r7, pc, ror #2

00001fb4 <l1903>:
    1fb4:	e2d26e27 	sbcs	r6, r2, #624	; 0x270

00001fb8 <l1904>:
    1fb8:	d0d61066 	sbcsle	r1, r6, r6, rrx

00001fbc <l1905>:
    1fbc:	e1a061a2 	lsr	r6, r2, #3

00001fc0 <l1906>:
    1fc0:	d01a6001 	andsle	r6, sl, r1

00001fc4 <l1907>:
    1fc4:	01f0e713 	mvnseq	lr, r3, lsl r7

00001fc8 <l1908>:
    1fc8:	033c080f 	teqeq	ip, #983040	; 0xf0000

00001fcc <l1909>:
    1fcc:	e3a0e042 	mov	lr, #66	; 0x42

00001fd0 <l1910>:
    1fd0:	e60d800e 	str	r8, [sp], -lr

00001fd4 <l1911>:
    1fd4:	e0a2b00c 	adc	fp, r2, ip

00001fd8 <l1912>:
    1fd8:	e16f8f17 	clz	r8, r7

00001fdc <l1913>:
    1fdc:	e1a02007 	mov	r2, r7

00001fe0 <l1914>:
    1fe0:	e1350061 	teq	r5, r1, rrx

00001fe4 <l1915>:
    1fe4:	806c166a 	rsbhi	r1, ip, sl, ror #12

00001fe8 <l1916>:
    1fe8:	719f9003 	orrsvc	r9, pc, r3

00001fec <l1917>:
    1fec:	e0ee100c 	rsc	r1, lr, ip

00001ff0 <l1918>:
    1ff0:	539c8fdb 	orrspl	r8, ip, #876	; 0x36c

00001ff4 <l1919>:
    1ff4:	e3a03038 	mov	r3, #56	; 0x38

00001ff8 <l1920>:
    1ff8:	e7ad1003 	str	r1, [sp, r3]!

00001ffc <l1921>:
    1ffc:	91580820 	cmpls	r8, r0, lsr #16

00002000 <l1922>:
    2000:	b196c007 	orrslt	ip, r6, r7

00002004 <l1923>:
    2004:	aa000006 	bge	2024 <l1931>

00002008 <l1924>:
    2008:	e2801003 	add	r1, r0, #3

0000200c <l1925>:
    200c:	e1934009 	orrs	r4, r3, r9

00002010 <l1926>:
    2010:	216f2f1e 	clzcs	r2, lr

00002014 <l1927>:
    2014:	816f2f1e 	clzhi	r2, lr

00002018 <l1928>:
    2018:	b3e0514b 	mvnlt	r5, #-1073741806	; 0xc0000012

0000201c <l1929>:
    201c:	b1550638 	cmplt	r5, r8, lsr r6

00002020 <l1930>:
    2020:	ea000000 	b	2028 <l1932>

00002024 <l1931>:
    2024:	eafffff8 	b	200c <l1925>

00002028 <l1932>:
    2028:	8a000004 	bhi	2040 <l1938>

0000202c <l1933>:
    202c:	e2801054 	add	r1, r0, #84	; 0x54

00002030 <l1934>:
    2030:	41340007 	teqmi	r4, r7

00002034 <l1935>:
    2034:	008628a1 	addeq	r2, r6, r1, lsr #17

00002038 <l1936>:
    2038:	e1e02000 	mvn	r2, r0

0000203c <l1937>:
    203c:	ea000000 	b	2044 <l1939>

00002040 <l1938>:
    2040:	eafffffa 	b	2030 <l1934>

00002044 <l1939>:
    2044:	00d146a2 	sbcseq	r4, r1, r2, lsr #13

00002048 <l1940>:
    2048:	21a04f06 	lslcs	r4, r6, #30

0000204c <l1941>:
    204c:	a2d4c605 	sbcsge	ip, r4, #5242880	; 0x500000

00002050 <l1942>:
    2050:	01540673 	cmpeq	r4, r3, ror r6

00002054 <l1943>:
    2054:	e1a06069 	rrx	r6, r9

00002058 <l1944>:
    2058:	e1ca900e 	bic	r9, sl, lr

0000205c <l1945>:
    205c:	a13c022c 	teqge	ip, ip, lsr #4

00002060 <l1946>:
    2060:	6a000002 	bvs	2070 <l1950>

00002064 <l1947>:
    2064:	11760c7e 	cmnne	r6, lr, ror ip

00002068 <l1948>:
    2068:	40556008 	subsmi	r6, r5, r8

0000206c <l1949>:
    206c:	01770e70 	cmneq	r7, r0, ror lr

00002070 <l1950>:
    2070:	a3f03004 	mvnsge	r3, #4

00002074 <l1951>:
    2074:	e3a0c03c 	mov	ip, #60	; 0x3c

00002078 <l1952>:
    2078:	e70d100c 	str	r1, [sp, -ip]

0000207c <l1953>:
    207c:	e3330f7a 	teq	r3, #488	; 0x1e8

00002080 <l1954>:
    2080:	5a000005 	bpl	209c <l1961>

00002084 <l1955>:
    2084:	e2801028 	add	r1, r0, #40	; 0x28

00002088 <l1956>:
    2088:	2276279b 	rsbscs	r2, r6, #40632320	; 0x26c0000

0000208c <l1957>:
    208c:	e13b006a 	teq	fp, sl, rrx

00002090 <l1958>:
    2090:	e3c9b6f7 	bic	fp, r9, #258998272	; 0xf700000

00002094 <l1959>:
    2094:	e0898378 	add	r8, r9, r8, ror r3

00002098 <l1960>:
    2098:	ea000000 	b	20a0 <l1962>

0000209c <l1961>:
    209c:	eafffff9 	b	2088 <l1956>

000020a0 <l1962>:
    20a0:	8184a25b 	orrhi	sl, r4, fp, asr r2

000020a4 <l1963>:
    20a4:	7a000006 	bvc	20c4 <l1971>

000020a8 <l1964>:
    20a8:	e280108e 	add	r1, r0, #142	; 0x8e

000020ac <l1965>:
    20ac:	e16fef14 	clz	lr, r4

000020b0 <l1966>:
    20b0:	e0ae6000 	adc	r6, lr, r0

000020b4 <l1967>:
    20b4:	33d43207 	bicscc	r3, r4, #1879048192	; 0x70000000

000020b8 <l1968>:
    20b8:	e057a845 	subs	sl, r7, r5, asr #16

000020bc <l1969>:
    20bc:	b05ac002 	subslt	ip, sl, r2

000020c0 <l1970>:
    20c0:	ea000000 	b	20c8 <l1972>

000020c4 <l1971>:
    20c4:	eafffff8 	b	20ac <l1965>

000020c8 <l1972>:
    20c8:	e05e2f68 	subs	r2, lr, r8, ror #30

000020cc <l1973>:
    20cc:	206f000f 	rsbcs	r0, pc, pc

000020d0 <l1974>:
    20d0:	b057000e 	subslt	r0, r7, lr

000020d4 <l1975>:
    20d4:	80864232 	addhi	r4, r6, r2, lsr r2

000020d8 <l1976>:
    20d8:	e3a0a02f 	mov	sl, #47	; 0x2f

000020dc <l1977>:
    20dc:	e61d300a 	ldr	r3, [sp], -sl

000020e0 <l1978>:
    20e0:	40c46a16 	sbcmi	r6, r4, r6, lsl sl

000020e4 <l1979>:
    20e4:	e02ba060 	eor	sl, fp, r0, rrx

000020e8 <l1980>:
    20e8:	20294b75 	eorcs	r4, r9, r5, ror fp

000020ec <l1981>:
    20ec:	405a7c5b 	subsmi	r7, sl, fp, asr ip

000020f0 <l1982>:
    20f0:	b00b8431 	andlt	r8, fp, r1, lsr r4

000020f4 <l1983>:
    20f4:	e3a01119 	mov	r1, #1073741830	; 0x40000006

000020f8 <l1984>:
    20f8:	33530726 	cmpcc	r3, #9961472	; 0x980000

000020fc <l1985>:
    20fc:	a1e03732 	mvnge	r3, r2, lsr r7

00002100 <l1986>:
    2100:	ea000004 	b	2118 <l1992>

00002104 <l1987>:
    2104:	e28010d1 	add	r1, r0, #209	; 0xd1

00002108 <l1988>:
    2108:	41c17003 	bicmi	r7, r1, r3

0000210c <l1989>:
    210c:	107b4dc3 	rsbsne	r4, fp, r3, asr #27

00002110 <l1990>:
    2110:	e09ce755 	adds	lr, ip, r5, asr r7

00002114 <l1991>:
    2114:	ea000000 	b	211c <l1993>

00002118 <l1992>:
    2118:	eafffffa 	b	2108 <l1988>

0000211c <l1993>:
    211c:	113a006a 	teqne	sl, sl, rrx

00002120 <l1994>:
    2120:	5a000008 	bpl	2148 <l2004>

00002124 <l1995>:
    2124:	602b0062 	eorvs	r0, fp, r2, rrx

00002128 <l1996>:
    2128:	e1b09000 	movs	r9, r0

0000212c <l1997>:
    212c:	52044c45 	andpl	r4, r4, #17664	; 0x4500

00002130 <l1998>:
    2130:	e21fc034 	ands	ip, pc, #52	; 0x34

00002134 <l1999>:
    2134:	a35e0556 	cmpge	lr, #360710144	; 0x15800000

00002138 <l2000>:
    2138:	a049e001 	subge	lr, r9, r1

0000213c <l2001>:
    213c:	418e3007 	orrmi	r3, lr, r7

00002140 <l2002>:
    2140:	41e0b3c2 	mvnmi	fp, r2, asr #7

00002144 <l2003>:
    2144:	207e600a 	rsbscs	r6, lr, sl

00002148 <l2004>:
    2148:	40459005 	submi	r9, r5, r5

0000214c <l2005>:
    214c:	e3a02031 	mov	r2, #49	; 0x31

00002150 <l2006>:
    2150:	e69d7002 	ldr	r7, [sp], r2

00002154 <l2007>:
    2154:	e375021a 	cmn	r5, #-1610612735	; 0xa0000001

00002158 <l2008>:
    2158:	411e0472 	tstmi	lr, r2, ror r4

0000215c <l2009>:
    215c:	e04e5830 	sub	r5, lr, r0, lsr r8

00002160 <l2010>:
    2160:	10a4c577 	adcne	ip, r4, r7, ror r5

00002164 <l2011>:
    2164:	41700066 	cmnmi	r0, r6, rrx

00002168 <l2012>:
    2168:	e110045b 	tst	r0, fp, asr r4

0000216c <l2013>:
    216c:	e06cb009 	rsb	fp, ip, r9

00002170 <l2014>:
    2170:	e18a8008 	orr	r8, sl, r8

00002174 <l2015>:
    2174:	e03b1006 	eors	r1, fp, r6

00002178 <l2016>:
    2178:	e16fcf11 	clz	ip, r1

0000217c <l2017>:
    217c:	e0e7c834 	rsc	ip, r7, r4, lsr r8

00002180 <l2018>:
    2180:	e2258e36 	eor	r8, r5, #864	; 0x360

00002184 <l2019>:
    2184:	e1150005 	tst	r5, r5

00002188 <l2020>:
    2188:	e04e29af 	sub	r2, lr, pc, lsr #19

0000218c <l2021>:
    218c:	b17f006a 	cmnlt	pc, sl, rrx

00002190 <l2022>:
    2190:	e1a07069 	rrx	r7, r9

00002194 <l2023>:
    2194:	41340754 	teqmi	r4, r4, asr r7

00002198 <l2024>:
    2198:	83a0a5e6 	movhi	sl, #964689920	; 0x39800000

0000219c <l2025>:
    219c:	e0065aa7 	and	r5, r6, r7, lsr #21

000021a0 <l2026>:
    21a0:	5031ce84 	eorspl	ip, r1, r4, lsl #29

000021a4 <l2027>:
    21a4:	015004e3 	cmpeq	r0, r3, ror #9

000021a8 <l2028>:
    21a8:	709f1004 	addsvc	r1, pc, r4

000021ac <l2029>:
    21ac:	e260398b 	rsb	r3, r0, #2277376	; 0x22c000

000021b0 <l2030>:
    21b0:	ea000003 	b	21c4 <l2035>

000021b4 <l2031>:
    21b4:	405b9a60 	subsmi	r9, fp, r0, ror #20

000021b8 <l2032>:
    21b8:	0244804f 	subeq	r8, r4, #79	; 0x4f

000021bc <l2033>:
    21bc:	e0807a6f 	add	r7, r0, pc, ror #20

000021c0 <l2034>:
    21c0:	60c9b001 	sbcvs	fp, r9, r1

000021c4 <l2035>:
    21c4:	615b0061 	cmpvs	fp, r1, rrx

000021c8 <l2036>:
    21c8:	e24f9109 	sub	r9, pc, #1073741826	; 0x40000002

000021cc <l2037>:
    21cc:	e195221a 	orrs	r2, r5, sl, lsl r2

000021d0 <l2038>:
    21d0:	80097061 	andhi	r7, r9, r1, rrx

000021d4 <l2039>:
    21d4:	d02fc146 	eorle	ip, pc, r6, asr #2

000021d8 <l2040>:
    21d8:	0a000003 	beq	21ec <l2045>

000021dc <l2041>:
    21dc:	e2801066 	add	r1, r0, #102	; 0x66

000021e0 <l2042>:
    21e0:	b13b071b 	teqlt	fp, fp, lsl r7

000021e4 <l2043>:
    21e4:	d007e005 	andle	lr, r7, r5

000021e8 <l2044>:
    21e8:	ea000000 	b	21f0 <l2046>

000021ec <l2045>:
    21ec:	eafffffb 	b	21e0 <l2042>

000021f0 <l2046>:
    21f0:	e52da01e 	str	sl, [sp, #-30]!

000021f4 <l2047>:
    21f4:	12efc8a3 	rscne	ip, pc, #10682368	; 0xa30000

000021f8 <l2048>:
    21f8:	e0db4616 	sbcs	r4, fp, r6, lsl r6

000021fc <l2049>:
    21fc:	b1b0c636 	lsrslt	ip, r6, r6

00002200 <l2050>:
    2200:	b0163d49 	andslt	r3, r6, r9, asr #26

00002204 <l2051>:
    2204:	e2713080 	rsbs	r3, r1, #128	; 0x80

00002208 <l2052>:
    2208:	128b3cda 	addne	r3, fp, #55808	; 0xda00

0000220c <l2053>:
    220c:	e1510ac2 	cmp	r1, r2, asr #21

00002210 <l2054>:
    2210:	62c2574e 	sbcvs	r5, r2, #20447232	; 0x1380000

00002214 <l2055>:
    2214:	ea000003 	b	2228 <l2060>

00002218 <l2056>:
    2218:	e16f6f1a 	clz	r6, sl

0000221c <l2057>:
    221c:	300165e3 	andcc	r6, r1, r3, ror #11

00002220 <l2058>:
    2220:	731e001a 	tstvc	lr, #26

00002224 <l2059>:
    2224:	e1b04001 	movs	r4, r1

00002228 <l2060>:
    2228:	70192920 	andsvc	r2, r9, r0, lsr #18

0000222c <l2061>:
    222c:	3a000003 	bcc	2240 <l2066>

00002230 <l2062>:
    2230:	e04720c1 	sub	r2, r7, r1, asr #1

00002234 <l2063>:
    2234:	e0789b46 	rsbs	r9, r8, r6, asr #22

00002238 <l2064>:
    2238:	928f1716 	addls	r1, pc, #5767168	; 0x580000

0000223c <l2065>:
    223c:	e068c408 	rsb	ip, r8, r8, lsl #8

00002240 <l2066>:
    2240:	e06ce27e 	rsb	lr, ip, lr, ror r2

00002244 <l2067>:
    2244:	e3a05014 	mov	r5, #20

00002248 <l2068>:
    2248:	e72d7005 	str	r7, [sp, -r5]!

0000224c <l2069>:
    224c:	61700830 	cmnvs	r0, r0, lsr r8

00002250 <l2070>:
    2250:	2012930e 	andscs	r9, r2, lr, lsl #6

00002254 <l2071>:
    2254:	9affffff 	bls	2258 <l2072>

00002258 <l2072>:
    2258:	41b0a272 	rorsmi	sl, r2, r2

0000225c <l2073>:
    225c:	e2bcb306 	adcs	fp, ip, #402653184	; 0x18000000

00002260 <l2074>:
    2260:	0a000002 	beq	2270 <l2078>

00002264 <l2075>:
    2264:	e13b0006 	teq	fp, r6

00002268 <l2076>:
    2268:	a0983733 	addsge	r3, r8, r3, lsr r7

0000226c <l2077>:
    226c:	e17e0646 	cmn	lr, r6, asr #12

00002270 <l2078>:
    2270:	e2e1abf3 	rsc	sl, r1, #248832	; 0x3cc00

00002274 <l2079>:
    2274:	e218500c 	ands	r5, r8, #12

00002278 <l2080>:
    2278:	ea000004 	b	2290 <l2086>

0000227c <l2081>:
    227c:	e2801008 	add	r1, r0, #8

00002280 <l2082>:
    2280:	637b033d 	cmnvs	fp, #-201326592	; 0xf4000000

00002284 <l2083>:
    2284:	e0378008 	eors	r8, r7, r8

00002288 <l2084>:
    2288:	e2d73663 	sbcs	r3, r7, #103809024	; 0x6300000

0000228c <l2085>:
    228c:	ea000000 	b	2294 <l2087>

00002290 <l2086>:
    2290:	eafffffa 	b	2280 <l2082>

00002294 <l2087>:
    2294:	e25ace49 	subs	ip, sl, #1168	; 0x490

00002298 <l2088>:
    2298:	e3100649 	tst	r0, #76546048	; 0x4900000

0000229c <l2089>:
    229c:	da000004 	ble	22b4 <l2095>

000022a0 <l2090>:
    22a0:	e2801018 	add	r1, r0, #24

000022a4 <l2091>:
    22a4:	a23ecaa2 	eorsge	ip, lr, #663552	; 0xa2000

000022a8 <l2092>:
    22a8:	e3e0cb43 	mvn	ip, #68608	; 0x10c00

000022ac <l2093>:
    22ac:	60957272 	addsvs	r7, r5, r2, ror r2

000022b0 <l2094>:
    22b0:	ea000000 	b	22b8 <l2096>

000022b4 <l2095>:
    22b4:	eafffffa 	b	22a4 <l2091>

000022b8 <l2096>:
    22b8:	e19ebd08 	orrs	fp, lr, r8, lsl #26

000022bc <l2097>:
    22bc:	e1b0bac8 	asrs	fp, r8, #21

000022c0 <l2098>:
    22c0:	23520551 	cmpcs	r2, #339738624	; 0x14400000

000022c4 <l2099>:
    22c4:	11590060 	cmpne	r9, r0, rrx

000022c8 <l2100>:
    22c8:	21dac4c8 	bicscs	ip, sl, r8, asr #9

000022cc <l2101>:
    22cc:	e11a0004 	tst	sl, r4

000022d0 <l2102>:
    22d0:	e17a0b15 	cmn	sl, r5, lsl fp

000022d4 <l2103>:
    22d4:	e1801b50 	orr	r1, r0, r0, asr fp

000022d8 <l2104>:
    22d8:	e0dea000 	sbcs	sl, lr, r0

000022dc <l2105>:
    22dc:	e35a08ab 	cmp	sl, #11206656	; 0xab0000

000022e0 <l2106>:
    22e0:	e3a0e01c 	mov	lr, #28

000022e4 <l2107>:
    22e4:	e78dc00e 	str	ip, [sp, lr]

000022e8 <l2108>:
    22e8:	e17c0b61 	cmn	ip, r1, ror #22

000022ec <l2109>:
    22ec:	1a000006 	bne	230c <l2117>

000022f0 <l2110>:
    22f0:	e28010e4 	add	r1, r0, #228	; 0xe4

000022f4 <l2111>:
    22f4:	50b3afc9 	adcspl	sl, r3, r9, asr #31

000022f8 <l2112>:
    22f8:	e1180000 	tst	r8, r0

000022fc <l2113>:
    22fc:	90b76118 	adcsls	r6, r7, r8, lsl r1

00002300 <l2114>:
    2300:	20e40083 	rsccs	r0, r4, r3, lsl #1

00002304 <l2115>:
    2304:	335b05c6 	cmpcc	fp, #830472192	; 0x31800000

00002308 <l2116>:
    2308:	ea000000 	b	2310 <l2118>

0000230c <l2117>:
    230c:	eafffff8 	b	22f4 <l2111>

00002310 <l2118>:
    2310:	b1150eae 	tstlt	r5, lr, lsr #29

00002314 <l2119>:
    2314:	01120002 	tsteq	r2, r2

00002318 <l2120>:
    2318:	33f06ffb 	mvnscc	r6, #1004	; 0x3ec

0000231c <l2121>:
    231c:	323bebc1 	eorscc	lr, fp, #197632	; 0x30400

00002320 <l2122>:
    2320:	e52d2004 	push	{r2}		; (str r2, [sp, #-4]!)

00002324 <l2123>:
    2324:	e0244008 	eor	r4, r4, r8

00002328 <l2124>:
    2328:	e0cf96c0 	sbc	r9, pc, r0, asr #13

0000232c <l2125>:
    232c:	c175011c 	cmngt	r5, ip, lsl r1

00002330 <l2126>:
    2330:	2a000002 	bcs	2340 <l2130>

00002334 <l2127>:
    2334:	81887935 	orrhi	r7, r8, r5, lsr r9

00002338 <l2128>:
    2338:	631b0715 	tstvs	fp, #5505024	; 0x540000

0000233c <l2129>:
    233c:	d2f66ba7 	rscsle	r6, r6, #171008	; 0x29c00

00002340 <l2130>:
    2340:	9048c060 	subls	ip, r8, r0, rrx

00002344 <l2131>:
    2344:	e059a008 	subs	sl, r9, r8

00002348 <l2132>:
    2348:	e03068ec 	eors	r6, r0, ip, ror #17

0000234c <l2133>:
    234c:	30daa3e3 	sbcscc	sl, sl, r3, ror #7

00002350 <l2134>:
    2350:	4a000001 	bmi	235c <l2137>

00002354 <l2135>:
    2354:	e16faf16 	clz	sl, r6

00002358 <l2136>:
    2358:	e39981de 	orrs	r8, r9, #-2147483593	; 0x80000037

0000235c <l2137>:
    235c:	e0596513 	subs	r6, r9, r3, lsl r5

00002360 <l2138>:
    2360:	e0a6a066 	adc	sl, r6, r6, rrx

00002364 <l2139>:
    2364:	e22721cf 	eor	r2, r7, #-1073741773	; 0xc0000033

00002368 <l2140>:
    2368:	900e6e16 	andls	r6, lr, r6, lsl lr

0000236c <l2141>:
    236c:	e1821062 	orr	r1, r2, r2, rrx

00002370 <l2142>:
    2370:	da000002 	ble	2380 <l2146>

00002374 <l2143>:
    2374:	21925b16 	orrscs	r5, r2, r6, lsl fp

00002378 <l2144>:
    2378:	e16f9f18 	clz	r9, r8

0000237c <l2145>:
    237c:	e1d1e00a 	bics	lr, r1, sl

00002380 <l2146>:
    2380:	e0403063 	sub	r3, r0, r3, rrx

00002384 <l2147>:
    2384:	e59d7033 	ldr	r7, [sp, #51]	; 0x33

00002388 <l2148>:
    2388:	1a000005 	bne	23a4 <l2155>

0000238c <l2149>:
    238c:	e2801031 	add	r1, r0, #49	; 0x31

00002390 <l2150>:
    2390:	21a02003 	movcs	r2, r3

00002394 <l2151>:
    2394:	008a31e5 	addeq	r3, sl, r5, ror #3

00002398 <l2152>:
    2398:	505b6006 	subspl	r6, fp, r6

0000239c <l2153>:
    239c:	22648ce2 	rsbcs	r8, r4, #57856	; 0xe200

000023a0 <l2154>:
    23a0:	ea000000 	b	23a8 <l2156>

000023a4 <l2155>:
    23a4:	eafffff9 	b	2390 <l2150>

000023a8 <l2156>:
    23a8:	e3c1e673 	bic	lr, r1, #120586240	; 0x7300000

000023ac <l2157>:
    23ac:	535103cd 	cmppl	r1, #872415235	; 0x34000003

000023b0 <l2158>:
    23b0:	8a000005 	bhi	23cc <l2165>

000023b4 <l2159>:
    23b4:	718ae003 	orrvc	lr, sl, r3

000023b8 <l2160>:
    23b8:	40da8b7c 	sbcsmi	r8, sl, ip, ror fp

000023bc <l2161>:
    23bc:	11dee062 	bicsne	lr, lr, r2, rrx

000023c0 <l2162>:
    23c0:	1298ce96 	addsne	ip, r8, #2400	; 0x960

000023c4 <l2163>:
    23c4:	b15e046e 	cmplt	lr, lr, ror #8

000023c8 <l2164>:
    23c8:	e2567b23 	subs	r7, r6, #35840	; 0x8c00

000023cc <l2165>:
    23cc:	e392c816 	orrs	ip, r2, #1441792	; 0x160000

000023d0 <l2166>:
    23d0:	a0c45067 	sbcge	r5, r4, r7, rrx

000023d4 <l2167>:
    23d4:	a04f332f 	subge	r3, pc, pc, lsr #6

000023d8 <l2168>:
    23d8:	70b794a0 	adcsvc	r9, r7, r0, lsr #9

000023dc <l2169>:
    23dc:	803b706e 	eorshi	r7, fp, lr, rrx

000023e0 <l2170>:
    23e0:	8317012e 	tsthi	r7, #-2147483637	; 0x8000000b

000023e4 <l2171>:
    23e4:	d0b1700f 	adcsle	r7, r1, pc

000023e8 <l2172>:
    23e8:	c16f5f13 	clzgt	r5, r3

000023ec <l2173>:
    23ec:	ea000005 	b	2408 <l2180>

000023f0 <l2174>:
    23f0:	e280101a 	add	r1, r0, #26

000023f4 <l2175>:
    23f4:	91f0000b 	mvnsls	r0, fp

000023f8 <l2176>:
    23f8:	e1e01c3a 	mvn	r1, sl, lsr ip

000023fc <l2177>:
    23fc:	e16f3f1e 	clz	r3, lr

00002400 <l2178>:
    2400:	21a08067 	rrxcs	r8, r7

00002404 <l2179>:
    2404:	ea000000 	b	240c <l2181>

00002408 <l2180>:
    2408:	eafffff9 	b	23f4 <l2175>

0000240c <l2181>:
    240c:	4056b06a 	subsmi	fp, r6, sl, rrx

00002410 <l2182>:
    2410:	11926060 	orrsne	r6, r2, r0, rrx

00002414 <l2183>:
    2414:	e11f000b 	tst	pc, fp

00002418 <l2184>:
    2418:	705a2001 	subsvc	r2, sl, r1

0000241c <l2185>:
    241c:	e0580003 	subs	r0, r8, r3

00002420 <l2186>:
    2420:	a2474766 	subge	r4, r7, #26738688	; 0x1980000

00002424 <l2187>:
    2424:	21e02066 	mvncs	r2, r6, rrx

00002428 <l2188>:
    2428:	e1f01360 	mvns	r1, r0, ror #6

0000242c <l2189>:
    242c:	51310061 	teqpl	r1, r1, rrx

00002430 <l2190>:
    2430:	9a000002 	bls	2440 <l2194>

00002434 <l2191>:
    2434:	e2801007 	add	r1, r0, #7

00002438 <l2192>:
    2438:	e0b8e006 	adcs	lr, r8, r6

0000243c <l2193>:
    243c:	ea000000 	b	2444 <l2195>

00002440 <l2194>:
    2440:	eafffffc 	b	2438 <l2192>

00002444 <l2195>:
    2444:	30593153 	subscc	r3, r9, r3, asr r1

00002448 <l2196>:
    2448:	e1a098e4 	ror	r9, r4, #17

0000244c <l2197>:
    244c:	239a3739 	orrscs	r3, sl, #14942208	; 0xe40000

00002450 <l2198>:
    2450:	939cc837 	orrsls	ip, ip, #3604480	; 0x370000

00002454 <l2199>:
    2454:	ea000001 	b	2460 <l2202>

00002458 <l2200>:
    2458:	7048cda0 	subvc	ip, r8, r0, lsr #27

0000245c <l2201>:
    245c:	a0b16000 	adcsge	r6, r1, r0

00002460 <l2202>:
    2460:	e093475a 	adds	r4, r3, sl, asr r7

00002464 <l2203>:
    2464:	b1e0c74b 	mvnlt	ip, fp, asr #14

00002468 <l2204>:
    2468:	206f5007 	rsbcs	r5, pc, r7

0000246c <l2205>:
    246c:	e1190849 	tst	r9, r9, asr #16

00002470 <l2206>:
    2470:	00530612 	subseq	r0, r3, r2, lsl r6

00002474 <l2207>:
    2474:	d228492d 	eorle	r4, r8, #737280	; 0xb4000

00002478 <l2208>:
    2478:	10ee1075 	rscne	r1, lr, r5, ror r0

0000247c <l2209>:
    247c:	7a000007 	bvc	24a0 <l2218>

00002480 <l2210>:
    2480:	a0f6e008 	rscsge	lr, r6, r8

00002484 <l2211>:
    2484:	b3f05631 	mvnslt	r5, #51380224	; 0x3100000

00002488 <l2212>:
    2488:	517f0001 	cmnpl	pc, r1

0000248c <l2213>:
    248c:	e089400e 	add	r4, r9, lr

00002490 <l2214>:
    2490:	e192900e 	orrs	r9, r2, lr

00002494 <l2215>:
    2494:	21b07e1b 	lslscs	r7, fp, lr

00002498 <l2216>:
    2498:	e2e7b73f 	rsc	fp, r7, #16515072	; 0xfc0000

0000249c <l2217>:
    249c:	90ef700c 	rscls	r7, pc, ip

000024a0 <l2218>:
    24a0:	711006af 	tstvc	r0, pc, lsr #13

000024a4 <l2219>:
    24a4:	916f3f16 	clzls	r3, r6

000024a8 <l2220>:
    24a8:	d2d9b147 	sbcsle	fp, r9, #-1073741807	; 0xc0000011

000024ac <l2221>:
    24ac:	ea000006 	b	24cc <l2229>

000024b0 <l2222>:
    24b0:	62296eb1 	eorvs	r6, r9, #2832	; 0xb10

000024b4 <l2223>:
    24b4:	a1c45006 	bicge	r5, r4, r6

000024b8 <l2224>:
    24b8:	e041e00a 	sub	lr, r1, sl

000024bc <l2225>:
    24bc:	037b01bb 	cmneq	fp, #-1073741778	; 0xc000002e

000024c0 <l2226>:
    24c0:	e19c8500 	orrs	r8, ip, r0, lsl #10

000024c4 <l2227>:
    24c4:	4054ba4b 	subsmi	fp, r4, fp, asr #20

000024c8 <l2228>:
    24c8:	e378085b 	cmn	r8, #5963776	; 0x5b0000

000024cc <l2229>:
    24cc:	e08b4007 	add	r4, fp, r7

000024d0 <l2230>:
    24d0:	ba000003 	blt	24e4 <l2235>

000024d4 <l2231>:
    24d4:	e083b001 	add	fp, r3, r1

000024d8 <l2232>:
    24d8:	11330717 	teqne	r3, r7, lsl r7

000024dc <l2233>:
    24dc:	e1f01066 	mvns	r1, r6, rrx

000024e0 <l2234>:
    24e0:	e16f4f14 	clz	r4, r4

000024e4 <l2235>:
    24e4:	e0d9aaef 	sbcs	sl, r9, pc, ror #21

000024e8 <l2236>:
    24e8:	da000000 	ble	24f0 <l2238>

000024ec <l2237>:
    24ec:	813b0e1a 	teqhi	fp, sl, lsl lr

000024f0 <l2238>:
    24f0:	42cf5826 	sbcmi	r5, pc, #2490368	; 0x260000

000024f4 <l2239>:
    24f4:	0200748e 	andeq	r7, r0, #-1912602624	; 0x8e000000

000024f8 <l2240>:
    24f8:	e1170005 	tst	r7, r5

000024fc <l2241>:
    24fc:	725b492f 	subsvc	r4, fp, #770048	; 0xbc000

00002500 <l2242>:
    2500:	e33f02bf 	teq	pc, #-268435445	; 0xf000000b

00002504 <l2243>:
    2504:	3395946b 	orrscc	r9, r5, #1795162112	; 0x6b000000

00002508 <l2244>:
    2508:	0a000007 	beq	252c <l2253>

0000250c <l2245>:
    250c:	e28010e5 	add	r1, r0, #229	; 0xe5

00002510 <l2246>:
    2510:	e16fbf15 	clz	fp, r5

00002514 <l2247>:
    2514:	90549684 	subsls	r9, r4, r4, lsl #13

00002518 <l2248>:
    2518:	515a0b35 	cmppl	sl, r5, lsr fp

0000251c <l2249>:
    251c:	33500c0e 	cmpcc	r0, #3584	; 0xe00

00002520 <l2250>:
    2520:	21e0bde1 	mvncs	fp, r1, ror #27

00002524 <l2251>:
    2524:	116fef15 	clzne	lr, r5

00002528 <l2252>:
    2528:	ea000000 	b	2530 <l2254>

0000252c <l2253>:
    252c:	eafffff7 	b	2510 <l2246>

00002530 <l2254>:
    2530:	b1530daa 	cmplt	r3, sl, lsr #27

00002534 <l2255>:
    2534:	e16f1f12 	clz	r1, r2

00002538 <l2256>:
    2538:	51a0e061 	rrxpl	lr, r1

0000253c <l2257>:
    253c:	816fbf16 	clzhi	fp, r6

00002540 <l2258>:
    2540:	03700d55 	cmneq	r0, #5440	; 0x1540

00002544 <l2259>:
    2544:	3a000007 	bcc	2568 <l2268>

00002548 <l2260>:
    2548:	e28010cf 	add	r1, r0, #207	; 0xcf

0000254c <l2261>:
    254c:	b1e06751 	mvnlt	r6, r1, asr r7

00002550 <l2262>:
    2550:	e2c09d77 	sbc	r9, r0, #7616	; 0x1dc0

00002554 <l2263>:
    2554:	40c96008 	sbcmi	r6, r9, r8

00002558 <l2264>:
    2558:	a0090252 	andge	r0, r9, r2, asr r2

0000255c <l2265>:
    255c:	33d249c3 	bicscc	r4, r2, #3194880	; 0x30c000

00002560 <l2266>:
    2560:	b1500004 	cmplt	r0, r4

00002564 <l2267>:
    2564:	ea000000 	b	256c <l2269>

00002568 <l2268>:
    2568:	eafffff7 	b	254c <l2261>

0000256c <l2269>:
    256c:	624f3101 	subvs	r3, pc, #1073741824	; 0x40000000

00002570 <l2270>:
    2570:	7a000002 	bvc	2580 <l2274>

00002574 <l2271>:
    2574:	e280102f 	add	r1, r0, #47	; 0x2f

00002578 <l2272>:
    2578:	e13202a3 	teq	r2, r3, lsr #5

0000257c <l2273>:
    257c:	ea000000 	b	2584 <l2275>

00002580 <l2274>:
    2580:	eafffffc 	b	2578 <l2272>

00002584 <l2275>:
    2584:	e16faf11 	clz	sl, r1

00002588 <l2276>:
    2588:	e04ca75a 	sub	sl, ip, sl, asr r7

0000258c <l2277>:
    258c:	e3a0e008 	mov	lr, #8

00002590 <l2278>:
    2590:	e68da00e 	str	sl, [sp], lr

00002594 <l2279>:
    2594:	e1a04000 	mov	r4, r0

00002598 <l2280>:
    2598:	e16f5f18 	clz	r5, r8

0000259c <l2281>:
    259c:	aaffffff 	bge	25a0 <l2282>

000025a0 <l2282>:
    25a0:	e041606f 	sub	r6, r1, pc, rrx

000025a4 <l2283>:
    25a4:	e394722b 	orrs	r7, r4, #-1342177278	; 0xb0000002

000025a8 <l2284>:
    25a8:	caffffff 	bgt	25ac <l2285>

000025ac <l2285>:
    25ac:	e3750087 	cmn	r5, #135	; 0x87

000025b0 <l2286>:
    25b0:	e0716b53 	rsbs	r6, r1, r3, asr fp

000025b4 <l2287>:
    25b4:	90064901 	andls	r4, r6, r1, lsl #18

000025b8 <l2288>:
    25b8:	e0126b3a 	ands	r6, r2, sl, lsr fp

000025bc <l2289>:
    25bc:	d1730b7b 	cmnle	r3, fp, ror fp

000025c0 <l2290>:
    25c0:	b15b0007 	cmplt	fp, r7

000025c4 <l2291>:
    25c4:	e23912fe 	eors	r1, r9, #-536870897	; 0xe000000f

000025c8 <l2292>:
    25c8:	5affffff 	bpl	25cc <l2293>

000025cc <l2293>:
    25cc:	e1dc506f 	bics	r5, ip, pc, rrx

000025d0 <l2294>:
    25d0:	81d3600f 	bicshi	r6, r3, pc

000025d4 <l2295>:
    25d4:	c3f08e77 	mvnsgt	r8, #1904	; 0x770

000025d8 <l2296>:
    25d8:	e0054009 	and	r4, r5, r9

000025dc <l2297>:
    25dc:	e1f0406a 	mvns	r4, sl, rrx

000025e0 <l2298>:
    25e0:	50bc820e 	adcspl	r8, ip, lr, lsl #4

000025e4 <l2299>:
    25e4:	10009068 	andne	r9, r0, r8, rrx

000025e8 <l2300>:
    25e8:	258d3030 	strcs	r3, [sp, #48]	; 0x30

000025ec <l2301>:
    25ec:	ea000005 	b	2608 <l2308>

000025f0 <l2302>:
    25f0:	e28010cc 	add	r1, r0, #204	; 0xcc

000025f4 <l2303>:
    25f4:	b38e501c 	orrlt	r5, lr, #28

000025f8 <l2304>:
    25f8:	13110c9a 	tstne	r1, #39424	; 0x9a00

000025fc <l2305>:
    25fc:	03e0cc13 	mvneq	ip, #4864	; 0x1300

00002600 <l2306>:
    2600:	e05509ee 	subs	r0, r5, lr, ror #19

00002604 <l2307>:
    2604:	ea000000 	b	260c <l2309>

00002608 <l2308>:
    2608:	eafffff9 	b	25f4 <l2303>

0000260c <l2309>:
    260c:	4a000008 	bmi	2634 <l2319>

00002610 <l2310>:
    2610:	81d6a064 	bicshi	sl, r6, r4, rrx

00002614 <l2311>:
    2614:	e3140c12 	tst	r4, #4608	; 0x1200

00002618 <l2312>:
    2618:	82823809 	addhi	r3, r2, #589824	; 0x90000

0000261c <l2313>:
    261c:	81530033 	cmphi	r3, r3, lsr r0

00002620 <l2314>:
    2620:	e0250970 	eor	r0, r5, r0, ror r9

00002624 <l2315>:
    2624:	117e0138 	cmnne	lr, r8, lsr r1

00002628 <l2316>:
    2628:	80705056 	rsbshi	r5, r0, r6, asr r0

0000262c <l2317>:
    262c:	937b0c09 	cmnls	fp, #2304	; 0x900

00002630 <l2318>:
    2630:	e0487d43 	sub	r7, r8, r3, asr #26

00002634 <l2319>:
    2634:	92f67301 	rscsls	r7, r6, #67108864	; 0x4000000

00002638 <l2320>:
    2638:	e1f010a8 	mvns	r1, r8, lsr #1

0000263c <l2321>:
    263c:	22a9ade7 	adccs	sl, r9, #14784	; 0x39c0

00002640 <l2322>:
    2640:	82fbea17 	rscshi	lr, fp, #94208	; 0x17000

00002644 <l2323>:
    2644:	92a5e048 	adcls	lr, r5, #72	; 0x48

00002648 <l2324>:
    2648:	13160c86 	tstne	r6, #34304	; 0x8600

0000264c <l2325>:
    264c:	31c3b8e1 	biccc	fp, r3, r1, ror #17

00002650 <l2326>:
    2650:	4081c516 	addmi	ip, r1, r6, lsl r5

00002654 <l2327>:
    2654:	00bf700f 	adcseq	r7, pc, pc

00002658 <l2328>:
    2658:	8284c61f 	addhi	ip, r4, #32505856	; 0x1f00000

0000265c <l2329>:
    265c:	e1a0806e 	rrx	r8, lr

00002660 <l2330>:
    2660:	8151091a 	cmphi	r1, sl, lsl r9

00002664 <l2331>:
    2664:	925e7c2d 	subsls	r7, lr, #11520	; 0x2d00

00002668 <l2332>:
    2668:	e1730006 	cmn	r3, r6

0000266c <l2333>:
    266c:	831207eb 	tsthi	r2, #61603840	; 0x3ac0000

00002670 <l2334>:
    2670:	6059a033 	subsvs	sl, r9, r3, lsr r0

00002674 <l2335>:
    2674:	d15e0a2b 	cmple	lr, fp, lsr #20

00002678 <l2336>:
    2678:	0a000005 	beq	2694 <l2343>

0000267c <l2337>:
    267c:	30156001 	andscc	r6, r5, r1

00002680 <l2338>:
    2680:	c0d3c687 	sbcsgt	ip, r3, r7, lsl #13

00002684 <l2339>:
    2684:	e0471ce5 	sub	r1, r7, r5, ror #25

00002688 <l2340>:
    2688:	521e622b 	andspl	r6, lr, #-1342177278	; 0xb0000002

0000268c <l2341>:
    268c:	11b0800b 	movsne	r8, fp

00002690 <l2342>:
    2690:	e0964038 	adds	r4, r6, r8, lsr r0

00002694 <l2343>:
    2694:	8190ab61 	orrshi	sl, r0, r1, ror #22

00002698 <l2344>:
    2698:	e1590006 	cmp	r9, r6

0000269c <l2345>:
    269c:	e012ac52 	ands	sl, r2, r2, asr ip

000026a0 <l2346>:
    26a0:	ea000004 	b	26b8 <l2352>

000026a4 <l2347>:
    26a4:	e280103c 	add	r1, r0, #60	; 0x3c

000026a8 <l2348>:
    26a8:	e16f7f13 	clz	r7, r3

000026ac <l2349>:
    26ac:	e0c7406a 	sbc	r4, r7, sl, rrx

000026b0 <l2350>:
    26b0:	51180065 	tstpl	r8, r5, rrx

000026b4 <l2351>:
    26b4:	ea000000 	b	26bc <l2353>

000026b8 <l2352>:
    26b8:	eafffffa 	b	26a8 <l2348>

000026bc <l2353>:
    26bc:	e3c46fde 	bic	r6, r4, #888	; 0x378

000026c0 <l2354>:
    26c0:	ea000006 	b	26e0 <l2362>

000026c4 <l2355>:
    26c4:	e28010ea 	add	r1, r0, #234	; 0xea

000026c8 <l2356>:
    26c8:	c052a967 	subsgt	sl, r2, r7, ror #18

000026cc <l2357>:
    26cc:	d11c0067 	tstle	ip, r7, rrx

000026d0 <l2358>:
    26d0:	c22340e9 	eorgt	r4, r3, #233	; 0xe9

000026d4 <l2359>:
    26d4:	e0663002 	rsb	r3, r6, r2

000026d8 <l2360>:
    26d8:	d11a006a 	tstle	sl, sl, rrx

000026dc <l2361>:
    26dc:	ea000000 	b	26e4 <l2363>

000026e0 <l2362>:
    26e0:	eafffff8 	b	26c8 <l2356>

000026e4 <l2363>:
    26e4:	835009aa 	cmphi	r0, #2785280	; 0x2a8000

000026e8 <l2364>:
    26e8:	c390e9a1 	orrsgt	lr, r0, #2637824	; 0x284000

000026ec <l2365>:
    26ec:	13b0b4b5 	movsne	fp, #-1258291200	; 0xb5000000

000026f0 <l2366>:
    26f0:	e2477080 	sub	r7, r7, #128	; 0x80

000026f4 <l2367>:
    26f4:	c15f00c1 	cmpgt	pc, r1, asr #1

000026f8 <l2368>:
    26f8:	e353061a 	cmp	r3, #27262976	; 0x1a00000

000026fc <l2369>:
    26fc:	e0f05002 	rscs	r5, r0, r2

00002700 <l2370>:
    2700:	e3a0c028 	mov	ip, #40	; 0x28

00002704 <l2371>:
    2704:	e69d800c 	ldr	r8, [sp], ip

00002708 <l2372>:
    2708:	ea000006 	b	2728 <l2380>

0000270c <l2373>:
    270c:	e280102d 	add	r1, r0, #45	; 0x2d

00002710 <l2374>:
    2710:	e1160006 	tst	r6, r6

00002714 <l2375>:
    2714:	b0b84caf 	adcslt	r4, r8, pc, lsr #25

00002718 <l2376>:
    2718:	e2573f5b 	subs	r3, r7, #364	; 0x16c

0000271c <l2377>:
    271c:	e0c29007 	sbc	r9, r2, r7

00002720 <l2378>:
    2720:	e02183a6 	eor	r8, r1, r6, lsr #7

00002724 <l2379>:
    2724:	ea000000 	b	272c <l2381>

00002728 <l2380>:
    2728:	eafffff8 	b	2710 <l2374>

0000272c <l2381>:
    272c:	e04ce00a 	sub	lr, ip, sl

00002730 <l2382>:
    2730:	e16fcf1c 	clz	ip, ip

00002734 <l2383>:
    2734:	607cc9e1 	rsbsvs	ip, ip, r1, ror #19

00002738 <l2384>:
    2738:	6a000005 	bvs	2754 <l2391>

0000273c <l2385>:
    273c:	11580065 	cmpne	r8, r5, rrx

00002740 <l2386>:
    2740:	92f38f7e 	rscsls	r8, r3, #504	; 0x1f8

00002744 <l2387>:
    2744:	e2530e63 	subs	r0, r3, #1584	; 0x630

00002748 <l2388>:
    2748:	e119000f 	tst	r9, pc

0000274c <l2389>:
    274c:	309e464c 	addscc	r4, lr, ip, asr #12

00002750 <l2390>:
    2750:	e16fcf1c 	clz	ip, ip

00002754 <l2391>:
    2754:	e1d9e00a 	bics	lr, r9, sl

00002758 <l2392>:
    2758:	42c0505a 	sbcmi	r5, r0, #90	; 0x5a

0000275c <l2393>:
    275c:	004be001 	subeq	lr, fp, r1

00002760 <l2394>:
    2760:	91f06111 	mvnsls	r6, r1, lsl r1

00002764 <l2395>:
    2764:	1a000005 	bne	2780 <l2402>

00002768 <l2396>:
    2768:	e280107b 	add	r1, r0, #123	; 0x7b

0000276c <l2397>:
    276c:	e04bc00a 	sub	ip, fp, sl

00002770 <l2398>:
    2770:	e2663000 	rsb	r3, r6, #0

00002774 <l2399>:
    2774:	e24e5c26 	sub	r5, lr, #9728	; 0x2600

00002778 <l2400>:
    2778:	e16fbf11 	clz	fp, r1

0000277c <l2401>:
    277c:	ea000000 	b	2784 <l2403>

00002780 <l2402>:
    2780:	eafffff9 	b	276c <l2397>

00002784 <l2403>:
    2784:	12338795 	eorsne	r8, r3, #39059456	; 0x2540000

00002788 <l2404>:
    2788:	73b0a6de 	movsvc	sl, #232783872	; 0xde00000

0000278c <l2405>:
    278c:	e0a1306c 	adc	r3, r1, ip, rrx

00002790 <l2406>:
    2790:	c0674065 	rsbgt	r4, r7, r5, rrx

00002794 <l2407>:
    2794:	b1320c8e 	teqlt	r2, lr, lsl #25

00002798 <l2408>:
    2798:	e3a0702f 	mov	r7, #47	; 0x2f

0000279c <l2409>:
    279c:	e73db007 	ldr	fp, [sp, -r7]!

000027a0 <l2410>:
    27a0:	91df6343 	bicsls	r6, pc, r3, asr #6

000027a4 <l2411>:
    27a4:	71820e58 	orrvc	r0, r2, r8, asr lr

000027a8 <l2412>:
    27a8:	a09c0da7 	addsge	r0, ip, r7, lsr #27

000027ac <l2413>:
    27ac:	30d58257 	sbcscc	r8, r5, r7, asr r2

000027b0 <l2414>:
    27b0:	e021a009 	eor	sl, r1, r9

000027b4 <l2415>:
    27b4:	e333030a 	teq	r3, #671088640	; 0x28000000

000027b8 <l2416>:
    27b8:	ea000003 	b	27cc <l2421>

000027bc <l2417>:
    27bc:	e280107f 	add	r1, r0, #127	; 0x7f

000027c0 <l2418>:
    27c0:	00c98004 	sbceq	r8, r9, r4

000027c4 <l2419>:
    27c4:	d0c5a067 	sbcle	sl, r5, r7, rrx

000027c8 <l2420>:
    27c8:	ea000000 	b	27d0 <l2422>

000027cc <l2421>:
    27cc:	eafffffb 	b	27c0 <l2418>

000027d0 <l2422>:
    27d0:	d16fef11 	clzle	lr, r1

000027d4 <l2423>:
    27d4:	51c03c6f 	bicpl	r3, r0, pc, ror #24

000027d8 <l2424>:
    27d8:	e1330002 	teq	r3, r2

000027dc <l2425>:
    27dc:	ea000003 	b	27f0 <l2430>

000027e0 <l2426>:
    27e0:	e28010db 	add	r1, r0, #219	; 0xdb

000027e4 <l2427>:
    27e4:	b185145c 	orrlt	r1, r5, ip, asr r4

000027e8 <l2428>:
    27e8:	10a78257 	adcne	r8, r7, r7, asr r2

000027ec <l2429>:
    27ec:	ea000000 	b	27f4 <l2431>

000027f0 <l2430>:
    27f0:	eafffffb 	b	27e4 <l2427>

000027f4 <l2431>:
    27f4:	60166002 	andsvs	r6, r6, r2

000027f8 <l2432>:
    27f8:	91c99fc1 	bicls	r9, r9, r1, asr #31

000027fc <l2433>:
    27fc:	e1340428 	teq	r4, r8, lsr #8

00002800 <l2434>:
    2800:	e315043a 	tst	r5, #973078528	; 0x3a000000

00002804 <l2435>:
    2804:	e3a06009 	mov	r6, #9

00002808 <l2436>:
    2808:	e72d7006 	str	r7, [sp, -r6]!

0000280c <l2437>:
    280c:	713a0381 	teqvc	sl, r1, lsl #7

00002810 <l2438>:
    2810:	e18fb008 	orr	fp, pc, r8

00002814 <l2439>:
    2814:	502e2151 	eorpl	r2, lr, r1, asr r1

00002818 <l2440>:
    2818:	e3a06028 	mov	r6, #40	; 0x28

0000281c <l2441>:
    281c:	e78dc006 	str	ip, [sp, r6]

00002820 <l2442>:
    2820:	e52dc004 	push	{ip}		; (str ip, [sp, #-4]!)

00002824 <l2443>:
    2824:	8111000c 	tsthi	r1, ip

00002828 <l2444>:
    2828:	71c23064 	bicvc	r3, r2, r4, rrx

0000282c <l2445>:
    282c:	81d8603a 	bicshi	r6, r8, sl, lsr r0

00002830 <l2446>:
    2830:	da000007 	ble	2854 <l2455>

00002834 <l2447>:
    2834:	e2801068 	add	r1, r0, #104	; 0x68

00002838 <l2448>:
    2838:	719f1a08 	orrsvc	r1, pc, r8, lsl #20

0000283c <l2449>:
    283c:	b3c97049 	biclt	r7, r9, #73	; 0x49

00002840 <l2450>:
    2840:	e052706e 	subs	r7, r2, lr, rrx

00002844 <l2451>:
    2844:	e26f623d 	rsb	r6, pc, #-805306365	; 0xd0000003

00002848 <l2452>:
    2848:	a069ce70 	rsbge	ip, r9, r0, ror lr

0000284c <l2453>:
    284c:	a0ce5556 	sbcge	r5, lr, r6, asr r5

00002850 <l2454>:
    2850:	ea000000 	b	2858 <l2456>

00002854 <l2455>:
    2854:	eafffff7 	b	2838 <l2448>

00002858 <l2456>:
    2858:	e38b958a 	orr	r9, fp, #578813952	; 0x22800000

0000285c <l2457>:
    285c:	e49db02e 	ldr	fp, [sp], #46	; 0x2e

00002860 <l2458>:
    2860:	e2ffe36b 	rscs	lr, pc, #-1409286143	; 0xac000001

00002864 <l2459>:
    2864:	702acc78 	eorvc	ip, sl, r8, ror ip

00002868 <l2460>:
    2868:	e2bf400a 	adcs	r4, pc, #10

0000286c <l2461>:
    286c:	c0403004 	subgt	r3, r0, r4

00002870 <l2462>:
    2870:	b1a0c00f 	movlt	ip, pc

00002874 <l2463>:
    2874:	e21a3006 	ands	r3, sl, #6

00002878 <l2464>:
    2878:	e1975d02 	orrs	r5, r7, r2, lsl #26

0000287c <l2465>:
    287c:	5a000002 	bpl	288c <l2469>

00002880 <l2466>:
    2880:	e280108d 	add	r1, r0, #141	; 0x8d

00002884 <l2467>:
    2884:	b0bc0212 	adcslt	r0, ip, r2, lsl r2

00002888 <l2468>:
    2888:	ea000000 	b	2890 <l2470>

0000288c <l2469>:
    288c:	eafffffc 	b	2884 <l2467>

00002890 <l2470>:
    2890:	e0162073 	ands	r2, r6, r3, ror r0

00002894 <l2471>:
    2894:	ea000007 	b	28b8 <l2480>

00002898 <l2472>:
    2898:	e16fef1a 	clz	lr, sl

0000289c <l2473>:
    289c:	83b0b0a0 	movshi	fp, #160	; 0xa0

000028a0 <l2474>:
    28a0:	919e0918 	orrsls	r0, lr, r8, lsl r9

000028a4 <l2475>:
    28a4:	e0d482ef 	sbcs	r8, r4, pc, ror #5

000028a8 <l2476>:
    28a8:	e0b54066 	adcs	r4, r5, r6, rrx

000028ac <l2477>:
    28ac:	e05f0345 	subs	r0, pc, r5, asr #6

000028b0 <l2478>:
    28b0:	e1590b7e 	cmp	r9, lr, ror fp

000028b4 <l2479>:
    28b4:	e0421718 	sub	r1, r2, r8, lsl r7

000028b8 <l2480>:
    28b8:	b1130948 	tstlt	r3, r8, asr #18

000028bc <l2481>:
    28bc:	9013a064 	andsls	sl, r3, r4, rrx

000028c0 <l2482>:
    28c0:	a0bba835 	adcsge	sl, fp, r5, lsr r8

000028c4 <l2483>:
    28c4:	e0602cae 	rsb	r2, r0, lr, lsr #25

000028c8 <l2484>:
    28c8:	32067111 	andcc	r7, r6, #1073741828	; 0x40000004

000028cc <l2485>:
    28cc:	e0c51155 	sbc	r1, r5, r5, asr r1

000028d0 <l2486>:
    28d0:	e3d6b309 	bics	fp, r6, #603979776	; 0x24000000

000028d4 <l2487>:
    28d4:	e3a00007 	mov	r0, #7

000028d8 <l2488>:
    28d8:	e79d3000 	ldr	r3, [sp, r0]

000028dc <l2489>:
    28dc:	e1360e19 	teq	r6, r9, lsl lr

000028e0 <l2490>:
    28e0:	e41da01b 	ldr	sl, [sp], #-27

000028e4 <l2491>:
    28e4:	e018b004 	ands	fp, r8, r4

000028e8 <l2492>:
    28e8:	8194a004 	orrshi	sl, r4, r4

000028ec <l2493>:
    28ec:	e2593a32 	subs	r3, r9, #204800	; 0x32000

000028f0 <l2494>:
    28f0:	7184555b 	orrvc	r5, r4, fp, asr r5

000028f4 <l2495>:
    28f4:	216fcf18 	clzcs	ip, r8

000028f8 <l2496>:
    28f8:	e114000c 	tst	r4, ip

000028fc <l2497>:
    28fc:	90c630e3 	sbcls	r3, r6, r3, ror #1

00002900 <l2498>:
    2900:	e1e08005 	mvn	r8, r5

00002904 <l2499>:
    2904:	9a000001 	bls	2910 <l2502>

00002908 <l2500>:
    2908:	e1580a6b 	cmp	r8, fp, ror #20

0000290c <l2501>:
    290c:	e155080f 	cmp	r5, pc, lsl #16

00002910 <l2502>:
    2910:	317200c3 	cmncc	r2, r3, asr #1

00002914 <l2503>:
    2914:	e3a0a016 	mov	sl, #22

00002918 <l2504>:
    2918:	e7bd300a 	ldr	r3, [sp, sl]!

0000291c <l2505>:
    291c:	e5ad0013 	str	r0, [sp, #19]!

00002920 <l2506>:
    2920:	e1a05e11 	lsl	r5, r1, lr

00002924 <l2507>:
    2924:	e1dc700e 	bics	r7, ip, lr

00002928 <l2508>:
    2928:	216f0f11 	clzcs	r0, r1

0000292c <l2509>:
    292c:	50b62062 	adcspl	r2, r6, r2, rrx

00002930 <l2510>:
    2930:	515a006f 	cmppl	sl, pc, rrx

00002934 <l2511>:
    2934:	e1d6a006 	bics	sl, r6, r6

00002938 <l2512>:
    2938:	e3a06009 	mov	r6, #9

0000293c <l2513>:
    293c:	e73d2006 	ldr	r2, [sp, -r6]!

00002940 <l2514>:
    2940:	20c20371 	sbccs	r0, r2, r1, ror r3

00002944 <l2515>:
    2944:	e1190521 	tst	r9, r1, lsr #10

00002948 <l2516>:
    2948:	e16f4f17 	clz	r4, r7

0000294c <l2517>:
    294c:	738534d2 	orrvc	r3, r5, #-771751936	; 0xd2000000

00002950 <l2518>:
    2950:	e15e0067 	cmp	lr, r7, rrx

00002954 <l2519>:
    2954:	60323637 	eorsvs	r3, r2, r7, lsr r6

00002958 <l2520>:
    2958:	e0fb1354 	rscs	r1, fp, r4, asr r3

0000295c <l2521>:
    295c:	70e9e067 	rscvc	lr, r9, r7, rrx

00002960 <l2522>:
    2960:	527a94c3 	rsbspl	r9, sl, #-1023410176	; 0xc3000000

00002964 <l2523>:
    2964:	90dc0930 	sbcsls	r0, ip, r0, lsr r9

00002968 <l2524>:
    2968:	e15c0004 	cmp	ip, r4

0000296c <l2525>:
    296c:	00b34b25 	adcseq	r4, r3, r5, lsr #22

00002970 <l2526>:
    2970:	90495e33 	subls	r5, r9, r3, lsr lr

00002974 <l2527>:
    2974:	e2442a51 	sub	r2, r4, #331776	; 0x51000

00002978 <l2528>:
    2978:	7022361a 	eorvc	r3, r2, sl, lsl r6

0000297c <l2529>:
    297c:	e0f5642c 	rscs	r6, r5, ip, lsr #8

00002980 <l2530>:
    2980:	e0626009 	rsb	r6, r2, r9

00002984 <l2531>:
    2984:	b0091b52 	andlt	r1, r9, r2, asr fp

00002988 <l2532>:
    2988:	625cb80b 	subsvs	fp, ip, #720896	; 0xb0000

0000298c <l2533>:
    298c:	e06e43ca 	rsb	r4, lr, sl, asr #7

00002990 <l2534>:
    2990:	7005988e 	andvc	r9, r5, lr, lsl #17

00002994 <l2535>:
    2994:	e05b9805 	subs	r9, fp, r5, lsl #16

00002998 <l2536>:
    2998:	e1c14103 	bic	r4, r1, r3, lsl #2

0000299c <l2537>:
    299c:	91f0b009 	mvnsls	fp, r9

000029a0 <l2538>:
    29a0:	ea000006 	b	29c0 <l2546>

000029a4 <l2539>:
    29a4:	e28010d0 	add	r1, r0, #208	; 0xd0

000029a8 <l2540>:
    29a8:	e3df6e7a 	bics	r6, pc, #1952	; 0x7a0

000029ac <l2541>:
    29ac:	e16f3f16 	clz	r3, r6

000029b0 <l2542>:
    29b0:	e090256e 	adds	r2, r0, lr, ror #10

000029b4 <l2543>:
    29b4:	e16f0f19 	clz	r0, r9

000029b8 <l2544>:
    29b8:	e068b062 	rsb	fp, r8, r2, rrx

000029bc <l2545>:
    29bc:	ea000000 	b	29c4 <l2547>

000029c0 <l2546>:
    29c0:	eafffff8 	b	29a8 <l2540>

000029c4 <l2547>:
    29c4:	e005300f 	and	r3, r5, pc

000029c8 <l2548>:
    29c8:	e1760c70 	cmn	r6, r0, ror ip

000029cc <l2549>:
    29cc:	e0019064 	and	r9, r1, r4, rrx

000029d0 <l2550>:
    29d0:	c2c37309 	sbcgt	r7, r3, #603979776	; 0x24000000

000029d4 <l2551>:
    29d4:	e17b0647 	cmn	fp, r7, asr #12

000029d8 <l2552>:
    29d8:	b11000cc 	tstlt	r0, ip, asr #1

000029dc <l2553>:
    29dc:	b3f0b409 	mvnslt	fp, #150994944	; 0x9000000

000029e0 <l2554>:
    29e0:	116f5f16 	clzne	r5, r6

000029e4 <l2555>:
    29e4:	409f6007 	addsmi	r6, pc, r7

000029e8 <l2556>:
    29e8:	00523c4a 	subseq	r3, r2, sl, asr #24

000029ec <l2557>:
    29ec:	90d26009 	sbcsls	r6, r2, r9

000029f0 <l2558>:
    29f0:	b0969220 	addslt	r9, r6, r0, lsr #4

000029f4 <l2559>:
    29f4:	c25fe96e 	subsgt	lr, pc, #1802240	; 0x1b8000

000029f8 <l2560>:
    29f8:	e33a001f 	teq	sl, #31

000029fc <l2561>:
    29fc:	c00aa011 	andgt	sl, sl, r1, lsl r0

00002a00 <l2562>:
    2a00:	e08e800a 	add	r8, lr, sl

00002a04 <l2563>:
    2a04:	815e0a89 	cmphi	lr, r9, lsl #21

00002a08 <l2564>:
    2a08:	70003005 	andvc	r3, r0, r5

00002a0c <l2565>:
    2a0c:	e53d102e 	ldr	r1, [sp, #-46]!	; 0x2e

00002a10 <l2566>:
    2a10:	e1f0c0e2 	mvns	ip, r2, ror #1

00002a14 <l2567>:
    2a14:	ea000007 	b	2a38 <l2576>

00002a18 <l2568>:
    2a18:	e280101d 	add	r1, r0, #29

00002a1c <l2569>:
    2a1c:	9047b008 	subls	fp, r7, r8

00002a20 <l2570>:
    2a20:	603a900e 	eorsvs	r9, sl, lr

00002a24 <l2571>:
    2a24:	d38210ec 	orrle	r1, r2, #236	; 0xec

00002a28 <l2572>:
    2a28:	e17f0886 	cmn	pc, r6, lsl #17

00002a2c <l2573>:
    2a2c:	e13e0357 	teq	lr, r7, asr r3

00002a30 <l2574>:
    2a30:	e0ec951c 	rsc	r9, ip, ip, lsl r5

00002a34 <l2575>:
    2a34:	ea000000 	b	2a3c <l2577>

00002a38 <l2576>:
    2a38:	eafffff7 	b	2a1c <l2569>

00002a3c <l2577>:
    2a3c:	40c08002 	sbcmi	r8, r0, r2

00002a40 <l2578>:
    2a40:	e0d58008 	sbcs	r8, r5, r8

00002a44 <l2579>:
    2a44:	70061e69 	andvc	r1, r6, r9, ror #28

00002a48 <l2580>:
    2a48:	e0631005 	rsb	r1, r3, r5

00002a4c <l2581>:
    2a4c:	e3da80b2 	bics	r8, sl, #178	; 0xb2

00002a50 <l2582>:
    2a50:	0086c002 	addeq	ip, r6, r2

00002a54 <l2583>:
    2a54:	d038c775 	eorsle	ip, r8, r5, ror r7

00002a58 <l2584>:
    2a58:	e057e567 	subs	lr, r7, r7, ror #10

00002a5c <l2585>:
    2a5c:	e1c33000 	bic	r3, r3, r0

00002a60 <l2586>:
    2a60:	23e00a7f 	mvncs	r0, #520192	; 0x7f000

00002a64 <l2587>:
    2a64:	ea000008 	b	2a8c <l2597>

00002a68 <l2588>:
    2a68:	91df006c 	bicsls	r0, pc, ip, rrx

00002a6c <l2589>:
    2a6c:	e1985218 	orrs	r5, r8, r8, lsl r2

00002a70 <l2590>:
    2a70:	e061c10e 	rsb	ip, r1, lr, lsl #2

00002a74 <l2591>:
    2a74:	016f4f1e 	clzeq	r4, lr

00002a78 <l2592>:
    2a78:	216fcf11 	clzcs	ip, r1

00002a7c <l2593>:
    2a7c:	e1862165 	orr	r2, r6, r5, ror #2

00002a80 <l2594>:
    2a80:	e1d06b18 	bics	r6, r0, r8, lsl fp

00002a84 <l2595>:
    2a84:	21150009 	tstcs	r5, r9

00002a88 <l2596>:
    2a88:	40439713 	submi	r9, r3, r3, lsl r7

00002a8c <l2597>:
    2a8c:	e16f4f17 	clz	r4, r7

00002a90 <l2598>:
    2a90:	7a000005 	bvc	2aac <l2605>

00002a94 <l2599>:
    2a94:	e2496405 	sub	r6, r9, #83886080	; 0x5000000

00002a98 <l2600>:
    2a98:	82650c02 	rsbhi	r0, r5, #512	; 0x200

00002a9c <l2601>:
    2a9c:	e2920603 	adds	r0, r2, #3145728	; 0x300000

00002aa0 <l2602>:
    2aa0:	a0580782 	subsge	r0, r8, r2, lsl #15

00002aa4 <l2603>:
    2aa4:	71a06f46 	asrvc	r6, r6, #30

00002aa8 <l2604>:
    2aa8:	d16f1f1a 	clzle	r1, sl

00002aac <l2605>:
    2aac:	e3933849 	orrs	r3, r3, #4784128	; 0x490000

00002ab0 <l2606>:
    2ab0:	e2c6ec2a 	sbc	lr, r6, #10752	; 0x2a00

00002ab4 <l2607>:
    2ab4:	1a000008 	bne	2adc <l2617>

00002ab8 <l2608>:
    2ab8:	8152006e 	cmphi	r2, lr, rrx

00002abc <l2609>:
    2abc:	325eb028 	subscc	fp, lr, #40	; 0x28

00002ac0 <l2610>:
    2ac0:	502c6003 	eorpl	r6, ip, r3

00002ac4 <l2611>:
    2ac4:	e137000a 	teq	r7, sl

00002ac8 <l2612>:
    2ac8:	d0df4002 	sbcsle	r4, pc, r2

00002acc <l2613>:
    2acc:	e08a7415 	add	r7, sl, r5, lsl r4

00002ad0 <l2614>:
    2ad0:	e0fe9319 	rscs	r9, lr, r9, lsl r3

00002ad4 <l2615>:
    2ad4:	e2901215 	adds	r1, r0, #1342177281	; 0x50000001

00002ad8 <l2616>:
    2ad8:	e16f3f12 	clz	r3, r2

00002adc <l2617>:
    2adc:	e091c067 	adds	ip, r1, r7, rrx

00002ae0 <l2618>:
    2ae0:	e2c5e7bd 	sbc	lr, r5, #49545216	; 0x2f40000

00002ae4 <l2619>:
    2ae4:	c025b006 	eorgt	fp, r5, r6

00002ae8 <l2620>:
    2ae8:	e05a7856 	subs	r7, sl, r6, asr r8

00002aec <l2621>:
    2aec:	b19cae2a 	orrslt	sl, ip, sl, lsr #28

00002af0 <l2622>:
    2af0:	e13a0000 	teq	sl, r0

00002af4 <l2623>:
    2af4:	e061e004 	rsb	lr, r1, r4

00002af8 <l2624>:
    2af8:	e039e00f 	eors	lr, r9, pc

00002afc <l2625>:
    2afc:	20fb4001 	rscscs	r4, fp, r1

00002b00 <l2626>:
    2b00:	e0017004 	and	r7, r1, r4

00002b04 <l2627>:
    2b04:	159dc02b 	ldrne	ip, [sp, #43]	; 0x2b

00002b08 <l2628>:
    2b08:	b2402681 	sublt	r2, r0, #135266304	; 0x8100000

00002b0c <l2629>:
    2b0c:	d1360855 	teqle	r6, r5, asr r8

00002b10 <l2630>:
    2b10:	415c0006 	cmpmi	ip, r6

00002b14 <l2631>:
    2b14:	e3a0501e 	mov	r5, #30

00002b18 <l2632>:
    2b18:	d79d2005 	ldrle	r2, [sp, r5]

00002b1c <l2633>:
    2b1c:	ea000000 	b	2b24 <l2635>

00002b20 <l2634>:
    2b20:	e097200c 	adds	r2, r7, ip

00002b24 <l2635>:
    2b24:	d084c10f 	addle	ip, r4, pc, lsl #2

00002b28 <l2636>:
    2b28:	b0383063 	eorslt	r3, r8, r3, rrx

00002b2c <l2637>:
    2b2c:	aa000007 	bge	2b50 <l2646>

00002b30 <l2638>:
    2b30:	e28010f0 	add	r1, r0, #240	; 0xf0

00002b34 <l2639>:
    2b34:	8068b003 	rsbhi	fp, r8, r3

00002b38 <l2640>:
    2b38:	50c0b004 	sbcpl	fp, r0, r4

00002b3c <l2641>:
    2b3c:	908e200a 	addls	r2, lr, sl

00002b40 <l2642>:
    2b40:	a0422150 	subge	r2, r2, r0, asr r1

00002b44 <l2643>:
    2b44:	b0931001 	addslt	r1, r3, r1

00002b48 <l2644>:
    2b48:	e1a04002 	mov	r4, r2

00002b4c <l2645>:
    2b4c:	ea000000 	b	2b54 <l2647>

00002b50 <l2646>:
    2b50:	eafffff7 	b	2b34 <l2639>

00002b54 <l2647>:
    2b54:	635b0341 	cmpvs	fp, #67108865	; 0x4000001

00002b58 <l2648>:
    2b58:	633e0796 	teqvs	lr, #39321600	; 0x2580000

00002b5c <l2649>:
    2b5c:	e0eb5570 	rsc	r5, fp, r0, ror r5

00002b60 <l2650>:
    2b60:	e286a032 	add	sl, r6, #50	; 0x32

00002b64 <l2651>:
    2b64:	237b0101 	cmncs	fp, #1073741824	; 0x40000000

00002b68 <l2652>:
    2b68:	e089c070 	add	ip, r9, r0, ror r0

00002b6c <l2653>:
    2b6c:	ea000004 	b	2b84 <l2659>

00002b70 <l2654>:
    2b70:	e0e86133 	rsc	r6, r8, r3, lsr r1

00002b74 <l2655>:
    2b74:	016fef11 	clzeq	lr, r1

00002b78 <l2656>:
    2b78:	b0022000 	andlt	r2, r2, r0

00002b7c <l2657>:
    2b7c:	4178087c 	cmnmi	r8, ip, ror r8

00002b80 <l2658>:
    2b80:	91f04a6c 	mvnsls	r4, ip, ror #20

00002b84 <l2659>:
    2b84:	e3730ddf 	cmn	r3, #14272	; 0x37c0

00002b88 <l2660>:
    2b88:	e17e077b 	cmn	lr, fp, ror r7

00002b8c <l2661>:
    2b8c:	41d60064 	bicsmi	r0, r6, r4, rrx

00002b90 <l2662>:
    2b90:	e0163825 	ands	r3, r6, r5, lsr #16

00002b94 <l2663>:
    2b94:	42e96203 	rscmi	r6, r9, #805306368	; 0x30000000

00002b98 <l2664>:
    2b98:	e08cc63b 	add	ip, ip, fp, lsr r6

00002b9c <l2665>:
    2b9c:	2a000006 	bcs	2bbc <l2673>

00002ba0 <l2666>:
    2ba0:	e280109b 	add	r1, r0, #155	; 0x9b

00002ba4 <l2667>:
    2ba4:	513f000c 	teqpl	pc, ip

00002ba8 <l2668>:
    2ba8:	01780005 	cmneq	r8, r5

00002bac <l2669>:
    2bac:	10a3b06f 	adcne	fp, r3, pc, rrx

00002bb0 <l2670>:
    2bb0:	21de0002 	bicscs	r0, lr, r2

00002bb4 <l2671>:
    2bb4:	e311084b 	tst	r1, #4915200	; 0x4b0000

00002bb8 <l2672>:
    2bb8:	ea000000 	b	2bc0 <l2674>

00002bbc <l2673>:
    2bbc:	eafffff8 	b	2ba4 <l2667>

00002bc0 <l2674>:
    2bc0:	e09c535c 	adds	r5, ip, ip, asr r3

00002bc4 <l2675>:
    2bc4:	e1140fe6 	tst	r4, r6, ror #31

00002bc8 <l2676>:
    2bc8:	53a0121f 	movpl	r1, #-268435455	; 0xf0000001

00002bcc <l2677>:
    2bcc:	e1560002 	cmp	r6, r2

00002bd0 <l2678>:
    2bd0:	e0276004 	eor	r6, r7, r4

00002bd4 <l2679>:
    2bd4:	12c5c4bf 	sbcne	ip, r5, #-1090519040	; 0xbf000000

00002bd8 <l2680>:
    2bd8:	b17f0923 	cmnlt	pc, r3, lsr #18

00002bdc <l2681>:
    2bdc:	e1b0081e 	lsls	r0, lr, r8

00002be0 <l2682>:
    2be0:	11cb0ac1 	bicne	r0, fp, r1, asr #21

00002be4 <l2683>:
    2be4:	32a962cb 	adccc	r6, r9, #-1342177268	; 0xb000000c

00002be8 <l2684>:
    2be8:	e38ab693 	orr	fp, sl, #154140672	; 0x9300000

00002bec <l2685>:
    2bec:	51380000 	teqpl	r8, r0

00002bf0 <l2686>:
    2bf0:	e3170152 	tst	r7, #-2147483628	; 0x80000014

00002bf4 <l2687>:
    2bf4:	d1d21f2c 	bicsle	r1, r2, ip, lsr #30

00002bf8 <l2688>:
    2bf8:	0171006e 	cmneq	r1, lr, rrx

00002bfc <l2689>:
    2bfc:	316f6f15 	clzcc	r6, r5

00002c00 <l2690>:
    2c00:	e3c59e15 	bic	r9, r5, #336	; 0x150

00002c04 <l2691>:
    2c04:	03d10285 	bicseq	r0, r1, #1342177288	; 0x50000008

00002c08 <l2692>:
    2c08:	d1e00aea 	mvnle	r0, sl, ror #21

00002c0c <l2693>:
    2c0c:	735905db 	cmpvc	r9, #918552576	; 0x36c00000

00002c10 <l2694>:
    2c10:	31e0c078 	mvncc	ip, r8, ror r0

00002c14 <l2695>:
    2c14:	e1130f67 	tst	r3, r7, ror #30

00002c18 <l2696>:
    2c18:	da000003 	ble	2c2c <l2701>

00002c1c <l2697>:
    2c1c:	e2801089 	add	r1, r0, #137	; 0x89

00002c20 <l2698>:
    2c20:	c31e0719 	tstgt	lr, #6553600	; 0x640000

00002c24 <l2699>:
    2c24:	919a0066 	orrsls	r0, sl, r6, rrx

00002c28 <l2700>:
    2c28:	ea000000 	b	2c30 <l2702>

00002c2c <l2701>:
    2c2c:	eafffffb 	b	2c20 <l2698>

00002c30 <l2702>:
    2c30:	9046a067 	subls	sl, r6, r7, rrx

00002c34 <l2703>:
    2c34:	416fef19 	clzmi	lr, r9

00002c38 <l2704>:
    2c38:	e0238463 	eor	r8, r3, r3, ror #8

00002c3c <l2705>:
    2c3c:	e1740008 	cmn	r4, r8

00002c40 <l2706>:
    2c40:	01140185 	tsteq	r4, r5, lsl #3

00002c44 <l2707>:
    2c44:	413b087b 	teqmi	fp, fp, ror r8

00002c48 <l2708>:
    2c48:	9184831b 	orrls	r8, r4, fp, lsl r3

00002c4c <l2709>:
    2c4c:	e3a03043 	mov	r3, #67	; 0x43

00002c50 <l2710>:
    2c50:	e78de003 	str	lr, [sp, r3]

00002c54 <l2711>:
    2c54:	4a000003 	bmi	2c68 <l2716>

00002c58 <l2712>:
    2c58:	e280103c 	add	r1, r0, #60	; 0x3c

00002c5c <l2713>:
    2c5c:	9009780c 	andls	r7, r9, ip, lsl #16

00002c60 <l2714>:
    2c60:	809925a2 	addshi	r2, r9, r2, lsr #11

00002c64 <l2715>:
    2c64:	ea000000 	b	2c6c <l2717>

00002c68 <l2716>:
    2c68:	eafffffb 	b	2c5c <l2713>

00002c6c <l2717>:
    2c6c:	40444003 	submi	r4, r4, r3

00002c70 <l2718>:
    2c70:	e096911c 	adds	r9, r6, ip, lsl r1

00002c74 <l2719>:
    2c74:	52a0c7e5 	adcpl	ip, r0, #60030976	; 0x3940000

00002c78 <l2720>:
    2c78:	c0720009 	rsbsgt	r0, r2, r9

00002c7c <l2721>:
    2c7c:	33c5a645 	biccc	sl, r5, #72351744	; 0x4500000

00002c80 <l2722>:
    2c80:	d0ce106c 	sbcle	r1, lr, ip, rrx

00002c84 <l2723>:
    2c84:	331506eb 	tstcc	r5, #246415360	; 0xeb00000

00002c88 <l2724>:
    2c88:	e316053b 	tst	r6, #247463936	; 0xec00000

00002c8c <l2725>:
    2c8c:	32311090 	eorscc	r1, r1, #144	; 0x90

00002c90 <l2726>:
    2c90:	ba000002 	blt	2ca0 <l2730>

00002c94 <l2727>:
    2c94:	e17b0002 	cmn	fp, r2

00002c98 <l2728>:
    2c98:	1245897b 	subne	r8, r5, #2015232	; 0x1ec000

00002c9c <l2729>:
    2c9c:	50e55b70 	rscpl	r5, r5, r0, ror fp

00002ca0 <l2730>:
    2ca0:	b11f0da4 	tstlt	pc, r4, lsr #27

00002ca4 <l2731>:
    2ca4:	3a000000 	bcc	2cac <l2733>

00002ca8 <l2732>:
    2ca8:	72ac792b 	adcvc	r7, ip, #704512	; 0xac000

00002cac <l2733>:
    2cac:	91310066 	teqls	r1, r6, rrx

00002cb0 <l2734>:
    2cb0:	e1780006 	cmn	r8, r6

00002cb4 <l2735>:
    2cb4:	d13e0a38 	teqle	lr, r8, lsr sl

00002cb8 <l2736>:
    2cb8:	aa000003 	bge	2ccc <l2741>

00002cbc <l2737>:
    2cbc:	7251b8ce 	subsvc	fp, r1, #13500416	; 0xce0000

00002cc0 <l2738>:
    2cc0:	e197506c 	orrs	r5, r7, ip, rrx

00002cc4 <l2739>:
    2cc4:	a0e38009 	rscge	r8, r3, r9

00002cc8 <l2740>:
    2cc8:	e153000f 	cmp	r3, pc

00002ccc <l2741>:
    2ccc:	e3b03b8f 	movs	r3, #146432	; 0x23c00

00002cd0 <l2742>:
    2cd0:	231c0252 	tstcs	ip, #536870917	; 0x20000005

00002cd4 <l2743>:
    2cd4:	d0168832 	andsle	r8, r6, r2, lsr r8

00002cd8 <l2744>:
    2cd8:	e113025a 	tst	r3, sl, asr r2

00002cdc <l2745>:
    2cdc:	93e0ad8b 	mvnls	sl, #8896	; 0x22c0

00002ce0 <l2746>:
    2ce0:	00b35d40 	adcseq	r5, r3, r0, asr #26

00002ce4 <l2747>:
    2ce4:	71b08067 	rrxsvc	r8, r7

00002ce8 <l2748>:
    2ce8:	e1b0ef23 	lsrs	lr, r3, #30

00002cec <l2749>:
    2cec:	858d5043 	strhi	r5, [sp, #67]	; 0x43

00002cf0 <l2750>:
    2cf0:	a03a658e 	eorsge	r6, sl, lr, lsl #11

00002cf4 <l2751>:
    2cf4:	e0f23577 	rscs	r3, r2, r7, ror r5

00002cf8 <l2752>:
    2cf8:	e1a0b006 	mov	fp, r6

00002cfc <l2753>:
    2cfc:	80b238c7 	adcshi	r3, r2, r7, asr #17

00002d00 <l2754>:
    2d00:	21a0c318 	lslcs	ip, r8, r3

00002d04 <l2755>:
    2d04:	d1170985 	tstle	r7, r5, lsl #19

00002d08 <l2756>:
    2d08:	e0d8e004 	sbcs	lr, r8, r4

00002d0c <l2757>:
    2d0c:	83cba038 	bichi	sl, fp, #56	; 0x38

00002d10 <l2758>:
    2d10:	e1d6c939 	bics	ip, r6, r9, lsr r9

00002d14 <l2759>:
    2d14:	81f03c73 	mvnshi	r3, r3, ror ip

00002d18 <l2760>:
    2d18:	e2feac26 	rscs	sl, lr, #9728	; 0x2600

00002d1c <l2761>:
    2d1c:	116fef19 	clzne	lr, r9

00002d20 <l2762>:
    2d20:	e19e6e4a 	orrs	r6, lr, sl, asr #28

00002d24 <l2763>:
    2d24:	e1966069 	orrs	r6, r6, r9, rrx

00002d28 <l2764>:
    2d28:	c1a06009 	movgt	r6, r9

00002d2c <l2765>:
    2d2c:	e3a0c015 	mov	ip, #21

00002d30 <l2766>:
    2d30:	e69d800c 	ldr	r8, [sp], ip

00002d34 <l2767>:
    2d34:	3054a065 	subscc	sl, r4, r5, rrx

00002d38 <l2768>:
    2d38:	e11b0004 	tst	fp, r4

00002d3c <l2769>:
    2d3c:	721ac003 	andsvc	ip, sl, #3

00002d40 <l2770>:
    2d40:	4260c55d 	rsbmi	ip, r0, #390070272	; 0x17400000

00002d44 <l2771>:
    2d44:	b04b000c 	sublt	r0, fp, ip

00002d48 <l2772>:
    2d48:	100ccbc2 	andne	ip, ip, r2, asr #23

00002d4c <l2773>:
    2d4c:	e297492b 	adds	r4, r7, #704512	; 0xac000

00002d50 <l2774>:
    2d50:	e1300b79 	teq	r0, r9, ror fp

00002d54 <l2775>:
    2d54:	b3150c3a 	tstlt	r5, #14848	; 0x3a00

00002d58 <l2776>:
    2d58:	e3a0e00d 	mov	lr, #13

00002d5c <l2777>:
    2d5c:	079d000e 	ldreq	r0, [sp, lr]

00002d60 <l2778>:
    2d60:	41750371 	cmnmi	r5, r1, ror r3

00002d64 <l2779>:
    2d64:	b0022517 	andlt	r2, r2, r7, lsl r5

00002d68 <l2780>:
    2d68:	e2df9f42 	sbcs	r9, pc, #264	; 0x108

00002d6c <l2781>:
    2d6c:	4a000002 	bmi	2d7c <l2785>

00002d70 <l2782>:
    2d70:	e28010f5 	add	r1, r0, #245	; 0xf5

00002d74 <l2783>:
    2d74:	91770006 	cmnls	r7, r6

00002d78 <l2784>:
    2d78:	ea000000 	b	2d80 <l2786>

00002d7c <l2785>:
    2d7c:	eafffffc 	b	2d74 <l2783>

00002d80 <l2786>:
    2d80:	e0f9c189 	rscs	ip, r9, r9, lsl #3

00002d84 <l2787>:
    2d84:	0a000002 	beq	2d94 <l2791>

00002d88 <l2788>:
    2d88:	32b6ab8a 	adcscc	sl, r6, #141312	; 0x22800

00002d8c <l2789>:
    2d8c:	e16f2f13 	clz	r2, r3

00002d90 <l2790>:
    2d90:	b3f0ae35 	mvnslt	sl, #848	; 0x350

00002d94 <l2791>:
    2d94:	30d51c58 	sbcscc	r1, r5, r8, asr ip

00002d98 <l2792>:
    2d98:	da000000 	ble	2da0 <l2794>

00002d9c <l2793>:
    2d9c:	e0b5b137 	adcs	fp, r5, r7, lsr r1

00002da0 <l2794>:
    2da0:	e05b3974 	subs	r3, fp, r4, ror r9

00002da4 <l2795>:
    2da4:	ba000003 	blt	2db8 <l2800>

00002da8 <l2796>:
    2da8:	e28010c3 	add	r1, r0, #195	; 0xc3

00002dac <l2797>:
    2dac:	526a3431 	rsbpl	r3, sl, #822083584	; 0x31000000

00002db0 <l2798>:
    2db0:	e00a3902 	and	r3, sl, r2, lsl #18

00002db4 <l2799>:
    2db4:	ea000000 	b	2dbc <l2801>

00002db8 <l2800>:
    2db8:	eafffffb 	b	2dac <l2797>

00002dbc <l2801>:
    2dbc:	e2399096 	eors	r9, r9, #150	; 0x96

00002dc0 <l2802>:
    2dc0:	ea000003 	b	2dd4 <l2807>

00002dc4 <l2803>:
    2dc4:	e28010bd 	add	r1, r0, #189	; 0xbd

00002dc8 <l2804>:
    2dc8:	2212c43d 	andscs	ip, r2, #1023410176	; 0x3d000000

00002dcc <l2805>:
    2dcc:	e0d35003 	sbcs	r5, r3, r3

00002dd0 <l2806>:
    2dd0:	ea000000 	b	2dd8 <l2808>

00002dd4 <l2807>:
    2dd4:	eafffffb 	b	2dc8 <l2804>

00002dd8 <l2808>:
    2dd8:	459d601a 	ldrmi	r6, [sp, #26]

00002ddc <l2809>:
    2ddc:	2053e006 	subscs	lr, r3, r6

00002de0 <l2810>:
    2de0:	806c5069 	rsbhi	r5, ip, r9, rrx

00002de4 <l2811>:
    2de4:	537b02f1 	cmnpl	fp, #268435471	; 0x1000000f

00002de8 <l2812>:
    2de8:	e244a97f 	sub	sl, r4, #2080768	; 0x1fc000

00002dec <l2813>:
    2dec:	e5bd2031 	ldr	r2, [sp, #49]!	; 0x31

00002df0 <l2814>:
    2df0:	e3a0303d 	mov	r3, #61	; 0x3d

00002df4 <l2815>:
    2df4:	e73db003 	ldr	fp, [sp, -r3]!

00002df8 <l2816>:
    2df8:	b236914a 	eorslt	r9, r6, #-2147483630	; 0x80000012

00002dfc <l2817>:
    2dfc:	616f1f1c 	clzvs	r1, ip

00002e00 <l2818>:
    2e00:	e0b0200c 	adcs	r2, r0, ip

00002e04 <l2819>:
    2e04:	b221096a 	eorlt	r0, r1, #1736704	; 0x1a8000

00002e08 <l2820>:
    2e08:	e1a0cc73 	ror	ip, r3, ip

00002e0c <l2821>:
    2e0c:	81f05060 	mvnshi	r5, r0, rrx

00002e10 <l2822>:
    2e10:	c00e68a7 	andgt	r6, lr, r7, lsr #17

00002e14 <l2823>:
    2e14:	e3a0c036 	mov	ip, #54	; 0x36

00002e18 <l2824>:
    2e18:	e68d300c 	str	r3, [sp], ip

00002e1c <l2825>:
    2e1c:	e199313e 	orrs	r3, r9, lr, lsr r1

00002e20 <l2826>:
    2e20:	e0ce2a4c 	sbc	r2, lr, ip, asr #20

00002e24 <l2827>:
    2e24:	70b74330 	adcsvc	r4, r7, r0, lsr r3

00002e28 <l2828>:
    2e28:	e194806f 	orrs	r8, r4, pc, rrx

00002e2c <l2829>:
    2e2c:	c1570003 	cmpgt	r7, r3

00002e30 <l2830>:
    2e30:	e0de4e34 	sbcs	r4, lr, r4, lsr lr

00002e34 <l2831>:
    2e34:	a58d7004 	strge	r7, [sp, #4]

00002e38 <l2832>:
    2e38:	31730186 	cmncc	r3, r6, lsl #3

00002e3c <l2833>:
    2e3c:	b1d40b25 	bicslt	r0, r4, r5, lsr #22

00002e40 <l2834>:
    2e40:	33901f82 	orrscc	r1, r0, #520	; 0x208

00002e44 <l2835>:
    2e44:	e3a02014 	mov	r2, #20

00002e48 <l2836>:
    2e48:	e72d4002 	str	r4, [sp, -r2]!

00002e4c <l2837>:
    2e4c:	e1350000 	teq	r5, r0

00002e50 <l2838>:
    2e50:	e15b006f 	cmp	fp, pc, rrx

00002e54 <l2839>:
    2e54:	e18f0ca1 	orr	r0, pc, r1, lsr #25

00002e58 <l2840>:
    2e58:	60de6712 	sbcsvs	r6, lr, r2, lsl r7

00002e5c <l2841>:
    2e5c:	e257b5d2 	subs	fp, r7, #880803840	; 0x34800000

00002e60 <l2842>:
    2e60:	e16f6f13 	clz	r6, r3

00002e64 <l2843>:
    2e64:	116f3f1a 	clzne	r3, sl

00002e68 <l2844>:
    2e68:	71a08009 	movvc	r8, r9

00002e6c <l2845>:
    2e6c:	5196b118 	orrspl	fp, r6, r8, lsl r1

00002e70 <l2846>:
    2e70:	616f5f12 	clzvs	r5, r2

00002e74 <l2847>:
    2e74:	e055c745 	subs	ip, r5, r5, asr #14

00002e78 <l2848>:
    2e78:	e1120001 	tst	r2, r1

00002e7c <l2849>:
    2e7c:	e23a47bf 	eors	r4, sl, #50069504	; 0x2fc0000

00002e80 <l2850>:
    2e80:	e1888066 	orr	r8, r8, r6, rrx

00002e84 <l2851>:
    2e84:	e0508b72 	subs	r8, r0, r2, ror fp

00002e88 <l2852>:
    2e88:	e0b65b55 	adcs	r5, r6, r5, asr fp

00002e8c <l2853>:
    2e8c:	7a000004 	bvc	2ea4 <l2859>

00002e90 <l2854>:
    2e90:	31e0a001 	mvncc	sl, r1

00002e94 <l2855>:
    2e94:	607f300c 	rsbsvs	r3, pc, ip

00002e98 <l2856>:
    2e98:	413c05e2 	teqmi	ip, r2, ror #11

00002e9c <l2857>:
    2e9c:	a394853a 	orrsge	r8, r4, #243269632	; 0xe800000

00002ea0 <l2858>:
    2ea0:	e08c73ea 	add	r7, ip, sl, ror #7

00002ea4 <l2859>:
    2ea4:	e01b2003 	ands	r2, fp, r3

00002ea8 <l2860>:
    2ea8:	ea000006 	b	2ec8 <l2868>

00002eac <l2861>:
    2eac:	e28010c4 	add	r1, r0, #196	; 0xc4

00002eb0 <l2862>:
    2eb0:	b37a006a 	cmnlt	sl, #106	; 0x6a

00002eb4 <l2863>:
    2eb4:	015a0130 	cmpeq	sl, r0, lsr r1

00002eb8 <l2864>:
    2eb8:	a1f0065e 	mvnsge	r0, lr, asr r6

00002ebc <l2865>:
    2ebc:	b09e29e2 	addslt	r2, lr, r2, ror #19

00002ec0 <l2866>:
    2ec0:	407c581b 	rsbsmi	r5, ip, fp, lsl r8

00002ec4 <l2867>:
    2ec4:	ea000000 	b	2ecc <l2869>

00002ec8 <l2868>:
    2ec8:	eafffff8 	b	2eb0 <l2862>

00002ecc <l2869>:
    2ecc:	e3a02015 	mov	r2, #21

00002ed0 <l2870>:
    2ed0:	e69db002 	ldr	fp, [sp], r2

00002ed4 <l2871>:
    2ed4:	e1d8b00e 	bics	fp, r8, lr

00002ed8 <l2872>:
    2ed8:	ea000001 	b	2ee4 <l2875>

00002edc <l2873>:
    2edc:	e045c007 	sub	ip, r5, r7

00002ee0 <l2874>:
    2ee0:	71c1ca88 	bicvc	ip, r1, r8, lsl #21

00002ee4 <l2875>:
    2ee4:	d0e66624 	rscle	r6, r6, r4, lsr #12

00002ee8 <l2876>:
    2ee8:	e16f2f15 	clz	r2, r5

00002eec <l2877>:
    2eec:	e2c6a502 	sbc	sl, r6, #8388608	; 0x800000

00002ef0 <l2878>:
    2ef0:	e0b98009 	adcs	r8, r9, r9

00002ef4 <l2879>:
    2ef4:	c195e805 	orrsgt	lr, r5, r5, lsl #16

00002ef8 <l2880>:
    2ef8:	d2bb92b5 	adcsle	r9, fp, #1342177291	; 0x5000000b

00002efc <l2881>:
    2efc:	2a000003 	bcs	2f10 <l2886>

00002f00 <l2882>:
    2f00:	e28010ac 	add	r1, r0, #172	; 0xac

00002f04 <l2883>:
    2f04:	e2e53102 	rsc	r3, r5, #-2147483648	; 0x80000000

00002f08 <l2884>:
    2f08:	e1c1e005 	bic	lr, r1, r5

00002f0c <l2885>:
    2f0c:	ea000000 	b	2f14 <l2887>

00002f10 <l2886>:
    2f10:	eafffffb 	b	2f04 <l2883>

00002f14 <l2887>:
    2f14:	e3560203 	cmp	r6, #805306368	; 0x30000000

00002f18 <l2888>:
    2f18:	b035e00e 	eorslt	lr, r5, lr

00002f1c <l2889>:
    2f1c:	e40d1041 	str	r1, [sp], #-65	; 0x41

00002f20 <l2890>:
    2f20:	10ace00a 	adcne	lr, ip, sl

00002f24 <l2891>:
    2f24:	e1cc6002 	bic	r6, ip, r2

00002f28 <l2892>:
    2f28:	a2415169 	subge	r5, r1, #1073741850	; 0x4000001a

00002f2c <l2893>:
    2f2c:	e37a0815 	cmn	sl, #1376256	; 0x150000

00002f30 <l2894>:
    2f30:	816f2f10 	clzhi	r2, r0

00002f34 <l2895>:
    2f34:	aa000004 	bge	2f4c <l2901>

00002f38 <l2896>:
    2f38:	e280109c 	add	r1, r0, #156	; 0x9c

00002f3c <l2897>:
    2f3c:	c0475451 	subgt	r5, r7, r1, asr r4

00002f40 <l2898>:
    2f40:	e1df1007 	bics	r1, pc, r7

00002f44 <l2899>:
    2f44:	e0385d28 	eors	r5, r8, r8, lsr #26

00002f48 <l2900>:
    2f48:	ea000000 	b	2f50 <l2902>

00002f4c <l2901>:
    2f4c:	eafffffa 	b	2f3c <l2897>

00002f50 <l2902>:
    2f50:	e3a0b030 	mov	fp, #48	; 0x30

00002f54 <l2903>:
    2f54:	e7ad700b 	str	r7, [sp, fp]!

00002f58 <l2904>:
    2f58:	139a1873 	orrsne	r1, sl, #7536640	; 0x730000

00002f5c <l2905>:
    2f5c:	4a000004 	bmi	2f74 <l2911>

00002f60 <l2906>:
    2f60:	e375022d 	cmn	r5, #-805306366	; 0xd0000002

00002f64 <l2907>:
    2f64:	d05e6369 	subsle	r6, lr, r9, ror #6

00002f68 <l2908>:
    2f68:	d0f1b551 	rscsle	fp, r1, r1, asr r5

00002f6c <l2909>:
    2f6c:	e13b04ce 	teq	fp, lr, asr #9

00002f70 <l2910>:
    2f70:	61110008 	tstvs	r1, r8

00002f74 <l2911>:
    2f74:	a39e42a3 	orrsge	r4, lr, #805306378	; 0x3000000a

00002f78 <l2912>:
    2f78:	a1370376 	teqge	r7, r6, ror r3

00002f7c <l2913>:
    2f7c:	e194b063 	orrs	fp, r4, r3, rrx

00002f80 <l2914>:
    2f80:	613906a4 	teqvs	r9, r4, lsr #13

00002f84 <l2915>:
    2f84:	7153006c 	cmpvc	r3, ip, rrx

00002f88 <l2916>:
    2f88:	e048b718 	sub	fp, r8, r8, lsl r7

00002f8c <l2917>:
    2f8c:	e1f0a000 	mvns	sl, r0

00002f90 <l2918>:
    2f90:	2a000005 	bcs	2fac <l2925>

00002f94 <l2919>:
    2f94:	e2801059 	add	r1, r0, #89	; 0x59

00002f98 <l2920>:
    2f98:	e1a05007 	mov	r5, r7

00002f9c <l2921>:
    2f9c:	50316c6b 	eorspl	r6, r1, fp, ror #24

00002fa0 <l2922>:
    2fa0:	a079228c 	rsbsge	r2, r9, ip, lsl #5

00002fa4 <l2923>:
    2fa4:	824f8cb6 	subhi	r8, pc, #46592	; 0xb600

00002fa8 <l2924>:
    2fa8:	ea000000 	b	2fb0 <l2926>

00002fac <l2925>:
    2fac:	eafffff9 	b	2f98 <l2920>

00002fb0 <l2926>:
    2fb0:	40757438 	rsbsmi	r7, r5, r8, lsr r4

00002fb4 <l2927>:
    2fb4:	3a000006 	bcc	2fd4 <l2935>

00002fb8 <l2928>:
    2fb8:	e28010bd 	add	r1, r0, #189	; 0xbd

00002fbc <l2929>:
    2fbc:	918b72c7 	orrls	r7, fp, r7, asr #5

00002fc0 <l2930>:
    2fc0:	7032a00c 	eorsvc	sl, r2, ip

00002fc4 <l2931>:
    2fc4:	d061a00a 	rsble	sl, r1, sl

00002fc8 <l2932>:
    2fc8:	116f9f14 	clzne	r9, r4

00002fcc <l2933>:
    2fcc:	a0c4e034 	sbcge	lr, r4, r4, lsr r0

00002fd0 <l2934>:
    2fd0:	ea000000 	b	2fd8 <l2936>

00002fd4 <l2935>:
    2fd4:	eafffff8 	b	2fbc <l2929>

00002fd8 <l2936>:
    2fd8:	e3a06010 	mov	r6, #16

00002fdc <l2937>:
    2fdc:	670d4006 	strvs	r4, [sp, -r6]

00002fe0 <l2938>:
    2fe0:	716f1f1e 	clzvc	r1, lr

00002fe4 <l2939>:
    2fe4:	e52d8028 	str	r8, [sp, #-40]!	; 0x28

00002fe8 <l2940>:
    2fe8:	e39a8185 	orrs	r8, sl, #1073741857	; 0x40000021

00002fec <l2941>:
    2fec:	e0a18bce 	adc	r8, r1, lr, asr #23

00002ff0 <l2942>:
    2ff0:	81862379 	orrhi	r2, r6, r9, ror r3

00002ff4 <l2943>:
    2ff4:	c0507001 	subsgt	r7, r0, r1

00002ff8 <l2944>:
    2ff8:	da000001 	ble	3004 <l2947>

00002ffc <l2945>:
    2ffc:	e07fe00f 	rsbs	lr, pc, pc

00003000 <l2946>:
    3000:	e058186c 	subs	r1, r8, ip, ror #16

00003004 <l2947>:
    3004:	e16f4f12 	clz	r4, r2

00003008 <l2948>:
    3008:	ea000002 	b	3018 <l2952>

0000300c <l2949>:
    300c:	e28010d5 	add	r1, r0, #213	; 0xd5

00003010 <l2950>:
    3010:	e3130857 	tst	r3, #5701632	; 0x570000

00003014 <l2951>:
    3014:	ea000000 	b	301c <l2953>

00003018 <l2952>:
    3018:	eafffffc 	b	3010 <l2950>

0000301c <l2953>:
    301c:	b3b0155b 	movslt	r1, #381681664	; 0x16c00000

00003020 <l2954>:
    3020:	ea000002 	b	3030 <l2958>

00003024 <l2955>:
    3024:	e2801030 	add	r1, r0, #48	; 0x30

00003028 <l2956>:
    3028:	10eb8073 	rscne	r8, fp, r3, ror r0

0000302c <l2957>:
    302c:	ea000000 	b	3034 <l2959>

00003030 <l2958>:
    3030:	eafffffc 	b	3028 <l2956>

00003034 <l2959>:
    3034:	81e0a00a 	mvnhi	sl, sl

00003038 <l2960>:
    3038:	6a000007 	bvs	305c <l2969>

0000303c <l2961>:
    303c:	e0d59000 	sbcs	r9, r5, r0

00003040 <l2962>:
    3040:	71a0ace8 	rorvc	sl, r8, #25

00003044 <l2963>:
    3044:	30a1e32f 	adccc	lr, r1, pc, lsr #6

00003048 <l2964>:
    3048:	e091706c 	adds	r7, r1, ip, rrx

0000304c <l2965>:
    304c:	e0eb3009 	rsc	r3, fp, r9

00003050 <l2966>:
    3050:	51ca3f6c 	bicpl	r3, sl, ip, ror #30

00003054 <l2967>:
    3054:	819f7307 	orrshi	r7, pc, r7, lsl #6

00003058 <l2968>:
    3058:	e16f3f10 	clz	r3, r0

0000305c <l2969>:
    305c:	92f568ba 	rscsls	r6, r5, #12189696	; 0xba0000

00003060 <l2970>:
    3060:	4affffff 	bmi	3064 <l2971>

00003064 <l2971>:
    3064:	d1750e38 	cmnle	r5, r8, lsr lr

00003068 <l2972>:
    3068:	828ba014 	addhi	sl, fp, #20

0000306c <l2973>:
    306c:	eaffffff 	b	3070 <l2974>

00003070 <l2974>:
    3070:	41f03335 	mvnsmi	r3, r5, lsr r3

00003074 <l2975>:
    3074:	2a000007 	bcs	3098 <l2984>

00003078 <l2976>:
    3078:	e28010d2 	add	r1, r0, #210	; 0xd2

0000307c <l2977>:
    307c:	50c57f82 	sbcpl	r7, r5, r2, lsl #31

00003080 <l2978>:
    3080:	53cf151f 	bicpl	r1, pc, #130023424	; 0x7c00000

00003084 <l2979>:
    3084:	e2480c4a 	sub	r0, r8, #18944	; 0x4a00

00003088 <l2980>:
    3088:	30070007 	andcc	r0, r7, r7

0000308c <l2981>:
    308c:	92373ec3 	eorsls	r3, r7, #3120	; 0xc30

00003090 <l2982>:
    3090:	4136006f 	teqmi	r6, pc, rrx

00003094 <l2983>:
    3094:	ea000000 	b	309c <l2985>

00003098 <l2984>:
    3098:	eafffff7 	b	307c <l2977>

0000309c <l2985>:
    309c:	2a000007 	bcs	30c0 <l2994>

000030a0 <l2986>:
    30a0:	e28010ab 	add	r1, r0, #171	; 0xab

000030a4 <l2987>:
    30a4:	71f04008 	mvnsvc	r4, r8

000030a8 <l2988>:
    30a8:	91f06054 	mvnsls	r6, r4, asr r0

000030ac <l2989>:
    30ac:	e0f5a006 	rscs	sl, r5, r6

000030b0 <l2990>:
    30b0:	01912a20 	orrseq	r2, r1, r0, lsr #20

000030b4 <l2991>:
    30b4:	22da366d 	sbcscs	r3, sl, #114294784	; 0x6d00000

000030b8 <l2992>:
    30b8:	e11204e2 	tst	r2, r2, ror #9

000030bc <l2993>:
    30bc:	ea000000 	b	30c4 <l2995>

000030c0 <l2994>:
    30c0:	eafffff7 	b	30a4 <l2987>

000030c4 <l2995>:
    30c4:	e13e0420 	teq	lr, r0, lsr #8

000030c8 <l2996>:
    30c8:	304c6b3e 	subcc	r6, ip, lr, lsr fp

000030cc <l2997>:
    30cc:	e3a00028 	mov	r0, #40	; 0x28

000030d0 <l2998>:
    30d0:	e68d2000 	str	r2, [sp], r0

000030d4 <l2999>:
    30d4:	e3b0b332 	movs	fp, #-939524096	; 0xc8000000

000030d8 <l3000>:
    30d8:	d0400144 	suble	r0, r0, r4, asr #2

000030dc <l3001>:
    30dc:	9a000000 	bls	30e4 <l3003>

000030e0 <l3002>:
    30e0:	a26aef79 	rsbge	lr, sl, #484	; 0x1e4

000030e4 <l3003>:
    30e4:	e3f0bb3e 	mvns	fp, #63488	; 0xf800

000030e8 <l3004>:
    30e8:	4273533b 	rsbsmi	r5, r3, #-335544320	; 0xec000000

000030ec <l3005>:
    30ec:	a16f6f1e 	clzge	r6, lr

000030f0 <l3006>:
    30f0:	e2b29dad 	adcs	r9, r2, #11072	; 0x2b40

000030f4 <l3007>:
    30f4:	135f06bd 	cmpne	pc, #198180864	; 0xbd00000

000030f8 <l3008>:
    30f8:	e0783077 	rsbs	r3, r8, r7, ror r0

000030fc <l3009>:
    30fc:	e16f8f15 	clz	r8, r5

00003100 <l3010>:
    3100:	000ac005 	andeq	ip, sl, r5

00003104 <l3011>:
    3104:	b11c0b3e 	tstlt	ip, lr, lsr fp

00003108 <l3012>:
    3108:	e1834c57 	orr	r4, r3, r7, asr ip

0000310c <l3013>:
    310c:	d000e006 	andle	lr, r0, r6

00003110 <l3014>:
    3110:	e1330069 	teq	r3, r9, rrx

00003114 <l3015>:
    3114:	e1825868 	orr	r5, r2, r8, ror #16

00003118 <l3016>:
    3118:	e0546060 	subs	r6, r4, r0, rrx

0000311c <l3017>:
    311c:	e3a02029 	mov	r2, #41	; 0x29

00003120 <l3018>:
    3120:	e73dc002 	ldr	ip, [sp, -r2]!

00003124 <l3019>:
    3124:	b1100c22 	tstlt	r0, r2, lsr #24

00003128 <l3020>:
    3128:	1affffff 	bne	312c <l3021>

0000312c <l3021>:
    312c:	e16f4f15 	clz	r4, r5

00003130 <l3022>:
    3130:	b0441064 	sublt	r1, r4, r4, rrx

00003134 <l3023>:
    3134:	30c62436 	sbccc	r2, r6, r6, lsr r4

00003138 <l3024>:
    3138:	31b04067 	rrxscc	r4, r7

0000313c <l3025>:
    313c:	e046be22 	sub	fp, r6, r2, lsr #28

00003140 <l3026>:
    3140:	e0ca04c9 	sbc	r0, sl, r9, asr #9

00003144 <l3027>:
    3144:	43f03077 	mvnsmi	r3, #119	; 0x77

00003148 <l3028>:
    3148:	51b0e008 	movspl	lr, r8

0000314c <l3029>:
    314c:	40b77b0a 	adcsmi	r7, r7, sl, lsl #22

00003150 <l3030>:
    3150:	aa000007 	bge	3174 <l3039>

00003154 <l3031>:
    3154:	e28010bd 	add	r1, r0, #189	; 0xbd

00003158 <l3032>:
    3158:	e24fa5b6 	sub	sl, pc, #763363328	; 0x2d800000

0000315c <l3033>:
    315c:	e072bb11 	rsbs	fp, r2, r1, lsl fp

00003160 <l3034>:
    3160:	e0bf600e 	adcs	r6, pc, lr

00003164 <l3035>:
    3164:	a3f09064 	mvnsge	r9, #100	; 0x64

00003168 <l3036>:
    3168:	b0f2e06b 	rscslt	lr, r2, fp, rrx

0000316c <l3037>:
    316c:	e252ab29 	subs	sl, r2, #41984	; 0xa400

00003170 <l3038>:
    3170:	ea000000 	b	3178 <l3040>

00003174 <l3039>:
    3174:	eafffff7 	b	3158 <l3032>

00003178 <l3040>:
    3178:	53d604c2 	bicspl	r0, r6, #-1040187392	; 0xc2000000

0000317c <l3041>:
    317c:	e1879986 	orr	r9, r7, r6, lsl #19

00003180 <l3042>:
    3180:	519b2006 	orrspl	r2, fp, r6

00003184 <l3043>:
    3184:	60875002 	addvs	r5, r7, r2

00003188 <l3044>:
    3188:	313c0aa6 	teqcc	ip, r6, lsr #21

0000318c <l3045>:
    318c:	e2a7856e 	adc	r8, r7, #461373440	; 0x1b800000

00003190 <l3046>:
    3190:	61886007 	orrvs	r6, r8, r7

00003194 <l3047>:
    3194:	217e000a 	cmncs	lr, sl

00003198 <l3048>:
    3198:	e134006b 	teq	r4, fp, rrx

0000319c <l3049>:
    319c:	131402f5 	tstne	r4, #1342177295	; 0x5000000f

000031a0 <l3050>:
    31a0:	e29e3901 	adds	r3, lr, #16384	; 0x4000

000031a4 <l3051>:
    31a4:	21966818 	orrscs	r6, r6, r8, lsl r8

000031a8 <l3052>:
    31a8:	e0b908c4 	adcs	r0, r9, r4, asr #17

000031ac <l3053>:
    31ac:	c195391e 	orrsgt	r3, r5, lr, lsl r9

000031b0 <l3054>:
    31b0:	8156024b 	cmphi	r6, fp, asr #4

000031b4 <l3055>:
    31b4:	e17e000a 	cmn	lr, sl

000031b8 <l3056>:
    31b8:	e0198001 	ands	r8, r9, r1

000031bc <l3057>:
    31bc:	10a63b70 	adcne	r3, r6, r0, ror fp

000031c0 <l3058>:
    31c0:	c02b5002 	eorgt	r5, fp, r2

000031c4 <l3059>:
    31c4:	caffffff 	bgt	31c8 <l3060>

000031c8 <l3060>:
    31c8:	c04e2009 	subgt	r2, lr, r9

000031cc <l3061>:
    31cc:	811c006f 	tsthi	ip, pc, rrx

000031d0 <l3062>:
    31d0:	da000007 	ble	31f4 <l3071>

000031d4 <l3063>:
    31d4:	71c9c061 	bicvc	ip, r9, r1, rrx

000031d8 <l3064>:
    31d8:	e0775077 	rsbs	r5, r7, r7, ror r0

000031dc <l3065>:
    31dc:	2086673c 	addcs	r6, r6, ip, lsr r7

000031e0 <l3066>:
    31e0:	e389683a 	orr	r6, r9, #3801088	; 0x3a0000

000031e4 <l3067>:
    31e4:	8183406e 	orrhi	r4, r3, lr, rrx

000031e8 <l3068>:
    31e8:	e2645556 	rsb	r5, r4, #360710144	; 0x15800000

000031ec <l3069>:
    31ec:	80b3ada7 	adcshi	sl, r3, r7, lsr #27

000031f0 <l3070>:
    31f0:	d1520001 	cmple	r2, r1

000031f4 <l3071>:
    31f4:	c230affd 	eorsgt	sl, r0, #1012	; 0x3f4

000031f8 <l3072>:
    31f8:	e49dc03d 	ldr	ip, [sp], #61	; 0x3d

000031fc <l3073>:
    31fc:	638e078a 	orrvs	r0, lr, #36175872	; 0x2280000

00003200 <l3074>:
    3200:	e1dac8e9 	bics	ip, sl, r9, ror #17

00003204 <l3075>:
    3204:	91dc2003 	bicsls	r2, ip, r3

00003208 <l3076>:
    3208:	ea000001 	b	3214 <l3079>

0000320c <l3077>:
    320c:	80e00374 	rschi	r0, r0, r4, ror r3

00003210 <l3078>:
    3210:	419eb615 	orrsmi	fp, lr, r5, lsl r6

00003214 <l3079>:
    3214:	5289c8a7 	addpl	ip, r9, #10944512	; 0xa70000

00003218 <l3080>:
    3218:	03b046c2 	movseq	r4, #203423744	; 0xc200000

0000321c <l3081>:
    321c:	c1e0800c 	mvngt	r8, ip

00003220 <l3082>:
    3220:	9a000006 	bls	3240 <l3090>

00003224 <l3083>:
    3224:	e2801019 	add	r1, r0, #25

00003228 <l3084>:
    3228:	c178006b 	cmngt	r8, fp, rrx

0000322c <l3085>:
    322c:	c11b0b19 	tstgt	fp, r9, lsl fp

00003230 <l3086>:
    3230:	60169530 	andsvs	r9, r6, r0, lsr r5

00003234 <l3087>:
    3234:	a0b8400b 	adcsge	r4, r8, fp

00003238 <l3088>:
    3238:	61a05005 	movvs	r5, r5

0000323c <l3089>:
    323c:	ea000000 	b	3244 <l3091>

00003240 <l3090>:
    3240:	eafffff8 	b	3228 <l3084>

00003244 <l3091>:
    3244:	219f7064 	orrscs	r7, pc, r4, rrx

00003248 <l3092>:
    3248:	200c006b 	andcs	r0, ip, fp, rrx

0000324c <l3093>:
    324c:	e0b3a610 	adcs	sl, r3, r0, lsl r6

00003250 <l3094>:
    3250:	200ee000 	andcs	lr, lr, r0

00003254 <l3095>:
    3254:	e3f00667 	mvns	r0, #108003328	; 0x6700000

00003258 <l3096>:
    3258:	e3d8041f 	bics	r0, r8, #520093696	; 0x1f000000

0000325c <l3097>:
    325c:	62f9a0aa 	rscsvs	sl, r9, #170	; 0xaa

00003260 <l3098>:
    3260:	616f4f1b 	clzvs	r4, fp

00003264 <l3099>:
    3264:	ea000000 	b	326c <l3101>

00003268 <l3100>:
    3268:	81360001 	teqhi	r6, r1

0000326c <l3101>:
    326c:	2387706a 	orrcs	r7, r7, #106	; 0x6a

00003270 <l3102>:
    3270:	70b0c6e0 	adcsvc	ip, r0, r0, ror #13

00003274 <l3103>:
    3274:	71590004 	cmpvc	r9, r4

00003278 <l3104>:
    3278:	e199e006 	orrs	lr, r9, r6

0000327c <l3105>:
    327c:	e383e8f7 	orr	lr, r3, #16187392	; 0xf70000

00003280 <l3106>:
    3280:	e16f0f13 	clz	r0, r3

00003284 <l3107>:
    3284:	03939e72 	orrseq	r9, r3, #1824	; 0x720

00003288 <l3108>:
    3288:	e11b0c23 	tst	fp, r3, lsr #24

0000328c <l3109>:
    328c:	e3b0b4da 	movs	fp, #-637534208	; 0xda000000

00003290 <l3110>:
    3290:	e16f8f15 	clz	r8, r5

00003294 <l3111>:
    3294:	e188ab67 	orr	sl, r8, r7, ror #22

00003298 <l3112>:
    3298:	e16faf12 	clz	sl, r2

0000329c <l3113>:
    329c:	e0f7b009 	rscs	fp, r7, r9

000032a0 <l3114>:
    32a0:	c09e700c 	addsgt	r7, lr, ip

000032a4 <l3115>:
    32a4:	51780320 	cmnpl	r8, r0, lsr #6

000032a8 <l3116>:
    32a8:	a31f0b3b 	tstge	pc, #60416	; 0xec00

000032ac <l3117>:
    32ac:	e05e6062 	subs	r6, lr, r2, rrx

000032b0 <l3118>:
    32b0:	a37505ae 	cmnge	r5, #729808896	; 0x2b800000

000032b4 <l3119>:
    32b4:	016f4f1c 	clzeq	r4, ip

000032b8 <l3120>:
    32b8:	a1b0c916 	lslsge	ip, r6, r9

000032bc <l3121>:
    32bc:	e3a0902e 	mov	r9, #46	; 0x2e

000032c0 <l3122>:
    32c0:	e73d3009 	ldr	r3, [sp, -r9]!

000032c4 <l3123>:
    32c4:	e1150552 	tst	r5, r2, asr r5

000032c8 <l3124>:
    32c8:	51854157 	orrpl	r4, r5, r7, asr r1

000032cc <l3125>:
    32cc:	124cbad7 	subne	fp, ip, #880640	; 0xd7000

000032d0 <l3126>:
    32d0:	911b0008 	tstls	fp, r8

000032d4 <l3127>:
    32d4:	ea000004 	b	32ec <l3133>

000032d8 <l3128>:
    32d8:	e2801038 	add	r1, r0, #56	; 0x38

000032dc <l3129>:
    32dc:	80d90066 	sbcshi	r0, r9, r6, rrx

000032e0 <l3130>:
    32e0:	d1f0900b 	mvnsle	r9, fp

000032e4 <l3131>:
    32e4:	e05c006a 	subs	r0, ip, sl, rrx

000032e8 <l3132>:
    32e8:	ea000000 	b	32f0 <l3134>

000032ec <l3133>:
    32ec:	eafffffa 	b	32dc <l3129>

000032f0 <l3134>:
    32f0:	3a000006 	bcc	3310 <l3142>

000032f4 <l3135>:
    32f4:	e01a000f 	ands	r0, sl, pc

000032f8 <l3136>:
    32f8:	e208103c 	and	r1, r8, #60	; 0x3c

000032fc <l3137>:
    32fc:	b0563c33 	subslt	r3, r6, r3, lsr ip

00003300 <l3138>:
    3300:	c13a0060 	teqgt	sl, r0, rrx

00003304 <l3139>:
    3304:	d0407c77 	suble	r7, r0, r7, ror ip

00003308 <l3140>:
    3308:	507a97ec 	rsbspl	r9, sl, ip, ror #15

0000330c <l3141>:
    330c:	e3360fee 	teq	r6, #952	; 0x3b8

00003310 <l3142>:
    3310:	e1c1c269 	bic	ip, r1, r9, ror #4

00003314 <l3143>:
    3314:	e0018000 	and	r8, r1, r0

00003318 <l3144>:
    3318:	72232079 	eorvc	r2, r3, #121	; 0x79

0000331c <l3145>:
    331c:	50a24716 	adcpl	r4, r2, r6, lsl r7

00003320 <l3146>:
    3320:	216fbf14 	clzcs	fp, r4

00003324 <l3147>:
    3324:	158d8002 	strne	r8, [sp, #2]

00003328 <l3148>:
    3328:	21b0800a 	movscs	r8, sl

0000332c <l3149>:
    332c:	7004e064 	andvc	lr, r4, r4, rrx

00003330 <l3150>:
    3330:	73808939 	orrvc	r8, r0, #933888	; 0xe4000

00003334 <l3151>:
    3334:	e3a0a011 	mov	sl, #17

00003338 <l3152>:
    3338:	e69d200a 	ldr	r2, [sp], sl

0000333c <l3153>:
    333c:	e118000b 	tst	r8, fp

00003340 <l3154>:
    3340:	e5ad9015 	str	r9, [sp, #21]!

00003344 <l3155>:
    3344:	e177000e 	cmn	r7, lr

00003348 <l3156>:
    3348:	c05e5000 	subsgt	r5, lr, r0

0000334c <l3157>:
    334c:	e199695c 	orrs	r6, r9, ip, asr r9

00003350 <l3158>:
    3350:	b0495201 	sublt	r5, r9, r1, lsl #4

00003354 <l3159>:
    3354:	e24c8703 	sub	r8, ip, #786432	; 0xc0000

00003358 <l3160>:
    3358:	ea000008 	b	3380 <l3170>

0000335c <l3161>:
    335c:	e042100f 	sub	r1, r2, pc

00003360 <l3162>:
    3360:	e0f7c00b 	rscs	ip, r7, fp

00003364 <l3163>:
    3364:	8119054a 	tsthi	r9, sl, asr #10

00003368 <l3164>:
    3368:	a00ee002 	andge	lr, lr, r2

0000336c <l3165>:
    336c:	a1e0bde0 	mvnge	fp, r0, ror #27

00003370 <l3166>:
    3370:	1041b062 	subne	fp, r1, r2, rrx

00003374 <l3167>:
    3374:	40ca600f 	sbcmi	r6, sl, pc

00003378 <l3168>:
    3378:	92f68bb6 	rscsls	r8, r6, #186368	; 0x2d800

0000337c <l3169>:
    337c:	b1760002 	cmnlt	r6, r2

00003380 <l3170>:
    3380:	e3110d17 	tst	r1, #1472	; 0x5c0

00003384 <l3171>:
    3384:	40415e76 	submi	r5, r1, r6, ror lr

00003388 <l3172>:
    3388:	e07814c5 	rsbs	r1, r8, r5, asr #9

0000338c <l3173>:
    338c:	2a000003 	bcs	33a0 <l3178>

00003390 <l3174>:
    3390:	e28010fe 	add	r1, r0, #254	; 0xfe

00003394 <l3175>:
    3394:	e0492fe5 	sub	r2, r9, r5, ror #31

00003398 <l3176>:
    3398:	e13f0ce2 	teq	pc, r2, ror #25

0000339c <l3177>:
    339c:	ea000000 	b	33a4 <l3179>

000033a0 <l3178>:
    33a0:	eafffffb 	b	3394 <l3175>

000033a4 <l3179>:
    33a4:	2a000000 	bcs	33ac <l3181>

000033a8 <l3180>:
    33a8:	805e600b 	subshi	r6, lr, fp

000033ac <l3181>:
    33ac:	60c8cc33 	sbcvs	ip, r8, r3, lsr ip

000033b0 <l3182>:
    33b0:	e373012f 	cmn	r3, #-1073741813	; 0xc000000b

000033b4 <l3183>:
    33b4:	82980c9d 	addshi	r0, r8, #40192	; 0x9d00

000033b8 <l3184>:
    33b8:	d1320272 	teqle	r2, r2, ror r2

000033bc <l3185>:
    33bc:	837508c1 	cmnhi	r5, #12648448	; 0xc10000

000033c0 <l3186>:
    33c0:	016faf19 	clzeq	sl, r9

000033c4 <l3187>:
    33c4:	d024ab3a 	eorle	sl, r4, sl, lsr fp

000033c8 <l3188>:
    33c8:	ea000006 	b	33e8 <l3196>

000033cc <l3189>:
    33cc:	e28010ed 	add	r1, r0, #237	; 0xed

000033d0 <l3190>:
    33d0:	e283959e 	add	r9, r3, #662700032	; 0x27800000

000033d4 <l3191>:
    33d4:	e1e04630 	mvn	r4, r0, lsr r6

000033d8 <l3192>:
    33d8:	008fa007 	addeq	sl, pc, r7

000033dc <l3193>:
    33dc:	82478519 	subhi	r8, r7, #104857600	; 0x6400000

000033e0 <l3194>:
    33e0:	e0a32401 	adc	r2, r3, r1, lsl #8

000033e4 <l3195>:
    33e4:	ea000000 	b	33ec <l3197>

000033e8 <l3196>:
    33e8:	eafffff8 	b	33d0 <l3190>

000033ec <l3197>:
    33ec:	016fcf10 	clzeq	ip, r0

000033f0 <l3198>:
    33f0:	e07e7a78 	rsbs	r7, lr, r8, ror sl

000033f4 <l3199>:
    33f4:	80f68ee5 	rscshi	r8, r6, r5, ror #29

000033f8 <l3200>:
    33f8:	1041a152 	subne	sl, r1, r2, asr r1

000033fc <l3201>:
    33fc:	40d23f2c 	sbcsmi	r3, r2, ip, lsr #30

00003400 <l3202>:
    3400:	008ac43b 	addeq	ip, sl, fp, lsr r4

00003404 <l3203>:
    3404:	e3a06021 	mov	r6, #33	; 0x21

00003408 <l3204>:
    3408:	e61d8006 	ldr	r8, [sp], -r6

0000340c <l3205>:
    340c:	81c3c069 	bichi	ip, r3, r9, rrx

00003410 <l3206>:
    3410:	e1c5600f 	bic	r6, r5, pc

00003414 <l3207>:
    3414:	5a000008 	bpl	343c <l3217>

00003418 <l3208>:
    3418:	e26a0b63 	rsb	r0, sl, #101376	; 0x18c00

0000341c <l3209>:
    341c:	4046c00e 	submi	ip, r6, lr

00003420 <l3210>:
    3420:	a0ffa061 	rscsge	sl, pc, r1, rrx

00003424 <l3211>:
    3424:	e0823783 	add	r3, r2, r3, lsl #15

00003428 <l3212>:
    3428:	0037200e 	eorseq	r2, r7, lr

0000342c <l3213>:
    342c:	e2748d8f 	rsbs	r8, r4, #9152	; 0x23c0

00003430 <l3214>:
    3430:	013f0065 	teqeq	pc, r5, rrx

00003434 <l3215>:
    3434:	a07b975c 	rsbsge	r9, fp, ip, asr r7

00003438 <l3216>:
    3438:	e0370078 	eors	r0, r7, r8, ror r0

0000343c <l3217>:
    343c:	a0770071 	rsbsge	r0, r7, r1, ror r0

00003440 <l3218>:
    3440:	ca000001 	bgt	344c <l3221>

00003444 <l3219>:
    3444:	10dbb008 	sbcsne	fp, fp, r8

00003448 <l3220>:
    3448:	90541613 	subsls	r1, r4, r3, lsl r6

0000344c <l3221>:
    344c:	e1db3009 	bics	r3, fp, r9

00003450 <l3222>:
    3450:	50384005 	eorspl	r4, r8, r5

00003454 <l3223>:
    3454:	3a000003 	bcc	3468 <l3228>

00003458 <l3224>:
    3458:	d1957923 	orrsle	r7, r5, r3, lsr #18

0000345c <l3225>:
    345c:	623e38e6 	eorsvs	r3, lr, #15073280	; 0xe60000

00003460 <l3226>:
    3460:	b1770be8 	cmnlt	r7, r8, ror #23

00003464 <l3227>:
    3464:	92948761 	addsls	r8, r4, #25427968	; 0x1840000

00003468 <l3228>:
    3468:	e3a09307 	mov	r9, #469762048	; 0x1c000000

0000346c <l3229>:
    346c:	e194715a 	orrs	r7, r4, sl, asr r1

00003470 <l3230>:
    3470:	e1861131 	orr	r1, r6, r1, lsr r1

00003474 <l3231>:
    3474:	00ea9005 	rsceq	r9, sl, r5

00003478 <l3232>:
    3478:	a21ce267 	andsge	lr, ip, #1879048198	; 0x70000006

0000347c <l3233>:
    347c:	33e0250d 	mvncc	r2, #54525952	; 0x3400000

00003480 <l3234>:
    3480:	e41d7006 	ldr	r7, [sp], #-6

00003484 <l3235>:
    3484:	b1f06b25 	mvnslt	r6, r5, lsr #22

00003488 <l3236>:
    3488:	e181a00e 	orr	sl, r1, lr

0000348c <l3237>:
    348c:	e07b6009 	rsbs	r6, fp, r9

00003490 <l3238>:
    3490:	935707c1 	cmpls	r7, #50593792	; 0x3040000

00003494 <l3239>:
    3494:	e2580839 	subs	r0, r8, #3735552	; 0x390000

00003498 <l3240>:
    3498:	216f5f13 	clzcs	r5, r3

0000349c <l3241>:
    349c:	e021577c 	eor	r5, r1, ip, ror r7

000034a0 <l3242>:
    34a0:	e002537b 	and	r5, r2, fp, ror r3

000034a4 <l3243>:
    34a4:	ea000005 	b	34c0 <l3250>

000034a8 <l3244>:
    34a8:	e261980f 	rsb	r9, r1, #983040	; 0xf0000

000034ac <l3245>:
    34ac:	720c2467 	andvc	r2, ip, #1728053248	; 0x67000000

000034b0 <l3246>:
    34b0:	e16fcf1c 	clz	ip, ip

000034b4 <l3247>:
    34b4:	81160007 	tsthi	r6, r7

000034b8 <l3248>:
    34b8:	e1dfafea 	bics	sl, pc, sl, ror #31

000034bc <l3249>:
    34bc:	b21581df 	andslt	r8, r5, #-1073741769	; 0xc0000037

000034c0 <l3250>:
    34c0:	e25038d3 	subs	r3, r0, #13828096	; 0xd30000

000034c4 <l3251>:
    34c4:	e1cc900b 	bic	r9, ip, fp

000034c8 <l3252>:
    34c8:	71a068ae 	lsrvc	r6, lr, #17

000034cc <l3253>:
    34cc:	e5ad6027 	str	r6, [sp, #39]!	; 0x27

000034d0 <l3254>:
    34d0:	e227b552 	eor	fp, r7, #343932928	; 0x14800000

000034d4 <l3255>:
    34d4:	31c37c0f 	biccc	r7, r3, pc, lsl #24

000034d8 <l3256>:
    34d8:	4234eccf 	eorsmi	lr, r4, #52992	; 0xcf00

000034dc <l3257>:
    34dc:	ea000006 	b	34fc <l3265>

000034e0 <l3258>:
    34e0:	e28010c9 	add	r1, r0, #201	; 0xc9

000034e4 <l3259>:
    34e4:	50a3a764 	adcpl	sl, r3, r4, ror #14

000034e8 <l3260>:
    34e8:	d15f0b03 	cmple	pc, r3, lsl #22

000034ec <l3261>:
    34ec:	e0752170 	rsbs	r2, r5, r0, ror r1

000034f0 <l3262>:
    34f0:	d0222d46 	eorle	r2, r2, r6, asr #26

000034f4 <l3263>:
    34f4:	51780062 	cmnpl	r8, r2, rrx

000034f8 <l3264>:
    34f8:	ea000000 	b	3500 <l3266>

000034fc <l3265>:
    34fc:	eafffff8 	b	34e4 <l3259>

00003500 <l3266>:
    3500:	e3580323 	cmp	r8, #-1946157056	; 0x8c000000

00003504 <l3267>:
    3504:	80460bef 	subhi	r0, r6, pc, ror #23

00003508 <l3268>:
    3508:	c0a81004 	adcgt	r1, r8, r4

0000350c <l3269>:
    350c:	e055a067 	subs	sl, r5, r7, rrx

00003510 <l3270>:
    3510:	da000001 	ble	351c <l3273>

00003514 <l3271>:
    3514:	41560a50 	cmpmi	r6, r0, asr sl

00003518 <l3272>:
    3518:	90aa3005 	adcls	r3, sl, r5

0000351c <l3273>:
    351c:	93c44d8d 	bicls	r4, r4, #9024	; 0x2340

00003520 <l3274>:
    3520:	ea000005 	b	353c <l3281>

00003524 <l3275>:
    3524:	e28010cb 	add	r1, r0, #203	; 0xcb

00003528 <l3276>:
    3528:	502ca00c 	eorpl	sl, ip, ip

0000352c <l3277>:
    352c:	e1390258 	teq	r9, r8, asr r2

00003530 <l3278>:
    3530:	9284ab8e 	addls	sl, r4, #145408	; 0x23800

00003534 <l3279>:
    3534:	e0441c4a 	sub	r1, r4, sl, asr #24

00003538 <l3280>:
    3538:	ea000000 	b	3540 <l3282>

0000353c <l3281>:
    353c:	eafffff9 	b	3528 <l3276>

00003540 <l3282>:
    3540:	e1e0678b 	mvn	r6, fp, lsl #15

00003544 <l3283>:
    3544:	7191b64a 	orrsvc	fp, r1, sl, asr #12

00003548 <l3284>:
    3548:	e1150679 	tst	r5, r9, ror r6

0000354c <l3285>:
    354c:	91e01b30 	mvnls	r1, r0, lsr fp

00003550 <l3286>:
    3550:	e1e0400e 	mvn	r4, lr

00003554 <l3287>:
    3554:	e0c85610 	sbc	r5, r8, r0, lsl r6

00003558 <l3288>:
    3558:	70b0c066 	adcsvc	ip, r0, r6, rrx

0000355c <l3289>:
    355c:	e3a08003 	mov	r8, #3

00003560 <l3290>:
    3560:	e73de008 	ldr	lr, [sp, -r8]!

00003564 <l3291>:
    3564:	ba000004 	blt	357c <l3297>

00003568 <l3292>:
    3568:	e2801004 	add	r1, r0, #4

0000356c <l3293>:
    356c:	01d45007 	bicseq	r5, r4, r7

00003570 <l3294>:
    3570:	e209955a 	and	r9, r9, #377487360	; 0x16800000

00003574 <l3295>:
    3574:	733a0163 	teqvc	sl, #-1073741800	; 0xc0000018

00003578 <l3296>:
    3578:	ea000000 	b	3580 <l3298>

0000357c <l3297>:
    357c:	eafffffa 	b	356c <l3293>

00003580 <l3298>:
    3580:	e030c06e 	eors	ip, r0, lr, rrx

00003584 <l3299>:
    3584:	00112857 	andseq	r2, r1, r7, asr r8

00003588 <l3300>:
    3588:	aa000002 	bge	3598 <l3304>

0000358c <l3301>:
    358c:	e081600c 	add	r6, r1, ip

00003590 <l3302>:
    3590:	8285a91d 	addhi	sl, r5, #475136	; 0x74000

00003594 <l3303>:
    3594:	6072cee5 	rsbsvs	ip, r2, r5, ror #29

00003598 <l3304>:
    3598:	0183a578 	orreq	sl, r3, r8, ror r5

0000359c <l3305>:
    359c:	ca000000 	bgt	35a4 <l3307>

000035a0 <l3306>:
    35a0:	105e3638 	subsne	r3, lr, r8, lsr r6

000035a4 <l3307>:
    35a4:	e0df006c 	sbcs	r0, pc, ip, rrx

000035a8 <l3308>:
    35a8:	10392737 	eorsne	r2, r9, r7, lsr r7

000035ac <l3309>:
    35ac:	9274068b 	rsbsls	r0, r4, #145752064	; 0x8b00000

000035b0 <l3310>:
    35b0:	80e56002 	rschi	r6, r5, r2

000035b4 <l3311>:
    35b4:	e1740189 	cmn	r4, r9, lsl #3

000035b8 <l3312>:
    35b8:	413e0002 	teqmi	lr, r2

000035bc <l3313>:
    35bc:	e196e911 	orrs	lr, r6, r1, lsl r9

000035c0 <l3314>:
    35c0:	51837008 	orrpl	r7, r3, r8

000035c4 <l3315>:
    35c4:	ea000003 	b	35d8 <l3320>

000035c8 <l3316>:
    35c8:	e2801087 	add	r1, r0, #135	; 0x87

000035cc <l3317>:
    35cc:	e2afc21f 	adc	ip, pc, #-268435455	; 0xf0000001

000035d0 <l3318>:
    35d0:	40562303 	subsmi	r2, r6, r3, lsl #6

000035d4 <l3319>:
    35d4:	ea000000 	b	35dc <l3321>

000035d8 <l3320>:
    35d8:	eafffffb 	b	35cc <l3317>

000035dc <l3321>:
    35dc:	6a000007 	bvs	3600 <l3330>

000035e0 <l3322>:
    35e0:	e2801086 	add	r1, r0, #134	; 0x86

000035e4 <l3323>:
    35e4:	70831065 	addvc	r1, r3, r5, rrx

000035e8 <l3324>:
    35e8:	e049700c 	sub	r7, r9, ip

000035ec <l3325>:
    35ec:	e186c27a 	orr	ip, r6, sl, ror r2

000035f0 <l3326>:
    35f0:	b3b09047 	movslt	r9, #71	; 0x47

000035f4 <l3327>:
    35f4:	931a0713 	tstls	sl, #4980736	; 0x4c0000

000035f8 <l3328>:
    35f8:	21f03004 	mvnscs	r3, r4

000035fc <l3329>:
    35fc:	ea000000 	b	3604 <l3331>

00003600 <l3330>:
    3600:	eafffff7 	b	35e4 <l3323>

00003604 <l3331>:
    3604:	e01be00b 	ands	lr, fp, fp

00003608 <l3332>:
    3608:	43360004 	teqmi	r6, #4

0000360c <l3333>:
    360c:	91f0200f 	mvnsls	r2, pc

00003610 <l3334>:
    3610:	51e01e1e 	mvnpl	r1, lr, lsl lr

00003614 <l3335>:
    3614:	b0d28577 	sbcslt	r8, r2, r7, ror r5

00003618 <l3336>:
    3618:	a1f0e64a 	mvnsge	lr, sl, asr #12

0000361c <l3337>:
    361c:	e00972c2 	and	r7, r9, r2, asr #5

00003620 <l3338>:
    3620:	500eae66 	andpl	sl, lr, r6, ror #28

00003624 <l3339>:
    3624:	e021700f 	eor	r7, r1, pc

00003628 <l3340>:
    3628:	ca000006 	bgt	3648 <l3348>

0000362c <l3341>:
    362c:	e1e00b38 	mvn	r0, r8, lsr fp

00003630 <l3342>:
    3630:	1200ba07 	andne	fp, r0, #28672	; 0x7000

00003634 <l3343>:
    3634:	e1b0306e 	rrxs	r3, lr

00003638 <l3344>:
    3638:	42ab2fe9 	adcmi	r2, fp, #932	; 0x3a4

0000363c <l3345>:
    363c:	007f206a 	rsbseq	r2, pc, sl, rrx

00003640 <l3346>:
    3640:	e1d33419 	bics	r3, r3, r9, lsl r4

00003644 <l3347>:
    3644:	e2ec1823 	rsc	r1, ip, #2293760	; 0x230000

00003648 <l3348>:
    3648:	911b0bae 	tstls	fp, lr, lsr #23

0000364c <l3349>:
    364c:	03f0a99e 	mvnseq	sl, #2588672	; 0x278000

00003650 <l3350>:
    3650:	0a000007 	beq	3674 <l3359>

00003654 <l3351>:
    3654:	e28010dc 	add	r1, r0, #220	; 0xdc

00003658 <l3352>:
    3658:	90246859 	eorls	r6, r4, r9, asr r8

0000365c <l3353>:
    365c:	51cf9062 	bicpl	r9, pc, r2, rrx

00003660 <l3354>:
    3660:	e24a61e5 	sub	r6, sl, #1073741881	; 0x40000039

00003664 <l3355>:
    3664:	e1e03063 	mvn	r3, r3, rrx

00003668 <l3356>:
    3668:	e1e0c288 	mvn	ip, r8, lsl #5

0000366c <l3357>:
    366c:	90285c58 	eorls	r5, r8, r8, asr ip

00003670 <l3358>:
    3670:	ea000000 	b	3678 <l3360>

00003674 <l3359>:
    3674:	eafffff7 	b	3658 <l3352>

00003678 <l3360>:
    3678:	e055c00a 	subs	ip, r5, sl

0000367c <l3361>:
    367c:	e05c1c58 	subs	r1, ip, r8, asr ip

00003680 <l3362>:
    3680:	61520d8c 	cmpvs	r2, ip, lsl #27

00003684 <l3363>:
    3684:	ba000006 	blt	36a4 <l3371>

00003688 <l3364>:
    3688:	e2801031 	add	r1, r0, #49	; 0x31

0000368c <l3365>:
    368c:	03f0bff5 	mvnseq	fp, #980	; 0x3d4

00003690 <l3366>:
    3690:	5381722f 	orrpl	r7, r1, #-268435454	; 0xf0000002

00003694 <l3367>:
    3694:	e01512ec 	ands	r1, r5, ip, ror #5

00003698 <l3368>:
    3698:	e13a0de0 	teq	sl, r0, ror #27

0000369c <l3369>:
    369c:	6271410f 	rsbsvs	r4, r1, #-1073741821	; 0xc0000003

000036a0 <l3370>:
    36a0:	ea000000 	b	36a8 <l3372>

000036a4 <l3371>:
    36a4:	eafffff8 	b	368c <l3365>

000036a8 <l3372>:
    36a8:	6018506a 	andsvs	r5, r8, sl, rrx

000036ac <l3373>:
    36ac:	2319082a 	tstcs	r9, #2752512	; 0x2a0000

000036b0 <l3374>:
    36b0:	73310f4d 	teqvc	r1, #308	; 0x134

000036b4 <l3375>:
    36b4:	403e5061 	eorsmi	r5, lr, r1, rrx

000036b8 <l3376>:
    36b8:	ca000001 	bgt	36c4 <l3379>

000036bc <l3377>:
    36bc:	e3e0c235 	mvn	ip, #1342177283	; 0x50000003

000036c0 <l3378>:
    36c0:	e2b94beb 	adcs	r4, r9, #240640	; 0x3ac00

000036c4 <l3379>:
    36c4:	c054e066 	subsgt	lr, r4, r6, rrx

000036c8 <l3380>:
    36c8:	4a000006 	bmi	36e8 <l3388>

000036cc <l3381>:
    36cc:	225123c5 	subscs	r2, r1, #335544323	; 0x14000003

000036d0 <l3382>:
    36d0:	b009a717 	andlt	sl, r9, r7, lsl r7

000036d4 <l3383>:
    36d4:	116f0f19 	clzne	r0, r9

000036d8 <l3384>:
    36d8:	c13e0e59 	teqgt	lr, r9, asr lr

000036dc <l3385>:
    36dc:	a31f0175 	tstge	pc, #1073741853	; 0x4000001d

000036e0 <l3386>:
    36e0:	e20358d2 	and	r5, r3, #13762560	; 0xd20000

000036e4 <l3387>:
    36e4:	c1df7005 	bicsgt	r7, pc, r5

000036e8 <l3388>:
    36e8:	e0125002 	ands	r5, r2, r2

000036ec <l3389>:
    36ec:	e3a0a005 	mov	sl, #5

000036f0 <l3390>:
    36f0:	970d400a 	strls	r4, [sp, -sl]

000036f4 <l3391>:
    36f4:	e184be57 	orr	fp, r4, r7, asr lr

000036f8 <l3392>:
    36f8:	e3f06166 	mvns	r6, #-2147483623	; 0x80000019

000036fc <l3393>:
    36fc:	e044b00a 	sub	fp, r4, sl

00003700 <l3394>:
    3700:	e1b0a533 	lsrs	sl, r3, r5

00003704 <l3395>:
    3704:	e199727a 	orrs	r7, r9, sl, ror r2

00003708 <l3396>:
    3708:	e1f0c067 	mvns	ip, r7, rrx

0000370c <l3397>:
    370c:	da000005 	ble	3728 <l3404>

00003710 <l3398>:
    3710:	e2801027 	add	r1, r0, #39	; 0x27

00003714 <l3399>:
    3714:	e11c000b 	tst	ip, fp

00003718 <l3400>:
    3718:	e02fba63 	eor	fp, pc, r3, ror #20

0000371c <l3401>:
    371c:	3072433e 	rsbscc	r4, r2, lr, lsr r3

00003720 <l3402>:
    3720:	12d40d2f 	sbcsne	r0, r4, #3008	; 0xbc0

00003724 <l3403>:
    3724:	ea000000 	b	372c <l3405>

00003728 <l3404>:
    3728:	eafffff9 	b	3714 <l3399>

0000372c <l3405>:
    372c:	915a000a 	cmpls	sl, sl

00003730 <l3406>:
    3730:	500c400f 	andpl	r4, ip, pc

00003734 <l3407>:
    3734:	e058e003 	subs	lr, r8, r3

00003738 <l3408>:
    3738:	e0b1900f 	adcs	r9, r1, pc

0000373c <l3409>:
    373c:	23b03c0d 	movscs	r3, #3328	; 0xd00

00003740 <l3410>:
    3740:	c1150c20 	tstgt	r5, r0, lsr #24

00003744 <l3411>:
    3744:	a0f75214 	rscsge	r5, r7, r4, lsl r2

00003748 <l3412>:
    3748:	02f4c15e 	rscseq	ip, r4, #-2147483625	; 0x80000017

0000374c <l3413>:
    374c:	ea000007 	b	3770 <l3422>

00003750 <l3414>:
    3750:	e2803a8a 	add	r3, r0, #565248	; 0x8a000

00003754 <l3415>:
    3754:	9099306a 	addsls	r3, r9, sl, rrx

00003758 <l3416>:
    3758:	e1e0a060 	mvn	sl, r0, rrx

0000375c <l3417>:
    375c:	70729c50 	rsbsvc	r9, r2, r0, asr ip

00003760 <l3418>:
    3760:	30d0e004 	sbcscc	lr, r0, r4

00003764 <l3419>:
    3764:	b297351b 	addslt	r3, r7, #113246208	; 0x6c00000

00003768 <l3420>:
    3768:	e18c000e 	orr	r0, ip, lr

0000376c <l3421>:
    376c:	e0f19003 	rscs	r9, r1, r3

00003770 <l3422>:
    3770:	0176023e 	cmneq	r6, lr, lsr r2

00003774 <l3423>:
    3774:	ea000001 	b	3780 <l3426>

00003778 <l3424>:
    3778:	517a0ce4 	cmnpl	sl, r4, ror #25

0000377c <l3425>:
    377c:	537f0479 	cmnpl	pc, #2030043136	; 0x79000000

00003780 <l3426>:
    3780:	e07a08ca 	rsbs	r0, sl, sl, asr #17

00003784 <l3427>:
    3784:	e2f549ee 	rscs	r4, r5, #3899392	; 0x3b8000

00003788 <l3428>:
    3788:	42baee43 	adcsmi	lr, sl, #1072	; 0x430

0000378c <l3429>:
    378c:	e01f6c27 	ands	r6, pc, r7, lsr #24

00003790 <l3430>:
    3790:	617c0067 	cmnvs	ip, r7, rrx

00003794 <l3431>:
    3794:	b38457d9 	orrlt	r5, r4, #56885248	; 0x3640000

00003798 <l3432>:
    3798:	e0cc2a10 	sbc	r2, ip, r0, lsl sl

0000379c <l3433>:
    379c:	a1f03004 	mvnsge	r3, r4

000037a0 <l3434>:
    37a0:	021aa7cf 	andseq	sl, sl, #54263808	; 0x33c0000

000037a4 <l3435>:
    37a4:	b2d02dca 	sbcslt	r2, r0, #12928	; 0x3280

000037a8 <l3436>:
    37a8:	4281a2ba 	addmi	sl, r1, #-1610612725	; 0xa000000b

000037ac <l3437>:
    37ac:	e0e5c061 	rsc	ip, r5, r1, rrx

000037b0 <l3438>:
    37b0:	c091500f 	addsgt	r5, r1, pc

000037b4 <l3439>:
    37b4:	3a000005 	bcc	37d0 <l3446>

000037b8 <l3440>:
    37b8:	e28010b4 	add	r1, r0, #180	; 0xb4

000037bc <l3441>:
    37bc:	e1d7c00e 	bics	ip, r7, lr

000037c0 <l3442>:
    37c0:	b06ae7c2 	rsblt	lr, sl, r2, asr #15

000037c4 <l3443>:
    37c4:	e16faf13 	clz	sl, r3

000037c8 <l3444>:
    37c8:	3159000f 	cmpcc	r9, pc

000037cc <l3445>:
    37cc:	ea000000 	b	37d4 <l3447>

000037d0 <l3446>:
    37d0:	eafffff9 	b	37bc <l3441>

000037d4 <l3447>:
    37d4:	e16fbf17 	clz	fp, r7

000037d8 <l3448>:
    37d8:	e013cba7 	ands	ip, r3, r7, lsr #23

000037dc <l3449>:
    37dc:	ea000003 	b	37f0 <l3454>

000037e0 <l3450>:
    37e0:	e280105c 	add	r1, r0, #92	; 0x5c

000037e4 <l3451>:
    37e4:	416f6f1a 	clzmi	r6, sl

000037e8 <l3452>:
    37e8:	a0541006 	subsge	r1, r4, r6

000037ec <l3453>:
    37ec:	ea000000 	b	37f4 <l3455>

000037f0 <l3454>:
    37f0:	eafffffb 	b	37e4 <l3451>

000037f4 <l3455>:
    37f4:	e53d1011 	ldr	r1, [sp, #-17]!

000037f8 <l3456>:
    37f8:	e08fc005 	add	ip, pc, r5

000037fc <l3457>:
    37fc:	e2411199 	sub	r1, r1, #1073741862	; 0x40000026

00003800 <l3458>:
    3800:	21cf3000 	biccs	r3, pc, r0

00003804 <l3459>:
    3804:	715c0a11 	cmpvc	ip, r1, lsl sl

00003808 <l3460>:
    3808:	da000003 	ble	381c <l3465>

0000380c <l3461>:
    380c:	523a3043 	eorspl	r3, sl, #67	; 0x43

00003810 <l3462>:
    3810:	e3d0422e 	bics	r4, r0, #-536870910	; 0xe0000002

00003814 <l3463>:
    3814:	e0c85179 	sbc	r5, r8, r9, ror r1

00003818 <l3464>:
    3818:	424c5629 	submi	r5, ip, #42991616	; 0x2900000

0000381c <l3465>:
    381c:	60c0e273 	sbcvs	lr, r0, r3, ror r2

00003820 <l3466>:
    3820:	e012b738 	ands	fp, r2, r8, lsr r7

00003824 <l3467>:
    3824:	e3a0c010 	mov	ip, #16

00003828 <l3468>:
    3828:	b70d200c 	strlt	r2, [sp, -ip]

0000382c <l3469>:
    382c:	90cee789 	sbcls	lr, lr, r9, lsl #15

00003830 <l3470>:
    3830:	e17b076a 	cmn	fp, sl, ror #14

00003834 <l3471>:
    3834:	103ab00b 	eorsne	fp, sl, fp

00003838 <l3472>:
    3838:	21c8e009 	biccs	lr, r8, r9

0000383c <l3473>:
    383c:	e0aa3855 	adc	r3, sl, r5, asr r8

00003840 <l3474>:
    3840:	a1d78746 	bicsge	r8, r7, r6, asr #14

00003844 <l3475>:
    3844:	c0fca00c 	rscsgt	sl, ip, ip

00003848 <l3476>:
    3848:	e53da00e 	ldr	sl, [sp, #-14]!

0000384c <l3477>:
    384c:	819c6000 	orrshi	r6, ip, r0

00003850 <l3478>:
    3850:	e0024267 	and	r4, r2, r7, ror #4

00003854 <l3479>:
    3854:	1a000003 	bne	3868 <l3484>

00003858 <l3480>:
    3858:	e39ee93d 	orrs	lr, lr, #999424	; 0xf4000

0000385c <l3481>:
    385c:	e078720f 	rsbs	r7, r8, pc, lsl #4

00003860 <l3482>:
    3860:	2153065c 	cmpcs	r3, ip, asr r6

00003864 <l3483>:
    3864:	10556062 	subsne	r6, r5, r2, rrx

00003868 <l3484>:
    3868:	a0100014 	andsge	r0, r0, r4, lsl r0

0000386c <l3485>:
    386c:	e3740d62 	cmn	r4, #6272	; 0x1880

00003870 <l3486>:
    3870:	e0f784c3 	rscs	r8, r7, r3, asr #9

00003874 <l3487>:
    3874:	b16fef10 	clzlt	lr, r0

00003878 <l3488>:
    3878:	3237902e 	eorscc	r9, r7, #46	; 0x2e

0000387c <l3489>:
    387c:	43a04335 	movmi	r4, #-738197504	; 0xd4000000

00003880 <l3490>:
    3880:	e20c5b37 	and	r5, ip, #56320	; 0xdc00

00003884 <l3491>:
    3884:	11110000 	tstne	r1, r0

00003888 <l3492>:
    3888:	1a000002 	bne	3898 <l3496>

0000388c <l3493>:
    388c:	e28010c6 	add	r1, r0, #198	; 0xc6

00003890 <l3494>:
    3890:	e024e172 	eor	lr, r4, r2, ror r1

00003894 <l3495>:
    3894:	ea000000 	b	389c <l3497>

00003898 <l3496>:
    3898:	eafffffc 	b	3890 <l3494>

0000389c <l3497>:
    389c:	e1dcb05a 	bics	fp, ip, sl, asr r0

000038a0 <l3498>:
    38a0:	91a02e0b 	lslls	r2, fp, #28

000038a4 <l3499>:
    38a4:	ea000005 	b	38c0 <l3506>

000038a8 <l3500>:
    38a8:	e28010ff 	add	r1, r0, #255	; 0xff

000038ac <l3501>:
    38ac:	33b0c10f 	movscc	ip, #-1073741821	; 0xc0000003

000038b0 <l3502>:
    38b0:	71b07000 	movsvc	r7, r0

000038b4 <l3503>:
    38b4:	30c98a1e 	sbccc	r8, r9, lr, lsl sl

000038b8 <l3504>:
    38b8:	1198bf4e 	orrsne	fp, r8, lr, asr #30

000038bc <l3505>:
    38bc:	ea000000 	b	38c4 <l3507>

000038c0 <l3506>:
    38c0:	eafffff9 	b	38ac <l3501>

000038c4 <l3507>:
    38c4:	53e0e253 	mvnpl	lr, #805306373	; 0x30000005

000038c8 <l3508>:
    38c8:	b0612068 	rsblt	r2, r1, r8, rrx

000038cc <l3509>:
    38cc:	711a0002 	tstvc	sl, r2

000038d0 <l3510>:
    38d0:	4317050a 	tstmi	r7, #41943040	; 0x2800000

000038d4 <l3511>:
    38d4:	61a01005 	movvs	r1, r5

000038d8 <l3512>:
    38d8:	6035a786 	eorsvs	sl, r5, r6, lsl #15

000038dc <l3513>:
    38dc:	90f70b3a 	rscsls	r0, r7, sl, lsr fp

000038e0 <l3514>:
    38e0:	116f8f19 	clzne	r8, r9

000038e4 <l3515>:
    38e4:	6180886e 	orrvs	r8, r0, lr, ror #16

000038e8 <l3516>:
    38e8:	5299a1e3 	addspl	sl, r9, #-1073741768	; 0xc0000038

000038ec <l3517>:
    38ec:	21b0aaef 	rorscs	sl, pc, #21

000038f0 <l3518>:
    38f0:	e00e5069 	and	r5, lr, r9, rrx

000038f4 <l3519>:
    38f4:	e16f6f12 	clz	r6, r2

000038f8 <l3520>:
    38f8:	b17502aa 	cmnlt	r5, sl, lsr #5

000038fc <l3521>:
    38fc:	e1140005 	tst	r4, r5

00003900 <l3522>:
    3900:	e079700c 	rsbs	r7, r9, ip

00003904 <l3523>:
    3904:	e0d69b05 	sbcs	r9, r6, r5, lsl #22

00003908 <l3524>:
    3908:	113a000b 	teqne	sl, fp

0000390c <l3525>:
    390c:	d0dc5063 	sbcsle	r5, ip, r3, rrx

00003910 <l3526>:
    3910:	e3a01016 	mov	r1, #22

00003914 <l3527>:
    3914:	e72da001 	str	sl, [sp, -r1]!

00003918 <l3528>:
    3918:	307a706a 	rsbscc	r7, sl, sl, rrx

0000391c <l3529>:
    391c:	e0231352 	eor	r1, r3, r2, asr r3

00003920 <l3530>:
    3920:	004c7359 	subeq	r7, ip, r9, asr r3

00003924 <l3531>:
    3924:	8025897e 	eorhi	r8, r5, lr, ror r9

00003928 <l3532>:
    3928:	c05401af 	subsgt	r0, r4, pc, lsr #3

0000392c <l3533>:
    392c:	e2884be3 	add	r4, r8, #232448	; 0x38c00

00003930 <l3534>:
    3930:	ea000003 	b	3944 <l3539>

00003934 <l3535>:
    3934:	e28010bb 	add	r1, r0, #187	; 0xbb

00003938 <l3536>:
    3938:	e119000f 	tst	r9, pc

0000393c <l3537>:
    393c:	e0be3061 	adcs	r3, lr, r1, rrx

00003940 <l3538>:
    3940:	ea000000 	b	3948 <l3540>

00003944 <l3539>:
    3944:	eafffffb 	b	3938 <l3536>

00003948 <l3540>:
    3948:	933b061d 	teqls	fp, #30408704	; 0x1d00000

0000394c <l3541>:
    394c:	d39343c9 	orrsle	r4, r3, #603979779	; 0x24000003

00003950 <l3542>:
    3950:	e0206332 	eor	r6, r0, r2, lsr r3

00003954 <l3543>:
    3954:	e3a0c008 	mov	ip, #8

00003958 <l3544>:
    3958:	e7ad900c 	str	r9, [sp, ip]!

0000395c <l3545>:
    395c:	913c0211 	teqls	ip, r1, lsl r2

00003960 <l3546>:
    3960:	e1720315 	cmn	r2, r5, lsl r3

00003964 <l3547>:
    3964:	20e95b53 	rsccs	r5, r9, r3, asr fp

00003968 <l3548>:
    3968:	e3b03d0e 	movs	r3, #896	; 0x380

0000396c <l3549>:
    396c:	30dc0e73 	sbcscc	r0, ip, r3, ror lr

00003970 <l3550>:
    3970:	e5bd9027 	ldr	r9, [sp, #39]!	; 0x27

00003974 <l3551>:
    3974:	ea000005 	b	3990 <l3558>

00003978 <l3552>:
    3978:	43c51445 	bicmi	r1, r5, #1157627904	; 0x45000000

0000397c <l3553>:
    397c:	816f5f1e 	clzhi	r5, lr

00003980 <l3554>:
    3980:	c1320b30 	teqgt	r2, r0, lsr fp

00003984 <l3555>:
    3984:	e1100666 	tst	r0, r6, ror #12

00003988 <l3556>:
    3988:	a0ba1012 	adcsge	r1, sl, r2, lsl r0

0000398c <l3557>:
    398c:	b055a005 	subslt	sl, r5, r5

00003990 <l3558>:
    3990:	701fc008 	andsvc	ip, pc, r8

00003994 <l3559>:
    3994:	e155000e 	cmp	r5, lr

00003998 <l3560>:
    3998:	2a000005 	bcs	39b4 <l3567>

0000399c <l3561>:
    399c:	e28010a6 	add	r1, r0, #166	; 0xa6

000039a0 <l3562>:
    39a0:	e1750002 	cmn	r5, r2

000039a4 <l3563>:
    39a4:	e2fe53e6 	rscs	r5, lr, #-1744830461	; 0x98000003

000039a8 <l3564>:
    39a8:	d0195413 	andsle	r5, r9, r3, lsl r4

000039ac <l3565>:
    39ac:	e1190069 	tst	r9, r9, rrx

000039b0 <l3566>:
    39b0:	ea000000 	b	39b8 <l3568>

000039b4 <l3567>:
    39b4:	eafffff9 	b	39a0 <l3562>

000039b8 <l3568>:
    39b8:	900a900e 	andls	r9, sl, lr

000039bc <l3569>:
    39bc:	203e5008 	eorscs	r5, lr, r8

000039c0 <l3570>:
    39c0:	e1f0e576 	mvns	lr, r6, ror r5

000039c4 <l3571>:
    39c4:	ea000006 	b	39e4 <l3579>

000039c8 <l3572>:
    39c8:	e280106e 	add	r1, r0, #110	; 0x6e

000039cc <l3573>:
    39cc:	32bf44d3 	adcscc	r4, pc, #-754974720	; 0xd3000000

000039d0 <l3574>:
    39d0:	e1160005 	tst	r6, r5

000039d4 <l3575>:
    39d4:	e111000b 	tst	r1, fp

000039d8 <l3576>:
    39d8:	e029c575 	eor	ip, r9, r5, ror r5

000039dc <l3577>:
    39dc:	408a2b50 	addmi	r2, sl, r0, asr fp

000039e0 <l3578>:
    39e0:	ea000000 	b	39e8 <l3580>

000039e4 <l3579>:
    39e4:	eafffff8 	b	39cc <l3573>

000039e8 <l3580>:
    39e8:	ea000005 	b	3a04 <l3587>

000039ec <l3581>:
    39ec:	90022064 	andls	r2, r2, r4, rrx

000039f0 <l3582>:
    39f0:	e0f1c003 	rscs	ip, r1, r3

000039f4 <l3583>:
    39f4:	72624b16 	rsbvc	r4, r2, #22528	; 0x5800

000039f8 <l3584>:
    39f8:	2010cc38 	andscs	ip, r0, r8, lsr ip

000039fc <l3585>:
    39fc:	81a031c0 	asrhi	r3, r0, #3

00003a00 <l3586>:
    3a00:	b1a096ee 	rorlt	r9, lr, #13

00003a04 <l3587>:
    3a04:	e04030c8 	sub	r3, r0, r8, asr #1

00003a08 <l3588>:
    3a08:	9111000c 	tstls	r1, ip

00003a0c <l3589>:
    3a0c:	e1520b17 	cmp	r2, r7, lsl fp

00003a10 <l3590>:
    3a10:	c247a2c1 	subgt	sl, r7, #268435468	; 0x1000000c

00003a14 <l3591>:
    3a14:	90eba066 	rscls	sl, fp, r6, rrx

00003a18 <l3592>:
    3a18:	e019e051 	ands	lr, r9, r1, asr r0

00003a1c <l3593>:
    3a1c:	1affffff 	bne	3a20 <l3594>

00003a20 <l3594>:
    3a20:	92129717 	andsls	r9, r2, #6029312	; 0x5c0000

00003a24 <l3595>:
    3a24:	e11c000a 	tst	ip, sl

00003a28 <l3596>:
    3a28:	403f898e 	eorsmi	r8, pc, lr, lsl #19

00003a2c <l3597>:
    3a2c:	e0039571 	and	r9, r3, r1, ror r5

00003a30 <l3598>:
    3a30:	b16fbf1a 	clzlt	fp, sl

00003a34 <l3599>:
    3a34:	c0748000 	rsbsgt	r8, r4, r0

00003a38 <l3600>:
    3a38:	40fc7005 	rscsmi	r7, ip, r5

00003a3c <l3601>:
    3a3c:	c050b00e 	subsgt	fp, r0, lr

00003a40 <l3602>:
    3a40:	a38a292d 	orrge	r2, sl, #737280	; 0xb4000

00003a44 <l3603>:
    3a44:	916fef1c 	clzls	lr, ip

00003a48 <l3604>:
    3a48:	b0525a50 	subslt	r5, r2, r0, asr sl

00003a4c <l3605>:
    3a4c:	4a000003 	bmi	3a60 <l3610>

00003a50 <l3606>:
    3a50:	e2801001 	add	r1, r0, #1

00003a54 <l3607>:
    3a54:	e15c074c 	cmp	ip, ip, asr #14

00003a58 <l3608>:
    3a58:	e0b5800a 	adcs	r8, r5, sl

00003a5c <l3609>:
    3a5c:	ea000000 	b	3a64 <l3611>

00003a60 <l3610>:
    3a60:	eafffffb 	b	3a54 <l3607>

00003a64 <l3611>:
    3a64:	a0592a71 	subsge	r2, r9, r1, ror sl

00003a68 <l3612>:
    3a68:	70568062 	subsvc	r8, r6, r2, rrx

00003a6c <l3613>:
    3a6c:	43750018 	cmnmi	r5, #24

00003a70 <l3614>:
    3a70:	e15c0002 	cmp	ip, r2

00003a74 <l3615>:
    3a74:	e1c88068 	bic	r8, r8, r8, rrx

00003a78 <l3616>:
    3a78:	ea000005 	b	3a94 <l3623>

00003a7c <l3617>:
    3a7c:	e2801092 	add	r1, r0, #146	; 0x92

00003a80 <l3618>:
    3a80:	40fca54a 	rscsmi	sl, ip, sl, asr #10

00003a84 <l3619>:
    3a84:	30ee106b 	rsccc	r1, lr, fp, rrx

00003a88 <l3620>:
    3a88:	e16f2f15 	clz	r2, r5

00003a8c <l3621>:
    3a8c:	6045ba1b 	subvs	fp, r5, fp, lsl sl

00003a90 <l3622>:
    3a90:	ea000000 	b	3a98 <l3624>

00003a94 <l3623>:
    3a94:	eafffff9 	b	3a80 <l3618>

00003a98 <l3624>:
    3a98:	20fe5959 	rscscs	r5, lr, r9, asr r9

00003a9c <l3625>:
    3a9c:	23f0e213 	mvnscs	lr, #805306369	; 0x30000001

00003aa0 <l3626>:
    3aa0:	e0f43063 	rscs	r3, r4, r3, rrx

00003aa4 <l3627>:
    3aa4:	e06a85a4 	rsb	r8, sl, r4, lsr #11

00003aa8 <l3628>:
    3aa8:	e062bb39 	rsb	fp, r2, r9, lsr fp

00003aac <l3629>:
    3aac:	a1b03eea 	rorsge	r3, sl, #29

00003ab0 <l3630>:
    3ab0:	e33508f7 	teq	r5, #16187392	; 0xf70000

00003ab4 <l3631>:
    3ab4:	4a000005 	bmi	3ad0 <l3638>

00003ab8 <l3632>:
    3ab8:	92bf5e56 	adcsls	r5, pc, #1376	; 0x560

00003abc <l3633>:
    3abc:	e035c007 	eors	ip, r5, r7

00003ac0 <l3634>:
    3ac0:	c3f03003 	mvnsgt	r3, #3

00003ac4 <l3635>:
    3ac4:	e1790c38 	cmn	r9, r8, lsr ip

00003ac8 <l3636>:
    3ac8:	e1b0700a 	movs	r7, sl

00003acc <l3637>:
    3acc:	11c11530 	bicne	r1, r1, r0, lsr r5

00003ad0 <l3638>:
    3ad0:	c1a01515 	lslgt	r1, r5, r5

00003ad4 <l3639>:
    3ad4:	41e05007 	mvnmi	r5, r7

00003ad8 <l3640>:
    3ad8:	80a3cd6b 	adchi	ip, r3, fp, ror #26

00003adc <l3641>:
    3adc:	00203007 	eoreq	r3, r0, r7

00003ae0 <l3642>:
    3ae0:	e17c0204 	cmn	ip, r4, lsl #4

00003ae4 <l3643>:
    3ae4:	e0f8aecb 	rscs	sl, r8, fp, asr #29

00003ae8 <l3644>:
    3ae8:	d0497337 	suble	r7, r9, r7, lsr r3

00003aec <l3645>:
    3aec:	e18c1337 	orr	r1, ip, r7, lsr r3

00003af0 <l3646>:
    3af0:	e3919d1e 	orrs	r9, r1, #1920	; 0x780

00003af4 <l3647>:
    3af4:	e0993c30 	adds	r3, r9, r0, lsr ip

00003af8 <l3648>:
    3af8:	53360e8d 	teqpl	r6, #2256	; 0x8d0

00003afc <l3649>:
    3afc:	e0ab6000 	adc	r6, fp, r0

00003b00 <l3650>:
    3b00:	10c61b43 	sbcne	r1, r6, r3, asr #22

00003b04 <l3651>:
    3b04:	c1300da1 	teqgt	r0, r1, lsr #27

00003b08 <l3652>:
    3b08:	e1500508 	cmp	r0, r8, lsl #10

00003b0c <l3653>:
    3b0c:	ea000004 	b	3b24 <l3659>

00003b10 <l3654>:
    3b10:	e28010c3 	add	r1, r0, #195	; 0xc3

00003b14 <l3655>:
    3b14:	a084c06a 	addge	ip, r4, sl, rrx

00003b18 <l3656>:
    3b18:	21a01c0e 	lslcs	r1, lr, #24

00003b1c <l3657>:
    3b1c:	c1a05d0b 	lslgt	r5, fp, #26

00003b20 <l3658>:
    3b20:	ea000000 	b	3b28 <l3660>

00003b24 <l3659>:
    3b24:	eafffffa 	b	3b14 <l3655>

00003b28 <l3660>:
    3b28:	925c02aa 	subsls	r0, ip, #-1610612726	; 0xa000000a

00003b2c <l3661>:
    3b2c:	60c99977 	sbcvs	r9, r9, r7, ror r9

00003b30 <l3662>:
    3b30:	e11b0a58 	tst	fp, r8, asr sl

00003b34 <l3663>:
    3b34:	203eb008 	eorscs	fp, lr, r8

00003b38 <l3664>:
    3b38:	e0ef8ee9 	rsc	r8, pc, r9, ror #29

00003b3c <l3665>:
    3b3c:	e0761777 	rsbs	r1, r6, r7, ror r7

00003b40 <l3666>:
    3b40:	e228333f 	eor	r3, r8, #-67108864	; 0xfc000000

00003b44 <l3667>:
    3b44:	2a000000 	bcs	3b4c <l3669>

00003b48 <l3668>:
    3b48:	5058e651 	subspl	lr, r8, r1, asr r6

00003b4c <l3669>:
    3b4c:	e1e0c006 	mvn	ip, r6

00003b50 <l3670>:
    3b50:	108ab000 	addne	fp, sl, r0

00003b54 <l3671>:
    3b54:	ea000007 	b	3b78 <l3680>

00003b58 <l3672>:
    3b58:	e2801061 	add	r1, r0, #97	; 0x61

00003b5c <l3673>:
    3b5c:	01c8200e 	biceq	r2, r8, lr

00003b60 <l3674>:
    3b60:	51320060 	teqpl	r2, r0, rrx

00003b64 <l3675>:
    3b64:	e3b09953 	movs	r9, #1359872	; 0x14c000

00003b68 <l3676>:
    3b68:	00633005 	rsbeq	r3, r3, r5

00003b6c <l3677>:
    3b6c:	e1760bc8 	cmn	r6, r8, asr #23

00003b70 <l3678>:
    3b70:	90669c60 	rsbls	r9, r6, r0, ror #24

00003b74 <l3679>:
    3b74:	ea000000 	b	3b7c <l3681>

00003b78 <l3680>:
    3b78:	eafffff7 	b	3b5c <l3673>

00003b7c <l3681>:
    3b7c:	e3f06081 	mvns	r6, #129	; 0x81

00003b80 <l3682>:
    3b80:	e2e9952a 	rsc	r9, r9, #176160768	; 0xa800000

00003b84 <l3683>:
    3b84:	e0588361 	subs	r8, r8, r1, ror #6

00003b88 <l3684>:
    3b88:	2a000003 	bcs	3b9c <l3689>

00003b8c <l3685>:
    3b8c:	e2801080 	add	r1, r0, #128	; 0x80

00003b90 <l3686>:
    3b90:	e0d8800e 	sbcs	r8, r8, lr

00003b94 <l3687>:
    3b94:	122f5036 	eorne	r5, pc, #54	; 0x36

00003b98 <l3688>:
    3b98:	ea000000 	b	3ba0 <l3690>

00003b9c <l3689>:
    3b9c:	eafffffb 	b	3b90 <l3686>

00003ba0 <l3690>:
    3ba0:	23140427 	tstcs	r4, #654311424	; 0x27000000

00003ba4 <l3691>:
    3ba4:	4026b003 	eormi	fp, r6, r3

00003ba8 <l3692>:
    3ba8:	d0151655 	andsle	r1, r5, r5, asr r6

00003bac <l3693>:
    3bac:	e3a06001 	mov	r6, #1

00003bb0 <l3694>:
    3bb0:	a78d5006 	strge	r5, [sp, r6]

00003bb4 <l3695>:
    3bb4:	b158000c 	cmplt	r8, ip

00003bb8 <l3696>:
    3bb8:	416f0f15 	clzmi	r0, r5

00003bbc <l3697>:
    3bbc:	e16f5f1e 	clz	r5, lr

00003bc0 <l3698>:
    3bc0:	b173047e 	cmnlt	r3, lr, ror r4

00003bc4 <l3699>:
    3bc4:	b29208ca 	addslt	r0, r2, #13238272	; 0xca0000

00003bc8 <l3700>:
    3bc8:	700cc000 	andvc	ip, ip, r0

00003bcc <l3701>:
    3bcc:	d011c002 	andsle	ip, r1, r2

00003bd0 <l3702>:
    3bd0:	839a9d86 	orrshi	r9, sl, #8576	; 0x2180

00003bd4 <l3703>:
    3bd4:	626fe816 	rsbvs	lr, pc, #1441792	; 0x160000

00003bd8 <l3704>:
    3bd8:	e38ab2af 	orr	fp, sl, #-268435446	; 0xf000000a

00003bdc <l3705>:
    3bdc:	aa000004 	bge	3bf4 <l3711>

00003be0 <l3706>:
    3be0:	e2801026 	add	r1, r0, #38	; 0x26

00003be4 <l3707>:
    3be4:	30de7006 	sbcscc	r7, lr, r6

00003be8 <l3708>:
    3be8:	e2484ed9 	sub	r4, r8, #3472	; 0xd90

00003bec <l3709>:
    3bec:	41b00d6e 	rorsmi	r0, lr, #26

00003bf0 <l3710>:
    3bf0:	ea000000 	b	3bf8 <l3712>

00003bf4 <l3711>:
    3bf4:	eafffffa 	b	3be4 <l3707>

00003bf8 <l3712>:
    3bf8:	51340553 	teqpl	r4, r3, asr r5

00003bfc <l3713>:
    3bfc:	71ce3931 	bicvc	r3, lr, r1, lsr r9

00003c00 <l3714>:
    3c00:	019a4c6e 	orrseq	r4, sl, lr, ror #24

00003c04 <l3715>:
    3c04:	e5ad5011 	str	r5, [sp, #17]!

00003c08 <l3716>:
    3c08:	40ba400e 	adcsmi	r4, sl, lr

00003c0c <l3717>:
    3c0c:	e3f0ed8b 	mvns	lr, #8896	; 0x22c0

00003c10 <l3718>:
    3c10:	aa000002 	bge	3c20 <l3722>

00003c14 <l3719>:
    3c14:	e111000c 	tst	r1, ip

00003c18 <l3720>:
    3c18:	b38f2c3b 	orrlt	r2, pc, #15104	; 0x3b00

00003c1c <l3721>:
    3c1c:	b1720c13 	cmnlt	r2, r3, lsl ip

00003c20 <l3722>:
    3c20:	016f2f15 	clzeq	r2, r5

00003c24 <l3723>:
    3c24:	0041e969 	subeq	lr, r1, r9, ror #18

00003c28 <l3724>:
    3c28:	03a024be 	moveq	r2, #-1107296256	; 0xbe000000

00003c2c <l3725>:
    3c2c:	40be9dcc 	adcsmi	r9, lr, ip, asr #27

00003c30 <l3726>:
    3c30:	e02bb4cf 	eor	fp, fp, pc, asr #9

00003c34 <l3727>:
    3c34:	d39585c5 	orrsle	r8, r5, #826277888	; 0x31400000

00003c38 <l3728>:
    3c38:	e03ae008 	eors	lr, sl, r8

00003c3c <l3729>:
    3c3c:	8a000004 	bhi	3c54 <l3735>

00003c40 <l3730>:
    3c40:	e2801045 	add	r1, r0, #69	; 0x45

00003c44 <l3731>:
    3c44:	c1f0806a 	mvnsgt	r8, sl, rrx

00003c48 <l3732>:
    3c48:	10a2100b 	adcne	r1, r2, fp

00003c4c <l3733>:
    3c4c:	b02b8802 	eorlt	r8, fp, r2, lsl #16

00003c50 <l3734>:
    3c50:	ea000000 	b	3c58 <l3736>

00003c54 <l3735>:
    3c54:	eafffffa 	b	3c44 <l3731>

00003c58 <l3736>:
    3c58:	11a04909 	lslne	r4, r9, #18

00003c5c <l3737>:
    3c5c:	e3d27629 	bics	r7, r2, #42991616	; 0x2900000

00003c60 <l3738>:
    3c60:	e1f0067c 	mvns	r0, ip, ror r6

00003c64 <l3739>:
    3c64:	80c86b5e 	sbchi	r6, r8, lr, asr fp

00003c68 <l3740>:
    3c68:	ea000002 	b	3c78 <l3744>

00003c6c <l3741>:
    3c6c:	e2801005 	add	r1, r0, #5

00003c70 <l3742>:
    3c70:	b16fef1e 	clzlt	lr, lr

00003c74 <l3743>:
    3c74:	ea000000 	b	3c7c <l3745>

00003c78 <l3744>:
    3c78:	eafffffc 	b	3c70 <l3742>

00003c7c <l3745>:
    3c7c:	e1a0c004 	mov	ip, r4

00003c80 <l3746>:
    3c80:	e3c23823 	bic	r3, r2, #2293760	; 0x230000

00003c84 <l3747>:
    3c84:	22ce0dee 	sbccs	r0, lr, #15232	; 0x3b80

00003c88 <l3748>:
    3c88:	e1c51771 	bic	r1, r5, r1, ror r7

00003c8c <l3749>:
    3c8c:	939486be 	orrsls	r8, r4, #199229440	; 0xbe00000

00003c90 <l3750>:
    3c90:	1137006f 	teqne	r7, pc, rrx

00003c94 <l3751>:
    3c94:	b3180351 	tstlt	r8, #1140850689	; 0x44000001

00003c98 <l3752>:
    3c98:	9133001b 	teqls	r3, fp, lsl r0

00003c9c <l3753>:
    3c9c:	d04b1834 	suble	r1, fp, r4, lsr r8

00003ca0 <l3754>:
    3ca0:	e00a4c6f 	and	r4, sl, pc, ror #24

00003ca4 <l3755>:
    3ca4:	e01be474 	ands	lr, fp, r4, ror r4

00003ca8 <l3756>:
    3ca8:	a0879b1e 	addge	r9, r7, lr, lsl fp

00003cac <l3757>:
    3cac:	c0d1ac14 	sbcsgt	sl, r1, r4, lsl ip

00003cb0 <l3758>:
    3cb0:	e017800a 	ands	r8, r7, sl

00003cb4 <l3759>:
    3cb4:	ea000002 	b	3cc4 <l3763>

00003cb8 <l3760>:
    3cb8:	e2801073 	add	r1, r0, #115	; 0x73

00003cbc <l3761>:
    3cbc:	91150065 	tstls	r5, r5, rrx

00003cc0 <l3762>:
    3cc0:	ea000000 	b	3cc8 <l3764>

00003cc4 <l3763>:
    3cc4:	eafffffc 	b	3cbc <l3761>

00003cc8 <l3764>:
    3cc8:	e0b55a58 	adcs	r5, r5, r8, asr sl

00003ccc <l3765>:
    3ccc:	ea000006 	b	3cec <l3773>

00003cd0 <l3766>:
    3cd0:	e2801001 	add	r1, r0, #1

00003cd4 <l3767>:
    3cd4:	c0f0a00f 	rscsgt	sl, r0, pc

00003cd8 <l3768>:
    3cd8:	e16f9f10 	clz	r9, r0

00003cdc <l3769>:
    3cdc:	10103431 	andsne	r3, r0, r1, lsr r4

00003ce0 <l3770>:
    3ce0:	b2fcea5b 	rscslt	lr, ip, #372736	; 0x5b000

00003ce4 <l3771>:
    3ce4:	e1e0c009 	mvn	ip, r9

00003ce8 <l3772>:
    3ce8:	ea000000 	b	3cf0 <l3774>

00003cec <l3773>:
    3cec:	eafffff8 	b	3cd4 <l3767>

00003cf0 <l3774>:
    3cf0:	d0278e1c 	eorle	r8, r7, ip, lsl lr

00003cf4 <l3775>:
    3cf4:	e0d56575 	sbcs	r6, r5, r5, ror r5

00003cf8 <l3776>:
    3cf8:	4002cdcc 	andmi	ip, r2, ip, asr #27

00003cfc <l3777>:
    3cfc:	b1d16060 	bicslt	r6, r1, r0, rrx

00003d00 <l3778>:
    3d00:	93d27885 	bicsls	r7, r2, #8716288	; 0x850000

00003d04 <l3779>:
    3d04:	121412fb 	andsne	r1, r4, #-1342177265	; 0xb000000f

00003d08 <l3780>:
    3d08:	00e38186 	rsceq	r8, r3, r6, lsl #3

00003d0c <l3781>:
    3d0c:	d0f40005 	rscsle	r0, r4, r5

00003d10 <l3782>:
    3d10:	31160004 	tstcc	r6, r4

00003d14 <l3783>:
    3d14:	7a000006 	bvc	3d34 <l3791>

00003d18 <l3784>:
    3d18:	e15c09ee 	cmp	ip, lr, ror #19

00003d1c <l3785>:
    3d1c:	12098816 	andne	r8, r9, #1441792	; 0x160000

00003d20 <l3786>:
    3d20:	e172071b 	cmn	r2, fp, lsl r7

00003d24 <l3787>:
    3d24:	e1190004 	tst	r9, r4

00003d28 <l3788>:
    3d28:	e1f0ae77 	mvns	sl, r7, ror lr

00003d2c <l3789>:
    3d2c:	9014144f 	andsls	r1, r4, pc, asr #8

00003d30 <l3790>:
    3d30:	30436005 	subcc	r6, r3, r5

00003d34 <l3791>:
    3d34:	81150e15 	tsthi	r5, r5, lsl lr

00003d38 <l3792>:
    3d38:	e28c2a17 	add	r2, ip, #94208	; 0x17000

00003d3c <l3793>:
    3d3c:	b049900a 	sublt	r9, r9, sl

00003d40 <l3794>:
    3d40:	602b940f 	eorvs	r9, fp, pc, lsl #8

00003d44 <l3795>:
    3d44:	e16f3f1c 	clz	r3, ip

00003d48 <l3796>:
    3d48:	a3520bfb 	cmpge	r2, #257024	; 0x3ec00

00003d4c <l3797>:
    3d4c:	73a0a55f 	movvc	sl, #398458880	; 0x17c00000

00003d50 <l3798>:
    3d50:	e1c18772 	bic	r8, r1, r2, ror r7

00003d54 <l3799>:
    3d54:	0076e3a9 	rsbseq	lr, r6, r9, lsr #7

00003d58 <l3800>:
    3d58:	e113000e 	tst	r3, lr

00003d5c <l3801>:
    3d5c:	e04f106f 	sub	r1, pc, pc, rrx

00003d60 <l3802>:
    3d60:	613c0009 	teqvs	ip, r9

00003d64 <l3803>:
    3d64:	315b024e 	cmpcc	fp, lr, asr #4

00003d68 <l3804>:
    3d68:	e0585350 	subs	r5, r8, r0, asr r3

00003d6c <l3805>:
    3d6c:	216f4f15 	clzcs	r4, r5

00003d70 <l3806>:
    3d70:	e3b0132e 	movs	r1, #-1207959552	; 0xb8000000

00003d74 <l3807>:
    3d74:	03540206 	cmpeq	r4, #1610612736	; 0x60000000

00003d78 <l3808>:
    3d78:	403b236a 	eorsmi	r2, fp, sl, ror #6

00003d7c <l3809>:
    3d7c:	ea000001 	b	3d88 <l3812>

00003d80 <l3810>:
    3d80:	31c4b749 	biccc	fp, r4, r9, asr #14

00003d84 <l3811>:
    3d84:	e18399ea 	orr	r9, r3, sl, ror #19

00003d88 <l3812>:
    3d88:	e076866b 	rsbs	r8, r6, fp, ror #12

00003d8c <l3813>:
    3d8c:	e1e0c06b 	mvn	ip, fp, rrx

00003d90 <l3814>:
    3d90:	106c5b0b 	rsbne	r5, ip, fp, lsl #22

00003d94 <l3815>:
    3d94:	31760853 	cmncc	r6, r3, asr r8

00003d98 <l3816>:
    3d98:	e248960f 	sub	r9, r8, #15728640	; 0xf00000

00003d9c <l3817>:
    3d9c:	e0541fe0 	subs	r1, r4, r0, ror #31

00003da0 <l3818>:
    3da0:	316f6f1b 	clzcc	r6, fp

00003da4 <l3819>:
    3da4:	e08a4c44 	add	r4, sl, r4, asr #24

00003da8 <l3820>:
    3da8:	50598271 	subspl	r8, r9, r1, ror r2

00003dac <l3821>:
    3dac:	6a000001 	bvs	3db8 <l3824>

00003db0 <l3822>:
    3db0:	e1d6543b 	bics	r5, r6, fp, lsr r4

00003db4 <l3823>:
    3db4:	e3994b0b 	orrs	r4, r9, #11264	; 0x2c00

00003db8 <l3824>:
    3db8:	e3df402b 	bics	r4, pc, #43	; 0x2b

00003dbc <l3825>:
    3dbc:	80f81339 	rscshi	r1, r8, r9, lsr r3

00003dc0 <l3826>:
    3dc0:	e3a0501c 	mov	r5, #28

00003dc4 <l3827>:
    3dc4:	e60df005 	str	pc, [sp], -r5

00003dc8 <l3828>:
    3dc8:	b399953b 	orrslt	r9, r9, #247463936	; 0xec00000

00003dcc <l3829>:
    3dcc:	da000006 	ble	3dec <l3837>

00003dd0 <l3830>:
    3dd0:	e28010c7 	add	r1, r0, #199	; 0xc7

00003dd4 <l3831>:
    3dd4:	8214e91a 	andshi	lr, r4, #425984	; 0x68000

00003dd8 <l3832>:
    3dd8:	e01c343c 	ands	r3, ip, ip, lsr r4

00003ddc <l3833>:
    3ddc:	e1e041e6 	mvn	r4, r6, ror #3

00003de0 <l3834>:
    3de0:	e09ac976 	adds	ip, sl, r6, ror r9

00003de4 <l3835>:
    3de4:	915a000e 	cmpls	sl, lr

00003de8 <l3836>:
    3de8:	ea000000 	b	3df0 <l3838>

00003dec <l3837>:
    3dec:	eafffff8 	b	3dd4 <l3831>

00003df0 <l3838>:
    3df0:	e1a08067 	rrx	r8, r7

00003df4 <l3839>:
    3df4:	e13e0039 	teq	lr, r9, lsr r0

00003df8 <l3840>:
    3df8:	e3a05000 	mov	r5, #0

00003dfc <l3841>:
    3dfc:	e7adf005 	str	pc, [sp, r5]!

00003e00 <l3842>:
    3e00:	e35f02a6 	cmp	pc, #1610612746	; 0x6000000a

00003e04 <l3843>:
    3e04:	e0e5795e 	rsc	r7, r5, lr, asr r9

00003e08 <l3844>:
    3e08:	e030e969 	eors	lr, r0, r9, ror #18

00003e0c <l3845>:
    3e0c:	caffffff 	bgt	3e10 <l3846>

00003e10 <l3846>:
    3e10:	d05ce007 	subsle	lr, ip, r7

00003e14 <l3847>:
    3e14:	e53da01d 	ldr	sl, [sp, #-29]!

00003e18 <l3848>:
    3e18:	e178087c 	cmn	r8, ip, ror r8

00003e1c <l3849>:
    3e1c:	10f83060 	rscsne	r3, r8, r0, rrx

00003e20 <l3850>:
    3e20:	da000006 	ble	3e40 <l3858>

00003e24 <l3851>:
    3e24:	e2801034 	add	r1, r0, #52	; 0x34

00003e28 <l3852>:
    3e28:	21a03000 	movcs	r3, r0

00003e2c <l3853>:
    3e2c:	70f5c00f 	rscsvc	ip, r5, pc

00003e30 <l3854>:
    3e30:	e2af6603 	adc	r6, pc, #3145728	; 0x300000

00003e34 <l3855>:
    3e34:	b0574001 	subslt	r4, r7, r1

00003e38 <l3856>:
    3e38:	e139006e 	teq	r9, lr, rrx

00003e3c <l3857>:
    3e3c:	ea000000 	b	3e44 <l3859>

00003e40 <l3858>:
    3e40:	eafffff8 	b	3e28 <l3852>

00003e44 <l3859>:
    3e44:	ea000007 	b	3e68 <l3868>

00003e48 <l3860>:
    3e48:	70938062 	addsvc	r8, r3, r2, rrx

00003e4c <l3861>:
    3e4c:	435e0005 	cmpmi	lr, #5

00003e50 <l3862>:
    3e50:	e2bb95a7 	adcs	r9, fp, #700448768	; 0x29c00000

00003e54 <l3863>:
    3e54:	e3710502 	cmn	r1, #8388608	; 0x800000

00003e58 <l3864>:
    3e58:	e0ab6b34 	adc	r6, fp, r4, lsr fp

00003e5c <l3865>:
    3e5c:	e2d543f6 	sbcs	r4, r5, #-671088637	; 0xd8000003

00003e60 <l3866>:
    3e60:	e215470a 	ands	r4, r5, #2621440	; 0x280000

00003e64 <l3867>:
    3e64:	717a0013 	cmnvc	sl, r3, lsl r0

00003e68 <l3868>:
    3e68:	224cb512 	subcs	fp, ip, #75497472	; 0x4800000

00003e6c <l3869>:
    3e6c:	e0362634 	eors	r2, r6, r4, lsr r6

00003e70 <l3870>:
    3e70:	e3a0701c 	mov	r7, #28

00003e74 <l3871>:
    3e74:	e7bd2007 	ldr	r2, [sp, r7]!

00003e78 <l3872>:
    3e78:	e00c300a 	and	r3, ip, sl

00003e7c <l3873>:
    3e7c:	21f08060 	mvnscs	r8, r0, rrx

00003e80 <l3874>:
    3e80:	c186663e 	orrgt	r6, r6, lr, lsr r6

00003e84 <l3875>:
    3e84:	60860871 	addvs	r0, r6, r1, ror r8

00003e88 <l3876>:
    3e88:	e48db005 	str	fp, [sp], #5

00003e8c <l3877>:
    3e8c:	e1cce062 	bic	lr, ip, r2, rrx

00003e90 <l3878>:
    3e90:	b22bbf5b 	eorlt	fp, fp, #364	; 0x16c

00003e94 <l3879>:
    3e94:	e06c3112 	rsb	r3, ip, r2, lsl r1

00003e98 <l3880>:
    3e98:	ea000005 	b	3eb4 <l3887>

00003e9c <l3881>:
    3e9c:	e2801030 	add	r1, r0, #48	; 0x30

00003ea0 <l3882>:
    3ea0:	d02ee068 	eorle	lr, lr, r8, rrx

00003ea4 <l3883>:
    3ea4:	e249b626 	sub	fp, r9, #39845888	; 0x2600000

00003ea8 <l3884>:
    3ea8:	2076ec27 	rsbscs	lr, r6, r7, lsr #24

00003eac <l3885>:
    3eac:	a085473e 	addge	r4, r5, lr, lsr r7

00003eb0 <l3886>:
    3eb0:	ea000000 	b	3eb8 <l3888>

00003eb4 <l3887>:
    3eb4:	eafffff9 	b	3ea0 <l3882>

00003eb8 <l3888>:
    3eb8:	e15b0009 	cmp	fp, r9

00003ebc <l3889>:
    3ebc:	91c48fcb 	bicls	r8, r4, fp, asr #31

00003ec0 <l3890>:
    3ec0:	750d201c 	strvc	r2, [sp, #-28]

00003ec4 <l3891>:
    3ec4:	d256560a 	subsle	r5, r6, #10485760	; 0xa00000

00003ec8 <l3892>:
    3ec8:	2139017a 	teqcs	r9, sl, ror r1

00003ecc <l3893>:
    3ecc:	21b00741 	asrscs	r0, r1, #14

00003ed0 <l3894>:
    3ed0:	c1e0b00b 	mvngt	fp, fp

00003ed4 <l3895>:
    3ed4:	d0542008 	subsle	r2, r4, r8

00003ed8 <l3896>:
    3ed8:	e19cb508 	orrs	fp, ip, r8, lsl #10

00003edc <l3897>:
    3edc:	c1ca7152 	bicgt	r7, sl, r2, asr r1

00003ee0 <l3898>:
    3ee0:	e07cc067 	rsbs	ip, ip, r7, rrx

00003ee4 <l3899>:
    3ee4:	e09ab00b 	adds	fp, sl, fp

00003ee8 <l3900>:
    3ee8:	71955066 	orrsvc	r5, r5, r6, rrx

00003eec <l3901>:
    3eec:	8a000006 	bhi	3f0c <l3909>

00003ef0 <l3902>:
    3ef0:	e28010c1 	add	r1, r0, #193	; 0xc1

00003ef4 <l3903>:
    3ef4:	60f91064 	rscsvs	r1, r9, r4, rrx

00003ef8 <l3904>:
    3ef8:	1113000e 	tstne	r3, lr

00003efc <l3905>:
    3efc:	e35c0183 	cmp	ip, #-1073741792	; 0xc0000020

00003f00 <l3906>:
    3f00:	e172006b 	cmn	r2, fp, rrx

00003f04 <l3907>:
    3f04:	326b3549 	rsbcc	r3, fp, #306184192	; 0x12400000

00003f08 <l3908>:
    3f08:	ea000000 	b	3f10 <l3910>

00003f0c <l3909>:
    3f0c:	eafffff8 	b	3ef4 <l3903>

00003f10 <l3910>:
    3f10:	e17401c1 	cmn	r4, r1, asr #3

00003f14 <l3911>:
    3f14:	e3a0501c 	mov	r5, #28

00003f18 <l3912>:
    3f18:	e72dc005 	str	ip, [sp, -r5]!

00003f1c <l3913>:
    3f1c:	e1c87c60 	bic	r7, r8, r0, ror #24

00003f20 <l3914>:
    3f20:	8155037c 	cmphi	r5, ip, ror r3

00003f24 <l3915>:
    3f24:	9a000005 	bls	3f40 <l3922>

00003f28 <l3916>:
    3f28:	e2801036 	add	r1, r0, #54	; 0x36

00003f2c <l3917>:
    3f2c:	218336a4 	orrcs	r3, r3, r4, lsr #13

00003f30 <l3918>:
    3f30:	00389002 	eorseq	r9, r8, r2

00003f34 <l3919>:
    3f34:	d060832a 	rsble	r8, r0, sl, lsr #6

00003f38 <l3920>:
    3f38:	e16fbf19 	clz	fp, r9

00003f3c <l3921>:
    3f3c:	ea000000 	b	3f44 <l3923>

00003f40 <l3922>:
    3f40:	eafffff9 	b	3f2c <l3917>

00003f44 <l3923>:
    3f44:	e21823b9 	ands	r2, r8, #-469762046	; 0xe4000002

00003f48 <l3924>:
    3f48:	e1d4eae5 	bics	lr, r4, r5, ror #21

00003f4c <l3925>:
    3f4c:	6172053b 	cmnvs	r2, fp, lsr r5

00003f50 <l3926>:
    3f50:	e0a7e751 	adc	lr, r7, r1, asr r7

00003f54 <l3927>:
    3f54:	90976061 	addsls	r6, r7, r1, rrx

00003f58 <l3928>:
    3f58:	ea000006 	b	3f78 <l3936>

00003f5c <l3929>:
    3f5c:	e280105d 	add	r1, r0, #93	; 0x5d

00003f60 <l3930>:
    3f60:	c0fe9b18 	rscsgt	r9, lr, r8, lsl fp

00003f64 <l3931>:
    3f64:	e1d31002 	bics	r1, r3, r2

00003f68 <l3932>:
    3f68:	00accd24 	adceq	ip, ip, r4, lsr #26

00003f6c <l3933>:
    3f6c:	43e0c5ae 	mvnmi	ip, #729808896	; 0x2b800000

00003f70 <l3934>:
    3f70:	e210239b 	ands	r2, r0, #1811939330	; 0x6c000002

00003f74 <l3935>:
    3f74:	ea000000 	b	3f7c <l3937>

00003f78 <l3936>:
    3f78:	eafffff8 	b	3f60 <l3930>

00003f7c <l3937>:
    3f7c:	518ac068 	orrpl	ip, sl, r8, rrx

00003f80 <l3938>:
    3f80:	9a000007 	bls	3fa4 <l3947>

00003f84 <l3939>:
    3f84:	e280100a 	add	r1, r0, #10

00003f88 <l3940>:
    3f88:	e2fec36b 	rscs	ip, lr, #-1409286143	; 0xac000001

00003f8c <l3941>:
    3f8c:	e010100e 	ands	r1, r0, lr

00003f90 <l3942>:
    3f90:	e0959008 	adds	r9, r5, r8

00003f94 <l3943>:
    3f94:	70bb07e3 	adcsvc	r0, fp, r3, ror #15

00003f98 <l3944>:
    3f98:	e0823c76 	add	r3, r2, r6, ror ip

00003f9c <l3945>:
    3f9c:	40661006 	rsbmi	r1, r6, r6

00003fa0 <l3946>:
    3fa0:	ea000000 	b	3fa8 <l3948>

00003fa4 <l3947>:
    3fa4:	eafffff7 	b	3f88 <l3940>

00003fa8 <l3948>:
    3fa8:	538e5f6e 	orrpl	r5, lr, #440	; 0x1b8

00003fac <l3949>:
    3fac:	ea000002 	b	3fbc <l3953>

00003fb0 <l3950>:
    3fb0:	e280108a 	add	r1, r0, #138	; 0x8a

00003fb4 <l3951>:
    3fb4:	92e02699 	rscls	r2, r0, #160432128	; 0x9900000

00003fb8 <l3952>:
    3fb8:	ea000000 	b	3fc0 <l3954>

00003fbc <l3953>:
    3fbc:	eafffffc 	b	3fb4 <l3951>

00003fc0 <l3954>:
    3fc0:	ea000003 	b	3fd4 <l3959>

00003fc4 <l3955>:
    3fc4:	e280108e 	add	r1, r0, #142	; 0x8e

00003fc8 <l3956>:
    3fc8:	e3b02ee1 	movs	r2, #3600	; 0xe10

00003fcc <l3957>:
    3fcc:	e19b0111 	orrs	r0, fp, r1, lsl r1

00003fd0 <l3958>:
    3fd0:	ea000000 	b	3fd8 <l3960>

00003fd4 <l3959>:
    3fd4:	eafffffb 	b	3fc8 <l3956>

00003fd8 <l3960>:
    3fd8:	311b0e88 	tstcc	fp, r8, lsl #29

00003fdc <l3961>:
    3fdc:	71dc100b 	bicsvc	r1, ip, fp

00003fe0 <l3962>:
    3fe0:	c293e1ef 	addsgt	lr, r3, #-1073741765	; 0xc000003b

00003fe4 <l3963>:
    3fe4:	13340a32 	teqne	r4, #204800	; 0x32000

00003fe8 <l3964>:
    3fe8:	e1a01065 	rrx	r1, r5

00003fec <l3965>:
    3fec:	aa000007 	bge	4010 <l3974>

00003ff0 <l3966>:
    3ff0:	e28010b1 	add	r1, r0, #177	; 0xb1

00003ff4 <l3967>:
    3ff4:	e16f1f18 	clz	r1, r8

00003ff8 <l3968>:
    3ff8:	90bc2e76 	adcsls	r2, ip, r6, ror lr

00003ffc <l3969>:
    3ffc:	e155008e 	cmp	r5, lr, lsl #1

00004000 <l3970>:
    4000:	93907d96 	orrsls	r7, r0, #9600	; 0x2580

00004004 <l3971>:
    4004:	039155ed 	orrseq	r5, r1, #994050048	; 0x3b400000

00004008 <l3972>:
    4008:	e0a5068c 	adc	r0, r5, ip, lsl #13

0000400c <l3973>:
    400c:	ea000000 	b	4014 <l3975>

00004010 <l3974>:
    4010:	eafffff7 	b	3ff4 <l3967>

00004014 <l3975>:
    4014:	e3a07034 	mov	r7, #52	; 0x34

00004018 <l3976>:
    4018:	e78db007 	str	fp, [sp, r7]

0000401c <l3977>:
    401c:	e3e07a3a 	mvn	r7, #237568	; 0x3a000

00004020 <l3978>:
    4020:	e083a00a 	add	sl, r3, sl

00004024 <l3979>:
    4024:	505e1064 	subspl	r1, lr, r4, rrx

00004028 <l3980>:
    4028:	e1530862 	cmp	r3, r2, ror #16

0000402c <l3981>:
    402c:	e0d91d05 	sbcs	r1, r9, r5, lsl #26

00004030 <l3982>:
    4030:	e11b0001 	tst	fp, r1

00004034 <l3983>:
    4034:	e35e0633 	cmp	lr, #53477376	; 0x3300000

00004038 <l3984>:
    4038:	aa000004 	bge	4050 <l3990>

0000403c <l3985>:
    403c:	e1a09019 	lsl	r9, r9, r0

00004040 <l3986>:
    4040:	40975067 	addsmi	r5, r7, r7, rrx

00004044 <l3987>:
    4044:	e33b030b 	teq	fp, #738197504	; 0x2c000000

00004048 <l3988>:
    4048:	c012696f 	andsgt	r6, r2, pc, ror #18

0000404c <l3989>:
    404c:	e17a0218 	cmn	sl, r8, lsl r2

00004050 <l3990>:
    4050:	22136010 	andscs	r6, r3, #16

00004054 <l3991>:
    4054:	204a3357 	subcs	r3, sl, r7, asr r3

00004058 <l3992>:
    4058:	b0552060 	subslt	r2, r5, r0, rrx

0000405c <l3993>:
    405c:	805c6034 	subshi	r6, ip, r4, lsr r0

00004060 <l3994>:
    4060:	759de008 	ldrvc	lr, [sp, #8]

00004064 <l3995>:
    4064:	001e306e 	andseq	r3, lr, lr, rrx

00004068 <l3996>:
    4068:	c2d87f87 	sbcsgt	r7, r8, #540	; 0x21c

0000406c <l3997>:
    406c:	e1350007 	teq	r5, r7

00004070 <l3998>:
    4070:	d054c664 	subsle	ip, r4, r4, ror #12

00004074 <l3999>:
    4074:	91500004 	cmpls	r0, r4

00004078 <l4000>:
    4078:	ea000007 	b	409c <l4009>

0000407c <l4001>:
    407c:	d3370719 	teqle	r7, #6553600	; 0x640000

00004080 <l4002>:
    4080:	5033370c 	eorspl	r3, r3, ip, lsl #14

00004084 <l4003>:
    4084:	31a06210 	lslcc	r6, r0, r2

00004088 <l4004>:
    4088:	31730eaa 	cmncc	r3, sl, lsr #29

0000408c <l4005>:
    408c:	e1560068 	cmp	r6, r8, rrx

00004090 <l4006>:
    4090:	8066e330 	rsbhi	lr, r6, r0, lsr r3

00004094 <l4007>:
    4094:	e1790153 	cmn	r9, r3, asr r1

00004098 <l4008>:
    4098:	50950069 	addspl	r0, r5, r9, rrx

0000409c <l4009>:
    409c:	30f11e18 	rscscc	r1, r1, r8, lsl lr

000040a0 <l4010>:
    40a0:	e02ec0ce 	eor	ip, lr, lr, asr #1

000040a4 <l4011>:
    40a4:	e26bb23d 	rsb	fp, fp, #-805306365	; 0xd0000003

000040a8 <l4012>:
    40a8:	e1c4b062 	bic	fp, r4, r2, rrx

000040ac <l4013>:
    40ac:	8001300c 	andhi	r3, r1, ip

000040b0 <l4014>:
    40b0:	b155000c 	cmplt	r5, ip

000040b4 <l4015>:
    40b4:	53d41989 	bicspl	r1, r4, #2244608	; 0x224000

000040b8 <l4016>:
    40b8:	30b44626 	adcscc	r4, r4, r6, lsr #12

000040bc <l4017>:
    40bc:	21924e45 	orrscs	r4, r2, r5, asr #28

000040c0 <l4018>:
    40c0:	e38a0d06 	orr	r0, sl, #384	; 0x180

000040c4 <l4019>:
    40c4:	b1a0a8ef 	rorlt	sl, pc, #17

000040c8 <l4020>:
    40c8:	e58d4028 	str	r4, [sp, #40]	; 0x28

000040cc <l4021>:
    40cc:	e183a10b 	orr	sl, r3, fp, lsl #2

000040d0 <l4022>:
    40d0:	e0ff54c4 	rscs	r5, pc, r4, asr #9

000040d4 <l4023>:
    40d4:	e0ac200a 	adc	r2, ip, sl

000040d8 <l4024>:
    40d8:	ea000007 	b	40fc <l4033>

000040dc <l4025>:
    40dc:	b080174b 	addlt	r1, r0, fp, asr #14

000040e0 <l4026>:
    40e0:	e15a0007 	cmp	sl, r7

000040e4 <l4027>:
    40e4:	515504c9 	cmppl	r5, r9, asr #9

000040e8 <l4028>:
    40e8:	320190a7 	andcc	r9, r1, #167	; 0xa7

000040ec <l4029>:
    40ec:	23d611a9 	bicscs	r1, r6, #1073741866	; 0x4000002a

000040f0 <l4030>:
    40f0:	e38a0ee5 	orr	r0, sl, #3664	; 0xe50

000040f4 <l4031>:
    40f4:	b17a0b39 	cmnlt	sl, r9, lsr fp

000040f8 <l4032>:
    40f8:	e04b5459 	sub	r5, fp, r9, asr r4

000040fc <l4033>:
    40fc:	61a04309 	lslvs	r4, r9, #6

00004100 <l4034>:
    4100:	e0719067 	rsbs	r9, r1, r7, rrx

00004104 <l4035>:
    4104:	405443eb 	subsmi	r4, r4, fp, ror #7

00004108 <l4036>:
    4108:	e23ee24b 	eors	lr, lr, #-1342177276	; 0xb0000004

0000410c <l4037>:
    410c:	ea000004 	b	4124 <l4043>

00004110 <l4038>:
    4110:	e2801045 	add	r1, r0, #69	; 0x45

00004114 <l4039>:
    4114:	e17404ce 	cmn	r4, lr, asr #9

00004118 <l4040>:
    4118:	c07f6006 	rsbsgt	r6, pc, r6

0000411c <l4041>:
    411c:	a0164123 	andsge	r4, r6, r3, lsr #2

00004120 <l4042>:
    4120:	ea000000 	b	4128 <l4044>

00004124 <l4043>:
    4124:	eafffffa 	b	4114 <l4039>

00004128 <l4044>:
    4128:	e1e08648 	mvn	r8, r8, asr #12

0000412c <l4045>:
    412c:	e06c9a1e 	rsb	r9, ip, lr, lsl sl

00004130 <l4046>:
    4130:	ea000005 	b	414c <l4053>

00004134 <l4047>:
    4134:	31120062 	tstcc	r2, r2, rrx

00004138 <l4048>:
    4138:	e16f6f1a 	clz	r6, sl

0000413c <l4049>:
    413c:	e1770e45 	cmn	r7, r5, asr #28

00004140 <l4050>:
    4140:	71e0c002 	mvnvc	ip, r2

00004144 <l4051>:
    4144:	500e6005 	andpl	r6, lr, r5

00004148 <l4052>:
    4148:	e1a08007 	mov	r8, r7

0000414c <l4053>:
    414c:	e2414916 	sub	r4, r1, #360448	; 0x58000

00004150 <l4054>:
    4150:	016f8f14 	clzeq	r8, r4

00004154 <l4055>:
    4154:	433a00c0 	teqmi	sl, #192	; 0xc0

00004158 <l4056>:
    4158:	6a000007 	bvs	417c <l4065>

0000415c <l4057>:
    415c:	e111000b 	tst	r1, fp

00004160 <l4058>:
