
dpbwbm_5000.o:     file format elf32-littlearm


Disassembly of section .text:

00000000 <main>:
       0:	e05f000f 	subs	r0, pc, pc
       4:	e59fd000 	ldr	sp, [pc]	; c <val>
       8:	ea000000 	b	10 <next>

0000000c <val>:
       c:	000ffff0 	.word	0x000ffff0

00000010 <next>:
      10:	e59f1000 	ldr	r1, [pc]	; 18 <val1>
      14:	ea000000 	b	1c <next1>

00000018 <val1>:
      18:	3a59a6cc 	.word	0x3a59a6cc

0000001c <next1>:
      1c:	e59f2000 	ldr	r2, [pc]	; 24 <val2>
      20:	ea000000 	b	28 <next2>

00000024 <val2>:
      24:	8f1101a7 	.word	0x8f1101a7

00000028 <next2>:
      28:	e59f3000 	ldr	r3, [pc]	; 30 <val3>
      2c:	ea000000 	b	34 <next3>

00000030 <val3>:
      30:	da592971 	.word	0xda592971

00000034 <next3>:
      34:	e59f4000 	ldr	r4, [pc]	; 3c <val4>
      38:	ea000000 	b	40 <next4>

0000003c <val4>:
      3c:	c43a51ba 	.word	0xc43a51ba

00000040 <next4>:
      40:	e59f5000 	ldr	r5, [pc]	; 48 <val5>
      44:	ea000000 	b	4c <next5>

00000048 <val5>:
      48:	76829cbe 	.word	0x76829cbe

0000004c <next5>:
      4c:	e59f6000 	ldr	r6, [pc]	; 54 <val6>
      50:	ea000000 	b	58 <next6>

00000054 <val6>:
      54:	4fa3b3f9 	.word	0x4fa3b3f9

00000058 <next6>:
      58:	e59f7000 	ldr	r7, [pc]	; 60 <val7>
      5c:	ea000000 	b	64 <next7>

00000060 <val7>:
      60:	02ecf651 	.word	0x02ecf651

00000064 <next7>:
      64:	e59f8000 	ldr	r8, [pc]	; 6c <val8>
      68:	ea000000 	b	70 <next8>

0000006c <val8>:
      6c:	847c6cfd 	.word	0x847c6cfd

00000070 <next8>:
      70:	e59f9000 	ldr	r9, [pc]	; 78 <val9>
      74:	ea000000 	b	7c <next9>

00000078 <val9>:
      78:	4f09588d 	.word	0x4f09588d

0000007c <next9>:
      7c:	e59fa000 	ldr	sl, [pc]	; 84 <val10>
      80:	ea000000 	b	88 <next10>

00000084 <val10>:
      84:	64863821 	.word	0x64863821

00000088 <next10>:
      88:	e59fb000 	ldr	fp, [pc]	; 90 <val11>
      8c:	ea000000 	b	94 <next11>

00000090 <val11>:
      90:	ece41213 	.word	0xece41213

00000094 <next11>:
      94:	e59fc000 	ldr	ip, [pc]	; 9c <val12>
      98:	ea000000 	b	a0 <next12>

0000009c <val12>:
      9c:	cadcf330 	.word	0xcadcf330

000000a0 <next12>:
      a0:	e59fe000 	ldr	lr, [pc]	; a8 <val14>
      a4:	ea000000 	b	ac <next14>

000000a8 <val14>:
      a8:	1cbadd6d 	.word	0x1cbadd6d

000000ac <next14>:
      ac:	e59f1000 	ldr	r1, [pc]	; b4 <val15>
      b0:	ea000000 	b	b8 <next15>

000000b4 <val15>:
      b4:	3dbf9e53 	.word	0x3dbf9e53

000000b8 <next15>:
      b8:	e58d1000 	str	r1, [sp]
      bc:	e59f1000 	ldr	r1, [pc]	; c4 <val16>
      c0:	ea000000 	b	c8 <next16>

000000c4 <val16>:
      c4:	0761c34b 	.word	0x0761c34b

000000c8 <next16>:
      c8:	e50d1004 	str	r1, [sp, #-4]
      cc:	e59f1000 	ldr	r1, [pc]	; d4 <val17>
      d0:	ea000000 	b	d8 <next17>

000000d4 <val17>:
      d4:	2031ed35 	.word	0x2031ed35

000000d8 <next17>:
      d8:	e50d1008 	str	r1, [sp, #-8]
      dc:	e59f1000 	ldr	r1, [pc]	; e4 <val18>
      e0:	ea000000 	b	e8 <next18>

000000e4 <val18>:
      e4:	cb8eb8ef 	.word	0xcb8eb8ef

000000e8 <next18>:
      e8:	e50d100c 	str	r1, [sp, #-12]
      ec:	e59f1000 	ldr	r1, [pc]	; f4 <val19>
      f0:	ea000000 	b	f8 <next19>

000000f4 <val19>:
      f4:	080ff2ab 	.word	0x080ff2ab

000000f8 <next19>:
      f8:	e50d1010 	str	r1, [sp, #-16]
      fc:	e59f1000 	ldr	r1, [pc]	; 104 <val20>
     100:	ea000000 	b	108 <next20>

00000104 <val20>:
     104:	045991b9 	.word	0x045991b9

00000108 <next20>:
     108:	e50d1014 	str	r1, [sp, #-20]
     10c:	e59f1000 	ldr	r1, [pc]	; 114 <val21>
     110:	ea000000 	b	118 <next21>

00000114 <val21>:
     114:	cec531c9 	.word	0xcec531c9

00000118 <next21>:
     118:	e50d1018 	str	r1, [sp, #-24]
     11c:	e59f1000 	ldr	r1, [pc]	; 124 <val22>
     120:	ea000000 	b	128 <next22>

00000124 <val22>:
     124:	88b8d4b3 	.word	0x88b8d4b3

00000128 <next22>:
     128:	e50d101c 	str	r1, [sp, #-28]
     12c:	e59f1000 	ldr	r1, [pc]	; 134 <val23>
     130:	ea000000 	b	138 <next23>

00000134 <val23>:
     134:	40a8526e 	.word	0x40a8526e

00000138 <next23>:
     138:	e50d1020 	str	r1, [sp, #-32]
     13c:	e59f1000 	ldr	r1, [pc]	; 144 <val24>
     140:	ea000000 	b	148 <next24>

00000144 <val24>:
     144:	3d80e6c6 	.word	0x3d80e6c6

00000148 <next24>:
     148:	e50d1024 	str	r1, [sp, #-36]	; 0x24
     14c:	e59f1000 	ldr	r1, [pc]	; 154 <val25>
     150:	ea000000 	b	158 <next25>

00000154 <val25>:
     154:	bbc4ee93 	.word	0xbbc4ee93

00000158 <next25>:
     158:	e50d1028 	str	r1, [sp, #-40]	; 0x28
     15c:	e59f1000 	ldr	r1, [pc]	; 164 <val26>
     160:	ea000000 	b	168 <next26>

00000164 <val26>:
     164:	d9feb5ac 	.word	0xd9feb5ac

00000168 <next26>:
     168:	e50d102c 	str	r1, [sp, #-44]	; 0x2c
     16c:	e59f1000 	ldr	r1, [pc]	; 174 <val27>
     170:	ea000000 	b	178 <next27>

00000174 <val27>:
     174:	a782ad61 	.word	0xa782ad61

00000178 <next27>:
     178:	e50d1030 	str	r1, [sp, #-48]	; 0x30
     17c:	e59f1000 	ldr	r1, [pc]	; 184 <val28>
     180:	ea000000 	b	188 <next28>

00000184 <val28>:
     184:	8c60c684 	.word	0x8c60c684

00000188 <next28>:
     188:	e50d1034 	str	r1, [sp, #-52]	; 0x34
     18c:	e59f1000 	ldr	r1, [pc]	; 194 <val29>
     190:	ea000000 	b	198 <next29>

00000194 <val29>:
     194:	f31db7fe 	.word	0xf31db7fe

00000198 <next29>:
     198:	e50d1038 	str	r1, [sp, #-56]	; 0x38
     19c:	e59f1000 	ldr	r1, [pc]	; 1a4 <val30>
     1a0:	ea000000 	b	1a8 <next30>

000001a4 <val30>:
     1a4:	f1830cf0 	.word	0xf1830cf0

000001a8 <next30>:
     1a8:	e50d103c 	str	r1, [sp, #-60]	; 0x3c
     1ac:	e59f1000 	ldr	r1, [pc]	; 1b4 <val31>
     1b0:	ea000000 	b	1b8 <next31>

000001b4 <val31>:
     1b4:	330f6760 	.word	0x330f6760

000001b8 <next31>:
     1b8:	e50d1040 	str	r1, [sp, #-64]	; 0x40
     1bc:	e59f1000 	ldr	r1, [pc]	; 1c4 <val32>
     1c0:	ea000000 	b	1c8 <next32>

000001c4 <val32>:
     1c4:	7a9263bf 	.word	0x7a9263bf

000001c8 <next32>:
     1c8:	e50d1044 	str	r1, [sp, #-68]	; 0x44
     1cc:	e59f1000 	ldr	r1, [pc]	; 1d4 <val33>
     1d0:	ea000000 	b	1d8 <next33>

000001d4 <val33>:
     1d4:	80844508 	.word	0x80844508

000001d8 <next33>:
     1d8:	e50d1048 	str	r1, [sp, #-72]	; 0x48
     1dc:	e59f1000 	ldr	r1, [pc]	; 1e4 <val34>
     1e0:	ea000000 	b	1e8 <next34>

000001e4 <val34>:
     1e4:	34279e43 	.word	0x34279e43

000001e8 <next34>:
     1e8:	e50d104c 	str	r1, [sp, #-76]	; 0x4c
     1ec:	e59f1000 	ldr	r1, [pc]	; 1f4 <val35>
     1f0:	ea000000 	b	1f8 <next35>

000001f4 <val35>:
     1f4:	445ccab6 	.word	0x445ccab6

000001f8 <next35>:
     1f8:	e50d1050 	str	r1, [sp, #-80]	; 0x50

000001fc <l1>:
     1fc:	80997c38 	addshi	r7, r9, r8, lsr ip

00000200 <l2>:
     200:	e3b00239 	movs	r0, #-1879048189	; 0x90000003

00000204 <l3>:
     204:	ea000006 	b	224 <l11>

00000208 <l4>:
     208:	e3dacb25 	bics	ip, sl, #37888	; 0x9400

0000020c <l5>:
     20c:	13b09709 	movsne	r9, #2359296	; 0x240000

00000210 <l6>:
     210:	13530e46 	cmpne	r3, #1120	; 0x460

00000214 <l7>:
     214:	e396bc45 	orrs	fp, r6, #17664	; 0x4500

00000218 <l8>:
     218:	418c9008 	orrmi	r9, ip, r8

0000021c <l9>:
     21c:	03300efb 	teqeq	r0, #4016	; 0xfb0

00000220 <l10>:
     220:	e070ab59 	rsbs	sl, r0, r9, asr fp

00000224 <l11>:
     224:	803388e6 	eorshi	r8, r3, r6, ror #17

00000228 <l12>:
     228:	e2da4c1d 	sbcs	r4, sl, #7424	; 0x1d00

0000022c <l13>:
     22c:	e044100a 	sub	r1, r4, sl

00000230 <l14>:
     230:	e2cfed33 	sbc	lr, pc, #3264	; 0xcc0

00000234 <l15>:
     234:	604b700e 	subvs	r7, fp, lr

00000238 <l16>:
     238:	ea000003 	b	24c <l21>

0000023c <l17>:
     23c:	31f08002 	mvnscc	r8, r2

00000240 <l18>:
     240:	e1dbeb5e 	bics	lr, fp, lr, asr fp

00000244 <l19>:
     244:	e39f582a 	orrs	r5, pc, #2752512	; 0x2a0000

00000248 <l20>:
     248:	100c0005 	andne	r0, ip, r5

0000024c <l21>:
     24c:	e04b17e0 	sub	r1, fp, r0, ror #15

00000250 <l22>:
     250:	13873b15 	orrne	r3, r7, #21504	; 0x5400

00000254 <l23>:
     254:	e2ccc251 	sbc	ip, ip, #268435461	; 0x10000005

00000258 <l24>:
     258:	b80ddbec 	stmdalt	sp, {r2, r3, r5, r6, r7, r8, r9, fp, ip, lr, pc}

0000025c <l25>:
     25c:	21f0a06b 	mvnscs	sl, fp, rrx

00000260 <l26>:
     260:	e0799850 	rsbs	r9, r9, r0, asr r8

00000264 <l27>:
     264:	517504c7 	cmnpl	r5, r7, asr #9

00000268 <l28>:
     268:	00a2c77e 	adceq	ip, r2, lr, ror r7

0000026c <l29>:
     26c:	10157002 	andsne	r7, r5, r2

00000270 <l30>:
     270:	e18e3b3a 	orr	r3, lr, sl, lsr fp

00000274 <l31>:
     274:	61390065 	teqvs	r9, r5, rrx

00000278 <l32>:
     278:	e0676443 	rsb	r6, r7, r3, asr #8

0000027c <l33>:
     27c:	e0ab5062 	adc	r5, fp, r2, rrx

00000280 <l34>:
     280:	aa000003 	bge	294 <l39>

00000284 <l35>:
     284:	e28010ec 	add	r1, r0, #236	; 0xec

00000288 <l36>:
     288:	70fb600b 	rscsvc	r6, fp, fp

0000028c <l37>:
     28c:	91e0e068 	mvnls	lr, r8, rrx

00000290 <l38>:
     290:	ea000000 	b	298 <l40>

00000294 <l39>:
     294:	eafffffb 	b	288 <l36>

00000298 <l40>:
     298:	90a8c009 	adcls	ip, r8, r9

0000029c <l41>:
     29c:	e190b071 	orrs	fp, r0, r1, ror r0

000002a0 <l42>:
     2a0:	e92de000 	push	{sp, lr, pc}

000002a4 <l43>:
     2a4:	a239678b 	eorsge	r6, r9, #36438016	; 0x22c0000

000002a8 <l44>:
     2a8:	7a000006 	bvc	2c8 <l52>

000002ac <l45>:
     2ac:	e16f5f11 	clz	r5, r1

000002b0 <l46>:
     2b0:	e1a0b976 	ror	fp, r6, r9

000002b4 <l47>:
     2b4:	908e0375 	addls	r0, lr, r5, ror r3

000002b8 <l48>:
     2b8:	9131057e 	teqls	r1, lr, ror r5

000002bc <l49>:
     2bc:	515a0067 	cmppl	sl, r7, rrx

000002c0 <l50>:
     2c0:	e00e8950 	and	r8, lr, r0, asr r9

000002c4 <l51>:
     2c4:	e1a03c72 	ror	r3, r2, ip

000002c8 <l52>:
     2c8:	c2471602 	subgt	r1, r7, #2097152	; 0x200000

000002cc <l53>:
     2cc:	e15a021e 	cmp	sl, lr, lsl r2

000002d0 <l54>:
     2d0:	b2f88685 	rscslt	r8, r8, #139460608	; 0x8500000

000002d4 <l55>:
     2d4:	e0215777 	eor	r5, r1, r7, ror r7

000002d8 <l56>:
     2d8:	2015300b 	andscs	r3, r5, fp

000002dc <l57>:
     2dc:	237b02b7 	cmncs	fp, #1879048203	; 0x7000000b

000002e0 <l58>:
     2e0:	ea000007 	b	304 <l67>

000002e4 <l59>:
     2e4:	e28010bd 	add	r1, r0, #189	; 0xbd

000002e8 <l60>:
     2e8:	41c4300b 	bicmi	r3, r4, fp

000002ec <l61>:
     2ec:	60b3a008 	adcsvs	sl, r3, r8

000002f0 <l62>:
     2f0:	301c4a13 	andscc	r4, ip, r3, lsl sl

000002f4 <l63>:
     2f4:	e3150040 	tst	r5, #64	; 0x40

000002f8 <l64>:
     2f8:	e16f4f1a 	clz	r4, sl

000002fc <l65>:
     2fc:	e0305002 	eors	r5, r0, r2

00000300 <l66>:
     300:	ea000000 	b	308 <l68>

00000304 <l67>:
     304:	eafffff7 	b	2e8 <l60>

00000308 <l68>:
     308:	e16faf1a 	clz	sl, sl

0000030c <l69>:
     30c:	120839ce 	andne	r3, r8, #3375104	; 0x338000

00000310 <l70>:
     310:	e1a00000 	nop			; (mov r0, r0)

00000314 <l71>:
     314:	00bfe9c8 	adcseq	lr, pc, r8, asr #19

00000318 <l72>:
     318:	11500945 	cmpne	r0, r5, asr #18

0000031c <l73>:
     31c:	e1826000 	orr	r6, r2, r0

00000320 <l74>:
     320:	e178035a 	cmn	r8, sl, asr r3

00000324 <l75>:
     324:	01510f09 	cmpeq	r1, r9, lsl #30

00000328 <l76>:
     328:	c08c9721 	addgt	r9, ip, r1, lsr #14

0000032c <l77>:
     32c:	ea000001 	b	338 <l80>

00000330 <l78>:
     330:	e0a2e000 	adc	lr, r2, r0

00000334 <l79>:
     334:	e1f03004 	mvns	r3, r4

00000338 <l80>:
     338:	51da63ae 	bicspl	r6, sl, lr, lsr #7

0000033c <l81>:
     33c:	e067a722 	rsb	sl, r7, r2, lsr #14

00000340 <l82>:
     340:	e03b9009 	eors	r9, fp, r9

00000344 <l83>:
     344:	e3d3ac09 	bics	sl, r3, #2304	; 0x900

00000348 <l84>:
     348:	e41d9038 	ldr	r9, [sp], #-56	; 0x38

0000034c <l85>:
     34c:	e173006c 	cmn	r3, ip, rrx

00000350 <l86>:
     350:	b21fae17 	andslt	sl, pc, #368	; 0x170

00000354 <l87>:
     354:	51de7006 	bicspl	r7, lr, r6

00000358 <l88>:
     358:	e1f06a41 	mvns	r6, r1, asr #20

0000035c <l89>:
     35c:	d11e006b 	tstle	lr, fp, rrx

00000360 <l90>:
     360:	e174000b 	cmn	r4, fp

00000364 <l91>:
     364:	d2173202 	andsle	r3, r7, #536870912	; 0x20000000

00000368 <l92>:
     368:	e2020062 	and	r0, r2, #98	; 0x62

0000036c <l93>:
     36c:	e3a04014 	mov	r4, #20

00000370 <l94>:
     370:	e7bdc004 	ldr	ip, [sp, r4]!

00000374 <l95>:
     374:	b0e77fce 	rsclt	r7, r7, lr, asr #31

00000378 <l96>:
     378:	e0d58005 	sbcs	r8, r5, r5

0000037c <l97>:
     37c:	a1e03a73 	mvnge	r3, r3, ror sl

00000380 <l98>:
     380:	321f992e 	andscc	r9, pc, #753664	; 0xb8000

00000384 <l99>:
     384:	ea000002 	b	394 <l103>

00000388 <l100>:
     388:	a2f1b602 	rscsge	fp, r1, #2097152	; 0x200000

0000038c <l101>:
     38c:	e0403000 	sub	r3, r0, r0

00000390 <l102>:
     390:	62443cfd 	subvs	r3, r4, #64768	; 0xfd00

00000394 <l103>:
     394:	e15a06e0 	cmp	sl, r0, ror #13

00000398 <l104>:
     398:	511a000c 	tstpl	sl, ip

0000039c <l105>:
     39c:	e8add04b 	stmia	sp!, {r0, r1, r3, r6, ip, lr, pc}

000003a0 <l106>:
     3a0:	ea000006 	b	3c0 <l114>

000003a4 <l107>:
     3a4:	e28010fe 	add	r1, r0, #254	; 0xfe

000003a8 <l108>:
     3a8:	e16f5f14 	clz	r5, r4

000003ac <l109>:
     3ac:	50279411 	eorpl	r9, r7, r1, lsl r4

000003b0 <l110>:
     3b0:	e0593006 	subs	r3, r9, r6

000003b4 <l111>:
     3b4:	b1510065 	cmplt	r1, r5, rrx

000003b8 <l112>:
     3b8:	11780110 	cmnne	r8, r0, lsl r1

000003bc <l113>:
     3bc:	ea000000 	b	3c4 <l115>

000003c0 <l114>:
     3c0:	eafffff8 	b	3a8 <l108>

000003c4 <l115>:
     3c4:	6066400a 	rsbvs	r4, r6, sl

000003c8 <l116>:
     3c8:	e54d7033 	strb	r7, [sp, #-51]	; 0x33

000003cc <l117>:
     3cc:	e356023b 	cmp	r6, #-1342177277	; 0xb0000003

000003d0 <l118>:
     3d0:	e58d3000 	str	r3, [sp]

000003d4 <l119>:
     3d4:	e0e93066 	rsc	r3, r9, r6, rrx

000003d8 <l120>:
     3d8:	eaffffff 	b	3dc <l121>

000003dc <l121>:
     3dc:	31e05156 	mvncc	r5, r6, asr r1

000003e0 <l122>:
     3e0:	e11103cb 	tst	r1, fp, asr #7

000003e4 <l123>:
     3e4:	e0f8a929 	rscs	sl, r8, r9, lsr #18

000003e8 <l124>:
     3e8:	e28b985d 	add	r9, fp, #6094848	; 0x5d0000

000003ec <l125>:
     3ec:	c034906c 	eorsgt	r9, r4, ip, rrx

000003f0 <l126>:
     3f0:	e9ad0104 	stmib	sp!, {r2, r8}

000003f4 <l127>:
     3f4:	e8ad0001 	stmia	sp!, {r0}

000003f8 <l128>:
     3f8:	ea000003 	b	40c <l133>

000003fc <l129>:
     3fc:	e0b2e008 	adcs	lr, r2, r8

00000400 <l130>:
     400:	e1e07921 	mvn	r7, r1, lsr #18

00000404 <l131>:
     404:	517b0064 	cmnpl	fp, r4, rrx

00000408 <l132>:
     408:	404cc002 	submi	ip, ip, r2

0000040c <l133>:
     40c:	e25e3281 	subs	r3, lr, #268435464	; 0x10000008

00000410 <l134>:
     410:	03842767 	orreq	r2, r4, #27000832	; 0x19c0000

00000414 <l135>:
     414:	0032400b 	eorseq	r4, r2, fp

00000418 <l136>:
     418:	e0a3e9ab 	adc	lr, r3, fp, lsr #19

0000041c <l137>:
     41c:	20222414 	eorcs	r2, r2, r4, lsl r4

00000420 <l138>:
     420:	60bf600f 	adcsvs	r6, pc, pc

00000424 <l139>:
     424:	20fc005c 	rscscs	r0, ip, ip, asr r0

00000428 <l140>:
     428:	ea000002 	b	438 <l144>

0000042c <l141>:
     42c:	e0c8eb34 	sbc	lr, r8, r4, lsr fp

00000430 <l142>:
     430:	a0302ce1 	eorsge	r2, r0, r1, ror #25

00000434 <l143>:
     434:	d390e44d 	orrsle	lr, r0, #1291845632	; 0x4d000000

00000438 <l144>:
     438:	e15b0064 	cmp	fp, r4, rrx

0000043c <l145>:
     43c:	5a000006 	bpl	45c <l153>

00000440 <l146>:
     440:	5359020a 	cmppl	r9, #-1610612736	; 0xa0000000

00000444 <l147>:
     444:	e284b5ee 	add	fp, r4, #998244352	; 0x3b800000

00000448 <l148>:
     448:	e1570003 	cmp	r7, r3

0000044c <l149>:
     44c:	e2de813d 	sbcs	r8, lr, #1073741839	; 0x4000000f

00000450 <l150>:
     450:	4156006b 	cmpmi	r6, fp, rrx

00000454 <l151>:
     454:	e276eb65 	rsbs	lr, r6, #103424	; 0x19400

00000458 <l152>:
     458:	e3590d06 	cmp	r9, #384	; 0x180

0000045c <l153>:
     45c:	009ab067 	addseq	fp, sl, r7, rrx

00000460 <l154>:
     460:	738f3101 	orrvc	r3, pc, #1073741824	; 0x40000000

00000464 <l155>:
     464:	e13c000a 	teq	ip, sl

00000468 <l156>:
     468:	e1310279 	teq	r1, r9, ror r2

0000046c <l157>:
     46c:	e03b6272 	eors	r6, fp, r2, ror r2

00000470 <l158>:
     470:	617a0530 	cmnvs	sl, r0, lsr r5

00000474 <l159>:
     474:	e0ccc068 	sbc	ip, ip, r8, rrx

00000478 <l160>:
     478:	e0fbac1a 	rscs	sl, fp, sl, lsl ip

0000047c <l161>:
     47c:	d06a0818 	rsble	r0, sl, r8, lsl r8

00000480 <l162>:
     480:	32eaa0a9 	rsccc	sl, sl, #169	; 0xa9

00000484 <l163>:
     484:	ea000007 	b	4a8 <l172>

00000488 <l164>:
     488:	e28010e0 	add	r1, r0, #224	; 0xe0

0000048c <l165>:
     48c:	e15a0978 	cmp	sl, r8, ror r9

00000490 <l166>:
     490:	33895d55 	orrcc	r5, r9, #5440	; 0x1540

00000494 <l167>:
     494:	a1520a3c 	cmpge	r2, ip, lsr sl

00000498 <l168>:
     498:	e1320832 	teq	r2, r2, lsr r8

0000049c <l169>:
     49c:	60db174f 	sbcsvs	r1, fp, pc, asr #14

000004a0 <l170>:
     4a0:	b02a7de1 	eorlt	r7, sl, r1, ror #27

000004a4 <l171>:
     4a4:	ea000000 	b	4ac <l173>

000004a8 <l172>:
     4a8:	eafffff7 	b	48c <l165>

000004ac <l173>:
     4ac:	e078c83b 	rsbs	ip, r8, fp, lsr r8

000004b0 <l174>:
     4b0:	e1db406e 	bics	r4, fp, lr, rrx

000004b4 <l175>:
     4b4:	90c2a00a 	sbcls	sl, r2, sl

000004b8 <l176>:
     4b8:	816f6f12 	clzhi	r6, r2

000004bc <l177>:
     4bc:	517a0444 	cmnpl	sl, r4, asr #8

000004c0 <l178>:
     4c0:	b1877002 	orrlt	r7, r7, r2

000004c4 <l179>:
     4c4:	2083135b 	addcs	r1, r3, fp, asr r3

000004c8 <l180>:
     4c8:	b0398242 	eorslt	r8, r9, r2, asr #4

000004cc <l181>:
     4cc:	e92de000 	push	{sp, lr, pc}

000004d0 <l182>:
     4d0:	9082a736 	addls	sl, r2, r6, lsr r7

000004d4 <l183>:
     4d4:	20b48e21 	adcscs	r8, r4, r1, lsr #28

000004d8 <l184>:
     4d8:	ea000006 	b	4f8 <l192>

000004dc <l185>:
     4dc:	824f9b02 	subhi	r9, pc, #2048	; 0x800

000004e0 <l186>:
     4e0:	e096e00a 	adds	lr, r6, sl

000004e4 <l187>:
     4e4:	40213068 	eormi	r3, r1, r8, rrx

000004e8 <l188>:
     4e8:	50557009 	subspl	r7, r5, r9

000004ec <l189>:
     4ec:	e051950f 	subs	r9, r1, pc, lsl #10

000004f0 <l190>:
     4f0:	e1390f67 	teq	r9, r7, ror #30

000004f4 <l191>:
     4f4:	d0ceb733 	sbcle	fp, lr, r3, lsr r7

000004f8 <l192>:
     4f8:	01f005ab 	mvnseq	r0, fp, lsr #11

000004fc <l193>:
     4fc:	e17c000a 	cmn	ip, sl

00000500 <l194>:
     500:	401b2004 	andsmi	r2, fp, r4

00000504 <l195>:
     504:	91992c09 	orrsls	r2, r9, r9, lsl #24

00000508 <l196>:
     508:	e0e19005 	rsc	r9, r1, r5

0000050c <l197>:
     50c:	7a000006 	bvc	52c <l205>

00000510 <l198>:
     510:	e280103b 	add	r1, r0, #59	; 0x3b

00000514 <l199>:
     514:	03c3133a 	biceq	r1, r3, #-402653184	; 0xe8000000

00000518 <l200>:
     518:	105cbfc7 	subsne	fp, ip, r7, asr #31

0000051c <l201>:
     51c:	e20bc3e1 	and	ip, fp, #-2080374781	; 0x84000003

00000520 <l202>:
     520:	e048c7ef 	sub	ip, r8, pc, ror #15

00000524 <l203>:
     524:	e2d5850f 	sbcs	r8, r5, #62914560	; 0x3c00000

00000528 <l204>:
     528:	ea000000 	b	530 <l206>

0000052c <l205>:
     52c:	eafffff8 	b	514 <l199>

00000530 <l206>:
     530:	e53dc008 	ldr	ip, [sp, #-8]!

00000534 <l207>:
     534:	d049835e 	suble	r8, r9, lr, asr r3

00000538 <l208>:
     538:	e005c841 	and	ip, r5, r1, asr #16

0000053c <l209>:
     53c:	e0f83544 	rscs	r3, r8, r4, asr #10

00000540 <l210>:
     540:	71f0c16f 	mvnsvc	ip, pc, ror #2

00000544 <l211>:
     544:	e3e005f5 	mvn	r0, #1027604480	; 0x3d400000

00000548 <l212>:
     548:	8a000006 	bhi	568 <l220>

0000054c <l213>:
     54c:	e2801005 	add	r1, r0, #5

00000550 <l214>:
     550:	e1f0a00e 	mvns	sl, lr

00000554 <l215>:
     554:	e3c61731 	bic	r1, r6, #12845056	; 0xc40000

00000558 <l216>:
     558:	40ce7d2f 	sbcmi	r7, lr, pc, lsr #26

0000055c <l217>:
     55c:	43b090f3 	movsmi	r9, #243	; 0xf3

00000560 <l218>:
     560:	71570061 	cmpvc	r7, r1, rrx

00000564 <l219>:
     564:	ea000000 	b	56c <l221>

00000568 <l220>:
     568:	eafffff8 	b	550 <l214>

0000056c <l221>:
     56c:	e3a0c017 	mov	ip, #23

00000570 <l222>:
     570:	174d200c 	strbne	r2, [sp, -ip]

00000574 <l223>:
     574:	10d50006 	sbcsne	r0, r5, r6

00000578 <l224>:
     578:	e2a11357 	adc	r1, r1, #1543503873	; 0x5c000001

0000057c <l225>:
     57c:	5a000006 	bpl	59c <l233>

00000580 <l226>:
     580:	e280105a 	add	r1, r0, #90	; 0x5a

00000584 <l227>:
     584:	e17c0301 	cmn	ip, r1, lsl #6

00000588 <l228>:
     588:	c1580008 	cmpgt	r8, r8

0000058c <l229>:
     58c:	e1790635 	cmn	r9, r5, lsr r6

00000590 <l230>:
     590:	116f2f16 	clzne	r2, r6

00000594 <l231>:
     594:	e1b02004 	movs	r2, r4

00000598 <l232>:
     598:	ea000000 	b	5a0 <l234>

0000059c <l233>:
     59c:	eafffff8 	b	584 <l227>

000005a0 <l234>:
     5a0:	e0a67a6f 	adc	r7, r6, pc, ror #20

000005a4 <l235>:
     5a4:	5a000002 	bpl	5b4 <l239>

000005a8 <l236>:
     5a8:	216f1f12 	clzcs	r1, r2

000005ac <l237>:
     5ac:	433b09fa 	teqmi	fp, #4096000	; 0x3e8000

000005b0 <l238>:
     5b0:	213e0257 	teqcs	lr, r7, asr r2

000005b4 <l239>:
     5b4:	e3f0e7a1 	mvns	lr, #42205184	; 0x2840000

000005b8 <l240>:
     5b8:	e03bbc79 	eors	fp, fp, r9, ror ip

000005bc <l241>:
     5bc:	e40d3024 	str	r3, [sp], #-36	; 0x24

000005c0 <l242>:
     5c0:	c0517009 	subsgt	r7, r1, r9

000005c4 <l243>:
     5c4:	2003300e 	andcs	r3, r3, lr

000005c8 <l244>:
     5c8:	6a000002 	bvs	5d8 <l248>

000005cc <l245>:
     5cc:	e280100b 	add	r1, r0, #11

000005d0 <l246>:
     5d0:	e1370b59 	teq	r7, r9, asr fp

000005d4 <l247>:
     5d4:	ea000000 	b	5dc <l249>

000005d8 <l248>:
     5d8:	eafffffc 	b	5d0 <l246>

000005dc <l249>:
     5dc:	b31c0ede 	tstlt	ip, #3552	; 0xde0

000005e0 <l250>:
     5e0:	916f0f18 	clzls	r0, r8

000005e4 <l251>:
     5e4:	e37403e1 	cmn	r4, #-2080374781	; 0x84000003

000005e8 <l252>:
     5e8:	e3a04000 	mov	r4, #0

000005ec <l253>:
     5ec:	e239e090 	eors	lr, r9, #144	; 0x90

000005f0 <l254>:
     5f0:	e17908e8 	cmn	r9, r8, ror #17

000005f4 <l255>:
     5f4:	6199c003 	orrsvs	ip, r9, r3

000005f8 <l256>:
     5f8:	611a0638 	tstvs	sl, r8, lsr r6

000005fc <l257>:
     5fc:	d258e3ab 	subsle	lr, r8, #-1409286142	; 0xac000002

00000600 <l258>:
     600:	e2589bf1 	subs	r9, r8, #246784	; 0x3c400

00000604 <l259>:
     604:	e93d0100 	ldmdb	sp!, {r8}

00000608 <l260>:
     608:	e3d6b802 	bics	fp, r6, #131072	; 0x20000

0000060c <l261>:
     60c:	e26f4302 	rsb	r4, pc, #134217728	; 0x8000000

00000610 <l262>:
     610:	20234573 	eorcs	r4, r3, r3, ror r5

00000614 <l263>:
     614:	21de7815 	bicscs	r7, lr, r5, lsl r8

00000618 <l264>:
     618:	e1e0200a 	mvn	r2, sl

0000061c <l265>:
     61c:	0a000007 	beq	640 <l274>

00000620 <l266>:
     620:	31d6791b 	bicscc	r7, r6, fp, lsl r9

00000624 <l267>:
     624:	e0e71372 	rsc	r1, r7, r2, ror r3

00000628 <l268>:
     628:	120955a7 	andne	r5, r9, #700448768	; 0x29c00000

0000062c <l269>:
     62c:	d119006b 	tstle	r9, fp, rrx

00000630 <l270>:
     630:	50553009 	subspl	r3, r5, r9

00000634 <l271>:
     634:	2022900c 	eorcs	r9, r2, ip

00000638 <l272>:
     638:	e1a08067 	rrx	r8, r7

0000063c <l273>:
     63c:	a3a0c426 	movge	ip, #637534208	; 0x26000000

00000640 <l274>:
     640:	925e01f3 	subsls	r0, lr, #-1073741764	; 0xc000003c

00000644 <l275>:
     644:	e5cde014 	strb	lr, [sp, #20]

00000648 <l276>:
     648:	e039800b 	eors	r8, r9, fp

0000064c <l277>:
     64c:	01530008 	cmpeq	r3, r8

00000650 <l278>:
     650:	e0c38d67 	sbc	r8, r3, r7, ror #26

00000654 <l279>:
     654:	11da100b 	bicsne	r1, sl, fp

00000658 <l280>:
     658:	e3a0b03d 	mov	fp, #61	; 0x3d

0000065c <l281>:
     65c:	97cd300b 	strbls	r3, [sp, fp]

00000660 <l282>:
     660:	289d4027 	ldmcs	sp, {r0, r1, r2, r5, lr}

00000664 <l283>:
     664:	e0510000 	subs	r0, r1, r0

00000668 <l284>:
     668:	da000005 	ble	684 <l291>

0000066c <l285>:
     66c:	e2801041 	add	r1, r0, #65	; 0x41

00000670 <l286>:
     670:	104ca067 	subne	sl, ip, r7, rrx

00000674 <l287>:
     674:	6043e610 	subvs	lr, r3, r0, lsl r6

00000678 <l288>:
     678:	e20c303b 	and	r3, ip, #59	; 0x3b

0000067c <l289>:
     67c:	835b080b 	cmphi	fp, #720896	; 0xb0000

00000680 <l290>:
     680:	ea000000 	b	688 <l292>

00000684 <l291>:
     684:	eafffff9 	b	670 <l286>

00000688 <l292>:
     688:	aa000006 	bge	6a8 <l300>

0000068c <l293>:
     68c:	e28010a1 	add	r1, r0, #161	; 0xa1

00000690 <l294>:
     690:	c0675060 	rsbgt	r5, r7, r0, rrx

00000694 <l295>:
     694:	e27e7281 	rsbs	r7, lr, #268435464	; 0x10000008

00000698 <l296>:
     698:	90c6ecaf 	sbcls	lr, r6, pc, lsr #25

0000069c <l297>:
     69c:	e11a000f 	tst	sl, pc

000006a0 <l298>:
     6a0:	d0ebac37 	rscle	sl, fp, r7, lsr ip

000006a4 <l299>:
     6a4:	ea000000 	b	6ac <l301>

000006a8 <l300>:
     6a8:	eafffff8 	b	690 <l294>

000006ac <l301>:
     6ac:	1affffff 	bne	6b0 <l302>

000006b0 <l302>:
     6b0:	e16f6f1a 	clz	r6, sl

000006b4 <l303>:
     6b4:	408b9642 	addmi	r9, fp, r2, asr #12

000006b8 <l304>:
     6b8:	70c7700e 	sbcvc	r7, r7, lr

000006bc <l305>:
     6bc:	038146a5 	orreq	r4, r1, #173015040	; 0xa500000

000006c0 <l306>:
     6c0:	33a0b91a 	movcc	fp, #425984	; 0x68000

000006c4 <l307>:
     6c4:	c028bb59 	eorgt	fp, r8, r9, asr fp

000006c8 <l308>:
     6c8:	e16f9f1a 	clz	r9, sl

000006cc <l309>:
     6cc:	e03fe004 	eors	lr, pc, r4

000006d0 <l310>:
     6d0:	b07a2b84 	rsbslt	r2, sl, r4, lsl #23

000006d4 <l311>:
     6d4:	e48da004 	str	sl, [sp], #4

000006d8 <l312>:
     6d8:	e16f3f16 	clz	r3, r6

000006dc <l313>:
     6dc:	e01ba009 	ands	sl, fp, r9

000006e0 <l314>:
     6e0:	80d68003 	sbcshi	r8, r6, r3

000006e4 <l315>:
     6e4:	a005ad45 	andge	sl, r5, r5, asr #26

000006e8 <l316>:
     6e8:	e9bd4d5f 	ldmib	sp!, {r0, r1, r2, r3, r4, r6, r8, sl, fp, lr}

000006ec <l317>:
     6ec:	b98d4020 	stmiblt	sp, {r5, lr}

000006f0 <l318>:
     6f0:	e11e0873 	tst	lr, r3, ror r8

000006f4 <l319>:
     6f4:	e08ae001 	add	lr, sl, r1

000006f8 <l320>:
     6f8:	e207306d 	and	r3, r7, #109	; 0x6d

000006fc <l321>:
     6fc:	e28a0dcd 	add	r0, sl, #13120	; 0x3340

00000700 <l322>:
     700:	316f5f1e 	clzcc	r5, lr

00000704 <l323>:
     704:	e1510064 	cmp	r1, r4, rrx

00000708 <l324>:
     708:	12534e85 	subsne	r4, r3, #2128	; 0x850

0000070c <l325>:
     70c:	416faf16 	clzmi	sl, r6

00000710 <l326>:
     710:	ea000005 	b	72c <l333>

00000714 <l327>:
     714:	e0989175 	adds	r9, r8, r5, ror r1

00000718 <l328>:
     718:	d08ac068 	addle	ip, sl, r8, rrx

0000071c <l329>:
     71c:	71ccc004 	bicvc	ip, ip, r4

00000720 <l330>:
     720:	32889967 	addcc	r9, r8, #1687552	; 0x19c000

00000724 <l331>:
     724:	e261e080 	rsb	lr, r1, #128	; 0x80

00000728 <l332>:
     728:	21c32012 	biccs	r2, r3, r2, lsl r0

0000072c <l333>:
     72c:	e0b72d87 	adcs	r2, r7, r7, lsl #27

00000730 <l334>:
     730:	e16faf1e 	clz	sl, lr

00000734 <l335>:
     734:	51a00060 	rrxpl	r0, r0

00000738 <l336>:
     738:	b1a02064 	rrxlt	r2, r4

0000073c <l337>:
     73c:	e8ad9000 	stmia	sp!, {ip, pc}

00000740 <l338>:
     740:	803024e5 	eorshi	r2, r0, r5, ror #9

00000744 <l339>:
     744:	1378013f 	cmnne	r8, #-1073741809	; 0xc000000f

00000748 <l340>:
     748:	e3a0902b 	mov	r9, #43	; 0x2b

0000074c <l341>:
     74c:	e74d9009 	strb	r9, [sp, -r9]

00000750 <l342>:
     750:	e1e07931 	mvn	r7, r1, lsr r9

00000754 <l343>:
     754:	e03f8007 	eors	r8, pc, r7

00000758 <l344>:
     758:	40d769ae 	sbcsmi	r6, r7, lr, lsr #19

0000075c <l345>:
     75c:	613e0e66 	teqvs	lr, r6, ror #28

00000760 <l346>:
     760:	7a000008 	bvc	788 <l356>

00000764 <l347>:
     764:	033009f2 	teqeq	r0, #3964928	; 0x3c8000

00000768 <l348>:
     768:	e1a0e008 	mov	lr, r8

0000076c <l349>:
     76c:	d00e5577 	andle	r5, lr, r7, ror r5

00000770 <l350>:
     770:	e1540710 	cmp	r4, r0, lsl r7

00000774 <l351>:
     774:	415e0068 	cmpmi	lr, r8, rrx

00000778 <l352>:
     778:	51c2c33c 	bicpl	ip, r2, ip, lsr r3

0000077c <l353>:
     77c:	e17a06a8 	cmn	sl, r8, lsr #13

00000780 <l354>:
     780:	719b406a 	orrsvc	r4, fp, sl, rrx

00000784 <l355>:
     784:	90d2800b 	sbcsls	r8, r2, fp

00000788 <l356>:
     788:	41a09beb 	rormi	r9, fp, #23

0000078c <l357>:
     78c:	d2062601 	andle	r2, r6, #1048576	; 0x100000

00000790 <l358>:
     790:	ea000002 	b	7a0 <l362>

00000794 <l359>:
     794:	e28010fb 	add	r1, r0, #251	; 0xfb

00000798 <l360>:
     798:	537e068a 	cmnpl	lr, #144703488	; 0x8a00000

0000079c <l361>:
     79c:	ea000000 	b	7a4 <l363>

000007a0 <l362>:
     7a0:	eafffffc 	b	798 <l360>

000007a4 <l363>:
     7a4:	e25426ed 	subs	r2, r4, #248512512	; 0xed00000

000007a8 <l364>:
     7a8:	e1100906 	tst	r0, r6, lsl #18

000007ac <l365>:
     7ac:	915e000e 	cmpls	lr, lr

000007b0 <l366>:
     7b0:	ea000008 	b	7d8 <l376>

000007b4 <l367>:
     7b4:	20fcc1a9 	rscscs	ip, ip, r9, lsr #3

000007b8 <l368>:
     7b8:	01120004 	tsteq	r2, r4

000007bc <l369>:
     7bc:	e16f3f1b 	clz	r3, fp

000007c0 <l370>:
     7c0:	0025be16 	eoreq	fp, r5, r6, lsl lr

000007c4 <l371>:
     7c4:	e07a78ea 	rsbs	r7, sl, sl, ror #17

000007c8 <l372>:
     7c8:	016fbf12 	clzeq	fp, r2

000007cc <l373>:
     7cc:	916f1f19 	clzls	r1, r9

000007d0 <l374>:
     7d0:	10176009 	andsne	r6, r7, r9

000007d4 <l375>:
     7d4:	e153000b 	cmp	r3, fp

000007d8 <l376>:
     7d8:	e39207e3 	orrs	r0, r2, #59506688	; 0x38c0000

000007dc <l377>:
     7dc:	e05b2e06 	subs	r2, fp, r6, lsl #28

000007e0 <l378>:
     7e0:	e1910ac0 	orrs	r0, r1, r0, asr #21

000007e4 <l379>:
     7e4:	e93d55bf 	ldmdb	sp!, {r0, r1, r2, r3, r4, r5, r7, r8, sl, ip, lr}

000007e8 <l380>:
     7e8:	40fa9714 	rscsmi	r9, sl, r4, lsl r7

000007ec <l381>:
     7ec:	4213bef7 	andsmi	fp, r3, #3952	; 0xf70

000007f0 <l382>:
     7f0:	6069b00c 	rsbvs	fp, r9, ip

000007f4 <l383>:
     7f4:	5263788a 	rsbpl	r7, r3, #9043968	; 0x8a0000

000007f8 <l384>:
     7f8:	e80d8020 	stmda	sp, {r5, pc}

000007fc <l385>:
     7fc:	e0567331 	subs	r7, r6, r1, lsr r3

00000800 <l386>:
     800:	e0480437 	sub	r0, r8, r7, lsr r4

00000804 <l387>:
     804:	c2ca6403 	sbcgt	r6, sl, #50331648	; 0x3000000

00000808 <l388>:
     808:	7a000002 	bvc	818 <l392>

0000080c <l389>:
     80c:	e2801034 	add	r1, r0, #52	; 0x34

00000810 <l390>:
     810:	b0a17001 	adclt	r7, r1, r1

00000814 <l391>:
     814:	ea000000 	b	81c <l393>

00000818 <l392>:
     818:	eafffffc 	b	810 <l390>

0000081c <l393>:
     81c:	e0570980 	subs	r0, r7, r0, lsl #19

00000820 <l394>:
     820:	30883926 	addcc	r3, r8, r6, lsr #18

00000824 <l395>:
     824:	e13f000a 	teq	pc, sl

00000828 <l396>:
     828:	a1dcc000 	bicsge	ip, ip, r0

0000082c <l397>:
     82c:	e2d73203 	sbcs	r3, r7, #805306368	; 0x30000000

00000830 <l398>:
     830:	e02f000b 	eor	r0, pc, fp

00000834 <l399>:
     834:	e3a03004 	mov	r3, #4

00000838 <l400>:
     838:	e7bdc003 	ldr	ip, [sp, r3]!

0000083c <l401>:
     83c:	e2641008 	rsb	r1, r4, #8

00000840 <l402>:
     840:	b3140126 	tstlt	r4, #-2147483639	; 0x80000009

00000844 <l403>:
     844:	c1831b18 	orrgt	r1, r3, r8, lsl fp

00000848 <l404>:
     848:	633b0edb 	teqvs	fp, #3504	; 0xdb0

0000084c <l405>:
     84c:	313e0500 	teqcc	lr, r0, lsl #10

00000850 <l406>:
     850:	e3a05020 	mov	r5, #32

00000854 <l407>:
     854:	97cd0005 	strbls	r0, [sp, r5]

00000858 <l408>:
     858:	e3a0e02e 	mov	lr, #46	; 0x2e

0000085c <l409>:
     85c:	57dd500e 	ldrbpl	r5, [sp, lr]

00000860 <l410>:
     860:	0a000007 	beq	884 <l419>

00000864 <l411>:
     864:	e2383005 	eors	r3, r8, #5

00000868 <l412>:
     868:	0044800f 	subeq	r8, r4, pc

0000086c <l413>:
     86c:	a3c01dfa 	bicge	r1, r0, #16000	; 0x3e80

00000870 <l414>:
     870:	00447552 	subeq	r7, r4, r2, asr r5

00000874 <l415>:
     874:	c3e054d7 	mvngt	r5, #-687865856	; 0xd7000000

00000878 <l416>:
     878:	71a0500e 	movvc	r5, lr

0000087c <l417>:
     87c:	118b8e1e 	orrne	r8, fp, lr, lsl lr

00000880 <l418>:
     880:	13f009e7 	mvnsne	r0, #3784704	; 0x39c000

00000884 <l419>:
     884:	b1a0841b 	lsllt	r8, fp, r4

00000888 <l420>:
     888:	5298803c 	addspl	r8, r8, #60	; 0x3c

0000088c <l421>:
     88c:	d1700634 	cmnle	r0, r4, lsr r6

00000890 <l422>:
     890:	754d900c 	strbvc	r9, [sp, #-12]

00000894 <l423>:
     894:	d0112009 	andsle	r2, r1, r9

00000898 <l424>:
     898:	105e606e 	subsne	r6, lr, lr, rrx

0000089c <l425>:
     89c:	63a030a4 	movvs	r3, #164	; 0xa4

000008a0 <l426>:
     8a0:	2a000005 	bcs	8bc <l433>

000008a4 <l427>:
     8a4:	e280109f 	add	r1, r0, #159	; 0x9f

000008a8 <l428>:
     8a8:	735e0476 	cmpvc	lr, #1979711488	; 0x76000000

000008ac <l429>:
     8ac:	e019700f 	ands	r7, r9, pc

000008b0 <l430>:
     8b0:	e06ba25e 	rsb	sl, fp, lr, asr r2

000008b4 <l431>:
     8b4:	e2490c03 	sub	r0, r9, #768	; 0x300

000008b8 <l432>:
     8b8:	ea000000 	b	8c0 <l434>

000008bc <l433>:
     8bc:	eafffff9 	b	8a8 <l428>

000008c0 <l434>:
     8c0:	e052381e 	subs	r3, r2, lr, lsl r8

000008c4 <l435>:
     8c4:	e8bd5b7f 	pop	{r0, r1, r2, r3, r4, r5, r6, r8, r9, fp, ip, lr}

000008c8 <l436>:
     8c8:	551d2004 	ldrpl	r2, [sp, #-4]

000008cc <l437>:
     8cc:	e1a00000 	nop			; (mov r0, r0)

000008d0 <l438>:
     8d0:	ea000004 	b	8e8 <l444>

000008d4 <l439>:
     8d4:	e37c0219 	cmn	ip, #-1879048191	; 0x90000001

000008d8 <l440>:
     8d8:	e19cb069 	orrs	fp, ip, r9, rrx

000008dc <l441>:
     8dc:	215b006f 	cmpcs	fp, pc, rrx

000008e0 <l442>:
     8e0:	e0a42001 	adc	r2, r4, r1

000008e4 <l443>:
     8e4:	d0a32007 	adcle	r2, r3, r7

000008e8 <l444>:
     8e8:	e3f07090 	mvns	r7, #144	; 0x90

000008ec <l445>:
     8ec:	0a000002 	beq	8fc <l449>

000008f0 <l446>:
     8f0:	e28010be 	add	r1, r0, #190	; 0xbe

000008f4 <l447>:
     8f4:	8259673e 	subshi	r6, r9, #16252928	; 0xf80000

000008f8 <l448>:
     8f8:	ea000000 	b	900 <l450>

000008fc <l449>:
     8fc:	eafffffc 	b	8f4 <l447>

00000900 <l450>:
     900:	e2f92b02 	rscs	r2, r9, #2048	; 0x800

00000904 <l451>:
     904:	e3a08004 	mov	r8, #4

00000908 <l452>:
     908:	e61d0008 	ldr	r0, [sp], -r8

0000090c <l453>:
     90c:	41f05007 	mvnsmi	r5, r7

00000910 <l454>:
     910:	70171006 	andsvc	r1, r7, r6

00000914 <l455>:
     914:	e3a0c004 	mov	ip, #4

00000918 <l456>:
     918:	675db00c 	ldrbvs	fp, [sp, -ip]

0000091c <l457>:
     91c:	007c0000 	rsbseq	r0, ip, r0

00000920 <l458>:
     920:	c1d95002 	bicsgt	r5, r9, r2

00000924 <l459>:
     924:	e045823e 	sub	r8, r5, lr, lsr r2

00000928 <l460>:
     928:	e0d50913 	sbcs	r0, r5, r3, lsl r9

0000092c <l461>:
     92c:	a0a1300a 	adcge	r3, r1, sl

00000930 <l462>:
     930:	726a98eb 	rsbvc	r9, sl, #15400960	; 0xeb0000

00000934 <l463>:
     934:	70ae7601 	adcvc	r7, lr, r1, lsl #12

00000938 <l464>:
     938:	9217c8ca 	andsls	ip, r7, #13238272	; 0xca0000

0000093c <l465>:
     93c:	e16f1f13 	clz	r1, r3

00000940 <l466>:
     940:	d0176500 	andsle	r6, r7, r0, lsl #10

00000944 <l467>:
     944:	a13a000b 	teqge	sl, fp

00000948 <l468>:
     948:	e0321000 	eors	r1, r2, r0

0000094c <l469>:
     94c:	e15c000a 	cmp	ip, sl

00000950 <l470>:
     950:	33560127 	cmpcc	r6, #-1073741815	; 0xc0000009

00000954 <l471>:
     954:	81c66170 	bichi	r6, r6, r0, ror r1

00000958 <l472>:
     958:	71a01002 	movvc	r1, r2

0000095c <l473>:
     95c:	2a000007 	bcs	980 <l482>

00000960 <l474>:
     960:	015a000c 	cmpeq	sl, ip

00000964 <l475>:
     964:	e2a0b39a 	adc	fp, r0, #1744830466	; 0x68000002

00000968 <l476>:
     968:	e00f7062 	and	r7, pc, r2, rrx

0000096c <l477>:
     96c:	235602c5 	cmpcs	r6, #1342177292	; 0x5000000c

00000970 <l478>:
     970:	e04ce06e 	sub	lr, ip, lr, rrx

00000974 <l479>:
     974:	616fcf18 	clzvs	ip, r8

00000978 <l480>:
     978:	e16f9f1e 	clz	r9, lr

0000097c <l481>:
     97c:	52a91bc7 	adcpl	r1, r9, #203776	; 0x31c00

00000980 <l482>:
     980:	71887064 	orrvc	r7, r8, r4, rrx

00000984 <l483>:
     984:	e0ba7001 	adcs	r7, sl, r1

00000988 <l484>:
     988:	e0925000 	adds	r5, r2, r0

0000098c <l485>:
     98c:	0186e069 	orreq	lr, r6, r9, rrx

00000990 <l486>:
     990:	ea000005 	b	9ac <l493>

00000994 <l487>:
     994:	e280101a 	add	r1, r0, #26

00000998 <l488>:
     998:	e0345001 	eors	r5, r4, r1

0000099c <l489>:
     99c:	e0972e36 	adds	r2, r7, r6, lsr lr

000009a0 <l490>:
     9a0:	41899018 	orrmi	r9, r9, r8, lsl r0

000009a4 <l491>:
     9a4:	e1b0a511 	lsls	sl, r1, r5

000009a8 <l492>:
     9a8:	ea000000 	b	9b0 <l494>

000009ac <l493>:
     9ac:	eafffff9 	b	998 <l488>

000009b0 <l494>:
     9b0:	6185a00e 	orrvs	sl, r5, lr

000009b4 <l495>:
     9b4:	a02f352f 	eorge	r3, pc, pc, lsr #10

000009b8 <l496>:
     9b8:	ea000004 	b	9d0 <l502>

000009bc <l497>:
     9bc:	500bc11b 	andpl	ip, fp, fp, lsl r1

000009c0 <l498>:
     9c0:	e1710e57 	cmn	r1, r7, asr lr

000009c4 <l499>:
     9c4:	e1360068 	teq	r6, r8, rrx

000009c8 <l500>:
     9c8:	e1360064 	teq	r6, r4, rrx

000009cc <l501>:
     9cc:	d150038f 	cmple	r0, pc, lsl #7

000009d0 <l502>:
     9d0:	e1160873 	tst	r6, r3, ror r8

000009d4 <l503>:
     9d4:	e113068c 	tst	r3, ip, lsl #13

000009d8 <l504>:
     9d8:	ea000003 	b	9ec <l509>

000009dc <l505>:
     9dc:	e280107b 	add	r1, r0, #123	; 0x7b

000009e0 <l506>:
     9e0:	61e01275 	mvnvs	r1, r5, ror r2

000009e4 <l507>:
     9e4:	b0bb2008 	adcslt	r2, fp, r8

000009e8 <l508>:
     9e8:	ea000000 	b	9f0 <l510>

000009ec <l509>:
     9ec:	eafffffb 	b	9e0 <l506>

000009f0 <l510>:
     9f0:	4094c955 	addsmi	ip, r4, r5, asr r9

000009f4 <l511>:
     9f4:	e19491ae 	orrs	r9, r4, lr, lsr #3

000009f8 <l512>:
     9f8:	e83d0100 	ldmda	sp!, {r8}

000009fc <l513>:
     9fc:	408fa009 	addmi	sl, pc, r9

00000a00 <l514>:
     a00:	80772810 	rsbshi	r2, r7, r0, lsl r8

00000a04 <l515>:
     a04:	388d0060 	stmcc	sp, {r5, r6}

00000a08 <l516>:
     a08:	6a000001 	bvs	a14 <l519>

00000a0c <l517>:
     a0c:	539a3fc2 	orrspl	r3, sl, #776	; 0x308

00000a10 <l518>:
     a10:	d16faf1c 	clzle	sl, ip

00000a14 <l519>:
     a14:	a1a08005 	movge	r8, r5

00000a18 <l520>:
     a18:	213c000f 	teqcs	ip, pc

00000a1c <l521>:
     a1c:	11d7400e 	bicsne	r4, r7, lr

00000a20 <l522>:
     a20:	ea000008 	b	a48 <l532>

00000a24 <l523>:
     a24:	e040b456 	sub	fp, r0, r6, asr r4

00000a28 <l524>:
     a28:	a0896069 	addge	r6, r9, r9, rrx

00000a2c <l525>:
     a2c:	61d2c00c 	bicsvs	ip, r2, ip

00000a30 <l526>:
     a30:	e2655d26 	rsb	r5, r5, #2432	; 0x980

00000a34 <l527>:
     a34:	50db3006 	sbcspl	r3, fp, r6

00000a38 <l528>:
     a38:	904bc558 	subls	ip, fp, r8, asr r5

00000a3c <l529>:
     a3c:	e07e3004 	rsbs	r3, lr, r4

00000a40 <l530>:
     a40:	e09bea31 	adds	lr, fp, r1, lsr sl

00000a44 <l531>:
     a44:	e3e02177 	mvn	r2, #-1073741795	; 0xc000001d

00000a48 <l532>:
     a48:	e0d61443 	sbcs	r1, r6, r3, asr #8

00000a4c <l533>:
     a4c:	d3f06e7f 	mvnsle	r6, #2032	; 0x7f0

00000a50 <l534>:
     a50:	80170416 	andshi	r0, r7, r6, lsl r4

00000a54 <l535>:
     a54:	31580755 	cmpcc	r8, r5, asr r7

00000a58 <l536>:
     a58:	d90daadb 	stmdble	sp, {r0, r1, r3, r4, r6, r7, r9, fp, sp, pc}

00000a5c <l537>:
     a5c:	6a000001 	bvs	a68 <l540>

00000a60 <l538>:
     a60:	e0451572 	sub	r1, r5, r2, ror r5

00000a64 <l539>:
     a64:	838ecb15 	orrhi	ip, lr, #21504	; 0x5400

00000a68 <l540>:
     a68:	51c564cf 	bicpl	r6, r5, pc, asr #9

00000a6c <l541>:
     a6c:	40210066 	eormi	r0, r1, r6, rrx

00000a70 <l542>:
     a70:	ca000007 	bgt	a94 <l551>

00000a74 <l543>:
     a74:	e2801030 	add	r1, r0, #48	; 0x30

00000a78 <l544>:
     a78:	81340620 	teqhi	r4, r0, lsr #12

00000a7c <l545>:
     a7c:	e1150b1a 	tst	r5, sl, lsl fp

00000a80 <l546>:
     a80:	e183506e 	orr	r5, r3, lr, rrx

00000a84 <l547>:
     a84:	e05ce008 	subs	lr, ip, r8

00000a88 <l548>:
     a88:	31a05004 	movcc	r5, r4

00000a8c <l549>:
     a8c:	e068150b 	rsb	r1, r8, fp, lsl #10

00000a90 <l550>:
     a90:	ea000000 	b	a98 <l552>

00000a94 <l551>:
     a94:	eafffff7 	b	a78 <l544>

00000a98 <l552>:
     a98:	925a1502 	subsls	r1, sl, #8388608	; 0x800000

00000a9c <l553>:
     a9c:	e008c066 	and	ip, r8, r6, rrx

00000aa0 <l554>:
     aa0:	e1720061 	cmn	r2, r1, rrx

00000aa4 <l555>:
     aa4:	e1c500a5 	bic	r0, r5, r5, lsr #1

00000aa8 <l556>:
     aa8:	e0679452 	rsb	r9, r7, r2, asr r4

00000aac <l557>:
     aac:	a1d22061 	bicsge	r2, r2, r1, rrx

00000ab0 <l558>:
     ab0:	70263006 	eorvc	r3, r6, r6

00000ab4 <l559>:
     ab4:	a03a0007 	eorsge	r0, sl, r7

00000ab8 <l560>:
     ab8:	e1853748 	orr	r3, r5, r8, asr #14

00000abc <l561>:
     abc:	e2507d43 	subs	r7, r0, #4288	; 0x10c0

00000ac0 <l562>:
     ac0:	aa000007 	bge	ae4 <l571>

00000ac4 <l563>:
     ac4:	e1df97a5 	bics	r9, pc, r5, lsr #15

00000ac8 <l564>:
     ac8:	116fbf15 	clzne	fp, r5

00000acc <l565>:
     acc:	e2be3de2 	adcs	r3, lr, #14464	; 0x3880

00000ad0 <l566>:
     ad0:	e154045c 	cmp	r4, ip, asr r4

00000ad4 <l567>:
     ad4:	018b7f25 	orreq	r7, fp, r5, lsr #30

00000ad8 <l568>:
     ad8:	8284434d 	addhi	r4, r4, #872415233	; 0x34000001

00000adc <l569>:
     adc:	d2b31836 	adcsle	r1, r3, #3538944	; 0x360000

00000ae0 <l570>:
     ae0:	e16fef16 	clz	lr, r6

00000ae4 <l571>:
     ae4:	e16f5f1c 	clz	r5, ip

00000ae8 <l572>:
     ae8:	e3a07034 	mov	r7, #52	; 0x34

00000aec <l573>:
     aec:	e70d3007 	str	r3, [sp, -r7]

00000af0 <l574>:
     af0:	e1580880 	cmp	r8, r0, lsl #17

00000af4 <l575>:
     af4:	7114000c 	tstvc	r4, ip

00000af8 <l576>:
     af8:	b22b71e7 	eorlt	r7, fp, #-1073741767	; 0xc0000039

00000afc <l577>:
     afc:	e03a8804 	eors	r8, sl, r4, lsl #16

00000b00 <l578>:
     b00:	b3cb3f6a 	biclt	r3, fp, #424	; 0x1a8

00000b04 <l579>:
     b04:	a0b87c11 	adcsge	r7, r8, r1, lsl ip

00000b08 <l580>:
     b08:	c1f0500f 	mvnsgt	r5, pc

00000b0c <l581>:
     b0c:	00914001 	addseq	r4, r1, r1

00000b10 <l582>:
     b10:	e8bd0210 	pop	{r4, r9}

00000b14 <l583>:
     b14:	40b3646e 	adcsmi	r6, r3, lr, ror #8

00000b18 <l584>:
     b18:	104f9000 	subne	r9, pc, r0

00000b1c <l585>:
     b1c:	ea000008 	b	b44 <l595>

00000b20 <l586>:
     b20:	c2ffc42f 	rscsgt	ip, pc, #788529152	; 0x2f000000

00000b24 <l587>:
     b24:	e1c59a09 	bic	r9, r5, r9, lsl #20

00000b28 <l588>:
     b28:	313e0008 	teqcc	lr, r8

00000b2c <l589>:
     b2c:	e0687650 	rsb	r7, r8, r0, asr r6

00000b30 <l590>:
     b30:	a1780060 	cmnge	r8, r0, rrx

00000b34 <l591>:
     b34:	e065a00a 	rsb	sl, r5, sl

00000b38 <l592>:
     b38:	e17b0001 	cmn	fp, r1

00000b3c <l593>:
     b3c:	c2487917 	subgt	r7, r8, #376832	; 0x5c000

00000b40 <l594>:
     b40:	33c55687 	biccc	r5, r5, #141557760	; 0x8700000

00000b44 <l595>:
     b44:	204a4060 	subcs	r4, sl, r0, rrx

00000b48 <l596>:
     b48:	e3320c32 	teq	r2, #12800	; 0x3200

00000b4c <l597>:
     b4c:	e1a09910 	lsl	r9, r0, r9

00000b50 <l598>:
     b50:	e185027e 	orr	r0, r5, lr, ror r2

00000b54 <l599>:
     b54:	4a000003 	bmi	b68 <l604>

00000b58 <l600>:
     b58:	e28010c6 	add	r1, r0, #198	; 0xc6

00000b5c <l601>:
     b5c:	c24e3197 	subgt	r3, lr, #-1073741787	; 0xc0000025

00000b60 <l602>:
     b60:	611a0376 	tstvs	sl, r6, ror r3

00000b64 <l603>:
     b64:	ea000000 	b	b6c <l605>

00000b68 <l604>:
     b68:	eafffffb 	b	b5c <l601>

00000b6c <l605>:
     b6c:	b196b06e 	orrslt	fp, r6, lr, rrx

00000b70 <l606>:
     b70:	60c0506b 	sbcvs	r5, r0, fp, rrx

00000b74 <l607>:
     b74:	e3c64fd6 	bic	r4, r6, #856	; 0x358

00000b78 <l608>:
     b78:	e0752875 	rsbs	r2, r5, r5, ror r8

00000b7c <l609>:
     b7c:	e092040b 	adds	r0, r2, fp, lsl #8

00000b80 <l610>:
     b80:	d213448b 	andsle	r4, r3, #-1962934272	; 0x8b000000

00000b84 <l611>:
     b84:	e15e0009 	cmp	lr, r9

00000b88 <l612>:
     b88:	0131000b 	teqeq	r1, fp

00000b8c <l613>:
     b8c:	90eb2006 	rscls	r2, fp, r6

00000b90 <l614>:
     b90:	854d902c 	strbhi	r9, [sp, #-44]	; 0x2c

00000b94 <l615>:
     b94:	e2c22389 	sbc	r2, r2, #603979778	; 0x24000002

00000b98 <l616>:
     b98:	20db206b 	sbcscs	r2, fp, fp, rrx

00000b9c <l617>:
     b9c:	d2575777 	subsle	r5, r7, #31195136	; 0x1dc0000

00000ba0 <l618>:
     ba0:	e0ba106e 	adcs	r1, sl, lr, rrx

00000ba4 <l619>:
     ba4:	71dba069 	bicsvc	sl, fp, r9, rrx

00000ba8 <l620>:
     ba8:	635c0af1 	cmpvs	ip, #987136	; 0xf1000

00000bac <l621>:
     bac:	ea000006 	b	bcc <l629>

00000bb0 <l622>:
     bb0:	e28010c5 	add	r1, r0, #197	; 0xc5

00000bb4 <l623>:
     bb4:	d2bb29dd 	adcsle	r2, fp, #3620864	; 0x374000

00000bb8 <l624>:
     bb8:	e083300e 	add	r3, r3, lr

00000bbc <l625>:
     bbc:	903b1355 	eorsls	r1, fp, r5, asr r3

00000bc0 <l626>:
     bc0:	c09718aa 	addsgt	r1, r7, sl, lsr #17

00000bc4 <l627>:
     bc4:	3039a7ac 	eorscc	sl, r9, ip, lsr #15

00000bc8 <l628>:
     bc8:	ea000000 	b	bd0 <l630>

00000bcc <l629>:
     bcc:	eafffff8 	b	bb4 <l623>

00000bd0 <l630>:
     bd0:	ea000004 	b	be8 <l636>

00000bd4 <l631>:
     bd4:	e2801035 	add	r1, r0, #53	; 0x35

00000bd8 <l632>:
     bd8:	a0188067 	andsge	r8, r8, r7, rrx

00000bdc <l633>:
     bdc:	e0bebe09 	adcs	fp, lr, r9, lsl #28

00000be0 <l634>:
     be0:	105b5806 	subsne	r5, fp, r6, lsl #16

00000be4 <l635>:
     be4:	ea000000 	b	bec <l637>

00000be8 <l636>:
     be8:	eafffffa 	b	bd8 <l632>

00000bec <l637>:
     bec:	817c0004 	cmnhi	ip, r4

00000bf0 <l638>:
     bf0:	43b016c6 	movsmi	r1, #207618048	; 0xc600000

00000bf4 <l639>:
     bf4:	60c34008 	sbcvs	r4, r3, r8

00000bf8 <l640>:
     bf8:	435406fb 	cmpmi	r4, #263192576	; 0xfb00000

00000bfc <l641>:
     bfc:	ea000006 	b	c1c <l649>

00000c00 <l642>:
     c00:	e2801009 	add	r1, r0, #9

00000c04 <l643>:
     c04:	01a0207a 	roreq	r2, sl, r0

00000c08 <l644>:
     c08:	40a974c0 	adcmi	r7, r9, r0, asr #9

00000c0c <l645>:
     c0c:	e1f0206f 	mvns	r2, pc, rrx

00000c10 <l646>:
     c10:	e339084a 	teq	r9, #4849664	; 0x4a0000

00000c14 <l647>:
     c14:	e08acb00 	add	ip, sl, r0, lsl #22

00000c18 <l648>:
     c18:	ea000000 	b	c20 <l650>

00000c1c <l649>:
     c1c:	eafffff8 	b	c04 <l643>

00000c20 <l650>:
     c20:	e06aa066 	rsb	sl, sl, r6, rrx

00000c24 <l651>:
     c24:	e1a00000 	nop			; (mov r0, r0)

00000c28 <l652>:
     c28:	e1a00000 	nop			; (mov r0, r0)

00000c2c <l653>:
     c2c:	e0bab75a 	adcs	fp, sl, sl, asr r7

00000c30 <l654>:
     c30:	51c62063 	bicpl	r2, r6, r3, rrx

00000c34 <l655>:
     c34:	905a3000 	subsls	r3, sl, r0

00000c38 <l656>:
     c38:	e1a00000 	nop			; (mov r0, r0)

00000c3c <l657>:
     c3c:	ea000002 	b	c4c <l661>

00000c40 <l658>:
     c40:	e280106d 	add	r1, r0, #109	; 0x6d

00000c44 <l659>:
     c44:	b0012065 	andlt	r2, r1, r5, rrx

00000c48 <l660>:
     c48:	ea000000 	b	c50 <l662>

00000c4c <l661>:
     c4c:	eafffffc 	b	c44 <l659>

00000c50 <l662>:
     c50:	4a000001 	bmi	c5c <l665>

00000c54 <l663>:
     c54:	e019ab79 	ands	sl, r9, r9, ror fp

00000c58 <l664>:
     c58:	213a0354 	teqcs	sl, r4, asr r3

00000c5c <l665>:
     c5c:	b0415511 	sublt	r5, r1, r1, lsl r5

00000c60 <l666>:
     c60:	7a000002 	bvc	c70 <l670>

00000c64 <l667>:
     c64:	01a0c002 	moveq	ip, r2

00000c68 <l668>:
     c68:	d00bab12 	andle	sl, fp, r2, lsl fp

00000c6c <l669>:
     c6c:	5134046b 	teqpl	r4, fp, ror #8

00000c70 <l670>:
     c70:	e0abc009 	adc	ip, fp, r9

00000c74 <l671>:
     c74:	e92de000 	push	{sp, lr, pc}

00000c78 <l672>:
     c78:	20b1b06c 	adcscs	fp, r1, ip, rrx

00000c7c <l673>:
     c7c:	e3a05001 	mov	r5, #1

00000c80 <l674>:
     c80:	e7dde005 	ldrb	lr, [sp, r5]

00000c84 <l675>:
     c84:	e17c006a 	cmn	ip, sl, rrx

00000c88 <l676>:
     c88:	a1f05deb 	mvnsge	r5, fp, ror #27

00000c8c <l677>:
     c8c:	e2b2633a 	adcs	r6, r2, #-402653184	; 0xe8000000

00000c90 <l678>:
     c90:	e3a02021 	mov	r2, #33	; 0x21

00000c94 <l679>:
     c94:	e75d4002 	ldrb	r4, [sp, -r2]

00000c98 <l680>:
     c98:	e1730001 	cmn	r3, r1

00000c9c <l681>:
     c9c:	e033c030 	eors	ip, r3, r0, lsr r0

00000ca0 <l682>:
     ca0:	e017c988 	ands	ip, r7, r8, lsl #19

00000ca4 <l683>:
     ca4:	0affffff 	beq	ca8 <l684>

00000ca8 <l684>:
     ca8:	4260a98f 	rsbmi	sl, r0, #2342912	; 0x23c000

00000cac <l685>:
     cac:	e1a00000 	nop			; (mov r0, r0)

00000cb0 <l686>:
     cb0:	c1e0648e 	mvngt	r6, lr, lsl #9

00000cb4 <l687>:
     cb4:	e1d26585 	bics	r6, r2, r5, lsl #11

00000cb8 <l688>:
     cb8:	8a000002 	bhi	cc8 <l692>

00000cbc <l689>:
     cbc:	d0cb5256 	sbcle	r5, fp, r6, asr r2

00000cc0 <l690>:
     cc0:	e1a0e763 	ror	lr, r3, #14

00000cc4 <l691>:
     cc4:	e16f2f1a 	clz	r2, sl

00000cc8 <l692>:
     cc8:	e03f606a 	eors	r6, pc, sl, rrx

00000ccc <l693>:
     ccc:	a1a0e062 	rrxge	lr, r2

00000cd0 <l694>:
     cd0:	b0636008 	rsblt	r6, r3, r8

00000cd4 <l695>:
     cd4:	e15400ac 	cmp	r4, ip, lsr #1

00000cd8 <l696>:
     cd8:	7a000005 	bvc	cf4 <l703>

00000cdc <l697>:
     cdc:	e2801060 	add	r1, r0, #96	; 0x60

00000ce0 <l698>:
     ce0:	e0f5000b 	rscs	r0, r5, fp

00000ce4 <l699>:
     ce4:	7172065a 	cmnvc	r2, sl, asr r6

00000ce8 <l700>:
     ce8:	629b9094 	addsvs	r9, fp, #148	; 0x94

00000cec <l701>:
     cec:	8390ab5b 	orrshi	sl, r0, #93184	; 0x16c00

00000cf0 <l702>:
     cf0:	ea000000 	b	cf8 <l704>

00000cf4 <l703>:
     cf4:	eafffff9 	b	ce0 <l698>

00000cf8 <l704>:
     cf8:	e20f37a3 	and	r3, pc, #42729472	; 0x28c0000

00000cfc <l705>:
     cfc:	e0817857 	add	r7, r1, r7, asr r8

00000d00 <l706>:
     d00:	80349000 	eorshi	r9, r4, r0

00000d04 <l707>:
     d04:	e2138585 	ands	r8, r3, #557842432	; 0x21400000

00000d08 <l708>:
     d08:	a3b04d37 	movsge	r4, #3520	; 0xdc0

00000d0c <l709>:
     d0c:	701bb6c4 	andsvc	fp, fp, r4, asr #13

00000d10 <l710>:
     d10:	a01591c7 	andsge	r9, r5, r7, asr #3

00000d14 <l711>:
     d14:	5a000002 	bpl	d24 <l715>

00000d18 <l712>:
     d18:	e28010e9 	add	r1, r0, #233	; 0xe9

00000d1c <l713>:
     d1c:	6098706c 	addsvs	r7, r8, ip, rrx

00000d20 <l714>:
     d20:	ea000000 	b	d28 <l716>

00000d24 <l715>:
     d24:	eafffffc 	b	d1c <l713>

00000d28 <l716>:
     d28:	e8ad2000 	stmia	sp!, {sp}

00000d2c <l717>:
     d2c:	b03a82c0 	eorslt	r8, sl, r0, asr #5

00000d30 <l718>:
     d30:	13730321 	cmnne	r3, #-2080374784	; 0x84000000

00000d34 <l719>:
     d34:	93120915 	tstls	r2, #344064	; 0x54000

00000d38 <l720>:
     d38:	e119075a 	tst	r9, sl, asr r7

00000d3c <l721>:
     d3c:	a0f1200b 	rscsge	r2, r1, fp

00000d40 <l722>:
     d40:	e1550008 	cmp	r5, r8

00000d44 <l723>:
     d44:	416f0f16 	clzmi	r0, r6

00000d48 <l724>:
     d48:	4234630b 	eorsmi	r6, r4, #738197504	; 0x2c000000

00000d4c <l725>:
     d4c:	6382871e 	orrvs	r8, r2, #7864320	; 0x780000

00000d50 <l726>:
     d50:	c15f02c8 	cmpgt	pc, r8, asr #5

00000d54 <l727>:
     d54:	e1720004 	cmn	r2, r4

00000d58 <l728>:
     d58:	e0742b14 	rsbs	r2, r4, r4, lsl fp

00000d5c <l729>:
     d5c:	e1350555 	teq	r5, r5, asr r5

00000d60 <l730>:
     d60:	516f8f13 	clzpl	r8, r3

00000d64 <l731>:
     d64:	e179025e 	cmn	r9, lr, asr r2

00000d68 <l732>:
     d68:	e2aa85fa 	adc	r8, sl, #1048576000	; 0x3e800000

00000d6c <l733>:
     d6c:	9220cae9 	eorls	ip, r0, #954368	; 0xe9000

00000d70 <l734>:
     d70:	e16fbf1b 	clz	fp, fp

00000d74 <l735>:
     d74:	a006c06f 	andge	ip, r6, pc, rrx

00000d78 <l736>:
     d78:	e8ad0001 	stmia	sp!, {r0}

00000d7c <l737>:
     d7c:	e3ca880e 	bic	r8, sl, #917504	; 0xe0000

00000d80 <l738>:
     d80:	ea000002 	b	d90 <l742>

00000d84 <l739>:
     d84:	e280102b 	add	r1, r0, #43	; 0x2b

00000d88 <l740>:
     d88:	b1b0a007 	movslt	sl, r7

00000d8c <l741>:
     d8c:	ea000000 	b	d94 <l743>

00000d90 <l742>:
     d90:	eafffffc 	b	d88 <l740>

00000d94 <l743>:
     d94:	e3770913 	cmn	r7, #311296	; 0x4c000

00000d98 <l744>:
     d98:	c3c864a2 	bicgt	r6, r8, #-1577058304	; 0xa2000000

00000d9c <l745>:
     d9c:	e1b02000 	movs	r2, r0

00000da0 <l746>:
     da0:	724faa1a 	subvc	sl, pc, #106496	; 0x1a000

00000da4 <l747>:
     da4:	e19f1006 	orrs	r1, pc, r6

00000da8 <l748>:
     da8:	e33e05ab 	teq	lr, #717225984	; 0x2ac00000

00000dac <l749>:
     dac:	c0f0200f 	rscsgt	r2, r0, pc

00000db0 <l750>:
     db0:	ba000008 	blt	dd8 <l760>

00000db4 <l751>:
     db4:	e156006e 	cmp	r6, lr, rrx

00000db8 <l752>:
     db8:	e1720a08 	cmn	r2, r8, lsl #20

00000dbc <l753>:
     dbc:	202f1005 	eorcs	r1, pc, r5

00000dc0 <l754>:
     dc0:	e2e119f3 	rsc	r1, r1, #3981312	; 0x3cc000

00000dc4 <l755>:
     dc4:	30178828 	andscc	r8, r7, r8, lsr #16

00000dc8 <l756>:
     dc8:	e046942f 	sub	r9, r6, pc, lsr #8

00000dcc <l757>:
     dcc:	72541b2e 	subsvc	r1, r4, #47104	; 0xb800

00000dd0 <l758>:
     dd0:	12ef573d 	rscne	r5, pc, #15990784	; 0xf40000

00000dd4 <l759>:
     dd4:	21933413 	orrscs	r3, r3, r3, lsl r4

00000dd8 <l760>:
     dd8:	b1590003 	cmplt	r9, r3

00000ddc <l761>:
     ddc:	5a000006 	bpl	dfc <l769>

00000de0 <l762>:
     de0:	e28010ac 	add	r1, r0, #172	; 0xac

00000de4 <l763>:
     de4:	e0534000 	subs	r4, r3, r0

00000de8 <l764>:
     de8:	e19a4177 	orrs	r4, sl, r7, ror r1

00000dec <l765>:
     dec:	b041ca7b 	sublt	ip, r1, fp, ror sl

00000df0 <l766>:
     df0:	816f9f1a 	clzhi	r9, sl

00000df4 <l767>:
     df4:	d1330007 	teqle	r3, r7

00000df8 <l768>:
     df8:	ea000000 	b	e00 <l770>

00000dfc <l769>:
     dfc:	eafffff8 	b	de4 <l763>

00000e00 <l770>:
     e00:	c1760537 	cmngt	r6, r7, lsr r5

00000e04 <l771>:
     e04:	6036ad4f 	eorsvs	sl, r6, pc, asr #26

00000e08 <l772>:
     e08:	e3a09040 	mov	r9, #64	; 0x40

00000e0c <l773>:
     e0c:	e73d7009 	ldr	r7, [sp, -r9]!

00000e10 <l774>:
     e10:	e08eb00a 	add	fp, lr, sl

00000e14 <l775>:
     e14:	e1a07e00 	lsl	r7, r0, #28

00000e18 <l776>:
     e18:	e5adb044 	str	fp, [sp, #68]!	; 0x44

00000e1c <l777>:
     e1c:	e33f0ed5 	teq	pc, #3408	; 0xd50

00000e20 <l778>:
     e20:	e1100069 	tst	r0, r9, rrx

00000e24 <l779>:
     e24:	e0991002 	adds	r1, r9, r2

00000e28 <l780>:
     e28:	e55d3044 	ldrb	r3, [sp, #-68]	; 0x44

00000e2c <l781>:
     e2c:	e04c3000 	sub	r3, ip, r0

00000e30 <l782>:
     e30:	b3b0eb36 	movslt	lr, #55296	; 0xd800

00000e34 <l783>:
     e34:	239f49ae 	orrscs	r4, pc, #2850816	; 0x2b8000

00000e38 <l784>:
     e38:	515b0da1 	cmppl	fp, r1, lsr #27

00000e3c <l785>:
     e3c:	73190d0b 	tstvc	r9, #704	; 0x2c0

00000e40 <l786>:
     e40:	31110062 	tstcc	r1, r2, rrx

00000e44 <l787>:
     e44:	e3907c3e 	orrs	r7, r0, #15872	; 0x3e00

00000e48 <l788>:
     e48:	e1835009 	orr	r5, r3, r9

00000e4c <l789>:
     e4c:	aa000006 	bge	e6c <l797>

00000e50 <l790>:
     e50:	e0a02a7a 	adc	r2, r0, sl, ror sl

00000e54 <l791>:
     e54:	e25260dc 	subs	r6, r2, #220	; 0xdc

00000e58 <l792>:
     e58:	b1a0e00a 	movlt	lr, sl

00000e5c <l793>:
     e5c:	d0a46777 	adcle	r6, r4, r7, ror r7

00000e60 <l794>:
     e60:	d0bf800f 	adcsle	r8, pc, pc

00000e64 <l795>:
     e64:	e33c0b2b 	teq	ip, #44032	; 0xac00

00000e68 <l796>:
     e68:	d24fc555 	suble	ip, pc, #356515840	; 0x15400000

00000e6c <l797>:
     e6c:	e0a82dc1 	adc	r2, r8, r1, asr #27

00000e70 <l798>:
     e70:	817803a6 	cmnhi	r8, r6, lsr #7

00000e74 <l799>:
     e74:	aa000007 	bge	e98 <l808>

00000e78 <l800>:
     e78:	b1876501 	orrlt	r6, r7, r1, lsl #10

00000e7c <l801>:
     e7c:	5053a277 	subspl	sl, r3, r7, ror r2

00000e80 <l802>:
     e80:	e35104c2 	cmp	r1, #-1040187392	; 0xc2000000

00000e84 <l803>:
     e84:	c08e9b23 	addgt	r9, lr, r3, lsr #22

00000e88 <l804>:
     e88:	b0988d45 	addslt	r8, r8, r5, asr #26

00000e8c <l805>:
     e8c:	e04bb004 	sub	fp, fp, r4

00000e90 <l806>:
     e90:	e0314007 	eors	r4, r1, r7

00000e94 <l807>:
     e94:	e1e0b009 	mvn	fp, r9

00000e98 <l808>:
     e98:	21700008 	cmncs	r0, r8

00000e9c <l809>:
     e9c:	62f905be 	rscsvs	r0, r9, #796917760	; 0x2f800000

00000ea0 <l810>:
     ea0:	e1a00000 	nop			; (mov r0, r0)

00000ea4 <l811>:
     ea4:	716faf1e 	clzvc	sl, lr

00000ea8 <l812>:
     ea8:	5217b31e 	andspl	fp, r7, #2013265920	; 0x78000000

00000eac <l813>:
     eac:	d022e00e 	eorle	lr, r2, lr

00000eb0 <l814>:
     eb0:	13b0472a 	movsne	r4, #11010048	; 0xa80000

00000eb4 <l815>:
     eb4:	e39b43af 	orrs	r4, fp, #-1140850686	; 0xbc000002

00000eb8 <l816>:
     eb8:	eaffffff 	b	ebc <l817>

00000ebc <l817>:
     ebc:	60dce639 	sbcsvs	lr, ip, r9, lsr r6

00000ec0 <l818>:
     ec0:	71f07068 	mvnsvc	r7, r8, rrx

00000ec4 <l819>:
     ec4:	e16fbf1c 	clz	fp, ip

00000ec8 <l820>:
     ec8:	e50d2010 	str	r2, [sp, #-16]

00000ecc <l821>:
     ecc:	e131075c 	teq	r1, ip, asr r7

00000ed0 <l822>:
     ed0:	616f4f13 	clzvs	r4, r3

00000ed4 <l823>:
     ed4:	e1b09000 	movs	r9, r0

00000ed8 <l824>:
     ed8:	50a7c003 	adcpl	ip, r7, r3

00000edc <l825>:
     edc:	da000006 	ble	efc <l833>

00000ee0 <l826>:
     ee0:	e2801047 	add	r1, r0, #71	; 0x47

00000ee4 <l827>:
     ee4:	e16f6f12 	clz	r6, r2

00000ee8 <l828>:
     ee8:	e13a078e 	teq	sl, lr, lsl #15

00000eec <l829>:
     eec:	d19ba7cb 	orrsle	sl, fp, fp, asr #15

00000ef0 <l830>:
     ef0:	022cb5c1 	eoreq	fp, ip, #809500672	; 0x30400000

00000ef4 <l831>:
     ef4:	e1710c33 	cmn	r1, r3, lsr ip

00000ef8 <l832>:
     ef8:	ea000000 	b	f00 <l834>

00000efc <l833>:
     efc:	eafffff8 	b	ee4 <l827>

00000f00 <l834>:
     f00:	e1988069 	orrs	r8, r8, r9, rrx

00000f04 <l835>:
     f04:	e0078240 	and	r8, r7, r0, asr #4

00000f08 <l836>:
     f08:	e0f5a003 	rscs	sl, r5, r3

00000f0c <l837>:
     f0c:	205926e8 	subscs	r2, r9, r8, ror #13

00000f10 <l838>:
     f10:	e0179156 	ands	r9, r7, r6, asr r1

00000f14 <l839>:
     f14:	60d7c266 	sbcsvs	ip, r7, r6, ror #4

00000f18 <l840>:
     f18:	e3922426 	orrs	r2, r2, #637534208	; 0x26000000

00000f1c <l841>:
     f1c:	405ee00f 	subsmi	lr, lr, pc

00000f20 <l842>:
     f20:	e029c064 	eor	ip, r9, r4, rrx

00000f24 <l843>:
     f24:	e0326e8a 	eors	r6, r2, sl, lsl #29

00000f28 <l844>:
     f28:	90a7a001 	adcls	sl, r7, r1

00000f2c <l845>:
     f2c:	e045900c 	sub	r9, r5, ip

00000f30 <l846>:
     f30:	31e00753 	mvncc	r0, r3, asr r7

00000f34 <l847>:
     f34:	41990733 	orrsmi	r0, r9, r3, lsr r7

00000f38 <l848>:
     f38:	c0bf30e6 	adcsgt	r3, pc, r6, ror #1

00000f3c <l849>:
     f3c:	61c28000 	bicvs	r8, r2, r0

00000f40 <l850>:
     f40:	3a000000 	bcc	f48 <l852>

00000f44 <l851>:
     f44:	92e372bf 	rscls	r7, r3, #-268435445	; 0xf000000b

00000f48 <l852>:
     f48:	3090e064 	addscc	lr, r0, r4, rrx

00000f4c <l853>:
     f4c:	725ea7bf 	subsvc	sl, lr, #50069504	; 0x2fc0000

00000f50 <l854>:
     f50:	515a0263 	cmppl	sl, r3, ror #4

00000f54 <l855>:
     f54:	217b01e0 	cmncs	fp, r0, ror #3

00000f58 <l856>:
     f58:	e1330457 	teq	r3, r7, asr r4

00000f5c <l857>:
     f5c:	61b0606f 	rrxsvs	r6, pc

00000f60 <l858>:
     f60:	e02ae06e 	eor	lr, sl, lr, rrx

00000f64 <l859>:
     f64:	c13f0000 	teqgt	pc, r0

00000f68 <l860>:
     f68:	a0ae7001 	adcge	r7, lr, r1

00000f6c <l861>:
     f6c:	8a000002 	bhi	f7c <l865>

00000f70 <l862>:
     f70:	e28010e7 	add	r1, r0, #231	; 0xe7

00000f74 <l863>:
     f74:	b1b02000 	movslt	r2, r0

00000f78 <l864>:
     f78:	ea000000 	b	f80 <l866>

00000f7c <l865>:
     f7c:	eafffffc 	b	f74 <l863>

00000f80 <l866>:
     f80:	e2ace56f 	adc	lr, ip, #465567744	; 0x1bc00000

00000f84 <l867>:
     f84:	0024b008 	eoreq	fp, r4, r8

00000f88 <l868>:
     f88:	d0507002 	subsle	r7, r0, r2

00000f8c <l869>:
     f8c:	ea000002 	b	f9c <l873>

00000f90 <l870>:
     f90:	e1a03353 	asr	r3, r3, r3

00000f94 <l871>:
     f94:	e0b5300e 	adcs	r3, r5, lr

00000f98 <l872>:
     f98:	72ae797a 	adcvc	r7, lr, #1998848	; 0x1e8000

00000f9c <l873>:
     f9c:	e3972253 	orrs	r2, r7, #805306373	; 0x30000005

00000fa0 <l874>:
     fa0:	e2f0b5c9 	rscs	fp, r0, #843055104	; 0x32400000

00000fa4 <l875>:
     fa4:	2252ae3a 	subscs	sl, r2, #928	; 0x3a0

00000fa8 <l876>:
     fa8:	b07a0004 	rsbslt	r0, sl, r4

00000fac <l877>:
     fac:	915e0a60 	cmpls	lr, r0, ror #20

00000fb0 <l878>:
     fb0:	928aa007 	addls	sl, sl, #7

00000fb4 <l879>:
     fb4:	e02ec007 	eor	ip, lr, r7

00000fb8 <l880>:
     fb8:	e0de9471 	sbcs	r9, lr, r1, ror r4

00000fbc <l881>:
     fbc:	913407e0 	teqls	r4, r0, ror #15

00000fc0 <l882>:
     fc0:	e037414b 	eors	r4, r7, fp, asr #2

00000fc4 <l883>:
     fc4:	ea000008 	b	fec <l893>

00000fc8 <l884>:
     fc8:	816fbf14 	clzhi	fp, r4

00000fcc <l885>:
     fcc:	10f8700e 	rscsne	r7, r8, lr

00000fd0 <l886>:
     fd0:	e1a0b006 	mov	fp, r6

00000fd4 <l887>:
     fd4:	20fb585a 	rscscs	r5, fp, sl, asr r8

00000fd8 <l888>:
     fd8:	03989e33 	orrseq	r9, r8, #816	; 0x330

00000fdc <l889>:
     fdc:	e1b0c00e 	movs	ip, lr

00000fe0 <l890>:
     fe0:	e21b9692 	ands	r9, fp, #153092096	; 0x9200000

00000fe4 <l891>:
     fe4:	e05e6060 	subs	r6, lr, r0, rrx

00000fe8 <l892>:
     fe8:	e1110d00 	tst	r1, r0, lsl #26

00000fec <l893>:
     fec:	e0a047a8 	adc	r4, r0, r8, lsr #15

00000ff0 <l894>:
     ff0:	b0354083 	eorslt	r4, r5, r3, lsl #1

00000ff4 <l895>:
     ff4:	e23b448e 	eors	r4, fp, #-1912602624	; 0x8e000000

00000ff8 <l896>:
     ff8:	902e3833 	eorls	r3, lr, r3, lsr r8

00000ffc <l897>:
     ffc:	e1a00000 	nop			; (mov r0, r0)

00001000 <l898>:
    1000:	e17b000e 	cmn	fp, lr

00001004 <l899>:
    1004:	ba000005 	blt	1020 <l906>

00001008 <l900>:
    1008:	e28010ec 	add	r1, r0, #236	; 0xec

0000100c <l901>:
    100c:	3184ce3a 	orrcc	ip, r4, sl, lsr lr

00001010 <l902>:
    1010:	e11f0066 	tst	pc, r6, rrx

00001014 <l903>:
    1014:	e1936060 	orrs	r6, r3, r0, rrx

00001018 <l904>:
    1018:	e0c11003 	sbc	r1, r1, r3

0000101c <l905>:
    101c:	ea000000 	b	1024 <l907>

00001020 <l906>:
    1020:	eafffff9 	b	100c <l901>

00001024 <l907>:
    1024:	7a000007 	bvc	1048 <l916>

00001028 <l908>:
    1028:	03160a76 	tsteq	r6, #483328	; 0x76000

0000102c <l909>:
    102c:	e33f0d7e 	teq	pc, #8064	; 0x1f80

00001030 <l910>:
    1030:	e00a2c8e 	and	r2, sl, lr, lsl #25

00001034 <l911>:
    1034:	918a3000 	orrls	r3, sl, r0

00001038 <l912>:
    1038:	e152006e 	cmp	r2, lr, rrx

0000103c <l913>:
    103c:	616faf1c 	clzvs	sl, ip

00001040 <l914>:
    1040:	e1e0ee30 	mvn	lr, r0, lsr lr

00001044 <l915>:
    1044:	41f0800f 	mvnsmi	r8, pc

00001048 <l916>:
    1048:	e1110313 	tst	r1, r3, lsl r3

0000104c <l917>:
    104c:	71310008 	teqvc	r1, r8

00001050 <l918>:
    1050:	21db3661 	bicscs	r3, fp, r1, ror #12

00001054 <l919>:
    1054:	e16fbf13 	clz	fp, r3

00001058 <l920>:
    1058:	82580351 	subshi	r0, r8, #1140850689	; 0x44000001

0000105c <l921>:
    105c:	e16f2f1c 	clz	r2, ip

00001060 <l922>:
    1060:	10417138 	subne	r7, r1, r8, lsr r1

00001064 <l923>:
    1064:	81130068 	tsthi	r3, r8, rrx

00001068 <l924>:
    1068:	73d871c1 	bicsvc	r7, r8, #1073741872	; 0x40000030

0000106c <l925>:
    106c:	511f0067 	tstpl	pc, r7, rrx

00001070 <l926>:
    1070:	ea000005 	b	108c <l933>

00001074 <l927>:
    1074:	e28010be 	add	r1, r0, #190	; 0xbe

00001078 <l928>:
    1078:	e3770c29 	cmn	r7, #10496	; 0x2900

0000107c <l929>:
    107c:	a06ead0a 	rsbge	sl, lr, sl, lsl #26

00001080 <l930>:
    1080:	a110006f 	tstge	r0, pc, rrx

00001084 <l931>:
    1084:	e3d54015 	bics	r4, r5, #21

00001088 <l932>:
    1088:	ea000000 	b	1090 <l934>

0000108c <l933>:
    108c:	eafffff9 	b	1078 <l928>

00001090 <l934>:
    1090:	3087c00a 	addcc	ip, r7, sl

00001094 <l935>:
    1094:	e1911035 	orrs	r1, r1, r5, lsr r0

00001098 <l936>:
    1098:	5048c067 	subpl	ip, r8, r7, rrx

0000109c <l937>:
    109c:	20768003 	rsbscs	r8, r6, r3

000010a0 <l938>:
    10a0:	e1dcc003 	bics	ip, ip, r3

000010a4 <l939>:
    10a4:	81ca6572 	bichi	r6, sl, r2, ror r5

000010a8 <l940>:
    10a8:	6a000003 	bvs	10bc <l945>

000010ac <l941>:
    10ac:	e280100f 	add	r1, r0, #15

000010b0 <l942>:
    10b0:	e042e06a 	sub	lr, r2, sl, rrx

000010b4 <l943>:
    10b4:	81b08a3c 	lsrshi	r8, ip, sl

000010b8 <l944>:
    10b8:	ea000000 	b	10c0 <l946>

000010bc <l945>:
    10bc:	eafffffb 	b	10b0 <l942>

000010c0 <l946>:
    10c0:	e54d7035 	strb	r7, [sp, #-53]	; 0x35

000010c4 <l947>:
    10c4:	216f3f17 	clzcs	r3, r7

000010c8 <l948>:
    10c8:	e1cec354 	bic	ip, lr, r4, asr r3

000010cc <l949>:
    10cc:	e1a00000 	nop			; (mov r0, r0)

000010d0 <l950>:
    10d0:	e1c5006b 	bic	r0, r5, fp, rrx

000010d4 <l951>:
    10d4:	e080906c 	add	r9, r0, ip, rrx

000010d8 <l952>:
    10d8:	111a0004 	tstne	sl, r4

000010dc <l953>:
    10dc:	8a000004 	bhi	10f4 <l959>

000010e0 <l954>:
    10e0:	c0227614 	eorgt	r7, r2, r4, lsl r6

000010e4 <l955>:
    10e4:	e23a9689 	eors	r9, sl, #143654912	; 0x8900000

000010e8 <l956>:
    10e8:	116fcf18 	clzne	ip, r8

000010ec <l957>:
    10ec:	61b07739 	lsrsvs	r7, r9, r7

000010f0 <l958>:
    10f0:	60502009 	subsvs	r2, r0, r9

000010f4 <l959>:
    10f4:	21f09009 	mvnscs	r9, r9

000010f8 <l960>:
    10f8:	300a7a3e 	andcc	r7, sl, lr, lsr sl

000010fc <l961>:
    10fc:	c174000a 	cmngt	r4, sl

00001100 <l962>:
    1100:	e057e2e6 	subs	lr, r7, r6, ror #5

00001104 <l963>:
    1104:	e1d88e0b 	bics	r8, r8, fp, lsl #28

00001108 <l964>:
    1108:	216fcf18 	clzcs	ip, r8

0000110c <l965>:
    110c:	e0997007 	adds	r7, r9, r7

00001110 <l966>:
    1110:	e243e906 	sub	lr, r3, #98304	; 0x18000

00001114 <l967>:
    1114:	e3a06039 	mov	r6, #57	; 0x39

00001118 <l968>:
    1118:	674d8006 	strbvs	r8, [sp, -r6]

0000111c <l969>:
    111c:	e2c56ca5 	sbc	r6, r5, #42240	; 0xa500

00001120 <l970>:
    1120:	81a04607 	lslhi	r4, r7, #12

00001124 <l971>:
    1124:	e1a00000 	nop			; (mov r0, r0)

00001128 <l972>:
    1128:	b258ec52 	subslt	lr, r8, #20992	; 0x5200

0000112c <l973>:
    112c:	e29bc90f 	adds	ip, fp, #245760	; 0x3c000

00001130 <l974>:
    1130:	ea000005 	b	114c <l981>

00001134 <l975>:
    1134:	00a34007 	adceq	r4, r3, r7

00001138 <l976>:
    1138:	e01be06f 	ands	lr, fp, pc, rrx

0000113c <l977>:
    113c:	e287ea6f 	add	lr, r7, #454656	; 0x6f000

00001140 <l978>:
    1140:	a11e05ef 	tstge	lr, pc, ror #11

00001144 <l979>:
    1144:	a0d59834 	sbcsge	r9, r5, r4, lsr r8

00001148 <l980>:
    1148:	32c91641 	sbccc	r1, r9, #68157440	; 0x4100000

0000114c <l981>:
    114c:	e1d2147a 	bics	r1, r2, sl, ror r4

00001150 <l982>:
    1150:	e3c40637 	bic	r0, r4, #57671680	; 0x3700000

00001154 <l983>:
    1154:	ea000006 	b	1174 <l991>

00001158 <l984>:
    1158:	e28010c9 	add	r1, r0, #201	; 0xc9

0000115c <l985>:
    115c:	b11a0003 	tstlt	sl, r3

00001160 <l986>:
    1160:	c3e08333 	mvngt	r8, #-872415232	; 0xcc000000

00001164 <l987>:
    1164:	e0525067 	subs	r5, r2, r7, rrx

00001168 <l988>:
    1168:	e066e14f 	rsb	lr, r6, pc, asr #2

0000116c <l989>:
    116c:	e0081000 	and	r1, r8, r0

00001170 <l990>:
    1170:	ea000000 	b	1178 <l992>

00001174 <l991>:
    1174:	eafffff8 	b	115c <l985>

00001178 <l992>:
    1178:	403ea00f 	eorsmi	sl, lr, pc

0000117c <l993>:
    117c:	226bc8b6 	rsbcs	ip, fp, #11927552	; 0xb60000

00001180 <l994>:
    1180:	e04a5311 	sub	r5, sl, r1, lsl r3

00001184 <l995>:
    1184:	e05f6124 	subs	r6, pc, r4, lsr #2

00001188 <l996>:
    1188:	e0990971 	adds	r0, r9, r1, ror r9

0000118c <l997>:
    118c:	e0062001 	and	r2, r6, r1

00001190 <l998>:
    1190:	e1a00000 	nop			; (mov r0, r0)

00001194 <l999>:
    1194:	e02b4b49 	eor	r4, fp, r9, asr #22

00001198 <l1000>:
    1198:	11380007 	teqne	r8, r7

0000119c <l1001>:
    119c:	504cc531 	subpl	ip, ip, r1, lsr r5

000011a0 <l1002>:
    11a0:	604e0009 	subvs	r0, lr, r9

000011a4 <l1003>:
    11a4:	c258c30a 	subsgt	ip, r8, #671088640	; 0x28000000

000011a8 <l1004>:
    11a8:	454d7022 	strbmi	r7, [sp, #-34]	; 0x22

000011ac <l1005>:
    11ac:	e045a97e 	sub	sl, r5, lr, ror r9

000011b0 <l1006>:
    11b0:	e11c0ce7 	tst	ip, r7, ror #25

000011b4 <l1007>:
    11b4:	e3a06044 	mov	r6, #68	; 0x44

000011b8 <l1008>:
    11b8:	975d8006 	ldrbls	r8, [sp, -r6]

000011bc <l1009>:
    11bc:	5a000005 	bpl	11d8 <l1016>

000011c0 <l1010>:
    11c0:	e28010b8 	add	r1, r0, #184	; 0xb8

000011c4 <l1011>:
    11c4:	2252420e 	subscs	r4, r2, #-536870912	; 0xe0000000

000011c8 <l1012>:
    11c8:	e0e254a3 	rsc	r5, r2, r3, lsr #9

000011cc <l1013>:
    11cc:	827068e2 	rsbshi	r6, r0, #14811136	; 0xe20000

000011d0 <l1014>:
    11d0:	80aac063 	adchi	ip, sl, r3, rrx

000011d4 <l1015>:
    11d4:	ea000000 	b	11dc <l1017>

000011d8 <l1016>:
    11d8:	eafffff9 	b	11c4 <l1011>

000011dc <l1017>:
    11dc:	50195127 	andspl	r5, r9, r7, lsr #2

000011e0 <l1018>:
    11e0:	3a000004 	bcc	11f8 <l1024>

000011e4 <l1019>:
    11e4:	e280108a 	add	r1, r0, #138	; 0x8a

000011e8 <l1020>:
    11e8:	11590061 	cmpne	r9, r1, rrx

000011ec <l1021>:
    11ec:	91b0400f 	movsls	r4, pc

000011f0 <l1022>:
    11f0:	4270586f 	rsbsmi	r5, r0, #7274496	; 0x6f0000

000011f4 <l1023>:
    11f4:	ea000000 	b	11fc <l1025>

000011f8 <l1024>:
    11f8:	eafffffa 	b	11e8 <l1020>

000011fc <l1025>:
    11fc:	92cf2a6a 	sbcls	r2, pc, #434176	; 0x6a000

00001200 <l1026>:
    1200:	e041100a 	sub	r1, r1, sl

00001204 <l1027>:
    1204:	e199b4ae 	orrs	fp, r9, lr, lsr #9

00001208 <l1028>:
    1208:	e13c0003 	teq	ip, r3

0000120c <l1029>:
    120c:	517408cc 	cmnpl	r4, ip, asr #17

00001210 <l1030>:
    1210:	ba000003 	blt	1224 <l1035>

00001214 <l1031>:
    1214:	e280107d 	add	r1, r0, #125	; 0x7d

00001218 <l1032>:
    1218:	e2743931 	rsbs	r3, r4, #802816	; 0xc4000

0000121c <l1033>:
    121c:	41320803 	teqmi	r2, r3, lsl #16

00001220 <l1034>:
    1220:	ea000000 	b	1228 <l1036>

00001224 <l1035>:
    1224:	eafffffb 	b	1218 <l1032>

00001228 <l1036>:
    1228:	ea000000 	b	1230 <l1038>

0000122c <l1037>:
    122c:	e1b03e16 	lsls	r3, r6, lr

00001230 <l1038>:
    1230:	70965063 	addsvc	r5, r6, r3, rrx

00001234 <l1039>:
    1234:	b0ab4065 	adclt	r4, fp, r5, rrx

00001238 <l1040>:
    1238:	e35f0969 	cmp	pc, #1720320	; 0x1a4000

0000123c <l1041>:
    123c:	e3710912 	cmn	r1, #294912	; 0x48000

00001240 <l1042>:
    1240:	e38e496f 	orr	r4, lr, #1818624	; 0x1bc000

00001244 <l1043>:
    1244:	b045003b 	sublt	r0, r5, fp, lsr r0

00001248 <l1044>:
    1248:	e1a00000 	nop			; (mov r0, r0)

0000124c <l1045>:
    124c:	1a000003 	bne	1260 <l1050>

00001250 <l1046>:
    1250:	42e5736f 	rscmi	r7, r5, #-1140850687	; 0xbc000001

00001254 <l1047>:
    1254:	913e021e 	teqls	lr, lr, lsl r2

00001258 <l1048>:
    1258:	62226cef 	eorvs	r6, r2, #61184	; 0xef00

0000125c <l1049>:
    125c:	e086c483 	add	ip, r6, r3, lsl #9

00001260 <l1050>:
    1260:	c0748770 	rsbsgt	r8, r4, r0, ror r7

00001264 <l1051>:
    1264:	45cda000 	strbmi	sl, [sp]

00001268 <l1052>:
    1268:	e1f0641b 	mvns	r6, fp, lsl r4

0000126c <l1053>:
    126c:	6187a9ae 	orrvs	sl, r7, lr, lsr #19

00001270 <l1054>:
    1270:	90b15432 	adcsls	r5, r1, r2, lsr r4

00001274 <l1055>:
    1274:	e1a00000 	nop			; (mov r0, r0)

00001278 <l1056>:
    1278:	e2f82225 	rscs	r2, r8, #1342177282	; 0x50000002

0000127c <l1057>:
    127c:	e3b0efe7 	movs	lr, #924	; 0x39c

00001280 <l1058>:
    1280:	21910f0f 	orrscs	r0, r1, pc, lsl #30

00001284 <l1059>:
    1284:	e81d5dff 	ldmda	sp, {r0, r1, r2, r3, r4, r5, r6, r7, r8, sl, fp, ip, lr}

00001288 <l1060>:
    1288:	e38793de 	orr	r9, r7, #2013265923	; 0x78000003

0000128c <l1061>:
    128c:	41b0b98b 	lslsmi	fp, fp, #19

00001290 <l1062>:
    1290:	e1180005 	tst	r8, r5

00001294 <l1063>:
    1294:	e2d89d41 	sbcs	r9, r8, #4160	; 0x1040

00001298 <l1064>:
    1298:	61a0b84e 	asrvs	fp, lr, #16

0000129c <l1065>:
    129c:	a0a28008 	adcge	r8, r2, r8

000012a0 <l1066>:
    12a0:	70504063 	subsvc	r4, r0, r3, rrx

000012a4 <l1067>:
    12a4:	53770e3e 	cmnpl	r7, #992	; 0x3e0

000012a8 <l1068>:
    12a8:	e153018b 	cmp	r3, fp, lsl #3

000012ac <l1069>:
    12ac:	1a000005 	bne	12c8 <l1076>

000012b0 <l1070>:
    12b0:	c263bd96 	rsbgt	fp, r3, #9600	; 0x2580

000012b4 <l1071>:
    12b4:	1137006f 	teqne	r7, pc, rrx

000012b8 <l1072>:
    12b8:	d3c8433a 	bicle	r4, r8, #-402653184	; 0xe8000000

000012bc <l1073>:
    12bc:	e33004d6 	teq	r0, #-704643072	; 0xd6000000

000012c0 <l1074>:
    12c0:	11e04689 	mvnne	r4, r9, lsl #13

000012c4 <l1075>:
    12c4:	e074c753 	rsbs	ip, r4, r3, asr r7

000012c8 <l1076>:
    12c8:	e21457d5 	ands	r5, r4, #55836672	; 0x3540000

000012cc <l1077>:
    12cc:	ea000003 	b	12e0 <l1082>

000012d0 <l1078>:
    12d0:	213905cc 	teqcs	r9, ip, asr #11

000012d4 <l1079>:
    12d4:	e1d0337a 	bics	r3, r0, sl, ror r3

000012d8 <l1080>:
    12d8:	e3370b36 	teq	r7, #55296	; 0xd800

000012dc <l1081>:
    12dc:	e1e00005 	mvn	r0, r5

000012e0 <l1082>:
    12e0:	e2149401 	ands	r9, r4, #16777216	; 0x1000000

000012e4 <l1083>:
    12e4:	454d7031 	strbmi	r7, [sp, #-49]	; 0x31

000012e8 <l1084>:
    12e8:	e0e53004 	rsc	r3, r5, r4

000012ec <l1085>:
    12ec:	2a000007 	bcs	1310 <l1094>

000012f0 <l1086>:
    12f0:	43c9b74d 	bicmi	fp, r9, #20185088	; 0x1340000

000012f4 <l1087>:
    12f4:	e1f0400e 	mvns	r4, lr

000012f8 <l1088>:
    12f8:	10f3a001 	rscsne	sl, r3, r1

000012fc <l1089>:
    12fc:	90435411 	subls	r5, r3, r1, lsl r4

00001300 <l1090>:
    1300:	d38a2a55 	orrle	r2, sl, #348160	; 0x55000

00001304 <l1091>:
    1304:	316fef10 	clzcc	lr, r0

00001308 <l1092>:
    1308:	0158096e 	cmpeq	r8, lr, ror #18

0000130c <l1093>:
    130c:	827a52d9 	rsbshi	r5, sl, #-1879048179	; 0x9000000d

00001310 <l1094>:
    1310:	e1b072e2 	rors	r7, r2, #5

00001314 <l1095>:
    1314:	e22c1af1 	eor	r1, ip, #987136	; 0xf1000

00001318 <l1096>:
    1318:	1059c00f 	subsne	ip, r9, pc

0000131c <l1097>:
    131c:	10e4e55b 	rscne	lr, r4, fp, asr r5

00001320 <l1098>:
    1320:	da000007 	ble	1344 <l1107>

00001324 <l1099>:
    1324:	e2aa4ff5 	adc	r4, sl, #980	; 0x3d4

00001328 <l1100>:
    1328:	23790e9d 	cmncs	r9, #2512	; 0x9d0

0000132c <l1101>:
    132c:	e1550031 	cmp	r5, r1, lsr r0

00001330 <l1102>:
    1330:	e29594fe 	adds	r9, r5, #-33554432	; 0xfe000000

00001334 <l1103>:
    1334:	1192000e 	orrsne	r0, r2, lr

00001338 <l1104>:
    1338:	e117000c 	tst	r7, ip

0000133c <l1105>:
    133c:	d3e0681b 	mvnle	r6, #1769472	; 0x1b0000

00001340 <l1106>:
    1340:	61510067 	cmpvs	r1, r7, rrx

00001344 <l1107>:
    1344:	e0590e53 	subs	r0, r9, r3, asr lr

00001348 <l1108>:
    1348:	2a000007 	bcs	136c <l1117>

0000134c <l1109>:
    134c:	e2801005 	add	r1, r0, #5

00001350 <l1110>:
    1350:	e211969e 	ands	r9, r1, #165675008	; 0x9e00000

00001354 <l1111>:
    1354:	e13a0002 	teq	sl, r2

00001358 <l1112>:
    1358:	e3d8c14b 	bics	ip, r8, #-1073741806	; 0xc0000012

0000135c <l1113>:
    135c:	e0405817 	sub	r5, r0, r7, lsl r8

00001360 <l1114>:
    1360:	e048a617 	sub	sl, r8, r7, lsl r6

00001364 <l1115>:
    1364:	c15e0e76 	cmpgt	lr, r6, ror lr

00001368 <l1116>:
    1368:	ea000000 	b	1370 <l1118>

0000136c <l1117>:
    136c:	eafffff7 	b	1350 <l1110>

00001370 <l1118>:
    1370:	00ff0006 	rscseq	r0, pc, r6

00001374 <l1119>:
    1374:	51b0700a 	movspl	r7, sl

00001378 <l1120>:
    1378:	e82ddfff 	stmda	sp!, {r0, r1, r2, r3, r4, r5, r6, r7, r8, r9, sl, fp, ip, lr, pc}

0000137c <l1121>:
    137c:	00f52061 	rscseq	r2, r5, r1, rrx

00001380 <l1122>:
    1380:	0086a723 	addeq	sl, r6, r3, lsr #14

00001384 <l1123>:
    1384:	e189ca72 	orr	ip, r9, r2, ror sl

00001388 <l1124>:
    1388:	a58d8024 	strge	r8, [sp, #36]	; 0x24

0000138c <l1125>:
    138c:	41942a37 	orrsmi	r2, r4, r7, lsr sl

00001390 <l1126>:
    1390:	81d2900e 	bicshi	r9, r2, lr

00001394 <l1127>:
    1394:	70d4c009 	sbcsvc	ip, r4, r9

00001398 <l1128>:
    1398:	0031b852 	eorseq	fp, r1, r2, asr r8

0000139c <l1129>:
    139c:	e0a74069 	adc	r4, r7, r9, rrx

000013a0 <l1130>:
    13a0:	7072606f 	rsbsvc	r6, r2, pc, rrx

000013a4 <l1131>:
    13a4:	e23b554b 	eors	r5, fp, #314572800	; 0x12c00000

000013a8 <l1132>:
    13a8:	10252ac8 	eorne	r2, r5, r8, asr #21

000013ac <l1133>:
    13ac:	e351070d 	cmp	r1, #3407872	; 0x340000

000013b0 <l1134>:
    13b0:	e3cce71d 	bic	lr, ip, #7602176	; 0x740000

000013b4 <l1135>:
    13b4:	e0525b42 	subs	r5, r2, r2, asr #22

000013b8 <l1136>:
    13b8:	e93d4000 	ldmdb	sp!, {lr}

000013bc <l1137>:
    13bc:	daffffff 	ble	13c0 <l1138>

000013c0 <l1138>:
    13c0:	e0fa84a3 	rscs	r8, sl, r3, lsr #9

000013c4 <l1139>:
    13c4:	e2c3a00e 	sbc	sl, r3, #14

000013c8 <l1140>:
    13c8:	837901b5 	cmnhi	r9, #1073741869	; 0x4000002d

000013cc <l1141>:
    13cc:	e335012f 	teq	r5, #-1073741813	; 0xc000000b

000013d0 <l1142>:
    13d0:	d046183b 	suble	r1, r6, fp, lsr r8

000013d4 <l1143>:
    13d4:	e077200b 	rsbs	r2, r7, fp

000013d8 <l1144>:
    13d8:	21882002 	orrcs	r2, r8, r2

000013dc <l1145>:
    13dc:	21f03406 	mvnscs	r3, r6, lsl #8

000013e0 <l1146>:
    13e0:	21e05008 	mvncs	r5, r8

000013e4 <l1147>:
    13e4:	e00e6069 	and	r6, lr, r9, rrx

000013e8 <l1148>:
    13e8:	e1100005 	tst	r0, r5

000013ec <l1149>:
    13ec:	e2514003 	subs	r4, r1, #3

000013f0 <l1150>:
    13f0:	c1e0406f 	mvngt	r4, pc, rrx

000013f4 <l1151>:
    13f4:	e0a72b44 	adc	r2, r7, r4, asr #22

000013f8 <l1152>:
    13f8:	327b4084 	rsbscc	r4, fp, #132	; 0x84

000013fc <l1153>:
    13fc:	11b0400f 	movsne	r4, pc

00001400 <l1154>:
    1400:	a16f3f1a 	clzge	r3, sl

00001404 <l1155>:
    1404:	71f0b00c 	mvnsvc	fp, ip

00001408 <l1156>:
    1408:	e1ce800c 	bic	r8, lr, ip

0000140c <l1157>:
    140c:	7189e8ae 	orrvc	lr, r9, lr, lsr #17

00001410 <l1158>:
    1410:	c1c8881b 	bicgt	r8, r8, fp, lsl r8

00001414 <l1159>:
    1414:	e0a1b00e 	adc	fp, r1, lr

00001418 <l1160>:
    1418:	217e0032 	cmncs	lr, r2, lsr r0

0000141c <l1161>:
    141c:	e2e9702f 	rsc	r7, r9, #47	; 0x2f

00001420 <l1162>:
    1420:	e19a500c 	orrs	r5, sl, ip

00001424 <l1163>:
    1424:	01560a3b 	cmpeq	r6, fp, lsr sl

00001428 <l1164>:
    1428:	e3d1340f 	bics	r3, r1, #251658240	; 0xf000000

0000142c <l1165>:
    142c:	e5dda017 	ldrb	sl, [sp, #23]

00001430 <l1166>:
    1430:	4a000005 	bmi	144c <l1173>

00001434 <l1167>:
    1434:	e28010e5 	add	r1, r0, #229	; 0xe5

00001438 <l1168>:
    1438:	e170027b 	cmn	r0, fp, ror r2

0000143c <l1169>:
    143c:	e08b600a 	add	r6, fp, sl

00001440 <l1170>:
    1440:	c2c48001 	sbcgt	r8, r4, #1

00001444 <l1171>:
    1444:	805a07a7 	subshi	r0, sl, r7, lsr #15

00001448 <l1172>:
    1448:	ea000000 	b	1450 <l1174>

0000144c <l1173>:
    144c:	eafffff9 	b	1438 <l1168>

00001450 <l1174>:
    1450:	e20c7034 	and	r7, ip, #52	; 0x34

00001454 <l1175>:
    1454:	ea000001 	b	1460 <l1178>

00001458 <l1176>:
    1458:	e0117721 	ands	r7, r1, r1, lsr #14

0000145c <l1177>:
    145c:	e1cb773b 	bic	r7, fp, fp, lsr r7

00001460 <l1178>:
    1460:	517f0444 	cmnpl	pc, r4, asr #8

00001464 <l1179>:
    1464:	a07b51c3 	rsbsge	r5, fp, r3, asr #3

00001468 <l1180>:
    1468:	80690a64 	rsbhi	r0, r9, r4, ror #20

0000146c <l1181>:
    146c:	511f0004 	tstpl	pc, r4

00001470 <l1182>:
    1470:	e135075b 	teq	r5, fp, asr r7

00001474 <l1183>:
    1474:	c2bb1c71 	adcsgt	r1, fp, #28928	; 0x7100

00001478 <l1184>:
    1478:	e3a0b02d 	mov	fp, #45	; 0x2d

0000147c <l1185>:
    147c:	47cd100b 	strbmi	r1, [sp, fp]

00001480 <l1186>:
    1480:	e3570b61 	cmp	r7, #99328	; 0x18400

00001484 <l1187>:
    1484:	6a000005 	bvs	14a0 <l1194>

00001488 <l1188>:
    1488:	e2801065 	add	r1, r0, #101	; 0x65

0000148c <l1189>:
    148c:	e1d4800e 	bics	r8, r4, lr

00001490 <l1190>:
    1490:	e09f3008 	adds	r3, pc, r8

00001494 <l1191>:
    1494:	e202bc9e 	and	fp, r2, #40448	; 0x9e00

00001498 <l1192>:
    1498:	3090c06e 	addscc	ip, r0, lr, rrx

0000149c <l1193>:
    149c:	ea000000 	b	14a4 <l1195>

000014a0 <l1194>:
    14a0:	eafffff9 	b	148c <l1189>

000014a4 <l1195>:
    14a4:	13c8609e 	bicne	r6, r8, #158	; 0x9e

000014a8 <l1196>:
    14a8:	42ae84c3 	adcmi	r8, lr, #-1023410176	; 0xc3000000

000014ac <l1197>:
    14ac:	e0a08007 	adc	r8, r0, r7

000014b0 <l1198>:
    14b0:	93a0cd06 	movls	ip, #384	; 0x180

000014b4 <l1199>:
    14b4:	107e3555 	rsbsne	r3, lr, r5, asr r5

000014b8 <l1200>:
    14b8:	d0099034 	andle	r9, r9, r4, lsr r0

000014bc <l1201>:
    14bc:	35dd8016 	ldrbcc	r8, [sp, #22]

000014c0 <l1202>:
    14c0:	d053800c 	subsle	r8, r3, ip

000014c4 <l1203>:
    14c4:	e0780121 	rsbs	r0, r8, r1, lsr #2

000014c8 <l1204>:
    14c8:	e0b92001 	adcs	r2, r9, r1

000014cc <l1205>:
    14cc:	e17b0008 	cmn	fp, r8

000014d0 <l1206>:
    14d0:	606324aa 	rsbvs	r2, r3, sl, lsr #9

000014d4 <l1207>:
    14d4:	ea000007 	b	14f8 <l1216>

000014d8 <l1208>:
    14d8:	e28010bc 	add	r1, r0, #188	; 0xbc

000014dc <l1209>:
    14dc:	e011366b 	ands	r3, r1, fp, ror #12

000014e0 <l1210>:
    14e0:	31560008 	cmpcc	r6, r8

000014e4 <l1211>:
    14e4:	e258b242 	subs	fp, r8, #536870916	; 0x20000004

000014e8 <l1212>:
    14e8:	e0535859 	subs	r5, r3, r9, asr r8

000014ec <l1213>:
    14ec:	e13f0500 	teq	pc, r0, lsl #10

000014f0 <l1214>:
    14f0:	b16f3f12 	clzlt	r3, r2

000014f4 <l1215>:
    14f4:	ea000000 	b	14fc <l1217>

000014f8 <l1216>:
    14f8:	eafffff7 	b	14dc <l1209>

000014fc <l1217>:
    14fc:	60076004 	andvs	r6, r7, r4

00001500 <l1218>:
    1500:	70f1400b 	rscsvc	r4, r1, fp

00001504 <l1219>:
    1504:	e1b01e4e 	asrs	r1, lr, #28

00001508 <l1220>:
    1508:	11370000 	teqne	r7, r0

0000150c <l1221>:
    150c:	6affffff 	bvs	1510 <l1222>

00001510 <l1222>:
    1510:	51a0c002 	movpl	ip, r2

00001514 <l1223>:
    1514:	e9ad1013 	stmib	sp!, {r0, r1, r4, ip}

00001518 <l1224>:
    1518:	638084de 	orrvs	r8, r0, #-570425344	; 0xde000000

0000151c <l1225>:
    151c:	d1885051 	orrle	r5, r8, r1, asr r0

00001520 <l1226>:
    1520:	0a000005 	beq	153c <l1233>

00001524 <l1227>:
    1524:	e280103d 	add	r1, r0, #61	; 0x3d

00001528 <l1228>:
    1528:	61350777 	teqvs	r5, r7, ror r7

0000152c <l1229>:
    152c:	e0520009 	subs	r0, r2, r9

00001530 <l1230>:
    1530:	c35f0771 	cmpgt	pc, #29622272	; 0x1c40000

00001534 <l1231>:
    1534:	a1510004 	cmpge	r1, r4

00001538 <l1232>:
    1538:	ea000000 	b	1540 <l1234>

0000153c <l1233>:
    153c:	eafffff9 	b	1528 <l1228>

00001540 <l1234>:
    1540:	533109d3 	teqpl	r1, #3457024	; 0x34c000

00001544 <l1235>:
    1544:	ea000007 	b	1568 <l1244>

00001548 <l1236>:
    1548:	c2dbb61b 	sbcsgt	fp, fp, #28311552	; 0x1b00000

0000154c <l1237>:
    154c:	e067300b 	rsb	r3, r7, fp

00001550 <l1238>:
    1550:	b0d94006 	sbcslt	r4, r9, r6

00001554 <l1239>:
    1554:	e35a01be 	cmp	sl, #-2147483601	; 0x8000002f

00001558 <l1240>:
    1558:	e1b0a254 	asrs	sl, r4, r2

0000155c <l1241>:
    155c:	b1d99b69 	bicslt	r9, r9, r9, ror #22

00001560 <l1242>:
    1560:	e1c83009 	bic	r3, r8, r9

00001564 <l1243>:
    1564:	30b011c9 	adcscc	r1, r0, r9, asr #3

00001568 <l1244>:
    1568:	e0a6ac78 	adc	sl, r6, r8, ror ip

0000156c <l1245>:
    156c:	aa000004 	bge	1584 <l1251>

00001570 <l1246>:
    1570:	b3100316 	tstlt	r0, #1476395008	; 0x58000000

00001574 <l1247>:
    1574:	e0134255 	ands	r4, r3, r5, asr r2

00001578 <l1248>:
    1578:	81e0175a 	mvnhi	r1, sl, asr r7

0000157c <l1249>:
    157c:	e176057c 	cmn	r6, ip, ror r5

00001580 <l1250>:
    1580:	1201c2d3 	andne	ip, r1, #805306381	; 0x3000000d

00001584 <l1251>:
    1584:	21790001 	cmncs	r9, r1

00001588 <l1252>:
    1588:	d23a9d29 	eorsle	r9, sl, #2624	; 0xa40

0000158c <l1253>:
    158c:	6179007c 	cmnvs	r9, ip, ror r0

00001590 <l1254>:
    1590:	e3a04004 	mov	r4, #4

00001594 <l1255>:
    1594:	074d9004 	strbeq	r9, [sp, -r4]

00001598 <l1256>:
    1598:	e9bd5cef 	ldmib	sp!, {r0, r1, r2, r3, r5, r6, r7, sl, fp, ip, lr}

0000159c <l1257>:
    159c:	1008506b 	andne	r5, r8, fp, rrx

000015a0 <l1258>:
    15a0:	d0c04008 	sbcle	r4, r0, r8

000015a4 <l1259>:
    15a4:	e0785068 	rsbs	r5, r8, r8, rrx

000015a8 <l1260>:
    15a8:	40c54070 	sbcmi	r4, r5, r0, ror r0

000015ac <l1261>:
    15ac:	c1190c63 	tstgt	r9, r3, ror #24

000015b0 <l1262>:
    15b0:	e0834e2f 	add	r4, r3, pc, lsr #28

000015b4 <l1263>:
    15b4:	e2f884f5 	rscs	r8, r8, #-184549376	; 0xf5000000

000015b8 <l1264>:
    15b8:	e52d3018 	str	r3, [sp, #-24]!

000015bc <l1265>:
    15bc:	10c50aac 	sbcne	r0, r5, ip, lsr #21

000015c0 <l1266>:
    15c0:	b007ec17 	andlt	lr, r7, r7, lsl ip

000015c4 <l1267>:
    15c4:	e0a17069 	adc	r7, r1, r9, rrx

000015c8 <l1268>:
    15c8:	e1f0800b 	mvns	r8, fp

000015cc <l1269>:
    15cc:	700c9152 	andvc	r9, ip, r2, asr r1

000015d0 <l1270>:
    15d0:	31570062 	cmpcc	r7, r2, rrx

000015d4 <l1271>:
    15d4:	d0448067 	suble	r8, r4, r7, rrx

000015d8 <l1272>:
    15d8:	e40d6004 	str	r6, [sp], #-4

000015dc <l1273>:
    15dc:	6a000007 	bvs	1600 <l1282>

000015e0 <l1274>:
    15e0:	e2801024 	add	r1, r0, #36	; 0x24

000015e4 <l1275>:
    15e4:	31580082 	cmpcc	r8, r2, lsl #1

000015e8 <l1276>:
    15e8:	0138000b 	teqeq	r8, fp

000015ec <l1277>:
    15ec:	e158000e 	cmp	r8, lr

000015f0 <l1278>:
    15f0:	d1380e53 	teqle	r8, r3, asr lr

000015f4 <l1279>:
    15f4:	e04c7069 	sub	r7, ip, r9, rrx

000015f8 <l1280>:
    15f8:	e1760003 	cmn	r6, r3

000015fc <l1281>:
    15fc:	ea000000 	b	1604 <l1283>

00001600 <l1282>:
    1600:	eafffff7 	b	15e4 <l1275>

00001604 <l1283>:
    1604:	311c0632 	tstcc	ip, r2, lsr r6

00001608 <l1284>:
    1608:	01c91002 	biceq	r1, r9, r2

0000160c <l1285>:
    160c:	e11908af 	tst	r9, pc, lsr #17

00001610 <l1286>:
    1610:	451db024 	ldrmi	fp, [sp, #-36]	; 0x24

00001614 <l1287>:
    1614:	e1110002 	tst	r1, r2

00001618 <l1288>:
    1618:	e1130001 	tst	r3, r1

0000161c <l1289>:
    161c:	93f0286f 	mvnsls	r2, #7274496	; 0x6f0000

00001620 <l1290>:
    1620:	83b0c01a 	movshi	ip, #26

00001624 <l1291>:
    1624:	51e0e000 	mvnpl	lr, r0

00001628 <l1292>:
    1628:	b05b79c7 	subslt	r7, fp, r7, asr #19

0000162c <l1293>:
    162c:	e150000b 	cmp	r0, fp

00001630 <l1294>:
    1630:	ea000004 	b	1648 <l1300>

00001634 <l1295>:
    1634:	b0d3a657 	sbcslt	sl, r3, r7, asr r6

00001638 <l1296>:
    1638:	a16fcf16 	clzge	ip, r6

0000163c <l1297>:
    163c:	502bb060 	eorpl	fp, fp, r0, rrx

00001640 <l1298>:
    1640:	90470343 	subls	r0, r7, r3, asr #6

00001644 <l1299>:
    1644:	b20265fa 	andlt	r6, r2, #1048576000	; 0x3e800000

00001648 <l1300>:
    1648:	a1b098e9 	rorsge	r9, r9, #17

0000164c <l1301>:
    164c:	5071381a 	rsbspl	r3, r1, sl, lsl r8

00001650 <l1302>:
    1650:	e16faf17 	clz	sl, r7

00001654 <l1303>:
    1654:	e28ee8d7 	add	lr, lr, #14090240	; 0xd70000

00001658 <l1304>:
    1658:	50028001 	andpl	r8, r2, r1

0000165c <l1305>:
    165c:	81120f08 	tsthi	r2, r8, lsl #30

00001660 <l1306>:
    1660:	c1100fcf 	tstgt	r0, pc, asr #31

00001664 <l1307>:
    1664:	ea000004 	b	167c <l1313>

00001668 <l1308>:
    1668:	e280100b 	add	r1, r0, #11

0000166c <l1309>:
    166c:	e038b267 	eors	fp, r8, r7, ror #4

00001670 <l1310>:
    1670:	211c0e3a 	tstcs	ip, sl, lsr lr

00001674 <l1311>:
    1674:	e1d8b069 	bics	fp, r8, r9, rrx

00001678 <l1312>:
    1678:	ea000000 	b	1680 <l1314>

0000167c <l1313>:
    167c:	eafffffa 	b	166c <l1309>

00001680 <l1314>:
    1680:	015c0511 	cmpeq	ip, r1, lsl r5

00001684 <l1315>:
    1684:	41811007 	orrmi	r1, r1, r7

00001688 <l1316>:
    1688:	e3390fba 	teq	r9, #744	; 0x2e8

0000168c <l1317>:
    168c:	138168dd 	orrne	r6, r1, #14483456	; 0xdd0000

00001690 <l1318>:
    1690:	e1d4c00e 	bics	ip, r4, lr

00001694 <l1319>:
    1694:	90e0be37 	rscls	fp, r0, r7, lsr lr

00001698 <l1320>:
    1698:	e3a0b01b 	mov	fp, #27

0000169c <l1321>:
    169c:	e75d900b 	ldrb	r9, [sp, -fp]

000016a0 <l1322>:
    16a0:	4a000006 	bmi	16c0 <l1330>

000016a4 <l1323>:
    16a4:	c181606a 	orrgt	r6, r1, sl, rrx

000016a8 <l1324>:
    16a8:	e2d01b1a 	sbcs	r1, r0, #26624	; 0x6800

000016ac <l1325>:
    16ac:	70d44c14 	sbcsvc	r4, r4, r4, lsl ip

000016b0 <l1326>:
    16b0:	c096e009 	addsgt	lr, r6, r9

000016b4 <l1327>:
    16b4:	417407e8 	cmnmi	r4, r8, ror #15

000016b8 <l1328>:
    16b8:	e0a73008 	adc	r3, r7, r8

000016bc <l1329>:
    16bc:	e1150001 	tst	r5, r1

000016c0 <l1330>:
    16c0:	702e500e 	eorvc	r5, lr, lr

000016c4 <l1331>:
    16c4:	ea000003 	b	16d8 <l1336>

000016c8 <l1332>:
    16c8:	e1740c57 	cmn	r4, r7, asr ip

000016cc <l1333>:
    16cc:	61f0b006 	mvnsvs	fp, r6

000016d0 <l1334>:
    16d0:	515b0618 	cmppl	fp, r8, lsl r6

000016d4 <l1335>:
    16d4:	e15902c9 	cmp	r9, r9, asr #5

000016d8 <l1336>:
    16d8:	61580c24 	cmpvs	r8, r4, lsr #24

000016dc <l1337>:
    16dc:	92c16899 	sbcls	r6, r1, #10027008	; 0x990000

000016e0 <l1338>:
    16e0:	6036a00f 	eorsvs	sl, r6, pc

000016e4 <l1339>:
    16e4:	ca000007 	bgt	1708 <l1348>

000016e8 <l1340>:
    16e8:	e05f4061 	subs	r4, pc, r1, rrx

000016ec <l1341>:
    16ec:	6048a729 	subvs	sl, r8, r9, lsr #14

000016f0 <l1342>:
    16f0:	e16f5f1b 	clz	r5, fp

000016f4 <l1343>:
    16f4:	3085700f 	addcc	r7, r5, pc

000016f8 <l1344>:
    16f8:	e1300005 	teq	r0, r5

000016fc <l1345>:
    16fc:	31130b8f 	tstcc	r3, pc, lsl #23

00001700 <l1346>:
    1700:	e097e43a 	adds	lr, r7, sl, lsr r4

00001704 <l1347>:
    1704:	11160069 	tstne	r6, r9, rrx

00001708 <l1348>:
    1708:	e15c068a 	cmp	ip, sl, lsl #13

0000170c <l1349>:
    170c:	ea000003 	b	1720 <l1354>

00001710 <l1350>:
    1710:	e280102c 	add	r1, r0, #44	; 0x2c

00001714 <l1351>:
    1714:	625f25de 	subsvs	r2, pc, #931135488	; 0x37800000

00001718 <l1352>:
    1718:	e0241062 	eor	r1, r4, r2, rrx

0000171c <l1353>:
    171c:	ea000000 	b	1724 <l1355>

00001720 <l1354>:
    1720:	eafffffb 	b	1714 <l1351>

00001724 <l1355>:
    1724:	715b00c5 	cmpvc	fp, r5, asr #1

00001728 <l1356>:
    1728:	d155073c 	cmple	r5, ip, lsr r7

0000172c <l1357>:
    172c:	e3a06018 	mov	r6, #24

00001730 <l1358>:
    1730:	e68d9006 	str	r9, [sp], r6

00001734 <l1359>:
    1734:	e01cc06e 	ands	ip, ip, lr, rrx

00001738 <l1360>:
    1738:	ea000001 	b	1744 <l1363>

0000173c <l1361>:
    173c:	d1e0006f 	mvnle	r0, pc, rrx

00001740 <l1362>:
    1740:	e0bc3b13 	adcs	r3, ip, r3, lsl fp

00001744 <l1363>:
    1744:	e0697004 	rsb	r7, r9, r4

00001748 <l1364>:
    1748:	e16f3f18 	clz	r3, r8

0000174c <l1365>:
    174c:	01170007 	tsteq	r7, r7

00001750 <l1366>:
    1750:	e3a08034 	mov	r8, #52	; 0x34

00001754 <l1367>:
    1754:	674d1008 	strbvs	r1, [sp, -r8]

00001758 <l1368>:
    1758:	12e19dbf 	rscne	r9, r1, #12224	; 0x2fc0

0000175c <l1369>:
    175c:	a056700b 	subsge	r7, r6, fp

00001760 <l1370>:
    1760:	d088255b 	addle	r2, r8, fp, asr r5

00001764 <l1371>:
    1764:	715701a5 	cmpvc	r7, r5, lsr #3

00001768 <l1372>:
    1768:	e0f71325 	rscs	r1, r7, r5, lsr #6

0000176c <l1373>:
    176c:	e384031a 	orr	r0, r4, #1744830464	; 0x68000000

00001770 <l1374>:
    1770:	b0116006 	andslt	r6, r1, r6

00001774 <l1375>:
    1774:	c092126b 	addsgt	r1, r2, fp, ror #4

00001778 <l1376>:
    1778:	e0a77007 	adc	r7, r7, r7

0000177c <l1377>:
    177c:	b2339206 	eorslt	r9, r3, #1610612736	; 0x60000000

00001780 <l1378>:
    1780:	e1720009 	cmn	r2, r9

00001784 <l1379>:
    1784:	e3740080 	cmn	r4, #128	; 0x80

00001788 <l1380>:
    1788:	e9ad0002 	stmib	sp!, {r1}

0000178c <l1381>:
    178c:	e11f06ab 	tst	pc, fp, lsr #13

00001790 <l1382>:
    1790:	891d5ce8 	ldmdbhi	sp, {r3, r5, r6, r7, sl, fp, ip, lr}

00001794 <l1383>:
    1794:	e05cb000 	subs	fp, ip, r0

00001798 <l1384>:
    1798:	00bb143b 	adcseq	r1, fp, fp, lsr r4

0000179c <l1385>:
    179c:	900619a4 	andls	r1, r6, r4, lsr #19

000017a0 <l1386>:
    17a0:	ea000005 	b	17bc <l1393>

000017a4 <l1387>:
    17a4:	e28010f7 	add	r1, r0, #247	; 0xf7

000017a8 <l1388>:
    17a8:	e3340bc6 	teq	r4, #202752	; 0x31800

000017ac <l1389>:
    17ac:	a0570517 	subsge	r0, r7, r7, lsl r5

000017b0 <l1390>:
    17b0:	50f7491e 	rscspl	r4, r7, lr, lsl r9

000017b4 <l1391>:
    17b4:	a185a629 	orrge	sl, r5, r9, lsr #12

000017b8 <l1392>:
    17b8:	ea000000 	b	17c0 <l1394>

000017bc <l1393>:
    17bc:	eafffff9 	b	17a8 <l1388>

000017c0 <l1394>:
    17c0:	ea000005 	b	17dc <l1401>

000017c4 <l1395>:
    17c4:	e15e0066 	cmp	lr, r6, rrx

000017c8 <l1396>:
    17c8:	e1f01067 	mvns	r1, r7, rrx

000017cc <l1397>:
    17cc:	e0e1a00f 	rsc	sl, r1, pc

000017d0 <l1398>:
    17d0:	b0460116 	sublt	r0, r6, r6, lsl r1

000017d4 <l1399>:
    17d4:	e3f0659f 	mvns	r6, #666894336	; 0x27c00000

000017d8 <l1400>:
    17d8:	e11b0060 	tst	fp, r0, rrx

000017dc <l1401>:
    17dc:	e0f10002 	rscs	r0, r1, r2

000017e0 <l1402>:
    17e0:	816f5f18 	clzhi	r5, r8

000017e4 <l1403>:
    17e4:	e1c48001 	bic	r8, r4, r1

000017e8 <l1404>:
    17e8:	3059a001 	subscc	sl, r9, r1

000017ec <l1405>:
    17ec:	8117047a 	tsthi	r7, sl, ror r4

000017f0 <l1406>:
    17f0:	e99d0001 	ldmib	sp, {r0}

000017f4 <l1407>:
    17f4:	2113010e 	tstcs	r3, lr, lsl #2

000017f8 <l1408>:
    17f8:	e16f3f13 	clz	r3, r3

000017fc <l1409>:
    17fc:	81760001 	cmnhi	r6, r1

00001800 <l1410>:
    1800:	309fa067 	addscc	sl, pc, r7, rrx

00001804 <l1411>:
    1804:	a1f0743a 	mvnsge	r7, sl, lsr r4

00001808 <l1412>:
    1808:	ea000005 	b	1824 <l1419>

0000180c <l1413>:
    180c:	a16f0f10 	clzge	r0, r0

00001810 <l1414>:
    1810:	a0ee4005 	rscge	r4, lr, r5

00001814 <l1415>:
    1814:	6068a00e 	rsbvs	sl, r8, lr

00001818 <l1416>:
    1818:	e2d1475a 	sbcs	r4, r1, #23592960	; 0x1680000

0000181c <l1417>:
    181c:	60893f66 	addvs	r3, r9, r6, ror #30

00001820 <l1418>:
    1820:	904cc713 	subls	ip, ip, r3, lsl r7

00001824 <l1419>:
    1824:	e1540004 	cmp	r4, r4

00001828 <l1420>:
    1828:	ea000002 	b	1838 <l1424>

0000182c <l1421>:
    182c:	e2801058 	add	r1, r0, #88	; 0x58

00001830 <l1422>:
    1830:	22499094 	subcs	r9, r9, #148	; 0x94

00001834 <l1423>:
    1834:	ea000000 	b	183c <l1425>

00001838 <l1424>:
    1838:	eafffffc 	b	1830 <l1422>

0000183c <l1425>:
    183c:	3213e63d 	andscc	lr, r3, #63963136	; 0x3d00000

00001840 <l1426>:
    1840:	e9ad4000 	stmib	sp!, {lr}

00001844 <l1427>:
    1844:	e0d592cb 	sbcs	r9, r5, fp, asr #5

00001848 <l1428>:
    1848:	900a611c 	andls	r6, sl, ip, lsl r1

0000184c <l1429>:
    184c:	41a0366c 	rormi	r3, ip, #12

00001850 <l1430>:
    1850:	e0f6033a 	rscs	r0, r6, sl, lsr r3

00001854 <l1431>:
    1854:	e3a08001 	mov	r8, #1

00001858 <l1432>:
    1858:	e75da008 	ldrb	sl, [sp, -r8]

0000185c <l1433>:
    185c:	5291aec3 	addspl	sl, r1, #3120	; 0xc30

00001860 <l1434>:
    1860:	311c0549 	tstcc	ip, r9, asr #10

00001864 <l1435>:
    1864:	018bc006 	orreq	ip, fp, r6

00001868 <l1436>:
    1868:	61824679 	orrvs	r4, r2, r9, ror r6

0000186c <l1437>:
    186c:	ca000005 	bgt	1888 <l1444>

00001870 <l1438>:
    1870:	e0467002 	sub	r7, r6, r2

00001874 <l1439>:
    1874:	42e96911 	rscmi	r6, r9, #278528	; 0x44000

00001878 <l1440>:
    1878:	60d98009 	sbcsvs	r8, r9, r9

0000187c <l1441>:
    187c:	e2c47d42 	sbc	r7, r4, #4224	; 0x1080

00001880 <l1442>:
    1880:	31340004 	teqcc	r4, r4

00001884 <l1443>:
    1884:	c33f0e77 	teqgt	pc, #1904	; 0x770

00001888 <l1444>:
    1888:	e2356822 	eors	r6, r5, #2228224	; 0x220000

0000188c <l1445>:
    188c:	a1e0bb55 	mvnge	fp, r5, asr fp

00001890 <l1446>:
    1890:	e13f006c 	teq	pc, ip, rrx

00001894 <l1447>:
    1894:	10470609 	subne	r0, r7, r9, lsl #12

00001898 <l1448>:
    1898:	41d6530b 	bicsmi	r5, r6, fp, lsl #6

0000189c <l1449>:
    189c:	513b0788 	teqpl	fp, r8, lsl #15

000018a0 <l1450>:
    18a0:	e1e0800e 	mvn	r8, lr

000018a4 <l1451>:
    18a4:	604b2c32 	subvs	r2, fp, r2, lsr ip

000018a8 <l1452>:
    18a8:	e3a00028 	mov	r0, #40	; 0x28

000018ac <l1453>:
    18ac:	e60d8000 	str	r8, [sp], -r0

000018b0 <l1454>:
    18b0:	ea000007 	b	18d4 <l1463>

000018b4 <l1455>:
    18b4:	e2801032 	add	r1, r0, #50	; 0x32

000018b8 <l1456>:
    18b8:	e3b0500d 	movs	r5, #13

000018bc <l1457>:
    18bc:	a275220e 	rsbsge	r2, r5, #-536870912	; 0xe0000000

000018c0 <l1458>:
    18c0:	32074cd1 	andcc	r4, r7, #53504	; 0xd100

000018c4 <l1459>:
    18c4:	e17a034a 	cmn	sl, sl, asr #6

000018c8 <l1460>:
    18c8:	1261c837 	rsbne	ip, r1, #3604480	; 0x370000

000018cc <l1461>:
    18cc:	b03f706a 	eorslt	r7, pc, sl, rrx

000018d0 <l1462>:
    18d0:	ea000000 	b	18d8 <l1464>

000018d4 <l1463>:
    18d4:	eafffff7 	b	18b8 <l1456>

000018d8 <l1464>:
    18d8:	e16f8f16 	clz	r8, r6

000018dc <l1465>:
    18dc:	d0a9ea13 	adcle	lr, r9, r3, lsl sl

000018e0 <l1466>:
    18e0:	e1a01c30 	lsr	r1, r0, ip

000018e4 <l1467>:
    18e4:	e034eb14 	eors	lr, r4, r4, lsl fp

000018e8 <l1468>:
    18e8:	803e1003 	eorshi	r1, lr, r3

000018ec <l1469>:
    18ec:	508fcc6a 	addpl	ip, pc, sl, ror #24

000018f0 <l1470>:
    18f0:	32185117 	andscc	r5, r8, #-1073741819	; 0xc0000005

000018f4 <l1471>:
    18f4:	b0d0752c 	sbcslt	r7, r0, ip, lsr #10

000018f8 <l1472>:
    18f8:	b1849b18 	orrlt	r9, r4, r8, lsl fp

000018fc <l1473>:
    18fc:	51939009 	orrspl	r9, r3, r9

00001900 <l1474>:
    1900:	e224c547 	eor	ip, r4, #297795584	; 0x11c00000

00001904 <l1475>:
    1904:	81c3200b 	bichi	r2, r3, fp

00001908 <l1476>:
    1908:	00b9ada9 	adcseq	sl, r9, r9, lsr #27

0000190c <l1477>:
    190c:	e250864e 	subs	r8, r0, #81788928	; 0x4e00000

00001910 <l1478>:
    1910:	7001400f 	andvc	r4, r1, pc

00001914 <l1479>:
    1914:	ea000007 	b	1938 <l1488>

00001918 <l1480>:
    1918:	e280106c 	add	r1, r0, #108	; 0x6c

0000191c <l1481>:
    191c:	51360000 	teqpl	r6, r0

00001920 <l1482>:
    1920:	41d53871 	bicsmi	r3, r5, r1, ror r8

00001924 <l1483>:
    1924:	e0452065 	sub	r2, r5, r5, rrx

00001928 <l1484>:
    1928:	71f02eef 	mvnsvc	r2, pc, ror #29

0000192c <l1485>:
    192c:	80963c67 	addshi	r3, r6, r7, ror #24

00001930 <l1486>:
    1930:	e3f02701 	mvns	r2, #262144	; 0x40000

00001934 <l1487>:
    1934:	ea000000 	b	193c <l1489>

00001938 <l1488>:
    1938:	eafffff7 	b	191c <l1481>

0000193c <l1489>:
    193c:	50557000 	subspl	r7, r5, r0

00001940 <l1490>:
    1940:	a2467932 	subge	r7, r6, #819200	; 0xc8000

00001944 <l1491>:
    1944:	ea000007 	b	1968 <l1500>

00001948 <l1492>:
    1948:	e1120e05 	tst	r2, r5, lsl #28

0000194c <l1493>:
    194c:	e0f02006 	rscs	r2, r0, r6

00001950 <l1494>:
    1950:	52316038 	eorspl	r6, r1, #56	; 0x38

00001954 <l1495>:
    1954:	516f7f1c 	clzpl	r7, ip

00001958 <l1496>:
    1958:	d05468cc 	subsle	r6, r4, ip, asr #17

0000195c <l1497>:
    195c:	30deca74 	sbcscc	ip, lr, r4, ror sl

00001960 <l1498>:
    1960:	81f0000a 	mvnshi	r0, sl

00001964 <l1499>:
    1964:	01590732 	cmpeq	r9, r2, lsr r7

00001968 <l1500>:
    1968:	e197800f 	orrs	r8, r7, pc

0000196c <l1501>:
    196c:	e3a04020 	mov	r4, #32

00001970 <l1502>:
    1970:	e74d1004 	strb	r1, [sp, -r4]

00001974 <l1503>:
    1974:	d33b0e39 	teqle	fp, #912	; 0x390

00001978 <l1504>:
    1978:	e0424006 	sub	r4, r2, r6

0000197c <l1505>:
    197c:	e1500007 	cmp	r0, r7

00001980 <l1506>:
    1980:	1a000008 	bne	19a8 <l1516>

00001984 <l1507>:
    1984:	31350de7 	teqcc	r5, r7, ror #27

00001988 <l1508>:
    1988:	c1160971 	tstgt	r6, r1, ror r9

0000198c <l1509>:
    198c:	e1c0e007 	bic	lr, r0, r7

00001990 <l1510>:
    1990:	51ce8008 	bicpl	r8, lr, r8

00001994 <l1511>:
    1994:	50c39e25 	sbcpl	r9, r3, r5, lsr #28

00001998 <l1512>:
    1998:	827b906a 	rsbshi	r9, fp, #106	; 0x6a

0000199c <l1513>:
    199c:	91e01b16 	mvnls	r1, r6, lsl fp

000019a0 <l1514>:
    19a0:	e1c29008 	bic	r9, r2, r8

000019a4 <l1515>:
    19a4:	82e8e69b 	rschi	lr, r8, #162529280	; 0x9b00000

000019a8 <l1516>:
    19a8:	613e0148 	teqvs	lr, r8, asr #2

000019ac <l1517>:
    19ac:	c1560665 	cmpgt	r6, r5, ror #12

000019b0 <l1518>:
    19b0:	13910c43 	orrsne	r0, r1, #17152	; 0x4300

000019b4 <l1519>:
    19b4:	60418c49 	subvs	r8, r1, r9, asr #24

000019b8 <l1520>:
    19b8:	c259b8a7 	subsgt	fp, r9, #10944512	; 0xa70000

000019bc <l1521>:
    19bc:	e0e24006 	rsc	r4, r2, r6

000019c0 <l1522>:
    19c0:	8115051a 	tsthi	r5, sl, lsl r5

000019c4 <l1523>:
    19c4:	d1a0eb5e 	asrle	lr, lr, fp

000019c8 <l1524>:
    19c8:	e1b04151 	asrs	r4, r1, r1

000019cc <l1525>:
    19cc:	ea000005 	b	19e8 <l1532>

000019d0 <l1526>:
    19d0:	e28010bc 	add	r1, r0, #188	; 0xbc

000019d4 <l1527>:
    19d4:	2091ab77 	addscs	sl, r1, r7, ror fp

000019d8 <l1528>:
    19d8:	e1f0a759 	mvns	sl, r9, asr r7

000019dc <l1529>:
    19dc:	11f07c10 	mvnsne	r7, r0, lsl ip

000019e0 <l1530>:
    19e0:	e0a8781c 	adc	r7, r8, ip, lsl r8

000019e4 <l1531>:
    19e4:	ea000000 	b	19ec <l1533>

000019e8 <l1532>:
    19e8:	eafffff9 	b	19d4 <l1527>

000019ec <l1533>:
    19ec:	e93d0200 	ldmdb	sp!, {r9}

000019f0 <l1534>:
    19f0:	3a000006 	bcc	1a10 <l1542>

000019f4 <l1535>:
    19f4:	605f7005 	subsvs	r7, pc, r5

000019f8 <l1536>:
    19f8:	e0a76428 	adc	r6, r7, r8, lsr #8

000019fc <l1537>:
    19fc:	d3740942 	cmnle	r4, #1081344	; 0x108000

00001a00 <l1538>:
    1a00:	30ac6b08 	adccc	r6, ip, r8, lsl #22

00001a04 <l1539>:
    1a04:	817b0a56 	cmnhi	fp, r6, asr sl

00001a08 <l1540>:
    1a08:	22921030 	addscs	r1, r2, #48	; 0x30

00001a0c <l1541>:
    1a0c:	402c9869 	eormi	r9, ip, r9, ror #16

00001a10 <l1542>:
    1a10:	116f7f1e 	clzne	r7, lr

00001a14 <l1543>:
    1a14:	a25c4107 	subsge	r4, ip, #-1073741823	; 0xc0000001

00001a18 <l1544>:
    1a18:	e2305aa1 	eors	r5, r0, #659456	; 0xa1000

00001a1c <l1545>:
    1a1c:	41710e5c 	cmnmi	r1, ip, asr lr

00001a20 <l1546>:
    1a20:	e37504bb 	cmn	r5, #-1157627904	; 0xbb000000

00001a24 <l1547>:
    1a24:	e31105f7 	tst	r1, #1035993088	; 0x3dc00000

00001a28 <l1548>:
    1a28:	33f057e2 	mvnscc	r5, #59244544	; 0x3880000

00001a2c <l1549>:
    1a2c:	e0d72002 	sbcs	r2, r7, r2

00001a30 <l1550>:
    1a30:	70fb6910 	rscsvc	r6, fp, r0, lsl r9

00001a34 <l1551>:
    1a34:	d0b82119 	adcsle	r2, r8, r9, lsl r1

00001a38 <l1552>:
    1a38:	e19b6068 	orrs	r6, fp, r8, rrx

00001a3c <l1553>:
    1a3c:	e3a0a019 	mov	sl, #25

00001a40 <l1554>:
    1a40:	27cde00a 	strbcs	lr, [sp, sl]

00001a44 <l1555>:
    1a44:	eaffffff 	b	1a48 <l1556>

00001a48 <l1556>:
    1a48:	515a0060 	cmppl	sl, r0, rrx

00001a4c <l1557>:
    1a4c:	e09e9353 	adds	r9, lr, r3, asr r3

00001a50 <l1558>:
    1a50:	500a8a4c 	andpl	r8, sl, ip, asr #20

00001a54 <l1559>:
    1a54:	e09521a9 	adds	r2, r5, r9, lsr #3

00001a58 <l1560>:
    1a58:	e1a0a066 	rrx	sl, r6

00001a5c <l1561>:
    1a5c:	401c400c 	andsmi	r4, ip, ip

00001a60 <l1562>:
    1a60:	ea000004 	b	1a78 <l1568>

00001a64 <l1563>:
    1a64:	e28010ba 	add	r1, r0, #186	; 0xba

00001a68 <l1564>:
    1a68:	e0ee8f61 	rsc	r8, lr, r1, ror #30

00001a6c <l1565>:
    1a6c:	81e07062 	mvnhi	r7, r2, rrx

00001a70 <l1566>:
    1a70:	a1f05a62 	mvnsge	r5, r2, ror #20

00001a74 <l1567>:
    1a74:	ea000000 	b	1a7c <l1569>

00001a78 <l1568>:
    1a78:	eafffffa 	b	1a68 <l1564>

00001a7c <l1569>:
    1a7c:	00fa5006 	rscseq	r5, sl, r6

00001a80 <l1570>:
    1a80:	5024000a 	eorpl	r0, r4, sl

00001a84 <l1571>:
    1a84:	92399f4a 	eorsls	r9, r9, #296	; 0x128

00001a88 <l1572>:
    1a88:	ea000003 	b	1a9c <l1577>

00001a8c <l1573>:
    1a8c:	e2801086 	add	r1, r0, #134	; 0x86

00001a90 <l1574>:
    1a90:	e33e0cf3 	teq	lr, #62208	; 0xf300

00001a94 <l1575>:
    1a94:	e17c0008 	cmn	ip, r8

00001a98 <l1576>:
    1a98:	ea000000 	b	1aa0 <l1578>

00001a9c <l1577>:
    1a9c:	eafffffb 	b	1a90 <l1574>

00001aa0 <l1578>:
    1aa0:	216f3f12 	clzcs	r3, r2

00001aa4 <l1579>:
    1aa4:	70132135 	andsvc	r2, r3, r5, lsr r1

00001aa8 <l1580>:
    1aa8:	1a000006 	bne	1ac8 <l1588>

00001aac <l1581>:
    1aac:	e2801028 	add	r1, r0, #40	; 0x28

00001ab0 <l1582>:
    1ab0:	b2403ca2 	sublt	r3, r0, #41472	; 0xa200

00001ab4 <l1583>:
    1ab4:	e1825006 	orr	r5, r2, r6

00001ab8 <l1584>:
    1ab8:	20a040ee 	adccs	r4, r0, lr, ror #1

00001abc <l1585>:
    1abc:	e0b76a82 	adcs	r6, r7, r2, lsl #21

00001ac0 <l1586>:
    1ac0:	7357001e 	cmpvc	r7, #30

00001ac4 <l1587>:
    1ac4:	ea000000 	b	1acc <l1589>

00001ac8 <l1588>:
    1ac8:	eafffff8 	b	1ab0 <l1582>

00001acc <l1589>:
    1acc:	d23b9973 	eorsle	r9, fp, #1884160	; 0x1cc000

00001ad0 <l1590>:
    1ad0:	ea000006 	b	1af0 <l1598>

00001ad4 <l1591>:
    1ad4:	e280105b 	add	r1, r0, #91	; 0x5b

00001ad8 <l1592>:
    1ad8:	60df0a4f 	sbcsvs	r0, pc, pc, asr #20

00001adc <l1593>:
    1adc:	e11e0158 	tst	lr, r8, asr r1

00001ae0 <l1594>:
    1ae0:	90441610 	subls	r1, r4, r0, lsl r6

00001ae4 <l1595>:
    1ae4:	c0564aa0 	subsgt	r4, r6, r0, lsr #21

00001ae8 <l1596>:
    1ae8:	a1f0a00b 	mvnsge	sl, fp

00001aec <l1597>:
    1aec:	ea000000 	b	1af4 <l1599>

00001af0 <l1598>:
    1af0:	eafffff8 	b	1ad8 <l1592>

00001af4 <l1599>:
    1af4:	30527008 	subscc	r7, r2, r8

00001af8 <l1600>:
    1af8:	501b0037 	andspl	r0, fp, r7, lsr r0

00001afc <l1601>:
    1afc:	e188800e 	orr	r8, r8, lr

00001b00 <l1602>:
    1b00:	13a07506 	movne	r7, #25165824	; 0x1800000

00001b04 <l1603>:
    1b04:	e01c1da7 	ands	r1, ip, r7, lsr #27

00001b08 <l1604>:
    1b08:	e1d64142 	bics	r4, r6, r2, asr #2

00001b0c <l1605>:
    1b0c:	a254c471 	subsge	ip, r4, #1895825408	; 0x71000000

00001b10 <l1606>:
    1b10:	e191b00b 	orrs	fp, r1, fp

00001b14 <l1607>:
    1b14:	42111d3b 	andsmi	r1, r1, #3776	; 0xec0

00001b18 <l1608>:
    1b18:	e04eb00a 	sub	fp, lr, sl

00001b1c <l1609>:
    1b1c:	e15a000f 	cmp	sl, pc

00001b20 <l1610>:
    1b20:	e5cdb001 	strb	fp, [sp, #1]

00001b24 <l1611>:
    1b24:	e90d2264 	stmdb	sp, {r2, r5, r6, r9, sp}

00001b28 <l1612>:
    1b28:	c05e2134 	subsgt	r2, lr, r4, lsr r1

00001b2c <l1613>:
    1b2c:	606c9005 	rsbvs	r9, ip, r5

00001b30 <l1614>:
    1b30:	0a000005 	beq	1b4c <l1621>

00001b34 <l1615>:
    1b34:	405ec004 	subsmi	ip, lr, r4

00001b38 <l1616>:
    1b38:	0172000f 	cmneq	r2, pc

00001b3c <l1617>:
    1b3c:	e16f4f18 	clz	r4, r8

00001b40 <l1618>:
    1b40:	10773000 	rsbsne	r3, r7, r0

00001b44 <l1619>:
    1b44:	12e3b73a 	rscne	fp, r3, #15204352	; 0xe80000

00001b48 <l1620>:
    1b48:	e16fef15 	clz	lr, r5

00001b4c <l1621>:
    1b4c:	e0274001 	eor	r4, r7, r1

00001b50 <l1622>:
    1b50:	e049900a 	sub	r9, r9, sl

00001b54 <l1623>:
    1b54:	ea000003 	b	1b68 <l1628>

00001b58 <l1624>:
    1b58:	e28010ed 	add	r1, r0, #237	; 0xed

00001b5c <l1625>:
    1b5c:	e058e350 	subs	lr, r8, r0, asr r3

00001b60 <l1626>:
    1b60:	0198100c 	orrseq	r1, r8, ip

00001b64 <l1627>:
    1b64:	ea000000 	b	1b6c <l1629>

00001b68 <l1628>:
    1b68:	eafffffb 	b	1b5c <l1625>

00001b6c <l1629>:
    1b6c:	61770001 	cmnvs	r7, r1

00001b70 <l1630>:
    1b70:	e82d9408 	stmda	sp!, {r3, sl, ip, pc}

00001b74 <l1631>:
    1b74:	e0b7b00b 	adcs	fp, r7, fp

00001b78 <l1632>:
    1b78:	e8bd0cca 	pop	{r1, r3, r6, r7, sl, fp}

00001b7c <l1633>:
    1b7c:	e1b02e6e 	rors	r2, lr, #28

00001b80 <l1634>:
    1b80:	e3d87b85 	bics	r7, r8, #136192	; 0x21400

00001b84 <l1635>:
    1b84:	322a8c19 	eorcc	r8, sl, #6400	; 0x1900

00001b88 <l1636>:
    1b88:	31530062 	cmpcc	r3, r2, rrx

00001b8c <l1637>:
    1b8c:	e0e0900e 	rsc	r9, r0, lr

00001b90 <l1638>:
    1b90:	e13b0003 	teq	fp, r3

00001b94 <l1639>:
    1b94:	05ddc005 	ldrbeq	ip, [sp, #5]

00001b98 <l1640>:
    1b98:	235b08b6 	cmpcs	fp, #11927552	; 0xb60000

00001b9c <l1641>:
    1b9c:	e3b0999a 	movs	r9, #2523136	; 0x268000

00001ba0 <l1642>:
    1ba0:	e31b0053 	tst	fp, #83	; 0x53

00001ba4 <l1643>:
    1ba4:	e0420064 	sub	r0, r2, r4, rrx

00001ba8 <l1644>:
    1ba8:	e1d634e8 	bics	r3, r6, r8, ror #9

00001bac <l1645>:
    1bac:	ea000005 	b	1bc8 <l1652>

00001bb0 <l1646>:
    1bb0:	e280102c 	add	r1, r0, #44	; 0x2c

00001bb4 <l1647>:
    1bb4:	a1d9200e 	bicsge	r2, r9, lr

00001bb8 <l1648>:
    1bb8:	e1e03060 	mvn	r3, r0, rrx

00001bbc <l1649>:
    1bbc:	61a0c06a 	rrxvs	ip, sl

00001bc0 <l1650>:
    1bc0:	4002000e 	andmi	r0, r2, lr

00001bc4 <l1651>:
    1bc4:	ea000000 	b	1bcc <l1653>

00001bc8 <l1652>:
    1bc8:	eafffff9 	b	1bb4 <l1647>

00001bcc <l1653>:
    1bcc:	e11b0013 	tst	fp, r3, lsl r0

00001bd0 <l1654>:
    1bd0:	517c006b 	cmnpl	ip, fp, rrx

00001bd4 <l1655>:
    1bd4:	80e65062 	rschi	r5, r6, r2, rrx

00001bd8 <l1656>:
    1bd8:	11f05069 	mvnsne	r5, r9, rrx

00001bdc <l1657>:
    1bdc:	d3580157 	cmple	r8, #-1073741803	; 0xc0000015

00001be0 <l1658>:
    1be0:	51590938 	cmppl	r9, r8, lsr r9

00001be4 <l1659>:
    1be4:	817b083c 	cmnhi	fp, ip, lsr r8

00001be8 <l1660>:
    1be8:	e005053c 	and	r0, r5, ip, lsr r5

00001bec <l1661>:
    1bec:	e01a8000 	ands	r8, sl, r0

00001bf0 <l1662>:
    1bf0:	ea000007 	b	1c14 <l1671>

00001bf4 <l1663>:
    1bf4:	e280102a 	add	r1, r0, #42	; 0x2a

00001bf8 <l1664>:
    1bf8:	72553d16 	subsvc	r3, r5, #1408	; 0x580

00001bfc <l1665>:
    1bfc:	c0a95969 	adcgt	r5, r9, r9, ror #18

00001c00 <l1666>:
    1c00:	205ba009 	subscs	sl, fp, r9

00001c04 <l1667>:
    1c04:	e04c17ce 	sub	r1, ip, lr, asr #15

00001c08 <l1668>:
    1c08:	b086b5ec 	addlt	fp, r6, ip, ror #11

00001c0c <l1669>:
    1c0c:	e137000a 	teq	r7, sl

00001c10 <l1670>:
    1c10:	ea000000 	b	1c18 <l1672>

00001c14 <l1671>:
    1c14:	eafffff7 	b	1bf8 <l1664>

00001c18 <l1672>:
    1c18:	ea000000 	b	1c20 <l1674>

00001c1c <l1673>:
    1c1c:	e2a9c8dd 	adc	ip, r9, #14483456	; 0xdd0000

00001c20 <l1674>:
    1c20:	d0ea1003 	rscle	r1, sl, r3

00001c24 <l1675>:
    1c24:	e1b0eb81 	lsls	lr, r1, #23

00001c28 <l1676>:
    1c28:	eaffffff 	b	1c2c <l1677>

00001c2c <l1677>:
    1c2c:	00e8ae3e 	rsceq	sl, r8, lr, lsr lr

00001c30 <l1678>:
    1c30:	e1c0765b 	bic	r7, r0, fp, asr r6

00001c34 <l1679>:
    1c34:	e1a0253b 	lsr	r2, fp, r5

00001c38 <l1680>:
    1c38:	e3a01009 	mov	r1, #9

00001c3c <l1681>:
    1c3c:	674da001 	strbvs	sl, [sp, -r1]

00001c40 <l1682>:
    1c40:	e8ad0080 	stmia	sp!, {r7}

00001c44 <l1683>:
    1c44:	1253bd6f 	subsne	fp, r3, #7104	; 0x1bc0

00001c48 <l1684>:
    1c48:	e9bd4bc2 	ldmib	sp!, {r1, r6, r7, r8, r9, fp, lr}

00001c4c <l1685>:
    1c4c:	e1a00000 	nop			; (mov r0, r0)

00001c50 <l1686>:
    1c50:	22f361b9 	rscscs	r6, r3, #1073741870	; 0x4000002e

00001c54 <l1687>:
    1c54:	a0c3a000 	sbcge	sl, r3, r0

00001c58 <l1688>:
    1c58:	3038a001 	eorscc	sl, r8, r1

00001c5c <l1689>:
    1c5c:	6006e008 	andvs	lr, r6, r8

00001c60 <l1690>:
    1c60:	422f9583 	eormi	r9, pc, #549453824	; 0x20c00000

00001c64 <l1691>:
    1c64:	7a000006 	bvc	1c84 <l1699>

00001c68 <l1692>:
    1c68:	e280102e 	add	r1, r0, #46	; 0x2e

00001c6c <l1693>:
    1c6c:	e1b09b32 	lsrs	r9, r2, fp

00001c70 <l1694>:
    1c70:	e113000f 	tst	r3, pc

00001c74 <l1695>:
    1c74:	51d37ae0 	bicspl	r7, r3, r0, ror #21

00001c78 <l1696>:
    1c78:	e29a0dd1 	adds	r0, sl, #13376	; 0x3440

00001c7c <l1697>:
    1c7c:	e056b538 	subs	fp, r6, r8, lsr r5

00001c80 <l1698>:
    1c80:	ea000000 	b	1c88 <l1700>

00001c84 <l1699>:
    1c84:	eafffff8 	b	1c6c <l1693>

00001c88 <l1700>:
    1c88:	c197463a 	orrsgt	r4, r7, sl, lsr r6

00001c8c <l1701>:
    1c8c:	e11a000c 	tst	sl, ip

00001c90 <l1702>:
    1c90:	407e300a 	rsbsmi	r3, lr, sl

00001c94 <l1703>:
    1c94:	e1cf800c 	bic	r8, pc, ip

00001c98 <l1704>:
    1c98:	2a000000 	bcs	1ca0 <l1706>

00001c9c <l1705>:
    1c9c:	92fbc916 	rscsls	ip, fp, #360448	; 0x58000

00001ca0 <l1706>:
    1ca0:	e3e0a41f 	mvn	sl, #520093696	; 0x1f000000

00001ca4 <l1707>:
    1ca4:	e0fcb55c 	rscs	fp, ip, ip, asr r5

00001ca8 <l1708>:
    1ca8:	800c8064 	andhi	r8, ip, r4, rrx

00001cac <l1709>:
    1cac:	e046084b 	sub	r0, r6, fp, asr #16

00001cb0 <l1710>:
    1cb0:	7a000006 	bvc	1cd0 <l1718>

00001cb4 <l1711>:
    1cb4:	e2801069 	add	r1, r0, #105	; 0x69

00001cb8 <l1712>:
    1cb8:	117106cc 	cmnne	r1, ip, asr #13

00001cbc <l1713>:
    1cbc:	70f0b840 	rscsvc	fp, r0, r0, asr #16

00001cc0 <l1714>:
    1cc0:	10e25c48 	rscne	r5, r2, r8, asr #24

00001cc4 <l1715>:
    1cc4:	105899a0 	subsne	r9, r8, r0, lsr #19

00001cc8 <l1716>:
    1cc8:	e1b08f24 	lsrs	r8, r4, #30

00001ccc <l1717>:
    1ccc:	ea000000 	b	1cd4 <l1719>

00001cd0 <l1718>:
    1cd0:	eafffff8 	b	1cb8 <l1712>

00001cd4 <l1719>:
    1cd4:	819a763c 	orrshi	r7, sl, ip, lsr r6

00001cd8 <l1720>:
    1cd8:	60e18001 	rscvs	r8, r1, r1

00001cdc <l1721>:
    1cdc:	ea000000 	b	1ce4 <l1723>

00001ce0 <l1722>:
    1ce0:	e1770000 	cmn	r7, r0

00001ce4 <l1723>:
    1ce4:	3014506f 	andscc	r5, r4, pc, rrx

00001ce8 <l1724>:
    1ce8:	e15f0004 	cmp	pc, r4

00001cec <l1725>:
    1cec:	516f8f1b 	clzpl	r8, fp

00001cf0 <l1726>:
    1cf0:	e17a036a 	cmn	sl, sl, ror #6

00001cf4 <l1727>:
    1cf4:	e0e1110f 	rsc	r1, r1, pc, lsl #2

00001cf8 <l1728>:
    1cf8:	e0e9306e 	rsc	r3, r9, lr, rrx

00001cfc <l1729>:
    1cfc:	a08c1857 	addge	r1, ip, r7, asr r8

00001d00 <l1730>:
    1d00:	e019eb70 	ands	lr, r9, r0, ror fp

00001d04 <l1731>:
    1d04:	700ab00a 	andvc	fp, sl, sl

00001d08 <l1732>:
    1d08:	e16fbf16 	clz	fp, r6

00001d0c <l1733>:
    1d0c:	8381a0ff 	orrhi	sl, r1, #255	; 0xff

00001d10 <l1734>:
    1d10:	e0e62005 	rsc	r2, r6, r5

00001d14 <l1735>:
    1d14:	50537082 	subspl	r7, r3, r2, lsl #1

00001d18 <l1736>:
    1d18:	716f6f1c 	clzvc	r6, ip

00001d1c <l1737>:
    1d1c:	10377d2f 	eorsne	r7, r7, pc, lsr #26

00001d20 <l1738>:
    1d20:	91960cca 	orrsls	r0, r6, sl, asr #25

00001d24 <l1739>:
    1d24:	8a000007 	bhi	1d48 <l1748>

00001d28 <l1740>:
    1d28:	e28010be 	add	r1, r0, #190	; 0xbe

00001d2c <l1741>:
    1d2c:	e1c1161c 	bic	r1, r1, ip, lsl r6

00001d30 <l1742>:
    1d30:	e1a0eb0c 	lsl	lr, ip, #22

00001d34 <l1743>:
    1d34:	70b67a54 	adcsvc	r7, r6, r4, asr sl

00001d38 <l1744>:
    1d38:	e2e346f3 	rsc	r4, r3, #254803968	; 0xf300000

00001d3c <l1745>:
    1d3c:	c15c0b8a 	cmpgt	ip, sl, lsl #23

00001d40 <l1746>:
    1d40:	e111000a 	tst	r1, sl

00001d44 <l1747>:
    1d44:	ea000000 	b	1d4c <l1749>

00001d48 <l1748>:
    1d48:	eafffff7 	b	1d2c <l1741>

00001d4c <l1749>:
    1d4c:	5a000005 	bpl	1d68 <l1756>

00001d50 <l1750>:
    1d50:	e2801097 	add	r1, r0, #151	; 0x97

00001d54 <l1751>:
    1d54:	d0bf3fe7 	adcsle	r3, pc, r7, ror #31

00001d58 <l1752>:
    1d58:	e06b1007 	rsb	r1, fp, r7

00001d5c <l1753>:
    1d5c:	e0d97062 	sbcs	r7, r9, r2, rrx

00001d60 <l1754>:
    1d60:	e03f306f 	eors	r3, pc, pc, rrx

00001d64 <l1755>:
    1d64:	ea000000 	b	1d6c <l1757>

00001d68 <l1756>:
    1d68:	eafffff9 	b	1d54 <l1751>

00001d6c <l1757>:
    1d6c:	c051eb27 	subsgt	lr, r1, r7, lsr #22

00001d70 <l1758>:
    1d70:	e0de7007 	sbcs	r7, lr, r7

00001d74 <l1759>:
    1d74:	e019a002 	ands	sl, r9, r2

00001d78 <l1760>:
    1d78:	2a000004 	bcs	1d90 <l1766>

00001d7c <l1761>:
    1d7c:	e28010b0 	add	r1, r0, #176	; 0xb0

00001d80 <l1762>:
    1d80:	e16fbf1b 	clz	fp, fp

00001d84 <l1763>:
    1d84:	e1340455 	teq	r4, r5, asr r4

00001d88 <l1764>:
    1d88:	d16f1f1a 	clzle	r1, sl

00001d8c <l1765>:
    1d8c:	ea000000 	b	1d94 <l1767>

00001d90 <l1766>:
    1d90:	eafffffa 	b	1d80 <l1762>

00001d94 <l1767>:
    1d94:	c16fef1c 	clzgt	lr, ip

00001d98 <l1768>:
    1d98:	da000007 	ble	1dbc <l1777>

00001d9c <l1769>:
    1d9c:	e28010cb 	add	r1, r0, #203	; 0xcb

00001da0 <l1770>:
    1da0:	e2f2b59d 	rscs	fp, r2, #658505728	; 0x27400000

00001da4 <l1771>:
    1da4:	9264cc36 	rsbls	ip, r4, #13824	; 0x3600

00001da8 <l1772>:
    1da8:	e08b2000 	add	r2, fp, r0

00001dac <l1773>:
    1dac:	e1a0be31 	lsr	fp, r1, lr

00001db0 <l1774>:
    1db0:	e16faf13 	clz	sl, r3

00001db4 <l1775>:
    1db4:	92936c9a 	addsls	r6, r3, #39424	; 0x9a00

00001db8 <l1776>:
    1db8:	ea000000 	b	1dc0 <l1778>

00001dbc <l1777>:
    1dbc:	eafffff7 	b	1da0 <l1770>

00001dc0 <l1778>:
    1dc0:	e02f712e 	eor	r7, pc, lr, lsr #2

00001dc4 <l1779>:
    1dc4:	30215002 	eorcc	r5, r1, r2

00001dc8 <l1780>:
    1dc8:	a2117315 	andsge	r7, r1, #1409286144	; 0x54000000

00001dcc <l1781>:
    1dcc:	e0aab060 	adc	fp, sl, r0, rrx

00001dd0 <l1782>:
    1dd0:	b008a00e 	andlt	sl, r8, lr

00001dd4 <l1783>:
    1dd4:	616f4f1c 	clzvs	r4, ip

00001dd8 <l1784>:
    1dd8:	e0225364 	eor	r5, r2, r4, ror #6

00001ddc <l1785>:
    1ddc:	ea000004 	b	1df4 <l1791>

00001de0 <l1786>:
    1de0:	6135051b 	teqvs	r5, fp, lsl r5

00001de4 <l1787>:
    1de4:	e1f0ba49 	mvns	fp, r9, asr #20

00001de8 <l1788>:
    1de8:	e25b59b5 	subs	r5, fp, #2965504	; 0x2d4000

00001dec <l1789>:
    1dec:	016f5f15 	clzeq	r5, r5

00001df0 <l1790>:
    1df0:	e0777441 	rsbs	r7, r7, r1, asr #8

00001df4 <l1791>:
    1df4:	106331a4 	rsbne	r3, r3, r4, lsr #3

00001df8 <l1792>:
    1df8:	7a000003 	bvc	1e0c <l1797>

00001dfc <l1793>:
    1dfc:	e2801020 	add	r1, r0, #32

00001e00 <l1794>:
    1e00:	b17005ae 	cmnlt	r0, lr, lsr #11

00001e04 <l1795>:
    1e04:	0215efc3 	andseq	lr, r5, #780	; 0x30c

00001e08 <l1796>:
    1e08:	ea000000 	b	1e10 <l1798>

00001e0c <l1797>:
    1e0c:	eafffffb 	b	1e00 <l1794>

00001e10 <l1798>:
    1e10:	4034971e 	eorsmi	r9, r4, lr, lsl r7

00001e14 <l1799>:
    1e14:	e2ff107b 	rscs	r1, pc, #123	; 0x7b

00001e18 <l1800>:
    1e18:	b89d0080 	ldmlt	sp, {r7}

00001e1c <l1801>:
    1e1c:	91d2645b 	bicsls	r6, r2, fp, asr r4

00001e20 <l1802>:
    1e20:	11330a35 	teqne	r3, r5, lsr sl

00001e24 <l1803>:
    1e24:	72473acd 	subvc	r3, r7, #839680	; 0xcd000

00001e28 <l1804>:
    1e28:	e053b256 	subs	fp, r3, r6, asr r2

00001e2c <l1805>:
    1e2c:	e07c55e9 	rsbs	r5, ip, r9, ror #11

00001e30 <l1806>:
    1e30:	105059ca 	subsne	r5, r0, sl, asr #19

00001e34 <l1807>:
    1e34:	ea000004 	b	1e4c <l1813>

00001e38 <l1808>:
    1e38:	e2801078 	add	r1, r0, #120	; 0x78

00001e3c <l1809>:
    1e3c:	c0e46613 	rscgt	r6, r4, r3, lsl r6

00001e40 <l1810>:
    1e40:	e0a45107 	adc	r5, r4, r7, lsl #2

00001e44 <l1811>:
    1e44:	31d9700c 	bicscc	r7, r9, ip

00001e48 <l1812>:
    1e48:	ea000000 	b	1e50 <l1814>

00001e4c <l1813>:
    1e4c:	eafffffa 	b	1e3c <l1809>

00001e50 <l1814>:
    1e50:	e52db020 	str	fp, [sp, #-32]!

00001e54 <l1815>:
    1e54:	12e95119 	rscne	r5, r9, #1073741830	; 0x40000006

00001e58 <l1816>:
    1e58:	235c0d0a 	cmpcs	ip, #640	; 0x280

00001e5c <l1817>:
    1e5c:	e9bd44d2 	ldmib	sp!, {r1, r4, r6, r7, sl, lr}

00001e60 <l1818>:
    1e60:	320e9c3a 	andcc	r9, lr, #14848	; 0x3a00

00001e64 <l1819>:
    1e64:	e5cd6004 	strb	r6, [sp, #4]

00001e68 <l1820>:
    1e68:	b0a92dae 	adclt	r2, r9, lr, lsr #27

00001e6c <l1821>:
    1e6c:	611e01e5 	tstvs	lr, r5, ror #3

00001e70 <l1822>:
    1e70:	e01e0001 	ands	r0, lr, r1

00001e74 <l1823>:
    1e74:	b0fe8413 	rscslt	r8, lr, r3, lsl r4

00001e78 <l1824>:
    1e78:	e04b9a33 	sub	r9, fp, r3, lsr sl

00001e7c <l1825>:
    1e7c:	e043500e 	sub	r5, r3, lr

00001e80 <l1826>:
    1e80:	e3a07028 	mov	r7, #40	; 0x28

00001e84 <l1827>:
    1e84:	e73d0007 	ldr	r0, [sp, -r7]!

00001e88 <l1828>:
    1e88:	71710005 	cmnvc	r1, r5

00001e8c <l1829>:
    1e8c:	e3a0a008 	mov	sl, #8

00001e90 <l1830>:
    1e90:	874d500a 	strbhi	r5, [sp, -sl]

00001e94 <l1831>:
    1e94:	a1a08008 	movge	r8, r8

00001e98 <l1832>:
    1e98:	216f8f15 	clzcs	r8, r5

00001e9c <l1833>:
    1e9c:	e1da1765 	bics	r1, sl, r5, ror #14

00001ea0 <l1834>:
    1ea0:	4117000f 	tstmi	r7, pc

00001ea4 <l1835>:
    1ea4:	9a000005 	bls	1ec0 <l1842>

00001ea8 <l1836>:
    1ea8:	e280106f 	add	r1, r0, #111	; 0x6f

00001eac <l1837>:
    1eac:	b04b6958 	sublt	r6, fp, r8, asr r9

00001eb0 <l1838>:
    1eb0:	e03ab066 	eors	fp, sl, r6, rrx

00001eb4 <l1839>:
    1eb4:	e01ec067 	ands	ip, lr, r7, rrx

00001eb8 <l1840>:
    1eb8:	80cf45c7 	sbchi	r4, pc, r7, asr #11

00001ebc <l1841>:
    1ebc:	ea000000 	b	1ec4 <l1843>

00001ec0 <l1842>:
    1ec0:	eafffff9 	b	1eac <l1837>

00001ec4 <l1843>:
    1ec4:	e010c80a 	ands	ip, r0, sl, lsl #16

00001ec8 <l1844>:
    1ec8:	63a05d3d 	movvs	r5, #3904	; 0xf40

00001ecc <l1845>:
    1ecc:	aa000004 	bge	1ee4 <l1851>

00001ed0 <l1846>:
    1ed0:	e280105a 	add	r1, r0, #90	; 0x5a

00001ed4 <l1847>:
    1ed4:	00b46844 	adcseq	r6, r4, r4, asr #16

00001ed8 <l1848>:
    1ed8:	e1320ca2 	teq	r2, r2, lsr #25

00001edc <l1849>:
    1edc:	e0fa9002 	rscs	r9, sl, r2

00001ee0 <l1850>:
    1ee0:	ea000000 	b	1ee8 <l1852>

00001ee4 <l1851>:
    1ee4:	eafffffa 	b	1ed4 <l1847>

00001ee8 <l1852>:
    1ee8:	e1d71001 	bics	r1, r7, r1

00001eec <l1853>:
    1eec:	b2c9e08a 	sbclt	lr, r9, #138	; 0x8a

00001ef0 <l1854>:
    1ef0:	40747060 	rsbsmi	r7, r4, r0, rrx

00001ef4 <l1855>:
    1ef4:	e98d53a0 	stmib	sp, {r5, r7, r8, r9, ip, lr}

00001ef8 <l1856>:
    1ef8:	30ae0068 	adccc	r0, lr, r8, rrx

00001efc <l1857>:
    1efc:	e3a06deb 	mov	r6, #15040	; 0x3ac0

00001f00 <l1858>:
    1f00:	d1750feb 	cmnle	r5, fp, ror #31

00001f04 <l1859>:
    1f04:	e0398e82 	eors	r8, r9, r2, lsl #29

00001f08 <l1860>:
    1f08:	e1891005 	orr	r1, r9, r5

00001f0c <l1861>:
    1f0c:	1040ac0b 	subne	sl, r0, fp, lsl #24

00001f10 <l1862>:
    1f10:	e1986e14 	orrs	r6, r8, r4, lsl lr

00001f14 <l1863>:
    1f14:	e82d2000 	stmda	sp!, {sp}

00001f18 <l1864>:
    1f18:	41b07001 	movsmi	r7, r1

00001f1c <l1865>:
    1f1c:	e1997062 	orrs	r7, r9, r2, rrx

00001f20 <l1866>:
    1f20:	124a425b 	subne	r4, sl, #-1342177275	; 0xb0000005

00001f24 <l1867>:
    1f24:	e15a0407 	cmp	sl, r7, lsl #8

00001f28 <l1868>:
    1f28:	e09a200f 	adds	r2, sl, pc

00001f2c <l1869>:
    1f2c:	50da2009 	sbcspl	r2, sl, r9

00001f30 <l1870>:
    1f30:	e25a450f 	subs	r4, sl, #62914560	; 0x3c00000

00001f34 <l1871>:
    1f34:	b58d7038 	strlt	r7, [sp, #56]	; 0x38

00001f38 <l1872>:
    1f38:	b2e04b2a 	rsclt	r4, r0, #43008	; 0xa800

00001f3c <l1873>:
    1f3c:	616fcf18 	clzvs	ip, r8

00001f40 <l1874>:
    1f40:	ea000004 	b	1f58 <l1880>

00001f44 <l1875>:
    1f44:	80f2c005 	rscshi	ip, r2, r5

00001f48 <l1876>:
    1f48:	e2f74013 	rscs	r4, r7, #19

00001f4c <l1877>:
    1f4c:	11a0275b 	asrne	r2, fp, r7

00001f50 <l1878>:
    1f50:	93350992 	teqls	r5, #2392064	; 0x248000

00001f54 <l1879>:
    1f54:	e0d084eb 	sbcs	r8, r0, fp, ror #9

00001f58 <l1880>:
    1f58:	e1f02622 	mvns	r2, r2, lsr #12

00001f5c <l1881>:
    1f5c:	e1a00000 	nop			; (mov r0, r0)

00001f60 <l1882>:
    1f60:	7019824a 	andsvc	r8, r9, sl, asr #4

00001f64 <l1883>:
    1f64:	a33603dd 	teqge	r6, #1946157059	; 0x74000003

00001f68 <l1884>:
    1f68:	e9bd1730 	ldmib	sp!, {r4, r5, r8, r9, sl, ip}

00001f6c <l1885>:
    1f6c:	e07eb915 	rsbs	fp, lr, r5, lsl r9

00001f70 <l1886>:
    1f70:	83e0101b 	mvnhi	r1, #27

00001f74 <l1887>:
    1f74:	e1995b56 	orrs	r5, r9, r6, asr fp

00001f78 <l1888>:
    1f78:	317a0668 	cmncc	sl, r8, ror #12

00001f7c <l1889>:
    1f7c:	916f2f18 	clzls	r2, r8

00001f80 <l1890>:
    1f80:	e99d002d 	ldmib	sp, {r0, r2, r3, r5}

00001f84 <l1891>:
    1f84:	5042be37 	subpl	fp, r2, r7, lsr lr

00001f88 <l1892>:
    1f88:	354d900a 	strbcc	r9, [sp, #-10]

00001f8c <l1893>:
    1f8c:	e41de024 	ldr	lr, [sp], #-36	; 0x24

00001f90 <l1894>:
    1f90:	3a000007 	bcc	1fb4 <l1903>

00001f94 <l1895>:
    1f94:	e280104f 	add	r1, r0, #79	; 0x4f

00001f98 <l1896>:
    1f98:	b0231e3a 	eorlt	r1, r3, sl, lsr lr

00001f9c <l1897>:
    1f9c:	21c6300f 	biccs	r3, r6, pc

00001fa0 <l1898>:
    1fa0:	e0993d06 	adds	r3, r9, r6, lsl #26

00001fa4 <l1899>:
    1fa4:	e0b3b068 	adcs	fp, r3, r8, rrx

00001fa8 <l1900>:
    1fa8:	20f1200f 	rscscs	r2, r1, pc

00001fac <l1901>:
    1fac:	e2674799 	rsb	r4, r7, #40108032	; 0x2640000

00001fb0 <l1902>:
    1fb0:	ea000000 	b	1fb8 <l1904>

00001fb4 <l1903>:
    1fb4:	eafffff7 	b	1f98 <l1896>

00001fb8 <l1904>:
    1fb8:	51a0ce85 	lslpl	ip, r5, #29

00001fbc <l1905>:
    1fbc:	401a3a5e 	andsmi	r3, sl, lr, asr sl

00001fc0 <l1906>:
    1fc0:	ea000004 	b	1fd8 <l1912>

00001fc4 <l1907>:
    1fc4:	e16f3f14 	clz	r3, r4

00001fc8 <l1908>:
    1fc8:	e1882069 	orr	r2, r8, r9, rrx

00001fcc <l1909>:
    1fcc:	70e9806a 	rscvc	r8, r9, sl, rrx

00001fd0 <l1910>:
    1fd0:	e0dc130a 	sbcs	r1, ip, sl, lsl #6

00001fd4 <l1911>:
    1fd4:	50ec7530 	rscpl	r7, ip, r0, lsr r5

00001fd8 <l1912>:
    1fd8:	e093b002 	adds	fp, r3, r2

00001fdc <l1913>:
    1fdc:	6a000001 	bvs	1fe8 <l1916>

00001fe0 <l1914>:
    1fe0:	137c074b 	cmnne	ip, #19660800	; 0x12c0000

00001fe4 <l1915>:
    1fe4:	706c3def 	rsbvc	r3, ip, pc, ror #27

00001fe8 <l1916>:
    1fe8:	e1a01b40 	asr	r1, r0, #22

00001fec <l1917>:
    1fec:	116f6f1e 	clzne	r6, lr

00001ff0 <l1918>:
    1ff0:	7a000004 	bvc	2008 <l1924>

00001ff4 <l1919>:
    1ff4:	21190517 	tstcs	r9, r7, lsl r5

00001ff8 <l1920>:
    1ff8:	51831002 	orrpl	r1, r3, r2

00001ffc <l1921>:
    1ffc:	e086a069 	add	sl, r6, r9, rrx

00002000 <l1922>:
    2000:	22a96aff 	adccs	r6, r9, #1044480	; 0xff000

00002004 <l1923>:
    2004:	e0f5e009 	rscs	lr, r5, r9

00002008 <l1924>:
    2008:	62354a42 	eorsvs	r4, r5, #270336	; 0x42000

0000200c <l1925>:
    200c:	301e500a 	andscc	r5, lr, sl

00002010 <l1926>:
    2010:	2064396c 	rsbcs	r3, r4, ip, ror #18

00002014 <l1927>:
    2014:	e19cb004 	orrs	fp, ip, r4

00002018 <l1928>:
    2018:	d3e0cd9b 	mvnle	ip, #9920	; 0x26c0

0000201c <l1929>:
    201c:	e1d16b53 	bics	r6, r1, r3, asr fp

00002020 <l1930>:
    2020:	e19e6627 	orrs	r6, lr, r7, lsr #12

00002024 <l1931>:
    2024:	e3db1040 	bics	r1, fp, #64	; 0x40

00002028 <l1932>:
    2028:	e18694eb 	orr	r9, r6, fp, ror #9

0000202c <l1933>:
    202c:	e1510056 	cmp	r1, r6, asr r0

00002030 <l1934>:
    2030:	c21391b2 	andsgt	r9, r3, #-2147483604	; 0x8000002c

00002034 <l1935>:
    2034:	41f01003 	mvnsmi	r1, r3

00002038 <l1936>:
    2038:	502a000f 	eorpl	r0, sl, pc

0000203c <l1937>:
    203c:	e8bd4a37 	pop	{r0, r1, r2, r4, r5, r9, fp, lr}

00002040 <l1938>:
    2040:	8a000008 	bhi	2068 <l1948>

00002044 <l1939>:
    2044:	e01e900c 	ands	r9, lr, ip

00002048 <l1940>:
    2048:	e07b861a 	rsbs	r8, fp, sl, lsl r6

0000204c <l1941>:
    204c:	e2f192b7 	rscs	r9, r1, #1879048203	; 0x7000000b

00002050 <l1942>:
    2050:	e0ff5006 	rscs	r5, pc, r6

00002054 <l1943>:
    2054:	705b86c1 	subsvc	r8, fp, r1, asr #13

00002058 <l1944>:
    2058:	915a0217 	cmpls	sl, r7, lsl r2

0000205c <l1945>:
    205c:	e0906e2b 	adds	r6, r0, fp, lsr #28

00002060 <l1946>:
    2060:	001238af 	andseq	r3, r2, pc, lsr #17

00002064 <l1947>:
    2064:	e00e8006 	and	r8, lr, r6

00002068 <l1948>:
    2068:	80362002 	eorshi	r2, r6, r2

0000206c <l1949>:
    206c:	939c5e19 	orrsls	r5, ip, #400	; 0x190

00002070 <l1950>:
    2070:	e1a00000 	nop			; (mov r0, r0)

00002074 <l1951>:
    2074:	e088b007 	add	fp, r8, r7

00002078 <l1952>:
    2078:	60cf5003 	sbcvs	r5, pc, r3

0000207c <l1953>:
    207c:	133a0a0e 	teqne	sl, #57344	; 0xe000

00002080 <l1954>:
    2080:	618a500f 	orrvs	r5, sl, pc

00002084 <l1955>:
    2084:	3184e107 	orrcc	lr, r4, r7, lsl #2

00002088 <l1956>:
    2088:	e015b562 	ands	fp, r5, r2, ror #10

0000208c <l1957>:
    208c:	408054a1 	addmi	r5, r0, r1, lsr #9

00002090 <l1958>:
    2090:	01750632 	cmneq	r5, r2, lsr r6

00002094 <l1959>:
    2094:	81310000 	teqhi	r1, r0

00002098 <l1960>:
    2098:	e00e3760 	and	r3, lr, r0, ror #14

0000209c <l1961>:
    209c:	03b0200e 	movseq	r2, #14

000020a0 <l1962>:
    20a0:	e8ad2000 	stmia	sp!, {sp}

000020a4 <l1963>:
    20a4:	d1a03065 	rrxle	r3, r5

000020a8 <l1964>:
    20a8:	e1170063 	tst	r7, r3, rrx

000020ac <l1965>:
    20ac:	e52d1008 	str	r1, [sp, #-8]!

000020b0 <l1966>:
    20b0:	924b27d2 	subls	r2, fp, #55050240	; 0x3480000

000020b4 <l1967>:
    20b4:	e0dba068 	sbcs	sl, fp, r8, rrx

000020b8 <l1968>:
    20b8:	811e036a 	tsthi	lr, sl, ror #6

000020bc <l1969>:
    20bc:	41e0b83b 	mvnmi	fp, fp, lsr r8

000020c0 <l1970>:
    20c0:	61870125 	orrvs	r0, r7, r5, lsr #2

000020c4 <l1971>:
    20c4:	e18168c5 	orr	r6, r1, r5, asr #17

000020c8 <l1972>:
    20c8:	b99d52fe 	ldmiblt	sp, {r1, r2, r3, r4, r5, r6, r7, r9, ip, lr}

000020cc <l1973>:
    20cc:	ea000005 	b	20e8 <l1980>

000020d0 <l1974>:
    20d0:	9257afd2 	subsls	sl, r7, #840	; 0x348

000020d4 <l1975>:
    20d4:	e1790b1c 	cmn	r9, ip, lsl fp

000020d8 <l1976>:
    20d8:	e1760b3a 	cmn	r6, sl, lsr fp

000020dc <l1977>:
    20dc:	b17c0912 	cmnlt	ip, r2, lsl r9

000020e0 <l1978>:
    20e0:	11720000 	cmnne	r2, r0

000020e4 <l1979>:
    20e4:	e285051d 	add	r0, r5, #121634816	; 0x7400000

000020e8 <l1980>:
    20e8:	91340653 	teqls	r4, r3, asr r6

000020ec <l1981>:
    20ec:	e1350c52 	teq	r5, r2, asr ip

000020f0 <l1982>:
    20f0:	63b02b82 	movsvs	r2, #133120	; 0x20800

000020f4 <l1983>:
    20f4:	801a800b 	andshi	r8, sl, fp

000020f8 <l1984>:
    20f8:	e1f09001 	mvns	r9, r1

000020fc <l1985>:
    20fc:	9358090e 	cmpls	r8, #229376	; 0x38000

00002100 <l1986>:
    2100:	e1560002 	cmp	r6, r2

00002104 <l1987>:
    2104:	e9bd10dd 	ldmib	sp!, {r0, r2, r3, r4, r6, r7, ip}

00002108 <l1988>:
    2108:	e133000c 	teq	r3, ip

0000210c <l1989>:
    210c:	ea000004 	b	2124 <l1995>

00002110 <l1990>:
    2110:	e2801008 	add	r1, r0, #8

00002114 <l1991>:
    2114:	e3f0710f 	mvns	r7, #-1073741821	; 0xc0000003

00002118 <l1992>:
    2118:	11760689 	cmnne	r6, r9, lsl #13

0000211c <l1993>:
    211c:	e079c000 	rsbs	ip, r9, r0

00002120 <l1994>:
    2120:	ea000000 	b	2128 <l1996>

00002124 <l1995>:
    2124:	eafffffa 	b	2114 <l1991>

00002128 <l1996>:
    2128:	c03f8065 	eorsgt	r8, pc, r5, rrx

0000212c <l1997>:
    212c:	9a000005 	bls	2148 <l2004>

00002130 <l1998>:
    2130:	e28010b3 	add	r1, r0, #179	; 0xb3

00002134 <l1999>:
    2134:	e17b065e 	cmn	fp, lr, asr r6

00002138 <l2000>:
    2138:	904b1960 	subls	r1, fp, r0, ror #18

0000213c <l2001>:
    213c:	e13f000a 	teq	pc, sl

00002140 <l2002>:
    2140:	a1b0606a 	rrxsge	r6, sl

00002144 <l2003>:
    2144:	ea000000 	b	214c <l2005>

00002148 <l2004>:
    2148:	eafffff9 	b	2134 <l1999>

0000214c <l2005>:
    214c:	e16f2f19 	clz	r2, r9

00002150 <l2006>:
    2150:	93836c19 	orrls	r6, r3, #6400	; 0x1900

00002154 <l2007>:
    2154:	916f3f14 	clzls	r3, r4

00002158 <l2008>:
    2158:	d16f4f19 	clzle	r4, r9

0000215c <l2009>:
    215c:	e0db1005 	sbcs	r1, fp, r5

00002160 <l2010>:
    2160:	e2413e81 	sub	r3, r1, #2064	; 0x810

00002164 <l2011>:
    2164:	e17e0003 	cmn	lr, r3

00002168 <l2012>:
    2168:	e99d4800 	ldmib	sp, {fp, lr}

0000216c <l2013>:
    216c:	a0f9205a 	rscsge	r2, r9, sl, asr r0

00002170 <l2014>:
    2170:	e0dcb950 	sbcs	fp, ip, r0, asr r9

00002174 <l2015>:
    2174:	42940525 	addsmi	r0, r4, #155189248	; 0x9400000

00002178 <l2016>:
    2178:	72504925 	subsvc	r4, r0, #606208	; 0x94000

0000217c <l2017>:
    217c:	5a000001 	bpl	2188 <l2020>

00002180 <l2018>:
    2180:	31f0906e 	mvnscc	r9, lr, rrx

00002184 <l2019>:
    2184:	e1f05007 	mvns	r5, r7

00002188 <l2020>:
    2188:	e2a2ea2b 	adc	lr, r2, #176128	; 0x2b000

0000218c <l2021>:
    218c:	416f9f10 	clzmi	r9, r0

00002190 <l2022>:
    2190:	e8bd0004 	ldmfd	sp!, {r2}

00002194 <l2023>:
    2194:	b0b18b78 	adcslt	r8, r1, r8, ror fp

00002198 <l2024>:
    2198:	e8ad2000 	stmia	sp!, {sp}

0000219c <l2025>:
    219c:	e0a3158a 	adc	r1, r3, sl, lsl #11

000021a0 <l2026>:
    21a0:	e07f3003 	rsbs	r3, pc, r3

000021a4 <l2027>:
    21a4:	53170149 	tstpl	r7, #1073741842	; 0x40000012

000021a8 <l2028>:
    21a8:	33a0cbb5 	movcc	ip, #185344	; 0x2d400

000021ac <l2029>:
    21ac:	b3780001 	cmnlt	r8, #1

000021b0 <l2030>:
    21b0:	e1b04586 	lsls	r4, r6, #11

000021b4 <l2031>:
    21b4:	217c020f 	cmncs	ip, pc, lsl #4

000021b8 <l2032>:
    21b8:	b16f6f12 	clzlt	r6, r2

000021bc <l2033>:
    21bc:	70f8e001 	rscsvc	lr, r8, r1

000021c0 <l2034>:
    21c0:	5a000005 	bpl	21dc <l2041>

000021c4 <l2035>:
    21c4:	e2801034 	add	r1, r0, #52	; 0x34

000021c8 <l2036>:
    21c8:	e1f0500a 	mvns	r5, sl

000021cc <l2037>:
    21cc:	32286010 	eorcc	r6, r8, #16

000021d0 <l2038>:
    21d0:	61a03e80 	lslvs	r3, r0, #29

000021d4 <l2039>:
    21d4:	6053800b 	subsvs	r8, r3, fp

000021d8 <l2040>:
    21d8:	ea000000 	b	21e0 <l2042>

000021dc <l2041>:
    21dc:	eafffff9 	b	21c8 <l2036>

000021e0 <l2042>:
    21e0:	90e9e00f 	rscls	lr, r9, pc

000021e4 <l2043>:
    21e4:	53540a7d 	cmppl	r4, #512000	; 0x7d000

000021e8 <l2044>:
    21e8:	02cf5080 	sbceq	r5, pc, #128	; 0x80

000021ec <l2045>:
    21ec:	e06e14cb 	rsb	r1, lr, fp, asr #9

000021f0 <l2046>:
    21f0:	e1a00000 	nop			; (mov r0, r0)

000021f4 <l2047>:
    21f4:	821e98b6 	andshi	r9, lr, #11927552	; 0xb60000

000021f8 <l2048>:
    21f8:	e3a0a044 	mov	sl, #68	; 0x44

000021fc <l2049>:
    21fc:	c75d500a 	ldrbgt	r5, [sp, -sl]

00002200 <l2050>:
    2200:	80534002 	subshi	r4, r3, r2

00002204 <l2051>:
    2204:	e0644003 	rsb	r4, r4, r3

00002208 <l2052>:
    2208:	e1cb498b 	bic	r4, fp, fp, lsl #19

0000220c <l2053>:
    220c:	e5cdc001 	strb	ip, [sp, #1]

00002210 <l2054>:
    2210:	40d19006 	sbcsmi	r9, r1, r6

00002214 <l2055>:
    2214:	e0bb6004 	adcs	r6, fp, r4

00002218 <l2056>:
    2218:	e13a000c 	teq	sl, ip

0000221c <l2057>:
    221c:	e9bd0800 	ldmib	sp!, {fp}

00002220 <l2058>:
    2220:	aa000005 	bge	223c <l2065>

00002224 <l2059>:
    2224:	d0210341 	eorle	r0, r1, r1, asr #6

00002228 <l2060>:
    2228:	d1b0106a 	rrxsle	r1, sl

0000222c <l2061>:
    222c:	e1890415 	orr	r0, r9, r5, lsl r4

00002230 <l2062>:
    2230:	a1f0200a 	mvnsge	r2, sl

00002234 <l2063>:
    2234:	b07fa060 	rsbslt	sl, pc, r0, rrx

00002238 <l2064>:
    2238:	e114025a 	tst	r4, sl, asr r2

0000223c <l2065>:
    223c:	e16f5f1c 	clz	r5, ip

00002240 <l2066>:
    2240:	b16f7f1a 	clzlt	r7, sl

00002244 <l2067>:
    2244:	a056a535 	subsge	sl, r6, r5, lsr r5

00002248 <l2068>:
    2248:	a18b9a14 	orrge	r9, fp, r4, lsl sl

0000224c <l2069>:
    224c:	d00c3006 	andle	r3, ip, r6

00002250 <l2070>:
    2250:	b1d97000 	bicslt	r7, r9, r0

00002254 <l2071>:
    2254:	e2cca291 	sbc	sl, ip, #268435465	; 0x10000009

00002258 <l2072>:
    2258:	e16f7f1e 	clz	r7, lr

0000225c <l2073>:
    225c:	e036a004 	eors	sl, r6, r4

00002260 <l2074>:
    2260:	803e5547 	eorshi	r5, lr, r7, asr #10

00002264 <l2075>:
    2264:	30d96003 	sbcscc	r6, r9, r3

00002268 <l2076>:
    2268:	51a0e306 	lslpl	lr, r6, #6

0000226c <l2077>:
    226c:	e0f49007 	rscs	r9, r4, r7

00002270 <l2078>:
    2270:	60d2b00b 	sbcsvs	fp, r2, fp

00002274 <l2079>:
    2274:	e17a0656 	cmn	sl, r6, asr r6

00002278 <l2080>:
    2278:	11cb806a 	bicne	r8, fp, sl, rrx

0000227c <l2081>:
    227c:	4116000b 	tstmi	r6, fp

00002280 <l2082>:
    2280:	e088500c 	add	r5, r8, ip

00002284 <l2083>:
    2284:	413c0007 	teqmi	ip, r7

00002288 <l2084>:
    2288:	e1c69002 	bic	r9, r6, r2

0000228c <l2085>:
    228c:	533008a7 	teqpl	r0, #10944512	; 0xa70000

00002290 <l2086>:
    2290:	e11a0269 	tst	sl, r9, ror #4

00002294 <l2087>:
    2294:	402b4061 	eormi	r4, fp, r1, rrx

00002298 <l2088>:
    2298:	e1a0b116 	lsl	fp, r6, r1

0000229c <l2089>:
    229c:	30508b1b 	subscc	r8, r0, fp, lsl fp

000022a0 <l2090>:
    22a0:	b0574004 	subslt	r4, r7, r4

000022a4 <l2091>:
    22a4:	e0132215 	ands	r2, r3, r5, lsl r2

000022a8 <l2092>:
    22a8:	50e0a017 	rscpl	sl, r0, r7, lsl r0

000022ac <l2093>:
    22ac:	53f09437 	mvnspl	r9, #922746880	; 0x37000000

000022b0 <l2094>:
    22b0:	e5cd5001 	strb	r5, [sp, #1]

000022b4 <l2095>:
    22b4:	e236353b 	eors	r3, r6, #247463936	; 0xec00000

000022b8 <l2096>:
    22b8:	313a0009 	teqcc	sl, r9

000022bc <l2097>:
    22bc:	e1160065 	tst	r6, r5, rrx

000022c0 <l2098>:
    22c0:	61a06a87 	lslvs	r6, r7, #21

000022c4 <l2099>:
    22c4:	ea000005 	b	22e0 <l2106>

000022c8 <l2100>:
    22c8:	e2801044 	add	r1, r0, #68	; 0x44

000022cc <l2101>:
    22cc:	0017c06c 	andseq	ip, r7, ip, rrx

000022d0 <l2102>:
    22d0:	e1e0e00f 	mvn	lr, pc

000022d4 <l2103>:
    22d4:	40c27754 	sbcmi	r7, r2, r4, asr r7

000022d8 <l2104>:
    22d8:	e0521964 	subs	r1, r2, r4, ror #18

000022dc <l2105>:
    22dc:	ea000000 	b	22e4 <l2107>

000022e0 <l2106>:
    22e0:	eafffff9 	b	22cc <l2101>

000022e4 <l2107>:
    22e4:	7030a002 	eorsvc	sl, r0, r2

000022e8 <l2108>:
    22e8:	a0a5a3a1 	adcge	sl, r5, r1, lsr #7

000022ec <l2109>:
    22ec:	c151000a 	cmpgt	r1, sl

000022f0 <l2110>:
    22f0:	60a0a006 	adcvs	sl, r0, r6

000022f4 <l2111>:
    22f4:	e0107b34 	ands	r7, r0, r4, lsr fp

000022f8 <l2112>:
    22f8:	e0be2273 	adcs	r2, lr, r3, ror r2

000022fc <l2113>:
    22fc:	e11f0402 	tst	pc, r2, lsl #8

00002300 <l2114>:
    2300:	e1b09000 	movs	r9, r0

00002304 <l2115>:
    2304:	e3a0b034 	mov	fp, #52	; 0x34

00002308 <l2116>:
    2308:	575dc00b 	ldrbpl	ip, [sp, -fp]

0000230c <l2117>:
    230c:	01a0a005 	moveq	sl, r5

00002310 <l2118>:
    2310:	d18e9c31 	orrle	r9, lr, r1, lsr ip

00002314 <l2119>:
    2314:	e233c151 	eors	ip, r3, #1073741844	; 0x40000014

00002318 <l2120>:
    2318:	e246e025 	sub	lr, r6, #37	; 0x25

0000231c <l2121>:
    231c:	e0709e10 	rsbs	r9, r0, r0, lsl lr

00002320 <l2122>:
    2320:	9035e00a 	eorsls	lr, r5, sl

00002324 <l2123>:
    2324:	20d2423a 	sbcscs	r4, r2, sl, lsr r2

00002328 <l2124>:
    2328:	61b06a78 	rorsvs	r6, r8, sl

0000232c <l2125>:
    232c:	e0af4b09 	adc	r4, pc, r9, lsl #22

00002330 <l2126>:
    2330:	e3a03c35 	mov	r3, #13568	; 0x3500

00002334 <l2127>:
    2334:	a271c182 	rsbsge	ip, r1, #-2147483616	; 0x80000020

00002338 <l2128>:
    2338:	b2f7efeb 	rscslt	lr, r7, #940	; 0x3ac

0000233c <l2129>:
    233c:	e1a00000 	nop			; (mov r0, r0)

00002340 <l2130>:
    2340:	705cec28 	subsvc	lr, ip, r8, lsr #24

00002344 <l2131>:
    2344:	ea000002 	b	2354 <l2135>

00002348 <l2132>:
    2348:	e28010bf 	add	r1, r0, #191	; 0xbf

0000234c <l2133>:
    234c:	e16f7f18 	clz	r7, r8

00002350 <l2134>:
    2350:	ea000000 	b	2358 <l2136>

00002354 <l2135>:
    2354:	eafffffc 	b	234c <l2133>

00002358 <l2136>:
    2358:	8a000007 	bhi	237c <l2145>

0000235c <l2137>:
    235c:	e28010f9 	add	r1, r0, #249	; 0xf9

00002360 <l2138>:
    2360:	e0501064 	subs	r1, r0, r4, rrx

00002364 <l2139>:
    2364:	e16faf14 	clz	sl, r4

00002368 <l2140>:
    2368:	e28be08c 	add	lr, fp, #140	; 0x8c

0000236c <l2141>:
    236c:	d0e71a14 	rscle	r1, r7, r4, lsl sl

00002370 <l2142>:
    2370:	e0553154 	subs	r3, r5, r4, asr r1

00002374 <l2143>:
    2374:	a2c53922 	sbcge	r3, r5, #557056	; 0x88000

00002378 <l2144>:
    2378:	ea000000 	b	2380 <l2146>

0000237c <l2145>:
    237c:	eafffff7 	b	2360 <l2138>

00002380 <l2146>:
    2380:	e24752e6 	sub	r5, r7, #1610612750	; 0x6000000e

00002384 <l2147>:
    2384:	01e0e8a0 	mvneq	lr, r0, lsr #17

00002388 <l2148>:
    2388:	d11e0b38 	tstle	lr, r8, lsr fp

0000238c <l2149>:
    238c:	e16f0f1e 	clz	r0, lr

00002390 <l2150>:
    2390:	e2be7856 	adcs	r7, lr, #5636096	; 0x560000

00002394 <l2151>:
    2394:	e16fef15 	clz	lr, r5

00002398 <l2152>:
    2398:	816f2f1a 	clzhi	r2, sl

0000239c <l2153>:
    239c:	e82d2000 	stmda	sp!, {sp}

000023a0 <l2154>:
    23a0:	c1f00002 	mvnsgt	r0, r2

000023a4 <l2155>:
    23a4:	00f35002 	rscseq	r5, r3, r2

000023a8 <l2156>:
    23a8:	71740061 	cmnvc	r4, r1, rrx

000023ac <l2157>:
    23ac:	41700811 	cmnmi	r0, r1, lsl r8

000023b0 <l2158>:
    23b0:	a13b000e 	teqge	fp, lr

000023b4 <l2159>:
    23b4:	9082091a 	addls	r0, r2, sl, lsl r9

000023b8 <l2160>:
    23b8:	8a000005 	bhi	23d4 <l2167>

000023bc <l2161>:
    23bc:	e280102b 	add	r1, r0, #43	; 0x2b

000023c0 <l2162>:
    23c0:	41f0100c 	mvnsmi	r1, ip

000023c4 <l2163>:
    23c4:	115c000e 	cmpne	ip, lr

000023c8 <l2164>:
    23c8:	e3a06a37 	mov	r6, #225280	; 0x37000

000023cc <l2165>:
    23cc:	23a0b71a 	movcs	fp, #6815744	; 0x680000

000023d0 <l2166>:
    23d0:	ea000000 	b	23d8 <l2168>

000023d4 <l2167>:
    23d4:	eafffff9 	b	23c0 <l2162>

000023d8 <l2168>:
    23d8:	e1e08000 	mvn	r8, r0

000023dc <l2169>:
    23dc:	a1a03671 	rorge	r3, r1, r6

000023e0 <l2170>:
    23e0:	e055e001 	subs	lr, r5, r1

000023e4 <l2171>:
    23e4:	781d57ff 	ldmdavc	sp, {r0, r1, r2, r3, r4, r5, r6, r7, r8, r9, sl, ip, lr}

000023e8 <l2172>:
    23e8:	e3a0902c 	mov	r9, #44	; 0x2c

000023ec <l2173>:
    23ec:	e61d6009 	ldr	r6, [sp], -r9

000023f0 <l2174>:
    23f0:	92531599 	subsls	r1, r3, #641728512	; 0x26400000

000023f4 <l2175>:
    23f4:	e19936ce 	orrs	r3, r9, lr, asr #13

000023f8 <l2176>:
    23f8:	63cbb3f7 	bicvs	fp, fp, #-603979773	; 0xdc000003

000023fc <l2177>:
    23fc:	d1710618 	cmnle	r1, r8, lsl r6

00002400 <l2178>:
    2400:	e1a00000 	nop			; (mov r0, r0)

00002404 <l2179>:
    2404:	00e18679 	rsceq	r8, r1, r9, ror r6

00002408 <l2180>:
    2408:	e1e09062 	mvn	r9, r2, rrx

0000240c <l2181>:
    240c:	313a0008 	teqcc	sl, r8

00002410 <l2182>:
    2410:	e89d1922 	ldm	sp, {r1, r5, r8, fp, ip}

00002414 <l2183>:
    2414:	e0e07006 	rsc	r7, r0, r6

00002418 <l2184>:
    2418:	5008600c 	andpl	r6, r8, ip

0000241c <l2185>:
    241c:	40799cc7 	rsbsmi	r9, r9, r7, asr #25

00002420 <l2186>:
    2420:	e2e0b903 	rsc	fp, r0, #49152	; 0xc000

00002424 <l2187>:
    2424:	d3100662 	tstle	r0, #102760448	; 0x6200000

00002428 <l2188>:
    2428:	03c2390a 	biceq	r3, r2, #163840	; 0x28000

0000242c <l2189>:
    242c:	01944659 	orrseq	r4, r4, r9, asr r6

00002430 <l2190>:
    2430:	1117027a 	tstne	r7, sl, ror r2

00002434 <l2191>:
    2434:	aa000006 	bge	2454 <l2199>

00002438 <l2192>:
    2438:	929275cf 	addsls	r7, r2, #868220928	; 0x33c00000

0000243c <l2193>:
    243c:	a1170002 	tstge	r7, r2

00002440 <l2194>:
    2440:	509c4918 	addspl	r4, ip, r8, lsl r9

00002444 <l2195>:
    2444:	e05763a7 	subs	r6, r7, r7, lsr #7

00002448 <l2196>:
    2448:	b1c22a60 	biclt	r2, r2, r0, ror #20

0000244c <l2197>:
    244c:	e063a069 	rsb	sl, r3, r9, rrx

00002450 <l2198>:
    2450:	70a6312c 	adcvc	r3, r6, ip, lsr #2

00002454 <l2199>:
    2454:	e096c415 	adds	ip, r6, r5, lsl r4

00002458 <l2200>:
    2458:	3193506b 	orrscc	r5, r3, fp, rrx

0000245c <l2201>:
    245c:	da000004 	ble	2474 <l2207>

00002460 <l2202>:
    2460:	e16f0f11 	clz	r0, r1

00002464 <l2203>:
    2464:	b1370061 	teqlt	r7, r1, rrx

00002468 <l2204>:
    2468:	715e0068 	cmpvc	lr, r8, rrx

0000246c <l2205>:
    246c:	e3560562 	cmp	r6, #411041792	; 0x18800000

00002470 <l2206>:
    2470:	23f0372f 	mvnscs	r3, #12320768	; 0xbc0000

00002474 <l2207>:
    2474:	616f3f11 	clzvs	r3, r1

00002478 <l2208>:
    2478:	e1a00000 	nop			; (mov r0, r0)

0000247c <l2209>:
    247c:	e13c058f 	teq	ip, pc, lsl #11

00002480 <l2210>:
    2480:	e1390000 	teq	r9, r0

00002484 <l2211>:
    2484:	699d5092 	ldmibvs	sp, {r1, r4, r7, ip, lr}

00002488 <l2212>:
    2488:	da000005 	ble	24a4 <l2219>

0000248c <l2213>:
    248c:	e1110064 	tst	r1, r4, rrx

00002490 <l2214>:
    2490:	92c12adb 	sbcls	r2, r1, #897024	; 0xdb000

00002494 <l2215>:
    2494:	e11e0950 	tst	lr, r0, asr r9

00002498 <l2216>:
    2498:	e2d61038 	sbcs	r1, r6, #56	; 0x38

0000249c <l2217>:
    249c:	73901529 	orrsvc	r1, r0, #171966464	; 0xa400000

000024a0 <l2218>:
    24a0:	e0ca0002 	sbc	r0, sl, r2

000024a4 <l2219>:
    24a4:	b1989f6f 	orrslt	r9, r8, pc, ror #30

000024a8 <l2220>:
    24a8:	e17804e8 	cmn	r8, r8, ror #9

000024ac <l2221>:
    24ac:	e04a606f 	sub	r6, sl, pc, rrx

000024b0 <l2222>:
    24b0:	e1e0ba6e 	mvn	fp, lr, ror #20

000024b4 <l2223>:
    24b4:	52655ced 	rsbpl	r5, r5, #60672	; 0xed00

000024b8 <l2224>:
    24b8:	d89d5da4 	ldmle	sp, {r2, r5, r7, r8, sl, fp, ip, lr}

000024bc <l2225>:
    24bc:	e0f9ec26 	rscs	lr, r9, r6, lsr #24

000024c0 <l2226>:
    24c0:	e0ea4c49 	rsc	r4, sl, r9, asr #24

000024c4 <l2227>:
    24c4:	9020bb74 	eorls	fp, r0, r4, ror fp

000024c8 <l2228>:
    24c8:	e3a0b018 	mov	fp, #24

000024cc <l2229>:
    24cc:	d70db00b 	strle	fp, [sp, -fp]

000024d0 <l2230>:
    24d0:	2043600a 	subcs	r6, r3, sl

000024d4 <l2231>:
    24d4:	e3a0b014 	mov	fp, #20

000024d8 <l2232>:
    24d8:	e72df00b 	str	pc, [sp, -fp]!

000024dc <l2233>:
    24dc:	e0e0b513 	rsc	fp, r0, r3, lsl r5

000024e0 <l2234>:
    24e0:	72e0018f 	rscvc	r0, r0, #-1073741789	; 0xc0000023

000024e4 <l2235>:
    24e4:	d16f5f13 	clzle	r5, r3

000024e8 <l2236>:
    24e8:	a1530006 	cmpge	r3, r6

000024ec <l2237>:
    24ec:	818ebd4a 	orrhi	fp, lr, sl, asr #26

000024f0 <l2238>:
    24f0:	e1e0ba73 	mvn	fp, r3, ror sl

000024f4 <l2239>:
    24f4:	216faf11 	clzcs	sl, r1

000024f8 <l2240>:
    24f8:	00895062 	addeq	r5, r9, r2, rrx

000024fc <l2241>:
    24fc:	504f5060 	subpl	r5, pc, r0, rrx

00002500 <l2242>:
    2500:	8046683e 	subhi	r6, r6, lr, lsr r8

00002504 <l2243>:
    2504:	e9ade000 	stmib	sp!, {sp, lr, pc}

00002508 <l2244>:
    2508:	a336062e 	teqge	r6, #48234496	; 0x2e00000

0000250c <l2245>:
    250c:	6265a907 	rsbvs	sl, r5, #114688	; 0x1c000

00002510 <l2246>:
    2510:	9a000005 	bls	252c <l2253>

00002514 <l2247>:
    2514:	e280100e 	add	r1, r0, #14

00002518 <l2248>:
    2518:	71e06003 	mvnvc	r6, r3

0000251c <l2249>:
    251c:	71b0461b 	lslsvc	r4, fp, r6

00002520 <l2250>:
    2520:	e16fcf1c 	clz	ip, ip

00002524 <l2251>:
    2524:	429b2f93 	addsmi	r2, fp, #588	; 0x24c

00002528 <l2252>:
    2528:	ea000000 	b	2530 <l2254>

0000252c <l2253>:
    252c:	eafffff9 	b	2518 <l2248>

00002530 <l2254>:
    2530:	e0b1e000 	adcs	lr, r1, r0

00002534 <l2255>:
    2534:	6197a853 	orrsvs	sl, r7, r3, asr r8

00002538 <l2256>:
    2538:	c1c3ae55 	bicgt	sl, r3, r5, asr lr

0000253c <l2257>:
    253c:	e2582e87 	subs	r2, r8, #2160	; 0x870

00002540 <l2258>:
    2540:	e98d57ad 	stmib	sp, {r0, r2, r3, r5, r7, r8, r9, sl, ip, lr}

00002544 <l2259>:
    2544:	235707eb 	cmpcs	r7, #61603840	; 0x3ac0000

00002548 <l2260>:
    2548:	e1f02936 	mvns	r2, r6, lsr r9

0000254c <l2261>:
    254c:	802f076e 	eorhi	r0, pc, lr, ror #14

00002550 <l2262>:
    2550:	e16f6f11 	clz	r6, r1

00002554 <l2263>:
    2554:	e002800b 	and	r8, r2, fp

00002558 <l2264>:
    2558:	e05f800a 	subs	r8, pc, sl

0000255c <l2265>:
    255c:	738a9173 	orrvc	r9, sl, #-1073741796	; 0xc000001c

00002560 <l2266>:
    2560:	e1dc3913 	bics	r3, ip, r3, lsl r9

00002564 <l2267>:
    2564:	207b7006 	rsbscs	r7, fp, r6

00002568 <l2268>:
    2568:	e29eec7f 	adds	lr, lr, #32512	; 0x7f00

0000256c <l2269>:
    256c:	a186a44e 	orrge	sl, r6, lr, asr #8

00002570 <l2270>:
    2570:	616fef11 	clzvs	lr, r1

00002574 <l2271>:
    2574:	e08b9008 	add	r9, fp, r8

00002578 <l2272>:
    2578:	513e0061 	teqpl	lr, r1, rrx

0000257c <l2273>:
    257c:	ea000004 	b	2594 <l2279>

00002580 <l2274>:
    2580:	e280104b 	add	r1, r0, #75	; 0x4b

00002584 <l2275>:
    2584:	6174064e 	cmnvs	r4, lr, asr #12

00002588 <l2276>:
    2588:	e1d05004 	bics	r5, r0, r4

0000258c <l2277>:
    258c:	e0d17007 	sbcs	r7, r1, r7

00002590 <l2278>:
    2590:	ea000000 	b	2598 <l2280>

00002594 <l2279>:
    2594:	eafffffa 	b	2584 <l2275>

00002598 <l2280>:
    2598:	815907ec 	cmphi	r9, ip, ror #15

0000259c <l2281>:
    259c:	e0ace068 	adc	lr, ip, r8, rrx

000025a0 <l2282>:
    25a0:	d91d0800 	ldmdble	sp, {fp}

000025a4 <l2283>:
    25a4:	d1310b51 	teqle	r1, r1, asr fp

000025a8 <l2284>:
    25a8:	e91d0200 	ldmdb	sp, {r9}

000025ac <l2285>:
    25ac:	716fcf10 	clzvc	ip, r0

000025b0 <l2286>:
    25b0:	30768002 	rsbscc	r8, r6, r2

000025b4 <l2287>:
    25b4:	ba000002 	blt	25c4 <l2291>

000025b8 <l2288>:
    25b8:	e2801014 	add	r1, r0, #20

000025bc <l2289>:
    25bc:	e034e750 	eors	lr, r4, r0, asr r7

000025c0 <l2290>:
    25c0:	ea000000 	b	25c8 <l2292>

000025c4 <l2291>:
    25c4:	eafffffc 	b	25bc <l2289>

000025c8 <l2292>:
    25c8:	ea000000 	b	25d0 <l2294>

000025cc <l2293>:
    25cc:	a3310335 	teqge	r1, #-738197504	; 0xd4000000

000025d0 <l2294>:
    25d0:	71140008 	tstvc	r4, r8

000025d4 <l2295>:
    25d4:	000558ee 	andeq	r5, r5, lr, ror #17

000025d8 <l2296>:
    25d8:	4063a557 	rsbmi	sl, r3, r7, asr r5

000025dc <l2297>:
    25dc:	035b0842 	cmpeq	fp, #4325376	; 0x420000

000025e0 <l2298>:
    25e0:	d16f4f19 	clzle	r4, r9

000025e4 <l2299>:
    25e4:	2041900e 	subcs	r9, r1, lr

000025e8 <l2300>:
    25e8:	e0e6a00c 	rsc	sl, r6, ip

000025ec <l2301>:
    25ec:	93f0e7a5 	mvnsls	lr, #43253760	; 0x2940000

000025f0 <l2302>:
    25f0:	30caed08 	sbccc	lr, sl, r8, lsl #26

000025f4 <l2303>:
    25f4:	aa000004 	bge	260c <l2309>

000025f8 <l2304>:
    25f8:	e28010d3 	add	r1, r0, #211	; 0xd3

000025fc <l2305>:
    25fc:	43d659f2 	bicsmi	r5, r6, #3964928	; 0x3c8000

00002600 <l2306>:
    2600:	a0a8bd89 	adcge	fp, r8, r9, lsl #27

00002604 <l2307>:
    2604:	e110006e 	tst	r0, lr, rrx

00002608 <l2308>:
    2608:	ea000000 	b	2610 <l2310>

0000260c <l2309>:
    260c:	eafffffa 	b	25fc <l2305>

00002610 <l2310>:
    2610:	e13e000c 	teq	lr, ip

00002614 <l2311>:
    2614:	e038e000 	eors	lr, r8, r0

00002618 <l2312>:
    2618:	e1540066 	cmp	r4, r6, rrx

0000261c <l2313>:
    261c:	40575fe4 	subsmi	r5, r7, r4, ror #31

00002620 <l2314>:
    2620:	e00b9e51 	and	r9, fp, r1, asr lr

00002624 <l2315>:
    2624:	a1f08002 	mvnsge	r8, r2

00002628 <l2316>:
    2628:	a19b88e9 	orrsge	r8, fp, r9, ror #17

0000262c <l2317>:
    262c:	ba000002 	blt	263c <l2321>

00002630 <l2318>:
    2630:	e28010d5 	add	r1, r0, #213	; 0xd5

00002634 <l2319>:
    2634:	e1360273 	teq	r6, r3, ror r2

00002638 <l2320>:
    2638:	ea000000 	b	2640 <l2322>

0000263c <l2321>:
    263c:	eafffffc 	b	2634 <l2319>

00002640 <l2322>:
    2640:	9a000000 	bls	2648 <l2324>

00002644 <l2323>:
    2644:	e25a096a 	subs	r0, sl, #1736704	; 0x1a8000

00002648 <l2324>:
    2648:	80aa5065 	adchi	r5, sl, r5, rrx

0000264c <l2325>:
    264c:	e1839061 	orr	r9, r3, r1, rrx

00002650 <l2326>:
    2650:	81520000 	cmphi	r2, r0

00002654 <l2327>:
    2654:	115b030e 	cmpne	fp, lr, lsl #6

00002658 <l2328>:
    2658:	523ab33e 	eorspl	fp, sl, #-134217728	; 0xf8000000

0000265c <l2329>:
    265c:	ca000005 	bgt	2678 <l2336>

00002660 <l2330>:
    2660:	e28010cb 	add	r1, r0, #203	; 0xcb

00002664 <l2331>:
    2664:	e3a0186b 	mov	r1, #7012352	; 0x6b0000

00002668 <l2332>:
    2668:	e0b75370 	adcs	r5, r7, r0, ror r3

0000266c <l2333>:
    266c:	62400406 	subvs	r0, r0, #100663296	; 0x6000000

00002670 <l2334>:
    2670:	53a029fa 	movpl	r2, #4096000	; 0x3e8000

00002674 <l2335>:
    2674:	ea000000 	b	267c <l2337>

00002678 <l2336>:
    2678:	eafffff9 	b	2664 <l2331>

0000267c <l2337>:
    267c:	d041c3ca 	suble	ip, r1, sl, asr #7

00002680 <l2338>:
    2680:	e0763781 	rsbs	r3, r6, r1, lsl #15

00002684 <l2339>:
    2684:	b1cbb005 	biclt	fp, fp, r5

00002688 <l2340>:
    2688:	e0350415 	eors	r0, r5, r5, lsl r4

0000268c <l2341>:
    268c:	e0572008 	subs	r2, r7, r8

00002690 <l2342>:
    2690:	e3a02008 	mov	r2, #8

00002694 <l2343>:
    2694:	e70d3002 	str	r3, [sp, -r2]

00002698 <l2344>:
    2698:	40181416 	andsmi	r1, r8, r6, lsl r4

0000269c <l2345>:
    269c:	e15c0006 	cmp	ip, r6

000026a0 <l2346>:
    26a0:	c0bea00f 	adcsgt	sl, lr, pc

000026a4 <l2347>:
    26a4:	23180956 	tstcs	r8, #1409024	; 0x158000

000026a8 <l2348>:
    26a8:	698ddff7 	stmibvs	sp, {r0, r1, r2, r4, r5, r6, r7, r8, r9, sl, fp, ip, lr, pc}

000026ac <l2349>:
    26ac:	e93d0028 	ldmdb	sp!, {r3, r5}

000026b0 <l2350>:
    26b0:	e1120000 	tst	r2, r0

000026b4 <l2351>:
    26b4:	316f7f13 	clzcc	r7, r3

000026b8 <l2352>:
    26b8:	e1c8c064 	bic	ip, r8, r4, rrx

000026bc <l2353>:
    26bc:	21c40833 	biccs	r0, r4, r3, lsr r8

000026c0 <l2354>:
    26c0:	e0e88019 	rsc	r8, r8, r9, lsl r0

000026c4 <l2355>:
    26c4:	e043300e 	sub	r3, r3, lr

000026c8 <l2356>:
    26c8:	e16f8f1a 	clz	r8, sl

000026cc <l2357>:
    26cc:	815a000f 	cmphi	sl, pc

000026d0 <l2358>:
    26d0:	329a4d69 	addscc	r4, sl, #6720	; 0x1a40

000026d4 <l2359>:
    26d4:	ea000007 	b	26f8 <l2368>

000026d8 <l2360>:
    26d8:	e280107f 	add	r1, r0, #127	; 0x7f

000026dc <l2361>:
    26dc:	e391624f 	orrs	r6, r1, #-268435452	; 0xf0000004

000026e0 <l2362>:
    26e0:	10c54071 	sbcne	r4, r5, r1, ror r0

000026e4 <l2363>:
    26e4:	e3b050ce 	movs	r5, #206	; 0xce

000026e8 <l2364>:
    26e8:	31f0022a 	mvnscc	r0, sl, lsr #4

000026ec <l2365>:
    26ec:	40bc8061 	adcsmi	r8, ip, r1, rrx

000026f0 <l2366>:
    26f0:	81a02e36 	lsrhi	r2, r6, lr

000026f4 <l2367>:
    26f4:	ea000000 	b	26fc <l2369>

000026f8 <l2368>:
    26f8:	eafffff7 	b	26dc <l2361>

000026fc <l2369>:
    26fc:	018312a8 	orreq	r1, r3, r8, lsr #5

00002700 <l2370>:
    2700:	43b05701 	movsmi	r5, #262144	; 0x40000

00002704 <l2371>:
    2704:	e00be357 	and	lr, fp, r7, asr r3

00002708 <l2372>:
    2708:	e0bc816f 	adcs	r8, ip, pc, ror #2

0000270c <l2373>:
    270c:	216f9f19 	clzcs	r9, r9

00002710 <l2374>:
    2710:	c118000a 	tstgt	r8, sl

00002714 <l2375>:
    2714:	21f0300c 	mvnscs	r3, ip

00002718 <l2376>:
    2718:	535a0f8e 	cmppl	sl, #568	; 0x238

0000271c <l2377>:
    271c:	c37b00b5 	cmngt	fp, #181	; 0xb5

00002720 <l2378>:
    2720:	388d0382 	stmcc	sp, {r1, r7, r8, r9}

00002724 <l2379>:
    2724:	107ae068 	rsbsne	lr, sl, r8, rrx

00002728 <l2380>:
    2728:	e16f5f1c 	clz	r5, ip

0000272c <l2381>:
    272c:	e1330178 	teq	r3, r8, ror r1

00002730 <l2382>:
    2730:	d0c7b065 	sbcle	fp, r7, r5, rrx

00002734 <l2383>:
    2734:	0052a959 	subseq	sl, r2, r9, asr r9

00002738 <l2384>:
    2738:	81500009 	cmphi	r0, r9

0000273c <l2385>:
    273c:	e2366e9a 	eors	r6, r6, #2464	; 0x9a0

00002740 <l2386>:
    2740:	e0f8e069 	rscs	lr, r8, r9, rrx

00002744 <l2387>:
    2744:	403fa0ce 	eorsmi	sl, pc, lr, asr #1

00002748 <l2388>:
    2748:	ea000001 	b	2754 <l2391>

0000274c <l2389>:
    274c:	e1f0cb10 	mvns	ip, r0, lsl fp

00002750 <l2390>:
    2750:	e0a34005 	adc	r4, r3, r5

00002754 <l2391>:
    2754:	91d14006 	bicsls	r4, r1, r6

00002758 <l2392>:
    2758:	e1350007 	teq	r5, r7

0000275c <l2393>:
    275c:	e37900f1 	cmn	r9, #241	; 0xf1

00002760 <l2394>:
    2760:	d01467c9 	andsle	r6, r4, r9, asr #15

00002764 <l2395>:
    2764:	a1b08005 	movsge	r8, r5

00002768 <l2396>:
    2768:	e198c685 	orrs	ip, r8, r5, lsl #13

0000276c <l2397>:
    276c:	b09f5968 	addslt	r5, pc, r8, ror #18

00002770 <l2398>:
    2770:	016f2f18 	clzeq	r2, r8

00002774 <l2399>:
    2774:	e11f0ae1 	tst	pc, r1, ror #21

00002778 <l2400>:
    2778:	ca000002 	bgt	2788 <l2404>

0000277c <l2401>:
    277c:	e2801020 	add	r1, r0, #32

00002780 <l2402>:
    2780:	70c85008 	sbcvc	r5, r8, r8

00002784 <l2403>:
    2784:	ea000000 	b	278c <l2405>

00002788 <l2404>:
    2788:	eafffffc 	b	2780 <l2402>

0000278c <l2405>:
    278c:	e0b42008 	adcs	r2, r4, r8

00002790 <l2406>:
    2790:	222714f9 	eorcs	r1, r7, #-117440512	; 0xf9000000

00002794 <l2407>:
    2794:	e11b0faa 	tst	fp, sl, lsr #31

00002798 <l2408>:
    2798:	e043e828 	sub	lr, r3, r8, lsr #16

0000279c <l2409>:
    279c:	e1f0b00a 	mvns	fp, sl

000027a0 <l2410>:
    27a0:	e1a00000 	nop			; (mov r0, r0)

000027a4 <l2411>:
    27a4:	e094b532 	adds	fp, r4, r2, lsr r5

000027a8 <l2412>:
    27a8:	e0027c4b 	and	r7, r2, fp, asr #24

000027ac <l2413>:
    27ac:	903b200f 	eorsls	r2, fp, pc

000027b0 <l2414>:
    27b0:	4192e006 	orrsmi	lr, r2, r6

000027b4 <l2415>:
    27b4:	75ddc01c 	ldrbvc	ip, [sp, #28]

000027b8 <l2416>:
    27b8:	e05c6061 	subs	r6, ip, r1, rrx

000027bc <l2417>:
    27bc:	e3a04024 	mov	r4, #36	; 0x24

000027c0 <l2418>:
    27c0:	278de004 	strcs	lr, [sp, r4]

000027c4 <l2419>:
    27c4:	ea000005 	b	27e0 <l2426>

000027c8 <l2420>:
    27c8:	e2801007 	add	r1, r0, #7

000027cc <l2421>:
    27cc:	e0da300c 	sbcs	r3, sl, ip

000027d0 <l2422>:
    27d0:	916f2f10 	clzls	r2, r0

000027d4 <l2423>:
    27d4:	e16f5f1a 	clz	r5, sl

000027d8 <l2424>:
    27d8:	e1e05374 	mvn	r5, r4, ror r3

000027dc <l2425>:
    27dc:	ea000000 	b	27e4 <l2427>

000027e0 <l2426>:
    27e0:	eafffff9 	b	27cc <l2421>

000027e4 <l2427>:
    27e4:	e19c7a77 	orrs	r7, ip, r7, ror sl

000027e8 <l2428>:
    27e8:	e3a0a038 	mov	sl, #56	; 0x38

000027ec <l2429>:
    27ec:	d78d700a 	strle	r7, [sp, sl]

000027f0 <l2430>:
    27f0:	ea000005 	b	280c <l2437>

000027f4 <l2431>:
    27f4:	e2801024 	add	r1, r0, #36	; 0x24

000027f8 <l2432>:
    27f8:	e0519006 	subs	r9, r1, r6

000027fc <l2433>:
    27fc:	e1530064 	cmp	r3, r4, rrx

00002800 <l2434>:
    2800:	e1580728 	cmp	r8, r8, lsr #14

00002804 <l2435>:
    2804:	e0069410 	and	r9, r6, r0, lsl r4

00002808 <l2436>:
    2808:	ea000000 	b	2810 <l2438>

0000280c <l2437>:
    280c:	eafffff9 	b	27f8 <l2432>

00002810 <l2438>:
    2810:	ea000001 	b	281c <l2441>

00002814 <l2439>:
    2814:	d2d7e3f6 	sbcsle	lr, r7, #-671088637	; 0xd8000003

00002818 <l2440>:
    2818:	5153000c 	cmppl	r3, ip

0000281c <l2441>:
    281c:	33b0a432 	movscc	sl, #838860800	; 0x32000000

00002820 <l2442>:
    2820:	e0086870 	and	r6, r8, r0, ror r8

00002824 <l2443>:
    2824:	90004830 	andls	r4, r0, r0, lsr r8

00002828 <l2444>:
    2828:	717a0639 	cmnvc	sl, r9, lsr r6

0000282c <l2445>:
    282c:	51340004 	teqpl	r4, r4

00002830 <l2446>:
    2830:	9091e066 	addsls	lr, r1, r6, rrx

00002834 <l2447>:
    2834:	e38eb102 	orr	fp, lr, #-2147483648	; 0x80000000

00002838 <l2448>:
    2838:	e1130c30 	tst	r3, r0, lsr ip

0000283c <l2449>:
    283c:	5001a03e 	andpl	sl, r1, lr, lsr r0

00002840 <l2450>:
    2840:	e1f09065 	mvns	r9, r5, rrx

00002844 <l2451>:
    2844:	231e071e 	tstcs	lr, #7864320	; 0x780000

00002848 <l2452>:
    2848:	a0031013 	andge	r1, r3, r3, lsl r0

0000284c <l2453>:
    284c:	e5cdc032 	strb	ip, [sp, #50]	; 0x32

00002850 <l2454>:
    2850:	ca000003 	bgt	2864 <l2459>

00002854 <l2455>:
    2854:	e2801012 	add	r1, r0, #18

00002858 <l2456>:
    2858:	80550063 	subshi	r0, r5, r3, rrx

0000285c <l2457>:
    285c:	e06f500e 	rsb	r5, pc, lr

00002860 <l2458>:
    2860:	ea000000 	b	2868 <l2460>

00002864 <l2459>:
    2864:	eafffffb 	b	2858 <l2456>

00002868 <l2460>:
    2868:	116fbf19 	clzne	fp, r9

0000286c <l2461>:
    286c:	e0da8915 	sbcs	r8, sl, r5, lsl r9

00002870 <l2462>:
    2870:	51948073 	orrspl	r8, r4, r3, ror r0

00002874 <l2463>:
    2874:	c1a0886e 	rorgt	r8, lr, #16

00002878 <l2464>:
    2878:	e1780932 	cmn	r8, r2, lsr r9

0000287c <l2465>:
    287c:	e19b9bec 	orrs	r9, fp, ip, ror #23

00002880 <l2466>:
    2880:	ba000004 	blt	2898 <l2472>

00002884 <l2467>:
    2884:	e0988002 	adds	r8, r8, r2

00002888 <l2468>:
    2888:	300b8064 	andcc	r8, fp, r4, rrx

0000288c <l2469>:
    288c:	8065b912 	rsbhi	fp, r5, r2, lsl r9

00002890 <l2470>:
    2890:	e1c2a00a 	bic	sl, r2, sl

00002894 <l2471>:
    2894:	604b7553 	subvs	r7, fp, r3, asr r5

00002898 <l2472>:
    2898:	12477939 	subne	r7, r7, #933888	; 0xe4000

0000289c <l2473>:
    289c:	e057c383 	subs	ip, r7, r3, lsl #7

000028a0 <l2474>:
    28a0:	d1700064 	cmnle	r0, r4, rrx

000028a4 <l2475>:
    28a4:	11c38004 	bicne	r8, r3, r4

000028a8 <l2476>:
    28a8:	21844003 	orrcs	r4, r4, r3

000028ac <l2477>:
    28ac:	e3a06014 	mov	r6, #20

000028b0 <l2478>:
    28b0:	e68da006 	str	sl, [sp], r6

000028b4 <l2479>:
    28b4:	e1340003 	teq	r4, r3

000028b8 <l2480>:
    28b8:	e3390b72 	teq	r9, #116736	; 0x1c800

000028bc <l2481>:
    28bc:	80322270 	eorshi	r2, r2, r0, ror r2

000028c0 <l2482>:
    28c0:	e5dd9027 	ldrb	r9, [sp, #39]	; 0x27

000028c4 <l2483>:
    28c4:	10742008 	rsbsne	r2, r4, r8

000028c8 <l2484>:
    28c8:	e1c72e2c 	bic	r2, r7, ip, lsr #28

000028cc <l2485>:
    28cc:	a21e0943 	andsge	r0, lr, #1097728	; 0x10c000

000028d0 <l2486>:
    28d0:	50dbc004 	sbcspl	ip, fp, r4

000028d4 <l2487>:
    28d4:	e0495302 	sub	r5, r9, r2, lsl #6

000028d8 <l2488>:
    28d8:	e003ef80 	and	lr, r3, r0, lsl #31

000028dc <l2489>:
    28dc:	e5cd600a 	strb	r6, [sp, #10]

000028e0 <l2490>:
    28e0:	e0900071 	adds	r0, r0, r1, ror r0

000028e4 <l2491>:
    28e4:	ea000008 	b	290c <l2501>

000028e8 <l2492>:
    28e8:	2049c00e 	subcs	ip, r9, lr

000028ec <l2493>:
    28ec:	e0c84001 	sbc	r4, r8, r1

000028f0 <l2494>:
    28f0:	216f1f10 	clzcs	r1, r0

000028f4 <l2495>:
    28f4:	e2fe8782 	rscs	r8, lr, #34078720	; 0x2080000

000028f8 <l2496>:
    28f8:	60f0100e 	rscsvs	r1, r0, lr

000028fc <l2497>:
    28fc:	707e9060 	rsbsvc	r9, lr, r0, rrx

00002900 <l2498>:
    2900:	31550060 	cmpcc	r5, r0, rrx

00002904 <l2499>:
    2904:	016f2f15 	clzeq	r2, r5

00002908 <l2500>:
    2908:	6044c009 	subvs	ip, r4, r9

0000290c <l2501>:
    290c:	6199e00a 	orrsvs	lr, r9, sl

00002910 <l2502>:
    2910:	e40de014 	str	lr, [sp], #-20

00002914 <l2503>:
    2914:	616f5f12 	clzvs	r5, r2

00002918 <l2504>:
    2918:	e9bd0bad 	ldmib	sp!, {r0, r2, r3, r5, r7, r8, r9, fp}

0000291c <l2505>:
    291c:	7a000004 	bvc	2934 <l2511>

00002920 <l2506>:
    2920:	31a0e009 	movcc	lr, r9

00002924 <l2507>:
    2924:	01f00008 	mvnseq	r0, r8

00002928 <l2508>:
    2928:	61a019cb 	asrvs	r1, fp, #19

0000292c <l2509>:
    292c:	c1110e24 	tstgt	r1, r4, lsr #28

00002930 <l2510>:
    2930:	0159006c 	cmpeq	r9, ip, rrx

00002934 <l2511>:
    2934:	339b7dd2 	orrscc	r7, fp, #13440	; 0x3480

00002938 <l2512>:
    2938:	e27b4a53 	rsbs	r4, fp, #339968	; 0x53000

0000293c <l2513>:
    293c:	e0367003 	eors	r7, r6, r3

00002940 <l2514>:
    2940:	91e04003 	mvnls	r4, r3

00002944 <l2515>:
    2944:	e3a02004 	mov	r2, #4

00002948 <l2516>:
    2948:	e7bd6002 	ldr	r6, [sp, r2]!

0000294c <l2517>:
    294c:	60563067 	subsvs	r3, r6, r7, rrx

00002950 <l2518>:
    2950:	e0f2ee64 	rscs	lr, r2, r4, ror #28

00002954 <l2519>:
    2954:	e057100b 	subs	r1, r7, fp

00002958 <l2520>:
    2958:	811b0954 	tsthi	fp, r4, asr r9

0000295c <l2521>:
    295c:	13190702 	tstne	r9, #524288	; 0x80000

00002960 <l2522>:
    2960:	e08e0e37 	add	r0, lr, r7, lsr lr

00002964 <l2523>:
    2964:	e0687214 	rsb	r7, r8, r4, lsl r2

00002968 <l2524>:
    2968:	80808277 	addhi	r8, r0, r7, ror r2

0000296c <l2525>:
    296c:	e3a06016 	mov	r6, #22

00002970 <l2526>:
    2970:	e75d9006 	ldrb	r9, [sp, -r6]

00002974 <l2527>:
    2974:	e3a0a018 	mov	sl, #24

00002978 <l2528>:
    2978:	e73de00a 	ldr	lr, [sp, -sl]!

0000297c <l2529>:
    297c:	e1e098ce 	mvn	r9, lr, asr #17

00002980 <l2530>:
    2980:	429fc251 	addsmi	ip, pc, #268435461	; 0x10000005

00002984 <l2531>:
    2984:	c02849cf 	eorgt	r4, r8, pc, asr #19

00002988 <l2532>:
    2988:	6022103e 	eorvs	r1, r2, lr, lsr r0

0000298c <l2533>:
    298c:	e17c0065 	cmn	ip, r5, rrx

00002990 <l2534>:
    2990:	91cf4002 	bicls	r4, pc, r2

00002994 <l2535>:
    2994:	e06e031c 	rsb	r0, lr, ip, lsl r3

00002998 <l2536>:
    2998:	e3740aaf 	cmn	r4, #716800	; 0xaf000

0000299c <l2537>:
    299c:	e0523000 	subs	r3, r2, r0

000029a0 <l2538>:
    29a0:	0a000007 	beq	29c4 <l2547>

000029a4 <l2539>:
    29a4:	e28010de 	add	r1, r0, #222	; 0xde

000029a8 <l2540>:
    29a8:	231b0d06 	tstcs	fp, #384	; 0x180

000029ac <l2541>:
    29ac:	e043c065 	sub	ip, r3, r5, rrx

000029b0 <l2542>:
    29b0:	00bfb002 	adcseq	fp, pc, r2

000029b4 <l2543>:
    29b4:	915905e4 	cmpls	r9, r4, ror #11

000029b8 <l2544>:
    29b8:	40062670 	andmi	r2, r6, r0, ror r6

000029bc <l2545>:
    29bc:	e2875d0d 	add	r5, r7, #832	; 0x340

000029c0 <l2546>:
    29c0:	ea000000 	b	29c8 <l2548>

000029c4 <l2547>:
    29c4:	eafffff7 	b	29a8 <l2540>

000029c8 <l2548>:
    29c8:	e0a3013b 	adc	r0, r3, fp, lsr r1

000029cc <l2549>:
    29cc:	22932621 	addscs	r2, r3, #34603008	; 0x2100000

000029d0 <l2550>:
    29d0:	e48d500c 	str	r5, [sp], #12

000029d4 <l2551>:
    29d4:	ea000002 	b	29e4 <l2555>

000029d8 <l2552>:
    29d8:	e1a04065 	rrx	r4, r5

000029dc <l2553>:
    29dc:	a0964626 	addsge	r4, r6, r6, lsr #12

000029e0 <l2554>:
    29e0:	b16faf13 	clzlt	sl, r3

000029e4 <l2555>:
    29e4:	91310e89 	teqls	r1, r9, lsl #29

000029e8 <l2556>:
    29e8:	3152000b 	cmpcc	r2, fp

000029ec <l2557>:
    29ec:	e2ec243a 	rsc	r2, ip, #973078528	; 0x3a000000

000029f0 <l2558>:
    29f0:	a0555000 	subsge	r5, r5, r0

000029f4 <l2559>:
    29f4:	604a8fea 	subvs	r8, sl, sl, ror #31

000029f8 <l2560>:
    29f8:	90df200c 	sbcsls	r2, pc, ip

000029fc <l2561>:
    29fc:	b3a09aeb 	movlt	r9, #962560	; 0xeb000

00002a00 <l2562>:
    2a00:	e190b847 	orrs	fp, r0, r7, asr #16

00002a04 <l2563>:
    2a04:	4045400e 	submi	r4, r5, lr

00002a08 <l2564>:
    2a08:	e8bd0811 	pop	{r0, r4, fp}

00002a0c <l2565>:
    2a0c:	e29394eb 	adds	r9, r3, #-352321536	; 0xeb000000

00002a10 <l2566>:
    2a10:	ea000007 	b	2a34 <l2575>

00002a14 <l2567>:
    2a14:	e2801045 	add	r1, r0, #69	; 0x45

00002a18 <l2568>:
    2a18:	3132042a 	teqcc	r2, sl, lsr #8

00002a1c <l2569>:
    2a1c:	5016b217 	andspl	fp, r6, r7, lsl r2

00002a20 <l2570>:
    2a20:	c11b0006 	tstgt	fp, r6

00002a24 <l2571>:
    2a24:	d1b02063 	rrxsle	r2, r3

00002a28 <l2572>:
    2a28:	23160e57 	tstcs	r6, #1392	; 0x570

00002a2c <l2573>:
    2a2c:	e0a2153c 	adc	r1, r2, ip, lsr r5

00002a30 <l2574>:
    2a30:	ea000000 	b	2a38 <l2576>

00002a34 <l2575>:
    2a34:	eafffff7 	b	2a18 <l2568>

00002a38 <l2576>:
    2a38:	c2a58a2d 	adcgt	r8, r5, #184320	; 0x2d000

00002a3c <l2577>:
    2a3c:	c134057e 	teqgt	r4, lr, ror r5

00002a40 <l2578>:
    2a40:	41760075 	cmnmi	r6, r5, ror r0

00002a44 <l2579>:
    2a44:	e88d9001 	stm	sp, {r0, ip, pc}

00002a48 <l2580>:
    2a48:	7a000007 	bvc	2a6c <l2589>

00002a4c <l2581>:
    2a4c:	51170667 	tstpl	r7, r7, ror #12

00002a50 <l2582>:
    2a50:	e1e0e00f 	mvn	lr, pc

00002a54 <l2583>:
    2a54:	20e24134 	rsccs	r4, r2, r4, lsr r1

00002a58 <l2584>:
    2a58:	e1a0c002 	mov	ip, r2

00002a5c <l2585>:
    2a5c:	e3390405 	teq	r9, #83886080	; 0x5000000

00002a60 <l2586>:
    2a60:	41a09007 	movmi	r9, r7

00002a64 <l2587>:
    2a64:	e048306c 	sub	r3, r8, ip, rrx

00002a68 <l2588>:
    2a68:	e1a0ab18 	lsl	sl, r8, fp

00002a6c <l2589>:
    2a6c:	d1500009 	cmple	r0, r9

00002a70 <l2590>:
    2a70:	9054600a 	subsls	r6, r4, sl

00002a74 <l2591>:
    2a74:	aa000001 	bge	2a80 <l2594>

00002a78 <l2592>:
    2a78:	03c89716 	biceq	r9, r8, #5767168	; 0x580000

00002a7c <l2593>:
    2a7c:	e059c37b 	subs	ip, r9, fp, ror r3

00002a80 <l2594>:
    2a80:	b1d82069 	bicslt	r2, r8, r9, rrx

00002a84 <l2595>:
    2a84:	e9ad8322 	stmib	sp!, {r1, r5, r8, r9, pc}

00002a88 <l2596>:
    2a88:	e3a0c006 	mov	ip, #6

00002a8c <l2597>:
    2a8c:	47cdc00c 	strbmi	ip, [sp, ip]

00002a90 <l2598>:
    2a90:	d1f01d69 	mvnsle	r1, r9, ror #26

00002a94 <l2599>:
    2a94:	855d703f 	ldrbhi	r7, [sp, #-63]	; 0x3f

00002a98 <l2600>:
    2a98:	e3b09000 	movs	r9, #0

00002a9c <l2601>:
    2a9c:	ea000006 	b	2abc <l2609>

00002aa0 <l2602>:
    2aa0:	e280100f 	add	r1, r0, #15

00002aa4 <l2603>:
    2aa4:	c3760060 	cmngt	r6, #96	; 0x60

00002aa8 <l2604>:
    2aa8:	81c6406c 	bichi	r4, r6, ip, rrx

00002aac <l2605>:
    2aac:	d2e470f4 	rscle	r7, r4, #244	; 0xf4

00002ab0 <l2606>:
    2ab0:	9133064e 	teqls	r3, lr, asr #12

00002ab4 <l2607>:
    2ab4:	21a018af 	lsrcs	r1, pc, #17

00002ab8 <l2608>:
    2ab8:	ea000000 	b	2ac0 <l2610>

00002abc <l2609>:
    2abc:	eafffff8 	b	2aa4 <l2603>

00002ac0 <l2610>:
    2ac0:	e221b51e 	eor	fp, r1, #125829120	; 0x7800000

00002ac4 <l2611>:
    2ac4:	e17003c0 	cmn	r0, r0, asr #7

00002ac8 <l2612>:
    2ac8:	ea000005 	b	2ae4 <l2619>

00002acc <l2613>:
    2acc:	e0eb800c 	rsc	r8, fp, ip

00002ad0 <l2614>:
    2ad0:	e0caa006 	sbc	sl, sl, r6

00002ad4 <l2615>:
    2ad4:	e1760b0e 	cmn	r6, lr, lsl #22

00002ad8 <l2616>:
    2ad8:	e3300603 	teq	r0, #3145728	; 0x300000

00002adc <l2617>:
    2adc:	d11b073e 	tstle	fp, lr, lsr r7

00002ae0 <l2618>:
    2ae0:	e310018f 	tst	r0, #-1073741789	; 0xc0000023

00002ae4 <l2619>:
    2ae4:	e15507a6 	cmp	r5, r6, lsr #15

00002ae8 <l2620>:
    2ae8:	11730003 	cmnne	r3, r3

00002aec <l2621>:
    2aec:	e2462d27 	sub	r2, r6, #2496	; 0x9c0

00002af0 <l2622>:
    2af0:	d019106f 	andsle	r1, r9, pc, rrx

00002af4 <l2623>:
    2af4:	e2160137 	ands	r0, r6, #-1073741811	; 0xc000000d

00002af8 <l2624>:
    2af8:	b2be3186 	adcslt	r3, lr, #-2147483615	; 0x80000021

00002afc <l2625>:
    2afc:	da000007 	ble	2b20 <l2634>

00002b00 <l2626>:
    2b00:	0053900b 	subseq	r9, r3, fp

00002b04 <l2627>:
    2b04:	3202e54a 	andcc	lr, r2, #310378496	; 0x12800000

00002b08 <l2628>:
    2b08:	e3e0a3d9 	mvn	sl, #1677721603	; 0x64000003

00002b0c <l2629>:
    2b0c:	320e63d5 	andcc	r6, lr, #1409286147	; 0x54000003

00002b10 <l2630>:
    2b10:	a1c5103a 	bicge	r1, r5, sl, lsr r0

00002b14 <l2631>:
    2b14:	50439006 	subpl	r9, r3, r6

00002b18 <l2632>:
    2b18:	00465ae6 	subeq	r5, r6, r6, ror #21

00002b1c <l2633>:
    2b1c:	e1f0c000 	mvns	ip, r0

00002b20 <l2634>:
    2b20:	4190abc4 	orrsmi	sl, r0, r4, asr #23

00002b24 <l2635>:
    2b24:	ea000005 	b	2b40 <l2642>

00002b28 <l2636>:
    2b28:	e28010fe 	add	r1, r0, #254	; 0xfe

00002b2c <l2637>:
    2b2c:	e2e499b2 	rsc	r9, r4, #2916352	; 0x2c8000

00002b30 <l2638>:
    2b30:	02df4a2d 	sbcseq	r4, pc, #184320	; 0x2d000

00002b34 <l2639>:
    2b34:	e07aefa6 	rsbs	lr, sl, r6, lsr #31

00002b38 <l2640>:
    2b38:	e241c501 	sub	ip, r1, #4194304	; 0x400000

00002b3c <l2641>:
    2b3c:	ea000000 	b	2b44 <l2643>

00002b40 <l2642>:
    2b40:	eafffff9 	b	2b2c <l2637>

00002b44 <l2643>:
    2b44:	51390532 	teqpl	r9, r2, lsr r5

00002b48 <l2644>:
    2b48:	e01e4000 	ands	r4, lr, r0

00002b4c <l2645>:
    2b4c:	a5dd6008 	ldrbge	r6, [sp, #8]

00002b50 <l2646>:
    2b50:	e1140145 	tst	r4, r5, asr #2

00002b54 <l2647>:
    2b54:	6a000001 	bvs	2b60 <l2650>

00002b58 <l2648>:
    2b58:	21a054ce 	asrcs	r5, lr, #9

00002b5c <l2649>:
    2b5c:	a1d6b009 	bicsge	fp, r6, r9

00002b60 <l2650>:
    2b60:	e2b84a21 	adcs	r4, r8, #135168	; 0x21000

00002b64 <l2651>:
    2b64:	e0139068 	ands	r9, r3, r8, rrx

00002b68 <l2652>:
    2b68:	e040a551 	sub	sl, r0, r1, asr r5

00002b6c <l2653>:
    2b6c:	1a000005 	bne	2b88 <l2660>

00002b70 <l2654>:
    2b70:	e280104c 	add	r1, r0, #76	; 0x4c

00002b74 <l2655>:
    2b74:	e11c0a79 	tst	ip, r9, ror sl

00002b78 <l2656>:
    2b78:	4025981c 	eormi	r9, r5, ip, lsl r8

00002b7c <l2657>:
    2b7c:	e1b07066 	rrxs	r7, r6

00002b80 <l2658>:
    2b80:	32f2ccbf 	rscscc	ip, r2, #48896	; 0xbf00

00002b84 <l2659>:
    2b84:	ea000000 	b	2b8c <l2661>

00002b88 <l2660>:
    2b88:	eafffff9 	b	2b74 <l2655>

00002b8c <l2661>:
    2b8c:	e16fef1b 	clz	lr, fp

00002b90 <l2662>:
    2b90:	e2fcbc5f 	rscs	fp, ip, #24320	; 0x5f00

00002b94 <l2663>:
    2b94:	4053cce6 	subsmi	ip, r3, r6, ror #25

00002b98 <l2664>:
    2b98:	a27223ad 	rsbsge	r2, r2, #-1275068414	; 0xb4000002

00002b9c <l2665>:
    2b9c:	e090ac51 	adds	sl, r0, r1, asr ip

00002ba0 <l2666>:
    2ba0:	00513000 	subseq	r3, r1, r0

00002ba4 <l2667>:
    2ba4:	e1580006 	cmp	r8, r6

00002ba8 <l2668>:
    2ba8:	e3f0e609 	mvns	lr, #9437184	; 0x900000

00002bac <l2669>:
    2bac:	32f72627 	rscscc	r2, r7, #40894464	; 0x2700000

00002bb0 <l2670>:
    2bb0:	7314005b 	tstvc	r4, #91	; 0x5b

00002bb4 <l2671>:
    2bb4:	e009e278 	and	lr, r9, r8, ror r2

00002bb8 <l2672>:
    2bb8:	ea000005 	b	2bd4 <l2679>

00002bbc <l2673>:
    2bbc:	e28010a4 	add	r1, r0, #164	; 0xa4

00002bc0 <l2674>:
    2bc0:	717e0009 	cmnvc	lr, r9

00002bc4 <l2675>:
    2bc4:	10f30c80 	rscsne	r0, r3, r0, lsl #25

00002bc8 <l2676>:
    2bc8:	e061b006 	rsb	fp, r1, r6

00002bcc <l2677>:
    2bcc:	701ba004 	andsvc	sl, fp, r4

00002bd0 <l2678>:
    2bd0:	ea000000 	b	2bd8 <l2680>

00002bd4 <l2679>:
    2bd4:	eafffff9 	b	2bc0 <l2674>

00002bd8 <l2680>:
    2bd8:	c1da617a 	bicsgt	r6, sl, sl, ror r1

00002bdc <l2681>:
    2bdc:	e0695061 	rsb	r5, r9, r1, rrx

00002be0 <l2682>:
    2be0:	eaffffff 	b	2be4 <l2683>

00002be4 <l2683>:
    2be4:	e054863e 	subs	r8, r4, lr, lsr r6

00002be8 <l2684>:
    2be8:	e11e0068 	tst	lr, r8, rrx

00002bec <l2685>:
    2bec:	31e0e008 	mvncc	lr, r8

00002bf0 <l2686>:
    2bf0:	e06f59ac 	rsb	r5, pc, ip, lsr #19

00002bf4 <l2687>:
    2bf4:	e2405579 	sub	r5, r0, #507510784	; 0x1e400000

00002bf8 <l2688>:
    2bf8:	e1b00ec8 	asrs	r0, r8, #29

00002bfc <l2689>:
    2bfc:	c0048265 	andgt	r8, r4, r5, ror #4

00002c00 <l2690>:
    2c00:	658d4004 	strvs	r4, [sp, #4]

00002c04 <l2691>:
    2c04:	e22202b7 	eor	r0, r2, #1879048203	; 0x7000000b

00002c08 <l2692>:
    2c08:	40307522 	eorsmi	r7, r0, r2, lsr #10

00002c0c <l2693>:
    2c0c:	501e3980 	andspl	r3, lr, r0, lsl #19

00002c10 <l2694>:
    2c10:	43f0419e 	mvnsmi	r4, #-2147483609	; 0x80000027

00002c14 <l2695>:
    2c14:	7002a065 	andvc	sl, r2, r5, rrx

00002c18 <l2696>:
    2c18:	e0d57909 	sbcs	r7, r5, r9, lsl #18

00002c1c <l2697>:
    2c1c:	e08e3001 	add	r3, lr, r1

00002c20 <l2698>:
    2c20:	d0d0a00c 	sbcsle	sl, r0, ip

00002c24 <l2699>:
    2c24:	e3a05004 	mov	r5, #4

00002c28 <l2700>:
    2c28:	274da005 	strbcs	sl, [sp, -r5]

00002c2c <l2701>:
    2c2c:	11740009 	cmnne	r4, r9

00002c30 <l2702>:
    2c30:	e0213002 	eor	r3, r1, r2

00002c34 <l2703>:
    2c34:	e1770008 	cmn	r7, r8

00002c38 <l2704>:
    2c38:	90e6a461 	rscls	sl, r6, r1, ror #8

00002c3c <l2705>:
    2c3c:	e047e00b 	sub	lr, r7, fp

00002c40 <l2706>:
    2c40:	e3a06000 	mov	r6, #0

00002c44 <l2707>:
    2c44:	679d3006 	ldrvs	r3, [sp, r6]

00002c48 <l2708>:
    2c48:	e182b001 	orr	fp, r2, r1

00002c4c <l2709>:
    2c4c:	e180606c 	orr	r6, r0, ip, rrx

00002c50 <l2710>:
    2c50:	e2137525 	ands	r7, r3, #155189248	; 0x9400000

00002c54 <l2711>:
    2c54:	ea000003 	b	2c68 <l2716>

00002c58 <l2712>:
    2c58:	e2801044 	add	r1, r0, #68	; 0x44

00002c5c <l2713>:
    2c5c:	904e571b 	subls	r5, lr, fp, lsl r7

00002c60 <l2714>:
    2c60:	3006a46c 	andcc	sl, r6, ip, ror #8

00002c64 <l2715>:
    2c64:	ea000000 	b	2c6c <l2717>

00002c68 <l2716>:
    2c68:	eafffffb 	b	2c5c <l2713>

00002c6c <l2717>:
    2c6c:	62225327 	eorvs	r5, r2, #-1677721600	; 0x9c000000

00002c70 <l2718>:
    2c70:	0224387b 	eoreq	r3, r4, #8060928	; 0x7b0000

00002c74 <l2719>:
    2c74:	e16f2f16 	clz	r2, r6

00002c78 <l2720>:
    2c78:	c155000f 	cmpgt	r5, pc

00002c7c <l2721>:
    2c7c:	60386002 	eorsvs	r6, r8, r2

00002c80 <l2722>:
    2c80:	2a000001 	bcs	2c8c <l2725>

00002c84 <l2723>:
    2c84:	a159000c 	cmpge	r9, ip

00002c88 <l2724>:
    2c88:	30fc2002 	rscscc	r2, ip, r2

00002c8c <l2725>:
    2c8c:	e0de574f 	sbcs	r5, lr, pc, asr #14

00002c90 <l2726>:
    2c90:	2a000008 	bcs	2cb8 <l2736>

00002c94 <l2727>:
    2c94:	92774233 	rsbsls	r4, r7, #805306371	; 0x30000003

00002c98 <l2728>:
    2c98:	2316011f 	tstcs	r6, #-1073741817	; 0xc0000007

00002c9c <l2729>:
    2c9c:	e0a0706c 	adc	r7, r0, ip, rrx

00002ca0 <l2730>:
    2ca0:	e092e004 	adds	lr, r2, r4

00002ca4 <l2731>:
    2ca4:	40048005 	andmi	r8, r4, r5

00002ca8 <l2732>:
    2ca8:	50dc962a 	sbcspl	r9, ip, sl, lsr #12

00002cac <l2733>:
    2cac:	e13e0938 	teq	lr, r8, lsr r9

00002cb0 <l2734>:
    2cb0:	e043900b 	sub	r9, r3, fp

00002cb4 <l2735>:
    2cb4:	30451caa 	subcc	r1, r5, sl, lsr #25

00002cb8 <l2736>:
    2cb8:	c018400e 	andsgt	r4, r8, lr

00002cbc <l2737>:
    2cbc:	e9bd000a 	ldmib	sp!, {r1, r3}

00002cc0 <l2738>:
    2cc0:	70186989 	andsvc	r6, r8, r9, lsl #19

00002cc4 <l2739>:
    2cc4:	e26eb1f2 	rsb	fp, lr, #-2147483588	; 0x8000003c

00002cc8 <l2740>:
    2cc8:	e0832061 	add	r2, r3, r1, rrx

00002ccc <l2741>:
    2ccc:	3a000005 	bcc	2ce8 <l2748>

00002cd0 <l2742>:
    2cd0:	e28010ad 	add	r1, r0, #173	; 0xad

00002cd4 <l2743>:
    2cd4:	e0e7b972 	rsc	fp, r7, r2, ror r9

00002cd8 <l2744>:
    2cd8:	e049a005 	sub	sl, r9, r5

00002cdc <l2745>:
    2cdc:	7043106c 	subvc	r1, r3, ip, rrx

00002ce0 <l2746>:
    2ce0:	8119000c 	tsthi	r9, ip

00002ce4 <l2747>:
    2ce4:	ea000000 	b	2cec <l2749>

00002ce8 <l2748>:
    2ce8:	eafffff9 	b	2cd4 <l2743>

00002cec <l2749>:
    2cec:	0a000003 	beq	2d00 <l2754>

00002cf0 <l2750>:
    2cf0:	c31f0ca1 	tstgt	pc, #41216	; 0xa100

00002cf4 <l2751>:
    2cf4:	2084a005 	addcs	sl, r4, r5

00002cf8 <l2752>:
    2cf8:	01140005 	tsteq	r4, r5

00002cfc <l2753>:
    2cfc:	e15c0002 	cmp	ip, r2

00002d00 <l2754>:
    2d00:	335c0f9d 	cmpcc	ip, #628	; 0x274

00002d04 <l2755>:
    2d04:	e3a07000 	mov	r7, #0

00002d08 <l2756>:
    2d08:	e68d1007 	str	r1, [sp], r7

00002d0c <l2757>:
    2d0c:	d16f1f16 	clzle	r1, r6

00002d10 <l2758>:
    2d10:	a1a0aca9 	lsrge	sl, r9, #25

00002d14 <l2759>:
    2d14:	e1370b1c 	teq	r7, ip, lsl fp

00002d18 <l2760>:
    2d18:	e2a7a287 	adc	sl, r7, #1879048200	; 0x70000008

00002d1c <l2761>:
    2d1c:	e1a00000 	nop			; (mov r0, r0)

00002d20 <l2762>:
    2d20:	70441008 	subvc	r1, r4, r8

00002d24 <l2763>:
    2d24:	61180001 	tstvs	r8, r1

00002d28 <l2764>:
    2d28:	e3a05044 	mov	r5, #68	; 0x44

00002d2c <l2765>:
    2d2c:	e71d7005 	ldr	r7, [sp, -r5]

00002d30 <l2766>:
    2d30:	6a000007 	bvs	2d54 <l2775>

00002d34 <l2767>:
    2d34:	e15f08a5 	cmp	pc, r5, lsr #17

00002d38 <l2768>:
    2d38:	e27c9311 	rsbs	r9, ip, #1140850688	; 0x44000000

00002d3c <l2769>:
    2d3c:	e1ca8e1c 	bic	r8, sl, ip, lsl lr

00002d40 <l2770>:
    2d40:	e1790947 	cmn	r9, r7, asr #18

00002d44 <l2771>:
    2d44:	e0280062 	eor	r0, r8, r2, rrx

00002d48 <l2772>:
    2d48:	d19e6009 	orrsle	r6, lr, r9

00002d4c <l2773>:
    2d4c:	202515c3 	eorcs	r1, r5, r3, asr #11

00002d50 <l2774>:
    2d50:	81df0760 	bicshi	r0, pc, r0, ror #14

00002d54 <l2775>:
    2d54:	e01a7a01 	ands	r7, sl, r1, lsl #20

00002d58 <l2776>:
    2d58:	1a000003 	bne	2d6c <l2781>

00002d5c <l2777>:
    2d5c:	e2814539 	add	r4, r1, #239075328	; 0xe400000

00002d60 <l2778>:
    2d60:	e0c84c89 	sbc	r4, r8, r9, lsl #25

00002d64 <l2779>:
    2d64:	e1d21332 	bics	r1, r2, r2, lsr r3

00002d68 <l2780>:
    2d68:	615a0065 	cmpvs	sl, r5, rrx

00002d6c <l2781>:
    2d6c:	e1c80004 	bic	r0, r8, r4

00002d70 <l2782>:
    2d70:	b1c40038 	biclt	r0, r4, r8, lsr r0

00002d74 <l2783>:
    2d74:	e1e08a27 	mvn	r8, r7, lsr #20

00002d78 <l2784>:
    2d78:	a03e487b 	eorsge	r4, lr, fp, ror r8

00002d7c <l2785>:
    2d7c:	d033251a 	eorsle	r2, r3, sl, lsl r5

00002d80 <l2786>:
    2d80:	8227bda6 	eorhi	fp, r7, #10624	; 0x2980

00002d84 <l2787>:
    2d84:	baffffff 	blt	2d88 <l2788>

00002d88 <l2788>:
    2d88:	900907ae 	andls	r0, r9, lr, lsr #15

00002d8c <l2789>:
    2d8c:	ba000007 	blt	2db0 <l2798>

00002d90 <l2790>:
    2d90:	e1817007 	orr	r7, r1, r7

00002d94 <l2791>:
    2d94:	21750cca 	cmncs	r5, sl, asr #25

00002d98 <l2792>:
    2d98:	9098a063 	addsls	sl, r8, r3, rrx

00002d9c <l2793>:
    2d9c:	41160b59 	tstmi	r6, r9, asr fp

00002da0 <l2794>:
    2da0:	e04a5b73 	sub	r5, sl, r3, ror fp

00002da4 <l2795>:
    2da4:	e0268a33 	eor	r8, r6, r3, lsr sl

00002da8 <l2796>:
    2da8:	3090e844 	addscc	lr, r0, r4, asr #16

00002dac <l2797>:
    2dac:	7089006c 	addvc	r0, r9, ip, rrx

00002db0 <l2798>:
    2db0:	70ea400e 	rscvc	r4, sl, lr

00002db4 <l2799>:
    2db4:	504f2000 	subpl	r2, pc, r0

00002db8 <l2800>:
    2db8:	e2e27084 	rsc	r7, r2, #132	; 0x84

00002dbc <l2801>:
    2dbc:	e1a00000 	nop			; (mov r0, r0)

00002dc0 <l2802>:
    2dc0:	e3817fe6 	orr	r7, r1, #920	; 0x398

00002dc4 <l2803>:
    2dc4:	e27239cb 	rsbs	r3, r2, #3325952	; 0x32c000

00002dc8 <l2804>:
    2dc8:	8a000007 	bhi	2dec <l2813>

00002dcc <l2805>:
    2dcc:	e24c3942 	sub	r3, ip, #1081344	; 0x108000

00002dd0 <l2806>:
    2dd0:	23730575 	cmncs	r3, #490733568	; 0x1d400000

00002dd4 <l2807>:
    2dd4:	40b1cc73 	adcsmi	ip, r1, r3, ror ip

00002dd8 <l2808>:
    2dd8:	73d304e5 	bicsvc	r0, r3, #-452984832	; 0xe5000000

00002ddc <l2809>:
    2ddc:	d227e4e7 	eorle	lr, r7, #-419430400	; 0xe7000000

00002de0 <l2810>:
    2de0:	70b74512 	adcsvc	r4, r7, r2, lsl r5

00002de4 <l2811>:
    2de4:	e1310858 	teq	r1, r8, asr r8

00002de8 <l2812>:
    2de8:	e0134007 	ands	r4, r3, r7

00002dec <l2813>:
    2dec:	e1350007 	teq	r5, r7

00002df0 <l2814>:
    2df0:	e030495c 	eors	r4, r0, ip, asr r9

00002df4 <l2815>:
    2df4:	e0c5800c 	sbc	r8, r5, ip

00002df8 <l2816>:
    2df8:	9198775b 	orrsls	r7, r8, fp, asr r7

00002dfc <l2817>:
    2dfc:	e1b0b06a 	rrxs	fp, sl

00002e00 <l2818>:
    2e00:	e0110009 	ands	r0, r1, r9

00002e04 <l2819>:
    2e04:	e15e0332 	cmp	lr, r2, lsr r3

00002e08 <l2820>:
    2e08:	e0394e63 	eors	r4, r9, r3, ror #28

00002e0c <l2821>:
    2e0c:	e53d903c 	ldr	r9, [sp, #-60]!	; 0x3c

00002e10 <l2822>:
    2e10:	e3a08010 	mov	r8, #16

00002e14 <l2823>:
    2e14:	e78da008 	str	sl, [sp, r8]

00002e18 <l2824>:
    2e18:	e15e0471 	cmp	lr, r1, ror r4

00002e1c <l2825>:
    2e1c:	0a000004 	beq	2e34 <l2831>

00002e20 <l2826>:
    2e20:	d16fbf1e 	clzle	fp, lr

00002e24 <l2827>:
    2e24:	80540982 	subshi	r0, r4, r2, lsl #19

00002e28 <l2828>:
    2e28:	e37b0746 	cmn	fp, #18350080	; 0x1180000

00002e2c <l2829>:
    2e2c:	e1390002 	teq	r9, r2

00002e30 <l2830>:
    2e30:	e03354a2 	eors	r5, r3, r2, lsr #9

00002e34 <l2831>:
    2e34:	c0e95a30 	rscgt	r5, r9, r0, lsr sl

00002e38 <l2832>:
    2e38:	ea000005 	b	2e54 <l2839>

00002e3c <l2833>:
    2e3c:	823598e6 	eorshi	r9, r5, #15073280	; 0xe60000

00002e40 <l2834>:
    2e40:	e1f05a2a 	mvns	r5, sl, lsr #20

00002e44 <l2835>:
    2e44:	b13b0004 	teqlt	fp, r4

00002e48 <l2836>:
    2e48:	e0242977 	eor	r2, r4, r7, ror r9

00002e4c <l2837>:
    2e4c:	40d71677 	sbcsmi	r1, r7, r7, ror r6

00002e50 <l2838>:
    2e50:	e1a00310 	lsl	r0, r0, r3

00002e54 <l2839>:
    2e54:	c060197e 	rsbgt	r1, r0, lr, ror r9

00002e58 <l2840>:
    2e58:	503b9a75 	eorspl	r9, fp, r5, ror sl

00002e5c <l2841>:
    2e5c:	117b0659 	cmnne	fp, r9, asr r6

00002e60 <l2842>:
    2e60:	e0f10000 	rscs	r0, r1, r0

00002e64 <l2843>:
    2e64:	4a000002 	bmi	2e74 <l2847>

00002e68 <l2844>:
    2e68:	e28010e3 	add	r1, r0, #227	; 0xe3

00002e6c <l2845>:
    2e6c:	e00e0005 	and	r0, lr, r5

00002e70 <l2846>:
    2e70:	ea000000 	b	2e78 <l2848>

00002e74 <l2847>:
    2e74:	eafffffc 	b	2e6c <l2845>

00002e78 <l2848>:
    2e78:	e380752d 	orr	r7, r0, #188743680	; 0xb400000

00002e7c <l2849>:
    2e7c:	0273c5d9 	rsbseq	ip, r3, #910163968	; 0x36400000

00002e80 <l2850>:
    2e80:	1a000003 	bne	2e94 <l2855>

00002e84 <l2851>:
    2e84:	e2d96e87 	sbcs	r6, r9, #2160	; 0x870

00002e88 <l2852>:
    2e88:	e2bf8d85 	adcs	r8, pc, #8512	; 0x2140

00002e8c <l2853>:
    2e8c:	215c000a 	cmpcs	ip, sl

00002e90 <l2854>:
    2e90:	e0ac900c 	adc	r9, ip, ip

00002e94 <l2855>:
    2e94:	40ea2333 	rscmi	r2, sl, r3, lsr r3

00002e98 <l2856>:
    2e98:	e3e03a16 	mvn	r3, #90112	; 0x16000

00002e9c <l2857>:
    2e9c:	e3a0b5ae 	mov	fp, #729808896	; 0x2b800000

00002ea0 <l2858>:
    2ea0:	015f0064 	cmpeq	pc, r4, rrx

00002ea4 <l2859>:
    2ea4:	91b07006 	movsls	r7, r6

00002ea8 <l2860>:
    2ea8:	e5cd702f 	strb	r7, [sp, #47]	; 0x2f

00002eac <l2861>:
    2eac:	63a0c9e3 	movvs	ip, #3719168	; 0x38c000

00002eb0 <l2862>:
    2eb0:	b1b08064 	rrxslt	r8, r4

00002eb4 <l2863>:
    2eb4:	e9ada000 	stmib	sp!, {sp, pc}

00002eb8 <l2864>:
    2eb8:	e27354b5 	rsbs	r5, r3, #-1258291200	; 0xb5000000

00002ebc <l2865>:
    2ebc:	e0f214a9 	rscs	r1, r2, r9, lsr #9

00002ec0 <l2866>:
    2ec0:	e0175c70 	ands	r5, r7, r0, ror ip

00002ec4 <l2867>:
    2ec4:	c1f06002 	mvnsgt	r6, r2

00002ec8 <l2868>:
    2ec8:	7a000008 	bvc	2ef0 <l2878>

00002ecc <l2869>:
    2ecc:	a212a079 	andsge	sl, r2, #121	; 0x79

00002ed0 <l2870>:
    2ed0:	d0d9900b 	sbcsle	r9, r9, fp

00002ed4 <l2871>:
    2ed4:	e3da2657 	bics	r2, sl, #91226112	; 0x5700000

00002ed8 <l2872>:
    2ed8:	e0b93770 	adcs	r3, r9, r0, ror r7

00002edc <l2873>:
    2edc:	838e1e76 	orrhi	r1, lr, #1888	; 0x760

00002ee0 <l2874>:
    2ee0:	e3b0b85e 	movs	fp, #6160384	; 0x5e0000

00002ee4 <l2875>:
    2ee4:	a071a00c 	rsbsge	sl, r1, ip

00002ee8 <l2876>:
    2ee8:	e1d07ae6 	bics	r7, r0, r6, ror #21

00002eec <l2877>:
    2eec:	435a0421 	cmpmi	sl, #553648128	; 0x21000000

00002ef0 <l2878>:
    2ef0:	70120002 	andsvc	r0, r2, r2

00002ef4 <l2879>:
    2ef4:	306b30ab 	rsbcc	r3, fp, fp, lsr #1

00002ef8 <l2880>:
    2ef8:	922f0021 	eorls	r0, pc, #33	; 0x21

00002efc <l2881>:
    2efc:	ea000001 	b	2f08 <l2884>

00002f00 <l2882>:
    2f00:	e25b40d4 	subs	r4, fp, #212	; 0xd4

00002f04 <l2883>:
    2f04:	01b09001 	movseq	r9, r1

00002f08 <l2884>:
    2f08:	e07667eb 	rsbs	r6, r6, fp, ror #15

00002f0c <l2885>:
    2f0c:	e0a7e002 	adc	lr, r7, r2

00002f10 <l2886>:
    2f10:	e5bd9014 	ldr	r9, [sp, #20]!

00002f14 <l2887>:
    2f14:	e54d2019 	strb	r2, [sp, #-25]

00002f18 <l2888>:
    2f18:	e021ab35 	eor	sl, r1, r5, lsr fp

00002f1c <l2889>:
    2f1c:	e13e0282 	teq	lr, r2, lsl #5

00002f20 <l2890>:
    2f20:	52c56c3b 	sbcpl	r6, r5, #15104	; 0x3b00

00002f24 <l2891>:
    2f24:	e03198a7 	eors	r9, r1, r7, lsr #17

00002f28 <l2892>:
    2f28:	b0b1507b 	adcslt	r5, r1, fp, ror r0

00002f2c <l2893>:
    2f2c:	e0437778 	sub	r7, r3, r8, ror r7

00002f30 <l2894>:
    2f30:	601f6000 	andsvs	r6, pc, r0

00002f34 <l2895>:
    2f34:	e1510a49 	cmp	r1, r9, asr #20

00002f38 <l2896>:
    2f38:	ea000004 	b	2f50 <l2902>

00002f3c <l2897>:
    2f3c:	0058afa8 	subseq	sl, r8, r8, lsr #31

00002f40 <l2898>:
    2f40:	e04a9b2b 	sub	r9, sl, fp, lsr #22

00002f44 <l2899>:
    2f44:	a35e0af9 	cmpge	lr, #1019904	; 0xf9000

00002f48 <l2900>:
    2f48:	4064eb1c 	rsbmi	lr, r4, ip, lsl fp

00002f4c <l2901>:
    2f4c:	51e03b02 	mvnpl	r3, r2, lsl #22

00002f50 <l2902>:
    2f50:	11b0900c 	movsne	r9, ip

00002f54 <l2903>:
    2f54:	5a000005 	bpl	2f70 <l2910>

00002f58 <l2904>:
    2f58:	e2d6bd8a 	sbcs	fp, r6, #8832	; 0x2280

00002f5c <l2905>:
    2f5c:	e1b08000 	movs	r8, r0

00002f60 <l2906>:
    2f60:	b0600007 	rsblt	r0, r0, r7

00002f64 <l2907>:
    2f64:	61f0b000 	mvnsvs	fp, r0

00002f68 <l2908>:
    2f68:	e16f5f1c 	clz	r5, ip

00002f6c <l2909>:
    2f6c:	e0a6255e 	adc	r2, r6, lr, asr r5

00002f70 <l2910>:
    2f70:	e173000a 	cmn	r3, sl

00002f74 <l2911>:
    2f74:	e0fc0a6f 	rscs	r0, ip, pc, ror #20

00002f78 <l2912>:
    2f78:	b38bb4c2 	orrlt	fp, fp, #-1040187392	; 0xc2000000

00002f7c <l2913>:
    2f7c:	e83d44d5 	ldmda	sp!, {r0, r2, r4, r6, r7, sl, lr}

00002f80 <l2914>:
    2f80:	e1a028e7 	ror	r2, r7, #17

00002f84 <l2915>:
    2f84:	ea000007 	b	2fa8 <l2924>

00002f88 <l2916>:
    2f88:	e2801086 	add	r1, r0, #134	; 0x86

00002f8c <l2917>:
    2f8c:	e1c24dc0 	bic	r4, r2, r0, asr #27

00002f90 <l2918>:
    2f90:	e067b52c 	rsb	fp, r7, ip, lsr #10

00002f94 <l2919>:
    2f94:	70c9b41c 	sbcvc	fp, r9, ip, lsl r4

00002f98 <l2920>:
    2f98:	e1330006 	teq	r3, r6

00002f9c <l2921>:
    2f9c:	e08a0733 	add	r0, sl, r3, lsr r7

00002fa0 <l2922>:
    2fa0:	a16f3f15 	clzge	r3, r5

00002fa4 <l2923>:
    2fa4:	ea000000 	b	2fac <l2925>

00002fa8 <l2924>:
    2fa8:	eafffff7 	b	2f8c <l2917>

00002fac <l2925>:
    2fac:	a0989066 	addsge	r9, r8, r6, rrx

00002fb0 <l2926>:
    2fb0:	50fb0003 	rscspl	r0, fp, r3

00002fb4 <l2927>:
    2fb4:	81853000 	orrhi	r3, r5, r0

00002fb8 <l2928>:
    2fb8:	4232964f 	eorsmi	r9, r2, #82837504	; 0x4f00000

00002fbc <l2929>:
    2fbc:	d0438069 	suble	r8, r3, r9, rrx

00002fc0 <l2930>:
    2fc0:	e1370119 	teq	r7, r9, lsl r1

00002fc4 <l2931>:
    2fc4:	617f048e 	cmnvs	pc, lr, lsl #9

00002fc8 <l2932>:
    2fc8:	b0c42001 	sbclt	r2, r4, r1

00002fcc <l2933>:
    2fcc:	0184e002 	orreq	lr, r4, r2

00002fd0 <l2934>:
    2fd0:	e1a00000 	nop			; (mov r0, r0)

00002fd4 <l2935>:
    2fd4:	40da4976 	sbcsmi	r4, sl, r6, ror r9

00002fd8 <l2936>:
    2fd8:	0222ed49 	eoreq	lr, r2, #4672	; 0x1240

00002fdc <l2937>:
    2fdc:	c1b08004 	movsgt	r8, r4

00002fe0 <l2938>:
    2fe0:	e1a00000 	nop			; (mov r0, r0)

00002fe4 <l2939>:
    2fe4:	21500707 	cmpcs	r0, r7, lsl #14

00002fe8 <l2940>:
    2fe8:	51530002 	cmppl	r3, r2

00002fec <l2941>:
    2fec:	e06b800b 	rsb	r8, fp, fp

00002ff0 <l2942>:
    2ff0:	e26397d6 	rsb	r9, r3, #56098816	; 0x3580000

00002ff4 <l2943>:
    2ff4:	b11c0006 	tstlt	ip, r6

00002ff8 <l2944>:
    2ff8:	ea000001 	b	3004 <l2947>

00002ffc <l2945>:
    2ffc:	e1160381 	tst	r6, r1, lsl #7

00003000 <l2946>:
    3000:	20671240 	rsbcs	r1, r7, r0, asr #4

00003004 <l2947>:
    3004:	90b78009 	adcsls	r8, r7, r9

00003008 <l2948>:
    3008:	e1a04005 	mov	r4, r5

0000300c <l2949>:
    300c:	51d18386 	bicspl	r8, r1, r6, lsl #7

00003010 <l2950>:
    3010:	090d0001 	stmdbeq	sp, {r0}

00003014 <l2951>:
    3014:	e11308c0 	tst	r3, r0, asr #17

00003018 <l2952>:
    3018:	95dd502c 	ldrbls	r5, [sp, #44]	; 0x2c

0000301c <l2953>:
    301c:	61f03558 	mvnsvs	r3, r8, asr r5

00003020 <l2954>:
    3020:	e3a0c006 	mov	ip, #6

00003024 <l2955>:
    3024:	67ddc00c 	ldrbvs	ip, [sp, ip]

00003028 <l2956>:
    3028:	e0c06a1a 	sbc	r6, r0, sl, lsl sl

0000302c <l2957>:
    302c:	3012c433 	andscc	ip, r2, r3, lsr r4

00003030 <l2958>:
    3030:	e1140b19 	tst	r4, r9, lsl fp

00003034 <l2959>:
    3034:	02556e3a 	subseq	r6, r5, #928	; 0x3a0

00003038 <l2960>:
    3038:	037a0326 	cmneq	sl, #-1744830464	; 0x98000000

0000303c <l2961>:
    303c:	83b0cc17 	movshi	ip, #5888	; 0x1700

00003040 <l2962>:
    3040:	da000007 	ble	3064 <l2971>

00003044 <l2963>:
    3044:	e280103e 	add	r1, r0, #62	; 0x3e

00003048 <l2964>:
    3048:	e1dc3512 	bics	r3, ip, r2, lsl r5

0000304c <l2965>:
    304c:	2157000c 	cmpcs	r7, ip

00003050 <l2966>:
    3050:	c1e08003 	mvngt	r8, r3

00003054 <l2967>:
    3054:	11b01418 	lslsne	r1, r8, r4

00003058 <l2968>:
    3058:	61730000 	cmnvs	r3, r0

0000305c <l2969>:
    305c:	e18e600e 	orr	r6, lr, lr

00003060 <l2970>:
    3060:	ea000000 	b	3068 <l2972>

00003064 <l2971>:
    3064:	eafffff7 	b	3048 <l2964>

00003068 <l2972>:
    3068:	51170009 	tstpl	r7, r9

0000306c <l2973>:
    306c:	e05ec00c 	subs	ip, lr, ip

00003070 <l2974>:
    3070:	e3a0e005 	mov	lr, #5

00003074 <l2975>:
    3074:	37ddb00e 	ldrbcc	fp, [sp, lr]

00003078 <l2976>:
    3078:	41c6906c 	bicmi	r9, r6, ip, rrx

0000307c <l2977>:
    307c:	155d400a 	ldrbne	r4, [sp, #-10]

00003080 <l2978>:
    3080:	e16fcf17 	clz	ip, r7

00003084 <l2979>:
    3084:	e2d1a7cd 	sbcs	sl, r1, #53739520	; 0x3340000

00003088 <l2980>:
    3088:	c034c431 	eorsgt	ip, r4, r1, lsr r4

0000308c <l2981>:
    308c:	616faf16 	clzvs	sl, r6

00003090 <l2982>:
    3090:	20c30004 	sbccs	r0, r3, r4

00003094 <l2983>:
    3094:	e0a7700a 	adc	r7, r7, sl

00003098 <l2984>:
    3098:	e1a065a4 	lsr	r6, r4, #11

0000309c <l2985>:
    309c:	c2d21589 	sbcsgt	r1, r2, #574619648	; 0x22400000

000030a0 <l2986>:
    30a0:	93340018 	teqls	r4, #24

000030a4 <l2987>:
    30a4:	904a700f 	subls	r7, sl, pc

000030a8 <l2988>:
    30a8:	306c2002 	rsbcc	r2, ip, r2

000030ac <l2989>:
    30ac:	4132000b 	teqmi	r2, fp

000030b0 <l2990>:
    30b0:	e1380068 	teq	r8, r8, rrx

000030b4 <l2991>:
    30b4:	a0586007 	subsge	r6, r8, r7

000030b8 <l2992>:
    30b8:	e16f6f10 	clz	r6, r0

000030bc <l2993>:
    30bc:	5130000e 	teqpl	r0, lr

000030c0 <l2994>:
    30c0:	e3905237 	orrs	r5, r0, #1879048195	; 0x70000003

000030c4 <l2995>:
    30c4:	d0479064 	suble	r9, r7, r4, rrx

000030c8 <l2996>:
    30c8:	e16fbf11 	clz	fp, r1

000030cc <l2997>:
    30cc:	e04f300c 	sub	r3, pc, ip

000030d0 <l2998>:
    30d0:	e0a0b003 	adc	fp, r0, r3

000030d4 <l2999>:
    30d4:	e057ca0a 	subs	ip, r7, sl, lsl #20

000030d8 <l3000>:
    30d8:	d1f0c007 	mvnsle	ip, r7

000030dc <l3001>:
    30dc:	6a000005 	bvs	30f8 <l3008>

000030e0 <l3002>:
    30e0:	e280102b 	add	r1, r0, #43	; 0x2b

000030e4 <l3003>:
    30e4:	b1e06063 	mvnlt	r6, r3, rrx

000030e8 <l3004>:
    30e8:	a15a0a5c 	cmpge	sl, ip, asr sl

000030ec <l3005>:
    30ec:	e223260b 	eor	r2, r3, #11534336	; 0xb00000

000030f0 <l3006>:
    30f0:	504b878e 	subpl	r8, fp, lr, lsl #15

000030f4 <l3007>:
    30f4:	ea000000 	b	30fc <l3009>

000030f8 <l3008>:
    30f8:	eafffff9 	b	30e4 <l3003>

000030fc <l3009>:
    30fc:	418762a0 	orrmi	r6, r7, r0, lsr #5

00003100 <l3010>:
    3100:	5a000005 	bpl	311c <l3017>

00003104 <l3011>:
    3104:	318bb279 	orrcc	fp, fp, r9, ror r2

00003108 <l3012>:
    3108:	81a02232 	lsrhi	r2, r2, r2

0000310c <l3013>:
    310c:	d15c0ecb 	cmple	ip, fp, asr #29

00003110 <l3014>:
    3110:	e1b00069 	rrxs	r0, r9

00003114 <l3015>:
    3114:	e2713092 	rsbs	r3, r1, #146	; 0x92

00003118 <l3016>:
    3118:	21700936 	cmncs	r0, r6, lsr r9

0000311c <l3017>:
    311c:	031b022d 	tsteq	fp, #-805306366	; 0xd0000002

00003120 <l3018>:
    3120:	b1a0a274 	rorlt	sl, r4, r2

00003124 <l3019>:
    3124:	e5dda02e 	ldrb	sl, [sp, #46]	; 0x2e

00003128 <l3020>:
    3128:	a2997589 	addsge	r7, r9, #574619648	; 0x22400000

0000312c <l3021>:
    312c:	2015a004 	andscs	sl, r5, r4

00003130 <l3022>:
    3130:	e044c4af 	sub	ip, r4, pc, lsr #9

00003134 <l3023>:
    3134:	c38c9fd7 	orrgt	r9, ip, #860	; 0x35c

00003138 <l3024>:
    3138:	41812545 	orrmi	r2, r1, r5, asr #10

0000313c <l3025>:
    313c:	4056a7ca 	subsmi	sl, r6, sl, asr #15

00003140 <l3026>:
    3140:	a056406b 	subsge	r4, r6, fp, rrx

00003144 <l3027>:
    3144:	d0c17004 	sbcle	r7, r1, r4

00003148 <l3028>:
    3148:	e023300c 	eor	r3, r3, ip

0000314c <l3029>:
    314c:	d16fbf16 	clzle	fp, r6

00003150 <l3030>:
    3150:	e04577a9 	sub	r7, r5, r9, lsr #15

00003154 <l3031>:
    3154:	0a000002 	beq	3164 <l3035>

00003158 <l3032>:
    3158:	e28010fc 	add	r1, r0, #252	; 0xfc

0000315c <l3033>:
    315c:	e047c00f 	sub	ip, r7, pc

00003160 <l3034>:
    3160:	ea000000 	b	3168 <l3036>

00003164 <l3035>:
    3164:	eafffffc 	b	315c <l3033>

00003168 <l3036>:
    3168:	e0d95066 	sbcs	r5, r9, r6, rrx

0000316c <l3037>:
    316c:	216fcf10 	clzcs	ip, r0

00003170 <l3038>:
    3170:	e19b7002 	orrs	r7, fp, r2

00003174 <l3039>:
    3174:	e83d0100 	ldmda	sp!, {r8}

00003178 <l3040>:
    3178:	e3a0600b 	mov	r6, #11

0000317c <l3041>:
    317c:	a7cdb006 	strbge	fp, [sp, r6]

00003180 <l3042>:
    3180:	508e0068 	addpl	r0, lr, r8, rrx

00003184 <l3043>:
    3184:	e1c738a7 	bic	r3, r7, r7, lsr #17

00003188 <l3044>:
    3188:	b2f9e102 	rscslt	lr, r9, #-2147483648	; 0x80000000

0000318c <l3045>:
    318c:	1199c33b 	orrsne	ip, r9, fp, lsr r3

00003190 <l3046>:
    3190:	b116088b 	tstlt	r6, fp, lsl #17

00003194 <l3047>:
    3194:	e2a4b68b 	adc	fp, r4, #145752064	; 0x8b00000

00003198 <l3048>:
    3198:	9075365c 	rsbsls	r3, r5, ip, asr r6

0000319c <l3049>:
    319c:	e3a08012 	mov	r8, #18

000031a0 <l3050>:
    31a0:	37cdb008 	strbcc	fp, [sp, r8]

000031a4 <l3051>:
    31a4:	01e01009 	mvneq	r1, r9

000031a8 <l3052>:
    31a8:	c0a09679 	adcgt	r9, r0, r9, ror r6

000031ac <l3053>:
    31ac:	11b0506a 	rrxsne	r5, sl

000031b0 <l3054>:
    31b0:	e1a00000 	nop			; (mov r0, r0)

000031b4 <l3055>:
    31b4:	e20aa22a 	and	sl, sl, #-1610612734	; 0xa0000002

000031b8 <l3056>:
    31b8:	b066000e 	rsblt	r0, r6, lr

000031bc <l3057>:
    31bc:	e0a17069 	adc	r7, r1, r9, rrx

000031c0 <l3058>:
    31c0:	73b0a9ca 	movsvc	sl, #3309568	; 0x328000

000031c4 <l3059>:
    31c4:	e0179006 	ands	r9, r7, r6

000031c8 <l3060>:
    31c8:	b023c065 	eorlt	ip, r3, r5, rrx

000031cc <l3061>:
    31cc:	aa000001 	bge	31d8 <l3064>

000031d0 <l3062>:
    31d0:	306f0743 	rsbcc	r0, pc, r3, asr #14

000031d4 <l3063>:
    31d4:	40638064 	rsbmi	r8, r3, r4, rrx

000031d8 <l3064>:
    31d8:	e33c0c57 	teq	ip, #22272	; 0x5700

000031dc <l3065>:
    31dc:	101c4067 	andsne	r4, ip, r7, rrx

000031e0 <l3066>:
    31e0:	2092a640 	addscs	sl, r2, r0, asr #12

000031e4 <l3067>:
    31e4:	698de67d 	stmibvs	sp, {r0, r2, r3, r4, r5, r6, r9, sl, sp, lr, pc}

000031e8 <l3068>:
    31e8:	ea000006 	b	3208 <l3076>

000031ec <l3069>:
    31ec:	e28010e9 	add	r1, r0, #233	; 0xe9

000031f0 <l3070>:
    31f0:	a06e837c 	rsbge	r8, lr, ip, ror r3

000031f4 <l3071>:
    31f4:	b16f6f12 	clzlt	r6, r2

000031f8 <l3072>:
    31f8:	b075a678 	rsbslt	sl, r5, r8, ror r6

000031fc <l3073>:
    31fc:	e0427061 	sub	r7, r2, r1, rrx

00003200 <l3074>:
    3200:	e0568003 	subs	r8, r6, r3

00003204 <l3075>:
    3204:	ea000000 	b	320c <l3077>

00003208 <l3076>:
    3208:	eafffff8 	b	31f0 <l3070>

0000320c <l3077>:
    320c:	b35e010f 	cmplt	lr, #-1073741821	; 0xc0000003

00003210 <l3078>:
    3210:	e1a00000 	nop			; (mov r0, r0)

00003214 <l3079>:
    3214:	20661009 	rsbcs	r1, r6, r9

00003218 <l3080>:
    3218:	e00b8001 	and	r8, fp, r1

0000321c <l3081>:
    321c:	e1b09012 	lsls	r9, r2, r0

00003220 <l3082>:
    3220:	22f5e316 	rscscs	lr, r5, #1476395008	; 0x58000000

00003224 <l3083>:
    3224:	ea000000 	b	322c <l3085>

00003228 <l3084>:
    3228:	42503f6e 	subsmi	r3, r0, #440	; 0x1b8

0000322c <l3085>:
    322c:	80fe9c7b 	rscshi	r9, lr, fp, ror ip

00003230 <l3086>:
    3230:	e1a00000 	nop			; (mov r0, r0)

00003234 <l3087>:
    3234:	e042ae27 	sub	sl, r2, r7, lsr #28

00003238 <l3088>:
    3238:	e0e38408 	rsc	r8, r3, r8, lsl #8

0000323c <l3089>:
    323c:	ea000002 	b	324c <l3093>

00003240 <l3090>:
    3240:	e2801025 	add	r1, r0, #37	; 0x25

00003244 <l3091>:
    3244:	e11e000a 	tst	lr, sl

00003248 <l3092>:
    3248:	ea000000 	b	3250 <l3094>

0000324c <l3093>:
    324c:	eafffffc 	b	3244 <l3091>

00003250 <l3094>:
    3250:	aa000003 	bge	3264 <l3099>

00003254 <l3095>:
    3254:	e28010ee 	add	r1, r0, #238	; 0xee

00003258 <l3096>:
    3258:	e0157115 	ands	r7, r5, r5, lsl r1

0000325c <l3097>:
    325c:	e1a01e82 	lsl	r1, r2, #29

00003260 <l3098>:
    3260:	ea000000 	b	3268 <l3100>

00003264 <l3099>:
    3264:	eafffffb 	b	3258 <l3096>

00003268 <l3100>:
    3268:	03320f87 	teqeq	r2, #540	; 0x21c

0000326c <l3101>:
    326c:	e21e62d5 	ands	r6, lr, #1342177293	; 0x5000000d

00003270 <l3102>:
    3270:	aa000002 	bge	3280 <l3106>

00003274 <l3103>:
    3274:	e2801089 	add	r1, r0, #137	; 0x89

00003278 <l3104>:
    3278:	e04a2007 	sub	r2, sl, r7

0000327c <l3105>:
    327c:	ea000000 	b	3284 <l3107>

00003280 <l3106>:
    3280:	eafffffc 	b	3278 <l3104>

00003284 <l3107>:
    3284:	e35e0927 	cmp	lr, #638976	; 0x9c000

00003288 <l3108>:
    3288:	b0214778 	eorlt	r4, r1, r8, ror r7

0000328c <l3109>:
    328c:	ea000005 	b	32a8 <l3116>

00003290 <l3110>:
    3290:	d2f23e2d 	rscsle	r3, r2, #720	; 0x2d0

00003294 <l3111>:
    3294:	4079b307 	rsbsmi	fp, r9, r7, lsl #6

00003298 <l3112>:
    3298:	90e1a53b 	rscls	sl, r1, fp, lsr r5

0000329c <l3113>:
    329c:	e0e3977a 	rsc	r9, r3, sl, ror r7

000032a0 <l3114>:
    32a0:	e3f00bae 	mvns	r0, #178176	; 0x2b800

000032a4 <l3115>:
    32a4:	d3cf3c31 	bicle	r3, pc, #12544	; 0x3100

000032a8 <l3116>:
    32a8:	b04abe14 	sublt	fp, sl, r4, lsl lr

000032ac <l3117>:
    32ac:	6a000006 	bvs	32cc <l3125>

000032b0 <l3118>:
    32b0:	e2801099 	add	r1, r0, #153	; 0x99

000032b4 <l3119>:
    32b4:	d0459008 	suble	r9, r5, r8

000032b8 <l3120>:
    32b8:	803e7415 	eorshi	r7, lr, r5, lsl r4

000032bc <l3121>:
    32bc:	519aa002 	orrspl	sl, sl, r2

000032c0 <l3122>:
    32c0:	709b106e 	addsvc	r1, fp, lr, rrx

000032c4 <l3123>:
    32c4:	a1dac005 	bicsge	ip, sl, r5

000032c8 <l3124>:
    32c8:	ea000000 	b	32d0 <l3126>

000032cc <l3125>:
    32cc:	eafffff8 	b	32b4 <l3119>

000032d0 <l3126>:
    32d0:	e22488d7 	eor	r8, r4, #14090240	; 0xd70000

000032d4 <l3127>:
    32d4:	a3c8a6c7 	bicge	sl, r8, #208666624	; 0xc700000

000032d8 <l3128>:
    32d8:	4097c000 	addsmi	ip, r7, r0

000032dc <l3129>:
    32dc:	e089800b 	add	r8, r9, fp

000032e0 <l3130>:
    32e0:	908bcc3b 	addls	ip, fp, fp, lsr ip

000032e4 <l3131>:
    32e4:	63c6127f 	bicvs	r1, r6, #-268435449	; 0xf0000007

000032e8 <l3132>:
    32e8:	d0e38433 	rscle	r8, r3, r3, lsr r4

000032ec <l3133>:
    32ec:	41170ae1 	tstmi	r7, r1, ror #21

000032f0 <l3134>:
    32f0:	21720915 	cmncs	r2, r5, lsl r9

000032f4 <l3135>:
    32f4:	e2086bb5 	and	r6, r8, #185344	; 0x2d400

000032f8 <l3136>:
    32f8:	21956a69 	orrscs	r6, r5, r9, ror #20

000032fc <l3137>:
    32fc:	717e0061 	cmnvc	lr, r1, rrx

00003300 <l3138>:
    3300:	5031a31b 	eorspl	sl, r1, fp, lsl r3

00003304 <l3139>:
    3304:	e1a00000 	nop			; (mov r0, r0)

00003308 <l3140>:
    3308:	3009700a 	andcc	r7, r9, sl

0000330c <l3141>:
    330c:	e0659b10 	rsb	r9, r5, r0, lsl fp

00003310 <l3142>:
    3310:	601eeb1a 	andsvs	lr, lr, sl, lsl fp

00003314 <l3143>:
    3314:	ea000003 	b	3328 <l3148>

00003318 <l3144>:
    3318:	e1370d26 	teq	r7, r6, lsr #26

0000331c <l3145>:
    331c:	e1780259 	cmn	r8, r9, asr r2

00003320 <l3146>:
    3320:	e19b3009 	orrs	r3, fp, r9

00003324 <l3147>:
    3324:	c1740008 	cmngt	r4, r8

00003328 <l3148>:
    3328:	73100be2 	tstvc	r0, #231424	; 0x38800

0000332c <l3149>:
    332c:	e1750211 	cmn	r5, r1, lsl r2

00003330 <l3150>:
    3330:	906e0b5b 	rsbls	r0, lr, fp, asr fp

00003334 <l3151>:
    3334:	23e024b3 	mvncs	r2, #-1291845632	; 0xb3000000

00003338 <l3152>:
    3338:	a0d50bac 	sbcsge	r0, r5, ip, lsr #23

0000333c <l3153>:
    333c:	e31c0869 	tst	ip, #6881280	; 0x690000

00003340 <l3154>:
    3340:	e1a01007 	mov	r1, r7

00003344 <l3155>:
    3344:	b0a023eb 	adclt	r2, r0, fp, ror #7

00003348 <l3156>:
    3348:	00f53001 	rscseq	r3, r5, r1

0000334c <l3157>:
    334c:	e17c0000 	cmn	ip, r0

00003350 <l3158>:
    3350:	718fafa0 	orrvc	sl, pc, r0, lsr #31

00003354 <l3159>:
    3354:	e3a00b59 	mov	r0, #91136	; 0x16400

00003358 <l3160>:
    3358:	303eb000 	eorscc	fp, lr, r0

0000335c <l3161>:
    335c:	003a0009 	eorseq	r0, sl, r9

00003360 <l3162>:
    3360:	e0163878 	ands	r3, r6, r8, ror r8

00003364 <l3163>:
    3364:	e0a75be0 	adc	r5, r7, r0, ror #23

00003368 <l3164>:
    3368:	01730007 	cmneq	r3, r7

0000336c <l3165>:
    336c:	817a0000 	cmnhi	sl, r0

00003370 <l3166>:
    3370:	605ee00c 	subsvs	lr, lr, ip

00003374 <l3167>:
    3374:	ea000001 	b	3380 <l3170>

00003378 <l3168>:
    3378:	a1350288 	teqge	r5, r8, lsl #5

0000337c <l3169>:
    337c:	91860003 	orrls	r0, r6, r3

00003380 <l3170>:
    3380:	23350d1b 	teqcs	r5, #1728	; 0x6c0

00003384 <l3171>:
    3384:	e1120005 	tst	r2, r5

00003388 <l3172>:
    3388:	60d1000c 	sbcsvs	r0, r1, ip

0000338c <l3173>:
    338c:	802b600a 	eorhi	r6, fp, sl

00003390 <l3174>:
    3390:	b0bb56c3 	adcslt	r5, fp, r3, asr #13

00003394 <l3175>:
    3394:	405496a5 	subsmi	r9, r4, r5, lsr #13

00003398 <l3176>:
    3398:	e0a69003 	adc	r9, r6, r3

0000339c <l3177>:
    339c:	e0274014 	eor	r4, r7, r4, lsl r0

000033a0 <l3178>:
    33a0:	e0e6100c 	rsc	r1, r6, ip

000033a4 <l3179>:
    33a4:	b17c0a37 	cmnlt	ip, r7, lsr sl

000033a8 <l3180>:
    33a8:	e9ade000 	stmib	sp!, {sp, lr, pc}

000033ac <l3181>:
    33ac:	631701d9 	tstvs	r7, #1073741878	; 0x40000036

000033b0 <l3182>:
    33b0:	03801a41 	orreq	r1, r0, #266240	; 0x41000

000033b4 <l3183>:
    33b4:	721540bd 	andsvc	r4, r5, #189	; 0xbd

000033b8 <l3184>:
    33b8:	10479003 	subne	r9, r7, r3

000033bc <l3185>:
    33bc:	e01b8f8c 	ands	r8, fp, ip, lsl #31

000033c0 <l3186>:
    33c0:	4a000003 	bmi	33d4 <l3191>

000033c4 <l3187>:
    33c4:	e280109e 	add	r1, r0, #158	; 0x9e

000033c8 <l3188>:
    33c8:	e04b8712 	sub	r8, fp, r2, lsl r7

000033cc <l3189>:
    33cc:	e193c006 	orrs	ip, r3, r6

000033d0 <l3190>:
    33d0:	ea000000 	b	33d8 <l3192>

000033d4 <l3191>:
    33d4:	eafffffb 	b	33c8 <l3188>

000033d8 <l3192>:
    33d8:	d0862dc0 	addle	r2, r6, r0, asr #27

000033dc <l3193>:
    33dc:	e0935233 	adds	r5, r3, r3, lsr r2

000033e0 <l3194>:
    33e0:	d3b0af55 	movsle	sl, #340	; 0x154

000033e4 <l3195>:
    33e4:	e0203003 	eor	r3, r0, r3

000033e8 <l3196>:
    33e8:	e05bcc50 	subs	ip, fp, r0, asr ip

000033ec <l3197>:
    33ec:	e1cb3587 	bic	r3, fp, r7, lsl #11

000033f0 <l3198>:
    33f0:	1174033e 	cmnne	r4, lr, lsr r3

000033f4 <l3199>:
    33f4:	615a0f69 	cmpvs	sl, r9, ror #30

000033f8 <l3200>:
    33f8:	e1590c75 	cmp	r9, r5, ror ip

000033fc <l3201>:
    33fc:	81f0a000 	mvnshi	sl, r0

00003400 <l3202>:
    3400:	6351011f 	cmpvs	r1, #-1073741817	; 0xc0000007

00003404 <l3203>:
    3404:	e020806c 	eor	r8, r0, ip, rrx

00003408 <l3204>:
    3408:	ea000008 	b	3430 <l3214>

0000340c <l3205>:
    340c:	e1a023ab 	lsr	r2, fp, #7

00003410 <l3206>:
    3410:	33d24b0d 	bicscc	r4, r2, #13312	; 0x3400

00003414 <l3207>:
    3414:	e1b04069 	rrxs	r4, r9

00003418 <l3208>:
    3418:	305bb805 	subscc	fp, fp, r5, lsl #16

0000341c <l3209>:
    341c:	d20a480d 	andle	r4, sl, #851968	; 0xd0000

00003420 <l3210>:
    3420:	e2cb6dee 	sbc	r6, fp, #15232	; 0x3b80

00003424 <l3211>:
    3424:	e16f9f14 	clz	r9, r4

00003428 <l3212>:
    3428:	a05c7000 	subsge	r7, ip, r0

0000342c <l3213>:
    342c:	211f0065 	tstcs	pc, r5, rrx

00003430 <l3214>:
    3430:	e16f1f15 	clz	r1, r5

00003434 <l3215>:
    3434:	a1540003 	cmpge	r4, r3

00003438 <l3216>:
    3438:	e3b04b33 	movs	r4, #52224	; 0xcc00

0000343c <l3217>:
    343c:	e92d0022 	push	{r1, r5}

00003440 <l3218>:
    3440:	d0e55912 	rscle	r5, r5, r2, lsl r9

00003444 <l3219>:
    3444:	d1c48137 	bicle	r8, r4, r7, lsr r1

00003448 <l3220>:
    3448:	e1380341 	teq	r8, r1, asr #6

0000344c <l3221>:
    344c:	6a000006 	bvs	346c <l3229>

00003450 <l3222>:
    3450:	e1cb7a5a 	bic	r7, fp, sl, asr sl

00003454 <l3223>:
    3454:	416f4f1a 	clzmi	r4, sl

00003458 <l3224>:
    3458:	d05a7bae 	subsle	r7, sl, lr, lsr #23

0000345c <l3225>:
    345c:	e0850e20 	add	r0, r5, r0, lsr #28

00003460 <l3226>:
    3460:	10d99547 	sbcsne	r9, r9, r7, asr #10

00003464 <l3227>:
    3464:	71560c82 	cmpvc	r6, r2, lsl #25

00003468 <l3228>:
    3468:	e1710554 	cmn	r1, r4, asr r5

0000346c <l3229>:
    346c:	803f5066 	eorshi	r5, pc, r6, rrx

00003470 <l3230>:
    3470:	e3520ded 	cmp	r2, #15168	; 0x3b40

00003474 <l3231>:
    3474:	20e7906c 	rsccs	r9, r7, ip, rrx

00003478 <l3232>:
    3478:	e1c6520e 	bic	r5, r6, lr, lsl #4

0000347c <l3233>:
    347c:	ea000003 	b	3490 <l3238>

00003480 <l3234>:
    3480:	e2801014 	add	r1, r0, #20

00003484 <l3235>:
    3484:	a19b1005 	orrsge	r1, fp, r5

00003488 <l3236>:
    3488:	e17e0066 	cmn	lr, r6, rrx

0000348c <l3237>:
    348c:	ea000000 	b	3494 <l3239>

00003490 <l3238>:
    3490:	eafffffb 	b	3484 <l3235>

00003494 <l3239>:
    3494:	225b4b2f 	subscs	r4, fp, #48128	; 0xbc00

00003498 <l3240>:
    3498:	e3f0ac11 	mvns	sl, #4352	; 0x1100

0000349c <l3241>:
    349c:	e31f00a5 	tst	pc, #165	; 0xa5

000034a0 <l3242>:
    34a0:	e3180802 	tst	r8, #131072	; 0x20000

000034a4 <l3243>:
    34a4:	20a32005 	adccs	r2, r3, r5

000034a8 <l3244>:
    34a8:	e045b004 	sub	fp, r5, r4

000034ac <l3245>:
    34ac:	e034900b 	eors	r9, r4, fp

000034b0 <l3246>:
    34b0:	e184bb7a 	orr	fp, r4, sl, ror fp

000034b4 <l3247>:
    34b4:	aa000000 	bge	34bc <l3249>

000034b8 <l3248>:
    34b8:	e0441c78 	sub	r1, r4, r8, ror ip

000034bc <l3249>:
    34bc:	606fb003 	rsbvs	fp, pc, r3

000034c0 <l3250>:
    34c0:	ea000007 	b	34e4 <l3259>

000034c4 <l3251>:
    34c4:	d1b05005 	movsle	r5, r5

000034c8 <l3252>:
    34c8:	9097c719 	addsls	ip, r7, r9, lsl r7

000034cc <l3253>:
    34cc:	00a63b15 	adceq	r3, r6, r5, lsl fp

000034d0 <l3254>:
    34d0:	c16faf18 	clzgt	sl, r8

000034d4 <l3255>:
    34d4:	9135000a 	teqls	r5, sl

000034d8 <l3256>:
    34d8:	70028067 	andvc	r8, r2, r7, rrx

000034dc <l3257>:
    34dc:	e03c6002 	eors	r6, ip, r2

000034e0 <l3258>:
    34e0:	e3e0c02f 	mvn	ip, #47	; 0x2f

000034e4 <l3259>:
    34e4:	e0df7060 	sbcs	r7, pc, r0, rrx

000034e8 <l3260>:
    34e8:	715e05c8 	cmpvc	lr, r8, asr #11

000034ec <l3261>:
    34ec:	43a00a52 	movmi	r0, #335872	; 0x52000

000034f0 <l3262>:
    34f0:	ea000004 	b	3508 <l3268>

000034f4 <l3263>:
    34f4:	916fcf18 	clzls	ip, r8

000034f8 <l3264>:
    34f8:	e06f400a 	rsb	r4, pc, sl

000034fc <l3265>:
    34fc:	d33700d5 	teqle	r7, #213	; 0xd5

00003500 <l3266>:
    3500:	e18041e8 	orr	r4, r0, r8, ror #3

00003504 <l3267>:
    3504:	13890e5a 	orrne	r0, r9, #1440	; 0x5a0

00003508 <l3268>:
    3508:	d08bbf8c 	addle	fp, fp, ip, lsl #31

0000350c <l3269>:
    350c:	1057a00f 	subsne	sl, r7, pc

00003510 <l3270>:
    3510:	b3380326 	teqlt	r8, #-1744830464	; 0x98000000

00003514 <l3271>:
    3514:	e11b0068 	tst	fp, r8, rrx

00003518 <l3272>:
    3518:	c16f1f1a 	clzgt	r1, sl

0000351c <l3273>:
    351c:	304a475a 	subcc	r4, sl, sl, asr r7

00003520 <l3274>:
    3520:	e0423005 	sub	r3, r2, r5

00003524 <l3275>:
    3524:	e11b006e 	tst	fp, lr, rrx

00003528 <l3276>:
    3528:	500e6008 	andpl	r6, lr, r8

0000352c <l3277>:
    352c:	e1540e1e 	cmp	r4, lr, lsl lr

00003530 <l3278>:
    3530:	c1500001 	cmpgt	r0, r1

00003534 <l3279>:
    3534:	018aede8 	orreq	lr, sl, r8, ror #27

00003538 <l3280>:
    3538:	e3a0e024 	mov	lr, #36	; 0x24

0000353c <l3281>:
    353c:	e78d600e 	str	r6, [sp, lr]

00003540 <l3282>:
    3540:	e052000b 	subs	r0, r2, fp

00003544 <l3283>:
    3544:	e13f006b 	teq	pc, fp, rrx

00003548 <l3284>:
    3548:	e3a07007 	mov	r7, #7

0000354c <l3285>:
    354c:	e75d9007 	ldrb	r9, [sp, -r7]

00003550 <l3286>:
    3550:	0a000006 	beq	3570 <l3294>

00003554 <l3287>:
    3554:	8036141e 	eorshi	r1, r6, lr, lsl r4

00003558 <l3288>:
    3558:	813e0b06 	teqhi	lr, r6, lsl #22

0000355c <l3289>:
    355c:	d016b009 	andsle	fp, r6, r9

00003560 <l3290>:
    3560:	b0696063 	rsblt	r6, r9, r3, rrx

00003564 <l3291>:
    3564:	4088e33a 	addmi	lr, r8, sl, lsr r3

00003568 <l3292>:
    3568:	e37e0537 	cmn	lr, #230686720	; 0xdc00000

0000356c <l3293>:
    356c:	e16fef11 	clz	lr, r1

00003570 <l3294>:
    3570:	a1e0a005 	mvnge	sl, r5

00003574 <l3295>:
    3574:	e150077e 	cmp	r0, lr, ror r7

00003578 <l3296>:
    3578:	e2540465 	subs	r0, r4, #1694498816	; 0x65000000

0000357c <l3297>:
    357c:	513c0251 	teqpl	ip, r1, asr r2

00003580 <l3298>:
    3580:	e1a00000 	nop			; (mov r0, r0)

00003584 <l3299>:
    3584:	ea000001 	b	3590 <l3302>

00003588 <l3300>:
    3588:	e16f2f14 	clz	r2, r4

0000358c <l3301>:
    358c:	a0882a43 	addge	r2, r8, r3, asr #20

00003590 <l3302>:
    3590:	b00f6781 	andlt	r6, pc, r1, lsl #15

00003594 <l3303>:
    3594:	ea000003 	b	35a8 <l3308>

00003598 <l3304>:
    3598:	e28010f9 	add	r1, r0, #249	; 0xf9

0000359c <l3305>:
    359c:	917605c0 	cmnls	r6, r0, asr #11

000035a0 <l3306>:
    35a0:	e155000a 	cmp	r5, sl

000035a4 <l3307>:
    35a4:	ea000000 	b	35ac <l3309>

000035a8 <l3308>:
    35a8:	eafffffb 	b	359c <l3305>

000035ac <l3309>:
    35ac:	e48db03c 	str	fp, [sp], #60	; 0x3c

000035b0 <l3310>:
    35b0:	e3a0c042 	mov	ip, #66	; 0x42

000035b4 <l3311>:
    35b4:	375dc00c 	ldrbcc	ip, [sp, -ip]

000035b8 <l3312>:
    35b8:	e1a077ce 	asr	r7, lr, #15

000035bc <l3313>:
    35bc:	2028a001 	eorcs	sl, r8, r1

000035c0 <l3314>:
    35c0:	ea000000 	b	35c8 <l3316>

000035c4 <l3315>:
    35c4:	e1e06913 	mvn	r6, r3, lsl r9

000035c8 <l3316>:
    35c8:	82e40655 	rschi	r0, r4, #89128960	; 0x5500000

000035cc <l3317>:
    35cc:	904a5271 	subls	r5, sl, r1, ror r2

000035d0 <l3318>:
    35d0:	e025a001 	eor	sl, r5, r1

000035d4 <l3319>:
    35d4:	e054e969 	subs	lr, r4, r9, ror #18

000035d8 <l3320>:
    35d8:	e1750002 	cmn	r5, r2

000035dc <l3321>:
    35dc:	e52d2048 	str	r2, [sp, #-72]!	; 0x48

000035e0 <l3322>:
    35e0:	e5bd1004 	ldr	r1, [sp, #4]!

000035e4 <l3323>:
    35e4:	e035e067 	eors	lr, r5, r7, rrx

000035e8 <l3324>:
    35e8:	e31f0a21 	tst	pc, #135168	; 0x21000

000035ec <l3325>:
    35ec:	e15b000a 	cmp	fp, sl

000035f0 <l3326>:
    35f0:	c138000c 	teqgt	r8, ip

000035f4 <l3327>:
    35f4:	0080e003 	addeq	lr, r0, r3

000035f8 <l3328>:
    35f8:	42980857 	addsmi	r0, r8, #5701632	; 0x570000

000035fc <l3329>:
    35fc:	d3a080e9 	movle	r8, #233	; 0xe9

00003600 <l3330>:
    3600:	e3300b3f 	teq	r0, #64512	; 0xfc00

00003604 <l3331>:
    3604:	a05e206b 	subsge	r2, lr, fp, rrx

00003608 <l3332>:
    3608:	e0020061 	and	r0, r2, r1, rrx

0000360c <l3333>:
    360c:	e05a7ea8 	subs	r7, sl, r8, lsr #29

00003610 <l3334>:
    3610:	e9bd4398 	ldmib	sp!, {r3, r4, r7, r8, r9, lr}

00003614 <l3335>:
    3614:	e2473245 	sub	r3, r7, #1342177284	; 0x50000004

00003618 <l3336>:
    3618:	a0d81e3c 	sbcsge	r1, r8, ip, lsr lr

0000361c <l3337>:
    361c:	50674a2f 	rsbpl	r4, r7, pc, lsr #20

00003620 <l3338>:
    3620:	2019800f 	andscs	r8, r9, pc

00003624 <l3339>:
    3624:	b35b0943 	cmplt	fp, #1097728	; 0x10c000

00003628 <l3340>:
    3628:	e09c7fe1 	adds	r7, ip, r1, ror #31

0000362c <l3341>:
    362c:	d3780c26 	cmnle	r8, #9728	; 0x2600

00003630 <l3342>:
    3630:	e3a03023 	mov	r3, #35	; 0x23

00003634 <l3343>:
    3634:	e7cd2003 	strb	r2, [sp, r3]

00003638 <l3344>:
    3638:	d07e0652 	rsbsle	r0, lr, r2, asr r6

0000363c <l3345>:
    363c:	811c0002 	tsthi	ip, r2

00003640 <l3346>:
    3640:	e3d2722e 	bics	r7, r2, #-536870910	; 0xe0000002

00003644 <l3347>:
    3644:	40246602 	eormi	r6, r4, r2, lsl #12

00003648 <l3348>:
    3648:	e17b0009 	cmn	fp, r9

0000364c <l3349>:
    364c:	41f06003 	mvnsmi	r6, r3

00003650 <l3350>:
    3650:	c16f1f19 	clzgt	r1, r9

00003654 <l3351>:
    3654:	aa000006 	bge	3674 <l3359>

00003658 <l3352>:
    3658:	90565912 	subsls	r5, r6, r2, lsl r9

0000365c <l3353>:
    365c:	e1530060 	cmp	r3, r0, rrx

00003660 <l3354>:
    3660:	81c0a84a 	bichi	sl, r0, sl, asr #16

00003664 <l3355>:
    3664:	c25ca0a2 	subsgt	sl, ip, #162	; 0xa2

00003668 <l3356>:
    3668:	e339045f 	teq	r9, #1593835520	; 0x5f000000

0000366c <l3357>:
    366c:	e1320005 	teq	r2, r5

00003670 <l3358>:
    3670:	c1d2b00c 	bicsgt	fp, r2, ip

00003674 <l3359>:
    3674:	905eb00f 	subsls	fp, lr, pc

00003678 <l3360>:
    3678:	0240111d 	subeq	r1, r0, #1073741831	; 0x40000007

0000367c <l3361>:
    367c:	41180005 	tstmi	r8, r5

00003680 <l3362>:
    3680:	e9bd4f9a 	ldmib	sp!, {r1, r3, r4, r7, r8, r9, sl, fp, lr}

00003684 <l3363>:
    3684:	91760009 	cmnls	r6, r9

00003688 <l3364>:
    3688:	e1e03e7e 	mvn	r3, lr, ror lr

0000368c <l3365>:
    368c:	c0f69c3b 	rscsgt	r9, r6, fp, lsr ip

00003690 <l3366>:
    3690:	e92d2000 	stmfd	sp!, {sp}

00003694 <l3367>:
    3694:	613f0ca6 	teqvs	pc, r6, lsr #25

00003698 <l3368>:
    3698:	e0736009 	rsbs	r6, r3, r9

0000369c <l3369>:
    369c:	e1b05b28 	lsrs	r5, r8, #22

000036a0 <l3370>:
    36a0:	d1700e01 	cmnle	r0, r1, lsl #28

000036a4 <l3371>:
    36a4:	713e000e 	teqvc	lr, lr

000036a8 <l3372>:
    36a8:	c3d0cd99 	bicsgt	ip, r0, #9792	; 0x2640

000036ac <l3373>:
    36ac:	e2d29506 	sbcs	r9, r2, #25165824	; 0x1800000

000036b0 <l3374>:
    36b0:	e18b500f 	orr	r5, fp, pc

000036b4 <l3375>:
    36b4:	316f0f13 	clzcc	r0, r3

000036b8 <l3376>:
    36b8:	e3140303 	tst	r4, #201326592	; 0xc000000

000036bc <l3377>:
    36bc:	e3e070c0 	mvn	r7, #192	; 0xc0

000036c0 <l3378>:
    36c0:	9233530a 	eorsls	r5, r3, #671088640	; 0x28000000

000036c4 <l3379>:
    36c4:	a16faf1b 	clzge	sl, fp

000036c8 <l3380>:
    36c8:	e238075f 	eors	r0, r8, #24903680	; 0x17c0000

000036cc <l3381>:
    36cc:	013700e1 	teqeq	r7, r1, ror #1

000036d0 <l3382>:
    36d0:	e0f39416 	rscs	r9, r3, r6, lsl r4

000036d4 <l3383>:
    36d4:	e28c8807 	add	r8, ip, #458752	; 0x70000

000036d8 <l3384>:
    36d8:	0099e7a4 	addseq	lr, r9, r4, lsr #15

000036dc <l3385>:
    36dc:	e1730005 	cmn	r3, r5

000036e0 <l3386>:
    36e0:	c1150065 	tstgt	r5, r5, rrx

000036e4 <l3387>:
    36e4:	e08c9966 	add	r9, ip, r6, ror #18

000036e8 <l3388>:
    36e8:	e93d539b 	ldmdb	sp!, {r0, r1, r3, r4, r7, r8, r9, ip, lr}

000036ec <l3389>:
    36ec:	72afa16a 	adcvc	sl, pc, #-2147483622	; 0x8000001a

000036f0 <l3390>:
    36f0:	e0bb5614 	adcs	r5, fp, r4, lsl r6

000036f4 <l3391>:
    36f4:	81c52064 	bichi	r2, r5, r4, rrx

000036f8 <l3392>:
    36f8:	e2f32723 	rscs	r2, r3, #9175040	; 0x8c0000

000036fc <l3393>:
    36fc:	e0aaebe7 	adc	lr, sl, r7, ror #23

00003700 <l3394>:
    3700:	e5ad1004 	str	r1, [sp, #4]!

00003704 <l3395>:
    3704:	e0e58009 	rsc	r8, r5, r9

00003708 <l3396>:
    3708:	53c4292e 	bicpl	r2, r4, #753664	; 0xb8000

0000370c <l3397>:
    370c:	e009706e 	and	r7, r9, lr, rrx

00003710 <l3398>:
    3710:	6a000006 	bvs	3730 <l3406>

00003714 <l3399>:
    3714:	40131a06 	andsmi	r1, r3, r6, lsl #20

00003718 <l3400>:
    3718:	e19e006a 	orrs	r0, lr, sl, rrx

0000371c <l3401>:
    371c:	305fcf07 	subscc	ip, pc, r7, lsl #30

00003720 <l3402>:
    3720:	e16f3f12 	clz	r3, r2

00003724 <l3403>:
    3724:	e15f0d48 	cmp	pc, r8, asr #26

00003728 <l3404>:
    3728:	72f5cb75 	rscsvc	ip, r5, #119808	; 0x1d400

0000372c <l3405>:
    372c:	e17a0b73 	cmn	sl, r3, ror fp

00003730 <l3406>:
    3730:	e1a0042b 	lsr	r0, fp, #8

00003734 <l3407>:
    3734:	e1190061 	tst	r9, r1, rrx

00003738 <l3408>:
    3738:	613b0c3e 	teqvs	fp, lr, lsr ip

0000373c <l3409>:
    373c:	ea000004 	b	3754 <l3415>

00003740 <l3410>:
    3740:	e28010ef 	add	r1, r0, #239	; 0xef

00003744 <l3411>:
    3744:	601ceeac 	andsvs	lr, ip, ip, lsr #29

00003748 <l3412>:
    3748:	d1b06003 	movsle	r6, r3

0000374c <l3413>:
    374c:	a17a0064 	cmnge	sl, r4, rrx

00003750 <l3414>:
    3750:	ea000000 	b	3758 <l3416>

00003754 <l3415>:
    3754:	eafffffa 	b	3744 <l3411>

00003758 <l3416>:
    3758:	116f7f1b 	clzne	r7, fp

0000375c <l3417>:
    375c:	5007a038 	andpl	sl, r7, r8, lsr r0

00003760 <l3418>:
    3760:	d130001b 	teqle	r0, fp, lsl r0

00003764 <l3419>:
    3764:	d19ea979 	orrsle	sl, lr, r9, ror r9

00003768 <l3420>:
    3768:	90bcc069 	adcsls	ip, ip, r9, rrx

0000376c <l3421>:
    376c:	0a000002 	beq	377c <l3425>

00003770 <l3422>:
    3770:	824660dd 	subhi	r6, r6, #221	; 0xdd

00003774 <l3423>:
    3774:	1044600e 	subne	r6, r4, lr

00003778 <l3424>:
    3778:	e150025e 	cmp	r0, lr, asr r2

0000377c <l3425>:
    377c:	22343008 	eorscs	r3, r4, #8

00003780 <l3426>:
    3780:	c90d0080 	stmdbgt	sp, {r7}

00003784 <l3427>:
    3784:	e1854004 	orr	r4, r5, r4

00003788 <l3428>:
    3788:	c02a8338 	eorgt	r8, sl, r8, lsr r3

0000378c <l3429>:
    378c:	80731948 	rsbshi	r1, r3, r8, asr #18

00003790 <l3430>:
    3790:	63e0850e 	mvnvs	r8, #58720256	; 0x3800000

00003794 <l3431>:
    3794:	e3f04b91 	mvns	r4, #148480	; 0x24400

00003798 <l3432>:
    3798:	a083500e 	addge	r5, r3, lr

0000379c <l3433>:
    379c:	102f9005 	eorne	r9, pc, r5

000037a0 <l3434>:
    37a0:	c1310000 	teqgt	r1, r0

000037a4 <l3435>:
    37a4:	3081200c 	addcc	r2, r1, ip

000037a8 <l3436>:
    37a8:	e0d78068 	sbcs	r8, r7, r8, rrx

000037ac <l3437>:
    37ac:	e396a5f5 	orrs	sl, r6, #1027604480	; 0x3d400000

000037b0 <l3438>:
    37b0:	e0658003 	rsb	r8, r5, r3

000037b4 <l3439>:
    37b4:	ea000007 	b	37d8 <l3448>

000037b8 <l3440>:
    37b8:	01e09009 	mvneq	r9, r9

000037bc <l3441>:
    37bc:	73760702 	cmnvc	r6, #524288	; 0x80000

000037c0 <l3442>:
    37c0:	e3969731 	orrs	r9, r6, #12845056	; 0xc40000

000037c4 <l3443>:
    37c4:	31a06008 	movcc	r6, r8

000037c8 <l3444>:
    37c8:	e05f3008 	subs	r3, pc, r8

000037cc <l3445>:
    37cc:	00fbec2f 	rscseq	lr, fp, pc, lsr #24

000037d0 <l3446>:
    37d0:	e3cea926 	bic	sl, lr, #622592	; 0x98000

000037d4 <l3447>:
    37d4:	0058300b 	subseq	r3, r8, fp

000037d8 <l3448>:
    37d8:	80912d06 	addshi	r2, r1, r6, lsl #26

000037dc <l3449>:
    37dc:	e1390206 	teq	r9, r6, lsl #4

000037e0 <l3450>:
    37e0:	aa000006 	bge	3800 <l3458>

000037e4 <l3451>:
    37e4:	e3170405 	tst	r7, #83886080	; 0x5000000

000037e8 <l3452>:
    37e8:	e091148e 	adds	r1, r1, lr, lsl #9

000037ec <l3453>:
    37ec:	b1f01815 	mvnslt	r1, r5, lsl r8

000037f0 <l3454>:
    37f0:	e16faf17 	clz	sl, r7

000037f4 <l3455>:
    37f4:	e1816000 	orr	r6, r1, r0

000037f8 <l3456>:
    37f8:	01d5395e 	bicseq	r3, r5, lr, asr r9

000037fc <l3457>:
    37fc:	91a0eba1 	lsrls	lr, r1, #23

00003800 <l3458>:
    3800:	d2f7af49 	rscsle	sl, r7, #292	; 0x124

00003804 <l3459>:
    3804:	8233cb63 	eorshi	ip, r3, #101376	; 0x18c00

00003808 <l3460>:
    3808:	e234e9de 	eors	lr, r4, #3637248	; 0x378000

0000380c <l3461>:
    380c:	50db6c79 	sbcspl	r6, fp, r9, ror ip

00003810 <l3462>:
    3810:	71110068 	tstvc	r1, r8, rrx

00003814 <l3463>:
    3814:	8071c8e6 	rsbshi	ip, r1, r6, ror #17

00003818 <l3464>:
    3818:	e5cd1008 	strb	r1, [sp, #8]

0000381c <l3465>:
    381c:	e3a07017 	mov	r7, #23

00003820 <l3466>:
    3820:	e74d0007 	strb	r0, [sp, -r7]

00003824 <l3467>:
    3824:	e3a0101c 	mov	r1, #28

00003828 <l3468>:
    3828:	e73de001 	ldr	lr, [sp, -r1]!

0000382c <l3469>:
    382c:	03e04d07 	mvneq	r4, #448	; 0x1c0

00003830 <l3470>:
    3830:	b0bbb732 	adcslt	fp, fp, r2, lsr r7

00003834 <l3471>:
    3834:	b1a0b062 	rrxlt	fp, r2

00003838 <l3472>:
    3838:	e036bb27 	eors	fp, r6, r7, lsr #22

0000383c <l3473>:
    383c:	e256c931 	subs	ip, r6, #802816	; 0xc4000

00003840 <l3474>:
    3840:	e9adc824 	stmib	sp!, {r2, r5, fp, lr, pc}

00003844 <l3475>:
    3844:	e16f0f17 	clz	r0, r7

00003848 <l3476>:
    3848:	713a0065 	teqvc	sl, r5, rrx

0000384c <l3477>:
    384c:	eaffffff 	b	3850 <l3478>

00003850 <l3478>:
    3850:	90bc600f 	adcsls	r6, ip, pc

00003854 <l3479>:
    3854:	b0b2ee21 	adcslt	lr, r2, r1, lsr #28

00003858 <l3480>:
    3858:	e26c01d6 	rsb	r0, ip, #-2147483595	; 0x80000035

0000385c <l3481>:
    385c:	e1d74000 	bics	r4, r7, r0

00003860 <l3482>:
    3860:	22028121 	andcs	r8, r2, #1073741832	; 0x40000008

00003864 <l3483>:
    3864:	7a000001 	bvc	3870 <l3486>

00003868 <l3484>:
    3868:	a31e01d3 	tstge	lr, #-1073741772	; 0xc0000034

0000386c <l3485>:
    386c:	e33b0131 	teq	fp, #1073741836	; 0x4000000c

00003870 <l3486>:
    3870:	c0561630 	subsgt	r1, r6, r0, lsr r6

00003874 <l3487>:
    3874:	819e4004 	orrshi	r4, lr, r4

00003878 <l3488>:
    3878:	e1330003 	teq	r3, r3

0000387c <l3489>:
    387c:	e13b0474 	teq	fp, r4, ror r4

00003880 <l3490>:
    3880:	004b3a56 	subeq	r3, fp, r6, asr sl

00003884 <l3491>:
    3884:	2084a676 	addcs	sl, r4, r6, ror r6

00003888 <l3492>:
    3888:	a13e00a5 	teqge	lr, r5, lsr #1

0000388c <l3493>:
    388c:	e18cc063 	orr	ip, ip, r3, rrx

00003890 <l3494>:
    3890:	e1d0c009 	bics	ip, r0, r9

00003894 <l3495>:
    3894:	e0034743 	and	r4, r3, r3, asr #14

00003898 <l3496>:
    3898:	20568063 	subscs	r8, r6, r3, rrx

0000389c <l3497>:
    389c:	4a000004 	bmi	38b4 <l3503>

000038a0 <l3498>:
    38a0:	e2e6161f 	rsc	r1, r6, #32505856	; 0x1f00000

000038a4 <l3499>:
    38a4:	101be217 	andsne	lr, fp, r7, lsl r2

000038a8 <l3500>:
    38a8:	60f35341 	rscsvs	r5, r3, r1, asr #6

000038ac <l3501>:
    38ac:	e0557068 	subs	r7, r5, r8, rrx

000038b0 <l3502>:
    38b0:	0059b00f 	subseq	fp, r9, pc

000038b4 <l3503>:
    38b4:	20408571 	subcs	r8, r0, r1, ror r5

000038b8 <l3504>:
    38b8:	c81d0110 	ldmdagt	sp, {r4, r8}

000038bc <l3505>:
    38bc:	e39728d3 	orrs	r2, r7, #13828096	; 0xd30000

000038c0 <l3506>:
    38c0:	12b06d87 	adcsne	r6, r0, #8640	; 0x21c0

000038c4 <l3507>:
    38c4:	0a000007 	beq	38e8 <l3516>

000038c8 <l3508>:
    38c8:	e2801046 	add	r1, r0, #70	; 0x46

000038cc <l3509>:
    38cc:	20606005 	rsbcs	r6, r0, r5

000038d0 <l3510>:
    38d0:	e1b02007 	movs	r2, r7

000038d4 <l3511>:
    38d4:	216fef16 	clzcs	lr, r6

000038d8 <l3512>:
    38d8:	e17f090b 	cmn	pc, fp, lsl #18

000038dc <l3513>:
    38dc:	31cbb069 	biccc	fp, fp, r9, rrx

000038e0 <l3514>:
    38e0:	e1b09001 	movs	r9, r1

000038e4 <l3515>:
    38e4:	ea000000 	b	38ec <l3517>

000038e8 <l3516>:
    38e8:	eafffff7 	b	38cc <l3509>

000038ec <l3517>:
    38ec:	d2e183f7 	rscle	r8, r1, #-603979773	; 0xdc000003

000038f0 <l3518>:
    38f0:	3173000e 	cmncc	r3, lr

000038f4 <l3519>:
    38f4:	40749006 	rsbsmi	r9, r4, r6

000038f8 <l3520>:
    38f8:	e11f08c9 	tst	pc, r9, asr #17

000038fc <l3521>:
    38fc:	e9ad6000 	stmib	sp!, {sp, lr}

00003900 <l3522>:
    3900:	d0c5400b 	sbcle	r4, r5, fp

00003904 <l3523>:
    3904:	013b0004 	teqeq	fp, r4

00003908 <l3524>:
    3908:	c0e97068 	rscgt	r7, r9, r8, rrx

0000390c <l3525>:
    390c:	e00ae005 	and	lr, sl, r5

00003910 <l3526>:
    3910:	158d4008 	strne	r4, [sp, #8]

00003914 <l3527>:
    3914:	e16f5f1b 	clz	r5, fp

00003918 <l3528>:
    3918:	e1f0c2a2 	mvns	ip, r2, lsr #5

0000391c <l3529>:
    391c:	b1f0100b 	mvnslt	r1, fp

00003920 <l3530>:
    3920:	a032800e 	eorsge	r8, r2, lr

00003924 <l3531>:
    3924:	e05f6a2c 	subs	r6, pc, ip, lsr #20

00003928 <l3532>:
    3928:	e0195000 	ands	r5, r9, r0

0000392c <l3533>:
    392c:	e1a0eb1c 	lsl	lr, ip, fp

00003930 <l3534>:
    3930:	415c0007 	cmpmi	ip, r7

00003934 <l3535>:
    3934:	e0713272 	rsbs	r3, r1, r2, ror r2

00003938 <l3536>:
    3938:	e3a0e024 	mov	lr, #36	; 0x24

0000393c <l3537>:
    393c:	e7ad400e 	str	r4, [sp, lr]!

00003940 <l3538>:
    3940:	80e77009 	rschi	r7, r7, r9

00003944 <l3539>:
    3944:	e0448002 	sub	r8, r4, r2

00003948 <l3540>:
    3948:	e0039571 	and	r9, r3, r1, ror r5

0000394c <l3541>:
    394c:	e55d8009 	ldrb	r8, [sp, #-9]

00003950 <l3542>:
    3950:	a031a06a 	eorsge	sl, r1, sl, rrx

00003954 <l3543>:
    3954:	41b0833e 	lsrsmi	r8, lr, r3

00003958 <l3544>:
    3958:	491d0400 	ldmdbmi	sp, {sl}

0000395c <l3545>:
    395c:	1170000b 	cmnne	r0, fp

00003960 <l3546>:
    3960:	ea000006 	b	3980 <l3554>

00003964 <l3547>:
    3964:	30b768af 	adcscc	r6, r7, pc, lsr #17

00003968 <l3548>:
    3968:	e0e10939 	rsc	r0, r1, r9, lsr r9

0000396c <l3549>:
    396c:	93760713 	cmnls	r6, #4980736	; 0x4c0000

00003970 <l3550>:
    3970:	72371109 	eorsvc	r1, r7, #1073741826	; 0x40000002

00003974 <l3551>:
    3974:	31730942 	cmncc	r3, r2, asr #18

00003978 <l3552>:
    3978:	4390419d 	orrsmi	r4, r0, #1073741863	; 0x40000027

0000397c <l3553>:
    397c:	737a0d2f 	cmnvc	sl, #3008	; 0xbc0

00003980 <l3554>:
    3980:	b0e0aa34 	rsclt	sl, r0, r4, lsr sl

00003984 <l3555>:
    3984:	e114000b 	tst	r4, fp

00003988 <l3556>:
    3988:	e21f210a 	ands	r2, pc, #-2147483646	; 0x80000002

0000398c <l3557>:
    398c:	e06c8e78 	rsb	r8, ip, r8, ror lr

00003990 <l3558>:
    3990:	a0750004 	rsbsge	r0, r5, r4

00003994 <l3559>:
    3994:	e83d4908 	ldmda	sp!, {r3, r8, fp, lr}

00003998 <l3560>:
    3998:	e15f0067 	cmp	pc, r7, rrx

0000399c <l3561>:
    399c:	e004c001 	and	ip, r4, r1

000039a0 <l3562>:
    39a0:	e0af3704 	adc	r3, pc, r4, lsl #14

000039a4 <l3563>:
    39a4:	e1e07a11 	mvn	r7, r1, lsl sl

000039a8 <l3564>:
    39a8:	e1190c54 	tst	r9, r4, asr ip

000039ac <l3565>:
    39ac:	e93d593a 	ldmdb	sp!, {r1, r3, r4, r5, r8, fp, ip, lr}

000039b0 <l3566>:
    39b0:	91b03066 	rrxsls	r3, r6

000039b4 <l3567>:
    39b4:	e8add450 	stmia	sp!, {r4, r6, sl, ip, lr, pc}

000039b8 <l3568>:
    39b8:	d3360353 	teqle	r6, #1275068417	; 0x4c000001

000039bc <l3569>:
    39bc:	9a000003 	bls	39d0 <l3574>

000039c0 <l3570>:
    39c0:	e28010c0 	add	r1, r0, #192	; 0xc0

000039c4 <l3571>:
    39c4:	c3b0873a 	movsgt	r8, #15204352	; 0xe80000

000039c8 <l3572>:
    39c8:	e1e05008 	mvn	r5, r8

000039cc <l3573>:
    39cc:	ea000000 	b	39d4 <l3575>

000039d0 <l3574>:
    39d0:	eafffffb 	b	39c4 <l3571>

000039d4 <l3575>:
    39d4:	e0b36066 	adcs	r6, r3, r6, rrx

000039d8 <l3576>:
    39d8:	e92d1200 	push	{r9, ip}

000039dc <l3577>:
    39dc:	e28ce91d 	add	lr, ip, #475136	; 0x74000

000039e0 <l3578>:
    39e0:	00ac1000 	adceq	r1, ip, r0

000039e4 <l3579>:
    39e4:	e0ef9069 	rsc	r9, pc, r9, rrx

000039e8 <l3580>:
    39e8:	ea000006 	b	3a08 <l3588>

000039ec <l3581>:
    39ec:	e280107f 	add	r1, r0, #127	; 0x7f

000039f0 <l3582>:
    39f0:	e20224f9 	and	r2, r2, #-117440512	; 0xf9000000

000039f4 <l3583>:
    39f4:	a16f1f1c 	clzge	r1, ip

000039f8 <l3584>:
    39f8:	816fef1b 	clzhi	lr, fp

000039fc <l3585>:
    39fc:	d2321155 	eorsle	r1, r2, #1073741845	; 0x40000015

00003a00 <l3586>:
    3a00:	e056a854 	subs	sl, r6, r4, asr r8

00003a04 <l3587>:
    3a04:	ea000000 	b	3a0c <l3589>

00003a08 <l3588>:
    3a08:	eafffff8 	b	39f0 <l3582>

00003a0c <l3589>:
    3a0c:	e06e1006 	rsb	r1, lr, r6

00003a10 <l3590>:
    3a10:	e5dd6028 	ldrb	r6, [sp, #40]	; 0x28

00003a14 <l3591>:
    3a14:	e053000c 	subs	r0, r3, ip

00003a18 <l3592>:
    3a18:	31a025e5 	rorcc	r2, r5, #11

00003a1c <l3593>:
    3a1c:	23a0177a 	movcs	r1, #31981568	; 0x1e80000

00003a20 <l3594>:
    3a20:	ca000004 	bgt	3a38 <l3600>

00003a24 <l3595>:
    3a24:	e2801063 	add	r1, r0, #99	; 0x63

00003a28 <l3596>:
    3a28:	e1c0400a 	bic	r4, r0, sl

00003a2c <l3597>:
    3a2c:	8284cc31 	addhi	ip, r4, #12544	; 0x3100

00003a30 <l3598>:
    3a30:	d05aa003 	subsle	sl, sl, r3

00003a34 <l3599>:
    3a34:	ea000000 	b	3a3c <l3601>

00003a38 <l3600>:
    3a38:	eafffffa 	b	3a28 <l3596>

00003a3c <l3601>:
    3a3c:	a0ca012e 	sbcge	r0, sl, lr, lsr #2

00003a40 <l3602>:
    3a40:	20416a76 	subcs	r6, r1, r6, ror sl

00003a44 <l3603>:
    3a44:	e114006b 	tst	r4, fp, rrx

00003a48 <l3604>:
    3a48:	954d1005 	strbls	r1, [sp, #-5]

00003a4c <l3605>:
    3a4c:	60df100c 	sbcsvs	r1, pc, ip

00003a50 <l3606>:
    3a50:	e1962008 	orrs	r2, r6, r8

00003a54 <l3607>:
    3a54:	e15e0005 	cmp	lr, r5

00003a58 <l3608>:
    3a58:	aa000004 	bge	3a70 <l3614>

00003a5c <l3609>:
    3a5c:	e28010ce 	add	r1, r0, #206	; 0xce

00003a60 <l3610>:
    3a60:	e33c0753 	teq	ip, #21757952	; 0x14c0000

00003a64 <l3611>:
    3a64:	e0ea382b 	rsc	r3, sl, fp, lsr #16

00003a68 <l3612>:
    3a68:	e20b1446 	and	r1, fp, #1174405120	; 0x46000000

00003a6c <l3613>:
    3a6c:	ea000000 	b	3a74 <l3615>

00003a70 <l3614>:
    3a70:	eafffffa 	b	3a60 <l3610>

00003a74 <l3615>:
    3a74:	e0e713a1 	rsc	r1, r7, r1, lsr #7

00003a78 <l3616>:
    3a78:	e9ada000 	stmib	sp!, {sp, pc}

00003a7c <l3617>:
    3a7c:	53a08557 	movpl	r8, #364904448	; 0x15c00000

00003a80 <l3618>:
    3a80:	e029e061 	eor	lr, r9, r1, rrx

00003a84 <l3619>:
    3a84:	3a000000 	bcc	3a8c <l3621>

00003a88 <l3620>:
    3a88:	00469001 	subeq	r9, r6, r1

00003a8c <l3621>:
    3a8c:	31110008 	tstcc	r1, r8

00003a90 <l3622>:
    3a90:	e381452a 	orr	r4, r1, #176160768	; 0xa800000

00003a94 <l3623>:
    3a94:	d1a05c09 	lslle	r5, r9, #24

00003a98 <l3624>:
    3a98:	e8bd118a 	pop	{r1, r3, r7, r8, ip}

00003a9c <l3625>:
    3a9c:	6031000b 	eorsvs	r0, r1, fp

00003aa0 <l3626>:
    3aa0:	e93d537d 	ldmdb	sp!, {r0, r2, r3, r4, r5, r6, r8, r9, ip, lr}

00003aa4 <l3627>:
    3aa4:	01740755 	cmneq	r4, r5, asr r7

00003aa8 <l3628>:
    3aa8:	71d7e319 	bicsvc	lr, r7, r9, lsl r3

00003aac <l3629>:
    3aac:	31360656 	teqcc	r6, r6, asr r6

00003ab0 <l3630>:
    3ab0:	e16fcf19 	clz	ip, r9

00003ab4 <l3631>:
    3ab4:	b0faa004 	rscslt	sl, sl, r4

00003ab8 <l3632>:
    3ab8:	ea000003 	b	3acc <l3637>

00003abc <l3633>:
    3abc:	e2801002 	add	r1, r0, #2

00003ac0 <l3634>:
    3ac0:	82e1b3e5 	rschi	fp, r1, #-1811939325	; 0x94000003

00003ac4 <l3635>:
    3ac4:	b018bee5 	andslt	fp, r8, r5, ror #29

00003ac8 <l3636>:
    3ac8:	ea000000 	b	3ad0 <l3638>

00003acc <l3637>:
    3acc:	eafffffb 	b	3ac0 <l3634>

00003ad0 <l3638>:
    3ad0:	a2fbe87e 	rscsge	lr, fp, #8257536	; 0x7e0000

00003ad4 <l3639>:
    3ad4:	d1b00a22 	lsrsle	r0, r2, #20

00003ad8 <l3640>:
    3ad8:	41ca77ca 	bicmi	r7, sl, sl, asr #15

00003adc <l3641>:
    3adc:	6a000000 	bvs	3ae4 <l3643>

00003ae0 <l3642>:
    3ae0:	e0b24c07 	adcs	r4, r2, r7, lsl #24

00003ae4 <l3643>:
    3ae4:	51710550 	cmnpl	r1, r0, asr r5

00003ae8 <l3644>:
    3ae8:	6063006e 	rsbvs	r0, r3, lr, rrx

00003aec <l3645>:
    3aec:	91f0403e 	mvnsls	r4, lr, lsr r0

00003af0 <l3646>:
    3af0:	90688633 	rsbls	r8, r8, r3, lsr r6

00003af4 <l3647>:
    3af4:	a15a0165 	cmpge	sl, r5, ror #2

00003af8 <l3648>:
    3af8:	e3d5e0e9 	bics	lr, r5, #233	; 0xe9

00003afc <l3649>:
    3afc:	e116026f 	tst	r6, pc, ror #4

00003b00 <l3650>:
    3b00:	e0660603 	rsb	r0, r6, r3, lsl #12

00003b04 <l3651>:
    3b04:	021e28f9 	andseq	r2, lr, #16318464	; 0xf90000

00003b08 <l3652>:
    3b08:	e082400b 	add	r4, r2, fp

00003b0c <l3653>:
    3b0c:	e0c1b353 	sbc	fp, r1, r3, asr r3

00003b10 <l3654>:
    3b10:	72ba9088 	adcsvc	r9, sl, #136	; 0x88

00003b14 <l3655>:
    3b14:	ea000004 	b	3b2c <l3661>

00003b18 <l3656>:
    3b18:	e2801081 	add	r1, r0, #129	; 0x81

00003b1c <l3657>:
    3b1c:	71ce906a 	bicvc	r9, lr, sl, rrx

00003b20 <l3658>:
    3b20:	416f4f12 	clzmi	r4, r2

00003b24 <l3659>:
    3b24:	2374079d 	cmncs	r4, #41156608	; 0x2740000

00003b28 <l3660>:
    3b28:	ea000000 	b	3b30 <l3662>

00003b2c <l3661>:
    3b2c:	eafffffa 	b	3b1c <l3657>

00003b30 <l3662>:
    3b30:	e0404150 	sub	r4, r0, r0, asr r1

00003b34 <l3663>:
    3b34:	680d4800 	stmdavs	sp, {fp, lr}

00003b38 <l3664>:
    3b38:	e17b000c 	cmn	fp, ip

00003b3c <l3665>:
    3b3c:	2074700b 	rsbscs	r7, r4, fp

00003b40 <l3666>:
    3b40:	e3100086 	tst	r0, #134	; 0x86

00003b44 <l3667>:
    3b44:	e1b01e30 	lsrs	r1, r0, lr

00003b48 <l3668>:
    3b48:	43730175 	cmnmi	r3, #1073741853	; 0x4000001d

00003b4c <l3669>:
    3b4c:	95cd600c 	strbls	r6, [sp, #12]

00003b50 <l3670>:
    3b50:	6a000008 	bvs	3b78 <l3680>

00003b54 <l3671>:
    3b54:	50167919 	andspl	r7, r6, r9, lsl r9

00003b58 <l3672>:
    3b58:	e17e0719 	cmn	lr, r9, lsl r7

00003b5c <l3673>:
    3b5c:	e2424501 	sub	r4, r2, #4194304	; 0x400000

00003b60 <l3674>:
    3b60:	51f07311 	mvnspl	r7, r1, lsl r3

00003b64 <l3675>:
    3b64:	e15e0acf 	cmp	lr, pc, asr #21

00003b68 <l3676>:
    3b68:	e27a50eb 	rsbs	r5, sl, #235	; 0xeb

00003b6c <l3677>:
    3b6c:	51e09008 	mvnpl	r9, r8

00003b70 <l3678>:
    3b70:	a000ce80 	andge	ip, r0, r0, lsl #29

00003b74 <l3679>:
    3b74:	e0f73365 	rscs	r3, r7, r5, ror #6

00003b78 <l3680>:
    3b78:	719c0007 	orrsvc	r0, ip, r7

00003b7c <l3681>:
    3b7c:	e0f33130 	rscs	r3, r3, r0, lsr r1

00003b80 <l3682>:
    3b80:	ea000003 	b	3b94 <l3687>

00003b84 <l3683>:
    3b84:	e28010dd 	add	r1, r0, #221	; 0xdd

00003b88 <l3684>:
    3b88:	e0290063 	eor	r0, r9, r3, rrx

00003b8c <l3685>:
    3b8c:	31f02002 	mvnscc	r2, r2

00003b90 <l3686>:
    3b90:	ea000000 	b	3b98 <l3688>

00003b94 <l3687>:
    3b94:	eafffffb 	b	3b88 <l3684>

00003b98 <l3688>:
    3b98:	e1e05170 	mvn	r5, r0, ror r1

00003b9c <l3689>:
    3b9c:	e1e05975 	mvn	r5, r5, ror r9

00003ba0 <l3690>:
    3ba0:	e2249839 	eor	r9, r4, #3735552	; 0x390000

00003ba4 <l3691>:
    3ba4:	ea000001 	b	3bb0 <l3694>

00003ba8 <l3692>:
    3ba8:	e00e4c75 	and	r4, lr, r5, ror ip

00003bac <l3693>:
    3bac:	a0a72009 	adcge	r2, r7, r9

00003bb0 <l3694>:
    3bb0:	b0ff85af 	rscslt	r8, pc, pc, lsr #11

00003bb4 <l3695>:
    3bb4:	e1e02869 	mvn	r2, r9, ror #16

00003bb8 <l3696>:
    3bb8:	e01ae008 	ands	lr, sl, r8

00003bbc <l3697>:
    3bbc:	ea000007 	b	3be0 <l3706>

00003bc0 <l3698>:
    3bc0:	e37e045e 	cmn	lr, #1577058304	; 0x5e000000

00003bc4 <l3699>:
    3bc4:	31b03675 	rorscc	r3, r5, r6

00003bc8 <l3700>:
    3bc8:	e0b60007 	adcs	r0, r6, r7

00003bcc <l3701>:
    3bcc:	e05b900f 	subs	r9, fp, pc

00003bd0 <l3702>:
    3bd0:	e1a0343e 	lsr	r3, lr, r4

00003bd4 <l3703>:
    3bd4:	23956b63 	orrscs	r6, r5, #101376	; 0x18c00

00003bd8 <l3704>:
    3bd8:	e1d02140 	bics	r2, r0, r0, asr #2

00003bdc <l3705>:
    3bdc:	e11f022b 	tst	pc, fp, lsr #4

00003be0 <l3706>:
    3be0:	92aaa269 	adcls	sl, sl, #-1879048186	; 0x90000006

00003be4 <l3707>:
    3be4:	e58d9024 	str	r9, [sp, #36]	; 0x24

00003be8 <l3708>:
    3be8:	e27a060e 	rsbs	r0, sl, #14680064	; 0xe00000

00003bec <l3709>:
    3bec:	ea000000 	b	3bf4 <l3711>

00003bf0 <l3710>:
    3bf0:	e1cfa008 	bic	sl, pc, r8

00003bf4 <l3711>:
    3bf4:	e0a1cc06 	adc	ip, r1, r6, lsl #24

00003bf8 <l3712>:
    3bf8:	e1190001 	tst	r9, r1

00003bfc <l3713>:
    3bfc:	555db001 	ldrbpl	fp, [sp, #-1]

00003c00 <l3714>:
    3c00:	e0c1100c 	sbc	r1, r1, ip

00003c04 <l3715>:
    3c04:	d0812063 	addle	r2, r1, r3, rrx

00003c08 <l3716>:
    3c08:	e24404b6 	sub	r0, r4, #-1241513984	; 0xb6000000

00003c0c <l3717>:
    3c0c:	e0a62000 	adc	r2, r6, r0

00003c10 <l3718>:
    3c10:	ca000003 	bgt	3c24 <l3723>

00003c14 <l3719>:
    3c14:	e280108a 	add	r1, r0, #138	; 0x8a

00003c18 <l3720>:
    3c18:	222c513d 	eorcs	r5, ip, #1073741839	; 0x4000000f

00003c1c <l3721>:
    3c1c:	e1b05009 	movs	r5, r9

00003c20 <l3722>:
    3c20:	ea000000 	b	3c28 <l3724>

00003c24 <l3723>:
    3c24:	eafffffb 	b	3c18 <l3720>

00003c28 <l3724>:
    3c28:	0affffff 	beq	3c2c <l3725>

00003c2c <l3725>:
    3c2c:	e0e9200a 	rsc	r2, r9, sl

00003c30 <l3726>:
    3c30:	51dcc225 	bicspl	ip, ip, r5, lsr #4

00003c34 <l3727>:
    3c34:	e01f600a 	ands	r6, pc, sl

00003c38 <l3728>:
    3c38:	4032121a 	eorsmi	r1, r2, sl, lsl r2

00003c3c <l3729>:
    3c3c:	ea000007 	b	3c60 <l3738>

00003c40 <l3730>:
    3c40:	13300ab7 	teqne	r0, #749568	; 0xb7000

00003c44 <l3731>:
    3c44:	20482000 	subcs	r2, r8, r0

00003c48 <l3732>:
    3c48:	e0df5863 	sbcs	r5, pc, r3, ror #16

00003c4c <l3733>:
    3c4c:	e2cfbecb 	sbc	fp, pc, #3248	; 0xcb0

00003c50 <l3734>:
    3c50:	e1dc800b 	bics	r8, ip, fp

00003c54 <l3735>:
    3c54:	e0f07479 	rscs	r7, r0, r9, ror r4

00003c58 <l3736>:
    3c58:	22962b6d 	addscs	r2, r6, #111616	; 0x1b400

00003c5c <l3737>:
    3c5c:	e1de306a 	bics	r3, lr, sl, rrx

00003c60 <l3738>:
    3c60:	d04b8ae0 	suble	r8, fp, r0, ror #21

00003c64 <l3739>:
    3c64:	e41db008 	ldr	fp, [sp], #-8

00003c68 <l3740>:
    3c68:	71500000 	cmpvc	r0, r0

00003c6c <l3741>:
    3c6c:	ea000002 	b	3c7c <l3745>

00003c70 <l3742>:
    3c70:	e28010b6 	add	r1, r0, #182	; 0xb6

00003c74 <l3743>:
    3c74:	71770de7 	cmnvc	r7, r7, ror #27

00003c78 <l3744>:
    3c78:	ea000000 	b	3c80 <l3746>

00003c7c <l3745>:
    3c7c:	eafffffc 	b	3c74 <l3743>

00003c80 <l3746>:
    3c80:	418cae20 	orrmi	sl, ip, r0, lsr #28

00003c84 <l3747>:
    3c84:	9384ee67 	orrls	lr, r4, #1648	; 0x670

00003c88 <l3748>:
    3c88:	30f79063 	rscscc	r9, r7, r3, rrx

00003c8c <l3749>:
    3c8c:	60b30452 	adcsvs	r0, r3, r2, asr r4

00003c90 <l3750>:
    3c90:	7a000008 	bvc	3cb8 <l3760>

00003c94 <l3751>:
    3c94:	e04e6873 	sub	r6, lr, r3, ror r8

00003c98 <l3752>:
    3c98:	e17b0668 	cmn	fp, r8, ror #12

00003c9c <l3753>:
    3c9c:	d07b9412 	rsbsle	r9, fp, r2, lsl r4

00003ca0 <l3754>:
    3ca0:	e16f5f16 	clz	r5, r6

00003ca4 <l3755>:
    3ca4:	e16fef10 	clz	lr, r0

00003ca8 <l3756>:
    3ca8:	e0375b4b 	eors	r5, r7, fp, asr #22

00003cac <l3757>:
    3cac:	106f5007 	rsbne	r5, pc, r7

00003cb0 <l3758>:
    3cb0:	e1a05f22 	lsr	r5, r2, #30

00003cb4 <l3759>:
    3cb4:	e1360c5b 	teq	r6, fp, asr ip

00003cb8 <l3760>:
    3cb8:	31c1000f 	biccc	r0, r1, pc

00003cbc <l3761>:
    3cbc:	e3a0402c 	mov	r4, #44	; 0x2c

00003cc0 <l3762>:
    3cc0:	e7cda004 	strb	sl, [sp, r4]

00003cc4 <l3763>:
    3cc4:	c89d5cdf 	ldmgt	sp, {r0, r1, r2, r3, r4, r6, r7, sl, fp, ip, lr}

00003cc8 <l3764>:
    3cc8:	e2a55833 	adc	r5, r5, #3342336	; 0x330000

00003ccc <l3765>:
    3ccc:	918a3712 	orrls	r3, sl, r2, lsl r7

00003cd0 <l3766>:
    3cd0:	903bc468 	eorsls	ip, fp, r8, ror #8

00003cd4 <l3767>:
    3cd4:	816faf1b 	clzhi	sl, fp

00003cd8 <l3768>:
    3cd8:	b16f5f18 	clzlt	r5, r8

00003cdc <l3769>:
    3cdc:	e0863516 	add	r3, r6, r6, lsl r5

00003ce0 <l3770>:
    3ce0:	e92d0010 	stmfd	sp!, {r4}

00003ce4 <l3771>:
    3ce4:	409e0b09 	addsmi	r0, lr, r9, lsl #22

00003ce8 <l3772>:
    3ce8:	e07b3003 	rsbs	r3, fp, r3

00003cec <l3773>:
    3cec:	e3a04001 	mov	r4, #1

00003cf0 <l3774>:
    3cf0:	e74d4004 	strb	r4, [sp, -r4]

00003cf4 <l3775>:
    3cf4:	53daeeb1 	bicspl	lr, sl, #2832	; 0xb10

00003cf8 <l3776>:
    3cf8:	e08ea32a 	add	sl, lr, sl, lsr #6

00003cfc <l3777>:
    3cfc:	6189b002 	orrvs	fp, r9, r2

00003d00 <l3778>:
    3d00:	e3a0702d 	mov	r7, #45	; 0x2d

00003d04 <l3779>:
    3d04:	37cde007 	strbcc	lr, [sp, r7]

00003d08 <l3780>:
    3d08:	e3b09a4b 	movs	r9, #307200	; 0x4b000

00003d0c <l3781>:
    3d0c:	e0033065 	and	r3, r3, r5, rrx

00003d10 <l3782>:
    3d10:	e1a00000 	nop			; (mov r0, r0)

00003d14 <l3783>:
    3d14:	e98dfffe 	stmib	sp, {r1, r2, r3, r4, r5, r6, r7, r8, r9, sl, fp, ip, sp, lr, pc}

00003d18 <l3784>:
    3d18:	700a6005 	andvc	r6, sl, r5

00003d1c <l3785>:
    3d1c:	ea000005 	b	3d38 <l3792>

00003d20 <l3786>:
    3d20:	52764aa7 	rsbspl	r4, r6, #684032	; 0xa7000

00003d24 <l3787>:
    3d24:	21710728 	cmncs	r1, r8, lsr #14

00003d28 <l3788>:
    3d28:	61e0743a 	mvnvs	r7, sl, lsr r4

00003d2c <l3789>:
    3d2c:	e0b98237 	adcs	r8, r9, r7, lsr r2

00003d30 <l3790>:
    3d30:	63770b29 	cmnvs	r7, #41984	; 0xa400

00003d34 <l3791>:
    3d34:	e1e07005 	mvn	r7, r5

00003d38 <l3792>:
    3d38:	e1740035 	cmn	r4, r5, lsr r0

00003d3c <l3793>:
    3d3c:	e026c060 	eor	ip, r6, r0, rrx

00003d40 <l3794>:
    3d40:	30437004 	subcc	r7, r3, r4

00003d44 <l3795>:
    3d44:	e19a84ab 	orrs	r8, sl, fp, lsr #9

00003d48 <l3796>:
    3d48:	2a000005 	bcs	3d64 <l3803>

00003d4c <l3797>:
    3d4c:	e280107d 	add	r1, r0, #125	; 0x7d

00003d50 <l3798>:
    3d50:	63f09045 	mvnsvs	r9, #69	; 0x45

00003d54 <l3799>:
    3d54:	e332001e 	teq	r2, #30

00003d58 <l3800>:
    3d58:	70050007 	andvc	r0, r5, r7

00003d5c <l3801>:
    3d5c:	e0f78c45 	rscs	r8, r7, r5, asr #24

00003d60 <l3802>:
    3d60:	ea000000 	b	3d68 <l3804>

00003d64 <l3803>:
    3d64:	eafffff9 	b	3d50 <l3798>

00003d68 <l3804>:
    3d68:	e3a07020 	mov	r7, #32

00003d6c <l3805>:
    3d6c:	e79d8007 	ldr	r8, [sp, r7]

00003d70 <l3806>:
    3d70:	e5ad5004 	str	r5, [sp, #4]!

00003d74 <l3807>:
    3d74:	e2d03dd3 	sbcs	r3, r0, #13504	; 0x34c0

00003d78 <l3808>:
    3d78:	8387e85e 	orrhi	lr, r7, #6160384	; 0x5e0000

00003d7c <l3809>:
    3d7c:	e02f500b 	eor	r5, pc, fp

00003d80 <l3810>:
    3d80:	3affffff 	bcc	3d84 <l3811>

00003d84 <l3811>:
    3d84:	61e0a476 	mvnvs	sl, r6, ror r4

00003d88 <l3812>:
    3d88:	81740255 	cmnhi	r4, r5, asr r2

00003d8c <l3813>:
    3d8c:	e1170001 	tst	r7, r1

00003d90 <l3814>:
    3d90:	699d1df9 	ldmibvs	sp, {r0, r3, r4, r5, r6, r7, r8, sl, fp, ip}

00003d94 <l3815>:
    3d94:	e1cc3003 	bic	r3, ip, r3

00003d98 <l3816>:
    3d98:	302b900e 	eorcc	r9, fp, lr

00003d9c <l3817>:
    3d9c:	e2168501 	ands	r8, r6, #4194304	; 0x400000

00003da0 <l3818>:
    3da0:	35dd8002 	ldrbcc	r8, [sp, #2]

00003da4 <l3819>:
    3da4:	c3a0018a 	movgt	r0, #-2147483614	; 0x80000022

00003da8 <l3820>:
    3da8:	e097cc89 	adds	ip, r7, r9, lsl #25

00003dac <l3821>:
    3dac:	e158000f 	cmp	r8, pc

00003db0 <l3822>:
    3db0:	e92d0001 	stmfd	sp!, {r0}

00003db4 <l3823>:
    3db4:	e1a00000 	nop			; (mov r0, r0)

00003db8 <l3824>:
    3db8:	30c74062 	sbccc	r4, r7, r2, rrx

00003dbc <l3825>:
    3dbc:	11d2b006 	bicsne	fp, r2, r6

00003dc0 <l3826>:
    3dc0:	e5cd2024 	strb	r2, [sp, #36]	; 0x24

00003dc4 <l3827>:
    3dc4:	90e81007 	rscls	r1, r8, r7

00003dc8 <l3828>:
    3dc8:	eaffffff 	b	3dcc <l3829>

00003dcc <l3829>:
    3dcc:	90f19411 	rscsls	r9, r1, r1, lsl r4

00003dd0 <l3830>:
    3dd0:	2028a062 	eorcs	sl, r8, r2, rrx

00003dd4 <l3831>:
    3dd4:	a0fcb001 	rscsge	fp, ip, r1

00003dd8 <l3832>:
    3dd8:	e48d400c 	str	r4, [sp], #12

00003ddc <l3833>:
    3ddc:	e3a0c014 	mov	ip, #20

00003de0 <l3834>:
    3de0:	e7dd200c 	ldrb	r2, [sp, ip]

00003de4 <l3835>:
    3de4:	e16fbf1a 	clz	fp, sl

00003de8 <l3836>:
    3de8:	41e09068 	mvnmi	r9, r8, rrx

00003dec <l3837>:
    3dec:	6a000007 	bvs	3e10 <l3846>

00003df0 <l3838>:
    3df0:	50276002 	eorpl	r6, r7, r2

00003df4 <l3839>:
    3df4:	c13904ee 	teqgt	r9, lr, ror #9

00003df8 <l3840>:
    3df8:	b0712577 	rsbslt	r2, r1, r7, ror r5

00003dfc <l3841>:
    3dfc:	71a0887c 	rorvc	r8, ip, r8

00003e00 <l3842>:
    3e00:	015e0009 	cmpeq	lr, r9

00003e04 <l3843>:
    3e04:	e3e01d11 	mvn	r1, #1088	; 0x440

00003e08 <l3844>:
    3e08:	e0a42b16 	adc	r2, r4, r6, lsl fp

00003e0c <l3845>:
    3e0c:	e031c063 	eors	ip, r1, r3, rrx

00003e10 <l3846>:
    3e10:	a1780e0c 	cmnge	r8, ip, lsl #28

00003e14 <l3847>:
    3e14:	e24a1b01 	sub	r1, sl, #1024	; 0x400

00003e18 <l3848>:
    3e18:	e0874ea3 	add	r4, r7, r3, lsr #29

00003e1c <l3849>:
    3e1c:	819ac066 	orrshi	ip, sl, r6, rrx

00003e20 <l3850>:
    3e20:	e3a0800f 	mov	r8, #15

00003e24 <l3851>:
    3e24:	47dd2008 	ldrbmi	r2, [sp, r8]

00003e28 <l3852>:
    3e28:	311800ab 	tstcc	r8, fp, lsr #1

00003e2c <l3853>:
    3e2c:	70269074 	eorvc	r9, r6, r4, ror r0

00003e30 <l3854>:
    3e30:	e5cd3014 	strb	r3, [sp, #20]

00003e34 <l3855>:
    3e34:	e0f79000 	rscs	r9, r7, r0

00003e38 <l3856>:
    3e38:	70eab066 	rscvc	fp, sl, r6, rrx

00003e3c <l3857>:
    3e3c:	90b0900f 	adcsls	r9, r0, pc

00003e40 <l3858>:
    3e40:	e3a02024 	mov	r2, #36	; 0x24

00003e44 <l3859>:
    3e44:	e69d1002 	ldr	r1, [sp], r2

00003e48 <l3860>:
    3e48:	b1140001 	tstlt	r4, r1

00003e4c <l3861>:
    3e4c:	4076906e 	rsbsmi	r9, r6, lr, rrx

00003e50 <l3862>:
    3e50:	70805009 	addvc	r5, r0, r9

00003e54 <l3863>:
    3e54:	e83d081e 	ldmda	sp!, {r1, r2, r3, r4, fp}

00003e58 <l3864>:
    3e58:	e059e00c 	subs	lr, r9, ip

00003e5c <l3865>:
    3e5c:	e063206b 	rsb	r2, r3, fp, rrx

00003e60 <l3866>:
    3e60:	e2eb800c 	rsc	r8, fp, #12

00003e64 <l3867>:
    3e64:	01ce3007 	biceq	r3, lr, r7

00003e68 <l3868>:
    3e68:	a1953061 	orrsge	r3, r5, r1, rrx

00003e6c <l3869>:
    3e6c:	e3e05cb1 	mvn	r5, #45312	; 0xb100

00003e70 <l3870>:
    3e70:	e16fef19 	clz	lr, r9

00003e74 <l3871>:
    3e74:	e3a0e010 	mov	lr, #16

00003e78 <l3872>:
    3e78:	074d100e 	strbeq	r1, [sp, -lr]

00003e7c <l3873>:
    3e7c:	116faf1c 	clzne	sl, ip

00003e80 <l3874>:
    3e80:	2a000004 	bcs	3e98 <l3880>

00003e84 <l3875>:
    3e84:	d05e2009 	subsle	r2, lr, r9

00003e88 <l3876>:
    3e88:	216f6f14 	clzcs	r6, r4

00003e8c <l3877>:
    3e8c:	e3b04122 	movs	r4, #-2147483640	; 0x80000008

00003e90 <l3878>:
    3e90:	e1f02004 	mvns	r2, r4

00003e94 <l3879>:
    3e94:	e1380009 	teq	r8, r9

00003e98 <l3880>:
    3e98:	01b07009 	movseq	r7, r9

00003e9c <l3881>:
    3e9c:	511e0a15 	tstpl	lr, r5, lsl sl

00003ea0 <l3882>:
    3ea0:	e038556e 	eors	r5, r8, lr, ror #10

00003ea4 <l3883>:
    3ea4:	b17206a5 	cmnlt	r2, r5, lsr #13

00003ea8 <l3884>:
    3ea8:	20d54ce9 	sbcscs	r4, r5, r9, ror #25

00003eac <l3885>:
    3eac:	0052b748 	subseq	fp, r2, r8, asr #14

00003eb0 <l3886>:
    3eb0:	e1c9a930 	bic	sl, r9, r0, lsr r9

00003eb4 <l3887>:
    3eb4:	b00f3065 	andlt	r3, pc, r5, rrx

00003eb8 <l3888>:
    3eb8:	e1d9bca8 	bics	fp, r9, r8, lsr #25

00003ebc <l3889>:
    3ebc:	e3b0469a 	movs	r4, #161480704	; 0x9a00000

00003ec0 <l3890>:
    3ec0:	616fcf1c 	clzvs	ip, ip

00003ec4 <l3891>:
    3ec4:	5a000007 	bpl	3ee8 <l3900>

00003ec8 <l3892>:
    3ec8:	e1a06652 	asr	r6, r2, r6

00003ecc <l3893>:
    3ecc:	318f500c 	orrcc	r5, pc, ip

00003ed0 <l3894>:
    3ed0:	13861e71 	orrne	r1, r6, #1808	; 0x710

00003ed4 <l3895>:
    3ed4:	61c74007 	bicvs	r4, r7, r7

00003ed8 <l3896>:
    3ed8:	e075b72f 	rsbs	fp, r5, pc, lsr #14

00003edc <l3897>:
    3edc:	811e015e 	tsthi	lr, lr, asr r1

00003ee0 <l3898>:
    3ee0:	61e0e71b 	mvnvs	lr, fp, lsl r7

00003ee4 <l3899>:
    3ee4:	e3e0870b 	mvn	r8, #2883584	; 0x2c0000

00003ee8 <l3900>:
    3ee8:	10d1355b 	sbcsne	r3, r1, fp, asr r5

00003eec <l3901>:
    3eec:	31f01000 	mvnscc	r1, r0

00003ef0 <l3902>:
    3ef0:	d3e07691 	mvnle	r7, #152043520	; 0x9100000

00003ef4 <l3903>:
    3ef4:	b91d1800 	ldmdblt	sp, {fp, ip}

00003ef8 <l3904>:
    3ef8:	0a000004 	beq	3f10 <l3910>

00003efc <l3905>:
    3efc:	e0a7cc5c 	adc	ip, r7, ip, asr ip

00003f00 <l3906>:
    3f00:	1158006e 	cmpne	r8, lr, rrx

00003f04 <l3907>:
    3f04:	e197bb3b 	orrs	fp, r7, fp, lsr fp

00003f08 <l3908>:
    3f08:	e045600a 	sub	r6, r5, sl

00003f0c <l3909>:
    3f0c:	e131061e 	teq	r1, lr, lsl r6

00003f10 <l3910>:
    3f10:	b2930007 	addslt	r0, r3, #7

00003f14 <l3911>:
    3f14:	9370096b 	cmnls	r0, #1753088	; 0x1ac000

00003f18 <l3912>:
    3f18:	416fcf18 	clzmi	ip, r8

00003f1c <l3913>:
    3f1c:	e271e57a 	rsbs	lr, r1, #511705088	; 0x1e800000

00003f20 <l3914>:
    3f20:	a0b24066 	adcsge	r4, r2, r6, rrx

00003f24 <l3915>:
    3f24:	8a000008 	bhi	3f4c <l3925>

00003f28 <l3916>:
    3f28:	5333013f 	teqpl	r3, #-1073741809	; 0xc000000f

00003f2c <l3917>:
    3f2c:	c17f0061 	cmngt	pc, r1, rrx

00003f30 <l3918>:
    3f30:	e3a03509 	mov	r3, #37748736	; 0x2400000

00003f34 <l3919>:
    3f34:	7247cd8b 	subvc	ip, r7, #8896	; 0x22c0

00003f38 <l3920>:
    3f38:	e1d76e5a 	bics	r6, r7, sl, asr lr

00003f3c <l3921>:
    3f3c:	43e09197 	mvnmi	r9, #-1073741787	; 0xc0000025

00003f40 <l3922>:
    3f40:	e2697305 	rsb	r7, r9, #335544320	; 0x14000000

00003f44 <l3923>:
    3f44:	0025100b 	eoreq	r1, r5, fp

00003f48 <l3924>:
    3f48:	e13f0504 	teq	pc, r4, lsl #10

00003f4c <l3925>:
    3f4c:	e00f2003 	and	r2, pc, r3

00003f50 <l3926>:
    3f50:	e0f70c30 	rscs	r0, r7, r0, lsr ip

00003f54 <l3927>:
    3f54:	91580007 	cmpls	r8, r7

00003f58 <l3928>:
    3f58:	e05eb777 	subs	fp, lr, r7, ror r7

00003f5c <l3929>:
    3f5c:	11320226 	teqne	r2, r6, lsr #4

00003f60 <l3930>:
    3f60:	ba000004 	blt	3f78 <l3936>

00003f64 <l3931>:
    3f64:	e280103f 	add	r1, r0, #63	; 0x3f

00003f68 <l3932>:
    3f68:	e0072061 	and	r2, r7, r1, rrx

00003f6c <l3933>:
    3f6c:	e314023f 	tst	r4, #-268435453	; 0xf0000003

00003f70 <l3934>:
    3f70:	e0e7600e 	rsc	r6, r7, lr

00003f74 <l3935>:
    3f74:	ea000000 	b	3f7c <l3937>

00003f78 <l3936>:
    3f78:	eafffffa 	b	3f68 <l3932>

00003f7c <l3937>:
    3f7c:	e01c606e 	ands	r6, ip, lr, rrx

00003f80 <l3938>:
    3f80:	42488b3f 	submi	r8, r8, #64512	; 0xfc00

00003f84 <l3939>:
    3f84:	e11a0060 	tst	sl, r0, rrx

00003f88 <l3940>:
    3f88:	21b00886 	lslscs	r0, r6, #17

00003f8c <l3941>:
    3f8c:	e1b05302 	lsls	r5, r2, #6

00003f90 <l3942>:
    3f90:	0051cb14 	subseq	ip, r1, r4, lsl fp

00003f94 <l3943>:
    3f94:	3a000003 	bcc	3fa8 <l3948>

00003f98 <l3944>:
    3f98:	e1100233 	tst	r0, r3, lsr r2

00003f9c <l3945>:
    3f9c:	11b02556 	asrsne	r2, r6, r5

00003fa0 <l3946>:
    3fa0:	c0b72852 	adcsgt	r2, r7, r2, asr r8

00003fa4 <l3947>:
    3fa4:	a1330e34 	teqge	r3, r4, lsr lr

00003fa8 <l3948>:
    3fa8:	e2e43b81 	rsc	r3, r4, #132096	; 0x20400

00003fac <l3949>:
    3fac:	e1a0c938 	lsr	ip, r8, r9

00003fb0 <l3950>:
    3fb0:	70063245 	andvc	r3, r6, r5, asr #4

00003fb4 <l3951>:
    3fb4:	e118015a 	tst	r8, sl, asr r1

00003fb8 <l3952>:
    3fb8:	e1590452 	cmp	r9, r2, asr r4

00003fbc <l3953>:
    3fbc:	c059911e 	subsgt	r9, r9, lr, lsl r1

00003fc0 <l3954>:
    3fc0:	11ce7702 	bicne	r7, lr, r2, lsl #14

00003fc4 <l3955>:
    3fc4:	e213c18d 	ands	ip, r3, #1073741859	; 0x40000023

00003fc8 <l3956>:
    3fc8:	41e0275a 	mvnmi	r2, sl, asr r7

00003fcc <l3957>:
    3fcc:	d51d2018 	ldrle	r2, [sp, #-24]

00003fd0 <l3958>:
    3fd0:	a35a0e2b 	cmpge	sl, #688	; 0x2b0

00003fd4 <l3959>:
    3fd4:	e35b02cb 	cmp	fp, #-1342177268	; 0xb000000c

00003fd8 <l3960>:
    3fd8:	e02c3000 	eor	r3, ip, r0

00003fdc <l3961>:
    3fdc:	75dd8014 	ldrbvc	r8, [sp, #20]

00003fe0 <l3962>:
    3fe0:	c3f098a5 	mvnsgt	r9, #10813440	; 0xa50000

00003fe4 <l3963>:
    3fe4:	1084b356 	addne	fp, r4, r6, asr r3

00003fe8 <l3964>:
    3fe8:	e0a8917b 	adc	r9, r8, fp, ror r1

00003fec <l3965>:
    3fec:	e1e01310 	mvn	r1, r0, lsl r3

00003ff0 <l3966>:
    3ff0:	511f00e9 	tstpl	pc, r9, ror #1

00003ff4 <l3967>:
    3ff4:	1a000007 	bne	4018 <l3976>

00003ff8 <l3968>:
    3ff8:	90b65008 	adcsls	r5, r6, r8

00003ffc <l3969>:
    3ffc:	91a00007 	movls	r0, r7

00004000 <l3970>:
    4000:	e374007f 	cmn	r4, #127	; 0x7f

00004004 <l3971>:
    4004:	e1b0000a 	movs	r0, sl

00004008 <l3972>:
    4008:	e3b005db 	movs	r0, #918552576	; 0x36c00000

0000400c <l3973>:
    400c:	52977987 	addspl	r7, r7, #2211840	; 0x21c000

00004010 <l3974>:
    4010:	e3973ab3 	orrs	r3, r7, #733184	; 0xb3000

00004014 <l3975>:
    4014:	416f5f16 	clzmi	r5, r6

00004018 <l3976>:
    4018:	61f0b062 	mvnsvs	fp, r2, rrx

0000401c <l3977>:
    401c:	a28c42fa 	addge	r4, ip, #-1610612721	; 0xa000000f

00004020 <l3978>:
    4020:	e1888004 	orr	r8, r8, r4

00004024 <l3979>:
    4024:	e0083007 	and	r3, r8, r7

00004028 <l3980>:
    4028:	11540577 	cmpne	r4, r7, ror r5

0000402c <l3981>:
    402c:	c0c16004 	sbcgt	r6, r1, r4

00004030 <l3982>:
    4030:	e15e0170 	cmp	lr, r0, ror r1

00004034 <l3983>:
    4034:	e0ea74c6 	rsc	r7, sl, r6, asr #9

00004038 <l3984>:
    4038:	0a000002 	beq	4048 <l3988>

0000403c <l3985>:
    403c:	e280109e 	add	r1, r0, #158	; 0x9e

00004040 <l3986>:
    4040:	00748005 	rsbseq	r8, r4, r5

00004044 <l3987>:
    4044:	ea000000 	b	404c <l3989>

00004048 <l3988>:
    4048:	eafffffc 	b	4040 <l3986>

0000404c <l3989>:
    404c:	6a000000 	bvs	4054 <l3991>

00004050 <l3990>:
    4050:	01857f4a 	orreq	r7, r5, sl, asr #30

00004054 <l3991>:
    4054:	40c45b09 	sbcmi	r5, r4, r9, lsl #22

00004058 <l3992>:
    4058:	81c0a92f 	bichi	sl, r0, pc, lsr #18

0000405c <l3993>:
    405c:	e1f0a00f 	mvns	sl, pc

00004060 <l3994>:
    4060:	0382a3ea 	orreq	sl, r2, #-1476395005	; 0xa8000003

00004064 <l3995>:
    4064:	a0563828 	subsge	r3, r6, r8, lsr #16

00004068 <l3996>:
    4068:	b0d9a419 	sbcslt	sl, r9, r9, lsl r4

0000406c <l3997>:
    406c:	21f0b06a 	mvnscs	fp, sl, rrx

00004070 <l3998>:
    4070:	e83d0808 	ldmda	sp!, {r3, fp}

00004074 <l3999>:
    4074:	e0c06a54 	sbc	r6, r0, r4, asr sl

00004078 <l4000>:
    4078:	a3d7c435 	bicsge	ip, r7, #889192448	; 0x35000000

0000407c <l4001>:
    407c:	e2322ac3 	eors	r2, r2, #798720	; 0xc3000

00004080 <l4002>:
    4080:	ea000005 	b	409c <l4009>

00004084 <l4003>:
    4084:	e28010fb 	add	r1, r0, #251	; 0xfb

00004088 <l4004>:
    4088:	e17c006a 	cmn	ip, sl, rrx

0000408c <l4005>:
    408c:	316f6f1e 	clzcc	r6, lr

00004090 <l4006>:
    4090:	61dc2005 	bicsvs	r2, ip, r5

00004094 <l4007>:
    4094:	83e0c14f 	mvnhi	ip, #-1073741805	; 0xc0000013

00004098 <l4008>:
    4098:	ea000000 	b	40a0 <l4010>

0000409c <l4009>:
    409c:	eafffff9 	b	4088 <l4004>

000040a0 <l4010>:
    40a0:	719c6083 	orrsvc	r6, ip, r3, lsl #1

000040a4 <l4011>:
    40a4:	3195ac3a 	orrscc	sl, r5, sl, lsr ip

000040a8 <l4012>:
    40a8:	e048a002 	sub	sl, r8, r2

000040ac <l4013>:
    40ac:	c99d4d5c 	ldmibgt	sp, {r2, r3, r4, r6, r8, sl, fp, lr}

000040b0 <l4014>:
    40b0:	e0c1bb6f 	sbc	fp, r1, pc, ror #22

000040b4 <l4015>:
    40b4:	ea000006 	b	40d4 <l4023>

000040b8 <l4016>:
    40b8:	73300d31 	teqvc	r0, #3136	; 0xc40

000040bc <l4017>:
    40bc:	42569152 	subsmi	r9, r6, #-2147483628	; 0x80000014

000040c0 <l4018>:
    40c0:	91b02675 	rorsls	r2, r5, r6

000040c4 <l4019>:
    40c4:	419f9009 	orrsmi	r9, pc, r9

000040c8 <l4020>:
    40c8:	e1f02000 	mvns	r2, r0

000040cc <l4021>:
    40cc:	32696a36 	rsbcc	r6, r9, #221184	; 0x36000

000040d0 <l4022>:
    40d0:	e1350002 	teq	r5, r2

000040d4 <l4023>:
    40d4:	c0d80004 	sbcsgt	r0, r8, r4

000040d8 <l4024>:
    40d8:	e89d0080 	ldm	sp, {r7}

000040dc <l4025>:
    40dc:	ea000003 	b	40f0 <l4030>

000040e0 <l4026>:
    40e0:	e28010b5 	add	r1, r0, #181	; 0xb5

000040e4 <l4027>:
    40e4:	c16fef19 	clzgt	lr, r9

000040e8 <l4028>:
    40e8:	60b9773b 	adcsvs	r7, r9, fp, lsr r7

000040ec <l4029>:
    40ec:	ea000000 	b	40f4 <l4031>

000040f0 <l4030>:
    40f0:	eafffffb 	b	40e4 <l4027>

000040f4 <l4031>:
    40f4:	90304065 	eorsls	r4, r0, r5, rrx

000040f8 <l4032>:
    40f8:	e0231422 	eor	r1, r3, r2, lsr #8

000040fc <l4033>:
    40fc:	e3e01d77 	mvn	r1, #7616	; 0x1dc0

00004100 <l4034>:
    4100:	e9ad1002 	stmib	sp!, {r1, ip}

00004104 <l4035>:
    4104:	e1b0a001 	movs	sl, r1

00004108 <l4036>:
    4108:	e50da018 	str	sl, [sp, #-24]

0000410c <l4037>:
    410c:	107f5067 	rsbsne	r5, pc, r7, rrx

00004110 <l4038>:
    4110:	e1390549 	teq	r9, r9, asr #10

00004114 <l4039>:
    4114:	390d0102 	stmdbcc	sp, {r1, r8}

00004118 <l4040>:
    4118:	ca000005 	bgt	4134 <l4047>

0000411c <l4041>:
    411c:	e1f0c77b 	mvns	ip, fp, ror r7

00004120 <l4042>:
    4120:	e158071b 	cmp	r8, fp, lsl r7

00004124 <l4043>:
    4124:	e0410004 	sub	r0, r1, r4

00004128 <l4044>:
    4128:	e15c081a 	cmp	ip, sl, lsl r8

0000412c <l4045>:
    412c:	b13e02e6 	teqlt	lr, r6, ror #5

00004130 <l4046>:
    4130:	e1560f24 	cmp	r6, r4, lsr #30

00004134 <l4047>:
    4134:	50015000 	andpl	r5, r1, r0

00004138 <l4048>:
    4138:	30210688 	eorcc	r0, r1, r8, lsl #13

0000413c <l4049>:
    413c:	1a000007 	bne	4160 <l4058>

00004140 <l4050>:
    4140:	e280104a 	add	r1, r0, #74	; 0x4a

00004144 <l4051>:
    4144:	2227c06c 	eorcs	ip, r7, #108	; 0x6c

00004148 <l4052>:
    4148:	a1c8c005 	bicge	ip, r8, r5

0000414c <l4053>:
    414c:	739e3c77 	orrsvc	r3, lr, #30464	; 0x7700

00004150 <l4054>:
    4150:	41cc0dc5 	bicmi	r0, ip, r5, asr #27

00004154 <l4055>:
    4154:	e1530062 	cmp	r3, r2, rrx

00004158 <l4056>:
    4158:	e17c011a 	cmn	ip, sl, lsl r1

0000415c <l4057>:
    415c:	ea000000 	b	4164 <l4059>

00004160 <l4058>:
    4160:	eafffff7 	b	4144 <l4051>

00004164 <l4059>:
    4164:	ea000007 	b	4188 <l4068>

00004168 <l4060>:
