
dpbwb_5000.o:     file format elf32-littlearm


Disassembly of section .text:

00000000 <main>:
       0:	e05f000f 	subs	r0, pc, pc
       4:	e59fd000 	ldr	sp, [pc]	; c <val>
       8:	ea000000 	b	10 <next>

0000000c <val>:
       c:	000ffff0 	.word	0x000ffff0

00000010 <next>:
      10:	e59f1000 	ldr	r1, [pc]	; 18 <val1>
      14:	ea000000 	b	1c <next1>

00000018 <val1>:
      18:	c0a92a41 	.word	0xc0a92a41

0000001c <next1>:
      1c:	e59f2000 	ldr	r2, [pc]	; 24 <val2>
      20:	ea000000 	b	28 <next2>

00000024 <val2>:
      24:	5ed03065 	.word	0x5ed03065

00000028 <next2>:
      28:	e59f3000 	ldr	r3, [pc]	; 30 <val3>
      2c:	ea000000 	b	34 <next3>

00000030 <val3>:
      30:	98dbb260 	.word	0x98dbb260

00000034 <next3>:
      34:	e59f4000 	ldr	r4, [pc]	; 3c <val4>
      38:	ea000000 	b	40 <next4>

0000003c <val4>:
      3c:	6f39c7a1 	.word	0x6f39c7a1

00000040 <next4>:
      40:	e59f5000 	ldr	r5, [pc]	; 48 <val5>
      44:	ea000000 	b	4c <next5>

00000048 <val5>:
      48:	42b2b50c 	.word	0x42b2b50c

0000004c <next5>:
      4c:	e59f6000 	ldr	r6, [pc]	; 54 <val6>
      50:	ea000000 	b	58 <next6>

00000054 <val6>:
      54:	be733ce1 	.word	0xbe733ce1

00000058 <next6>:
      58:	e59f7000 	ldr	r7, [pc]	; 60 <val7>
      5c:	ea000000 	b	64 <next7>

00000060 <val7>:
      60:	1cc0adb3 	.word	0x1cc0adb3

00000064 <next7>:
      64:	e59f8000 	ldr	r8, [pc]	; 6c <val8>
      68:	ea000000 	b	70 <next8>

0000006c <val8>:
      6c:	f0cb78aa 	.word	0xf0cb78aa

00000070 <next8>:
      70:	e59f9000 	ldr	r9, [pc]	; 78 <val9>
      74:	ea000000 	b	7c <next9>

00000078 <val9>:
      78:	7fd2c007 	.word	0x7fd2c007

0000007c <next9>:
      7c:	e59fa000 	ldr	sl, [pc]	; 84 <val10>
      80:	ea000000 	b	88 <next10>

00000084 <val10>:
      84:	3d52201b 	.word	0x3d52201b

00000088 <next10>:
      88:	e59fb000 	ldr	fp, [pc]	; 90 <val11>
      8c:	ea000000 	b	94 <next11>

00000090 <val11>:
      90:	1ab32a7a 	.word	0x1ab32a7a

00000094 <next11>:
      94:	e59fc000 	ldr	ip, [pc]	; 9c <val12>
      98:	ea000000 	b	a0 <next12>

0000009c <val12>:
      9c:	af7e59aa 	.word	0xaf7e59aa

000000a0 <next12>:
      a0:	e59fe000 	ldr	lr, [pc]	; a8 <val14>
      a4:	ea000000 	b	ac <next14>

000000a8 <val14>:
      a8:	469d1a3d 	.word	0x469d1a3d

000000ac <next14>:
      ac:	e59f1000 	ldr	r1, [pc]	; b4 <val15>
      b0:	ea000000 	b	b8 <next15>

000000b4 <val15>:
      b4:	74aa1759 	.word	0x74aa1759

000000b8 <next15>:
      b8:	e58d1000 	str	r1, [sp]
      bc:	e59f1000 	ldr	r1, [pc]	; c4 <val16>
      c0:	ea000000 	b	c8 <next16>

000000c4 <val16>:
      c4:	b9c7a0a1 	.word	0xb9c7a0a1

000000c8 <next16>:
      c8:	e50d1004 	str	r1, [sp, #-4]
      cc:	e59f1000 	ldr	r1, [pc]	; d4 <val17>
      d0:	ea000000 	b	d8 <next17>

000000d4 <val17>:
      d4:	d3ea6577 	.word	0xd3ea6577

000000d8 <next17>:
      d8:	e50d1008 	str	r1, [sp, #-8]
      dc:	e59f1000 	ldr	r1, [pc]	; e4 <val18>
      e0:	ea000000 	b	e8 <next18>

000000e4 <val18>:
      e4:	ec472248 	.word	0xec472248

000000e8 <next18>:
      e8:	e50d100c 	str	r1, [sp, #-12]
      ec:	e59f1000 	ldr	r1, [pc]	; f4 <val19>
      f0:	ea000000 	b	f8 <next19>

000000f4 <val19>:
      f4:	126b6d47 	.word	0x126b6d47

000000f8 <next19>:
      f8:	e50d1010 	str	r1, [sp, #-16]
      fc:	e59f1000 	ldr	r1, [pc]	; 104 <val20>
     100:	ea000000 	b	108 <next20>

00000104 <val20>:
     104:	f4dcad76 	.word	0xf4dcad76

00000108 <next20>:
     108:	e50d1014 	str	r1, [sp, #-20]
     10c:	e59f1000 	ldr	r1, [pc]	; 114 <val21>
     110:	ea000000 	b	118 <next21>

00000114 <val21>:
     114:	97bf6da8 	.word	0x97bf6da8

00000118 <next21>:
     118:	e50d1018 	str	r1, [sp, #-24]
     11c:	e59f1000 	ldr	r1, [pc]	; 124 <val22>
     120:	ea000000 	b	128 <next22>

00000124 <val22>:
     124:	284692dd 	.word	0x284692dd

00000128 <next22>:
     128:	e50d101c 	str	r1, [sp, #-28]
     12c:	e59f1000 	ldr	r1, [pc]	; 134 <val23>
     130:	ea000000 	b	138 <next23>

00000134 <val23>:
     134:	4ddf6fbe 	.word	0x4ddf6fbe

00000138 <next23>:
     138:	e50d1020 	str	r1, [sp, #-32]
     13c:	e59f1000 	ldr	r1, [pc]	; 144 <val24>
     140:	ea000000 	b	148 <next24>

00000144 <val24>:
     144:	01190c0a 	.word	0x01190c0a

00000148 <next24>:
     148:	e50d1024 	str	r1, [sp, #-36]	; 0x24
     14c:	e59f1000 	ldr	r1, [pc]	; 154 <val25>
     150:	ea000000 	b	158 <next25>

00000154 <val25>:
     154:	d79bfcb4 	.word	0xd79bfcb4

00000158 <next25>:
     158:	e50d1028 	str	r1, [sp, #-40]	; 0x28
     15c:	e59f1000 	ldr	r1, [pc]	; 164 <val26>
     160:	ea000000 	b	168 <next26>

00000164 <val26>:
     164:	9ba35e84 	.word	0x9ba35e84

00000168 <next26>:
     168:	e50d102c 	str	r1, [sp, #-44]	; 0x2c
     16c:	e59f1000 	ldr	r1, [pc]	; 174 <val27>
     170:	ea000000 	b	178 <next27>

00000174 <val27>:
     174:	aac0dda2 	.word	0xaac0dda2

00000178 <next27>:
     178:	e50d1030 	str	r1, [sp, #-48]	; 0x30
     17c:	e59f1000 	ldr	r1, [pc]	; 184 <val28>
     180:	ea000000 	b	188 <next28>

00000184 <val28>:
     184:	44e91d08 	.word	0x44e91d08

00000188 <next28>:
     188:	e50d1034 	str	r1, [sp, #-52]	; 0x34
     18c:	e59f1000 	ldr	r1, [pc]	; 194 <val29>
     190:	ea000000 	b	198 <next29>

00000194 <val29>:
     194:	879129c3 	.word	0x879129c3

00000198 <next29>:
     198:	e50d1038 	str	r1, [sp, #-56]	; 0x38
     19c:	e59f1000 	ldr	r1, [pc]	; 1a4 <val30>
     1a0:	ea000000 	b	1a8 <next30>

000001a4 <val30>:
     1a4:	6429f2a0 	.word	0x6429f2a0

000001a8 <next30>:
     1a8:	e50d103c 	str	r1, [sp, #-60]	; 0x3c
     1ac:	e59f1000 	ldr	r1, [pc]	; 1b4 <val31>
     1b0:	ea000000 	b	1b8 <next31>

000001b4 <val31>:
     1b4:	7aa43e13 	.word	0x7aa43e13

000001b8 <next31>:
     1b8:	e50d1040 	str	r1, [sp, #-64]	; 0x40
     1bc:	e59f1000 	ldr	r1, [pc]	; 1c4 <val32>
     1c0:	ea000000 	b	1c8 <next32>

000001c4 <val32>:
     1c4:	8590f27b 	.word	0x8590f27b

000001c8 <next32>:
     1c8:	e50d1044 	str	r1, [sp, #-68]	; 0x44
     1cc:	e59f1000 	ldr	r1, [pc]	; 1d4 <val33>
     1d0:	ea000000 	b	1d8 <next33>

000001d4 <val33>:
     1d4:	4723f22f 	.word	0x4723f22f

000001d8 <next33>:
     1d8:	e50d1048 	str	r1, [sp, #-72]	; 0x48
     1dc:	e59f1000 	ldr	r1, [pc]	; 1e4 <val34>
     1e0:	ea000000 	b	1e8 <next34>

000001e4 <val34>:
     1e4:	6683ad04 	.word	0x6683ad04

000001e8 <next34>:
     1e8:	e50d104c 	str	r1, [sp, #-76]	; 0x4c
     1ec:	e59f1000 	ldr	r1, [pc]	; 1f4 <val35>
     1f0:	ea000000 	b	1f8 <next35>

000001f4 <val35>:
     1f4:	a81f7fba 	.word	0xa81f7fba

000001f8 <next35>:
     1f8:	e50d1050 	str	r1, [sp, #-80]	; 0x50

000001fc <l1>:
     1fc:	ea000003 	b	210 <l6>

00000200 <l2>:
     200:	e28010d1 	add	r1, r0, #209	; 0xd1

00000204 <l3>:
     204:	e0d893c4 	sbcs	r9, r8, r4, asr #7

00000208 <l4>:
     208:	2067c9e2 	rsbcs	ip, r7, r2, ror #19

0000020c <l5>:
     20c:	ea000000 	b	214 <l7>

00000210 <l6>:
     210:	eafffffb 	b	204 <l3>

00000214 <l7>:
     214:	e252e07f 	subs	lr, r2, #127	; 0x7f

00000218 <l8>:
     218:	e1730fa1 	cmn	r3, r1, lsr #31

0000021c <l9>:
     21c:	10e23aee 	rscne	r3, r2, lr, ror #21

00000220 <l10>:
     220:	a026093c 	eorge	r0, r6, ip, lsr r9

00000224 <l11>:
     224:	e1310c03 	teq	r1, r3, lsl #24

00000228 <l12>:
     228:	e1a05007 	mov	r5, r7

0000022c <l13>:
     22c:	c0e8906b 	rscgt	r9, r8, fp, rrx

00000230 <l14>:
     230:	5026200c 	eorpl	r2, r6, ip

00000234 <l15>:
     234:	e1911889 	orrs	r1, r1, r9, lsl #17

00000238 <l16>:
     238:	e3a0a020 	mov	sl, #32

0000023c <l17>:
     23c:	e60df00a 	str	pc, [sp], -sl

00000240 <l18>:
     240:	d0cb3066 	sbcle	r3, fp, r6, rrx

00000244 <l19>:
     244:	da000005 	ble	260 <l26>

00000248 <l20>:
     248:	e3140d09 	tst	r4, #576	; 0x240

0000024c <l21>:
     24c:	73f019b7 	mvnsvc	r1, #2998272	; 0x2dc000

00000250 <l22>:
     250:	e2bf3d37 	adcs	r3, pc, #3520	; 0xdc0

00000254 <l23>:
     254:	e0478834 	sub	r8, r7, r4, lsr r8

00000258 <l24>:
     258:	c3510c76 	cmpgt	r1, #30208	; 0x7600

0000025c <l25>:
     25c:	e0bea171 	adcs	sl, lr, r1, ror r1

00000260 <l26>:
     260:	e0219678 	eor	r9, r1, r8, ror r6

00000264 <l27>:
     264:	92465029 	subls	r5, r6, #41	; 0x29

00000268 <l28>:
     268:	e33a0731 	teq	sl, #12845056	; 0xc40000

0000026c <l29>:
     26c:	e014a1c0 	ands	sl, r4, r0, asr #3

00000270 <l30>:
     270:	325a2671 	subscc	r2, sl, #118489088	; 0x7100000

00000274 <l31>:
     274:	4a000003 	bmi	288 <l36>

00000278 <l32>:
     278:	e2801054 	add	r1, r0, #84	; 0x54

0000027c <l33>:
     27c:	02438322 	subeq	r8, r3, #-2013265920	; 0x88000000

00000280 <l34>:
     280:	c37300a7 	cmngt	r3, #167	; 0xa7

00000284 <l35>:
     284:	ea000000 	b	28c <l37>

00000288 <l36>:
     288:	eafffffb 	b	27c <l33>

0000028c <l37>:
     28c:	70109353 	andsvc	r9, r0, r3, asr r3

00000290 <l38>:
     290:	e0951714 	adds	r1, r5, r4, lsl r7

00000294 <l39>:
     294:	e3a02028 	mov	r2, #40	; 0x28

00000298 <l40>:
     298:	e71d3002 	ldr	r3, [sp, -r2]

0000029c <l41>:
     29c:	c17c000b 	cmngt	ip, fp

000002a0 <l42>:
     2a0:	72eca043 	rscvc	sl, ip, #67	; 0x43

000002a4 <l43>:
     2a4:	e0473b0a 	sub	r3, r7, sl, lsl #22

000002a8 <l44>:
     2a8:	a0e9b006 	rscge	fp, r9, r6

000002ac <l45>:
     2ac:	33899db1 	orrcc	r9, r9, #11328	; 0x2c40

000002b0 <l46>:
     2b0:	aaffffff 	bge	2b4 <l47>

000002b4 <l47>:
     2b4:	e1f0262b 	mvns	r2, fp, lsr #12

000002b8 <l48>:
     2b8:	80fae005 	rscshi	lr, sl, r5

000002bc <l49>:
     2bc:	ea000004 	b	2d4 <l55>

000002c0 <l50>:
     2c0:	e02f6e40 	eor	r6, pc, r0, asr #28

000002c4 <l51>:
     2c4:	11370b7e 	teqne	r7, lr, ror fp

000002c8 <l52>:
     2c8:	e046ad2f 	sub	sl, r6, pc, lsr #26

000002cc <l53>:
     2cc:	e1760004 	cmn	r6, r4

000002d0 <l54>:
     2d0:	41858c06 	orrmi	r8, r5, r6, lsl #24

000002d4 <l55>:
     2d4:	b0782a52 	rsbslt	r2, r8, r2, asr sl

000002d8 <l56>:
     2d8:	ea000003 	b	2ec <l61>

000002dc <l57>:
     2dc:	e048b008 	sub	fp, r8, r8

000002e0 <l58>:
     2e0:	e1150771 	tst	r5, r1, ror r7

000002e4 <l59>:
     2e4:	e1c91b78 	bic	r1, r9, r8, ror fp

000002e8 <l60>:
     2e8:	73740087 	cmnvc	r4, #135	; 0x87

000002ec <l61>:
     2ec:	e06b2002 	rsb	r2, fp, r2

000002f0 <l62>:
     2f0:	e3a04000 	mov	r4, #0

000002f4 <l63>:
     2f4:	e7bd0004 	ldr	r0, [sp, r4]!

000002f8 <l64>:
     2f8:	e0220a70 	eor	r0, r2, r0, ror sl

000002fc <l65>:
     2fc:	e0b37008 	adcs	r7, r3, r8

00000300 <l66>:
     300:	a1380711 	teqge	r8, r1, lsl r7

00000304 <l67>:
     304:	e02a9161 	eor	r9, sl, r1, ror #2

00000308 <l68>:
     308:	e1760068 	cmn	r6, r8, rrx

0000030c <l69>:
     30c:	e157038e 	cmp	r7, lr, lsl #7

00000310 <l70>:
     310:	41e0100e 	mvnmi	r1, lr

00000314 <l71>:
     314:	d04c8004 	suble	r8, ip, r4

00000318 <l72>:
     318:	10c96633 	sbcne	r6, r9, r3, lsr r6

0000031c <l73>:
     31c:	e1931441 	orrs	r1, r3, r1, asr #8

00000320 <l74>:
     320:	238328ba 	orrcs	r2, r3, #12189696	; 0xba0000

00000324 <l75>:
     324:	e05fc007 	subs	ip, pc, r7

00000328 <l76>:
     328:	d175006b 	cmnle	r5, fp, rrx

0000032c <l77>:
     32c:	e3884219 	orr	r4, r8, #-1879048191	; 0x90000001

00000330 <l78>:
     330:	e3a09e36 	mov	r9, #864	; 0x360

00000334 <l79>:
     334:	217c006f 	cmncs	ip, pc, rrx

00000338 <l80>:
     338:	909a6572 	addsls	r6, sl, r2, ror r5

0000033c <l81>:
     33c:	50d9c053 	sbcspl	ip, r9, r3, asr r0

00000340 <l82>:
     340:	e3a0400c 	mov	r4, #12

00000344 <l83>:
     344:	d7cdb004 	strble	fp, [sp, r4]

00000348 <l84>:
     348:	700a10c5 	andvc	r1, sl, r5, asr #1

0000034c <l85>:
     34c:	e236a52e 	eors	sl, r6, #192937984	; 0xb800000

00000350 <l86>:
     350:	606b8a50 	rsbvs	r8, fp, r0, asr sl

00000354 <l87>:
     354:	e1d98007 	bics	r8, r9, r7

00000358 <l88>:
     358:	a0d05005 	sbcsge	r5, r0, r5

0000035c <l89>:
     35c:	32713503 	rsbscc	r3, r1, #12582912	; 0xc00000

00000360 <l90>:
     360:	e31e03f2 	tst	lr, #-939524093	; 0xc8000003

00000364 <l91>:
     364:	e0c5b003 	sbc	fp, r5, r3

00000368 <l92>:
     368:	9110073e 	tstls	r0, lr, lsr r7

0000036c <l93>:
     36c:	b0b3a002 	adcslt	sl, r3, r2

00000370 <l94>:
     370:	e16f6f14 	clz	r6, r4

00000374 <l95>:
     374:	e3a0a012 	mov	sl, #18

00000378 <l96>:
     378:	17dd200a 	ldrbne	r2, [sp, sl]

0000037c <l97>:
     37c:	7a000003 	bvc	390 <l102>

00000380 <l98>:
     380:	e2801001 	add	r1, r0, #1

00000384 <l99>:
     384:	70766aab 	rsbsvc	r6, r6, fp, lsr #21

00000388 <l100>:
     388:	231f000c 	tstcs	pc, #12

0000038c <l101>:
     38c:	ea000000 	b	394 <l103>

00000390 <l102>:
     390:	eafffffb 	b	384 <l99>

00000394 <l103>:
     394:	eaffffff 	b	398 <l104>

00000398 <l104>:
     398:	e16f7f17 	clz	r7, r7

0000039c <l105>:
     39c:	e255c2d5 	subs	ip, r5, #1342177293	; 0x5000000d

000003a0 <l106>:
     3a0:	e41d1004 	ldr	r1, [sp], #-4

000003a4 <l107>:
     3a4:	e037c067 	eors	ip, r7, r7, rrx

000003a8 <l108>:
     3a8:	e53d1010 	ldr	r1, [sp, #-16]!

000003ac <l109>:
     3ac:	11e03b73 	mvnne	r3, r3, ror fp

000003b0 <l110>:
     3b0:	e0382452 	eors	r2, r8, r2, asr r4

000003b4 <l111>:
     3b4:	d16f4f15 	clzle	r4, r5

000003b8 <l112>:
     3b8:	31c0606f 	biccc	r6, r0, pc, rrx

000003bc <l113>:
     3bc:	716f6f11 	clzvc	r6, r1

000003c0 <l114>:
     3c0:	d38ee116 	orrle	lr, lr, #-2147483643	; 0x80000005

000003c4 <l115>:
     3c4:	e0953000 	adds	r3, r5, r0

000003c8 <l116>:
     3c8:	e15b006e 	cmp	fp, lr, rrx

000003cc <l117>:
     3cc:	e1170466 	tst	r7, r6, ror #8

000003d0 <l118>:
     3d0:	d070b2a4 	rsbsle	fp, r0, r4, lsr #5

000003d4 <l119>:
     3d4:	d16f0f17 	clzle	r0, r7

000003d8 <l120>:
     3d8:	a1150005 	tstge	r5, r5

000003dc <l121>:
     3dc:	72d36deb 	sbcsvc	r6, r3, #15040	; 0x3ac0

000003e0 <l122>:
     3e0:	41f0993a 	mvnsmi	r9, sl, lsr r9

000003e4 <l123>:
     3e4:	32163a47 	andscc	r3, r6, #290816	; 0x47000

000003e8 <l124>:
     3e8:	0394ca76 	orrseq	ip, r4, #483328	; 0x76000

000003ec <l125>:
     3ec:	e1130855 	tst	r3, r5, asr r8

000003f0 <l126>:
     3f0:	6038b53b 	eorsvs	fp, r8, fp, lsr r5

000003f4 <l127>:
     3f4:	9a000007 	bls	418 <l136>

000003f8 <l128>:
     3f8:	e28010cc 	add	r1, r0, #204	; 0xcc

000003fc <l129>:
     3fc:	a1300004 	teqge	r0, r4

00000400 <l130>:
     400:	213c0003 	teqcs	ip, r3

00000404 <l131>:
     404:	c0c1c000 	sbcgt	ip, r1, r0

00000408 <l132>:
     408:	e16fcf19 	clz	ip, r9

0000040c <l133>:
     40c:	90e32ceb 	rscls	r2, r3, fp, ror #25

00000410 <l134>:
     410:	41360153 	teqmi	r6, r3, asr r1

00000414 <l135>:
     414:	ea000000 	b	41c <l137>

00000418 <l136>:
     418:	eafffff7 	b	3fc <l129>

0000041c <l137>:
     41c:	e3a0101a 	mov	r1, #26

00000420 <l138>:
     420:	d7cd8001 	strble	r8, [sp, r1]

00000424 <l139>:
     424:	0279c5f7 	rsbseq	ip, r9, #1035993088	; 0x3dc00000

00000428 <l140>:
     428:	eaffffff 	b	42c <l141>

0000042c <l141>:
     42c:	837f035f 	cmnhi	pc, #2080374785	; 0x7c000001

00000430 <l142>:
     430:	916f6f14 	clzls	r6, r4

00000434 <l143>:
     434:	737007a7 	cmnvc	r0, #43778048	; 0x29c0000

00000438 <l144>:
     438:	aa000004 	bge	450 <l150>

0000043c <l145>:
     43c:	e28010aa 	add	r1, r0, #170	; 0xaa

00000440 <l146>:
     440:	22993d0f 	addscs	r3, r9, #960	; 0x3c0

00000444 <l147>:
     444:	e189ab15 	orr	sl, r9, r5, lsl fp

00000448 <l148>:
     448:	a151000e 	cmpge	r1, lr

0000044c <l149>:
     44c:	ea000000 	b	454 <l151>

00000450 <l150>:
     450:	eafffffa 	b	440 <l146>

00000454 <l151>:
     454:	61760001 	cmnvs	r6, r1

00000458 <l152>:
     458:	a0f17c78 	rscsge	r7, r1, r8, ror ip

0000045c <l153>:
     45c:	625a0a52 	subsvs	r0, sl, #335872	; 0x52000

00000460 <l154>:
     460:	c1120004 	tstgt	r2, r4

00000464 <l155>:
     464:	e25b3196 	subs	r3, fp, #-2147483611	; 0x80000025

00000468 <l156>:
     468:	8a000006 	bhi	488 <l164>

0000046c <l157>:
     46c:	e28010b6 	add	r1, r0, #182	; 0xb6

00000470 <l158>:
     470:	41b06864 	rorsmi	r6, r4, #16

00000474 <l159>:
     474:	e0880007 	add	r0, r8, r7

00000478 <l160>:
     478:	62590074 	subsvs	r0, r9, #116	; 0x74

0000047c <l161>:
     47c:	80546014 	subshi	r6, r4, r4, lsl r0

00000480 <l162>:
     480:	e2efae7f 	rsc	sl, pc, #2032	; 0x7f0

00000484 <l163>:
     484:	ea000000 	b	48c <l165>

00000488 <l164>:
     488:	eafffff8 	b	470 <l158>

0000048c <l165>:
     48c:	d0850503 	addle	r0, r5, r3, lsl #10

00000490 <l166>:
     490:	2139006a 	teqcs	r9, sl, rrx

00000494 <l167>:
     494:	e1b00003 	movs	r0, r3

00000498 <l168>:
     498:	4234984d 	eorsmi	r9, r4, #5046272	; 0x4d0000

0000049c <l169>:
     49c:	e005aca4 	and	sl, r5, r4, lsr #25

000004a0 <l170>:
     4a0:	31190b12 	tstcc	r9, r2, lsl fp

000004a4 <l171>:
     4a4:	30cc97c4 	sbccc	r9, ip, r4, asr #15

000004a8 <l172>:
     4a8:	a51d0004 	ldrge	r0, [sp, #-4]

000004ac <l173>:
     4ac:	c0188062 	andsgt	r8, r8, r2, rrx

000004b0 <l174>:
     4b0:	b38e665a 	orrlt	r6, lr, #94371840	; 0x5a00000

000004b4 <l175>:
     4b4:	119cae8e 	orrsne	sl, ip, lr, lsl #29

000004b8 <l176>:
     4b8:	d0d9b112 	sbcsle	fp, r9, r2, lsl r1

000004bc <l177>:
     4bc:	ea000006 	b	4dc <l185>

000004c0 <l178>:
     4c0:	e280108e 	add	r1, r0, #142	; 0x8e

000004c4 <l179>:
     4c4:	e19aa06f 	orrs	sl, sl, pc, rrx

000004c8 <l180>:
     4c8:	e3340a83 	teq	r4, #536576	; 0x83000

000004cc <l181>:
     4cc:	b0c1200a 	sbclt	r2, r1, sl

000004d0 <l182>:
     4d0:	d196c00e 	orrsle	ip, r6, lr

000004d4 <l183>:
     4d4:	e0a92062 	adc	r2, r9, r2, rrx

000004d8 <l184>:
     4d8:	ea000000 	b	4e0 <l186>

000004dc <l185>:
     4dc:	eafffff8 	b	4c4 <l179>

000004e0 <l186>:
     4e0:	e3360797 	teq	r6, #39583744	; 0x25c0000

000004e4 <l187>:
     4e4:	e33a0ecb 	teq	sl, #3248	; 0xcb0

000004e8 <l188>:
     4e8:	ea000006 	b	508 <l196>

000004ec <l189>:
     4ec:	c237b529 	eorsgt	fp, r7, #171966464	; 0xa400000

000004f0 <l190>:
     4f0:	b1370904 	teqlt	r7, r4, lsl #18

000004f4 <l191>:
     4f4:	e16f7f12 	clz	r7, r2

000004f8 <l192>:
     4f8:	82460b0a 	subhi	r0, r6, #10240	; 0x2800

000004fc <l193>:
     4fc:	e1a0172c 	lsr	r1, ip, #14

00000500 <l194>:
     500:	e0790004 	rsbs	r0, r9, r4

00000504 <l195>:
     504:	3051e977 	subscc	lr, r1, r7, ror r9

00000508 <l196>:
     508:	c05262cf 	subsgt	r6, r2, pc, asr #5

0000050c <l197>:
     50c:	01c46d8e 	biceq	r6, r4, lr, lsl #27

00000510 <l198>:
     510:	e3a07020 	mov	r7, #32

00000514 <l199>:
     514:	c78de007 	strgt	lr, [sp, r7]

00000518 <l200>:
     518:	c1110004 	tstgt	r1, r4

0000051c <l201>:
     51c:	e331051f 	teq	r1, #130023424	; 0x7c00000

00000520 <l202>:
     520:	90c63007 	sbcls	r3, r6, r7

00000524 <l203>:
     524:	e3160119 	tst	r6, #1073741830	; 0x40000006

00000528 <l204>:
     528:	50198064 	andspl	r8, r9, r4, rrx

0000052c <l205>:
     52c:	50707670 	rsbspl	r7, r0, r0, ror r6

00000530 <l206>:
     530:	e178072f 	cmn	r8, pc, lsr #14

00000534 <l207>:
     534:	d1d6a06f 	bicsle	sl, r6, pc, rrx

00000538 <l208>:
     538:	e066b370 	rsb	fp, r6, r0, ror r3

0000053c <l209>:
     53c:	d0b6a424 	adcsle	sl, r6, r4, lsr #8

00000540 <l210>:
     540:	ea000005 	b	55c <l217>

00000544 <l211>:
     544:	e2801056 	add	r1, r0, #86	; 0x56

00000548 <l212>:
     548:	e13e0067 	teq	lr, r7, rrx

0000054c <l213>:
     54c:	515e0468 	cmppl	lr, r8, ror #8

00000550 <l214>:
     550:	c0fe4338 	rscsgt	r4, lr, r8, lsr r3

00000554 <l215>:
     554:	e3e070cd 	mvn	r7, #205	; 0xcd

00000558 <l216>:
     558:	ea000000 	b	560 <l218>

0000055c <l217>:
     55c:	eafffff9 	b	548 <l212>

00000560 <l218>:
     560:	104e8061 	subne	r8, lr, r1, rrx

00000564 <l219>:
     564:	e056a21e 	subs	sl, r6, lr, lsl r2

00000568 <l220>:
     568:	e0046502 	and	r6, r4, r2, lsl #10

0000056c <l221>:
     56c:	304a2534 	subcc	r2, sl, r4, lsr r5

00000570 <l222>:
     570:	21a0091c 	lslcs	r0, ip, r9

00000574 <l223>:
     574:	203fa068 	eorscs	sl, pc, r8, rrx

00000578 <l224>:
     578:	e1f03533 	mvns	r3, r3, lsr r5

0000057c <l225>:
     57c:	3a000004 	bcc	594 <l231>

00000580 <l226>:
     580:	d09c7003 	addsle	r7, ip, r3

00000584 <l227>:
     584:	d1a03061 	rrxle	r3, r1

00000588 <l228>:
     588:	a1160068 	tstge	r6, r8, rrx

0000058c <l229>:
     58c:	00205002 	eoreq	r5, r0, r2

00000590 <l230>:
     590:	5002b64e 	andpl	fp, r2, lr, asr #12

00000594 <l231>:
     594:	b1982917 	orrslt	r2, r8, r7, lsl r9

00000598 <l232>:
     598:	e1995002 	orrs	r5, r9, r2

0000059c <l233>:
     59c:	c068c77b 	rsbgt	ip, r8, fp, ror r7

000005a0 <l234>:
     5a0:	42b9a33a 	adcsmi	sl, r9, #-402653184	; 0xe8000000

000005a4 <l235>:
     5a4:	41ccbdc6 	bicmi	fp, ip, r6, asr #27

000005a8 <l236>:
     5a8:	e1b0e875 	rors	lr, r5, r8

000005ac <l237>:
     5ac:	405b2e04 	subsmi	r2, fp, r4, lsl #28

000005b0 <l238>:
     5b0:	5150000a 	cmppl	r0, sl

000005b4 <l239>:
     5b4:	e13c0008 	teq	ip, r8

000005b8 <l240>:
     5b8:	811b0007 	tsthi	fp, r7

000005bc <l241>:
     5bc:	91f0863c 	mvnsls	r8, ip, lsr r6

000005c0 <l242>:
     5c0:	a03a0009 	eorsge	r0, sl, r9

000005c4 <l243>:
     5c4:	92a8a10b 	adcls	sl, r8, #-1073741822	; 0xc0000002

000005c8 <l244>:
     5c8:	31e08115 	mvncc	r8, r5, lsl r1

000005cc <l245>:
     5cc:	e3a03009 	mov	r3, #9

000005d0 <l246>:
     5d0:	b7dd0003 	ldrblt	r0, [sp, r3]

000005d4 <l247>:
     5d4:	e16f1f16 	clz	r1, r6

000005d8 <l248>:
     5d8:	115b006e 	cmpne	fp, lr, rrx

000005dc <l249>:
     5dc:	e385ba29 	orr	fp, r5, #167936	; 0x29000

000005e0 <l250>:
     5e0:	a0c6c06c 	sbcge	ip, r6, ip, rrx

000005e4 <l251>:
     5e4:	52c095dd 	sbcpl	r9, r0, #926941184	; 0x37400000

000005e8 <l252>:
     5e8:	e2209c42 	eor	r9, r0, #16896	; 0x4200

000005ec <l253>:
     5ec:	1228336e 	eorne	r3, r8, #-1207959551	; 0xb8000001

000005f0 <l254>:
     5f0:	5248c63f 	subpl	ip, r8, #66060288	; 0x3f00000

000005f4 <l255>:
     5f4:	3038e238 	eorscc	lr, r8, r8, lsr r2

000005f8 <l256>:
     5f8:	100c000c 	andne	r0, ip, ip

000005fc <l257>:
     5fc:	e13f0c81 	teq	pc, r1, lsl #25

00000600 <l258>:
     600:	a189700f 	orrge	r7, r9, pc

00000604 <l259>:
     604:	e05e5065 	subs	r5, lr, r5, rrx

00000608 <l260>:
     608:	d0d4c373 	sbcsle	ip, r4, r3, ror r3

0000060c <l261>:
     60c:	e1802530 	orr	r2, r0, r0, lsr r5

00000610 <l262>:
     610:	40c52279 	sbcmi	r2, r5, r9, ror r2

00000614 <l263>:
     614:	52ff0a0d 	rscspl	r0, pc, #53248	; 0xd000

00000618 <l264>:
     618:	b3986453 	orrslt	r6, r8, #1392508928	; 0x53000000

0000061c <l265>:
     61c:	c0112537 	andsgt	r2, r1, r7, lsr r5

00000620 <l266>:
     620:	13e08b0f 	mvnne	r8, #15360	; 0x3c00

00000624 <l267>:
     624:	2a000001 	bcs	630 <l270>

00000628 <l268>:
     628:	4215a0e3 	andsmi	sl, r5, #227	; 0xe3

0000062c <l269>:
     62c:	e0505472 	subs	r5, r0, r2, ror r4

00000630 <l270>:
     630:	a2e6e078 	rscge	lr, r6, #120	; 0x78

00000634 <l271>:
     634:	d05fc00a 	subsle	ip, pc, sl

00000638 <l272>:
     638:	b05bc00c 	subslt	ip, fp, ip

0000063c <l273>:
     63c:	3affffff 	bcc	640 <l274>

00000640 <l274>:
     640:	e0239432 	eor	r9, r3, r2, lsr r4

00000644 <l275>:
     644:	ea000004 	b	65c <l281>

00000648 <l276>:
     648:	e28010ff 	add	r1, r0, #255	; 0xff

0000064c <l277>:
     64c:	e3f046f9 	mvns	r4, #261095424	; 0xf900000

00000650 <l278>:
     650:	c04ce06c 	subgt	lr, ip, ip, rrx

00000654 <l279>:
     654:	60c89008 	sbcvs	r9, r8, r8

00000658 <l280>:
     658:	ea000000 	b	660 <l282>

0000065c <l281>:
     65c:	eafffffa 	b	64c <l277>

00000660 <l282>:
     660:	20500573 	subscs	r0, r0, r3, ror r5

00000664 <l283>:
     664:	e3a0b003 	mov	fp, #3

00000668 <l284>:
     668:	47cd900b 	strbmi	r9, [sp, fp]

0000066c <l285>:
     66c:	e19ebb7e 	orrs	fp, lr, lr, ror fp

00000670 <l286>:
     670:	81350a68 	teqhi	r5, r8, ror #20

00000674 <l287>:
     674:	31812352 	orrcc	r2, r1, r2, asr r3

00000678 <l288>:
     678:	e27b24f9 	rsbs	r2, fp, #-117440512	; 0xf9000000

0000067c <l289>:
     67c:	e046c066 	sub	ip, r6, r6, rrx

00000680 <l290>:
     680:	4a000005 	bmi	69c <l297>

00000684 <l291>:
     684:	e280103f 	add	r1, r0, #63	; 0x3f

00000688 <l292>:
     688:	e09fe007 	adds	lr, pc, r7

0000068c <l293>:
     68c:	40decbe0 	sbcsmi	ip, lr, r0, ror #23

00000690 <l294>:
     690:	e0243003 	eor	r3, r4, r3

00000694 <l295>:
     694:	e1140cce 	tst	r4, lr, asr #25

00000698 <l296>:
     698:	ea000000 	b	6a0 <l298>

0000069c <l297>:
     69c:	eafffff9 	b	688 <l292>

000006a0 <l298>:
     6a0:	e0725009 	rsbs	r5, r2, r9

000006a4 <l299>:
     6a4:	e2433456 	sub	r3, r3, #1442840576	; 0x56000000

000006a8 <l300>:
     6a8:	c0cb5176 	sbcgt	r5, fp, r6, ror r1

000006ac <l301>:
     6ac:	aa000002 	bge	6bc <l305>

000006b0 <l302>:
     6b0:	e2801042 	add	r1, r0, #66	; 0x42

000006b4 <l303>:
     6b4:	e1f03b33 	mvns	r3, r3, lsr fp

000006b8 <l304>:
     6b8:	ea000000 	b	6c0 <l306>

000006bc <l305>:
     6bc:	eafffffc 	b	6b4 <l303>

000006c0 <l306>:
     6c0:	b035b003 	eorslt	fp, r5, r3

000006c4 <l307>:
     6c4:	a3cc38cd 	bicge	r3, ip, #13434880	; 0xcd0000

000006c8 <l308>:
     6c8:	e0370c7e 	eors	r0, r7, lr, ror ip

000006cc <l309>:
     6cc:	50a069a8 	adcpl	r6, r0, r8, lsr #19

000006d0 <l310>:
     6d0:	e3a0c004 	mov	ip, #4

000006d4 <l311>:
     6d4:	e60d200c 	str	r2, [sp], -ip

000006d8 <l312>:
     6d8:	e220cdcd 	eor	ip, r0, #13120	; 0x3340

000006dc <l313>:
     6dc:	711c045c 	tstvc	ip, ip, asr r4

000006e0 <l314>:
     6e0:	31c9e066 	biccc	lr, r9, r6, rrx

000006e4 <l315>:
     6e4:	633f0527 	teqvs	pc, #163577856	; 0x9c00000

000006e8 <l316>:
     6e8:	a2268edf 	eorge	r8, r6, #3568	; 0xdf0

000006ec <l317>:
     6ec:	705be00e 	subsvc	lr, fp, lr

000006f0 <l318>:
     6f0:	ea000004 	b	708 <l324>

000006f4 <l319>:
     6f4:	e2801075 	add	r1, r0, #117	; 0x75

000006f8 <l320>:
     6f8:	e2f20502 	rscs	r0, r2, #8388608	; 0x800000

000006fc <l321>:
     6fc:	e16f3f1c 	clz	r3, ip

00000700 <l322>:
     700:	416fcf1e 	clzmi	ip, lr

00000704 <l323>:
     704:	ea000000 	b	70c <l325>

00000708 <l324>:
     708:	eafffffa 	b	6f8 <l320>

0000070c <l325>:
     70c:	a1e0100a 	mvnge	r1, sl

00000710 <l326>:
     710:	03750bb6 	cmneq	r5, #186368	; 0x2d800

00000714 <l327>:
     714:	e04824e1 	sub	r2, r8, r1, ror #9

00000718 <l328>:
     718:	e0386005 	eors	r6, r8, r5

0000071c <l329>:
     71c:	50dc600a 	sbcspl	r6, ip, sl

00000720 <l330>:
     720:	e20448fb 	and	r4, r4, #16449536	; 0xfb0000

00000724 <l331>:
     724:	b1f0000c 	mvnslt	r0, ip

00000728 <l332>:
     728:	e0014068 	and	r4, r1, r8, rrx

0000072c <l333>:
     72c:	41b00001 	movsmi	r0, r1

00000730 <l334>:
     730:	820c5cf9 	andhi	r5, ip, #63744	; 0xf900

00000734 <l335>:
     734:	e18589a6 	orr	r8, r5, r6, lsr #19

00000738 <l336>:
     738:	71b0806a 	rrxsvc	r8, sl

0000073c <l337>:
     73c:	e11c000b 	tst	ip, fp

00000740 <l338>:
     740:	1208994a 	andne	r9, r8, #1212416	; 0x128000

00000744 <l339>:
     744:	61130066 	tstvs	r3, r6, rrx

00000748 <l340>:
     748:	e0e0a008 	rsc	sl, r0, r8

0000074c <l341>:
     74c:	ca000005 	bgt	768 <l348>

00000750 <l342>:
     750:	b2443e75 	sublt	r3, r4, #1872	; 0x750

00000754 <l343>:
     754:	122bc6c1 	eorne	ip, fp, #202375168	; 0xc100000

00000758 <l344>:
     758:	d3340d89 	teqle	r4, #8768	; 0x2240

0000075c <l345>:
     75c:	e1120007 	tst	r2, r7

00000760 <l346>:
     760:	b0f21001 	rscslt	r1, r2, r1

00000764 <l347>:
     764:	01750bea 	cmneq	r5, sl, ror #23

00000768 <l348>:
     768:	e13f006a 	teq	pc, sl, rrx

0000076c <l349>:
     76c:	e1330066 	teq	r3, r6, rrx

00000770 <l350>:
     770:	33d4a257 	bicscc	sl, r4, #1879048197	; 0x70000005

00000774 <l351>:
     774:	91a09a57 	asrls	r9, r7, sl

00000778 <l352>:
     778:	e0eb22e9 	rsc	r2, fp, r9, ror #5

0000077c <l353>:
     77c:	e5ad501c 	str	r5, [sp, #28]!

00000780 <l354>:
     780:	ea000008 	b	7a8 <l364>

00000784 <l355>:
     784:	816fbf12 	clzhi	fp, r2

00000788 <l356>:
     788:	e1e0900b 	mvn	r9, fp

0000078c <l357>:
     78c:	e3cb750e 	bic	r7, fp, #58720256	; 0x3800000

00000790 <l358>:
     790:	72935031 	addsvc	r5, r3, #49	; 0x31

00000794 <l359>:
     794:	e17f000c 	cmn	pc, ip

00000798 <l360>:
     798:	b0191006 	andslt	r1, r9, r6

0000079c <l361>:
     79c:	e1e00c31 	mvn	r0, r1, lsr ip

000007a0 <l362>:
     7a0:	c2baeb6d 	adcsgt	lr, sl, #111616	; 0x1b400

000007a4 <l363>:
     7a4:	e20b5b83 	and	r5, fp, #134144	; 0x20c00

000007a8 <l364>:
     7a8:	e1a05007 	mov	r5, r7

000007ac <l365>:
     7ac:	11760379 	cmnne	r6, r9, ror r3

000007b0 <l366>:
     7b0:	b0073f25 	andlt	r3, r7, r5, lsr #30

000007b4 <l367>:
     7b4:	e0c4e36c 	sbc	lr, r4, ip, ror #6

000007b8 <l368>:
     7b8:	e2819603 	add	r9, r1, #3145728	; 0x300000

000007bc <l369>:
     7bc:	e0fea984 	rscs	sl, lr, r4, lsl #19

000007c0 <l370>:
     7c0:	e08b3644 	add	r3, fp, r4, asr #12

000007c4 <l371>:
     7c4:	63e06d4f 	mvnvs	r6, #5056	; 0x13c0

000007c8 <l372>:
     7c8:	c1360a38 	teqgt	r6, r8, lsr sl

000007cc <l373>:
     7cc:	72089b03 	andvc	r9, r8, #3072	; 0xc00

000007d0 <l374>:
     7d0:	33e01f8b 	mvncc	r1, #556	; 0x22c

000007d4 <l375>:
     7d4:	e0d95065 	sbcs	r5, r9, r5, rrx

000007d8 <l376>:
     7d8:	e079400e 	rsbs	r4, r9, lr

000007dc <l377>:
     7dc:	e3760e95 	cmn	r6, #2384	; 0x950

000007e0 <l378>:
     7e0:	207e3005 	rsbscs	r3, lr, r5

000007e4 <l379>:
     7e4:	e0481008 	sub	r1, r8, r8

000007e8 <l380>:
     7e8:	00c1b00f 	sbceq	fp, r1, pc

000007ec <l381>:
     7ec:	e0554308 	subs	r4, r5, r8, lsl #6

000007f0 <l382>:
     7f0:	e211672d 	ands	r6, r1, #11796480	; 0xb40000

000007f4 <l383>:
     7f4:	018e000f 	orreq	r0, lr, pc

000007f8 <l384>:
     7f8:	5032300a 	eorspl	r3, r2, sl

000007fc <l385>:
     7fc:	11970061 	orrsne	r0, r7, r1, rrx

00000800 <l386>:
     800:	7052b470 	subsvc	fp, r2, r0, ror r4

00000804 <l387>:
     804:	e0016065 	and	r6, r1, r5, rrx

00000808 <l388>:
     808:	ea000004 	b	820 <l394>

0000080c <l389>:
     80c:	e2801035 	add	r1, r0, #53	; 0x35

00000810 <l390>:
     810:	e04cc33b 	sub	ip, ip, fp, lsr r3

00000814 <l391>:
     814:	d0066732 	andle	r6, r6, r2, lsr r7

00000818 <l392>:
     818:	40ea3656 	rscmi	r3, sl, r6, asr r6

0000081c <l393>:
     81c:	ea000000 	b	824 <l395>

00000820 <l394>:
     820:	eafffffa 	b	810 <l390>

00000824 <l395>:
     824:	d1770116 	cmnle	r7, r6, lsl r1

00000828 <l396>:
     828:	eaffffff 	b	82c <l397>

0000082c <l397>:
     82c:	c0493005 	subgt	r3, r9, r5

00000830 <l398>:
     830:	b0e851af 	rsclt	r5, r8, pc, lsr #3

00000834 <l399>:
     834:	633a0299 	teqvs	sl, #-1879048183	; 0x90000009

00000838 <l400>:
     838:	e3a04024 	mov	r4, #36	; 0x24

0000083c <l401>:
     83c:	e71dc004 	ldr	ip, [sp, -r4]

00000840 <l402>:
     840:	e16f7f14 	clz	r7, r4

00000844 <l403>:
     844:	004f49c6 	subeq	r4, pc, r6, asr #19

00000848 <l404>:
     848:	b0351008 	eorslt	r1, r5, r8

0000084c <l405>:
     84c:	b1b09002 	movslt	r9, r2

00000850 <l406>:
     850:	e058700f 	subs	r7, r8, pc

00000854 <l407>:
     854:	7027a24f 	eorvc	sl, r7, pc, asr #4

00000858 <l408>:
     858:	e0576005 	subs	r6, r7, r5

0000085c <l409>:
     85c:	70a2100a 	adcvc	r1, r2, sl

00000860 <l410>:
     860:	51b0ae16 	lslspl	sl, r6, lr

00000864 <l411>:
     864:	ea000000 	b	86c <l413>

00000868 <l412>:
     868:	e035ab7b 	eors	sl, r5, fp, ror fp

0000086c <l413>:
     86c:	e0543859 	subs	r3, r4, r9, asr r8

00000870 <l414>:
     870:	e2380b27 	eors	r0, r8, #39936	; 0x9c00

00000874 <l415>:
     874:	d2b2a207 	adcsle	sl, r2, #1879048192	; 0x70000000

00000878 <l416>:
     878:	516f3f12 	clzpl	r3, r2

0000087c <l417>:
     87c:	ba000007 	blt	8a0 <l426>

00000880 <l418>:
     880:	e2801077 	add	r1, r0, #119	; 0x77

00000884 <l419>:
     884:	b3ca0c0e 	biclt	r0, sl, #3584	; 0xe00

00000888 <l420>:
     888:	e3cec112 	bic	ip, lr, #-2147483644	; 0x80000004

0000088c <l421>:
     88c:	33530e86 	cmpcc	r3, #2144	; 0x860

00000890 <l422>:
     890:	b2bfb107 	adcslt	fp, pc, #-1073741823	; 0xc0000001

00000894 <l423>:
     894:	e1160003 	tst	r6, r3

00000898 <l424>:
     898:	e019a642 	ands	sl, r9, r2, asr #12

0000089c <l425>:
     89c:	ea000000 	b	8a4 <l427>

000008a0 <l426>:
     8a0:	eafffff7 	b	884 <l419>

000008a4 <l427>:
     8a4:	e13a0cab 	teq	sl, fp, lsr #25

000008a8 <l428>:
     8a8:	4045a00f 	submi	sl, r5, pc

000008ac <l429>:
     8ac:	e0449015 	sub	r9, r4, r5, lsl r0

000008b0 <l430>:
     8b0:	a195e1a2 	orrsge	lr, r5, r2, lsr #3

000008b4 <l431>:
     8b4:	e0bf1f69 	adcs	r1, pc, r9, ror #30

000008b8 <l432>:
     8b8:	d0306004 	eorsle	r6, r0, r4

000008bc <l433>:
     8bc:	01d1a00a 	bicseq	sl, r1, sl

000008c0 <l434>:
     8c0:	e5bd1000 	ldr	r1, [sp, #0]!

000008c4 <l435>:
     8c4:	70503061 	subsvc	r3, r0, r1, rrx

000008c8 <l436>:
     8c8:	40fb1000 	rscsmi	r1, fp, r0

000008cc <l437>:
     8cc:	9a000002 	bls	8dc <l441>

000008d0 <l438>:
     8d0:	e16fbf1a 	clz	fp, sl

000008d4 <l439>:
     8d4:	a00bcf42 	andge	ip, fp, r2, asr #30

000008d8 <l440>:
     8d8:	e178020a 	cmn	r8, sl, lsl #4

000008dc <l441>:
     8dc:	0042206f 	subeq	r2, r2, pc, rrx

000008e0 <l442>:
     8e0:	e54db01c 	strb	fp, [sp, #-28]

000008e4 <l443>:
     8e4:	ea000006 	b	904 <l451>

000008e8 <l444>:
     8e8:	e28010e5 	add	r1, r0, #229	; 0xe5

000008ec <l445>:
     8ec:	6267814d 	rsbvs	r8, r7, #1073741843	; 0x40000013

000008f0 <l446>:
     8f0:	416f6f14 	clzmi	r6, r4

000008f4 <l447>:
     8f4:	e24a68f2 	sub	r6, sl, #15859712	; 0xf20000

000008f8 <l448>:
     8f8:	e0a45220 	adc	r5, r4, r0, lsr #4

000008fc <l449>:
     8fc:	e05bc063 	subs	ip, fp, r3, rrx

00000900 <l450>:
     900:	ea000000 	b	908 <l452>

00000904 <l451>:
     904:	eafffff8 	b	8ec <l445>

00000908 <l452>:
     908:	9a000002 	bls	918 <l456>

0000090c <l453>:
     90c:	e2801052 	add	r1, r0, #82	; 0x52

00000910 <l454>:
     910:	e15a0063 	cmp	sl, r3, rrx

00000914 <l455>:
     914:	ea000000 	b	91c <l457>

00000918 <l456>:
     918:	eafffffc 	b	910 <l454>

0000091c <l457>:
     91c:	40576006 	subsmi	r6, r7, r6

00000920 <l458>:
     920:	e51d802c 	ldr	r8, [sp, #-44]	; 0x2c

00000924 <l459>:
     924:	90548c1e 	subsls	r8, r4, lr, lsl ip

00000928 <l460>:
     928:	416f5f1e 	clzmi	r5, lr

0000092c <l461>:
     92c:	e1922062 	orrs	r2, r2, r2, rrx

00000930 <l462>:
     930:	b1e00008 	mvnlt	r0, r8

00000934 <l463>:
     934:	2207300b 	andcs	r3, r7, #11

00000938 <l464>:
     938:	e059e007 	subs	lr, r9, r7

0000093c <l465>:
     93c:	52088080 	andpl	r8, r8, #128	; 0x80

00000940 <l466>:
     940:	91770063 	cmnls	r7, r3, rrx

00000944 <l467>:
     944:	02433fad 	subeq	r3, r3, #692	; 0x2b4

00000948 <l468>:
     948:	ea000005 	b	964 <l475>

0000094c <l469>:
     94c:	e1340061 	teq	r4, r1, rrx

00000950 <l470>:
     950:	e13c0423 	teq	ip, r3, lsr #8

00000954 <l471>:
     954:	91530258 	cmpls	r3, r8, asr r2

00000958 <l472>:
     958:	805e406e 	subshi	r4, lr, lr, rrx

0000095c <l473>:
     95c:	71580313 	cmpvc	r8, r3, lsl r3

00000960 <l474>:
     960:	a1f035c2 	mvnsge	r3, r2, asr #11

00000964 <l475>:
     964:	d1a0300b 	movle	r3, fp

00000968 <l476>:
     968:	e3530479 	cmp	r3, #2030043136	; 0x79000000

0000096c <l477>:
     96c:	c01a9069 	andsgt	r9, sl, r9, rrx

00000970 <l478>:
     970:	30247c73 	eorcc	r7, r4, r3, ror ip

00000974 <l479>:
     974:	30071b05 	andcc	r1, r7, r5, lsl #22

00000978 <l480>:
     978:	ea000005 	b	994 <l487>

0000097c <l481>:
     97c:	a11f0001 	tstge	pc, r1

00000980 <l482>:
     980:	e0709001 	rsbs	r9, r0, r1

00000984 <l483>:
     984:	e1c01927 	bic	r1, r0, r7, lsr #18

00000988 <l484>:
     988:	e062b067 	rsb	fp, r2, r7, rrx

0000098c <l485>:
     98c:	e152006c 	cmp	r2, ip, rrx

00000990 <l486>:
     990:	e0e4e43e 	rsc	lr, r4, lr, lsr r4

00000994 <l487>:
     994:	d2410b16 	suble	r0, r1, #22528	; 0x5800

00000998 <l488>:
     998:	102b500b 	eorne	r5, fp, fp

0000099c <l489>:
     99c:	e1e09135 	mvn	r9, r5, lsr r1

000009a0 <l490>:
     9a0:	c2881aa1 	addgt	r1, r8, #659456	; 0xa1000

000009a4 <l491>:
     9a4:	e0511062 	subs	r1, r1, r2, rrx

000009a8 <l492>:
     9a8:	e1740068 	cmn	r4, r8, rrx

000009ac <l493>:
     9ac:	da000003 	ble	9c0 <l498>

000009b0 <l494>:
     9b0:	e28010d0 	add	r1, r0, #208	; 0xd0

000009b4 <l495>:
     9b4:	41340062 	teqmi	r4, r2, rrx

000009b8 <l496>:
     9b8:	10bf7003 	adcsne	r7, pc, r3

000009bc <l497>:
     9bc:	ea000000 	b	9c4 <l499>

000009c0 <l498>:
     9c0:	eafffffb 	b	9b4 <l495>

000009c4 <l499>:
     9c4:	b3831be2 	orrlt	r1, r3, #231424	; 0x38800

000009c8 <l500>:
     9c8:	ea000002 	b	9d8 <l504>

000009cc <l501>:
     9cc:	e28010a0 	add	r1, r0, #160	; 0xa0

000009d0 <l502>:
     9d0:	a0c28008 	sbcge	r8, r2, r8

000009d4 <l503>:
     9d4:	ea000000 	b	9dc <l505>

000009d8 <l504>:
     9d8:	eafffffc 	b	9d0 <l502>

000009dc <l505>:
     9dc:	215b000a 	cmpcs	fp, sl

000009e0 <l506>:
     9e0:	717c0008 	cmnvc	ip, r8

000009e4 <l507>:
     9e4:	e41d702c 	ldr	r7, [sp], #-44	; 0x2c

000009e8 <l508>:
     9e8:	b1e0a068 	mvnlt	sl, r8, rrx

000009ec <l509>:
     9ec:	e2533836 	subs	r3, r3, #3538944	; 0x360000

000009f0 <l510>:
     9f0:	e3a03036 	mov	r3, #54	; 0x36

000009f4 <l511>:
     9f4:	e7dd5003 	ldrb	r5, [sp, r3]

000009f8 <l512>:
     9f8:	d18a300a 	orrle	r3, sl, sl

000009fc <l513>:
     9fc:	8388020a 	orrhi	r0, r8, #-1610612736	; 0xa0000000

00000a00 <l514>:
     a00:	52cbe81b 	sbcpl	lr, fp, #1769472	; 0x1b0000

00000a04 <l515>:
     a04:	e03a103c 	eors	r1, sl, ip, lsr r0

00000a08 <l516>:
     a08:	e2ebea33 	rsc	lr, fp, #208896	; 0x33000

00000a0c <l517>:
     a0c:	15cd801c 	strbne	r8, [sp, #28]

00000a10 <l518>:
     a10:	3059b001 	subscc	fp, r9, r1

00000a14 <l519>:
     a14:	e1e00922 	mvn	r0, r2, lsr #18

00000a18 <l520>:
     a18:	31b0e4a2 	lsrscc	lr, r2, #9

00000a1c <l521>:
     a1c:	ca000003 	bgt	a30 <l526>

00000a20 <l522>:
     a20:	e280105e 	add	r1, r0, #94	; 0x5e

00000a24 <l523>:
     a24:	e0c52a6a 	sbc	r2, r5, sl, ror #20

00000a28 <l524>:
     a28:	a3832725 	orrge	r2, r3, #9699328	; 0x940000

00000a2c <l525>:
     a2c:	ea000000 	b	a34 <l527>

00000a30 <l526>:
     a30:	eafffffb 	b	a24 <l523>

00000a34 <l527>:
     a34:	e00f300c 	and	r3, pc, ip

00000a38 <l528>:
     a38:	e18bb06f 	orr	fp, fp, pc, rrx

00000a3c <l529>:
     a3c:	e17f0003 	cmn	pc, r3

00000a40 <l530>:
     a40:	1a000006 	bne	a60 <l538>

00000a44 <l531>:
     a44:	e28010ab 	add	r1, r0, #171	; 0xab

00000a48 <l532>:
     a48:	e096c00e 	adds	ip, r6, lr

00000a4c <l533>:
     a4c:	a0152750 	andsge	r2, r5, r0, asr r7

00000a50 <l534>:
     a50:	e0882e59 	add	r2, r8, r9, asr lr

00000a54 <l535>:
     a54:	70d45439 	sbcsvc	r5, r4, r9, lsr r4

00000a58 <l536>:
     a58:	b1730dc4 	cmnlt	r3, r4, asr #27

00000a5c <l537>:
     a5c:	ea000000 	b	a64 <l539>

00000a60 <l538>:
     a60:	eafffff8 	b	a48 <l532>

00000a64 <l539>:
     a64:	71e09ac7 	mvnvc	r9, r7, asr #21

00000a68 <l540>:
     a68:	b254babf 	subslt	fp, r4, #782336	; 0xbf000

00000a6c <l541>:
     a6c:	10de8b53 	sbcsne	r8, lr, r3, asr fp

00000a70 <l542>:
     a70:	11e0eb74 	mvnne	lr, r4, ror fp

00000a74 <l543>:
     a74:	60f9e817 	rscsvs	lr, r9, r7, lsl r8

00000a78 <l544>:
     a78:	72219907 	eorvc	r9, r1, #114688	; 0x1c000

00000a7c <l545>:
     a7c:	e1a0e65b 	asr	lr, fp, r6

00000a80 <l546>:
     a80:	a1570003 	cmpge	r7, r3

00000a84 <l547>:
     a84:	a00c4349 	andge	r4, ip, r9, asr #6

00000a88 <l548>:
     a88:	e0919c66 	adds	r9, r1, r6, ror #24

00000a8c <l549>:
     a8c:	e3a08004 	mov	r8, #4

00000a90 <l550>:
     a90:	875d8008 	ldrbhi	r8, [sp, -r8]

00000a94 <l551>:
     a94:	e3120355 	tst	r2, #1409286145	; 0x54000001

00000a98 <l552>:
     a98:	b0851625 	addlt	r1, r5, r5, lsr #12

00000a9c <l553>:
     a9c:	ea000003 	b	ab0 <l558>

00000aa0 <l554>:
     aa0:	e2801048 	add	r1, r0, #72	; 0x48

00000aa4 <l555>:
     aa4:	d35f0e16 	cmple	pc, #352	; 0x160

00000aa8 <l556>:
     aa8:	716f3f1b 	clzvc	r3, fp

00000aac <l557>:
     aac:	ea000000 	b	ab4 <l559>

00000ab0 <l558>:
     ab0:	eafffffb 	b	aa4 <l555>

00000ab4 <l559>:
     ab4:	c0b8100a 	adcsgt	r1, r8, sl

00000ab8 <l560>:
     ab8:	e2ae2aea 	adc	r2, lr, #958464	; 0xea000

00000abc <l561>:
     abc:	e35203e9 	cmp	r2, #-1543503869	; 0xa4000003

00000ac0 <l562>:
     ac0:	104c9067 	subne	r9, ip, r7, rrx

00000ac4 <l563>:
     ac4:	e1ce8004 	bic	r8, lr, r4

00000ac8 <l564>:
     ac8:	50c1a874 	sbcpl	sl, r1, r4, ror r8

00000acc <l565>:
     acc:	c1130219 	tstgt	r3, r9, lsl r2

00000ad0 <l566>:
     ad0:	708a201b 	addvc	r2, sl, fp, lsl r0

00000ad4 <l567>:
     ad4:	e003800e 	and	r8, r3, lr

00000ad8 <l568>:
     ad8:	e08a16a5 	add	r1, sl, r5, lsr #13

00000adc <l569>:
     adc:	e3a0a01c 	mov	sl, #28

00000ae0 <l570>:
     ae0:	e69d600a 	ldr	r6, [sp], sl

00000ae4 <l571>:
     ae4:	53f047ba 	mvnspl	r4, #48758784	; 0x2e80000

00000ae8 <l572>:
     ae8:	e051c00e 	subs	ip, r1, lr

00000aec <l573>:
     aec:	e2fc5f56 	rscs	r5, ip, #344	; 0x158

00000af0 <l574>:
     af0:	c24662c5 	subgt	r6, r6, #1342177292	; 0x5000000c

00000af4 <l575>:
     af4:	00770062 	rsbseq	r0, r7, r2, rrx

00000af8 <l576>:
     af8:	73e0ba9a 	mvnvc	fp, #630784	; 0x9a000

00000afc <l577>:
     afc:	e35c0f5e 	cmp	ip, #376	; 0x178

00000b00 <l578>:
     b00:	5199100a 	orrspl	r1, r9, sl

00000b04 <l579>:
     b04:	e292b026 	adds	fp, r2, #38	; 0x26

00000b08 <l580>:
     b08:	9a000003 	bls	b1c <l585>

00000b0c <l581>:
     b0c:	e2801095 	add	r1, r0, #149	; 0x95

00000b10 <l582>:
     b10:	e0b7478c 	adcs	r4, r7, ip, lsl #15

00000b14 <l583>:
     b14:	03e0e12f 	mvneq	lr, #-1073741813	; 0xc000000b

00000b18 <l584>:
     b18:	ea000000 	b	b20 <l586>

00000b1c <l585>:
     b1c:	eafffffb 	b	b10 <l582>

00000b20 <l586>:
     b20:	ea000007 	b	b44 <l595>

00000b24 <l587>:
     b24:	e2801078 	add	r1, r0, #120	; 0x78

00000b28 <l588>:
     b28:	50f7cea0 	rscspl	ip, r7, r0, lsr #29

00000b2c <l589>:
     b2c:	116f4f19 	clzne	r4, r9

00000b30 <l590>:
     b30:	e1f0becf 	mvns	fp, pc, asr #29

00000b34 <l591>:
     b34:	70e6a067 	rscvc	sl, r6, r7, rrx

00000b38 <l592>:
     b38:	c0e74c8a 	rscgt	r4, r7, sl, lsl #25

00000b3c <l593>:
     b3c:	e15f03ce 	cmp	pc, lr, asr #7

00000b40 <l594>:
     b40:	ea000000 	b	b48 <l596>

00000b44 <l595>:
     b44:	eafffff7 	b	b28 <l588>

00000b48 <l596>:
     b48:	e00ec069 	and	ip, lr, r9, rrx

00000b4c <l597>:
     b4c:	e13e0038 	teq	lr, r8, lsr r0

00000b50 <l598>:
     b50:	e01687e2 	ands	r8, r6, r2, ror #15

00000b54 <l599>:
     b54:	8390855a 	orrshi	r8, r0, #377487360	; 0x16800000

00000b58 <l600>:
     b58:	e1b08fe1 	rors	r8, r1, #31

00000b5c <l601>:
     b5c:	33ce8596 	biccc	r8, lr, #629145600	; 0x25800000

00000b60 <l602>:
     b60:	6a000007 	bvs	b84 <l611>

00000b64 <l603>:
     b64:	e2801018 	add	r1, r0, #24

00000b68 <l604>:
     b68:	d1c26008 	bicle	r6, r2, r8

00000b6c <l605>:
     b6c:	e3330d95 	teq	r3, #9536	; 0x2540

00000b70 <l606>:
     b70:	71b0a21a 	lslsvc	sl, sl, r2

00000b74 <l607>:
     b74:	e151006a 	cmp	r1, sl, rrx

00000b78 <l608>:
     b78:	e067a00f 	rsb	sl, r7, pc

00000b7c <l609>:
     b7c:	9055906b 	subsls	r9, r5, fp, rrx

00000b80 <l610>:
     b80:	ea000000 	b	b88 <l612>

00000b84 <l611>:
     b84:	eafffff7 	b	b68 <l604>

00000b88 <l612>:
     b88:	e1e03062 	mvn	r3, r2, rrx

00000b8c <l613>:
     b8c:	71710572 	cmnvc	r1, r2, ror r5

00000b90 <l614>:
     b90:	b1b06113 	lslslt	r6, r3, r1

00000b94 <l615>:
     b94:	a0ce020a 	sbcge	r0, lr, sl, lsl #4

00000b98 <l616>:
     b98:	516f0f18 	clzpl	r0, r8

00000b9c <l617>:
     b9c:	e0510067 	subs	r0, r1, r7, rrx

00000ba0 <l618>:
     ba0:	30d52001 	sbcscc	r2, r5, r1

00000ba4 <l619>:
     ba4:	9a000007 	bls	bc8 <l628>

00000ba8 <l620>:
     ba8:	e2801097 	add	r1, r0, #151	; 0x97

00000bac <l621>:
     bac:	605558e6 	subsvs	r5, r5, r6, ror #17

00000bb0 <l622>:
     bb0:	e09fc000 	adds	ip, pc, r0

00000bb4 <l623>:
     bb4:	0065b008 	rsbeq	fp, r5, r8

00000bb8 <l624>:
     bb8:	e15a000e 	cmp	sl, lr

00000bbc <l625>:
     bbc:	00c8521c 	sbceq	r5, r8, ip, lsl r2

00000bc0 <l626>:
     bc0:	00198008 	andseq	r8, r9, r8

00000bc4 <l627>:
     bc4:	ea000000 	b	bcc <l629>

00000bc8 <l628>:
     bc8:	eafffff7 	b	bac <l621>

00000bcc <l629>:
     bcc:	70bcb0e9 	adcsvc	fp, ip, r9, ror #1

00000bd0 <l630>:
     bd0:	d0120c18 	andsle	r0, r2, r8, lsl ip

00000bd4 <l631>:
     bd4:	e3a08017 	mov	r8, #23

00000bd8 <l632>:
     bd8:	a74d2008 	strbge	r2, [sp, -r8]

00000bdc <l633>:
     bdc:	c2309626 	eorsgt	r9, r0, #39845888	; 0x2600000

00000be0 <l634>:
     be0:	ea000005 	b	bfc <l641>

00000be4 <l635>:
     be4:	b024700a 	eorlt	r7, r4, sl

00000be8 <l636>:
     be8:	e2fa2add 	rscs	r2, sl, #905216	; 0xdd000

00000bec <l637>:
     bec:	e02bee39 	eor	lr, fp, r9, lsr lr

00000bf0 <l638>:
     bf0:	e04ce00f 	sub	lr, ip, pc

00000bf4 <l639>:
     bf4:	e0c81fef 	sbc	r1, r8, pc, ror #31

00000bf8 <l640>:
     bf8:	c019400e 	andsgt	r4, r9, lr

00000bfc <l641>:
     bfc:	e0726665 	rsbs	r6, r2, r5, ror #12

00000c00 <l642>:
     c00:	218a3001 	orrcs	r3, sl, r1

00000c04 <l643>:
     c04:	e0f44002 	rscs	r4, r4, r2

00000c08 <l644>:
     c08:	e1f08063 	mvns	r8, r3, rrx

00000c0c <l645>:
     c0c:	aa000005 	bge	c28 <l652>

00000c10 <l646>:
     c10:	e2801070 	add	r1, r0, #112	; 0x70

00000c14 <l647>:
     c14:	50275000 	eorpl	r5, r7, r0

00000c18 <l648>:
     c18:	e0958e3e 	adds	r8, r5, lr, lsr lr

00000c1c <l649>:
     c1c:	e0a77ea0 	adc	r7, r7, r0, lsr #29

00000c20 <l650>:
     c20:	c1b00119 	lslsgt	r0, r9, r1

00000c24 <l651>:
     c24:	ea000000 	b	c2c <l653>

00000c28 <l652>:
     c28:	eafffff9 	b	c14 <l647>

00000c2c <l653>:
     c2c:	11770351 	cmnne	r7, r1, asr r3

00000c30 <l654>:
     c30:	e16f2f18 	clz	r2, r8

00000c34 <l655>:
     c34:	d1b0ac4f 	asrsle	sl, pc, #24

00000c38 <l656>:
     c38:	454d000c 	strbmi	r0, [sp, #-12]

00000c3c <l657>:
     c3c:	e16f8f16 	clz	r8, r6

00000c40 <l658>:
     c40:	924f901a 	subls	r9, pc, #26

00000c44 <l659>:
     c44:	e1120b8a 	tst	r2, sl, lsl #23

00000c48 <l660>:
     c48:	d185406f 	orrle	r4, r5, pc, rrx

00000c4c <l661>:
     c4c:	70532006 	subsvc	r2, r3, r6

00000c50 <l662>:
     c50:	23b0244f 	movscs	r2, #1325400064	; 0x4f000000

00000c54 <l663>:
     c54:	83a01c91 	movhi	r1, #37120	; 0x9100

00000c58 <l664>:
     c58:	e3dc6753 	bics	r6, ip, #21757952	; 0x14c0000

00000c5c <l665>:
     c5c:	e170000f 	cmn	r0, pc

00000c60 <l666>:
     c60:	ea000007 	b	c84 <l675>

00000c64 <l667>:
     c64:	e28010e6 	add	r1, r0, #230	; 0xe6

00000c68 <l668>:
     c68:	30374c49 	eorscc	r4, r7, r9, asr #24

00000c6c <l669>:
     c6c:	c0e09003 	rscgt	r9, r0, r3

00000c70 <l670>:
     c70:	50481c0f 	subpl	r1, r8, pc, lsl #24

00000c74 <l671>:
     c74:	e0a5a00c 	adc	sl, r5, ip

00000c78 <l672>:
     c78:	3388287f 	orrcc	r2, r8, #8323072	; 0x7f0000

00000c7c <l673>:
     c7c:	e1f08066 	mvns	r8, r6, rrx

00000c80 <l674>:
     c80:	ea000000 	b	c88 <l676>

00000c84 <l675>:
     c84:	eafffff7 	b	c68 <l668>

00000c88 <l676>:
     c88:	12684696 	rsbne	r4, r8, #157286400	; 0x9600000

00000c8c <l677>:
     c8c:	2217e93a 	andscs	lr, r7, #950272	; 0xe8000

00000c90 <l678>:
     c90:	258d2010 	strcs	r2, [sp, #16]

00000c94 <l679>:
     c94:	21330002 	teqcs	r3, r2

00000c98 <l680>:
     c98:	e244e66e 	sub	lr, r4, #115343360	; 0x6e00000

00000c9c <l681>:
     c9c:	e15b0d66 	cmp	fp, r6, ror #26

00000ca0 <l682>:
     ca0:	e3a06015 	mov	r6, #21

00000ca4 <l683>:
     ca4:	e74d5006 	strb	r5, [sp, -r6]

00000ca8 <l684>:
     ca8:	da000006 	ble	cc8 <l692>

00000cac <l685>:
     cac:	e28010eb 	add	r1, r0, #235	; 0xeb

00000cb0 <l686>:
     cb0:	31310174 	teqcc	r1, r4, ror r1

00000cb4 <l687>:
     cb4:	b04ae006 	sublt	lr, sl, r6

00000cb8 <l688>:
     cb8:	0090c184 	addseq	ip, r0, r4, lsl #3

00000cbc <l689>:
     cbc:	a3e0ac7f 	mvnge	sl, #32512	; 0x7f00

00000cc0 <l690>:
     cc0:	e3300532 	teq	r0, #209715200	; 0xc800000

00000cc4 <l691>:
     cc4:	ea000000 	b	ccc <l693>

00000cc8 <l692>:
     cc8:	eafffff8 	b	cb0 <l686>

00000ccc <l693>:
     ccc:	30efc063 	rsccc	ip, pc, r3, rrx

00000cd0 <l694>:
     cd0:	ea000005 	b	cec <l701>

00000cd4 <l695>:
     cd4:	e2801086 	add	r1, r0, #134	; 0x86

00000cd8 <l696>:
     cd8:	e0c7e00b 	sbc	lr, r7, fp

00000cdc <l697>:
     cdc:	11b0c609 	lslsne	ip, r9, #12

00000ce0 <l698>:
     ce0:	916f3f1a 	clzls	r3, sl

00000ce4 <l699>:
     ce4:	20cb1c74 	sbccs	r1, fp, r4, ror ip

00000ce8 <l700>:
     ce8:	ea000000 	b	cf0 <l702>

00000cec <l701>:
     cec:	eafffff9 	b	cd8 <l696>

00000cf0 <l702>:
     cf0:	40a2b00b 	adcmi	fp, r2, fp

00000cf4 <l703>:
     cf4:	b54dc003 	strblt	ip, [sp, #-3]

00000cf8 <l704>:
     cf8:	b1b04067 	rrxslt	r4, r7

00000cfc <l705>:
     cfc:	10536979 	subsne	r6, r3, r9, ror r9

00000d00 <l706>:
     d00:	ea000000 	b	d08 <l708>

00000d04 <l707>:
     d04:	e08b4c5b 	add	r4, fp, fp, asr ip

00000d08 <l708>:
     d08:	60486ec2 	subvs	r6, r8, r2, asr #29

00000d0c <l709>:
     d0c:	339a5b19 	orrscc	r5, sl, #25600	; 0x6400

00000d10 <l710>:
     d10:	6131057e 	teqvs	r1, lr, ror r5

00000d14 <l711>:
     d14:	e0c8115a 	sbc	r1, r8, sl, asr r1

00000d18 <l712>:
     d18:	80f87c08 	rscshi	r7, r8, r8, lsl #24

00000d1c <l713>:
     d1c:	e35e00c7 	cmp	lr, #199	; 0xc7

00000d20 <l714>:
     d20:	23b0c43d 	movscs	ip, #1023410176	; 0x3d000000

00000d24 <l715>:
     d24:	c173000f 	cmngt	r3, pc

00000d28 <l716>:
     d28:	e1f097ca 	mvns	r9, sl, asr #15

00000d2c <l717>:
     d2c:	e29f2b1f 	adds	r2, pc, #31744	; 0x7c00

00000d30 <l718>:
     d30:	516f4f12 	clzpl	r4, r2

00000d34 <l719>:
     d34:	8a000005 	bhi	d50 <l726>

00000d38 <l720>:
     d38:	e2801054 	add	r1, r0, #84	; 0x54

00000d3c <l721>:
     d3c:	50762a35 	rsbspl	r2, r6, r5, lsr sl

00000d40 <l722>:
     d40:	d119000c 	tstle	r9, ip

00000d44 <l723>:
     d44:	01d61a68 	bicseq	r1, r6, r8, ror #20

00000d48 <l724>:
     d48:	90fe311e 	rscsls	r3, lr, lr, lsl r1

00000d4c <l725>:
     d4c:	ea000000 	b	d54 <l727>

00000d50 <l726>:
     d50:	eafffff9 	b	d3c <l721>

00000d54 <l727>:
     d54:	b0613273 	rsblt	r3, r1, r3, ror r2

00000d58 <l728>:
     d58:	3a000004 	bcc	d70 <l734>

00000d5c <l729>:
     d5c:	e28010f6 	add	r1, r0, #246	; 0xf6

00000d60 <l730>:
     d60:	907e0542 	rsbsls	r0, lr, r2, asr #10

00000d64 <l731>:
     d64:	c1c94729 	bicgt	r4, r9, r9, lsr #14

00000d68 <l732>:
     d68:	e16f6f19 	clz	r6, r9

00000d6c <l733>:
     d6c:	ea000000 	b	d74 <l735>

00000d70 <l734>:
     d70:	eafffffa 	b	d60 <l730>

00000d74 <l735>:
     d74:	ea000004 	b	d8c <l741>

00000d78 <l736>:
     d78:	e28010c3 	add	r1, r0, #195	; 0xc3

00000d7c <l737>:
     d7c:	e3750fda 	cmn	r5, #872	; 0x368

00000d80 <l738>:
     d80:	d240300b 	suble	r3, r0, #11

00000d84 <l739>:
     d84:	e1e01064 	mvn	r1, r4, rrx

00000d88 <l740>:
     d88:	ea000000 	b	d90 <l742>

00000d8c <l741>:
     d8c:	eafffffa 	b	d7c <l737>

00000d90 <l742>:
     d90:	51c98d4a 	bicpl	r8, r9, sl, asr #26

00000d94 <l743>:
     d94:	ca000003 	bgt	da8 <l748>

00000d98 <l744>:
     d98:	e18f006a 	orr	r0, pc, sl, rrx

00000d9c <l745>:
     d9c:	31f09067 	mvnscc	r9, r7, rrx

00000da0 <l746>:
     da0:	e0879b25 	add	r9, r7, r5, lsr #22

00000da4 <l747>:
     da4:	203a9c73 	eorscs	r9, sl, r3, ror ip

00000da8 <l748>:
     da8:	e1c0c005 	bic	ip, r0, r5

00000dac <l749>:
     dac:	e1f0c005 	mvns	ip, r5

00000db0 <l750>:
     db0:	da000002 	ble	dc0 <l754>

00000db4 <l751>:
     db4:	e28010a5 	add	r1, r0, #165	; 0xa5

00000db8 <l752>:
     db8:	53380277 	teqpl	r8, #1879048199	; 0x70000007

00000dbc <l753>:
     dbc:	ea000000 	b	dc4 <l755>

00000dc0 <l754>:
     dc0:	eafffffc 	b	db8 <l752>

00000dc4 <l755>:
     dc4:	d2e75525 	rscle	r5, r7, #155189248	; 0x9400000

00000dc8 <l756>:
     dc8:	ea000003 	b	ddc <l761>

00000dcc <l757>:
     dcc:	e28010e7 	add	r1, r0, #231	; 0xe7

00000dd0 <l758>:
     dd0:	11f08b46 	mvnsne	r8, r6, asr #22

00000dd4 <l759>:
     dd4:	108bb00b 	addne	fp, fp, fp

00000dd8 <l760>:
     dd8:	ea000000 	b	de0 <l762>

00000ddc <l761>:
     ddc:	eafffffb 	b	dd0 <l758>

00000de0 <l762>:
     de0:	41a02247 	asrmi	r2, r7, #4

00000de4 <l763>:
     de4:	41830008 	orrmi	r0, r3, r8

00000de8 <l764>:
     de8:	1a000003 	bne	dfc <l769>

00000dec <l765>:
     dec:	e2801003 	add	r1, r0, #3

00000df0 <l766>:
     df0:	e0fc5809 	rscs	r5, ip, r9, lsl #16

00000df4 <l767>:
     df4:	e0ef3001 	rsc	r3, pc, r1

00000df8 <l768>:
     df8:	ea000000 	b	e00 <l770>

00000dfc <l769>:
     dfc:	eafffffb 	b	df0 <l766>

00000e00 <l770>:
     e00:	81100d49 	tsthi	r0, r9, asr #26

00000e04 <l771>:
     e04:	e05eb838 	subs	fp, lr, r8, lsr r8

00000e08 <l772>:
     e08:	30726008 	rsbscc	r6, r2, r8

00000e0c <l773>:
     e0c:	92baea37 	adcsls	lr, sl, #225280	; 0x37000

00000e10 <l774>:
     e10:	e0430a45 	sub	r0, r3, r5, asr #20

00000e14 <l775>:
     e14:	406ccd66 	rsbmi	ip, ip, r6, ror #26

00000e18 <l776>:
     e18:	7193c000 	orrsvc	ip, r3, r0

00000e1c <l777>:
     e1c:	b3912e5a 	orrslt	r2, r1, #1440	; 0x5a0

00000e20 <l778>:
     e20:	72644621 	rsbvc	r4, r4, #34603008	; 0x2100000

00000e24 <l779>:
     e24:	50618e81 	rsbpl	r8, r1, r1, lsl #29

00000e28 <l780>:
     e28:	23d543a2 	bicscs	r4, r5, #-2013265918	; 0x88000002

00000e2c <l781>:
     e2c:	411b0066 	tstmi	fp, r6, rrx

00000e30 <l782>:
     e30:	20442901 	subcs	r2, r4, r1, lsl #18

00000e34 <l783>:
     e34:	e03c7069 	eors	r7, ip, r9, rrx

00000e38 <l784>:
     e38:	e0cb1930 	sbc	r1, fp, r0, lsr r9

00000e3c <l785>:
     e3c:	ea000006 	b	e5c <l793>

00000e40 <l786>:
     e40:	0186cec0 	orreq	ip, r6, r0, asr #29

00000e44 <l787>:
     e44:	b0dc24a0 	sbcslt	r2, ip, r0, lsr #9

00000e48 <l788>:
     e48:	e0304212 	eors	r4, r0, r2, lsl r2

00000e4c <l789>:
     e4c:	e0959800 	adds	r9, r5, r0, lsl #16

00000e50 <l790>:
     e50:	e31c0375 	tst	ip, #-738197503	; 0xd4000001

00000e54 <l791>:
     e54:	80a73066 	adchi	r3, r7, r6, rrx

00000e58 <l792>:
     e58:	d05e6325 	subsle	r6, lr, r5, lsr #6

00000e5c <l793>:
     e5c:	b16f0f18 	clzlt	r0, r8

00000e60 <l794>:
     e60:	e49d9010 	ldr	r9, [sp], #16

00000e64 <l795>:
     e64:	e3a02018 	mov	r2, #24

00000e68 <l796>:
     e68:	e60da002 	str	sl, [sp], -r2

00000e6c <l797>:
     e6c:	92336c06 	eorsls	r6, r3, #1536	; 0x600

00000e70 <l798>:
     e70:	01e0e2ce 	mvneq	lr, lr, asr #5

00000e74 <l799>:
     e74:	e224a13b 	eor	sl, r4, #-1073741810	; 0xc000000e

00000e78 <l800>:
     e78:	e1866931 	orr	r6, r6, r1, lsr r9

00000e7c <l801>:
     e7c:	c04be033 	subgt	lr, fp, r3, lsr r0

00000e80 <l802>:
     e80:	40c8600a 	sbcmi	r6, r8, sl

00000e84 <l803>:
     e84:	21100065 	tstcs	r0, r5, rrx

00000e88 <l804>:
     e88:	b06b015b 	rsblt	r0, fp, fp, asr r1

00000e8c <l805>:
     e8c:	71b08d20 	lsrsvc	r8, r0, #26

00000e90 <l806>:
     e90:	e09a3187 	adds	r3, sl, r7, lsl #3

00000e94 <l807>:
     e94:	e20c453a 	and	r4, ip, #243269632	; 0xe800000

00000e98 <l808>:
     e98:	2a000006 	bcs	eb8 <l816>

00000e9c <l809>:
     e9c:	e2801030 	add	r1, r0, #48	; 0x30

00000ea0 <l810>:
     ea0:	616f9f17 	clzvs	r9, r7

00000ea4 <l811>:
     ea4:	21d34064 	bicscs	r4, r3, r4, rrx

00000ea8 <l812>:
     ea8:	e197c00c 	orrs	ip, r7, ip

00000eac <l813>:
     eac:	b0ac3e4a 	adclt	r3, ip, sl, asr #28

00000eb0 <l814>:
     eb0:	11906a8c 	orrsne	r6, r0, ip, lsl #21

00000eb4 <l815>:
     eb4:	ea000000 	b	ebc <l817>

00000eb8 <l816>:
     eb8:	eafffff8 	b	ea0 <l810>

00000ebc <l817>:
     ebc:	40a3c476 	adcmi	ip, r3, r6, ror r4

00000ec0 <l818>:
     ec0:	e11b0063 	tst	fp, r3, rrx

00000ec4 <l819>:
     ec4:	415a0b72 	cmpmi	sl, r2, ror fp

00000ec8 <l820>:
     ec8:	407a700a 	rsbsmi	r7, sl, sl

00000ecc <l821>:
     ecc:	e3a07012 	mov	r7, #18

00000ed0 <l822>:
     ed0:	07dd1007 	ldrbeq	r1, [sp, r7]

00000ed4 <l823>:
     ed4:	2a000001 	bcs	ee0 <l826>

00000ed8 <l824>:
     ed8:	e1c76009 	bic	r6, r7, r9

00000edc <l825>:
     edc:	91e08e88 	mvnls	r8, r8, lsl #29

00000ee0 <l826>:
     ee0:	00444b79 	subeq	r4, r4, r9, ror fp

00000ee4 <l827>:
     ee4:	e13e000a 	teq	lr, sl

00000ee8 <l828>:
     ee8:	c1e05c79 	mvngt	r5, r9, ror ip

00000eec <l829>:
     eec:	013e0179 	teqeq	lr, r9, ror r1

00000ef0 <l830>:
     ef0:	e37b0659 	cmn	fp, #93323264	; 0x5900000

00000ef4 <l831>:
     ef4:	e3a0300e 	mov	r3, #14

00000ef8 <l832>:
     ef8:	e74d4003 	strb	r4, [sp, -r3]

00000efc <l833>:
     efc:	a1b06004 	movsge	r6, r4

00000f00 <l834>:
     f00:	e230e581 	eors	lr, r0, #541065216	; 0x20400000

00000f04 <l835>:
     f04:	415b0006 	cmpmi	fp, r6

00000f08 <l836>:
     f08:	c17a051e 	cmngt	sl, lr, lsl r5

00000f0c <l837>:
     f0c:	70772064 	rsbsvc	r2, r7, r4, rrx

00000f10 <l838>:
     f10:	ba000006 	blt	f30 <l846>

00000f14 <l839>:
     f14:	e28010f9 	add	r1, r0, #249	; 0xf9

00000f18 <l840>:
     f18:	a17e0caa 	cmnge	lr, sl, lsr #25

00000f1c <l841>:
     f1c:	e16f2f13 	clz	r2, r3

00000f20 <l842>:
     f20:	e0b76004 	adcs	r6, r7, r4

00000f24 <l843>:
     f24:	2075c064 	rsbscs	ip, r5, r4, rrx

00000f28 <l844>:
     f28:	216f6f1c 	clzcs	r6, ip

00000f2c <l845>:
     f2c:	ea000000 	b	f34 <l847>

00000f30 <l846>:
     f30:	eafffff8 	b	f18 <l840>

00000f34 <l847>:
     f34:	001cb14f 	andseq	fp, ip, pc, asr #2

00000f38 <l848>:
     f38:	e1e0cf09 	mvn	ip, r9, lsl #30

00000f3c <l849>:
     f3c:	d1dca00c 	bicsle	sl, ip, ip

00000f40 <l850>:
     f40:	d1cc466e 	bicle	r4, ip, lr, ror #12

00000f44 <l851>:
     f44:	a0eae058 	rscge	lr, sl, r8, asr r0

00000f48 <l852>:
     f48:	72dbab16 	sbcsvc	sl, fp, #22528	; 0x5800

00000f4c <l853>:
     f4c:	e1550008 	cmp	r5, r8

00000f50 <l854>:
     f50:	ea000002 	b	f60 <l858>

00000f54 <l855>:
     f54:	e09a1862 	adds	r1, sl, r2, ror #16

00000f58 <l856>:
     f58:	71360064 	teqvc	r6, r4, rrx

00000f5c <l857>:
     f5c:	80976066 	addshi	r6, r7, r6, rrx

00000f60 <l858>:
     f60:	e0557064 	subs	r7, r5, r4, rrx

00000f64 <l859>:
     f64:	3033906e 	eorscc	r9, r3, lr, rrx

00000f68 <l860>:
     f68:	e1da7060 	bics	r7, sl, r0, rrx

00000f6c <l861>:
     f6c:	e08a6b70 	add	r6, sl, r0, ror fp

00000f70 <l862>:
     f70:	c0268001 	eorgt	r8, r6, r1

00000f74 <l863>:
     f74:	c1790008 	cmngt	r9, r8

00000f78 <l864>:
     f78:	e0432fe5 	sub	r2, r3, r5, ror #31

00000f7c <l865>:
     f7c:	e232e1b6 	eors	lr, r2, #-2147483603	; 0x8000002d

00000f80 <l866>:
     f80:	52e3440a 	rscpl	r4, r3, #167772160	; 0xa000000

00000f84 <l867>:
     f84:	51720064 	cmnpl	r2, r4, rrx

00000f88 <l868>:
     f88:	ea000003 	b	f9c <l873>

00000f8c <l869>:
     f8c:	e2801050 	add	r1, r0, #80	; 0x50

00000f90 <l870>:
     f90:	4253597a 	subsmi	r5, r3, #1998848	; 0x1e8000

00000f94 <l871>:
     f94:	b0cf598f 	sbclt	r5, pc, pc, lsl #19

00000f98 <l872>:
     f98:	ea000000 	b	fa0 <l874>

00000f9c <l873>:
     f9c:	eafffffb 	b	f90 <l870>

00000fa0 <l874>:
     fa0:	aa000000 	bge	fa8 <l876>

00000fa4 <l875>:
     fa4:	03f00901 	mvnseq	r0, #16384	; 0x4000

00000fa8 <l876>:
     fa8:	a0ac4067 	adcge	r4, ip, r7, rrx

00000fac <l877>:
     fac:	e16f6f1b 	clz	r6, fp

00000fb0 <l878>:
     fb0:	e13a0008 	teq	sl, r8

00000fb4 <l879>:
     fb4:	30f1b609 	rscscc	fp, r1, r9, lsl #12

00000fb8 <l880>:
     fb8:	e151000b 	cmp	r1, fp

00000fbc <l881>:
     fbc:	a1d7568f 	bicsge	r5, r7, pc, lsl #13

00000fc0 <l882>:
     fc0:	e016600c 	ands	r6, r6, ip

00000fc4 <l883>:
     fc4:	e2461d92 	sub	r1, r6, #9344	; 0x2480

00000fc8 <l884>:
     fc8:	e255947b 	subs	r9, r5, #2063597568	; 0x7b000000

00000fcc <l885>:
     fcc:	e0ca0000 	sbc	r0, sl, r0

00000fd0 <l886>:
     fd0:	81340f24 	teqhi	r4, r4, lsr #30

00000fd4 <l887>:
     fd4:	3a000002 	bcc	fe4 <l891>

00000fd8 <l888>:
     fd8:	e01fb001 	ands	fp, pc, r1

00000fdc <l889>:
     fdc:	e0d37fa2 	sbcs	r7, r3, r2, lsr #31

00000fe0 <l890>:
     fe0:	e16f3f15 	clz	r3, r5

00000fe4 <l891>:
     fe4:	d0a3b50e 	adcle	fp, r3, lr, lsl #10

00000fe8 <l892>:
     fe8:	e18c0009 	orr	r0, ip, r9

00000fec <l893>:
     fec:	e1340260 	teq	r4, r0, ror #4

00000ff0 <l894>:
     ff0:	13170513 	tstne	r7, #79691776	; 0x4c00000

00000ff4 <l895>:
     ff4:	42028dc1 	andmi	r8, r2, #12352	; 0x3040

00000ff8 <l896>:
     ff8:	31510e2a 	cmpcc	r1, sl, lsr #28

00000ffc <l897>:
     ffc:	504bc669 	subpl	ip, fp, r9, ror #12

00001000 <l898>:
    1000:	a2548156 	subsge	r8, r4, #-2147483627	; 0x80000015

00001004 <l899>:
    1004:	e1f08578 	mvns	r8, r8, ror r5

00001008 <l900>:
    1008:	d0b45004 	adcsle	r5, r4, r4

0000100c <l901>:
    100c:	70916688 	addsvc	r6, r1, r8, lsl #13

00001010 <l902>:
    1010:	30fe2009 	rscscc	r2, lr, r9

00001014 <l903>:
    1014:	33f060a7 	mvnscc	r6, #167	; 0xa7

00001018 <l904>:
    1018:	2062700c 	rsbcs	r7, r2, ip

0000101c <l905>:
    101c:	ea000003 	b	1030 <l910>

00001020 <l906>:
    1020:	e03b3008 	eors	r3, fp, r8

00001024 <l907>:
    1024:	e23e858b 	eors	r8, lr, #583008256	; 0x22c00000

00001028 <l908>:
    1028:	705b0003 	subsvc	r0, fp, r3

0000102c <l909>:
    102c:	e1750003 	cmn	r5, r3

00001030 <l910>:
    1030:	13cb3af1 	bicne	r3, fp, #987136	; 0xf1000

00001034 <l911>:
    1034:	e58d2010 	str	r2, [sp, #16]

00001038 <l912>:
    1038:	11f0c632 	mvnsne	ip, r2, lsr r6

0000103c <l913>:
    103c:	e0f96919 	rscs	r6, r9, r9, lsl r9

00001040 <l914>:
    1040:	5a000007 	bpl	1064 <l923>

00001044 <l915>:
    1044:	e280103e 	add	r1, r0, #62	; 0x3e

00001048 <l916>:
    1048:	81e08478 	mvnhi	r8, r8, ror r4

0000104c <l917>:
    104c:	e1f0c00c 	mvns	ip, ip

00001050 <l918>:
    1050:	a3c930c9 	bicge	r3, r9, #201	; 0xc9

00001054 <l919>:
    1054:	62615615 	rsbvs	r5, r1, #22020096	; 0x1500000

00001058 <l920>:
    1058:	c1740669 	cmngt	r4, r9, ror #12

0000105c <l921>:
    105c:	b16f4f19 	clzlt	r4, r9

00001060 <l922>:
    1060:	ea000000 	b	1068 <l924>

00001064 <l923>:
    1064:	eafffff7 	b	1048 <l916>

00001068 <l924>:
    1068:	80cc728b 	sbchi	r7, ip, fp, lsl #5

0000106c <l925>:
    106c:	43710869 	cmnmi	r1, #6881280	; 0x690000

00001070 <l926>:
    1070:	b01c641a 	andslt	r6, ip, sl, lsl r4

00001074 <l927>:
    1074:	c1180a49 	tstgt	r8, r9, asr #20

00001078 <l928>:
    1078:	a18290c2 	orrge	r9, r2, r2, asr #1

0000107c <l929>:
    107c:	e1e04019 	mvn	r4, r9, lsl r0

00001080 <l930>:
    1080:	816f9f11 	clzhi	r9, r1

00001084 <l931>:
    1084:	e16f4f1a 	clz	r4, sl

00001088 <l932>:
    1088:	b0433066 	sublt	r3, r3, r6, rrx

0000108c <l933>:
    108c:	200198e6 	andcs	r9, r1, r6, ror #17

00001090 <l934>:
    1090:	ea000005 	b	10ac <l941>

00001094 <l935>:
    1094:	4027a277 	eormi	sl, r7, r7, ror r2

00001098 <l936>:
    1098:	e25a85c5 	subs	r8, sl, #826277888	; 0x31400000

0000109c <l937>:
    109c:	615a0005 	cmpvs	sl, r5

000010a0 <l938>:
    10a0:	3386246d 	orrcc	r2, r6, #1828716544	; 0x6d000000

000010a4 <l939>:
    10a4:	e132000f 	teq	r2, pc

000010a8 <l940>:
    10a8:	91e09007 	mvnls	r9, r7

000010ac <l941>:
    10ac:	6151000f 	cmpvs	r1, pc

000010b0 <l942>:
    10b0:	e0554003 	subs	r4, r5, r3

000010b4 <l943>:
    10b4:	3244e39d 	subcc	lr, r4, #1946157058	; 0x74000002

000010b8 <l944>:
    10b8:	e50da018 	str	sl, [sp, #-24]

000010bc <l945>:
    10bc:	e3500749 	cmp	r0, #19136512	; 0x1240000

000010c0 <l946>:
    10c0:	e2c0b785 	sbc	fp, r0, #34865152	; 0x2140000

000010c4 <l947>:
    10c4:	ea000006 	b	10e4 <l955>

000010c8 <l948>:
    10c8:	e2801026 	add	r1, r0, #38	; 0x26

000010cc <l949>:
    10cc:	a11601e2 	tstge	r6, r2, ror #3

000010d0 <l950>:
    10d0:	80fc8335 	rscshi	r8, ip, r5, lsr r3

000010d4 <l951>:
    10d4:	d22b8d6f 	eorle	r8, fp, #7104	; 0x1bc0

000010d8 <l952>:
    10d8:	e04cc008 	sub	ip, ip, r8

000010dc <l953>:
    10dc:	71b0ab5c 	asrsvc	sl, ip, fp

000010e0 <l954>:
    10e0:	ea000000 	b	10e8 <l956>

000010e4 <l955>:
    10e4:	eafffff8 	b	10cc <l949>

000010e8 <l956>:
    10e8:	81320917 	teqhi	r2, r7, lsl r9

000010ec <l957>:
    10ec:	a03b19ea 	eorsge	r1, fp, sl, ror #19

000010f0 <l958>:
    10f0:	e07b8dc9 	rsbs	r8, fp, r9, asr #27

000010f4 <l959>:
    10f4:	d37c0e3a 	cmnle	ip, #928	; 0x3a0

000010f8 <l960>:
    10f8:	e0eb0bec 	rsc	r0, fp, ip, ror #23

000010fc <l961>:
    10fc:	90b9833b 	adcsls	r8, r9, fp, lsr r3

00001100 <l962>:
    1100:	e3d1a80a 	bics	sl, r1, #655360	; 0xa0000

00001104 <l963>:
    1104:	106f87e0 	rsbne	r8, pc, r0, ror #15

00001108 <l964>:
    1108:	41100063 	tstmi	r0, r3, rrx

0000110c <l965>:
    110c:	e3a07011 	mov	r7, #17

00001110 <l966>:
    1110:	e7ddc007 	ldrb	ip, [sp, r7]

00001114 <l967>:
    1114:	e0f9e00e 	rscs	lr, r9, lr

00001118 <l968>:
    1118:	71310009 	teqvc	r1, r9

0000111c <l969>:
    111c:	e16f8f13 	clz	r8, r3

00001120 <l970>:
    1120:	e3a05004 	mov	r5, #4

00001124 <l971>:
    1124:	178d1005 	strne	r1, [sp, r5]

00001128 <l972>:
    1128:	1a000008 	bne	1150 <l982>

0000112c <l973>:
    112c:	e1b08008 	movs	r8, r8

00001130 <l974>:
    1130:	e0b9700e 	adcs	r7, r9, lr

00001134 <l975>:
    1134:	201fe462 	andscs	lr, pc, r2, ror #8

00001138 <l976>:
    1138:	e37700a4 	cmn	r7, #164	; 0xa4

0000113c <l977>:
    113c:	e0169f49 	ands	r9, r6, r9, asr #30

00001140 <l978>:
    1140:	b0b9b06f 	adcslt	fp, r9, pc, rrx

00001144 <l979>:
    1144:	616f9f15 	clzvs	r9, r5

00001148 <l980>:
    1148:	1195386b 	orrsne	r3, r5, fp, ror #16

0000114c <l981>:
    114c:	e0ba2e36 	adcs	r2, sl, r6, lsr lr

00001150 <l982>:
    1150:	b1cf3005 	biclt	r3, pc, r5

00001154 <l983>:
    1154:	51520060 	cmppl	r2, r0, rrx

00001158 <l984>:
    1158:	01899002 	orreq	r9, r9, r2

0000115c <l985>:
    115c:	811e0d4f 	tsthi	lr, pc, asr #26

00001160 <l986>:
    1160:	207a4f28 	rsbscs	r4, sl, r8, lsr #30

00001164 <l987>:
    1164:	d0511955 	subsle	r1, r1, r5, asr r9

00001168 <l988>:
    1168:	b15a09c6 	cmplt	sl, r6, asr #19

0000116c <l989>:
    116c:	e068a003 	rsb	sl, r8, r3

00001170 <l990>:
    1170:	d09ac00f 	addsle	ip, sl, pc

00001174 <l991>:
    1174:	91e09735 	mvnls	r9, r5, lsr r7

00001178 <l992>:
    1178:	e028e86a 	eor	lr, r8, sl, ror #16

0000117c <l993>:
    117c:	eaffffff 	b	1180 <l994>

00001180 <l994>:
    1180:	82e10b35 	rschi	r0, r1, #54272	; 0xd400

00001184 <l995>:
    1184:	7064176e 	rsbvc	r1, r4, lr, ror #14

00001188 <l996>:
    1188:	41760655 	cmnmi	r6, r5, asr r6

0000118c <l997>:
    118c:	62669905 	rsbvs	r9, r6, #81920	; 0x14000

00001190 <l998>:
    1190:	d35208c5 	cmple	r2, #12910592	; 0xc50000

00001194 <l999>:
    1194:	70b34c6f 	adcsvc	r4, r3, pc, ror #24

00001198 <l1000>:
    1198:	7253a7ff 	subsvc	sl, r3, #66846720	; 0x3fc0000

0000119c <l1001>:
    119c:	113a022f 	teqne	sl, pc, lsr #4

000011a0 <l1002>:
    11a0:	0005a006 	andeq	sl, r5, r6

000011a4 <l1003>:
    11a4:	e2470772 	sub	r0, r7, #29884416	; 0x1c80000

000011a8 <l1004>:
    11a8:	81dc5065 	bicshi	r5, ip, r5, rrx

000011ac <l1005>:
    11ac:	80713cc6 	rsbshi	r3, r1, r6, asr #25

000011b0 <l1006>:
    11b0:	617f0009 	cmnvs	pc, r9

000011b4 <l1007>:
    11b4:	da000003 	ble	11c8 <l1012>

000011b8 <l1008>:
    11b8:	e28010f8 	add	r1, r0, #248	; 0xf8

000011bc <l1009>:
    11bc:	e066035b 	rsb	r0, r6, fp, asr r3

000011c0 <l1010>:
    11c0:	e0ae3d09 	adc	r3, lr, r9, lsl #26

000011c4 <l1011>:
    11c4:	ea000000 	b	11cc <l1013>

000011c8 <l1012>:
    11c8:	eafffffb 	b	11bc <l1009>

000011cc <l1013>:
    11cc:	900a6063 	andls	r6, sl, r3, rrx

000011d0 <l1014>:
    11d0:	e24a3ece 	sub	r3, sl, #3296	; 0xce0

000011d4 <l1015>:
    11d4:	e2bc98ca 	adcs	r9, ip, #13238272	; 0xca0000

000011d8 <l1016>:
    11d8:	208f55a9 	addcs	r5, pc, r9, lsr #11

000011dc <l1017>:
    11dc:	e1b0a41b 	lsls	sl, fp, r4

000011e0 <l1018>:
    11e0:	e0d5b07c 	sbcs	fp, r5, ip, ror r0

000011e4 <l1019>:
    11e4:	a3f08d17 	mvnsge	r8, #1472	; 0x5c0

000011e8 <l1020>:
    11e8:	52e4cb03 	rscpl	ip, r4, #3072	; 0xc00

000011ec <l1021>:
    11ec:	611a0533 	tstvs	sl, r3, lsr r5

000011f0 <l1022>:
    11f0:	70242007 	eorvc	r2, r4, r7

000011f4 <l1023>:
    11f4:	e05b38c2 	subs	r3, fp, r2, asr #17

000011f8 <l1024>:
    11f8:	40d9a588 	sbcsmi	sl, r9, r8, lsl #11

000011fc <l1025>:
    11fc:	e1350a4a 	teq	r5, sl, asr #20

00001200 <l1026>:
    1200:	6190166c 	orrsvs	r1, r0, ip, ror #12

00001204 <l1027>:
    1204:	e1978301 	orrs	r8, r7, r1, lsl #6

00001208 <l1028>:
    1208:	e25b0901 	subs	r0, fp, #16384	; 0x4000

0000120c <l1029>:
    120c:	30b43006 	adcscc	r3, r4, r6

00001210 <l1030>:
    1210:	e3a03025 	mov	r3, #37	; 0x25

00001214 <l1031>:
    1214:	e7cd6003 	strb	r6, [sp, r3]

00001218 <l1032>:
    1218:	e2aabc7b 	adc	fp, sl, #31488	; 0x7b00

0000121c <l1033>:
    121c:	e3a0601c 	mov	r6, #28

00001220 <l1034>:
    1220:	e73d6006 	ldr	r6, [sp, -r6]!

00001224 <l1035>:
    1224:	e013a003 	ands	sl, r3, r3

00001228 <l1036>:
    1228:	ea000005 	b	1244 <l1043>

0000122c <l1037>:
    122c:	e280105c 	add	r1, r0, #92	; 0x5c

00001230 <l1038>:
    1230:	c1190009 	tstgt	r9, r9

00001234 <l1039>:
    1234:	63dfc37f 	bicsvs	ip, pc, #-67108863	; 0xfc000001

00001238 <l1040>:
    1238:	c0797005 	rsbsgt	r7, r9, r5

0000123c <l1041>:
    123c:	21c48603 	biccs	r8, r4, r3, lsl #12

00001240 <l1042>:
    1240:	ea000000 	b	1248 <l1044>

00001244 <l1043>:
    1244:	eafffff9 	b	1230 <l1038>

00001248 <l1044>:
    1248:	8a000003 	bhi	125c <l1049>

0000124c <l1045>:
    124c:	e2801096 	add	r1, r0, #150	; 0x96

00001250 <l1046>:
    1250:	e026671b 	eor	r6, r6, fp, lsl r7

00001254 <l1047>:
    1254:	c2708040 	rsbsgt	r8, r0, #64	; 0x40

00001258 <l1048>:
    1258:	ea000000 	b	1260 <l1050>

0000125c <l1049>:
    125c:	eafffffb 	b	1250 <l1046>

00001260 <l1050>:
    1260:	e13f0005 	teq	pc, r5

00001264 <l1051>:
    1264:	ea000001 	b	1270 <l1054>

00001268 <l1052>:
    1268:	e0d73337 	sbcs	r3, r7, r7, lsr r3

0000126c <l1053>:
    126c:	e17b05e3 	cmn	fp, r3, ror #11

00001270 <l1054>:
    1270:	915b0009 	cmpls	fp, r9

00001274 <l1055>:
    1274:	e25bc925 	subs	ip, fp, #606208	; 0x94000

00001278 <l1056>:
    1278:	e052206e 	subs	r2, r2, lr, rrx

0000127c <l1057>:
    127c:	50068068 	andpl	r8, r6, r8, rrx

00001280 <l1058>:
    1280:	217e006b 	cmncs	lr, fp, rrx

00001284 <l1059>:
    1284:	8a000004 	bhi	129c <l1065>

00001288 <l1060>:
    1288:	e28010ef 	add	r1, r0, #239	; 0xef

0000128c <l1061>:
    128c:	81b0700a 	movshi	r7, sl

00001290 <l1062>:
    1290:	e11b0a71 	tst	fp, r1, ror sl

00001294 <l1063>:
    1294:	0029ace1 	eoreq	sl, r9, r1, ror #25

00001298 <l1064>:
    1298:	ea000000 	b	12a0 <l1066>

0000129c <l1065>:
    129c:	eafffffa 	b	128c <l1061>

000012a0 <l1066>:
    12a0:	319bc003 	orrscc	ip, fp, r3

000012a4 <l1067>:
    12a4:	e0ae1c52 	adc	r1, lr, r2, asr ip

000012a8 <l1068>:
    12a8:	200a4286 	andcs	r4, sl, r6, lsl #5

000012ac <l1069>:
    12ac:	e16f2f1c 	clz	r2, ip

000012b0 <l1070>:
    12b0:	e0ae3c15 	adc	r3, lr, r5, lsl ip

000012b4 <l1071>:
    12b4:	70559e76 	subsvc	r9, r5, r6, ror lr

000012b8 <l1072>:
    12b8:	51790068 	cmnpl	r9, r8, rrx

000012bc <l1073>:
    12bc:	70678061 	rsbvc	r8, r7, r1, rrx

000012c0 <l1074>:
    12c0:	a072763a 	rsbsge	r7, r2, sl, lsr r6

000012c4 <l1075>:
    12c4:	a3c249c5 	bicge	r4, r2, #3227648	; 0x314000

000012c8 <l1076>:
    12c8:	e05a0985 	subs	r0, sl, r5, lsl #19

000012cc <l1077>:
    12cc:	116faf1b 	clzne	sl, fp

000012d0 <l1078>:
    12d0:	e2a34211 	adc	r4, r3, #268435457	; 0x10000001

000012d4 <l1079>:
    12d4:	80f14274 	rscshi	r4, r1, r4, ror r2

000012d8 <l1080>:
    12d8:	e265353d 	rsb	r3, r5, #255852544	; 0xf400000

000012dc <l1081>:
    12dc:	b58d0008 	strlt	r0, [sp, #8]

000012e0 <l1082>:
    12e0:	2affffff 	bcs	12e4 <l1083>

000012e4 <l1083>:
    12e4:	70ee8b0e 	rscvc	r8, lr, lr, lsl #22

000012e8 <l1084>:
    12e8:	e116000b 	tst	r6, fp

000012ec <l1085>:
    12ec:	e0f64319 	rscs	r4, r6, r9, lsl r3

000012f0 <l1086>:
    12f0:	6a000005 	bvs	130c <l1093>

000012f4 <l1087>:
    12f4:	e2801033 	add	r1, r0, #51	; 0x33

000012f8 <l1088>:
    12f8:	e0e6b33b 	rsc	fp, r6, fp, lsr r3

000012fc <l1089>:
    12fc:	525b25fb 	subspl	r2, fp, #1052770304	; 0x3ec00000

00001300 <l1090>:
    1300:	e1180e63 	tst	r8, r3, ror #28

00001304 <l1091>:
    1304:	40a34b58 	adcmi	r4, r3, r8, asr fp

00001308 <l1092>:
    1308:	ea000000 	b	1310 <l1094>

0000130c <l1093>:
    130c:	eafffff9 	b	12f8 <l1088>

00001310 <l1094>:
    1310:	109b7244 	addsne	r7, fp, r4, asr #4

00001314 <l1095>:
    1314:	a1dcc00c 	bicsge	ip, ip, ip

00001318 <l1096>:
    1318:	ea000002 	b	1328 <l1100>

0000131c <l1097>:
    131c:	e28010a7 	add	r1, r0, #167	; 0xa7

00001320 <l1098>:
    1320:	e22c51dd 	eor	r5, ip, #1073741879	; 0x40000037

00001324 <l1099>:
    1324:	ea000000 	b	132c <l1101>

00001328 <l1100>:
    1328:	eafffffc 	b	1320 <l1098>

0000132c <l1101>:
    132c:	a1f0ca57 	mvnsge	ip, r7, asr sl

00001330 <l1102>:
    1330:	41e0606a 	mvnmi	r6, sl, rrx

00001334 <l1103>:
    1334:	32628a0d 	rsbcc	r8, r2, #53248	; 0xd000

00001338 <l1104>:
    1338:	d196b577 	orrsle	fp, r6, r7, ror r5

0000133c <l1105>:
    133c:	435604cb 	cmpmi	r6, #-889192448	; 0xcb000000

00001340 <l1106>:
    1340:	e3a0801c 	mov	r8, #28

00001344 <l1107>:
    1344:	e78d7008 	str	r7, [sp, r8]

00001348 <l1108>:
    1348:	e0d28060 	sbcs	r8, r2, r0, rrx

0000134c <l1109>:
    134c:	e5cdb04b 	strb	fp, [sp, #75]	; 0x4b

00001350 <l1110>:
    1350:	81e01008 	mvnhi	r1, r8

00001354 <l1111>:
    1354:	e18a7c7c 	orr	r7, sl, ip, ror ip

00001358 <l1112>:
    1358:	51f02d85 	mvnspl	r2, r5, lsl #27

0000135c <l1113>:
    135c:	e35e0fe6 	cmp	lr, #920	; 0x398

00001360 <l1114>:
    1360:	e3b08305 	movs	r8, #335544320	; 0x14000000

00001364 <l1115>:
    1364:	91f0c82b 	mvnsls	ip, fp, lsr #16

00001368 <l1116>:
    1368:	12122446 	andsne	r2, r2, #1174405120	; 0x46000000

0000136c <l1117>:
    136c:	ea000005 	b	1388 <l1124>

00001370 <l1118>:
    1370:	e28010d6 	add	r1, r0, #214	; 0xd6

00001374 <l1119>:
    1374:	73861e2b 	orrvc	r1, r6, #688	; 0x2b0

00001378 <l1120>:
    1378:	e1a08fc0 	asr	r8, r0, #31

0000137c <l1121>:
    137c:	e18003a3 	orr	r0, r0, r3, lsr #7

00001380 <l1122>:
    1380:	e0514001 	subs	r4, r1, r1

00001384 <l1123>:
    1384:	ea000000 	b	138c <l1125>

00001388 <l1124>:
    1388:	eafffff9 	b	1374 <l1119>

0000138c <l1125>:
    138c:	81a01970 	rorhi	r1, r0, r9

00001390 <l1126>:
    1390:	7001306f 	andvc	r3, r1, pc, rrx

00001394 <l1127>:
    1394:	c07374a4 	rsbsgt	r7, r3, r4, lsr #9

00001398 <l1128>:
    1398:	d23699e3 	eorsle	r9, r6, #3719168	; 0x38c000

0000139c <l1129>:
    139c:	31a0e003 	movcc	lr, r3

000013a0 <l1130>:
    13a0:	e0eab476 	rsc	fp, sl, r6, ror r4

000013a4 <l1131>:
    13a4:	d1530003 	cmple	r3, r3

000013a8 <l1132>:
    13a8:	31780431 	cmncc	r8, r1, lsr r4

000013ac <l1133>:
    13ac:	e0254007 	eor	r4, r5, r7

000013b0 <l1134>:
    13b0:	00790b0f 	rsbseq	r0, r9, pc, lsl #22

000013b4 <l1135>:
    13b4:	e15a0002 	cmp	sl, r2

000013b8 <l1136>:
    13b8:	43d859df 	bicsmi	r5, r8, #3653632	; 0x37c000

000013bc <l1137>:
    13bc:	e3a07029 	mov	r7, #41	; 0x29

000013c0 <l1138>:
    13c0:	07cd2007 	strbeq	r2, [sp, r7]

000013c4 <l1139>:
    13c4:	e0f07150 	rscs	r7, r0, r0, asr r1

000013c8 <l1140>:
    13c8:	e0477111 	sub	r7, r7, r1, lsl r1

000013cc <l1141>:
    13cc:	ea000005 	b	13e8 <l1148>

000013d0 <l1142>:
    13d0:	e28010b9 	add	r1, r0, #185	; 0xb9

000013d4 <l1143>:
    13d4:	91780006 	cmnls	r8, r6

000013d8 <l1144>:
    13d8:	c04bb00b 	subgt	fp, fp, fp

000013dc <l1145>:
    13dc:	e051700b 	subs	r7, r1, fp

000013e0 <l1146>:
    13e0:	70f0b447 	rscsvc	fp, r0, r7, asr #8

000013e4 <l1147>:
    13e4:	ea000000 	b	13ec <l1149>

000013e8 <l1148>:
    13e8:	eafffff9 	b	13d4 <l1143>

000013ec <l1149>:
    13ec:	33340776 	teqcc	r4, #30932992	; 0x1d80000

000013f0 <l1150>:
    13f0:	e245c135 	sub	ip, r5, #1073741837	; 0x4000000d

000013f4 <l1151>:
    13f4:	9095800a 	addsls	r8, r5, sl

000013f8 <l1152>:
    13f8:	e1e08006 	mvn	r8, r6

000013fc <l1153>:
    13fc:	2181054b 	orrcs	r0, r1, fp, asr #10

00001400 <l1154>:
    1400:	6a000005 	bvs	141c <l1161>

00001404 <l1155>:
    1404:	e35e0000 	cmp	lr, #0

00001408 <l1156>:
    1408:	817c0008 	cmnhi	ip, r8

0000140c <l1157>:
    140c:	e2f8c591 	rscs	ip, r8, #608174080	; 0x24400000

00001410 <l1158>:
    1410:	e2075d5e 	and	r5, r7, #6016	; 0x1780

00001414 <l1159>:
    1414:	e1170340 	tst	r7, r0, asr #6

00001418 <l1160>:
    1418:	833b0111 	teqhi	fp, #1073741828	; 0x40000004

0000141c <l1161>:
    141c:	e02bbf6e 	eor	fp, fp, lr, ror #30

00001420 <l1162>:
    1420:	20b9900e 	adcscs	r9, r9, lr

00001424 <l1163>:
    1424:	d0c77aee 	sbcle	r7, r7, lr, ror #21

00001428 <l1164>:
    1428:	82930c09 	addshi	r0, r3, #2304	; 0x900

0000142c <l1165>:
    142c:	e0634970 	rsb	r4, r3, r0, ror r9

00001430 <l1166>:
    1430:	e1f0ae8f 	mvns	sl, pc, lsl #29

00001434 <l1167>:
    1434:	e3110687 	tst	r1, #141557760	; 0x8700000

00001438 <l1168>:
    1438:	e17f006c 	cmn	pc, ip, rrx

0000143c <l1169>:
    143c:	e3a01008 	mov	r1, #8

00001440 <l1170>:
    1440:	e7bd8001 	ldr	r8, [sp, r1]!

00001444 <l1171>:
    1444:	e1c2e039 	bic	lr, r2, r9, lsr r0

00001448 <l1172>:
    1448:	608c7b34 	addvs	r7, ip, r4, lsr fp

0000144c <l1173>:
    144c:	e0490eec 	sub	r0, r9, ip, ror #29

00001450 <l1174>:
    1450:	e008e486 	and	lr, r8, r6, lsl #9

00001454 <l1175>:
    1454:	229b302b 	addscs	r3, fp, #43	; 0x2b

00001458 <l1176>:
    1458:	ea000001 	b	1464 <l1179>

0000145c <l1177>:
    145c:	81f06839 	mvnshi	r6, r9, lsr r8

00001460 <l1178>:
    1460:	e3e0940f 	mvn	r9, #251658240	; 0xf000000

00001464 <l1179>:
    1464:	e04f500e 	sub	r5, pc, lr

00001468 <l1180>:
    1468:	e01e0062 	ands	r0, lr, r2, rrx

0000146c <l1181>:
    146c:	d0776052 	rsbsle	r6, r7, r2, asr r0

00001470 <l1182>:
    1470:	7334090f 	teqvc	r4, #245760	; 0x3c000

00001474 <l1183>:
    1474:	80266000 	eorhi	r6, r6, r0

00001478 <l1184>:
    1478:	e0853825 	add	r3, r5, r5, lsr #16

0000147c <l1185>:
    147c:	92c45642 	sbcls	r5, r4, #69206016	; 0x4200000

00001480 <l1186>:
    1480:	61b0500b 	movsvs	r5, fp

00001484 <l1187>:
    1484:	917b006a 	cmnls	fp, sl, rrx

00001488 <l1188>:
    1488:	b0473005 	sublt	r3, r7, r5

0000148c <l1189>:
    148c:	41db006e 	bicsmi	r0, fp, lr, rrx

00001490 <l1190>:
    1490:	20b6e9aa 	adcscs	lr, r6, sl, lsr #19

00001494 <l1191>:
    1494:	e219321f 	ands	r3, r9, #-268435455	; 0xf0000001

00001498 <l1192>:
    1498:	e11009c2 	tst	r0, r2, asr #19

0000149c <l1193>:
    149c:	e1790230 	cmn	r9, r0, lsr r2

000014a0 <l1194>:
    14a0:	e1e0a67a 	mvn	sl, sl, ror r6

000014a4 <l1195>:
    14a4:	419a8005 	orrsmi	r8, sl, r5

000014a8 <l1196>:
    14a8:	e1120bc7 	tst	r2, r7, asr #23

000014ac <l1197>:
    14ac:	7a000001 	bvc	14b8 <l1200>

000014b0 <l1198>:
    14b0:	e172000a 	cmn	r2, sl

000014b4 <l1199>:
    14b4:	e182806b 	orr	r8, r2, fp, rrx

000014b8 <l1200>:
    14b8:	e16f5f1b 	clz	r5, fp

000014bc <l1201>:
    14bc:	7a000004 	bvc	14d4 <l1207>

000014c0 <l1202>:
    14c0:	e2801014 	add	r1, r0, #20

000014c4 <l1203>:
    14c4:	b036c00e 	eorslt	ip, r6, lr

000014c8 <l1204>:
    14c8:	e295bb16 	adds	fp, r5, #22528	; 0x5800

000014cc <l1205>:
    14cc:	e0de4006 	sbcs	r4, lr, r6

000014d0 <l1206>:
    14d0:	ea000000 	b	14d8 <l1208>

000014d4 <l1207>:
    14d4:	eafffffa 	b	14c4 <l1203>

000014d8 <l1208>:
    14d8:	c247e947 	subgt	lr, r7, #1163264	; 0x11c000

000014dc <l1209>:
    14dc:	d110000a 	tstle	r0, sl

000014e0 <l1210>:
    14e0:	316fef19 	clzcc	lr, r9

000014e4 <l1211>:
    14e4:	e280b309 	add	fp, r0, #603979776	; 0x24000000

000014e8 <l1212>:
    14e8:	e0865009 	add	r5, r6, r9

000014ec <l1213>:
    14ec:	a115000b 	tstge	r5, fp

000014f0 <l1214>:
    14f0:	aa000007 	bge	1514 <l1223>

000014f4 <l1215>:
    14f4:	e28010ac 	add	r1, r0, #172	; 0xac

000014f8 <l1216>:
    14f8:	716f7f11 	clzvc	r7, r1

000014fc <l1217>:
    14fc:	a3e0113d 	mvnge	r1, #1073741839	; 0x4000000f

00001500 <l1218>:
    1500:	c1700f6f 	cmngt	r0, pc, ror #30

00001504 <l1219>:
    1504:	919c388e 	orrsls	r3, ip, lr, lsl #17

00001508 <l1220>:
    1508:	3096ab35 	addscc	sl, r6, r5, lsr fp

0000150c <l1221>:
    150c:	d13a0336 	teqle	sl, r6, lsr r3

00001510 <l1222>:
    1510:	ea000000 	b	1518 <l1224>

00001514 <l1223>:
    1514:	eafffff7 	b	14f8 <l1216>

00001518 <l1224>:
    1518:	6a000005 	bvs	1534 <l1231>

0000151c <l1225>:
    151c:	e280104f 	add	r1, r0, #79	; 0x4f

00001520 <l1226>:
    1520:	326700db 	rsbcc	r0, r7, #219	; 0xdb

00001524 <l1227>:
    1524:	e091ec3e 	adds	lr, r1, lr, lsr ip

00001528 <l1228>:
    1528:	c3e02d32 	mvngt	r2, #3200	; 0xc80

0000152c <l1229>:
    152c:	e04fc2e9 	sub	ip, pc, r9, ror #5

00001530 <l1230>:
    1530:	ea000000 	b	1538 <l1232>

00001534 <l1231>:
    1534:	eafffff9 	b	1520 <l1226>

00001538 <l1232>:
    1538:	01d7a00f 	bicseq	sl, r7, pc

0000153c <l1233>:
    153c:	51160233 	tstpl	r6, r3, lsr r2

00001540 <l1234>:
    1540:	63370f85 	teqvs	r7, #532	; 0x214

00001544 <l1235>:
    1544:	7a000005 	bvc	1560 <l1242>

00001548 <l1236>:
    1548:	e1340063 	teq	r4, r3, rrx

0000154c <l1237>:
    154c:	c0a06009 	adcgt	r6, r0, r9

00001550 <l1238>:
    1550:	e04ec067 	sub	ip, lr, r7, rrx

00001554 <l1239>:
    1554:	309a6002 	addscc	r6, sl, r2

00001558 <l1240>:
    1558:	e0472ac9 	sub	r2, r7, r9, asr #21

0000155c <l1241>:
    155c:	80ba5518 	adcshi	r5, sl, r8, lsl r5

00001560 <l1242>:
    1560:	e1c4506f 	bic	r5, r4, pc, rrx

00001564 <l1243>:
    1564:	a21b9a81 	andsge	r9, fp, #528384	; 0x81000

00001568 <l1244>:
    1568:	da000006 	ble	1588 <l1252>

0000156c <l1245>:
    156c:	e2801045 	add	r1, r0, #69	; 0x45

00001570 <l1246>:
    1570:	e1db5915 	bics	r5, fp, r5, lsl r9

00001574 <l1247>:
    1574:	11100e54 	tstne	r0, r4, asr lr

00001578 <l1248>:
    1578:	e01c4936 	ands	r4, ip, r6, lsr r9

0000157c <l1249>:
    157c:	20424005 	subcs	r4, r2, r5

00001580 <l1250>:
    1580:	e0325060 	eors	r5, r2, r0, rrx

00001584 <l1251>:
    1584:	ea000000 	b	158c <l1253>

00001588 <l1252>:
    1588:	eafffff8 	b	1570 <l1246>

0000158c <l1253>:
    158c:	e0ee900b 	rsc	r9, lr, fp

00001590 <l1254>:
    1590:	8a000003 	bhi	15a4 <l1259>

00001594 <l1255>:
    1594:	e0a60004 	adc	r0, r6, r4

00001598 <l1256>:
    1598:	505b9004 	subspl	r9, fp, r4

0000159c <l1257>:
    159c:	e0169006 	ands	r9, r6, r6

000015a0 <l1258>:
    15a0:	e2868b9d 	add	r8, r6, #160768	; 0x27400

000015a4 <l1259>:
    15a4:	e13b0061 	teq	fp, r1, rrx

000015a8 <l1260>:
    15a8:	1355021a 	cmpne	r5, #-1610612735	; 0xa0000001

000015ac <l1261>:
    15ac:	e075000e 	rsbs	r0, r5, lr

000015b0 <l1262>:
    15b0:	e07c1ca1 	rsbs	r1, ip, r1, lsr #25

000015b4 <l1263>:
    15b4:	e3a01d36 	mov	r1, #3456	; 0xd80

000015b8 <l1264>:
    15b8:	e0eeca70 	rsc	ip, lr, r0, ror sl

000015bc <l1265>:
    15bc:	e0588733 	subs	r8, r8, r3, lsr r7

000015c0 <l1266>:
    15c0:	53500f76 	cmppl	r0, #472	; 0x1d8

000015c4 <l1267>:
    15c4:	d28cab2e 	addle	sl, ip, #47104	; 0xb800

000015c8 <l1268>:
    15c8:	60c88418 	sbcvs	r8, r8, r8, lsl r4

000015cc <l1269>:
    15cc:	52c14315 	sbcpl	r4, r1, #1409286144	; 0x54000000

000015d0 <l1270>:
    15d0:	90895060 	addls	r5, r9, r0, rrx

000015d4 <l1271>:
    15d4:	b25a8209 	subslt	r8, sl, #-1879048192	; 0x90000000

000015d8 <l1272>:
    15d8:	e1960f21 	orrs	r0, r6, r1, lsr #30

000015dc <l1273>:
    15dc:	e355021e 	cmp	r5, #-536870911	; 0xe0000001

000015e0 <l1274>:
    15e0:	ea000005 	b	15fc <l1281>

000015e4 <l1275>:
    15e4:	e0d55536 	sbcs	r5, r5, r6, lsr r5

000015e8 <l1276>:
    15e8:	90144674 	andsls	r4, r4, r4, ror r6

000015ec <l1277>:
    15ec:	e00a0c0a 	and	r0, sl, sl, lsl #24

000015f0 <l1278>:
    15f0:	c0999065 	addsgt	r9, r9, r5, rrx

000015f4 <l1279>:
    15f4:	e07be00e 	rsbs	lr, fp, lr

000015f8 <l1280>:
    15f8:	e3100014 	tst	r0, #20

000015fc <l1281>:
    15fc:	e0dcecc4 	sbcs	lr, ip, r4, asr #25

00001600 <l1282>:
    1600:	d18b0c46 	orrle	r0, fp, r6, asr #24

00001604 <l1283>:
    1604:	02ec964f 	rsceq	r9, ip, #82837504	; 0x4f00000

00001608 <l1284>:
    1608:	b046a760 	sublt	sl, r6, r0, ror #14

0000160c <l1285>:
    160c:	ea000002 	b	161c <l1289>

00001610 <l1286>:
    1610:	e280105e 	add	r1, r0, #94	; 0x5e

00001614 <l1287>:
    1614:	e22618cf 	eor	r1, r6, #13565952	; 0xcf0000

00001618 <l1288>:
    1618:	ea000000 	b	1620 <l1290>

0000161c <l1289>:
    161c:	eafffffc 	b	1614 <l1287>

00001620 <l1290>:
    1620:	e3c25a3e 	bic	r5, r2, #253952	; 0x3e000

00001624 <l1291>:
    1624:	e18bc06c 	orr	ip, fp, ip, rrx

00001628 <l1292>:
    1628:	e0478007 	sub	r8, r7, r7

0000162c <l1293>:
    162c:	e0eb71a0 	rsc	r7, fp, r0, lsr #3

00001630 <l1294>:
    1630:	80cf1000 	sbchi	r1, pc, r0

00001634 <l1295>:
    1634:	80b9ce7b 	adcshi	ip, r9, fp, ror lr

00001638 <l1296>:
    1638:	40084062 	andmi	r4, r8, r2, rrx

0000163c <l1297>:
    163c:	ea000005 	b	1658 <l1304>

00001640 <l1298>:
    1640:	3155073e 	cmpcc	r5, lr, lsr r7

00001644 <l1299>:
    1644:	e16f6f18 	clz	r6, r8

00001648 <l1300>:
    1648:	c04a7f68 	subgt	r7, sl, r8, ror #30

0000164c <l1301>:
    164c:	d1300813 	teqle	r0, r3, lsl r8

00001650 <l1302>:
    1650:	81a01002 	movhi	r1, r2

00001654 <l1303>:
    1654:	71825f8a 	orrvc	r5, r2, sl, lsl #31

00001658 <l1304>:
    1658:	e1350002 	teq	r5, r2

0000165c <l1305>:
    165c:	50005006 	andpl	r5, r0, r6

00001660 <l1306>:
    1660:	e0fc3c22 	rscs	r3, ip, r2, lsr #24

00001664 <l1307>:
    1664:	0229c03a 	eoreq	ip, r9, #58	; 0x3a

00001668 <l1308>:
    1668:	e154076e 	cmp	r4, lr, ror #14

0000166c <l1309>:
    166c:	e037a76b 	eors	sl, r7, fp, ror #14

00001670 <l1310>:
    1670:	016f7f19 	clzeq	r7, r9

00001674 <l1311>:
    1674:	926078c6 	rsbls	r7, r0, #12976128	; 0xc60000

00001678 <l1312>:
    1678:	21130c28 	tstcs	r3, r8, lsr #24

0000167c <l1313>:
    167c:	90f81a36 	rscsls	r1, r8, r6, lsr sl

00001680 <l1314>:
    1680:	e292aa29 	adds	sl, r2, #167936	; 0x29000

00001684 <l1315>:
    1684:	e3a0a020 	mov	sl, #32

00001688 <l1316>:
    1688:	57cde00a 	strbpl	lr, [sp, sl]

0000168c <l1317>:
    168c:	e58d801c 	str	r8, [sp, #28]

00001690 <l1318>:
    1690:	1a000001 	bne	169c <l1321>

00001694 <l1319>:
    1694:	1255aa75 	subsne	sl, r5, #479232	; 0x75000

00001698 <l1320>:
    1698:	e058b003 	subs	fp, r8, r3

0000169c <l1321>:
    169c:	e1790009 	cmn	r9, r9

000016a0 <l1322>:
    16a0:	e3540717 	cmp	r4, #6029312	; 0x5c0000

000016a4 <l1323>:
    16a4:	e0878f29 	add	r8, r7, r9, lsr #30

000016a8 <l1324>:
    16a8:	e1580001 	cmp	r8, r1

000016ac <l1325>:
    16ac:	7a000004 	bvc	16c4 <l1331>

000016b0 <l1326>:
    16b0:	e28010c2 	add	r1, r0, #194	; 0xc2

000016b4 <l1327>:
    16b4:	90419004 	subls	r9, r1, r4

000016b8 <l1328>:
    16b8:	c0173004 	andsgt	r3, r7, r4

000016bc <l1329>:
    16bc:	e3948109 	orrs	r8, r4, #1073741826	; 0x40000002

000016c0 <l1330>:
    16c0:	ea000000 	b	16c8 <l1332>

000016c4 <l1331>:
    16c4:	eafffffa 	b	16b4 <l1327>

000016c8 <l1332>:
    16c8:	e3a0202c 	mov	r2, #44	; 0x2c

000016cc <l1333>:
    16cc:	e78d6002 	str	r6, [sp, r2]

000016d0 <l1334>:
    16d0:	e0e39069 	rsc	r9, r3, r9, rrx

000016d4 <l1335>:
    16d4:	ea000003 	b	16e8 <l1340>

000016d8 <l1336>:
    16d8:	e28010e9 	add	r1, r0, #233	; 0xe9

000016dc <l1337>:
    16dc:	42f33c6b 	rscsmi	r3, r3, #27392	; 0x6b00

000016e0 <l1338>:
    16e0:	e2ffc53b 	rscs	ip, pc, #247463936	; 0xec00000

000016e4 <l1339>:
    16e4:	ea000000 	b	16ec <l1341>

000016e8 <l1340>:
    16e8:	eafffffb 	b	16dc <l1337>

000016ec <l1341>:
    16ec:	ea000008 	b	1714 <l1351>

000016f0 <l1342>:
    16f0:	e1720001 	cmn	r2, r1

000016f4 <l1343>:
    16f4:	c16faf17 	clzgt	sl, r7

000016f8 <l1344>:
    16f8:	e076b06f 	rsbs	fp, r6, pc, rrx

000016fc <l1345>:
    16fc:	904ee008 	subls	lr, lr, r8

00001700 <l1346>:
    1700:	516f4f10 	clzpl	r4, r0

00001704 <l1347>:
    1704:	e2d8574e 	sbcs	r5, r8, #20447232	; 0x1380000

00001708 <l1348>:
    1708:	a075a063 	rsbsge	sl, r5, r3, rrx

0000170c <l1349>:
    170c:	b16f7f15 	clzlt	r7, r5

00001710 <l1350>:
    1710:	e16f4f12 	clz	r4, r2

00001714 <l1351>:
    1714:	b1f02005 	mvnslt	r2, r5

00001718 <l1352>:
    1718:	e1550457 	cmp	r5, r7, asr r4

0000171c <l1353>:
    171c:	ea000000 	b	1724 <l1355>

00001720 <l1354>:
    1720:	c2425a07 	subgt	r5, r2, #28672	; 0x7000

00001724 <l1355>:
    1724:	605e306c 	subsvs	r3, lr, ip, rrx

00001728 <l1356>:
    1728:	802a3002 	eorhi	r3, sl, r2

0000172c <l1357>:
    172c:	e0d39a14 	sbcs	r9, r3, r4, lsl sl

00001730 <l1358>:
    1730:	e2d31e7b 	sbcs	r1, r3, #1968	; 0x7b0

00001734 <l1359>:
    1734:	204441c4 	subcs	r4, r4, r4, asr #3

00001738 <l1360>:
    1738:	3a000006 	bcc	1758 <l1368>

0000173c <l1361>:
    173c:	a0203004 	eorge	r3, r0, r4

00001740 <l1362>:
    1740:	b05a3d43 	subslt	r3, sl, r3, asr #26

00001744 <l1363>:
    1744:	10545003 	subsne	r5, r4, r3

00001748 <l1364>:
    1748:	e24f6885 	sub	r6, pc, #8716288	; 0x850000

0000174c <l1365>:
    174c:	e16faf19 	clz	sl, r9

00001750 <l1366>:
    1750:	b1a08009 	movlt	r8, r9

00001754 <l1367>:
    1754:	e0d7b001 	sbcs	fp, r7, r1

00001758 <l1368>:
    1758:	10a35a5a 	adcne	r5, r3, sl, asr sl

0000175c <l1369>:
    175c:	e19a706f 	orrs	r7, sl, pc, rrx

00001760 <l1370>:
    1760:	e01e1875 	ands	r1, lr, r5, ror r8

00001764 <l1371>:
    1764:	ea000006 	b	1784 <l1379>

00001768 <l1372>:
    1768:	d05b2e1c 	subsle	r2, fp, ip, lsl lr

0000176c <l1373>:
    176c:	00109005 	andseq	r9, r0, r5

00001770 <l1374>:
    1770:	e16fef1b 	clz	lr, fp

00001774 <l1375>:
    1774:	109ea004 	addsne	sl, lr, r4

00001778 <l1376>:
    1778:	e1540001 	cmp	r4, r1

0000177c <l1377>:
    177c:	e054ccee 	subs	ip, r4, lr, ror #25

00001780 <l1378>:
    1780:	92f1b56e 	rscsls	fp, r1, #461373440	; 0x1b800000

00001784 <l1379>:
    1784:	e0743061 	rsbs	r3, r4, r1, rrx

00001788 <l1380>:
    1788:	416f9f10 	clzmi	r9, r0

0000178c <l1381>:
    178c:	e07a6775 	rsbs	r6, sl, r5, ror r7

00001790 <l1382>:
    1790:	31f014a6 	mvnscc	r1, r6, lsr #9

00001794 <l1383>:
    1794:	919b924f 	orrsls	r9, fp, pc, asr #4

00001798 <l1384>:
    1798:	e07a700a 	rsbs	r7, sl, sl

0000179c <l1385>:
    179c:	aa000004 	bge	17b4 <l1391>

000017a0 <l1386>:
    17a0:	e28010a3 	add	r1, r0, #163	; 0xa3

000017a4 <l1387>:
    17a4:	e0ab0007 	adc	r0, fp, r7

000017a8 <l1388>:
    17a8:	d2dbc90d 	sbcsle	ip, fp, #212992	; 0x34000

000017ac <l1389>:
    17ac:	435b097b 	cmpmi	fp, #2015232	; 0x1ec000

000017b0 <l1390>:
    17b0:	ea000000 	b	17b8 <l1392>

000017b4 <l1391>:
    17b4:	eafffffa 	b	17a4 <l1387>

000017b8 <l1392>:
    17b8:	c03955c4 	eorsgt	r5, r9, r4, asr #11

000017bc <l1393>:
    17bc:	1170006e 	cmnne	r0, lr, rrx

000017c0 <l1394>:
    17c0:	e1a00fac 	lsr	r0, ip, #31

000017c4 <l1395>:
    17c4:	d28ebeee 	addle	fp, lr, #3808	; 0xee0

000017c8 <l1396>:
    17c8:	e25e82a2 	subs	r8, lr, #536870922	; 0x2000000a

000017cc <l1397>:
    17cc:	e1760737 	cmn	r6, r7, lsr r7

000017d0 <l1398>:
    17d0:	60f55513 	rscsvs	r5, r5, r3, lsl r5

000017d4 <l1399>:
    17d4:	a16f1f14 	clzge	r1, r4

000017d8 <l1400>:
    17d8:	e007e379 	and	lr, r7, r9, ror r3

000017dc <l1401>:
    17dc:	e02f7007 	eor	r7, pc, r7

000017e0 <l1402>:
    17e0:	e1e08008 	mvn	r8, r8

000017e4 <l1403>:
    17e4:	d0e9b067 	rscle	fp, r9, r7, rrx

000017e8 <l1404>:
    17e8:	31a01069 	rrxcc	r1, r9

000017ec <l1405>:
    17ec:	e29e6e4b 	adds	r6, lr, #1200	; 0x4b0

000017f0 <l1406>:
    17f0:	5226481b 	eorpl	r4, r6, #1769472	; 0x1b0000

000017f4 <l1407>:
    17f4:	e076665c 	rsbs	r6, r6, ip, asr r6

000017f8 <l1408>:
    17f8:	e1a0cd06 	lsl	ip, r6, #26

000017fc <l1409>:
    17fc:	61b079aa 	lsrsvs	r7, sl, #19

00001800 <l1410>:
    1800:	2affffff 	bcs	1804 <l1411>

00001804 <l1411>:
    1804:	a0b60261 	adcsge	r0, r6, r1, ror #4

00001808 <l1412>:
    1808:	13cbafc6 	bicne	sl, fp, #792	; 0x318

0000180c <l1413>:
    180c:	da000004 	ble	1824 <l1419>

00001810 <l1414>:
    1810:	e1360066 	teq	r6, r6, rrx

00001814 <l1415>:
    1814:	e16f7f13 	clz	r7, r3

00001818 <l1416>:
    1818:	e15a006e 	cmp	sl, lr, rrx

0000181c <l1417>:
    181c:	e3f034bb 	mvns	r3, #-1157627904	; 0xbb000000

00001820 <l1418>:
    1820:	a2f69d59 	rscsge	r9, r6, #5696	; 0x1640

00001824 <l1419>:
    1824:	a3a0512e 	movge	r5, #-2147483637	; 0x8000000b

00001828 <l1420>:
    1828:	20360e0c 	eorscs	r0, r6, ip, lsl #28

0000182c <l1421>:
    182c:	41b03001 	movsmi	r3, r1

00001830 <l1422>:
    1830:	c0ab700b 	adcgt	r7, fp, fp

00001834 <l1423>:
    1834:	e09a500f 	adds	r5, sl, pc

00001838 <l1424>:
    1838:	e2e90273 	rsc	r0, r9, #805306375	; 0x30000007

0000183c <l1425>:
    183c:	e0439365 	sub	r9, r3, r5, ror #6

00001840 <l1426>:
    1840:	7110067c 	tstvc	r0, ip, ror r6

00001844 <l1427>:
    1844:	e04e8065 	sub	r8, lr, r5, rrx

00001848 <l1428>:
    1848:	d209a32a 	andle	sl, r9, #-1476395008	; 0xa8000000

0000184c <l1429>:
    184c:	e0096069 	and	r6, r9, r9, rrx

00001850 <l1430>:
    1850:	1a000004 	bne	1868 <l1436>

00001854 <l1431>:
    1854:	e280101a 	add	r1, r0, #26

00001858 <l1432>:
    1858:	d338080b 	teqle	r8, #720896	; 0xb0000

0000185c <l1433>:
    185c:	e19b6005 	orrs	r6, fp, r5

00001860 <l1434>:
    1860:	40052476 	andmi	r2, r5, r6, ror r4

00001864 <l1435>:
    1864:	ea000000 	b	186c <l1437>

00001868 <l1436>:
    1868:	eafffffa 	b	1858 <l1432>

0000186c <l1437>:
    186c:	e1300557 	teq	r0, r7, asr r5

00001870 <l1438>:
    1870:	a1f0c168 	mvnsge	ip, r8, ror #2

00001874 <l1439>:
    1874:	75dd001f 	ldrbvc	r0, [sp, #31]

00001878 <l1440>:
    1878:	3a000002 	bcc	1888 <l1444>

0000187c <l1441>:
    187c:	c3b0e121 	movsgt	lr, #1073741832	; 0x40000008

00001880 <l1442>:
    1880:	d099000b 	addsle	r0, r9, fp

00001884 <l1443>:
    1884:	e312070a 	tst	r2, #2621440	; 0x280000

00001888 <l1444>:
    1888:	31ce4313 	biccc	r4, lr, r3, lsl r3

0000188c <l1445>:
    188c:	eaffffff 	b	1890 <l1446>

00001890 <l1446>:
    1890:	e2f49a1e 	rscs	r9, r4, #122880	; 0x1e000

00001894 <l1447>:
    1894:	916f1f1a 	clzls	r1, sl

00001898 <l1448>:
    1898:	e0649008 	rsb	r9, r4, r8

0000189c <l1449>:
    189c:	021ba8cb 	andseq	sl, fp, #13303808	; 0xcb0000

000018a0 <l1450>:
    18a0:	d38c8092 	orrle	r8, ip, #146	; 0x92

000018a4 <l1451>:
    18a4:	e086a002 	add	sl, r6, r2

000018a8 <l1452>:
    18a8:	e3a0b014 	mov	fp, #20

000018ac <l1453>:
    18ac:	77cd800b 	strbvc	r8, [sp, fp]

000018b0 <l1454>:
    18b0:	e1811001 	orr	r1, r1, r1

000018b4 <l1455>:
    18b4:	d1d51060 	bicsle	r1, r5, r0, rrx

000018b8 <l1456>:
    18b8:	da000007 	ble	18dc <l1465>

000018bc <l1457>:
    18bc:	e28010ab 	add	r1, r0, #171	; 0xab

000018c0 <l1458>:
    18c0:	e16f5f13 	clz	r5, r3

000018c4 <l1459>:
    18c4:	01955956 	orrseq	r5, r5, r6, asr r9

000018c8 <l1460>:
    18c8:	e17e06c0 	cmn	lr, r0, asr #13

000018cc <l1461>:
    18cc:	e1f03063 	mvns	r3, r3, rrx

000018d0 <l1462>:
    18d0:	e1760731 	cmn	r6, r1, lsr r7

000018d4 <l1463>:
    18d4:	e2d28cf5 	sbcs	r8, r2, #62720	; 0xf500

000018d8 <l1464>:
    18d8:	ea000000 	b	18e0 <l1466>

000018dc <l1465>:
    18dc:	eafffff7 	b	18c0 <l1458>

000018e0 <l1466>:
    18e0:	22e01e92 	rsccs	r1, r0, #2336	; 0x920

000018e4 <l1467>:
    18e4:	61f0b6aa 	mvnsvs	fp, sl, lsr #13

000018e8 <l1468>:
    18e8:	5083b004 	addpl	fp, r3, r4

000018ec <l1469>:
    18ec:	40d2700a 	sbcsmi	r7, r2, sl

000018f0 <l1470>:
    18f0:	ea000003 	b	1904 <l1475>

000018f4 <l1471>:
    18f4:	e04b555b 	sub	r5, fp, fp, asr r5

000018f8 <l1472>:
    18f8:	80241316 	eorhi	r1, r4, r6, lsl r3

000018fc <l1473>:
    18fc:	00588916 	subseq	r8, r8, r6, lsl r9

00001900 <l1474>:
    1900:	91190062 	tstls	r9, r2, rrx

00001904 <l1475>:
    1904:	e0529135 	subs	r9, r2, r5, lsr r1

00001908 <l1476>:
    1908:	e3580026 	cmp	r8, #38	; 0x26

0000190c <l1477>:
    190c:	60873006 	addvs	r3, r7, r6

00001910 <l1478>:
    1910:	b37303f2 	cmnlt	r3, #-939524093	; 0xc8000003

00001914 <l1479>:
    1914:	02073c05 	andeq	r3, r7, #1280	; 0x500

00001918 <l1480>:
    1918:	51760a20 	cmnpl	r6, r0, lsr #20

0000191c <l1481>:
    191c:	60b13c68 	adcsvs	r3, r1, r8, ror #24

00001920 <l1482>:
    1920:	e06b800a 	rsb	r8, fp, sl

00001924 <l1483>:
    1924:	e022b278 	eor	fp, r2, r8, ror r2

00001928 <l1484>:
    1928:	e3b0301e 	movs	r3, #30

0000192c <l1485>:
    192c:	50335338 	eorspl	r5, r3, r8, lsr r3

00001930 <l1486>:
    1930:	4020c00e 	eormi	ip, r0, lr

00001934 <l1487>:
    1934:	60539003 	subsvs	r9, r3, r3

00001938 <l1488>:
    1938:	e39b8736 	orrs	r8, fp, #14155776	; 0xd80000

0000193c <l1489>:
    193c:	024815de 	subeq	r1, r8, #931135488	; 0x37800000

00001940 <l1490>:
    1940:	639380a8 	orrsvs	r8, r3, #168	; 0xa8

00001944 <l1491>:
    1944:	d16f0f19 	clzle	r0, r9

00001948 <l1492>:
    1948:	e057b003 	subs	fp, r7, r3

0000194c <l1493>:
    194c:	e20e0953 	and	r0, lr, #1359872	; 0x14c000

00001950 <l1494>:
    1950:	aa000008 	bge	1978 <l1504>

00001954 <l1495>:
    1954:	e0425b1c 	sub	r5, r2, ip, lsl fp

00001958 <l1496>:
    1958:	e06b800a 	rsb	r8, fp, sl

0000195c <l1497>:
    195c:	8040700b 	subhi	r7, r0, fp

00001960 <l1498>:
    1960:	4045e003 	submi	lr, r5, r3

00001964 <l1499>:
    1964:	71120000 	tstvc	r2, r0

00001968 <l1500>:
    1968:	c2b22312 	adcsgt	r2, r2, #1207959552	; 0x48000000

0000196c <l1501>:
    196c:	e3f0e12d 	mvns	lr, #1073741835	; 0x4000000b

00001970 <l1502>:
    1970:	a255c983 	subsge	ip, r5, #2146304	; 0x20c000

00001974 <l1503>:
    1974:	41820001 	orrmi	r0, r2, r1

00001978 <l1504>:
    1978:	e394cb29 	orrs	ip, r4, #41984	; 0xa400

0000197c <l1505>:
    197c:	e00c9b11 	and	r9, ip, r1, lsl fp

00001980 <l1506>:
    1980:	e0157007 	ands	r7, r5, r7

00001984 <l1507>:
    1984:	43d9958e 	bicsmi	r9, r9, #595591168	; 0x23800000

00001988 <l1508>:
    1988:	b1d1ce59 	bicslt	ip, r1, r9, asr lr

0000198c <l1509>:
    198c:	ea000005 	b	19a8 <l1516>

00001990 <l1510>:
    1990:	e280101a 	add	r1, r0, #26

00001994 <l1511>:
    1994:	919a5001 	orrsls	r5, sl, r1

00001998 <l1512>:
    1998:	e04ea00c 	sub	sl, lr, ip

0000199c <l1513>:
    199c:	0060e005 	rsbeq	lr, r0, r5

000019a0 <l1514>:
    19a0:	117e0926 	cmnne	lr, r6, lsr #18

000019a4 <l1515>:
    19a4:	ea000000 	b	19ac <l1517>

000019a8 <l1516>:
    19a8:	eafffff9 	b	1994 <l1511>

000019ac <l1517>:
    19ac:	e06f700c 	rsb	r7, pc, ip

000019b0 <l1518>:
    19b0:	e2eb4926 	rsc	r4, fp, #622592	; 0x98000

000019b4 <l1519>:
    19b4:	607a023a 	rsbsvs	r0, sl, sl, lsr r2

000019b8 <l1520>:
    19b8:	e0f5e002 	rscs	lr, r5, r2

000019bc <l1521>:
    19bc:	ea000000 	b	19c4 <l1523>

000019c0 <l1522>:
    19c0:	e3e0b1df 	mvn	fp, #-1073741769	; 0xc0000037

000019c4 <l1523>:
    19c4:	716f2f13 	clzvc	r2, r3

000019c8 <l1524>:
    19c8:	e2648022 	rsb	r8, r4, #34	; 0x22

000019cc <l1525>:
    19cc:	2119087c 	tstcs	r9, ip, ror r8

000019d0 <l1526>:
    19d0:	e1d21e1c 	bics	r1, r2, ip, lsl lr

000019d4 <l1527>:
    19d4:	c5dd0019 	ldrbgt	r0, [sp, #25]

000019d8 <l1528>:
    19d8:	ca000007 	bgt	19fc <l1537>

000019dc <l1529>:
    19dc:	e2801008 	add	r1, r0, #8

000019e0 <l1530>:
    19e0:	e1e0a235 	mvn	sl, r5, lsr r2

000019e4 <l1531>:
    19e4:	116f4f14 	clzne	r4, r4

000019e8 <l1532>:
    19e8:	e16f3f1b 	clz	r3, fp

000019ec <l1533>:
    19ec:	305c5e41 	subscc	r5, ip, r1, asr #28

000019f0 <l1534>:
    19f0:	c37309d2 	cmngt	r3, #3440640	; 0x348000

000019f4 <l1535>:
    19f4:	7247e68d 	subvc	lr, r7, #147849216	; 0x8d00000

000019f8 <l1536>:
    19f8:	ea000000 	b	1a00 <l1538>

000019fc <l1537>:
    19fc:	eafffff7 	b	19e0 <l1530>

00001a00 <l1538>:
    1a00:	62c201ce 	sbcvs	r0, r2, #-2147483597	; 0x80000033

00001a04 <l1539>:
    1a04:	e16faf1a 	clz	sl, sl

00001a08 <l1540>:
    1a08:	e02c95cc 	eor	r9, ip, ip, asr #11

00001a0c <l1541>:
    1a0c:	e33c0a26 	teq	ip, #155648	; 0x26000

00001a10 <l1542>:
    1a10:	63700282 	cmnvs	r0, #536870920	; 0x20000008

00001a14 <l1543>:
    1a14:	e011e007 	ands	lr, r1, r7

00001a18 <l1544>:
    1a18:	e3a05000 	mov	r5, #0

00001a1c <l1545>:
    1a1c:	e69d4005 	ldr	r4, [sp], r5

00001a20 <l1546>:
    1a20:	1affffff 	bne	1a24 <l1547>

00001a24 <l1547>:
    1a24:	e0c3e002 	sbc	lr, r3, r2

00001a28 <l1548>:
    1a28:	c1100553 	tstgt	r0, r3, asr r5

00001a2c <l1549>:
    1a2c:	b2cb4af1 	sbclt	r4, fp, #987136	; 0xf1000

00001a30 <l1550>:
    1a30:	b1e03005 	mvnlt	r3, r5

00001a34 <l1551>:
    1a34:	52e320d4 	rscpl	r2, r3, #212	; 0xd4

00001a38 <l1552>:
    1a38:	41500148 	cmpmi	r0, r8, asr #2

00001a3c <l1553>:
    1a3c:	d1710781 	cmnle	r1, r1, lsl #15

00001a40 <l1554>:
    1a40:	e0eb0004 	rsc	r0, fp, r4

00001a44 <l1555>:
    1a44:	ea000003 	b	1a58 <l1560>

00001a48 <l1556>:
    1a48:	e1899006 	orr	r9, r9, r6

00001a4c <l1557>:
    1a4c:	e0b0c06e 	adcs	ip, r0, lr, rrx

00001a50 <l1558>:
    1a50:	d3a063f9 	movle	r6, #-469762045	; 0xe4000003

00001a54 <l1559>:
    1a54:	e16f9f1c 	clz	r9, ip

00001a58 <l1560>:
    1a58:	e2335f8f 	eors	r5, r3, #572	; 0x23c

00001a5c <l1561>:
    1a5c:	31110005 	tstcc	r1, r5

00001a60 <l1562>:
    1a60:	d03e1052 	eorsle	r1, lr, r2, asr r0

00001a64 <l1563>:
    1a64:	e35f0d62 	cmp	pc, #6272	; 0x1880

00001a68 <l1564>:
    1a68:	81e0937b 	mvnhi	r9, fp, ror r3

00001a6c <l1565>:
    1a6c:	e2d70d3a 	sbcs	r0, r7, #3712	; 0xe80

00001a70 <l1566>:
    1a70:	804ea004 	subhi	sl, lr, r4

00001a74 <l1567>:
    1a74:	90157009 	andsls	r7, r5, r9

00001a78 <l1568>:
    1a78:	e0b84061 	adcs	r4, r8, r1, rrx

00001a7c <l1569>:
    1a7c:	e269a0fe 	rsb	sl, r9, #254	; 0xfe

00001a80 <l1570>:
    1a80:	e1b0207c 	rors	r2, ip, r0

00001a84 <l1571>:
    1a84:	e0c14564 	sbc	r4, r1, r4, ror #10

00001a88 <l1572>:
    1a88:	93955e2e 	orrsls	r5, r5, #736	; 0x2e0

00001a8c <l1573>:
    1a8c:	4053400c 	subsmi	r4, r3, ip

00001a90 <l1574>:
    1a90:	4187327b 	orrmi	r3, r7, fp, ror r2

00001a94 <l1575>:
    1a94:	3a000002 	bcc	1aa4 <l1579>

00001a98 <l1576>:
    1a98:	e28010f3 	add	r1, r0, #243	; 0xf3

00001a9c <l1577>:
    1a9c:	e0cb1009 	sbc	r1, fp, r9

00001aa0 <l1578>:
    1aa0:	ea000000 	b	1aa8 <l1580>

00001aa4 <l1579>:
    1aa4:	eafffffc 	b	1a9c <l1577>

00001aa8 <l1580>:
    1aa8:	5a000006 	bpl	1ac8 <l1588>

00001aac <l1581>:
    1aac:	c1b04c31 	lsrsgt	r4, r1, ip

00001ab0 <l1582>:
    1ab0:	e33003b9 	teq	r0, #-469762046	; 0xe4000002

00001ab4 <l1583>:
    1ab4:	01550b15 	cmpeq	r5, r5, lsl fp

00001ab8 <l1584>:
    1ab8:	e1b0cb82 	lsls	ip, r2, #23

00001abc <l1585>:
    1abc:	d0534c58 	subsle	r4, r3, r8, asr ip

00001ac0 <l1586>:
    1ac0:	3154064e 	cmpcc	r4, lr, asr #12

00001ac4 <l1587>:
    1ac4:	7050800c 	subsvc	r8, r0, ip

00001ac8 <l1588>:
    1ac8:	71a01a38 	lsrvc	r1, r8, sl

00001acc <l1589>:
    1acc:	32479c95 	subcc	r9, r7, #38144	; 0x9500

00001ad0 <l1590>:
    1ad0:	e3a0e004 	mov	lr, #4

00001ad4 <l1591>:
    1ad4:	e68d100e 	str	r1, [sp], lr

00001ad8 <l1592>:
    1ad8:	e1560601 	cmp	r6, r1, lsl #12

00001adc <l1593>:
    1adc:	ea000004 	b	1af4 <l1599>

00001ae0 <l1594>:
    1ae0:	e2801075 	add	r1, r0, #117	; 0x75

00001ae4 <l1595>:
    1ae4:	31500005 	cmpcc	r0, r5

00001ae8 <l1596>:
    1ae8:	e08994aa 	add	r9, r9, sl, lsr #9

00001aec <l1597>:
    1aec:	e1700657 	cmn	r0, r7, asr r6

00001af0 <l1598>:
    1af0:	ea000000 	b	1af8 <l1600>

00001af4 <l1599>:
    1af4:	eafffffa 	b	1ae4 <l1595>

00001af8 <l1600>:
    1af8:	e3a08010 	mov	r8, #16

00001afc <l1601>:
    1afc:	e7bd1008 	ldr	r1, [sp, r8]!

00001b00 <l1602>:
    1b00:	d2e49505 	rscle	r9, r4, #20971520	; 0x1400000

00001b04 <l1603>:
    1b04:	e59db02c 	ldr	fp, [sp, #44]	; 0x2c

00001b08 <l1604>:
    1b08:	21f05933 	mvnscs	r5, r3, lsr r9

00001b0c <l1605>:
    1b0c:	ea000003 	b	1b20 <l1610>

00001b10 <l1606>:
    1b10:	e2801078 	add	r1, r0, #120	; 0x78

00001b14 <l1607>:
    1b14:	605c6139 	subsvs	r6, ip, r9, lsr r1

00001b18 <l1608>:
    1b18:	40b3b9ca 	adcsmi	fp, r3, sl, asr #19

00001b1c <l1609>:
    1b1c:	ea000000 	b	1b24 <l1611>

00001b20 <l1610>:
    1b20:	eafffffb 	b	1b14 <l1607>

00001b24 <l1611>:
    1b24:	72454d26 	subvc	r4, r5, #2432	; 0x980

00001b28 <l1612>:
    1b28:	ea000003 	b	1b3c <l1617>

00001b2c <l1613>:
    1b2c:	e280105c 	add	r1, r0, #92	; 0x5c

00001b30 <l1614>:
    1b30:	a0d14f48 	sbcsge	r4, r1, r8, asr #30

00001b34 <l1615>:
    1b34:	d2b13945 	adcsle	r3, r1, #1130496	; 0x114000

00001b38 <l1616>:
    1b38:	ea000000 	b	1b40 <l1618>

00001b3c <l1617>:
    1b3c:	eafffffb 	b	1b30 <l1614>

00001b40 <l1618>:
    1b40:	513f0005 	teqpl	pc, r5

00001b44 <l1619>:
    1b44:	216f0f19 	clzcs	r0, r9

00001b48 <l1620>:
    1b48:	e0e63e56 	rsc	r3, r6, r6, asr lr

00001b4c <l1621>:
    1b4c:	91a03004 	movls	r3, r4

00001b50 <l1622>:
    1b50:	e54d8011 	strb	r8, [sp, #-17]

00001b54 <l1623>:
    1b54:	83170b89 	tsthi	r7, #140288	; 0x22400

00001b58 <l1624>:
    1b58:	411e0900 	tstmi	lr, r0, lsl #18

00001b5c <l1625>:
    1b5c:	e15806ac 	cmp	r8, ip, lsr #13

00001b60 <l1626>:
    1b60:	e1c9175a 	bic	r1, r9, sl, asr r7

00001b64 <l1627>:
    1b64:	719b5512 	orrsvc	r5, fp, r2, lsl r5

00001b68 <l1628>:
    1b68:	a041000f 	subge	r0, r1, pc

00001b6c <l1629>:
    1b6c:	e3e08891 	mvn	r8, #9502720	; 0x910000

00001b70 <l1630>:
    1b70:	e248a44f 	sub	sl, r8, #1325400064	; 0x4f000000

00001b74 <l1631>:
    1b74:	8a000001 	bhi	1b80 <l1634>

00001b78 <l1632>:
    1b78:	e3720c3f 	cmn	r2, #16128	; 0x3f00

00001b7c <l1633>:
    1b7c:	51a0e247 	asrpl	lr, r7, #4

00001b80 <l1634>:
    1b80:	e0f1a06e 	rscs	sl, r1, lr, rrx

00001b84 <l1635>:
    1b84:	e016300a 	ands	r3, r6, sl

00001b88 <l1636>:
    1b88:	e1cc3000 	bic	r3, ip, r0

00001b8c <l1637>:
    1b8c:	5046351e 	subpl	r3, r6, lr, lsl r5

00001b90 <l1638>:
    1b90:	8a000002 	bhi	1ba0 <l1642>

00001b94 <l1639>:
    1b94:	e280101c 	add	r1, r0, #28

00001b98 <l1640>:
    1b98:	01ca190e 	biceq	r1, sl, lr, lsl #18

00001b9c <l1641>:
    1b9c:	ea000000 	b	1ba4 <l1643>

00001ba0 <l1642>:
    1ba0:	eafffffc 	b	1b98 <l1640>

00001ba4 <l1643>:
    1ba4:	119b8f2f 	orrsne	r8, fp, pc, lsr #30

00001ba8 <l1644>:
    1ba8:	e0dc1009 	sbcs	r1, ip, r9

00001bac <l1645>:
    1bac:	61b09069 	rrxsvs	r9, r9

00001bb0 <l1646>:
    1bb0:	609565e0 	addsvs	r6, r5, r0, ror #11

00001bb4 <l1647>:
    1bb4:	6010b972 	andsvs	fp, r0, r2, ror r9

00001bb8 <l1648>:
    1bb8:	ea000004 	b	1bd0 <l1654>

00001bbc <l1649>:
    1bbc:	e280100d 	add	r1, r0, #13

00001bc0 <l1650>:
    1bc0:	60d9240c 	sbcsvs	r2, r9, ip, lsl #8

00001bc4 <l1651>:
    1bc4:	b0cce009 	sbclt	lr, ip, r9

00001bc8 <l1652>:
    1bc8:	225e44b1 	subscs	r4, lr, #-1325400064	; 0xb1000000

00001bcc <l1653>:
    1bcc:	ea000000 	b	1bd4 <l1655>

00001bd0 <l1654>:
    1bd0:	eafffffa 	b	1bc0 <l1650>

00001bd4 <l1655>:
    1bd4:	c27f80d8 	rsbsgt	r8, pc, #216	; 0xd8

00001bd8 <l1656>:
    1bd8:	e00a6c52 	and	r6, sl, r2, asr ip

00001bdc <l1657>:
    1bdc:	224fac71 	subcs	sl, pc, #28928	; 0x7100

00001be0 <l1658>:
    1be0:	ea000005 	b	1bfc <l1665>

00001be4 <l1659>:
    1be4:	e280101d 	add	r1, r0, #29

00001be8 <l1660>:
    1be8:	31e04003 	mvncc	r4, r3

00001bec <l1661>:
    1bec:	316f7f14 	clzcc	r7, r4

00001bf0 <l1662>:
    1bf0:	e05e0a5c 	subs	r0, lr, ip, asr sl

00001bf4 <l1663>:
    1bf4:	2195a003 	orrscs	sl, r5, r3

00001bf8 <l1664>:
    1bf8:	ea000000 	b	1c00 <l1666>

00001bfc <l1665>:
    1bfc:	eafffff9 	b	1be8 <l1660>

00001c00 <l1666>:
    1c00:	c131036b 	teqgt	r1, fp, ror #6

00001c04 <l1667>:
    1c04:	e0a400a2 	adc	r0, r4, r2, lsr #1

00001c08 <l1668>:
    1c08:	ea000005 	b	1c24 <l1675>

00001c0c <l1669>:
    1c0c:	e28010a7 	add	r1, r0, #167	; 0xa7

00001c10 <l1670>:
    1c10:	e217970d 	ands	r9, r7, #3407872	; 0x340000

00001c14 <l1671>:
    1c14:	d0920060 	addsle	r0, r2, r0, rrx

00001c18 <l1672>:
    1c18:	e17402eb 	cmn	r4, fp, ror #5

00001c1c <l1673>:
    1c1c:	e24a3f41 	sub	r3, sl, #260	; 0x104

00001c20 <l1674>:
    1c20:	ea000000 	b	1c28 <l1676>

00001c24 <l1675>:
    1c24:	eafffff9 	b	1c10 <l1670>

00001c28 <l1676>:
    1c28:	13a04d06 	movne	r4, #384	; 0x180

00001c2c <l1677>:
    1c2c:	e3db0266 	bics	r0, fp, #1610612742	; 0x60000006

00001c30 <l1678>:
    1c30:	b00f198f 	andlt	r1, pc, pc, lsl #19

00001c34 <l1679>:
    1c34:	e3a0c02d 	mov	ip, #45	; 0x2d

00001c38 <l1680>:
    1c38:	87cd900c 	strbhi	r9, [sp, ip]

00001c3c <l1681>:
    1c3c:	ea000005 	b	1c58 <l1688>

00001c40 <l1682>:
    1c40:	e194e066 	orrs	lr, r4, r6, rrx

00001c44 <l1683>:
    1c44:	e270010e 	rsbs	r0, r0, #-2147483645	; 0x80000003

00001c48 <l1684>:
    1c48:	11871063 	orrne	r1, r7, r3, rrx

00001c4c <l1685>:
    1c4c:	e0a7100e 	adc	r1, r7, lr

00001c50 <l1686>:
    1c50:	61d0198c 	bicsvs	r1, r0, ip, lsl #19

00001c54 <l1687>:
    1c54:	e194100a 	orrs	r1, r4, sl

00001c58 <l1688>:
    1c58:	e09cc064 	adds	ip, ip, r4, rrx

00001c5c <l1689>:
    1c5c:	12eb0dc1 	rscne	r0, fp, #12352	; 0x3040

00001c60 <l1690>:
    1c60:	e1f0700a 	mvns	r7, sl

00001c64 <l1691>:
    1c64:	ea000005 	b	1c80 <l1698>

00001c68 <l1692>:
    1c68:	e2801014 	add	r1, r0, #20

00001c6c <l1693>:
    1c6c:	e096800b 	adds	r8, r6, fp

00001c70 <l1694>:
    1c70:	e0ae106c 	adc	r1, lr, ip, rrx

00001c74 <l1695>:
    1c74:	e16f2f1c 	clz	r2, ip

00001c78 <l1696>:
    1c78:	e3140c23 	tst	r4, #8960	; 0x2300

00001c7c <l1697>:
    1c7c:	ea000000 	b	1c84 <l1699>

00001c80 <l1698>:
    1c80:	eafffff9 	b	1c6c <l1693>

00001c84 <l1699>:
    1c84:	d0dee005 	sbcsle	lr, lr, r5

00001c88 <l1700>:
    1c88:	a1730009 	cmnge	r3, r9

00001c8c <l1701>:
    1c8c:	e53d2014 	ldr	r2, [sp, #-20]!

00001c90 <l1702>:
    1c90:	4a000005 	bmi	1cac <l1709>

00001c94 <l1703>:
    1c94:	e280107d 	add	r1, r0, #125	; 0x7d

00001c98 <l1704>:
    1c98:	e04f400c 	sub	r4, pc, ip

00001c9c <l1705>:
    1c9c:	e275cf77 	rsbs	ip, r5, #476	; 0x1dc

00001ca0 <l1706>:
    1ca0:	e08c0782 	add	r0, ip, r2, lsl #15

00001ca4 <l1707>:
    1ca4:	e18c600f 	orr	r6, ip, pc

00001ca8 <l1708>:
    1ca8:	ea000000 	b	1cb0 <l1710>

00001cac <l1709>:
    1cac:	eafffff9 	b	1c98 <l1704>

00001cb0 <l1710>:
    1cb0:	b16fef1c 	clzlt	lr, ip

00001cb4 <l1711>:
    1cb4:	e1f0a970 	mvns	sl, r0, ror r9

00001cb8 <l1712>:
    1cb8:	618eb06e 	orrvs	fp, lr, lr, rrx

00001cbc <l1713>:
    1cbc:	10022064 	andne	r2, r2, r4, rrx

00001cc0 <l1714>:
    1cc0:	da000005 	ble	1cdc <l1721>

00001cc4 <l1715>:
    1cc4:	e223c293 	eor	ip, r3, #805306377	; 0x30000009

00001cc8 <l1716>:
    1cc8:	105c6006 	subsne	r6, ip, r6

00001ccc <l1717>:
    1ccc:	e15c050b 	cmp	ip, fp, lsl #10

00001cd0 <l1718>:
    1cd0:	e0d9c011 	sbcs	ip, r9, r1, lsl r0

00001cd4 <l1719>:
    1cd4:	d310050e 	tstle	r0, #58720256	; 0x3800000

00001cd8 <l1720>:
    1cd8:	a1b02958 	asrsge	r2, r8, r9

00001cdc <l1721>:
    1cdc:	205b8572 	subscs	r8, fp, r2, ror r5

00001ce0 <l1722>:
    1ce0:	e2b47033 	adcs	r7, r4, #51	; 0x33

00001ce4 <l1723>:
    1ce4:	e16f2f1c 	clz	r2, ip

00001ce8 <l1724>:
    1ce8:	20f09001 	rscscs	r9, r0, r1

00001cec <l1725>:
    1cec:	e3a0301c 	mov	r3, #28

00001cf0 <l1726>:
    1cf0:	e7ad8003 	str	r8, [sp, r3]!

00001cf4 <l1727>:
    1cf4:	037c0355 	cmneq	ip, #1409286145	; 0x54000001

00001cf8 <l1728>:
    1cf8:	2a000004 	bcs	1d10 <l1734>

00001cfc <l1729>:
    1cfc:	713607ac 	teqvc	r6, ip, lsr #15

00001d00 <l1730>:
    1d00:	b05e7002 	subslt	r7, lr, r2

00001d04 <l1731>:
    1d04:	e003500a 	and	r5, r3, sl

00001d08 <l1732>:
    1d08:	d1750b30 	cmnle	r5, r0, lsr fp

00001d0c <l1733>:
    1d0c:	e1110000 	tst	r1, r0

00001d10 <l1734>:
    1d10:	e15b0654 	cmp	fp, r4, asr r6

00001d14 <l1735>:
    1d14:	4a000006 	bmi	1d34 <l1743>

00001d18 <l1736>:
    1d18:	c0509067 	subsgt	r9, r0, r7, rrx

00001d1c <l1737>:
    1d1c:	e35f05b1 	cmp	pc, #742391808	; 0x2c400000

00001d20 <l1738>:
    1d20:	e1d5c716 	bics	ip, r5, r6, lsl r7

00001d24 <l1739>:
    1d24:	e1110262 	tst	r1, r2, ror #4

00001d28 <l1740>:
    1d28:	b1943330 	orrslt	r3, r4, r0, lsr r3

00001d2c <l1741>:
    1d2c:	73140299 	tstvc	r4, #-1879048183	; 0x90000009

00001d30 <l1742>:
    1d30:	b26669eb 	rsblt	r6, r6, #3850240	; 0x3ac000

00001d34 <l1743>:
    1d34:	e2de6402 	sbcs	r6, lr, #33554432	; 0x2000000

00001d38 <l1744>:
    1d38:	41b07f88 	lslsmi	r7, r8, #31

00001d3c <l1745>:
    1d3c:	e1f07003 	mvns	r7, r3

00001d40 <l1746>:
    1d40:	ea000002 	b	1d50 <l1750>

00001d44 <l1747>:
    1d44:	e2801062 	add	r1, r0, #98	; 0x62

00001d48 <l1748>:
    1d48:	e0607064 	rsb	r7, r0, r4, rrx

00001d4c <l1749>:
    1d4c:	ea000000 	b	1d54 <l1751>

00001d50 <l1750>:
    1d50:	eafffffc 	b	1d48 <l1748>

00001d54 <l1751>:
    1d54:	50107c7e 	andspl	r7, r0, lr, ror ip

00001d58 <l1752>:
    1d58:	837e0449 	cmnhi	lr, #1224736768	; 0x49000000

00001d5c <l1753>:
    1d5c:	a112091e 	tstge	r2, lr, lsl r9

00001d60 <l1754>:
    1d60:	11c96a74 	bicne	r6, r9, r4, ror sl

00001d64 <l1755>:
    1d64:	e0537736 	subs	r7, r3, r6, lsr r7

00001d68 <l1756>:
    1d68:	d0e54aa4 	rscle	r4, r5, r4, lsr #21

00001d6c <l1757>:
    1d6c:	1affffff 	bne	1d70 <l1758>

00001d70 <l1758>:
    1d70:	e02e4002 	eor	r4, lr, r2

00001d74 <l1759>:
    1d74:	2a000007 	bcs	1d98 <l1768>

00001d78 <l1760>:
    1d78:	e280106c 	add	r1, r0, #108	; 0x6c

00001d7c <l1761>:
    1d7c:	e2a270a2 	adc	r7, r2, #162	; 0xa2

00001d80 <l1762>:
    1d80:	e11b0005 	tst	fp, r5

00001d84 <l1763>:
    1d84:	63550b5a 	cmpvs	r5, #92160	; 0x16800

00001d88 <l1764>:
    1d88:	025c47f5 	subseq	r4, ip, #64225280	; 0x3d40000

00001d8c <l1765>:
    1d8c:	e0457003 	sub	r7, r5, r3

00001d90 <l1766>:
    1d90:	e13e0006 	teq	lr, r6

00001d94 <l1767>:
    1d94:	ea000000 	b	1d9c <l1769>

00001d98 <l1768>:
    1d98:	eafffff7 	b	1d7c <l1761>

00001d9c <l1769>:
    1d9c:	e3a0701c 	mov	r7, #28

00001da0 <l1770>:
    1da0:	e73d7007 	ldr	r7, [sp, -r7]!

00001da4 <l1771>:
    1da4:	129674ab 	addsne	r7, r6, #-1426063360	; 0xab000000

00001da8 <l1772>:
    1da8:	e21e556d 	ands	r5, lr, #457179136	; 0x1b400000

00001dac <l1773>:
    1dac:	90fea00f 	rscsls	sl, lr, pc

00001db0 <l1774>:
    1db0:	e3821c07 	orr	r1, r2, #1792	; 0x700

00001db4 <l1775>:
    1db4:	b01cb066 	andslt	fp, ip, r6, rrx

00001db8 <l1776>:
    1db8:	1a000006 	bne	1dd8 <l1784>

00001dbc <l1777>:
    1dbc:	32371af9 	eorscc	r1, r7, #1019904	; 0xf9000

00001dc0 <l1778>:
    1dc0:	713c0cee 	teqvc	ip, lr, ror #25

00001dc4 <l1779>:
    1dc4:	e05e606e 	subs	r6, lr, lr, rrx

00001dc8 <l1780>:
    1dc8:	e0e4c00b 	rsc	ip, r4, fp

00001dcc <l1781>:
    1dcc:	10e71b0f 	rscne	r1, r7, pc, lsl #22

00001dd0 <l1782>:
    1dd0:	a192c00a 	orrsge	ip, r2, sl

00001dd4 <l1783>:
    1dd4:	e1c2aaa4 	bic	sl, r2, r4, lsr #21

00001dd8 <l1784>:
    1dd8:	0243c771 	subeq	ip, r3, #29622272	; 0x1c40000

00001ddc <l1785>:
    1ddc:	c0a9c371 	adcgt	ip, r9, r1, ror r3

00001de0 <l1786>:
    1de0:	250d8008 	strcs	r8, [sp, #-8]

00001de4 <l1787>:
    1de4:	70512a57 	subsvc	r2, r1, r7, asr sl

00001de8 <l1788>:
    1de8:	e0033009 	and	r3, r3, r9

00001dec <l1789>:
    1dec:	711b0f46 	tstvc	fp, r6, asr #30

00001df0 <l1790>:
    1df0:	53e02372 	mvnpl	r2, #-939524095	; 0xc8000001

00001df4 <l1791>:
    1df4:	e1e08009 	mvn	r8, r9

00001df8 <l1792>:
    1df8:	e1c37e83 	bic	r7, r3, r3, lsl #29

00001dfc <l1793>:
    1dfc:	e2f43a26 	rscs	r3, r4, #155648	; 0x26000

00001e00 <l1794>:
    1e00:	e05451a2 	subs	r5, r4, r2, lsr #3

00001e04 <l1795>:
    1e04:	e16fcf17 	clz	ip, r7

00001e08 <l1796>:
    1e08:	8a000006 	bhi	1e28 <l1804>

00001e0c <l1797>:
    1e0c:	e3f0ab3b 	mvns	sl, #60416	; 0xec00

00001e10 <l1798>:
    1e10:	e056306c 	subs	r3, r6, ip, rrx

00001e14 <l1799>:
    1e14:	80500068 	subshi	r0, r0, r8, rrx

00001e18 <l1800>:
    1e18:	e0994e46 	adds	r4, r9, r6, asr #28

00001e1c <l1801>:
    1e1c:	40559979 	subsmi	r9, r5, r9, ror r9

00001e20 <l1802>:
    1e20:	e18565aa 	orr	r6, r5, sl, lsr #11

00001e24 <l1803>:
    1e24:	92595306 	subsls	r5, r9, #402653184	; 0x18000000

00001e28 <l1804>:
    1e28:	8052ed6e 	subshi	lr, r2, lr, ror #26

00001e2c <l1805>:
    1e2c:	d33203af 	teqle	r2, #-1140850686	; 0xbc000002

00001e30 <l1806>:
    1e30:	20fa206a 	rscscs	r2, sl, sl, rrx

00001e34 <l1807>:
    1e34:	4a000007 	bmi	1e58 <l1816>

00001e38 <l1808>:
    1e38:	e2801002 	add	r1, r0, #2

00001e3c <l1809>:
    1e3c:	e0f76060 	rscs	r6, r7, r0, rrx

00001e40 <l1810>:
    1e40:	31c13ac4 	biccc	r3, r1, r4, asr #21

00001e44 <l1811>:
    1e44:	e049800a 	sub	r8, r9, sl

00001e48 <l1812>:
    1e48:	e2d12b9f 	sbcs	r2, r1, #162816	; 0x27c00

00001e4c <l1813>:
    1e4c:	e13e006a 	teq	lr, sl, rrx

00001e50 <l1814>:
    1e50:	c007027a 	andgt	r0, r7, sl, ror r2

00001e54 <l1815>:
    1e54:	ea000000 	b	1e5c <l1817>

00001e58 <l1816>:
    1e58:	eafffff7 	b	1e3c <l1809>

00001e5c <l1817>:
    1e5c:	917c0c8f 	cmnls	ip, pc, lsl #25

00001e60 <l1818>:
    1e60:	50e8b009 	rscpl	fp, r8, r9

00001e64 <l1819>:
    1e64:	ea000004 	b	1e7c <l1825>

00001e68 <l1820>:
    1e68:	e28010bb 	add	r1, r0, #187	; 0xbb

00001e6c <l1821>:
    1e6c:	41e00459 	mvnmi	r0, r9, asr r4

00001e70 <l1822>:
    1e70:	e1a0c007 	mov	ip, r7

00001e74 <l1823>:
    1e74:	30c2000b 	sbccc	r0, r2, fp

00001e78 <l1824>:
    1e78:	ea000000 	b	1e80 <l1826>

00001e7c <l1825>:
    1e7c:	eafffffa 	b	1e6c <l1821>

00001e80 <l1826>:
    1e80:	7a000004 	bvc	1e98 <l1832>

00001e84 <l1827>:
    1e84:	41b0400e 	movsmi	r4, lr

00001e88 <l1828>:
    1e88:	71b09356 	asrsvc	r9, r6, r3

00001e8c <l1829>:
    1e8c:	616f2f1c 	clzvs	r2, ip

00001e90 <l1830>:
    1e90:	6259393d 	subsvs	r3, r9, #999424	; 0xf4000

00001e94 <l1831>:
    1e94:	5043c136 	subpl	ip, r3, r6, lsr r1

00001e98 <l1832>:
    1e98:	e2d65926 	sbcs	r5, r6, #622592	; 0x98000

00001e9c <l1833>:
    1e9c:	70497000 	subvc	r7, r9, r0

00001ea0 <l1834>:
    1ea0:	919e143c 	orrsls	r1, lr, ip, lsr r4

00001ea4 <l1835>:
    1ea4:	55dd502a 	ldrbpl	r5, [sp, #42]	; 0x2a

00001ea8 <l1836>:
    1ea8:	e113083b 	tst	r3, fp, lsr r8

00001eac <l1837>:
    1eac:	8a000002 	bhi	1ebc <l1841>

00001eb0 <l1838>:
    1eb0:	e2801036 	add	r1, r0, #54	; 0x36

00001eb4 <l1839>:
    1eb4:	41d96006 	bicsmi	r6, r9, r6

00001eb8 <l1840>:
    1eb8:	ea000000 	b	1ec0 <l1842>

00001ebc <l1841>:
    1ebc:	eafffffc 	b	1eb4 <l1839>

00001ec0 <l1842>:
    1ec0:	ea000001 	b	1ecc <l1845>

00001ec4 <l1843>:
    1ec4:	c051706f 	subsgt	r7, r1, pc, rrx

00001ec8 <l1844>:
    1ec8:	e0eea06f 	rsc	sl, lr, pc, rrx

00001ecc <l1845>:
    1ecc:	51b04359 	asrspl	r4, r9, r3

00001ed0 <l1846>:
    1ed0:	9151000e 	cmpls	r1, lr

00001ed4 <l1847>:
    1ed4:	904e9eec 	subls	r9, lr, ip, ror #29

00001ed8 <l1848>:
    1ed8:	907fa5a6 	rsbsls	sl, pc, r6, lsr #11

00001edc <l1849>:
    1edc:	908c9056 	addls	r9, ip, r6, asr r0

00001ee0 <l1850>:
    1ee0:	e0941470 	adds	r1, r4, r0, ror r4

00001ee4 <l1851>:
    1ee4:	e0373667 	eors	r3, r7, r7, ror #12

00001ee8 <l1852>:
    1ee8:	60aa0060 	adcvs	r0, sl, r0, rrx

00001eec <l1853>:
    1eec:	e48d303c 	str	r3, [sp], #60	; 0x3c

00001ef0 <l1854>:
    1ef0:	81160cae 	tsthi	r6, lr, lsr #25

00001ef4 <l1855>:
    1ef4:	e0ca7211 	sbc	r7, sl, r1, lsl r2

00001ef8 <l1856>:
    1ef8:	e3a09017 	mov	r9, #23

00001efc <l1857>:
    1efc:	e74d6009 	strb	r6, [sp, -r9]

00001f00 <l1858>:
    1f00:	e0ba300f 	adcs	r3, sl, pc

00001f04 <l1859>:
    1f04:	e54d401c 	strb	r4, [sp, #-28]

00001f08 <l1860>:
    1f08:	30c389e0 	sbccc	r8, r3, r0, ror #19

00001f0c <l1861>:
    1f0c:	c2264a21 	eorgt	r4, r6, #135168	; 0x21000

00001f10 <l1862>:
    1f10:	a38742cd 	orrge	r4, r7, #-805306356	; 0xd000000c

00001f14 <l1863>:
    1f14:	e0a95007 	adc	r5, r9, r7

00001f18 <l1864>:
    1f18:	e0056fa1 	and	r6, r5, r1, lsr #31

00001f1c <l1865>:
    1f1c:	e16f5f12 	clz	r5, r2

00001f20 <l1866>:
    1f20:	11b09006 	movsne	r9, r6

00001f24 <l1867>:
    1f24:	e0854003 	add	r4, r5, r3

00001f28 <l1868>:
    1f28:	e11b000c 	tst	fp, ip

00001f2c <l1869>:
    1f2c:	50f3a001 	rscspl	sl, r3, r1

00001f30 <l1870>:
    1f30:	e1f0b066 	mvns	fp, r6, rrx

00001f34 <l1871>:
    1f34:	a3b0c109 	movsge	ip, #1073741826	; 0x40000002

00001f38 <l1872>:
    1f38:	e1a0bc53 	asr	fp, r3, ip

00001f3c <l1873>:
    1f3c:	e40d901c 	str	r9, [sp], #-28

00001f40 <l1874>:
    1f40:	531f0835 	tstpl	pc, #3473408	; 0x350000

00001f44 <l1875>:
    1f44:	40c9b004 	sbcmi	fp, r9, r4

00001f48 <l1876>:
    1f48:	1a000003 	bne	1f5c <l1881>

00001f4c <l1877>:
    1f4c:	e28010b5 	add	r1, r0, #181	; 0xb5

00001f50 <l1878>:
    1f50:	e0e7406c 	rsc	r4, r7, ip, rrx

00001f54 <l1879>:
    1f54:	3281ba4b 	addcc	fp, r1, #307200	; 0x4b000

00001f58 <l1880>:
    1f58:	ea000000 	b	1f60 <l1882>

00001f5c <l1881>:
    1f5c:	eafffffb 	b	1f50 <l1878>

00001f60 <l1882>:
    1f60:	3000065c 	andcc	r0, r0, ip, asr r6

00001f64 <l1883>:
    1f64:	e13003cf 	teq	r0, pc, asr #7

00001f68 <l1884>:
    1f68:	e1b07723 	lsrs	r7, r3, #14

00001f6c <l1885>:
    1f6c:	e1570f69 	cmp	r7, r9, ror #30

00001f70 <l1886>:
    1f70:	e16f5f18 	clz	r5, r8

00001f74 <l1887>:
    1f74:	a00f02ac 	andge	r0, pc, ip, lsr #5

00001f78 <l1888>:
    1f78:	20facdc8 	rscscs	ip, sl, r8, asr #27

00001f7c <l1889>:
    1f7c:	e0a8906e 	adc	r9, r8, lr, rrx

00001f80 <l1890>:
    1f80:	e16f9f1a 	clz	r9, sl

00001f84 <l1891>:
    1f84:	b380c004 	orrlt	ip, r0, #4

00001f88 <l1892>:
    1f88:	020c601a 	andeq	r6, ip, #26

00001f8c <l1893>:
    1f8c:	e0b66007 	adcs	r6, r6, r7

00001f90 <l1894>:
    1f90:	2186b628 	orrcs	fp, r6, r8, lsr #12

00001f94 <l1895>:
    1f94:	d15a000f 	cmple	sl, pc

00001f98 <l1896>:
    1f98:	50ae5061 	adcpl	r5, lr, r1, rrx

00001f9c <l1897>:
    1f9c:	e11c0104 	tst	ip, r4, lsl #2

00001fa0 <l1898>:
    1fa0:	ea000006 	b	1fc0 <l1906>

00001fa4 <l1899>:
    1fa4:	e280103a 	add	r1, r0, #58	; 0x3a

00001fa8 <l1900>:
    1fa8:	e1a0816c 	ror	r8, ip, #2

00001fac <l1901>:
    1fac:	e08f8863 	add	r8, pc, r3, ror #16

00001fb0 <l1902>:
    1fb0:	50f6c00f 	rscspl	ip, r6, pc

00001fb4 <l1903>:
    1fb4:	209bb002 	addscs	fp, fp, r2

00001fb8 <l1904>:
    1fb8:	9190788b 	orrsls	r7, r0, fp, lsl #17

00001fbc <l1905>:
    1fbc:	ea000000 	b	1fc4 <l1907>

00001fc0 <l1906>:
    1fc0:	eafffff8 	b	1fa8 <l1900>

00001fc4 <l1907>:
    1fc4:	e0377312 	eors	r7, r7, r2, lsl r3

00001fc8 <l1908>:
    1fc8:	e0348510 	eors	r8, r4, r0, lsl r5

00001fcc <l1909>:
    1fcc:	e35e092f 	cmp	lr, #770048	; 0xbc000

00001fd0 <l1910>:
    1fd0:	e54da008 	strb	sl, [sp, #-8]

00001fd4 <l1911>:
    1fd4:	03da0f73 	bicseq	r0, sl, #460	; 0x1cc

00001fd8 <l1912>:
    1fd8:	5051c28e 	subspl	ip, r1, lr, lsl #5

00001fdc <l1913>:
    1fdc:	421010f5 	andsmi	r1, r0, #245	; 0xf5

00001fe0 <l1914>:
    1fe0:	e1e05069 	mvn	r5, r9, rrx

00001fe4 <l1915>:
    1fe4:	ea000002 	b	1ff4 <l1919>

00001fe8 <l1916>:
    1fe8:	e28010eb 	add	r1, r0, #235	; 0xeb

00001fec <l1917>:
    1fec:	e1b00006 	movs	r0, r6

00001ff0 <l1918>:
    1ff0:	ea000000 	b	1ff8 <l1920>

00001ff4 <l1919>:
    1ff4:	eafffffc 	b	1fec <l1917>

00001ff8 <l1920>:
    1ff8:	10417003 	subne	r7, r1, r3

00001ffc <l1921>:
    1ffc:	e16f3f11 	clz	r3, r1

00002000 <l1922>:
    2000:	e0ba1307 	adcs	r1, sl, r7, lsl #6

00002004 <l1923>:
    2004:	da000004 	ble	201c <l1929>

00002008 <l1924>:
    2008:	e3f07fe5 	mvns	r7, #916	; 0x394

0000200c <l1925>:
    200c:	e38252a7 	orr	r5, r2, #1879048202	; 0x7000000a

00002010 <l1926>:
    2010:	42a73837 	adcmi	r3, r7, #3604480	; 0x370000

00002014 <l1927>:
    2014:	90c5ac12 	sbcls	sl, r5, r2, lsl ip

00002018 <l1928>:
    2018:	e31c0022 	tst	ip, #34	; 0x22

0000201c <l1929>:
    201c:	e0d34f88 	sbcs	r4, r3, r8, lsl #31

00002020 <l1930>:
    2020:	e3b0ac25 	movs	sl, #9472	; 0x2500

00002024 <l1931>:
    2024:	e52d0024 	str	r0, [sp, #-36]!	; 0x24

00002028 <l1932>:
    2028:	006e8ce2 	rsbeq	r8, lr, r2, ror #25

0000202c <l1933>:
    202c:	aa000000 	bge	2034 <l1935>

00002030 <l1934>:
    2030:	32651022 	rsbcc	r1, r5, #34	; 0x22

00002034 <l1935>:
    2034:	e228240b 	eor	r2, r8, #184549376	; 0xb000000

00002038 <l1936>:
    2038:	20d7106b 	sbcscs	r1, r7, fp, rrx

0000203c <l1937>:
    203c:	3a000006 	bcc	205c <l1945>

00002040 <l1938>:
    2040:	e2801011 	add	r1, r0, #17

00002044 <l1939>:
    2044:	e0756003 	rsbs	r6, r5, r3

00002048 <l1940>:
    2048:	11370378 	teqne	r7, r8, ror r3

0000204c <l1941>:
    204c:	813b033a 	teqhi	fp, sl, lsr r3

00002050 <l1942>:
    2050:	8004cc82 	andhi	ip, r4, r2, lsl #25

00002054 <l1943>:
    2054:	e0e89b5c 	rsc	r9, r8, ip, asr fp

00002058 <l1944>:
    2058:	ea000000 	b	2060 <l1946>

0000205c <l1945>:
    205c:	eafffff8 	b	2044 <l1939>

00002060 <l1946>:
    2060:	13740873 	cmnne	r4, #7536640	; 0x730000

00002064 <l1947>:
    2064:	e2026901 	and	r6, r2, #16384	; 0x4000

00002068 <l1948>:
    2068:	e045a069 	sub	sl, r5, r9, rrx

0000206c <l1949>:
    206c:	e1c78001 	bic	r8, r7, r1

00002070 <l1950>:
    2070:	51853b68 	orrpl	r3, r5, r8, ror #22

00002074 <l1951>:
    2074:	616fbf15 	clzvs	fp, r5

00002078 <l1952>:
    2078:	aa000006 	bge	2098 <l1960>

0000207c <l1953>:
    207c:	e280106a 	add	r1, r0, #106	; 0x6a

00002080 <l1954>:
    2080:	d0cf1c0e 	sbcle	r1, pc, lr, lsl #24

00002084 <l1955>:
    2084:	e3300212 	teq	r0, #536870913	; 0x20000001

00002088 <l1956>:
    2088:	e15e006a 	cmp	lr, sl, rrx

0000208c <l1957>:
    208c:	e1f0768e 	mvns	r7, lr, lsl #13

00002090 <l1958>:
    2090:	c1b08c1a 	lslsgt	r8, sl, ip

00002094 <l1959>:
    2094:	ea000000 	b	209c <l1961>

00002098 <l1960>:
    2098:	eafffff8 	b	2080 <l1954>

0000209c <l1961>:
    209c:	e5ad7030 	str	r7, [sp, #48]!	; 0x30

000020a0 <l1962>:
    20a0:	e0d37001 	sbcs	r7, r3, r1

000020a4 <l1963>:
    20a4:	e1922069 	orrs	r2, r2, r9, rrx

000020a8 <l1964>:
    20a8:	ea000007 	b	20cc <l1973>

000020ac <l1965>:
    20ac:	e3b07da1 	movs	r7, #10304	; 0x2840

000020b0 <l1966>:
    20b0:	81d3a835 	bicshi	sl, r3, r5, lsr r8

000020b4 <l1967>:
    20b4:	e22155b1 	eor	r5, r1, #742391808	; 0x2c400000

000020b8 <l1968>:
    20b8:	60c47d48 	sbcvs	r7, r4, r8, asr #26

000020bc <l1969>:
    20bc:	e0a48007 	adc	r8, r4, r7

000020c0 <l1970>:
    20c0:	e2655bda 	rsb	r5, r5, #223232	; 0x36800

000020c4 <l1971>:
    20c4:	c08c6005 	addgt	r6, ip, r5

000020c8 <l1972>:
    20c8:	e056b845 	subs	fp, r6, r5, asr #16

000020cc <l1973>:
    20cc:	c2c8c84e 	sbcgt	ip, r8, #5111808	; 0x4e0000

000020d0 <l1974>:
    20d0:	e31900e0 	tst	r9, #224	; 0xe0

000020d4 <l1975>:
    20d4:	e0e55845 	rsc	r5, r5, r5, asr #16

000020d8 <l1976>:
    20d8:	e31f0e35 	tst	pc, #848	; 0x350

000020dc <l1977>:
    20dc:	22ee8009 	rsccs	r8, lr, #9

000020e0 <l1978>:
    20e0:	31c32113 	biccc	r2, r3, r3, lsl r1

000020e4 <l1979>:
    20e4:	90568ee0 	subsls	r8, r6, r0, ror #29

000020e8 <l1980>:
    20e8:	10e79c18 	rscne	r9, r7, r8, lsl ip

000020ec <l1981>:
    20ec:	518108a9 	orrpl	r0, r1, r9, lsr #17

000020f0 <l1982>:
    20f0:	b013a004 	andslt	sl, r3, r4

000020f4 <l1983>:
    20f4:	90596005 	subsls	r6, r9, r5

000020f8 <l1984>:
    20f8:	116f3f11 	clzne	r3, r1

000020fc <l1985>:
    20fc:	c150006c 	cmpgt	r0, ip, rrx

00002100 <l1986>:
    2100:	e1730002 	cmn	r3, r2

00002104 <l1987>:
    2104:	30d5e00e 	sbcscc	lr, r5, lr

00002108 <l1988>:
    2108:	53f06a5b 	mvnspl	r6, #372736	; 0x5b000

0000210c <l1989>:
    210c:	113502cf 	teqne	r5, pc, asr #5

00002110 <l1990>:
    2110:	20d8ef22 	sbcscs	lr, r8, r2, lsr #30

00002114 <l1991>:
    2114:	e0eb1069 	rsc	r1, fp, r9, rrx

00002118 <l1992>:
    2118:	30299064 	eorcc	r9, r9, r4, rrx

0000211c <l1993>:
    211c:	e3a01010 	mov	r1, #16

00002120 <l1994>:
    2120:	e60de001 	str	lr, [sp], -r1

00002124 <l1995>:
    2124:	21dca00a 	bicscs	sl, ip, sl

00002128 <l1996>:
    2128:	ea000003 	b	213c <l2001>

0000212c <l1997>:
    212c:	e2801073 	add	r1, r0, #115	; 0x73

00002130 <l1998>:
    2130:	406347a9 	rsbmi	r4, r3, r9, lsr #15

00002134 <l1999>:
    2134:	e3750023 	cmn	r5, #35	; 0x23

00002138 <l2000>:
    2138:	ea000000 	b	2140 <l2002>

0000213c <l2001>:
    213c:	eafffffb 	b	2130 <l1998>

00002140 <l2002>:
    2140:	b3b0e1ca 	movslt	lr, #-2147483598	; 0x80000032

00002144 <l2003>:
    2144:	405b2c58 	subsmi	r2, fp, r8, asr ip

00002148 <l2004>:
    2148:	21b0300e 	movscs	r3, lr

0000214c <l2005>:
    214c:	21b08509 	lslscs	r8, r9, #10

00002150 <l2006>:
    2150:	ea000003 	b	2164 <l2011>

00002154 <l2007>:
    2154:	e044681c 	sub	r6, r4, ip, lsl r8

00002158 <l2008>:
    2158:	e054500b 	subs	r5, r4, fp

0000215c <l2009>:
    215c:	91150415 	tstls	r5, r5, lsl r4

00002160 <l2010>:
    2160:	22c03826 	sbccs	r3, r0, #2490368	; 0x260000

00002164 <l2011>:
    2164:	e2ba1801 	adcs	r1, sl, #65536	; 0x10000

00002168 <l2012>:
    2168:	e0de9134 	sbcs	r9, lr, r4, lsr r1

0000216c <l2013>:
    216c:	016fcf18 	clzeq	ip, r8

00002170 <l2014>:
    2170:	d1870923 	orrle	r0, r7, r3, lsr #18

00002174 <l2015>:
    2174:	e16f6f11 	clz	r6, r1

00002178 <l2016>:
    2178:	90079c7e 	andls	r9, r7, lr, ror ip

0000217c <l2017>:
    217c:	6a000002 	bvs	218c <l2021>

00002180 <l2018>:
    2180:	e28010a7 	add	r1, r0, #167	; 0xa7

00002184 <l2019>:
    2184:	e048a3c3 	sub	sl, r8, r3, asr #7

00002188 <l2020>:
    2188:	ea000000 	b	2190 <l2022>

0000218c <l2021>:
    218c:	eafffffc 	b	2184 <l2019>

00002190 <l2022>:
    2190:	40ec0970 	rscmi	r0, ip, r0, ror r9

00002194 <l2023>:
    2194:	e0d781cc 	sbcs	r8, r7, ip, asr #3

00002198 <l2024>:
    2198:	62535094 	subsvs	r5, r3, #148	; 0x94

0000219c <l2025>:
    219c:	41180fc4 	tstmi	r8, r4, asr #31

000021a0 <l2026>:
    21a0:	238a2d3d 	orrcs	r2, sl, #3904	; 0xf40

000021a4 <l2027>:
    21a4:	c24c236e 	subgt	r2, ip, #-1207959551	; 0xb8000001

000021a8 <l2028>:
    21a8:	e019100a 	ands	r1, r9, sl

000021ac <l2029>:
    21ac:	e046e77b 	sub	lr, r6, fp, ror r7

000021b0 <l2030>:
    21b0:	02a12711 	adceq	r2, r1, #4456448	; 0x440000

000021b4 <l2031>:
    21b4:	e1130a4c 	tst	r3, ip, asr #20

000021b8 <l2032>:
    21b8:	93190d67 	tstls	r9, #6592	; 0x19c0

000021bc <l2033>:
    21bc:	5a000007 	bpl	21e0 <l2042>

000021c0 <l2034>:
    21c0:	e2801090 	add	r1, r0, #144	; 0x90

000021c4 <l2035>:
    21c4:	e0b83001 	adcs	r3, r8, r1

000021c8 <l2036>:
    21c8:	41f06064 	mvnsmi	r6, r4, rrx

000021cc <l2037>:
    21cc:	916f3f13 	clzls	r3, r3

000021d0 <l2038>:
    21d0:	e3c78823 	bic	r8, r7, #2293760	; 0x230000

000021d4 <l2039>:
    21d4:	91c67be4 	bicls	r7, r6, r4, ror #23

000021d8 <l2040>:
    21d8:	819f6007 	orrshi	r6, pc, r7

000021dc <l2041>:
    21dc:	ea000000 	b	21e4 <l2043>

000021e0 <l2042>:
    21e0:	eafffff7 	b	21c4 <l2035>

000021e4 <l2043>:
    21e4:	4a000007 	bmi	2208 <l2052>

000021e8 <l2044>:
    21e8:	e2801071 	add	r1, r0, #113	; 0x71

000021ec <l2045>:
    21ec:	63a0866a 	movvs	r8, #111149056	; 0x6a00000

000021f0 <l2046>:
    21f0:	61790e19 	cmnvs	r9, r9, lsl lr

000021f4 <l2047>:
    21f4:	60736003 	rsbsvs	r6, r3, r3

000021f8 <l2048>:
    21f8:	e16f6f19 	clz	r6, r9

000021fc <l2049>:
    21fc:	b0dcbcca 	sbcslt	fp, ip, sl, asr #25

00002200 <l2050>:
    2200:	e1530003 	cmp	r3, r3

00002204 <l2051>:
    2204:	ea000000 	b	220c <l2053>

00002208 <l2052>:
    2208:	eafffff7 	b	21ec <l2045>

0000220c <l2053>:
    220c:	c013100a 	andsgt	r1, r3, sl

00002210 <l2054>:
    2210:	eaffffff 	b	2214 <l2055>

00002214 <l2055>:
    2214:	01b0a000 	movseq	sl, r0

00002218 <l2056>:
    2218:	e5dd4014 	ldrb	r4, [sp, #20]

0000221c <l2057>:
    221c:	20539064 	subscs	r9, r3, r4, rrx

00002220 <l2058>:
    2220:	10829005 	addne	r9, r2, r5

00002224 <l2059>:
    2224:	e17c051b 	cmn	ip, fp, lsl r5

00002228 <l2060>:
    2228:	618f6da0 	orrvs	r6, pc, r0, lsr #27

0000222c <l2061>:
    222c:	52f6ebcd 	rscspl	lr, r6, #209920	; 0x33400

00002230 <l2062>:
    2230:	e1170505 	tst	r7, r5, lsl #10

00002234 <l2063>:
    2234:	e0267007 	eor	r7, r6, r7

00002238 <l2064>:
    2238:	e019300c 	ands	r3, r9, ip

0000223c <l2065>:
    223c:	5a000007 	bpl	2260 <l2074>

00002240 <l2066>:
    2240:	e28010a0 	add	r1, r0, #160	; 0xa0

00002244 <l2067>:
    2244:	e2a1bcf2 	adc	fp, r1, #61952	; 0xf200

00002248 <l2068>:
    2248:	407f000e 	rsbsmi	r0, pc, lr

0000224c <l2069>:
    224c:	103f1006 	eorsne	r1, pc, r6

00002250 <l2070>:
    2250:	e16fcf14 	clz	ip, r4

00002254 <l2071>:
    2254:	a0cee411 	sbcge	lr, lr, r1, lsl r4

00002258 <l2072>:
    2258:	707ba752 	rsbsvc	sl, fp, r2, asr r7

0000225c <l2073>:
    225c:	ea000000 	b	2264 <l2075>

00002260 <l2074>:
    2260:	eafffff7 	b	2244 <l2067>

00002264 <l2075>:
    2264:	e1500a2b 	cmp	r0, fp, lsr #20

00002268 <l2076>:
    2268:	80a17005 	adchi	r7, r1, r5

0000226c <l2077>:
    226c:	82de5d1b 	sbcshi	r5, lr, #1728	; 0x6c0

00002270 <l2078>:
    2270:	13180662 	tstne	r8, #102760448	; 0x6200000

00002274 <l2079>:
    2274:	022885c7 	eoreq	r8, r8, #834666496	; 0x31c00000

00002278 <l2080>:
    2278:	43700d3d 	cmnmi	r0, #3904	; 0xf40

0000227c <l2081>:
    227c:	e17b0005 	cmn	fp, r5

00002280 <l2082>:
    2280:	316faf19 	clzcc	sl, r9

00002284 <l2083>:
    2284:	ea000007 	b	22a8 <l2092>

00002288 <l2084>:
    2288:	e28010cc 	add	r1, r0, #204	; 0xcc

0000228c <l2085>:
    228c:	a11b0109 	tstge	fp, r9, lsl #2

00002290 <l2086>:
    2290:	71790006 	cmnvc	r9, r6

00002294 <l2087>:
    2294:	c3da5763 	bicsgt	r5, sl, #25952256	; 0x18c0000

00002298 <l2088>:
    2298:	01c8c005 	biceq	ip, r8, r5

0000229c <l2089>:
    229c:	e16faf10 	clz	sl, r0

000022a0 <l2090>:
    22a0:	516f3f10 	clzpl	r3, r0

000022a4 <l2091>:
    22a4:	ea000000 	b	22ac <l2093>

000022a8 <l2092>:
    22a8:	eafffff7 	b	228c <l2085>

000022ac <l2093>:
    22ac:	41828580 	orrmi	r8, r2, r0, lsl #11

000022b0 <l2094>:
    22b0:	13110677 	tstne	r1, #124780544	; 0x7700000

000022b4 <l2095>:
    22b4:	233a0dc2 	teqcs	sl, #12416	; 0x3080

000022b8 <l2096>:
    22b8:	e3a0801f 	mov	r8, #31

000022bc <l2097>:
    22bc:	e74d5008 	strb	r5, [sp, -r8]

000022c0 <l2098>:
    22c0:	339b0ab3 	orrscc	r0, fp, #733184	; 0xb3000

000022c4 <l2099>:
    22c4:	20a99003 	adccs	r9, r9, r3

000022c8 <l2100>:
    22c8:	e18c62a7 	orr	r6, ip, r7, lsr #5

000022cc <l2101>:
    22cc:	9a000002 	bls	22dc <l2105>

000022d0 <l2102>:
    22d0:	e16f3f12 	clz	r3, r2

000022d4 <l2103>:
    22d4:	e040100b 	sub	r1, r0, fp

000022d8 <l2104>:
    22d8:	93972084 	orrsls	r2, r7, #132	; 0x84

000022dc <l2105>:
    22dc:	41c3c312 	bicmi	ip, r3, r2, lsl r3

000022e0 <l2106>:
    22e0:	e1e0a069 	mvn	sl, r9, rrx

000022e4 <l2107>:
    22e4:	e48d0000 	str	r0, [sp], #0

000022e8 <l2108>:
    22e8:	a3c4a279 	bicge	sl, r4, #-1879048185	; 0x90000007

000022ec <l2109>:
    22ec:	51550009 	cmppl	r5, r9

000022f0 <l2110>:
    22f0:	802fe007 	eorhi	lr, pc, r7

000022f4 <l2111>:
    22f4:	7132006e 	teqvc	r2, lr, rrx

000022f8 <l2112>:
    22f8:	ea000002 	b	2308 <l2116>

000022fc <l2113>:
    22fc:	e2801024 	add	r1, r0, #36	; 0x24

00002300 <l2114>:
    2300:	e16fcf10 	clz	ip, r0

00002304 <l2115>:
    2304:	ea000000 	b	230c <l2117>

00002308 <l2116>:
    2308:	eafffffc 	b	2300 <l2114>

0000230c <l2117>:
    230c:	c1d65c3a 	bicsgt	r5, r6, sl, lsr ip

00002310 <l2118>:
    2310:	600e9259 	andvs	r9, lr, r9, asr r2

00002314 <l2119>:
    2314:	b21c8307 	andslt	r8, ip, #469762048	; 0x1c000000

00002318 <l2120>:
    2318:	e1770051 	cmn	r7, r1, asr r0

0000231c <l2121>:
    231c:	ca000006 	bgt	233c <l2129>

00002320 <l2122>:
    2320:	e28010da 	add	r1, r0, #218	; 0xda

00002324 <l2123>:
    2324:	e1cbc00f 	bic	ip, fp, pc

00002328 <l2124>:
    2328:	e15b0002 	cmp	fp, r2

0000232c <l2125>:
    232c:	e3813711 	orr	r3, r1, #4456448	; 0x440000

00002330 <l2126>:
    2330:	7199ce63 	orrsvc	ip, r9, r3, ror #28

00002334 <l2127>:
    2334:	80f8500b 	rscshi	r5, r8, fp

00002338 <l2128>:
    2338:	ea000000 	b	2340 <l2130>

0000233c <l2129>:
    233c:	eafffff8 	b	2324 <l2123>

00002340 <l2130>:
    2340:	90590006 	subsls	r0, r9, r6

00002344 <l2131>:
    2344:	02299be1 	eoreq	r9, r9, #230400	; 0x38400

00002348 <l2132>:
    2348:	e2078dd3 	and	r8, r7, #13504	; 0x34c0

0000234c <l2133>:
    234c:	315b0007 	cmpcc	fp, r7

00002350 <l2134>:
    2350:	c1f0200a 	mvnsgt	r2, sl

00002354 <l2135>:
    2354:	6a000003 	bvs	2368 <l2140>

00002358 <l2136>:
    2358:	e2801048 	add	r1, r0, #72	; 0x48

0000235c <l2137>:
    235c:	e0719069 	rsbs	r9, r1, r9, rrx

00002360 <l2138>:
    2360:	e13b09a0 	teq	fp, r0, lsr #19

00002364 <l2139>:
    2364:	ea000000 	b	236c <l2141>

00002368 <l2140>:
    2368:	eafffffb 	b	235c <l2137>

0000236c <l2141>:
    236c:	d092a00c 	addsle	sl, r2, ip

00002370 <l2142>:
    2370:	e081233b 	add	r2, r1, fp, lsr r3

00002374 <l2143>:
    2374:	e3a0c01f 	mov	ip, #31

00002378 <l2144>:
    2378:	e7dd400c 	ldrb	r4, [sp, ip]

0000237c <l2145>:
    237c:	33140ab2 	tstcc	r4, #729088	; 0xb2000

00002380 <l2146>:
    2380:	e07ab622 	rsbs	fp, sl, r2, lsr #12

00002384 <l2147>:
    2384:	6a000002 	bvs	2394 <l2151>

00002388 <l2148>:
    2388:	61750007 	cmnvs	r5, r7

0000238c <l2149>:
    238c:	e1a00074 	ror	r0, r4, r0

00002390 <l2150>:
    2390:	d029113e 	eorle	r1, r9, lr, lsr r1

00002394 <l2151>:
    2394:	4262e181 	rsbmi	lr, r2, #1073741856	; 0x40000020

00002398 <l2152>:
    2398:	11cf200a 	bicne	r2, pc, sl

0000239c <l2153>:
    239c:	b0e2700e 	rsclt	r7, r2, lr

000023a0 <l2154>:
    23a0:	c2975c21 	addsgt	r5, r7, #8448	; 0x2100

000023a4 <l2155>:
    23a4:	322c87ad 	eorcc	r8, ip, #45350912	; 0x2b40000

000023a8 <l2156>:
    23a8:	9007e003 	andls	lr, r7, r3

000023ac <l2157>:
    23ac:	6a000005 	bvs	23c8 <l2164>

000023b0 <l2158>:
    23b0:	d03a0000 	eorsle	r0, sl, r0

000023b4 <l2159>:
    23b4:	e3530eff 	cmp	r3, #4080	; 0xff0

000023b8 <l2160>:
    23b8:	81190336 	tsthi	r9, r6, lsr r3

000023bc <l2161>:
    23bc:	e11e000c 	tst	lr, ip

000023c0 <l2162>:
    23c0:	e3150ead 	tst	r5, #2768	; 0xad0

000023c4 <l2163>:
    23c4:	01a01007 	moveq	r1, r7

000023c8 <l2164>:
    23c8:	006ca85e 	rsbeq	sl, ip, lr, asr r8

000023cc <l2165>:
    23cc:	233f0bf3 	teqcs	pc, #248832	; 0x3cc00

000023d0 <l2166>:
    23d0:	e0385062 	eors	r5, r8, r2, rrx

000023d4 <l2167>:
    23d4:	ea000003 	b	23e8 <l2172>

000023d8 <l2168>:
    23d8:	b1e000cc 	mvnlt	r0, ip, asr #1

000023dc <l2169>:
    23dc:	41c4c877 	bicmi	ip, r4, r7, ror r8

000023e0 <l2170>:
    23e0:	e0bba006 	adcs	sl, fp, r6

000023e4 <l2171>:
    23e4:	e2ba581d 	adcs	r5, sl, #1900544	; 0x1d0000

000023e8 <l2172>:
    23e8:	60bbeb5c 	adcsvs	lr, fp, ip, asr fp

000023ec <l2173>:
    23ec:	80a31675 	adchi	r1, r3, r5, ror r6

000023f0 <l2174>:
    23f0:	41e003c1 	mvnmi	r0, r1, asr #7

000023f4 <l2175>:
    23f4:	e2441281 	sub	r1, r4, #268435464	; 0x10000008

000023f8 <l2176>:
    23f8:	00306b5b 	eorseq	r6, r0, fp, asr fp

000023fc <l2177>:
    23fc:	e3a03024 	mov	r3, #36	; 0x24

00002400 <l2178>:
    2400:	e7bde003 	ldr	lr, [sp, r3]!

00002404 <l2179>:
    2404:	7179006f 	cmnvc	r9, pc, rrx

00002408 <l2180>:
    2408:	90085558 	andls	r5, r8, r8, asr r5

0000240c <l2181>:
    240c:	13a0e821 	movne	lr, #2162688	; 0x210000

00002410 <l2182>:
    2410:	e3a00016 	mov	r0, #22

00002414 <l2183>:
    2414:	575d6000 	ldrbpl	r6, [sp, -r0]

00002418 <l2184>:
    2418:	d11f0d4e 	tstle	pc, lr, asr #26

0000241c <l2185>:
    241c:	e19c8002 	orrs	r8, ip, r2

00002420 <l2186>:
    2420:	b0fbb779 	rscslt	fp, fp, r9, ror r7

00002424 <l2187>:
    2424:	b1d9b15a 	bicslt	fp, r9, sl, asr r1

00002428 <l2188>:
    2428:	c04e200e 	subgt	r2, lr, lr

0000242c <l2189>:
    242c:	41720009 	cmnmi	r2, r9

00002430 <l2190>:
    2430:	e172000e 	cmn	r2, lr

00002434 <l2191>:
    2434:	e1d91433 	bics	r1, r9, r3, lsr r4

00002438 <l2192>:
    2438:	8a000008 	bhi	2460 <l2202>

0000243c <l2193>:
    243c:	e179000c 	cmn	r9, ip

00002440 <l2194>:
    2440:	111c0c33 	tstne	ip, r3, lsr ip

00002444 <l2195>:
    2444:	e17b0005 	cmn	fp, r5

00002448 <l2196>:
    2448:	b059b18b 	subslt	fp, r9, fp, lsl #3

0000244c <l2197>:
    244c:	e3e016fe 	mvn	r1, #266338304	; 0xfe00000

00002450 <l2198>:
    2450:	e3f03515 	mvns	r3, #88080384	; 0x5400000

00002454 <l2199>:
    2454:	439f3bfa 	orrsmi	r3, pc, #256000	; 0x3e800

00002458 <l2200>:
    2458:	42b23336 	adcsmi	r3, r2, #-671088640	; 0xd8000000

0000245c <l2201>:
    245c:	a0465ca1 	subge	r5, r6, r1, lsr #25

00002460 <l2202>:
    2460:	00be5000 	adcseq	r5, lr, r0

00002464 <l2203>:
    2464:	e1928006 	orrs	r8, r2, r6

00002468 <l2204>:
    2468:	90021931 	andls	r1, r2, r1, lsr r9

0000246c <l2205>:
    246c:	c3984b42 	orrsgt	r4, r8, #67584	; 0x10800

00002470 <l2206>:
    2470:	e0944fcc 	adds	r4, r4, ip, asr #31

00002474 <l2207>:
    2474:	d059bca8 	subsle	fp, r9, r8, lsr #25

00002478 <l2208>:
    2478:	e0540d2c 	subs	r0, r4, ip, lsr #26

0000247c <l2209>:
    247c:	ea000006 	b	249c <l2217>

00002480 <l2210>:
    2480:	e2801035 	add	r1, r0, #53	; 0x35

00002484 <l2211>:
    2484:	22966621 	addscs	r6, r6, #34603008	; 0x2100000

00002488 <l2212>:
    2488:	e0e76061 	rsc	r6, r7, r1, rrx

0000248c <l2213>:
    248c:	a275eb92 	rsbsge	lr, r5, #149504	; 0x24800

00002490 <l2214>:
    2490:	e174086c 	cmn	r4, ip, ror #16

00002494 <l2215>:
    2494:	516f5f19 	clzpl	r5, r9

00002498 <l2216>:
    2498:	ea000000 	b	24a0 <l2218>

0000249c <l2217>:
    249c:	eafffff8 	b	2484 <l2211>

000024a0 <l2218>:
    24a0:	e3a03020 	mov	r3, #32

000024a4 <l2219>:
    24a4:	e73d7003 	ldr	r7, [sp, -r3]!

000024a8 <l2220>:
    24a8:	aa000005 	bge	24c4 <l2227>

000024ac <l2221>:
    24ac:	e020285a 	eor	r2, r0, sl, asr r8

000024b0 <l2222>:
    24b0:	61520e13 	cmpvs	r2, r3, lsl lr

000024b4 <l2223>:
    24b4:	10574315 	subsne	r4, r7, r5, lsl r3

000024b8 <l2224>:
    24b8:	219a316a 	orrscs	r3, sl, sl, ror #2

000024bc <l2225>:
    24bc:	4082506f 	addmi	r5, r2, pc, rrx

000024c0 <l2226>:
    24c0:	2179000f 	cmncs	r9, pc

000024c4 <l2227>:
    24c4:	616f1f1b 	clzvs	r1, fp

000024c8 <l2228>:
    24c8:	e1560060 	cmp	r6, r0, rrx

000024cc <l2229>:
    24cc:	ea000006 	b	24ec <l2237>

000024d0 <l2230>:
    24d0:	e2801038 	add	r1, r0, #56	; 0x38

000024d4 <l2231>:
    24d4:	a1e0563c 	mvnge	r5, ip, lsr r6

000024d8 <l2232>:
    24d8:	e1380066 	teq	r8, r6, rrx

000024dc <l2233>:
    24dc:	30099754 	andcc	r9, r9, r4, asr r7

000024e0 <l2234>:
    24e0:	c3f060c0 	mvnsgt	r6, #192	; 0xc0

000024e4 <l2235>:
    24e4:	016f3f16 	clzeq	r3, r6

000024e8 <l2236>:
    24e8:	ea000000 	b	24f0 <l2238>

000024ec <l2237>:
    24ec:	eafffff8 	b	24d4 <l2231>

000024f0 <l2238>:
    24f0:	e016800c 	ands	r8, r6, ip

000024f4 <l2239>:
    24f4:	e040471c 	sub	r4, r0, ip, lsl r7

000024f8 <l2240>:
    24f8:	a09c2005 	addsge	r2, ip, r5

000024fc <l2241>:
    24fc:	a040e006 	subge	lr, r0, r6

00002500 <l2242>:
    2500:	2134047e 	teqcs	r4, lr, ror r4

00002504 <l2243>:
    2504:	e0b0a068 	adcs	sl, r0, r8, rrx

00002508 <l2244>:
    2508:	e04bb723 	sub	fp, fp, r3, lsr #14

0000250c <l2245>:
    250c:	22764906 	rsbscs	r4, r6, #98304	; 0x18000

00002510 <l2246>:
    2510:	e254349b 	subs	r3, r4, #-1694498816	; 0x9b000000

00002514 <l2247>:
    2514:	ea000002 	b	2524 <l2251>

00002518 <l2248>:
    2518:	e280107e 	add	r1, r0, #126	; 0x7e

0000251c <l2249>:
    251c:	21d96006 	bicscs	r6, r9, r6

00002520 <l2250>:
    2520:	ea000000 	b	2528 <l2252>

00002524 <l2251>:
    2524:	eafffffc 	b	251c <l2249>

00002528 <l2252>:
    2528:	00471065 	subeq	r1, r7, r5, rrx

0000252c <l2253>:
    252c:	e41d6010 	ldr	r6, [sp], #-16

00002530 <l2254>:
    2530:	a0267711 	eorge	r7, r6, r1, lsl r7

00002534 <l2255>:
    2534:	4a000002 	bmi	2544 <l2259>

00002538 <l2256>:
    2538:	e28010c5 	add	r1, r0, #197	; 0xc5

0000253c <l2257>:
    253c:	e1550003 	cmp	r5, r3

00002540 <l2258>:
    2540:	ea000000 	b	2548 <l2260>

00002544 <l2259>:
    2544:	eafffffc 	b	253c <l2257>

00002548 <l2260>:
    2548:	e0181004 	ands	r1, r8, r4

0000254c <l2261>:
    254c:	51984713 	orrspl	r4, r8, r3, lsl r7

00002550 <l2262>:
    2550:	e1819061 	orr	r9, r1, r1, rrx

00002554 <l2263>:
    2554:	a1f06d2b 	mvnsge	r6, fp, lsr #26

00002558 <l2264>:
    2558:	316faf1a 	clzcc	sl, sl

0000255c <l2265>:
    255c:	059d800c 	ldreq	r8, [sp, #12]

00002560 <l2266>:
    2560:	e0563331 	subs	r3, r6, r1, lsr r3

00002564 <l2267>:
    2564:	40ab2113 	adcmi	r2, fp, r3, lsl r1

00002568 <l2268>:
    2568:	81180007 	tsthi	r8, r7

0000256c <l2269>:
    256c:	ea000007 	b	2590 <l2278>

00002570 <l2270>:
    2570:	e29c255f 	adds	r2, ip, #398458880	; 0x17c00000

00002574 <l2271>:
    2574:	e157035e 	cmp	r7, lr, asr r3

00002578 <l2272>:
    2578:	61380e3b 	teqvs	r8, fp, lsr lr

0000257c <l2273>:
    257c:	41d88972 	bicsmi	r8, r8, r2, ror r9

00002580 <l2274>:
    2580:	20e272ca 	rsccs	r7, r2, sl, asr #5

00002584 <l2275>:
    2584:	a1e0b831 	mvnge	fp, r1, lsr r8

00002588 <l2276>:
    2588:	e3d29089 	bics	r9, r2, #137	; 0x89

0000258c <l2277>:
    258c:	e02e4004 	eor	r4, lr, r4

00002590 <l2278>:
    2590:	30514ac0 	subscc	r4, r1, r0, asr #21

00002594 <l2279>:
    2594:	e35e087d 	cmp	lr, #8192000	; 0x7d0000

00002598 <l2280>:
    2598:	01f00746 	mvnseq	r0, r6, asr #14

0000259c <l2281>:
    259c:	ea000003 	b	25b0 <l2286>

000025a0 <l2282>:
    25a0:	e2801003 	add	r1, r0, #3

000025a4 <l2283>:
    25a4:	10324949 	eorsne	r4, r2, r9, asr #18

000025a8 <l2284>:
    25a8:	50f78cca 	rscspl	r8, r7, sl, asr #25

000025ac <l2285>:
    25ac:	ea000000 	b	25b4 <l2287>

000025b0 <l2286>:
    25b0:	eafffffb 	b	25a4 <l2283>

000025b4 <l2287>:
    25b4:	e1360de2 	teq	r6, r2, ror #27

000025b8 <l2288>:
    25b8:	e314048d 	tst	r4, #-1929379840	; 0x8d000000

000025bc <l2289>:
    25bc:	e1f09b12 	mvns	r9, r2, lsl fp

000025c0 <l2290>:
    25c0:	d04a1659 	suble	r1, sl, r9, asr r6

000025c4 <l2291>:
    25c4:	e1e06c70 	mvn	r6, r0, ror ip

000025c8 <l2292>:
    25c8:	ea000001 	b	25d4 <l2295>

000025cc <l2293>:
    25cc:	b054e000 	subslt	lr, r4, r0

000025d0 <l2294>:
    25d0:	11976a5b 	orrsne	r6, r7, fp, asr sl

000025d4 <l2295>:
    25d4:	e009e003 	and	lr, r9, r3

000025d8 <l2296>:
    25d8:	e029800f 	eor	r8, r9, pc

000025dc <l2297>:
    25dc:	701a7fef 	andsvc	r7, sl, pc, ror #31

000025e0 <l2298>:
    25e0:	70a76408 	adcvc	r6, r7, r8, lsl #8

000025e4 <l2299>:
    25e4:	0a000007 	beq	2608 <l2308>

000025e8 <l2300>:
    25e8:	e2801066 	add	r1, r0, #102	; 0x66

000025ec <l2301>:
    25ec:	e0147757 	ands	r7, r4, r7, asr r7

000025f0 <l2302>:
    25f0:	8245582f 	subhi	r5, r5, #3080192	; 0x2f0000

000025f4 <l2303>:
    25f4:	e113000f 	tst	r3, pc

000025f8 <l2304>:
    25f8:	30750966 	rsbscc	r0, r5, r6, ror #18

000025fc <l2305>:
    25fc:	e1c92004 	bic	r2, r9, r4

00002600 <l2306>:
    2600:	a0f89337 	rscsge	r9, r8, r7, lsr r3

00002604 <l2307>:
    2604:	ea000000 	b	260c <l2309>

00002608 <l2308>:
    2608:	eafffff7 	b	25ec <l2301>

0000260c <l2309>:
    260c:	a16f8f11 	clzge	r8, r1

00002610 <l2310>:
    2610:	650d100c 	strvs	r1, [sp, #-12]

00002614 <l2311>:
    2614:	704bce77 	subvc	ip, fp, r7, ror lr

00002618 <l2312>:
    2618:	31852000 	orrcc	r2, r5, r0

0000261c <l2313>:
    261c:	e3a0b025 	mov	fp, #37	; 0x25

00002620 <l2314>:
    2620:	e7ddc00b 	ldrb	ip, [sp, fp]

00002624 <l2315>:
    2624:	c0220001 	eorgt	r0, r2, r1

00002628 <l2316>:
    2628:	80371003 	eorshi	r1, r7, r3

0000262c <l2317>:
    262c:	22177d61 	andscs	r7, r7, #6208	; 0x1840

00002630 <l2318>:
    2630:	401e2923 	andsmi	r2, lr, r3, lsr #18

00002634 <l2319>:
    2634:	5079ce4e 	rsbspl	ip, r9, lr, asr #28

00002638 <l2320>:
    2638:	d2648bda 	rsble	r8, r4, #223232	; 0x36800

0000263c <l2321>:
    263c:	10057229 	andne	r7, r5, r9, lsr #4

00002640 <l2322>:
    2640:	e0e17e00 	rsc	r7, r1, r0, lsl #28

00002644 <l2323>:
    2644:	e3a04018 	mov	r4, #24

00002648 <l2324>:
    2648:	e61d2004 	ldr	r2, [sp], -r4

0000264c <l2325>:
    264c:	e0a7cd8a 	adc	ip, r7, sl, lsl #27

00002650 <l2326>:
    2650:	91300005 	teqls	r0, r5

00002654 <l2327>:
    2654:	e0bba007 	adcs	sl, fp, r7

00002658 <l2328>:
    2658:	e5cd5036 	strb	r5, [sp, #54]	; 0x36

0000265c <l2329>:
    265c:	1a000002 	bne	266c <l2333>

00002660 <l2330>:
    2660:	e053a380 	subs	sl, r3, r0, lsl #7

00002664 <l2331>:
    2664:	b002c006 	andlt	ip, r2, r6

00002668 <l2332>:
    2668:	20110ac2 	andscs	r0, r1, r2, asr #21

0000266c <l2333>:
    266c:	92c7bad9 	sbcls	fp, r7, #888832	; 0xd9000

00002670 <l2334>:
    2670:	73710543 	cmnvc	r1, #281018368	; 0x10c00000

00002674 <l2335>:
    2674:	e0f1a062 	rscs	sl, r1, r2, rrx

00002678 <l2336>:
    2678:	e135000e 	teq	r5, lr

0000267c <l2337>:
    267c:	202bac1e 	eorcs	sl, fp, lr, lsl ip

00002680 <l2338>:
    2680:	a15f0a49 	cmpge	pc, r9, asr #20

00002684 <l2339>:
    2684:	725314a1 	subsvc	r1, r3, #-1593835520	; 0xa1000000

00002688 <l2340>:
    2688:	1a000005 	bne	26a4 <l2347>

0000268c <l2341>:
    268c:	e33b01be 	teq	fp, #-2147483601	; 0x8000002f

00002690 <l2342>:
    2690:	e0f67060 	rscs	r7, r6, r0, rrx

00002694 <l2343>:
    2694:	218e47ee 	orrcs	r4, lr, lr, ror #15

00002698 <l2344>:
    2698:	90e0b915 	rscls	fp, r0, r5, lsl r9

0000269c <l2345>:
    269c:	e16f6f19 	clz	r6, r9

000026a0 <l2346>:
    26a0:	a0e37309 	rscge	r7, r3, r9, lsl #6

000026a4 <l2347>:
    26a4:	e1e0785a 	mvn	r7, sl, asr r8

000026a8 <l2348>:
    26a8:	e0ccb00f 	sbc	fp, ip, pc

000026ac <l2349>:
    26ac:	e18a4008 	orr	r4, sl, r8

000026b0 <l2350>:
    26b0:	ea000003 	b	26c4 <l2355>

000026b4 <l2351>:
    26b4:	e2801052 	add	r1, r0, #82	; 0x52

000026b8 <l2352>:
    26b8:	e005400a 	and	r4, r5, sl

000026bc <l2353>:
    26bc:	e11a000c 	tst	sl, ip

000026c0 <l2354>:
    26c0:	ea000000 	b	26c8 <l2356>

000026c4 <l2355>:
    26c4:	eafffffb 	b	26b8 <l2352>

000026c8 <l2356>:
    26c8:	e2f25d7b 	rscs	r5, r2, #7872	; 0x1ec0

000026cc <l2357>:
    26cc:	e1f09056 	mvns	r9, r6, asr r0

000026d0 <l2358>:
    26d0:	816f9f1a 	clzhi	r9, sl

000026d4 <l2359>:
    26d4:	b2abb90e 	adclt	fp, fp, #229376	; 0x38000

000026d8 <l2360>:
    26d8:	e0cbb13b 	sbc	fp, fp, fp, lsr r1

000026dc <l2361>:
    26dc:	70818005 	addvc	r8, r1, r5

000026e0 <l2362>:
    26e0:	21a0e057 	asrcs	lr, r7, r0

000026e4 <l2363>:
    26e4:	21f00a15 	mvnscs	r0, r5, lsl sl

000026e8 <l2364>:
    26e8:	e042e002 	sub	lr, r2, r2

000026ec <l2365>:
    26ec:	e3b08353 	movs	r8, #1275068417	; 0x4c000001

000026f0 <l2366>:
    26f0:	20605e76 	rsbcs	r5, r0, r6, ror lr

000026f4 <l2367>:
    26f4:	da000000 	ble	26fc <l2369>

000026f8 <l2368>:
    26f8:	b16f4f19 	clzlt	r4, r9

000026fc <l2369>:
    26fc:	e2e12094 	rsc	r2, r1, #148	; 0x94

00002700 <l2370>:
    2700:	e0315063 	eors	r5, r1, r3, rrx

00002704 <l2371>:
    2704:	6a000006 	bvs	2724 <l2379>

00002708 <l2372>:
    2708:	8183800f 	orrhi	r8, r3, pc

0000270c <l2373>:
    270c:	e178076a 	cmn	r8, sl, ror #14

00002710 <l2374>:
    2710:	e1f0806a 	mvns	r8, sl, rrx

00002714 <l2375>:
    2714:	e0239da1 	eor	r9, r3, r1, lsr #27

00002718 <l2376>:
    2718:	e22972a3 	eor	r7, r9, #805306378	; 0x3000000a

0000271c <l2377>:
    271c:	e16f6f1b 	clz	r6, fp

00002720 <l2378>:
    2720:	e1730009 	cmn	r3, r9

00002724 <l2379>:
    2724:	e15b021a 	cmp	fp, sl, lsl r2

00002728 <l2380>:
    2728:	5195b159 	orrspl	fp, r5, r9, asr r1

0000272c <l2381>:
    272c:	511a0954 	tstpl	sl, r4, asr r9

00002730 <l2382>:
    2730:	e0fc406c 	rscs	r4, ip, ip, rrx

00002734 <l2383>:
    2734:	e1e09d89 	mvn	r9, r9, lsl #27

00002738 <l2384>:
    2738:	d16f0f18 	clzle	r0, r8

0000273c <l2385>:
    273c:	a0e4700f 	rscge	r7, r4, pc

00002740 <l2386>:
    2740:	ea000006 	b	2760 <l2394>

00002744 <l2387>:
    2744:	e280100b 	add	r1, r0, #11

00002748 <l2388>:
    2748:	e1120ecb 	tst	r2, fp, asr #29

0000274c <l2389>:
    274c:	e074e006 	rsbs	lr, r4, r6

00002750 <l2390>:
    2750:	30a3b813 	adccc	fp, r3, r3, lsl r8

00002754 <l2391>:
    2754:	b3150337 	tstlt	r5, #-603979776	; 0xdc000000

00002758 <l2392>:
    2758:	b0718645 	rsbslt	r8, r1, r5, asr #12

0000275c <l2393>:
    275c:	ea000000 	b	2764 <l2395>

00002760 <l2394>:
    2760:	eafffff8 	b	2748 <l2388>

00002764 <l2395>:
    2764:	039fec36 	orrseq	lr, pc, #13824	; 0x3600

00002768 <l2396>:
    2768:	e1b04d2a 	lsrs	r4, sl, #26

0000276c <l2397>:
    276c:	d02b8c6e 	eorle	r8, fp, lr, ror #24

00002770 <l2398>:
    2770:	e0e6c00a 	rsc	ip, r6, sl

00002774 <l2399>:
    2774:	e15f0005 	cmp	pc, r5

00002778 <l2400>:
    2778:	e0478005 	sub	r8, r7, r5

0000277c <l2401>:
    277c:	2a000005 	bcs	2798 <l2408>

00002780 <l2402>:
    2780:	e2779616 	rsbs	r9, r7, #23068672	; 0x1600000

00002784 <l2403>:
    2784:	e286a672 	add	sl, r6, #119537664	; 0x7200000

00002788 <l2404>:
    2788:	e0ea8161 	rsc	r8, sl, r1, ror #2

0000278c <l2405>:
    278c:	23360632 	teqcs	r6, #52428800	; 0x3200000

00002790 <l2406>:
    2790:	63750af2 	cmnvs	r5, #991232	; 0xf2000

00002794 <l2407>:
    2794:	e003c0a6 	and	ip, r3, r6, lsr #1

00002798 <l2408>:
    2798:	a132053a 	teqge	r2, sl, lsr r5

0000279c <l2409>:
    279c:	7036b000 	eorsvc	fp, r6, r0

000027a0 <l2410>:
    27a0:	9157006b 	cmpls	r7, fp, rrx

000027a4 <l2411>:
    27a4:	c1770009 	cmngt	r7, r9

000027a8 <l2412>:
    27a8:	51f053ea 	mvnspl	r5, sl, ror #7

000027ac <l2413>:
    27ac:	a1360007 	teqge	r6, r7

000027b0 <l2414>:
    27b0:	e0fc8006 	rscs	r8, ip, r6

000027b4 <l2415>:
    27b4:	21947b30 	orrscs	r7, r4, r0, lsr fp

000027b8 <l2416>:
    27b8:	e06f2060 	rsb	r2, pc, r0, rrx

000027bc <l2417>:
    27bc:	e1e09004 	mvn	r9, r4

000027c0 <l2418>:
    27c0:	e35c0597 	cmp	ip, #633339904	; 0x25c00000

000027c4 <l2419>:
    27c4:	b11e000b 	tstlt	lr, fp

000027c8 <l2420>:
    27c8:	e1760789 	cmn	r6, r9, lsl #15

000027cc <l2421>:
    27cc:	5a000001 	bpl	27d8 <l2424>

000027d0 <l2422>:
    27d0:	904b9957 	subls	r9, fp, r7, asr r9

000027d4 <l2423>:
    27d4:	c25cb107 	subsgt	fp, ip, #-1073741823	; 0xc0000001

000027d8 <l2424>:
    27d8:	b3120729 	tstlt	r2, #10747904	; 0xa40000

000027dc <l2425>:
    27dc:	c1e05062 	mvngt	r5, r2, rrx

000027e0 <l2426>:
    27e0:	80b61061 	adcshi	r1, r6, r1, rrx

000027e4 <l2427>:
    27e4:	e0b9a003 	adcs	sl, r9, r3

000027e8 <l2428>:
    27e8:	05dd8010 	ldrbeq	r8, [sp, #16]

000027ec <l2429>:
    27ec:	e0bfbbef 	adcs	fp, pc, pc, ror #23

000027f0 <l2430>:
    27f0:	ea000002 	b	2800 <l2434>

000027f4 <l2431>:
    27f4:	e28010ad 	add	r1, r0, #173	; 0xad

000027f8 <l2432>:
    27f8:	e11300c3 	tst	r3, r3, asr #1

000027fc <l2433>:
    27fc:	ea000000 	b	2804 <l2435>

00002800 <l2434>:
    2800:	eafffffc 	b	27f8 <l2432>

00002804 <l2435>:
    2804:	31130002 	tstcc	r3, r2

00002808 <l2436>:
    2808:	e0800006 	add	r0, r0, r6

0000280c <l2437>:
    280c:	605bb4c2 	subsvs	fp, fp, r2, asr #9

00002810 <l2438>:
    2810:	15cdc02e 	strbne	ip, [sp, #46]	; 0x2e

00002814 <l2439>:
    2814:	a0146008 	andsge	r6, r4, r8

00002818 <l2440>:
    2818:	d28530c0 	addle	r3, r5, #192	; 0xc0

0000281c <l2441>:
    281c:	da000003 	ble	2830 <l2446>

00002820 <l2442>:
    2820:	c011900a 	andsgt	r9, r1, sl

00002824 <l2443>:
    2824:	e0cc4271 	sbc	r4, ip, r1, ror r2

00002828 <l2444>:
    2828:	e1db6e5c 	bics	r6, fp, ip, asr lr

0000282c <l2445>:
    282c:	209cc00a 	addscs	ip, ip, sl

00002830 <l2446>:
    2830:	7274b542 	rsbsvc	fp, r4, #276824064	; 0x10800000

00002834 <l2447>:
    2834:	ea000002 	b	2844 <l2451>

00002838 <l2448>:
    2838:	e184c007 	orr	ip, r4, r7

0000283c <l2449>:
    283c:	9055b007 	subsls	fp, r5, r7

00002840 <l2450>:
    2840:	a16f9f15 	clzge	r9, r5

00002844 <l2451>:
    2844:	2110006a 	tstcs	r0, sl, rrx

00002848 <l2452>:
    2848:	31790818 	cmncc	r9, r8, lsl r8

0000284c <l2453>:
    284c:	715b0063 	cmpvc	fp, r3, rrx

00002850 <l2454>:
    2850:	c2116062 	andsgt	r6, r1, #98	; 0x62

00002854 <l2455>:
    2854:	e01f70e6 	ands	r7, pc, r6, ror #1

00002858 <l2456>:
    2858:	3a000005 	bcc	2874 <l2463>

0000285c <l2457>:
    285c:	e1f0900a 	mvns	r9, sl

00002860 <l2458>:
    2860:	a133006c 	teqge	r3, ip, rrx

00002864 <l2459>:
    2864:	02535ab6 	subseq	r5, r3, #745472	; 0xb6000

00002868 <l2460>:
    2868:	e3db8921 	bics	r8, fp, #540672	; 0x84000

0000286c <l2461>:
    286c:	30eb3005 	rsccc	r3, fp, r5

00002870 <l2462>:
    2870:	51580356 	cmppl	r8, r6, asr r3

00002874 <l2463>:
    2874:	50ab3860 	adcpl	r3, fp, r0, ror #16

00002878 <l2464>:
    2878:	ea000007 	b	289c <l2473>

0000287c <l2465>:
    287c:	0115000c 	tsteq	r5, ip

00002880 <l2466>:
    2880:	e16f7f1c 	clz	r7, ip

00002884 <l2467>:
    2884:	40610067 	rsbmi	r0, r1, r7, rrx

00002888 <l2468>:
    2888:	731000c4 	tstvc	r0, #196	; 0xc4

0000288c <l2469>:
    288c:	e1b02534 	lsrs	r2, r4, r5

00002890 <l2470>:
    2890:	e1a0a82b 	lsr	sl, fp, #16

00002894 <l2471>:
    2894:	e3e02caa 	mvn	r2, #43520	; 0xaa00

00002898 <l2472>:
    2898:	2231483a 	eorscs	r4, r1, #3801088	; 0x3a0000

0000289c <l2473>:
    289c:	71b02038 	lsrsvc	r2, r8, r0

000028a0 <l2474>:
    28a0:	e1f07000 	mvns	r7, r0

000028a4 <l2475>:
    28a4:	e2ff388f 	rscs	r3, pc, #9371648	; 0x8f0000

000028a8 <l2476>:
    28a8:	205f800f 	subscs	r8, pc, pc

000028ac <l2477>:
    28ac:	31b0547c 	rorscc	r5, ip, r4

000028b0 <l2478>:
    28b0:	c0e24d49 	rscgt	r4, r2, r9, asr #26

000028b4 <l2479>:
    28b4:	e1560009 	cmp	r6, r9

000028b8 <l2480>:
    28b8:	ea000006 	b	28d8 <l2488>

000028bc <l2481>:
    28bc:	e2801044 	add	r1, r0, #68	; 0x44

000028c0 <l2482>:
    28c0:	539716b6 	orrspl	r1, r7, #190840832	; 0xb600000

000028c4 <l2483>:
    28c4:	e00b8c50 	and	r8, fp, r0, asr ip

000028c8 <l2484>:
    28c8:	e189c375 	orr	ip, r9, r5, ror r3

000028cc <l2485>:
    28cc:	73b07935 	movsvc	r7, #868352	; 0xd4000

000028d0 <l2486>:
    28d0:	21d269c2 	bicscs	r6, r2, r2, asr #19

000028d4 <l2487>:
    28d4:	ea000000 	b	28dc <l2489>

000028d8 <l2488>:
    28d8:	eafffff8 	b	28c0 <l2482>

000028dc <l2489>:
    28dc:	820fac22 	andhi	sl, pc, #8704	; 0x2200

000028e0 <l2490>:
    28e0:	d15c0007 	cmple	ip, r7

000028e4 <l2491>:
    28e4:	e3b0aede 	movs	sl, #3552	; 0xde0

000028e8 <l2492>:
    28e8:	22273137 	eorcs	r3, r7, #-1073741811	; 0xc000000d

000028ec <l2493>:
    28ec:	70ca1064 	sbcvc	r1, sl, r4, rrx

000028f0 <l2494>:
    28f0:	b3dfe063 	bicslt	lr, pc, #99	; 0x63

000028f4 <l2495>:
    28f4:	b1110b17 	tstlt	r1, r7, lsl fp

000028f8 <l2496>:
    28f8:	8040400a 	subhi	r4, r0, sl

000028fc <l2497>:
    28fc:	93c21703 	bicls	r1, r2, #786432	; 0xc0000

00002900 <l2498>:
    2900:	63c6e113 	bicvs	lr, r6, #-1073741820	; 0xc0000004

00002904 <l2499>:
    2904:	b3985a49 	orrslt	r5, r8, #299008	; 0x49000

00002908 <l2500>:
    2908:	30d07317 	sbcscc	r7, r0, r7, lsl r3

0000290c <l2501>:
    290c:	809cecce 	addshi	lr, ip, lr, asr #25

00002910 <l2502>:
    2910:	11b0c009 	movsne	ip, r9

00002914 <l2503>:
    2914:	e3a03020 	mov	r3, #32

00002918 <l2504>:
    2918:	e7ad1003 	str	r1, [sp, r3]!

0000291c <l2505>:
    291c:	b01c3009 	andslt	r3, ip, r9

00002920 <l2506>:
    2920:	e1360006 	teq	r6, r6

00002924 <l2507>:
    2924:	0175006e 	cmneq	r5, lr, rrx

00002928 <l2508>:
    2928:	301671c9 	andscc	r7, r6, r9, asr #3

0000292c <l2509>:
    292c:	ea000006 	b	294c <l2517>

00002930 <l2510>:
    2930:	e2801077 	add	r1, r0, #119	; 0x77

00002934 <l2511>:
    2934:	837503aa 	cmnhi	r5, #-1476395006	; 0xa8000002

00002938 <l2512>:
    2938:	41760008 	cmnmi	r6, r8

0000293c <l2513>:
    293c:	80f86009 	rscshi	r6, r8, r9

00002940 <l2514>:
    2940:	c25e1612 	subsgt	r1, lr, #18874368	; 0x1200000

00002944 <l2515>:
    2944:	e2cc3bbe 	sbc	r3, ip, #194560	; 0x2f800

00002948 <l2516>:
    2948:	ea000000 	b	2950 <l2518>

0000294c <l2517>:
    294c:	eafffff8 	b	2934 <l2511>

00002950 <l2518>:
    2950:	9045ecea 	subls	lr, r5, sl, ror #25

00002954 <l2519>:
    2954:	e53de020 	ldr	lr, [sp, #-32]!

00002958 <l2520>:
    2958:	e5bd8014 	ldr	r8, [sp, #20]!

0000295c <l2521>:
    295c:	7076700f 	rsbsvc	r7, r6, pc

00002960 <l2522>:
    2960:	e3a0e035 	mov	lr, #53	; 0x35

00002964 <l2523>:
    2964:	27ddc00e 	ldrbcs	ip, [sp, lr]

00002968 <l2524>:
    2968:	e16fcf1b 	clz	ip, fp

0000296c <l2525>:
    296c:	611b0b5a 	tstvs	fp, sl, asr fp

00002970 <l2526>:
    2970:	a065900e 	rsbge	r9, r5, lr

00002974 <l2527>:
    2974:	a0548011 	subsge	r8, r4, r1, lsl r0

00002978 <l2528>:
    2978:	9020321e 	eorls	r3, r0, lr, lsl r2

0000297c <l2529>:
    297c:	60b54003 	adcsvs	r4, r5, r3

00002980 <l2530>:
    2980:	e0ffe6ef 	rscs	lr, pc, pc, ror #13

00002984 <l2531>:
    2984:	ea000006 	b	29a4 <l2539>

00002988 <l2532>:
    2988:	e0db5eee 	sbcs	r5, fp, lr, ror #29

0000298c <l2533>:
    298c:	e05a9708 	subs	r9, sl, r8, lsl #14

00002990 <l2534>:
    2990:	e3570cd2 	cmp	r7, #53760	; 0xd200

00002994 <l2535>:
    2994:	60305003 	eorsvs	r5, r0, r3

00002998 <l2536>:
    2998:	e00485aa 	and	r8, r4, sl, lsr #11

0000299c <l2537>:
    299c:	02eecb26 	rsceq	ip, lr, #38912	; 0x9800

000029a0 <l2538>:
    29a0:	e0de3002 	sbcs	r3, lr, r2

000029a4 <l2539>:
    29a4:	e011c715 	ands	ip, r1, r5, lsl r7

000029a8 <l2540>:
    29a8:	e004c069 	and	ip, r4, r9, rrx

000029ac <l2541>:
    29ac:	e3a0302c 	mov	r3, #44	; 0x2c

000029b0 <l2542>:
    29b0:	e7ad7003 	str	r7, [sp, r3]!

000029b4 <l2543>:
    29b4:	e291337b 	adds	r3, r1, #-335544319	; 0xec000001

000029b8 <l2544>:
    29b8:	e3a04000 	mov	r4, #0

000029bc <l2545>:
    29bc:	e7bd6004 	ldr	r6, [sp, r4]!

000029c0 <l2546>:
    29c0:	e04e6687 	sub	r6, lr, r7, lsl #13

000029c4 <l2547>:
    29c4:	e1cc96ec 	bic	r9, ip, ip, ror #13

000029c8 <l2548>:
    29c8:	c048420c 	subgt	r4, r8, ip, lsl #4

000029cc <l2549>:
    29cc:	0115041c 	tsteq	r5, ip, lsl r4

000029d0 <l2550>:
    29d0:	22c1c43a 	sbccs	ip, r1, #973078528	; 0x3a000000

000029d4 <l2551>:
    29d4:	e0c55546 	sbc	r5, r5, r6, asr #10

000029d8 <l2552>:
    29d8:	d158000f 	cmple	r8, pc

000029dc <l2553>:
    29dc:	e16fcf15 	clz	ip, r5

000029e0 <l2554>:
    29e0:	e0cc2001 	sbc	r2, ip, r1

000029e4 <l2555>:
    29e4:	60a8106c 	adcvs	r1, r8, ip, rrx

000029e8 <l2556>:
    29e8:	51740000 	cmnpl	r4, r0

000029ec <l2557>:
    29ec:	c1d6900a 	bicsgt	r9, r6, sl

000029f0 <l2558>:
    29f0:	e058701a 	subs	r7, r8, sl, lsl r0

000029f4 <l2559>:
    29f4:	a1d80175 	bicsge	r0, r8, r5, ror r1

000029f8 <l2560>:
    29f8:	b118000e 	tstlt	r8, lr

000029fc <l2561>:
    29fc:	c2cc8973 	sbcgt	r8, ip, #1884160	; 0x1cc000

00002a00 <l2562>:
    2a00:	41530154 	cmpmi	r3, r4, asr r1

00002a04 <l2563>:
    2a04:	e0ab1c7c 	adc	r1, fp, ip, ror ip

00002a08 <l2564>:
    2a08:	b20e5d92 	andlt	r5, lr, #9344	; 0x2480

00002a0c <l2565>:
    2a0c:	b16f3f16 	clzlt	r3, r6

00002a10 <l2566>:
    2a10:	e00c9635 	and	r9, ip, r5, lsr r6

00002a14 <l2567>:
    2a14:	e3a03038 	mov	r3, #56	; 0x38

00002a18 <l2568>:
    2a18:	e61dc003 	ldr	ip, [sp], -r3

00002a1c <l2569>:
    2a1c:	a2767b63 	rsbsge	r7, r6, #101376	; 0x18c00

00002a20 <l2570>:
    2a20:	025e82b9 	subseq	r8, lr, #-1879048181	; 0x9000000b

00002a24 <l2571>:
    2a24:	e5cd902c 	strb	r9, [sp, #44]	; 0x2c

00002a28 <l2572>:
    2a28:	c16faf11 	clzgt	sl, r1

00002a2c <l2573>:
    2a2c:	e03e6c0c 	eors	r6, lr, ip, lsl #24

00002a30 <l2574>:
    2a30:	e213c435 	ands	ip, r3, #889192448	; 0x35000000

00002a34 <l2575>:
    2a34:	e153070e 	cmp	r3, lr, lsl #14

00002a38 <l2576>:
    2a38:	e3c35b13 	bic	r5, r3, #19456	; 0x4c00

00002a3c <l2577>:
    2a3c:	017504c6 	cmneq	r5, r6, asr #9

00002a40 <l2578>:
    2a40:	00593001 	subseq	r3, r9, r1

00002a44 <l2579>:
    2a44:	b5dd201e 	ldrblt	r2, [sp, #30]

00002a48 <l2580>:
    2a48:	41770c20 	cmnmi	r7, r0, lsr #24

00002a4c <l2581>:
    2a4c:	23e00050 	mvncs	r0, #80	; 0x50

00002a50 <l2582>:
    2a50:	30cfa004 	sbccc	sl, pc, r4

00002a54 <l2583>:
    2a54:	659d100c 	ldrvs	r1, [sp, #12]

00002a58 <l2584>:
    2a58:	e05ee007 	subs	lr, lr, r7

00002a5c <l2585>:
    2a5c:	4176053b 	cmnmi	r6, fp, lsr r5

00002a60 <l2586>:
    2a60:	91c8806e 	bicls	r8, r8, lr, rrx

00002a64 <l2587>:
    2a64:	e0638065 	rsb	r8, r3, r5, rrx

00002a68 <l2588>:
    2a68:	813c0185 	teqhi	ip, r5, lsl #3

00002a6c <l2589>:
    2a6c:	81370100 	teqhi	r7, r0, lsl #2

00002a70 <l2590>:
    2a70:	ea000004 	b	2a88 <l2596>

00002a74 <l2591>:
    2a74:	e2801040 	add	r1, r0, #64	; 0x40

00002a78 <l2592>:
    2a78:	e0b91001 	adcs	r1, r9, r1

00002a7c <l2593>:
    2a7c:	a16fbf18 	clzge	fp, r8

00002a80 <l2594>:
    2a80:	e1b08368 	rors	r8, r8, #6

00002a84 <l2595>:
    2a84:	ea000000 	b	2a8c <l2597>

00002a88 <l2596>:
    2a88:	eafffffa 	b	2a78 <l2592>

00002a8c <l2597>:
    2a8c:	71b0006b 	rrxsvc	r0, fp

00002a90 <l2598>:
    2a90:	71e06ca1 	mvnvc	r6, r1, lsr #25

00002a94 <l2599>:
    2a94:	2a000007 	bcs	2ab8 <l2608>

00002a98 <l2600>:
    2a98:	e1b02768 	rors	r2, r8, #14

00002a9c <l2601>:
    2a9c:	e1e05002 	mvn	r5, r2

00002aa0 <l2602>:
    2aa0:	c3b00be3 	movsgt	r0, #232448	; 0x38c00

00002aa4 <l2603>:
    2aa4:	51a0300a 	movpl	r3, sl

00002aa8 <l2604>:
    2aa8:	80fc2065 	rscshi	r2, ip, r5, rrx

00002aac <l2605>:
    2aac:	e18f3001 	orr	r3, pc, r1

00002ab0 <l2606>:
    2ab0:	00c4700a 	sbceq	r7, r4, sl

00002ab4 <l2607>:
    2ab4:	e38470c0 	orr	r7, r4, #192	; 0xc0

00002ab8 <l2608>:
    2ab8:	a1b09001 	movsge	r9, r1

00002abc <l2609>:
    2abc:	95cd500f 	strbls	r5, [sp, #15]

00002ac0 <l2610>:
    2ac0:	71580001 	cmpvc	r8, r1

00002ac4 <l2611>:
    2ac4:	213706e6 	teqcs	r7, r6, ror #13

00002ac8 <l2612>:
    2ac8:	51de2003 	bicspl	r2, lr, r3

00002acc <l2613>:
    2acc:	e20fc10f 	and	ip, pc, #-1073741821	; 0xc0000003

00002ad0 <l2614>:
    2ad0:	e1370009 	teq	r7, r9

00002ad4 <l2615>:
    2ad4:	e5dd701b 	ldrb	r7, [sp, #27]

00002ad8 <l2616>:
    2ad8:	e16f7f12 	clz	r7, r2

00002adc <l2617>:
    2adc:	e008400c 	and	r4, r8, ip

00002ae0 <l2618>:
    2ae0:	e3a02030 	mov	r2, #48	; 0x30

00002ae4 <l2619>:
    2ae4:	e7ad1002 	str	r1, [sp, r2]!

00002ae8 <l2620>:
    2ae8:	e0bf0008 	adcs	r0, pc, r8

00002aec <l2621>:
    2aec:	90d47008 	sbcsls	r7, r4, r8

00002af0 <l2622>:
    2af0:	e3cc623d 	bic	r6, ip, #-805306365	; 0xd0000003

00002af4 <l2623>:
    2af4:	7a000005 	bvc	2b10 <l2630>

00002af8 <l2624>:
    2af8:	e280104c 	add	r1, r0, #76	; 0x4c

00002afc <l2625>:
    2afc:	83b0a611 	movshi	sl, #17825792	; 0x1100000

00002b00 <l2626>:
    2b00:	e1520002 	cmp	r2, r2

00002b04 <l2627>:
    2b04:	e2103be2 	ands	r3, r0, #231424	; 0x38800

00002b08 <l2628>:
    2b08:	00db6001 	sbcseq	r6, fp, r1

00002b0c <l2629>:
    2b0c:	ea000000 	b	2b14 <l2631>

00002b10 <l2630>:
    2b10:	eafffff9 	b	2afc <l2625>

00002b14 <l2631>:
    2b14:	e3a0b01e 	mov	fp, #30

00002b18 <l2632>:
    2b18:	974da00b 	strbls	sl, [sp, -fp]

00002b1c <l2633>:
    2b1c:	e03b0216 	eors	r0, fp, r6, lsl r2

00002b20 <l2634>:
    2b20:	e2b5e042 	adcs	lr, r5, #66	; 0x42

00002b24 <l2635>:
    2b24:	c55d7021 	ldrbgt	r7, [sp, #-33]	; 0x21

00002b28 <l2636>:
    2b28:	8255e216 	subshi	lr, r5, #1610612737	; 0x60000001

00002b2c <l2637>:
    2b2c:	40810007 	addmi	r0, r1, r7

00002b30 <l2638>:
    2b30:	e0795066 	rsbs	r5, r9, r6, rrx

00002b34 <l2639>:
    2b34:	e3f03c22 	mvns	r3, #8704	; 0x2200

00002b38 <l2640>:
    2b38:	ea000002 	b	2b48 <l2644>

00002b3c <l2641>:
    2b3c:	e2801097 	add	r1, r0, #151	; 0x97

00002b40 <l2642>:
    2b40:	613e0e20 	teqvs	lr, r0, lsr #28

00002b44 <l2643>:
    2b44:	ea000000 	b	2b4c <l2645>

00002b48 <l2644>:
    2b48:	eafffffc 	b	2b40 <l2642>

00002b4c <l2645>:
    2b4c:	c26a1d66 	rsbgt	r1, sl, #6528	; 0x1980

00002b50 <l2646>:
    2b50:	ea000000 	b	2b58 <l2648>

00002b54 <l2647>:
    2b54:	e2460741 	sub	r0, r6, #17039360	; 0x1040000

00002b58 <l2648>:
    2b58:	116fef15 	clzne	lr, r5

00002b5c <l2649>:
    2b5c:	e0b52929 	adcs	r2, r5, r9, lsr #18

00002b60 <l2650>:
    2b60:	e0eea00a 	rsc	sl, lr, sl

00002b64 <l2651>:
    2b64:	e49d3008 	ldr	r3, [sp], #8

00002b68 <l2652>:
    2b68:	11a0a00c 	movne	sl, ip

00002b6c <l2653>:
    2b6c:	016f9f12 	clzeq	r9, r2

00002b70 <l2654>:
    2b70:	e0f7200f 	rscs	r2, r7, pc

00002b74 <l2655>:
    2b74:	e03e3b19 	eors	r3, lr, r9, lsl fp

00002b78 <l2656>:
    2b78:	02c0b6b7 	sbceq	fp, r0, #191889408	; 0xb700000

00002b7c <l2657>:
    2b7c:	e1a09146 	asr	r9, r6, #2

00002b80 <l2658>:
    2b80:	e1520281 	cmp	r2, r1, lsl #5

00002b84 <l2659>:
    2b84:	e3a09008 	mov	r9, #8

00002b88 <l2660>:
    2b88:	e61d1009 	ldr	r1, [sp], -r9

00002b8c <l2661>:
    2b8c:	755d0012 	ldrbvc	r0, [sp, #-18]

00002b90 <l2662>:
    2b90:	722cb50b 	eorvc	fp, ip, #46137344	; 0x2c00000

00002b94 <l2663>:
    2b94:	41100553 	tstmi	r0, r3, asr r5

00002b98 <l2664>:
    2b98:	01de7b33 	bicseq	r7, lr, r3, lsr fp

00002b9c <l2665>:
    2b9c:	e0ce500f 	sbc	r5, lr, pc

00002ba0 <l2666>:
    2ba0:	820813b5 	andhi	r1, r8, #-738197502	; 0xd4000002

00002ba4 <l2667>:
    2ba4:	e2b38a8f 	adcs	r8, r3, #585728	; 0x8f000

00002ba8 <l2668>:
    2ba8:	d2b4286a 	adcsle	r2, r4, #6946816	; 0x6a0000

00002bac <l2669>:
    2bac:	e272c8a7 	rsbs	ip, r2, #10944512	; 0xa70000

00002bb0 <l2670>:
    2bb0:	e068b003 	rsb	fp, r8, r3

00002bb4 <l2671>:
    2bb4:	800f100e 	andhi	r1, pc, lr

00002bb8 <l2672>:
    2bb8:	603a4778 	eorsvs	r4, sl, r8, ror r7

00002bbc <l2673>:
    2bbc:	4a000004 	bmi	2bd4 <l2679>

00002bc0 <l2674>:
    2bc0:	e28010d5 	add	r1, r0, #213	; 0xd5

00002bc4 <l2675>:
    2bc4:	723bc926 	eorsvc	ip, fp, #622592	; 0x98000

00002bc8 <l2676>:
    2bc8:	e1760d2c 	cmn	r6, ip, lsr #26

00002bcc <l2677>:
    2bcc:	e1d6e342 	bics	lr, r6, r2, asr #6

00002bd0 <l2678>:
    2bd0:	ea000000 	b	2bd8 <l2680>

00002bd4 <l2679>:
    2bd4:	eafffffa 	b	2bc4 <l2675>

00002bd8 <l2680>:
    2bd8:	02f2976d 	rscseq	r9, r2, #28573696	; 0x1b40000

00002bdc <l2681>:
    2bdc:	e040ca50 	sub	ip, r0, r0, asr sl

00002be0 <l2682>:
    2be0:	c0273003 	eorgt	r3, r7, r3

00002be4 <l2683>:
    2be4:	70055817 	andvc	r5, r5, r7, lsl r8

00002be8 <l2684>:
    2be8:	1a000008 	bne	2c10 <l2694>

00002bec <l2685>:
    2bec:	8159000a 	cmphi	r9, sl

00002bf0 <l2686>:
    2bf0:	9093000e 	addsls	r0, r3, lr

00002bf4 <l2687>:
    2bf4:	e3912529 	orrs	r2, r1, #171966464	; 0xa400000

00002bf8 <l2688>:
    2bf8:	60e8200b 	rscvs	r2, r8, fp

00002bfc <l2689>:
    2bfc:	d0570067 	subsle	r0, r7, r7, rrx

00002c00 <l2690>:
    2c00:	e00b8e14 	and	r8, fp, r4, lsl lr

00002c04 <l2691>:
    2c04:	e06a200a 	rsb	r2, sl, sl

00002c08 <l2692>:
    2c08:	e0de8002 	sbcs	r8, lr, r2

00002c0c <l2693>:
    2c0c:	e0a26336 	adc	r6, r2, r6, lsr r3

00002c10 <l2694>:
    2c10:	e0207009 	eor	r7, r0, r9

00002c14 <l2695>:
    2c14:	3092ec38 	addscc	lr, r2, r8, lsr ip

00002c18 <l2696>:
    2c18:	e330068a 	teq	r0, #144703488	; 0x8a00000

00002c1c <l2697>:
    2c1c:	e1c44845 	bic	r4, r4, r5, asr #16

00002c20 <l2698>:
    2c20:	302fe007 	eorcc	lr, pc, r7

00002c24 <l2699>:
    2c24:	43330b53 	teqmi	r3, #84992	; 0x14c00

00002c28 <l2700>:
    2c28:	da000004 	ble	2c40 <l2706>

00002c2c <l2701>:
    2c2c:	e2801032 	add	r1, r0, #50	; 0x32

00002c30 <l2702>:
    2c30:	e0915004 	adds	r5, r1, r4

00002c34 <l2703>:
    2c34:	a16f5f16 	clzge	r5, r6

00002c38 <l2704>:
    2c38:	42cae47d 	sbcmi	lr, sl, #2097152000	; 0x7d000000

00002c3c <l2705>:
    2c3c:	ea000000 	b	2c44 <l2707>

00002c40 <l2706>:
    2c40:	eafffffa 	b	2c30 <l2702>

00002c44 <l2707>:
    2c44:	e1e0885b 	mvn	r8, fp, asr r8

00002c48 <l2708>:
    2c48:	c077400a 	rsbsgt	r4, r7, sl

00002c4c <l2709>:
    2c4c:	51550066 	cmppl	r5, r6, rrx

00002c50 <l2710>:
    2c50:	e3a06008 	mov	r6, #8

00002c54 <l2711>:
    2c54:	e60dc006 	str	ip, [sp], -r6

00002c58 <l2712>:
    2c58:	e03a2f6b 	eors	r2, sl, fp, ror #30

00002c5c <l2713>:
    2c5c:	e17e0b50 	cmn	lr, r0, asr fp

00002c60 <l2714>:
    2c60:	70c204ca 	sbcvc	r0, r2, sl, asr #9

00002c64 <l2715>:
    2c64:	c24f0909 	subgt	r0, pc, #147456	; 0x24000

00002c68 <l2716>:
    2c68:	e0ec9000 	rsc	r9, ip, r0

00002c6c <l2717>:
    2c6c:	406c2731 	rsbmi	r2, ip, r1, lsr r7

00002c70 <l2718>:
    2c70:	c0f21036 	rscsgt	r1, r2, r6, lsr r0

00002c74 <l2719>:
    2c74:	b05eb87b 	subslt	fp, lr, fp, ror r8

00002c78 <l2720>:
    2c78:	ca000007 	bgt	2c9c <l2729>

00002c7c <l2721>:
    2c7c:	e28010b6 	add	r1, r0, #182	; 0xb6

00002c80 <l2722>:
    2c80:	30ce7069 	sbccc	r7, lr, r9, rrx

00002c84 <l2723>:
    2c84:	e041a437 	sub	sl, r1, r7, lsr r4

00002c88 <l2724>:
    2c88:	215e0c16 	cmpcs	lr, r6, lsl ip

00002c8c <l2725>:
    2c8c:	100eb5ab 	andne	fp, lr, fp, lsr #11

00002c90 <l2726>:
    2c90:	e0523a0f 	subs	r3, r2, pc, lsl #20

00002c94 <l2727>:
    2c94:	90784074 	rsbsls	r4, r8, r4, ror r0

00002c98 <l2728>:
    2c98:	ea000000 	b	2ca0 <l2730>

00002c9c <l2729>:
    2c9c:	eafffff7 	b	2c80 <l2722>

00002ca0 <l2730>:
    2ca0:	2118006e 	tstcs	r8, lr, rrx

00002ca4 <l2731>:
    2ca4:	02199edf 	andseq	r9, r9, #3568	; 0xdf0

00002ca8 <l2732>:
    2ca8:	40846186 	addmi	r6, r4, r6, lsl #3

00002cac <l2733>:
    2cac:	aa000007 	bge	2cd0 <l2742>

00002cb0 <l2734>:
    2cb0:	e28010a9 	add	r1, r0, #169	; 0xa9

00002cb4 <l2735>:
    2cb4:	6196b066 	orrsvs	fp, r6, r6, rrx

00002cb8 <l2736>:
    2cb8:	e20f4e79 	and	r4, pc, #1936	; 0x790

00002cbc <l2737>:
    2cbc:	e1b08357 	asrs	r8, r7, r3

00002cc0 <l2738>:
    2cc0:	e1590068 	cmp	r9, r8, rrx

00002cc4 <l2739>:
    2cc4:	e3d37fc7 	bics	r7, r3, #796	; 0x31c

00002cc8 <l2740>:
    2cc8:	c01e2162 	andsgt	r2, lr, r2, ror #2

00002ccc <l2741>:
    2ccc:	ea000000 	b	2cd4 <l2743>

00002cd0 <l2742>:
    2cd0:	eafffff7 	b	2cb4 <l2735>

00002cd4 <l2743>:
    2cd4:	42ef691d 	rscmi	r6, pc, #475136	; 0x74000

00002cd8 <l2744>:
    2cd8:	d16f4f13 	clzle	r4, r3

00002cdc <l2745>:
    2cdc:	00274003 	eoreq	r4, r7, r3

00002ce0 <l2746>:
    2ce0:	855de00b 	ldrbhi	lr, [sp, #-11]

00002ce4 <l2747>:
    2ce4:	e0e4e00b 	rsc	lr, r4, fp

00002ce8 <l2748>:
    2ce8:	ea000005 	b	2d04 <l2755>

00002cec <l2749>:
    2cec:	e0f7700f 	rscs	r7, r7, pc

00002cf0 <l2750>:
    2cf0:	e3f0b008 	mvns	fp, #8

00002cf4 <l2751>:
    2cf4:	e1e0ea53 	mvn	lr, r3, asr sl

00002cf8 <l2752>:
    2cf8:	93cb00ee 	bicls	r0, fp, #238	; 0xee

00002cfc <l2753>:
    2cfc:	40204061 	eormi	r4, r0, r1, rrx

00002d00 <l2754>:
    2d00:	e19e02eb 	orrs	r0, lr, fp, ror #5

00002d04 <l2755>:
    2d04:	e185e065 	orr	lr, r5, r5, rrx

00002d08 <l2756>:
    2d08:	80652002 	rsbhi	r2, r5, r2

00002d0c <l2757>:
    2d0c:	a03810a0 	eorsge	r1, r8, r0, lsr #1

00002d10 <l2758>:
    2d10:	e3a07018 	mov	r7, #24

00002d14 <l2759>:
    2d14:	e78d1007 	str	r1, [sp, r7]

00002d18 <l2760>:
    2d18:	e17b0cc4 	cmn	fp, r4, asr #25

00002d1c <l2761>:
    2d1c:	b086a0c7 	addlt	sl, r6, r7, asr #1

00002d20 <l2762>:
    2d20:	555d4017 	ldrbpl	r4, [sp, #-23]

00002d24 <l2763>:
    2d24:	61e0e006 	mvnvs	lr, r6

00002d28 <l2764>:
    2d28:	91844e54 	orrls	r4, r4, r4, asr lr

00002d2c <l2765>:
    2d2c:	d2233e5d 	eorle	r3, r3, #1488	; 0x5d0

00002d30 <l2766>:
    2d30:	35cd6011 	strbcc	r6, [sp, #17]

00002d34 <l2767>:
    2d34:	c1975134 	orrsgt	r5, r7, r4, lsr r1

00002d38 <l2768>:
    2d38:	60706008 	rsbsvs	r6, r0, r8

00002d3c <l2769>:
    2d3c:	459d4014 	ldrmi	r4, [sp, #20]

00002d40 <l2770>:
    2d40:	e16f3f14 	clz	r3, r4

00002d44 <l2771>:
    2d44:	e01e3638 	ands	r3, lr, r8, lsr r6

00002d48 <l2772>:
    2d48:	e113058a 	tst	r3, sl, lsl #11

00002d4c <l2773>:
    2d4c:	a00f9007 	andge	r9, pc, r7

00002d50 <l2774>:
    2d50:	10556000 	subsne	r6, r5, r0

00002d54 <l2775>:
    2d54:	23b05a02 	movscs	r5, #8192	; 0x2000

00002d58 <l2776>:
    2d58:	e2152d76 	ands	r2, r5, #7552	; 0x1d80

00002d5c <l2777>:
    2d5c:	d191706a 	orrsle	r7, r1, sl, rrx

00002d60 <l2778>:
    2d60:	e24103ce 	sub	r0, r1, #939524099	; 0x38000003

00002d64 <l2779>:
    2d64:	e096a00c 	adds	sl, r6, ip

00002d68 <l2780>:
    2d68:	6084a007 	addvs	sl, r4, r7

00002d6c <l2781>:
    2d6c:	8354041e 	cmphi	r4, #503316480	; 0x1e000000

00002d70 <l2782>:
    2d70:	a353062f 	cmpge	r3, #49283072	; 0x2f00000

00002d74 <l2783>:
    2d74:	71b00008 	movsvc	r0, r8

00002d78 <l2784>:
    2d78:	00a2000f 	adceq	r0, r2, pc

00002d7c <l2785>:
    2d7c:	a37503b2 	cmnge	r5, #-939524094	; 0xc8000002

00002d80 <l2786>:
    2d80:	633800c0 	teqvs	r8, #192	; 0xc0

00002d84 <l2787>:
    2d84:	ca000007 	bgt	2da8 <l2796>

00002d88 <l2788>:
    2d88:	a15f0e4e 	cmpge	pc, lr, asr #28

00002d8c <l2789>:
    2d8c:	e18a0007 	orr	r0, sl, r7

00002d90 <l2790>:
    2d90:	e0605e06 	rsb	r5, r0, r6, lsl #28

00002d94 <l2791>:
    2d94:	d3a0052f 	movle	r0, #197132288	; 0xbc00000

00002d98 <l2792>:
    2d98:	a17507c1 	cmnge	r5, r1, asr #15

00002d9c <l2793>:
    2d9c:	91a05006 	movls	r5, r6

00002da0 <l2794>:
    2da0:	516f0f1c 	clzpl	r0, ip

00002da4 <l2795>:
    2da4:	43845659 	orrmi	r5, r4, #93323264	; 0x5900000

00002da8 <l2796>:
    2da8:	128f441a 	addne	r4, pc, #436207616	; 0x1a000000

00002dac <l2797>:
    2dac:	d0e44037 	rscle	r4, r4, r7, lsr r0

00002db0 <l2798>:
    2db0:	c2550c07 	subsgt	r0, r5, #1792	; 0x700

00002db4 <l2799>:
    2db4:	91c11060 	bicls	r1, r1, r0, rrx

00002db8 <l2800>:
    2db8:	e3a0b00a 	mov	fp, #10

00002dbc <l2801>:
    2dbc:	e74de00b 	strb	lr, [sp, -fp]

00002dc0 <l2802>:
    2dc0:	d18ae008 	orrle	lr, sl, r8

00002dc4 <l2803>:
    2dc4:	32e8590e 	rsccc	r5, r8, #229376	; 0x38000

00002dc8 <l2804>:
    2dc8:	e04f006c 	sub	r0, pc, ip, rrx

00002dcc <l2805>:
    2dcc:	aa000007 	bge	2df0 <l2814>

00002dd0 <l2806>:
    2dd0:	e2519195 	subs	r9, r1, #1073741861	; 0x40000025

00002dd4 <l2807>:
    2dd4:	e2705811 	rsbs	r5, r0, #1114112	; 0x110000

00002dd8 <l2808>:
    2dd8:	e050cb75 	subs	ip, r0, r5, ror fp

00002ddc <l2809>:
    2ddc:	e0753065 	rsbs	r3, r5, r5, rrx

00002de0 <l2810>:
    2de0:	20569736 	subscs	r9, r6, r6, lsr r7

00002de4 <l2811>:
    2de4:	b1e0b004 	mvnlt	fp, r4

00002de8 <l2812>:
    2de8:	71e07009 	mvnvc	r7, r9

00002dec <l2813>:
    2dec:	e16f0f15 	clz	r0, r5

00002df0 <l2814>:
    2df0:	c25f3a07 	subsgt	r3, pc, #28672	; 0x7000

00002df4 <l2815>:
    2df4:	e383107e 	orr	r1, r3, #126	; 0x7e

00002df8 <l2816>:
    2df8:	31a0aa27 	lsrcc	sl, r7, #20

00002dfc <l2817>:
    2dfc:	43e01622 	mvnmi	r1, #35651584	; 0x2200000

00002e00 <l2818>:
    2e00:	b049687a 	sublt	r6, r9, sl, ror r8

00002e04 <l2819>:
    2e04:	90ab3580 	adcls	r3, fp, r0, lsl #11

00002e08 <l2820>:
    2e08:	90b71068 	adcsls	r1, r7, r8, rrx

00002e0c <l2821>:
    2e0c:	23500def 	cmpcs	r0, #15296	; 0x3bc0

00002e10 <l2822>:
    2e10:	60223c36 	eorvs	r3, r2, r6, lsr ip

00002e14 <l2823>:
    2e14:	d16faf14 	clzle	sl, r4

00002e18 <l2824>:
    2e18:	e0321008 	eors	r1, r2, r8

00002e1c <l2825>:
    2e1c:	72347973 	eorsvc	r7, r4, #1884160	; 0x1cc000

00002e20 <l2826>:
    2e20:	e1e0100f 	mvn	r1, pc

00002e24 <l2827>:
    2e24:	d02b4b56 	eorle	r4, fp, r6, asr fp

00002e28 <l2828>:
    2e28:	e16f6f11 	clz	r6, r1

00002e2c <l2829>:
    2e2c:	3048c008 	subcc	ip, r8, r8

00002e30 <l2830>:
    2e30:	901a4063 	andsls	r4, sl, r3, rrx

00002e34 <l2831>:
    2e34:	e18f3f4a 	orr	r3, pc, sl, asr #30

00002e38 <l2832>:
    2e38:	e22a5bc7 	eor	r5, sl, #203776	; 0x31c00

00002e3c <l2833>:
    2e3c:	e3a0a02f 	mov	sl, #47	; 0x2f

00002e40 <l2834>:
    2e40:	574de00a 	strbpl	lr, [sp, -sl]

00002e44 <l2835>:
    2e44:	e0478705 	sub	r8, r7, r5, lsl #14

00002e48 <l2836>:
    2e48:	431c0f7f 	tstmi	ip, #508	; 0x1fc

00002e4c <l2837>:
    2e4c:	00d22ec9 	sbcseq	r2, r2, r9, asr #29

00002e50 <l2838>:
    2e50:	b073e00f 	rsbslt	lr, r3, pc

00002e54 <l2839>:
    2e54:	ea000005 	b	2e70 <l2846>

00002e58 <l2840>:
    2e58:	e2801096 	add	r1, r0, #150	; 0x96

00002e5c <l2841>:
    2e5c:	e0b0106e 	adcs	r1, r0, lr, rrx

00002e60 <l2842>:
    2e60:	e0907009 	adds	r7, r0, r9

00002e64 <l2843>:
    2e64:	e1d7cc1a 	bics	ip, r7, sl, lsl ip

00002e68 <l2844>:
    2e68:	e1d161ec 	bics	r6, r1, ip, ror #3

00002e6c <l2845>:
    2e6c:	ea000000 	b	2e74 <l2847>

00002e70 <l2846>:
    2e70:	eafffff9 	b	2e5c <l2841>

00002e74 <l2847>:
    2e74:	e17a006b 	cmn	sl, fp, rrx

00002e78 <l2848>:
    2e78:	ea000005 	b	2e94 <l2855>

00002e7c <l2849>:
    2e7c:	e06ec061 	rsb	ip, lr, r1, rrx

00002e80 <l2850>:
    2e80:	e17b0810 	cmn	fp, r0, lsl r8

00002e84 <l2851>:
    2e84:	73780fb2 	cmnvc	r8, #712	; 0x2c8

00002e88 <l2852>:
    2e88:	a0b82415 	adcsge	r2, r8, r5, lsl r4

00002e8c <l2853>:
    2e8c:	017b0734 	cmneq	fp, r4, lsr r7

00002e90 <l2854>:
    2e90:	30b8407b 	adcscc	r4, r8, fp, ror r0

00002e94 <l2855>:
    2e94:	406344e0 	rsbmi	r4, r3, r0, ror #9

00002e98 <l2856>:
    2e98:	80008001 	andhi	r8, r0, r1

00002e9c <l2857>:
    2e9c:	e3a09027 	mov	r9, #39	; 0x27

00002ea0 <l2858>:
    2ea0:	075dc009 	ldrbeq	ip, [sp, -r9]

00002ea4 <l2859>:
    2ea4:	30f2b838 	rscscc	fp, r2, r8, lsr r8

00002ea8 <l2860>:
    2ea8:	e3a0e026 	mov	lr, #38	; 0x26

00002eac <l2861>:
    2eac:	e75d200e 	ldrb	r2, [sp, -lr]

00002eb0 <l2862>:
    2eb0:	50e9471c 	rscpl	r4, r9, ip, lsl r7

00002eb4 <l2863>:
    2eb4:	3a000002 	bcc	2ec4 <l2867>

00002eb8 <l2864>:
    2eb8:	53c34431 	bicpl	r4, r3, #822083584	; 0x31000000

00002ebc <l2865>:
    2ebc:	817c0001 	cmnhi	ip, r1

00002ec0 <l2866>:
    2ec0:	33b01d8f 	movscc	r1, #9152	; 0x23c0

00002ec4 <l2867>:
    2ec4:	e2263a7a 	eor	r3, r6, #499712	; 0x7a000

00002ec8 <l2868>:
    2ec8:	ea000005 	b	2ee4 <l2875>

00002ecc <l2869>:
    2ecc:	416f0f1a 	clzmi	r0, sl

00002ed0 <l2870>:
    2ed0:	b0cf9f6f 	sbclt	r9, pc, pc, ror #30

00002ed4 <l2871>:
    2ed4:	e08c8a52 	add	r8, ip, r2, asr sl

00002ed8 <l2872>:
    2ed8:	c046c43c 	subgt	ip, r6, ip, lsr r4

00002edc <l2873>:
    2edc:	00aa4004 	adceq	r4, sl, r4

00002ee0 <l2874>:
    2ee0:	e15e041c 	cmp	lr, ip, lsl r4

00002ee4 <l2875>:
    2ee4:	b1e08256 	mvnlt	r8, r6, asr r2

00002ee8 <l2876>:
    2ee8:	1258781d 	subsne	r7, r8, #1900544	; 0x1d0000

00002eec <l2877>:
    2eec:	9254e05f 	subsls	lr, r4, #95	; 0x5f

00002ef0 <l2878>:
    2ef0:	e16fcf13 	clz	ip, r3

00002ef4 <l2879>:
    2ef4:	6a000007 	bvs	2f18 <l2888>

00002ef8 <l2880>:
    2ef8:	e280106a 	add	r1, r0, #106	; 0x6a

00002efc <l2881>:
    2efc:	c045b6e4 	subgt	fp, r5, r4, ror #13

00002f00 <l2882>:
    2f00:	e0ce5001 	sbc	r5, lr, r1

00002f04 <l2883>:
    2f04:	e22b5001 	eor	r5, fp, #1

00002f08 <l2884>:
    2f08:	e2505115 	subs	r5, r0, #1073741829	; 0x40000005

00002f0c <l2885>:
    2f0c:	e01a6065 	ands	r6, sl, r5, rrx

00002f10 <l2886>:
    2f10:	23f05b35 	mvnscs	r5, #54272	; 0xd400

00002f14 <l2887>:
    2f14:	ea000000 	b	2f1c <l2889>

00002f18 <l2888>:
    2f18:	eafffff7 	b	2efc <l2881>

00002f1c <l2889>:
    2f1c:	e0d6300c 	sbcs	r3, r6, ip

00002f20 <l2890>:
    2f20:	e3b0e201 	movs	lr, #268435456	; 0x10000000

00002f24 <l2891>:
    2f24:	e0cc5008 	sbc	r5, ip, r8

00002f28 <l2892>:
    2f28:	e2741e23 	rsbs	r1, r4, #560	; 0x230

00002f2c <l2893>:
    2f2c:	e58df008 	str	pc, [sp, #8]

00002f30 <l2894>:
    2f30:	c0b31364 	adcsgt	r1, r3, r4, ror #6

00002f34 <l2895>:
    2f34:	6a000004 	bvs	2f4c <l2901>

00002f38 <l2896>:
    2f38:	e28010f3 	add	r1, r0, #243	; 0xf3

00002f3c <l2897>:
    2f3c:	716f8f19 	clzvc	r8, r9

00002f40 <l2898>:
    2f40:	51a0100a 	movpl	r1, sl

00002f44 <l2899>:
    2f44:	e1b04068 	rrxs	r4, r8

00002f48 <l2900>:
    2f48:	ea000000 	b	2f50 <l2902>

00002f4c <l2901>:
    2f4c:	eafffffa 	b	2f3c <l2897>

00002f50 <l2902>:
    2f50:	71d46002 	bicsvc	r6, r4, r2

00002f54 <l2903>:
    2f54:	e08270ef 	add	r7, r2, pc, ror #1

00002f58 <l2904>:
    2f58:	81350280 	teqhi	r5, r0, lsl #5

00002f5c <l2905>:
    2f5c:	aa000004 	bge	2f74 <l2911>

00002f60 <l2906>:
    2f60:	e280105d 	add	r1, r0, #93	; 0x5d

00002f64 <l2907>:
    2f64:	e0239007 	eor	r9, r3, r7

00002f68 <l2908>:
    2f68:	b06485e5 	rsblt	r8, r4, r5, ror #11

00002f6c <l2909>:
    2f6c:	016f4f10 	clzeq	r4, r0

00002f70 <l2910>:
    2f70:	ea000000 	b	2f78 <l2912>

00002f74 <l2911>:
    2f74:	eafffffa 	b	2f64 <l2907>

00002f78 <l2912>:
    2f78:	ea000007 	b	2f9c <l2921>

00002f7c <l2913>:
    2f7c:	e280104a 	add	r1, r0, #74	; 0x4a

00002f80 <l2914>:
    2f80:	e132006c 	teq	r2, ip, rrx

00002f84 <l2915>:
    2f84:	e1a0a857 	asr	sl, r7, r8

00002f88 <l2916>:
    2f88:	00846d07 	addeq	r6, r4, r7, lsl #26

00002f8c <l2917>:
    2f8c:	00125b7c 	andseq	r5, r2, ip, ror fp

00002f90 <l2918>:
    2f90:	60a6ac7b 	adcvs	sl, r6, fp, ror ip

00002f94 <l2919>:
    2f94:	528ecd91 	addpl	ip, lr, #9280	; 0x2440

00002f98 <l2920>:
    2f98:	ea000000 	b	2fa0 <l2922>

00002f9c <l2921>:
    2f9c:	eafffff7 	b	2f80 <l2914>

00002fa0 <l2922>:
    2fa0:	e01e500a 	ands	r5, lr, sl

00002fa4 <l2923>:
    2fa4:	000e8612 	andeq	r8, lr, r2, lsl r6

00002fa8 <l2924>:
    2fa8:	6a000006 	bvs	2fc8 <l2932>

00002fac <l2925>:
    2fac:	e3330906 	teq	r3, #98304	; 0x18000

00002fb0 <l2926>:
    2fb0:	41e0700b 	mvnmi	r7, fp

00002fb4 <l2927>:
    2fb4:	e030c06c 	eors	ip, r0, ip, rrx

00002fb8 <l2928>:
    2fb8:	d2725916 	rsbsle	r5, r2, #360448	; 0x58000

00002fbc <l2929>:
    2fbc:	e0513759 	subs	r3, r1, r9, asr r7

00002fc0 <l2930>:
    2fc0:	e1740069 	cmn	r4, r9, rrx

00002fc4 <l2931>:
    2fc4:	e15e007e 	cmp	lr, lr, ror r0

00002fc8 <l2932>:
    2fc8:	02d349aa 	sbcseq	r4, r3, #2785280	; 0x2a8000

00002fcc <l2933>:
    2fcc:	e192b741 	orrs	fp, r2, r1, asr #14

00002fd0 <l2934>:
    2fd0:	e55d602f 	ldrb	r6, [sp, #-47]	; 0x2f

00002fd4 <l2935>:
    2fd4:	e3550d7f 	cmp	r5, #8128	; 0x1fc0

00002fd8 <l2936>:
    2fd8:	e3a0602c 	mov	r6, #44	; 0x2c

00002fdc <l2937>:
    2fdc:	e60d5006 	str	r5, [sp], -r6

00002fe0 <l2938>:
    2fe0:	50c3a484 	sbcpl	sl, r3, r4, lsl #9

00002fe4 <l2939>:
    2fe4:	220eaa99 	andcs	sl, lr, #626688	; 0x99000

00002fe8 <l2940>:
    2fe8:	e19ba003 	orrs	sl, fp, r3

00002fec <l2941>:
    2fec:	31e0161e 	mvncc	r1, lr, lsl r6

00002ff0 <l2942>:
    2ff0:	aa000002 	bge	3000 <l2946>

00002ff4 <l2943>:
    2ff4:	e280101b 	add	r1, r0, #27

00002ff8 <l2944>:
    2ff8:	40f9ab29 	rscsmi	sl, r9, r9, lsr #22

00002ffc <l2945>:
    2ffc:	ea000000 	b	3004 <l2947>

00003000 <l2946>:
    3000:	eafffffc 	b	2ff8 <l2944>

00003004 <l2947>:
    3004:	2240c869 	subcs	ip, r0, #6881280	; 0x690000

00003008 <l2948>:
    3008:	616f5f11 	clzvs	r5, r1

0000300c <l2949>:
    300c:	e049cde7 	sub	ip, r9, r7, ror #27

00003010 <l2950>:
    3010:	917a03cf 	cmnls	sl, pc, asr #7

00003014 <l2951>:
    3014:	e3e0853d 	mvn	r8, #255852544	; 0xf400000

00003018 <l2952>:
    3018:	71804ba7 	orrvc	r4, r0, r7, lsr #23

0000301c <l2953>:
    301c:	637308f2 	cmnvs	r3, #15859712	; 0xf20000

00003020 <l2954>:
    3020:	e0035474 	and	r5, r3, r4, ror r4

00003024 <l2955>:
    3024:	01b08d4b 	asrseq	r8, fp, #26

00003028 <l2956>:
    3028:	7266654a 	rsbvc	r6, r6, #310378496	; 0x12800000

0000302c <l2957>:
    302c:	e0449068 	sub	r9, r4, r8, rrx

00003030 <l2958>:
    3030:	51d7406a 	bicspl	r4, r7, sl, rrx

00003034 <l2959>:
    3034:	e3f0c76e 	mvns	ip, #28835840	; 0x1b80000

00003038 <l2960>:
    3038:	d33c0be6 	teqle	ip, #235520	; 0x39800

0000303c <l2961>:
    303c:	81e03007 	mvnhi	r3, r7

00003040 <l2962>:
    3040:	e1e03341 	mvn	r3, r1, asr #6

00003044 <l2963>:
    3044:	ea000004 	b	305c <l2969>

00003048 <l2964>:
    3048:	00352650 	eorseq	r2, r5, r0, asr r6

0000304c <l2965>:
    304c:	9131041e 	teqls	r1, lr, lsl r4

00003050 <l2966>:
    3050:	121b1c8e 	andsne	r1, fp, #36352	; 0x8e00

00003054 <l2967>:
    3054:	e0fb8007 	rscs	r8, fp, r7

00003058 <l2968>:
    3058:	6130006c 	teqvs	r0, ip, rrx

0000305c <l2969>:
    305c:	40c99446 	sbcmi	r9, r9, r6, asr #8

00003060 <l2970>:
    3060:	ba000002 	blt	3070 <l2974>

00003064 <l2971>:
    3064:	d35c01f3 	cmple	ip, #-1073741764	; 0xc000003c

00003068 <l2972>:
    3068:	e2ba4b3f 	adcs	r4, sl, #64512	; 0xfc00

0000306c <l2973>:
    306c:	b1cb2063 	biclt	r2, fp, r3, rrx

00003070 <l2974>:
    3070:	e16f2f12 	clz	r2, r2

00003074 <l2975>:
    3074:	e178030a 	cmn	r8, sl, lsl #6

00003078 <l2976>:
    3078:	40a48068 	adcmi	r8, r4, r8, rrx

0000307c <l2977>:
    307c:	e3310ab6 	teq	r1, #745472	; 0xb6000

00003080 <l2978>:
    3080:	e087b627 	add	fp, r7, r7, lsr #12

00003084 <l2979>:
    3084:	807534a6 	rsbshi	r3, r5, r6, lsr #9

00003088 <l2980>:
    3088:	e0e7921c 	rsc	r9, r7, ip, lsl r2

0000308c <l2981>:
    308c:	e16f3f16 	clz	r3, r6

00003090 <l2982>:
    3090:	e1823504 	orr	r3, r2, r4, lsl #10

00003094 <l2983>:
    3094:	119b4067 	orrsne	r4, fp, r7, rrx

00003098 <l2984>:
    3098:	e01be80b 	ands	lr, fp, fp, lsl #16

0000309c <l2985>:
    309c:	9090c925 	addsls	ip, r0, r5, lsr #18

000030a0 <l2986>:
    30a0:	e5ade010 	str	lr, [sp, #16]!

000030a4 <l2987>:
    30a4:	a2818456 	addge	r8, r1, #1442840576	; 0x56000000

000030a8 <l2988>:
    30a8:	e49d7018 	ldr	r7, [sp], #24

000030ac <l2989>:
    30ac:	e3a03011 	mov	r3, #17

000030b0 <l2990>:
    30b0:	675dc003 	ldrbvs	ip, [sp, -r3]

000030b4 <l2991>:
    30b4:	60354c3c 	eorsvs	r4, r5, ip, lsr ip

000030b8 <l2992>:
    30b8:	e0c35170 	sbc	r5, r3, r0, ror r1

000030bc <l2993>:
    30bc:	9a000007 	bls	30e0 <l3002>

000030c0 <l2994>:
    30c0:	e2801076 	add	r1, r0, #118	; 0x76

000030c4 <l2995>:
    30c4:	83110745 	tsthi	r1, #18087936	; 0x1140000

000030c8 <l2996>:
    30c8:	e13e0781 	teq	lr, r1, lsl #15

000030cc <l2997>:
    30cc:	e0541007 	subs	r1, r4, r7

000030d0 <l2998>:
    30d0:	e3826d21 	orr	r6, r2, #2112	; 0x840

000030d4 <l2999>:
    30d4:	e18bc159 	orr	ip, fp, r9, asr r1

000030d8 <l3000>:
    30d8:	e1b0a006 	movs	sl, r6

000030dc <l3001>:
    30dc:	ea000000 	b	30e4 <l3003>

000030e0 <l3002>:
    30e0:	eafffff7 	b	30c4 <l2995>

000030e4 <l3003>:
    30e4:	e1330000 	teq	r3, r0

000030e8 <l3004>:
    30e8:	9a000004 	bls	3100 <l3010>

000030ec <l3005>:
    30ec:	a0471581 	subge	r1, r7, r1, lsl #11

000030f0 <l3006>:
    30f0:	32ffaae7 	rscscc	sl, pc, #946176	; 0xe7000

000030f4 <l3007>:
    30f4:	61f02004 	mvnsvs	r2, r4

000030f8 <l3008>:
    30f8:	71b00a13 	lslsvc	r0, r3, sl

000030fc <l3009>:
    30fc:	e0202006 	eor	r2, r0, r6

00003100 <l3010>:
    3100:	e3350e37 	teq	r5, #880	; 0x370

00003104 <l3011>:
    3104:	b135000a 	teqlt	r5, sl

00003108 <l3012>:
    3108:	11809068 	orrne	r9, r0, r8, rrx

0000310c <l3013>:
    310c:	ea000004 	b	3124 <l3019>

00003110 <l3014>:
    3110:	e28010c3 	add	r1, r0, #195	; 0xc3

00003114 <l3015>:
    3114:	e2768052 	rsbs	r8, r6, #82	; 0x52

00003118 <l3016>:
    3118:	53500706 	cmppl	r0, #1572864	; 0x180000

0000311c <l3017>:
    311c:	e0ee006a 	rsc	r0, lr, sl, rrx

00003120 <l3018>:
    3120:	ea000000 	b	3128 <l3020>

00003124 <l3019>:
    3124:	eafffffa 	b	3114 <l3015>

00003128 <l3020>:
    3128:	7a000005 	bvc	3144 <l3027>

0000312c <l3021>:
    312c:	e1d16b5c 	bics	r6, r1, ip, asr fp

00003130 <l3022>:
    3130:	e055b23e 	subs	fp, r5, lr, lsr r2

00003134 <l3023>:
    3134:	e053a068 	subs	sl, r3, r8, rrx

00003138 <l3024>:
    3138:	60409a36 	subvs	r9, r0, r6, lsr sl

0000313c <l3025>:
    313c:	411f0006 	tstmi	pc, r6

00003140 <l3026>:
    3140:	104ea00e 	subne	sl, lr, lr

00003144 <l3027>:
    3144:	e0eaa06e 	rsc	sl, sl, lr, rrx

00003148 <l3028>:
    3148:	e16fbf17 	clz	fp, r7

0000314c <l3029>:
    314c:	d087bd68 	addle	fp, r7, r8, ror #26

00003150 <l3030>:
    3150:	e33e0157 	teq	lr, #-1073741803	; 0xc0000015

00003154 <l3031>:
    3154:	e0425be1 	sub	r5, r2, r1, ror #23

00003158 <l3032>:
    3158:	70ab62cf 	adcvc	r6, fp, pc, asr #5

0000315c <l3033>:
    315c:	e3a0300b 	mov	r3, #11

00003160 <l3034>:
    3160:	e7cd3003 	strb	r3, [sp, r3]

00003164 <l3035>:
    3164:	30df348b 	sbcscc	r3, pc, fp, lsl #9

00003168 <l3036>:
    3168:	e046e170 	sub	lr, r6, r0, ror r1

0000316c <l3037>:
    316c:	a0ca8672 	sbcge	r8, sl, r2, ror r6

00003170 <l3038>:
    3170:	9196500e 	orrsls	r5, r6, lr

00003174 <l3039>:
    3174:	704a4068 	subvc	r4, sl, r8, rrx

00003178 <l3040>:
    3178:	916f5f1c 	clzls	r5, ip

0000317c <l3041>:
    317c:	e1c85000 	bic	r5, r8, r0

00003180 <l3042>:
    3180:	0a000003 	beq	3194 <l3047>

00003184 <l3043>:
    3184:	e28010d8 	add	r1, r0, #216	; 0xd8

00003188 <l3044>:
    3188:	c1170645 	tstgt	r7, r5, asr #12

0000318c <l3045>:
    318c:	e076400f 	rsbs	r4, r6, pc

00003190 <l3046>:
    3190:	ea000000 	b	3198 <l3048>

00003194 <l3047>:
    3194:	eafffffb 	b	3188 <l3044>

00003198 <l3048>:
    3198:	e3daea3d 	bics	lr, sl, #249856	; 0x3d000

0000319c <l3049>:
    319c:	21310418 	teqcs	r1, r8, lsl r4

000031a0 <l3050>:
    31a0:	33b09405 	movscc	r9, #83886080	; 0x5000000

000031a4 <l3051>:
    31a4:	e16f6f12 	clz	r6, r2

000031a8 <l3052>:
    31a8:	e3a03020 	mov	r3, #32

000031ac <l3053>:
    31ac:	d75d0003 	ldrble	r0, [sp, -r3]

000031b0 <l3054>:
    31b0:	e01766c6 	ands	r6, r7, r6, asr #13

000031b4 <l3055>:
    31b4:	71c46060 	bicvc	r6, r4, r0, rrx

000031b8 <l3056>:
    31b8:	e078800e 	rsbs	r8, r8, lr

000031bc <l3057>:
    31bc:	10e99007 	rscne	r9, r9, r7

000031c0 <l3058>:
    31c0:	e1e0b301 	mvn	fp, r1, lsl #6

000031c4 <l3059>:
    31c4:	b0d0100c 	sbcslt	r1, r0, ip

000031c8 <l3060>:
    31c8:	ea000005 	b	31e4 <l3067>

000031cc <l3061>:
    31cc:	e280103d 	add	r1, r0, #61	; 0x3d

000031d0 <l3062>:
    31d0:	e072c84b 	rsbs	ip, r2, fp, asr #16

000031d4 <l3063>:
    31d4:	e18bc142 	orr	ip, fp, r2, asr #2

000031d8 <l3064>:
    31d8:	c2a98d2f 	adcgt	r8, r9, #3008	; 0xbc0

000031dc <l3065>:
    31dc:	e0566f8b 	subs	r6, r6, fp, lsl #31

000031e0 <l3066>:
    31e0:	ea000000 	b	31e8 <l3068>

000031e4 <l3067>:
    31e4:	eafffff9 	b	31d0 <l3062>

000031e8 <l3068>:
    31e8:	e1b0c253 	asrs	ip, r3, r2

000031ec <l3069>:
    31ec:	424fc003 	submi	ip, pc, #3

000031f0 <l3070>:
    31f0:	42b29117 	adcsmi	r9, r2, #-1073741819	; 0xc0000005

000031f4 <l3071>:
    31f4:	a058a061 	subsge	sl, r8, r1, rrx

000031f8 <l3072>:
    31f8:	403f0004 	eorsmi	r0, pc, r4

000031fc <l3073>:
    31fc:	e181800c 	orr	r8, r1, ip

00003200 <l3074>:
    3200:	913101cf 	teqls	r1, pc, asr #3

00003204 <l3075>:
    3204:	ea000005 	b	3220 <l3082>

00003208 <l3076>:
    3208:	e35c0cce 	cmp	ip, #52736	; 0xce00

0000320c <l3077>:
    320c:	e02e3002 	eor	r3, lr, r2

00003210 <l3078>:
    3210:	e16f8f15 	clz	r8, r5

00003214 <l3079>:
    3214:	73340cfe 	teqvc	r4, #65024	; 0xfe00

00003218 <l3080>:
    3218:	e37f0d75 	cmn	pc, #7488	; 0x1d40

0000321c <l3081>:
    321c:	e13b0811 	teq	fp, r1, lsl r8

00003220 <l3082>:
    3220:	6203a0ad 	andvs	sl, r3, #173	; 0xad

00003224 <l3083>:
    3224:	0027000c 	eoreq	r0, r7, ip

00003228 <l3084>:
    3228:	021fe902 	andseq	lr, pc, #32768	; 0x8000

0000322c <l3085>:
    322c:	e40d7008 	str	r7, [sp], #-8

00003230 <l3086>:
    3230:	e2e33703 	rsc	r3, r3, #786432	; 0xc0000

00003234 <l3087>:
    3234:	5156000b 	cmppl	r6, fp

00003238 <l3088>:
    3238:	e13c0003 	teq	ip, r3

0000323c <l3089>:
    323c:	e119000c 	tst	r9, ip

00003240 <l3090>:
    3240:	903e006f 	eorsls	r0, lr, pc, rrx

00003244 <l3091>:
    3244:	e18c14a7 	orr	r1, ip, r7, lsr #9

00003248 <l3092>:
    3248:	e05f700f 	subs	r7, pc, pc

0000324c <l3093>:
    324c:	e2b76d15 	adcs	r6, r7, #1344	; 0x540

00003250 <l3094>:
    3250:	e54d401d 	strb	r4, [sp, #-29]

00003254 <l3095>:
    3254:	e1979065 	orrs	r9, r7, r5, rrx

00003258 <l3096>:
    3258:	e191ba5b 	orrs	fp, r1, fp, asr sl

0000325c <l3097>:
    325c:	e024186a 	eor	r1, r4, sl, ror #16

00003260 <l3098>:
    3260:	021b9dce 	andseq	r9, fp, #13184	; 0x3380

00003264 <l3099>:
    3264:	22ff000b 	rscscs	r0, pc, #11

00003268 <l3100>:
    3268:	e3a08024 	mov	r8, #36	; 0x24

0000326c <l3101>:
    326c:	e75db008 	ldrb	fp, [sp, -r8]

00003270 <l3102>:
    3270:	7135006a 	teqvc	r5, sl, rrx

00003274 <l3103>:
    3274:	e09e091b 	adds	r0, lr, fp, lsl r9

00003278 <l3104>:
    3278:	ea000001 	b	3284 <l3107>

0000327c <l3105>:
    327c:	317c0007 	cmncc	ip, r7

00003280 <l3106>:
    3280:	33a02a35 	movcc	r2, #217088	; 0x35000

00003284 <l3107>:
    3284:	71750006 	cmnvc	r5, r6

00003288 <l3108>:
    3288:	ea000002 	b	3298 <l3112>

0000328c <l3109>:
    328c:	e280108e 	add	r1, r0, #142	; 0x8e

00003290 <l3110>:
    3290:	e1e09a3a 	mvn	r9, sl, lsr sl

00003294 <l3111>:
    3294:	ea000000 	b	329c <l3113>

00003298 <l3112>:
    3298:	eafffffc 	b	3290 <l3110>

0000329c <l3113>:
    329c:	e5ddc00f 	ldrb	ip, [sp, #15]

000032a0 <l3114>:
    32a0:	002ea4a7 	eoreq	sl, lr, r7, lsr #9

000032a4 <l3115>:
    32a4:	e3a09024 	mov	r9, #36	; 0x24

000032a8 <l3116>:
    32a8:	e72d8009 	str	r8, [sp, -r9]!

000032ac <l3117>:
    32ac:	e3a01038 	mov	r1, #56	; 0x38

000032b0 <l3118>:
    32b0:	e68da001 	str	sl, [sp], r1

000032b4 <l3119>:
    32b4:	2077e147 	rsbscs	lr, r7, r7, asr #2

000032b8 <l3120>:
    32b8:	11f0830a 	mvnsne	r8, sl, lsl #6

000032bc <l3121>:
    32bc:	81e0577a 	mvnhi	r5, sl, ror r7

000032c0 <l3122>:
    32c0:	e0144065 	ands	r4, r4, r5, rrx

000032c4 <l3123>:
    32c4:	555d4030 	ldrbpl	r4, [sp, #-48]	; 0x30

000032c8 <l3124>:
    32c8:	a382347e 	orrge	r3, r2, #2113929216	; 0x7e000000

000032cc <l3125>:
    32cc:	e2a41262 	adc	r1, r4, #536870918	; 0x20000006

000032d0 <l3126>:
    32d0:	e0466ae4 	sub	r6, r6, r4, ror #21

000032d4 <l3127>:
    32d4:	63f04509 	mvnsvs	r4, #37748736	; 0x2400000

000032d8 <l3128>:
    32d8:	754d000d 	strbvc	r0, [sp, #-13]

000032dc <l3129>:
    32dc:	700c1066 	andvc	r1, ip, r6, rrx

000032e0 <l3130>:
    32e0:	60a7100a 	adcvs	r1, r7, sl

000032e4 <l3131>:
    32e4:	2094321a 	addscs	r3, r4, sl, lsl r2

000032e8 <l3132>:
    32e8:	e049500c 	sub	r5, r9, ip

000032ec <l3133>:
    32ec:	ea000005 	b	3308 <l3140>

000032f0 <l3134>:
    32f0:	e2801064 	add	r1, r0, #100	; 0x64

000032f4 <l3135>:
    32f4:	00ce24a9 	sbceq	r2, lr, r9, lsr #9

000032f8 <l3136>:
    32f8:	a16f4f15 	clzge	r4, r5

000032fc <l3137>:
    32fc:	70301001 	eorsvc	r1, r0, r1

00003300 <l3138>:
    3300:	e15c0ee2 	cmp	ip, r2, ror #29

00003304 <l3139>:
    3304:	ea000000 	b	330c <l3141>

00003308 <l3140>:
    3308:	eafffff9 	b	32f4 <l3135>

0000330c <l3141>:
    330c:	4a000007 	bmi	3330 <l3150>

00003310 <l3142>:
    3310:	e13a0c38 	teq	sl, r8, lsr ip

00003314 <l3143>:
    3314:	71862002 	orrvc	r2, r6, r2

00003318 <l3144>:
    3318:	e0c00001 	sbc	r0, r0, r1

0000331c <l3145>:
    331c:	b16fbf18 	clzlt	fp, r8

00003320 <l3146>:
    3320:	e079500a 	rsbs	r5, r9, sl

00003324 <l3147>:
    3324:	c052ef69 	subsgt	lr, r2, r9, ror #30

00003328 <l3148>:
    3328:	e1b08327 	lsrs	r8, r7, #6

0000332c <l3149>:
    332c:	71f0b061 	mvnsvc	fp, r1, rrx

00003330 <l3150>:
    3330:	e0e68003 	rsc	r8, r6, r3

00003334 <l3151>:
    3334:	e3a00b2e 	mov	r0, #47104	; 0xb800

00003338 <l3152>:
    3338:	125e67aa 	subsne	r6, lr, #44564480	; 0x2a80000

0000333c <l3153>:
    333c:	8a000004 	bhi	3354 <l3159>

00003340 <l3154>:
    3340:	e28010e8 	add	r1, r0, #232	; 0xe8

00003344 <l3155>:
    3344:	e1f01085 	mvns	r1, r5, lsl #1

00003348 <l3156>:
    3348:	e05a5aaa 	subs	r5, sl, sl, lsr #21

0000334c <l3157>:
    334c:	30ee700a 	rsccc	r7, lr, sl

00003350 <l3158>:
    3350:	ea000000 	b	3358 <l3160>

00003354 <l3159>:
    3354:	eafffffa 	b	3344 <l3155>

00003358 <l3160>:
    3358:	e1e0500f 	mvn	r5, pc

0000335c <l3161>:
    335c:	20810c76 	addcs	r0, r1, r6, ror ip

00003360 <l3162>:
    3360:	a0eec249 	rscge	ip, lr, r9, asr #4

00003364 <l3163>:
    3364:	e0659066 	rsb	r9, r5, r6, rrx

00003368 <l3164>:
    3368:	e055e06c 	subs	lr, r5, ip, rrx

0000336c <l3165>:
    336c:	e1360c64 	teq	r6, r4, ror #24

00003370 <l3166>:
    3370:	d0d6a00b 	sbcsle	sl, r6, fp

00003374 <l3167>:
    3374:	e15e0005 	cmp	lr, r5

00003378 <l3168>:
    3378:	811f0b2a 	tsthi	pc, sl, lsr #22

0000337c <l3169>:
    337c:	93f0892d 	mvnsls	r8, #737280	; 0xb4000

00003380 <l3170>:
    3380:	919f800e 	orrsls	r8, pc, lr

00003384 <l3171>:
    3384:	c3750d1f 	cmngt	r5, #1984	; 0x7c0

00003388 <l3172>:
    3388:	e35800f0 	cmp	r8, #240	; 0xf0

0000338c <l3173>:
    338c:	c1a07001 	movgt	r7, r1

00003390 <l3174>:
    3390:	054db034 	strbeq	fp, [sp, #-52]	; 0x34

00003394 <l3175>:
    3394:	e3140ab6 	tst	r4, #745472	; 0xb6000

00003398 <l3176>:
    3398:	e3540079 	cmp	r4, #121	; 0x79

0000339c <l3177>:
    339c:	e3887825 	orr	r7, r8, #2424832	; 0x250000

000033a0 <l3178>:
    33a0:	e16f9f13 	clz	r9, r3

000033a4 <l3179>:
    33a4:	e0d9974b 	sbcs	r9, r9, fp, asr #14

000033a8 <l3180>:
    33a8:	40132c72 	andsmi	r2, r3, r2, ror ip

000033ac <l3181>:
    33ac:	31a07577 	rorcc	r7, r7, r5

000033b0 <l3182>:
    33b0:	e1f09067 	mvns	r9, r7, rrx

000033b4 <l3183>:
    33b4:	321b30cd 	andscc	r3, fp, #205	; 0xcd

000033b8 <l3184>:
    33b8:	e1f07001 	mvns	r7, r1

000033bc <l3185>:
    33bc:	e15c0009 	cmp	ip, r9

000033c0 <l3186>:
    33c0:	e0e87735 	rsc	r7, r8, r5, lsr r7

000033c4 <l3187>:
    33c4:	81b01064 	rrxshi	r1, r4

000033c8 <l3188>:
    33c8:	71530002 	cmpvc	r3, r2

000033cc <l3189>:
    33cc:	e0609d8c 	rsb	r9, r0, ip, lsl #27

000033d0 <l3190>:
    33d0:	204c6001 	subcs	r6, ip, r1

000033d4 <l3191>:
    33d4:	42c670a8 	sbcmi	r7, r6, #168	; 0xa8

000033d8 <l3192>:
    33d8:	e184b00c 	orr	fp, r4, ip

000033dc <l3193>:
    33dc:	a1b05062 	rrxsge	r5, r2

000033e0 <l3194>:
    33e0:	20c6e003 	sbccs	lr, r6, r3

000033e4 <l3195>:
    33e4:	e16f9f1e 	clz	r9, lr

000033e8 <l3196>:
    33e8:	92be2ad1 	adcsls	r2, lr, #856064	; 0xd1000

000033ec <l3197>:
    33ec:	83710fb5 	cmnhi	r1, #724	; 0x2d4

000033f0 <l3198>:
    33f0:	e58d9008 	str	r9, [sp, #8]

000033f4 <l3199>:
    33f4:	e054b3c1 	subs	fp, r4, r1, asr #7

000033f8 <l3200>:
    33f8:	71b0e62b 	lsrsvc	lr, fp, #12

000033fc <l3201>:
    33fc:	a0b59064 	adcsge	r9, r5, r4, rrx

00003400 <l3202>:
    3400:	5a000004 	bpl	3418 <l3208>

00003404 <l3203>:
    3404:	e28010f9 	add	r1, r0, #249	; 0xf9

00003408 <l3204>:
    3408:	e114082a 	tst	r4, sl, lsr #16

0000340c <l3205>:
    340c:	e0636e37 	rsb	r6, r3, r7, lsr lr

00003410 <l3206>:
    3410:	817e0007 	cmnhi	lr, r7

00003414 <l3207>:
    3414:	ea000000 	b	341c <l3209>

00003418 <l3208>:
    3418:	eafffffa 	b	3408 <l3204>

0000341c <l3209>:
    341c:	10616c51 	rsbne	r6, r1, r1, asr ip

00003420 <l3210>:
    3420:	4a000004 	bmi	3438 <l3216>

00003424 <l3211>:
    3424:	e28010af 	add	r1, r0, #175	; 0xaf

00003428 <l3212>:
    3428:	e04a127e 	sub	r1, sl, lr, ror r2

0000342c <l3213>:
    342c:	e1560008 	cmp	r6, r8

00003430 <l3214>:
    3430:	e1f0200b 	mvns	r2, fp

00003434 <l3215>:
    3434:	ea000000 	b	343c <l3217>

00003438 <l3216>:
    3438:	eafffffa 	b	3428 <l3212>

0000343c <l3217>:
    343c:	71570e3b 	cmpvc	r7, fp, lsr lr

00003440 <l3218>:
    3440:	93b00781 	movsls	r0, #33816576	; 0x2040000

00003444 <l3219>:
    3444:	91d06002 	bicsls	r6, r0, r2

00003448 <l3220>:
    3448:	ca000002 	bgt	3458 <l3224>

0000344c <l3221>:
    344c:	b173025e 	cmnlt	r3, lr, asr r2

00003450 <l3222>:
    3450:	e080a004 	add	sl, r0, r4

00003454 <l3223>:
    3454:	12e75e19 	rscne	r5, r7, #400	; 0x190

00003458 <l3224>:
    3458:	c16f8f1a 	clzgt	r8, sl

0000345c <l3225>:
    345c:	e19a4738 	orrs	r4, sl, r8, lsr r7

00003460 <l3226>:
    3460:	aa000003 	bge	3474 <l3231>

00003464 <l3227>:
    3464:	e2ff018e 	rscs	r0, pc, #-2147483613	; 0x80000023

00003468 <l3228>:
    3468:	61570c1a 	cmpvs	r7, sl, lsl ip

0000346c <l3229>:
    346c:	e233150e 	eors	r1, r3, #58720256	; 0x3800000

00003470 <l3230>:
    3470:	c0544de7 	subsgt	r4, r4, r7, ror #27

00003474 <l3231>:
    3474:	61160e83 	tstvs	r6, r3, lsl #29

00003478 <l3232>:
    3478:	e024cb1e 	eor	ip, r4, lr, lsl fp

0000347c <l3233>:
    347c:	e074a132 	rsbs	sl, r4, r2, lsr r1

00003480 <l3234>:
    3480:	e2ac3703 	adc	r3, ip, #786432	; 0xc0000

00003484 <l3235>:
    3484:	e1580005 	cmp	r8, r5

00003488 <l3236>:
    3488:	d06fb06c 	rsble	fp, pc, ip, rrx

0000348c <l3237>:
    348c:	33f0cdc6 	mvnscc	ip, #12672	; 0x3180

00003490 <l3238>:
    3490:	ea000001 	b	349c <l3241>

00003494 <l3239>:
    3494:	b0d82651 	sbcslt	r2, r8, r1, asr r6

00003498 <l3240>:
    3498:	13c57677 	bicne	r7, r5, #124780544	; 0x7700000

0000349c <l3241>:
    349c:	90db9759 	sbcsls	r9, fp, r9, asr r7

000034a0 <l3242>:
    34a0:	b001b005 	andlt	fp, r1, r5

000034a4 <l3243>:
    34a4:	31f09323 	mvnscc	r9, r3, lsr #6

000034a8 <l3244>:
    34a8:	e251cad5 	subs	ip, r1, #872448	; 0xd5000

000034ac <l3245>:
    34ac:	ea000002 	b	34bc <l3249>

000034b0 <l3246>:
    34b0:	e2801022 	add	r1, r0, #34	; 0x22

000034b4 <l3247>:
    34b4:	00078dc5 	andeq	r8, r7, r5, asr #27

000034b8 <l3248>:
    34b8:	ea000000 	b	34c0 <l3250>

000034bc <l3249>:
    34bc:	eafffffc 	b	34b4 <l3247>

000034c0 <l3250>:
    34c0:	00310779 	eorseq	r0, r1, r9, ror r7

000034c4 <l3251>:
    34c4:	ea000002 	b	34d4 <l3255>

000034c8 <l3252>:
    34c8:	22d1633e 	sbcscs	r6, r1, #-134217728	; 0xf8000000

000034cc <l3253>:
    34cc:	e0d34062 	sbcs	r4, r3, r2, rrx

000034d0 <l3254>:
    34d0:	e04ea5a3 	sub	sl, lr, r3, lsr #11

000034d4 <l3255>:
    34d4:	c0438c04 	subgt	r8, r3, r4, lsl #24

000034d8 <l3256>:
    34d8:	7332086b 	teqvc	r2, #7012352	; 0x6b0000

000034dc <l3257>:
    34dc:	e1803cc8 	orr	r3, r0, r8, asr #25

000034e0 <l3258>:
    34e0:	e41d9018 	ldr	r9, [sp], #-24

000034e4 <l3259>:
    34e4:	405c5114 	subsmi	r5, ip, r4, lsl r1

000034e8 <l3260>:
    34e8:	6a000003 	bvs	34fc <l3265>

000034ec <l3261>:
    34ec:	616f3f15 	clzvs	r3, r5

000034f0 <l3262>:
    34f0:	e0de1ee1 	sbcs	r1, lr, r1, ror #29

000034f4 <l3263>:
    34f4:	b197600a 	orrslt	r6, r7, sl

000034f8 <l3264>:
    34f8:	0245cb35 	subeq	ip, r5, #54272	; 0xd400

000034fc <l3265>:
    34fc:	516fef16 	clzpl	lr, r6

00003500 <l3266>:
    3500:	e3a03007 	mov	r3, #7

00003504 <l3267>:
    3504:	775d6003 	ldrbvc	r6, [sp, -r3]

00003508 <l3268>:
    3508:	515e0009 	cmppl	lr, r9

0000350c <l3269>:
    350c:	aa000004 	bge	3524 <l3275>

00003510 <l3270>:
    3510:	e2801010 	add	r1, r0, #16

00003514 <l3271>:
    3514:	e1817064 	orr	r7, r1, r4, rrx

00003518 <l3272>:
    3518:	6199c06a 	orrsvs	ip, r9, sl, rrx

0000351c <l3273>:
    351c:	e0d67144 	sbcs	r7, r6, r4, asr #2

00003520 <l3274>:
    3520:	ea000000 	b	3528 <l3276>

00003524 <l3275>:
    3524:	eafffffa 	b	3514 <l3271>

00003528 <l3276>:
    3528:	016f0f1a 	clzeq	r0, sl

0000352c <l3277>:
    352c:	20376006 	eorscs	r6, r7, r6

00003530 <l3278>:
    3530:	054d301d 	strbeq	r3, [sp, #-29]

00003534 <l3279>:
    3534:	e06ac5a7 	rsb	ip, sl, r7, lsr #11

00003538 <l3280>:
    3538:	e1300863 	teq	r0, r3, ror #16

0000353c <l3281>:
    353c:	e139005b 	teq	r9, fp, asr r0

00003540 <l3282>:
    3540:	e17c095c 	cmn	ip, ip, asr r9

00003544 <l3283>:
    3544:	e13e000b 	teq	lr, fp

00003548 <l3284>:
    3548:	1053806e 	subsne	r8, r3, lr, rrx

0000354c <l3285>:
    354c:	90556062 	subsls	r6, r5, r2, rrx

00003550 <l3286>:
    3550:	a1a02254 	asrge	r2, r4, r2

00003554 <l3287>:
    3554:	e0109011 	ands	r9, r0, r1, lsl r0

00003558 <l3288>:
    3558:	2a000008 	bcs	3580 <l3298>

0000355c <l3289>:
    355c:	e02ea00b 	eor	sl, lr, fp

00003560 <l3290>:
    3560:	e0538069 	subs	r8, r3, r9, rrx

00003564 <l3291>:
    3564:	e00e2006 	and	r2, lr, r6

00003568 <l3292>:
    3568:	e099900e 	adds	r9, r9, lr

0000356c <l3293>:
    356c:	e05f700c 	subs	r7, pc, ip

00003570 <l3294>:
    3570:	e012806e 	ands	r8, r2, lr, rrx

00003574 <l3295>:
    3574:	b16f4f17 	clzlt	r4, r7

00003578 <l3296>:
    3578:	816fbf17 	clzhi	fp, r7

0000357c <l3297>:
    357c:	908e7009 	addls	r7, lr, r9

00003580 <l3298>:
    3580:	715404e2 	cmpvc	r4, r2, ror #9

00003584 <l3299>:
    3584:	7a000004 	bvc	359c <l3305>

00003588 <l3300>:
    3588:	e28010a8 	add	r1, r0, #168	; 0xa8

0000358c <l3301>:
    358c:	e196aa6f 	orrs	sl, r6, pc, ror #20

00003590 <l3302>:
    3590:	50593747 	subspl	r3, r9, r7, asr #14

00003594 <l3303>:
    3594:	e3e0ac73 	mvn	sl, #29440	; 0x7300

00003598 <l3304>:
    3598:	ea000000 	b	35a0 <l3306>

0000359c <l3305>:
    359c:	eafffffa 	b	358c <l3301>

000035a0 <l3306>:
    35a0:	d0306003 	eorsle	r6, r0, r3

000035a4 <l3307>:
    35a4:	e16f9f19 	clz	r9, r9

000035a8 <l3308>:
    35a8:	e2130101 	ands	r0, r3, #1073741824	; 0x40000000

000035ac <l3309>:
    35ac:	e1a07004 	mov	r7, r4

000035b0 <l3310>:
    35b0:	43b00fad 	movsmi	r0, #692	; 0x2b4

000035b4 <l3311>:
    35b4:	ea000006 	b	35d4 <l3319>

000035b8 <l3312>:
    35b8:	e2801031 	add	r1, r0, #49	; 0x31

000035bc <l3313>:
    35bc:	e1c0c00c 	bic	ip, r0, ip

000035c0 <l3314>:
    35c0:	53c54b2f 	bicpl	r4, r5, #48128	; 0xbc00

000035c4 <l3315>:
    35c4:	222ca4de 	eorcs	sl, ip, #-570425344	; 0xde000000

000035c8 <l3316>:
    35c8:	70678c36 	rsbvc	r8, r7, r6, lsr ip

000035cc <l3317>:
    35cc:	e0a9233e 	adc	r2, r9, lr, lsr r3

000035d0 <l3318>:
    35d0:	ea000000 	b	35d8 <l3320>

000035d4 <l3319>:
    35d4:	eafffff8 	b	35bc <l3313>

000035d8 <l3320>:
    35d8:	e3d02dd1 	bics	r2, r0, #13376	; 0x3440

000035dc <l3321>:
    35dc:	e2d34417 	sbcs	r4, r3, #385875968	; 0x17000000

000035e0 <l3322>:
    35e0:	e3a05004 	mov	r5, #4

000035e4 <l3323>:
    35e4:	17cdc005 	strbne	ip, [sp, r5]

000035e8 <l3324>:
    35e8:	ba000003 	blt	35fc <l3329>

000035ec <l3325>:
    35ec:	e28010a6 	add	r1, r0, #166	; 0xa6

000035f0 <l3326>:
    35f0:	b042617b 	sublt	r6, r2, fp, ror r1

000035f4 <l3327>:
    35f4:	e1340511 	teq	r4, r1, lsl r5

000035f8 <l3328>:
    35f8:	ea000000 	b	3600 <l3330>

000035fc <l3329>:
    35fc:	eafffffb 	b	35f0 <l3326>

00003600 <l3330>:
    3600:	21c0cb2a 	biccs	ip, r0, sl, lsr #22

00003604 <l3331>:
    3604:	ea000004 	b	361c <l3337>

00003608 <l3332>:
    3608:	e28010dd 	add	r1, r0, #221	; 0xdd

0000360c <l3333>:
    360c:	e0466002 	sub	r6, r6, r2

00003610 <l3334>:
    3610:	e3330831 	teq	r3, #3211264	; 0x310000

00003614 <l3335>:
    3614:	e1b05a5a 	asrs	r5, sl, sl

00003618 <l3336>:
    3618:	ea000000 	b	3620 <l3338>

0000361c <l3337>:
    361c:	eafffffa 	b	360c <l3333>

00003620 <l3338>:
    3620:	4a000006 	bmi	3640 <l3346>

00003624 <l3339>:
    3624:	2092977a 	addscs	r9, r2, sl, ror r7

00003628 <l3340>:
    3628:	50153421 	andspl	r3, r5, r1, lsr #8

0000362c <l3341>:
    362c:	3027ce4f 	eorcc	ip, r7, pc, asr #28

00003630 <l3342>:
    3630:	e077200b 	rsbs	r2, r7, fp

00003634 <l3343>:
    3634:	e093b111 	adds	fp, r3, r1, lsl r1

00003638 <l3344>:
    3638:	e16f7f1e 	clz	r7, lr

0000363c <l3345>:
    363c:	e3760e62 	cmn	r6, #1568	; 0x620

00003640 <l3346>:
    3640:	23f07b0e 	mvnscs	r7, #14336	; 0x3800

00003644 <l3347>:
    3644:	e3a02026 	mov	r2, #38	; 0x26

00003648 <l3348>:
    3648:	97dd6002 	ldrbls	r6, [sp, r2]

0000364c <l3349>:
    364c:	c04ec07a 	subgt	ip, lr, sl, ror r0

00003650 <l3350>:
    3650:	43180007 	tstmi	r8, #7

00003654 <l3351>:
    3654:	1a000006 	bne	3674 <l3359>

00003658 <l3352>:
    3658:	e2801051 	add	r1, r0, #81	; 0x51

0000365c <l3353>:
    365c:	90ee506b 	rscls	r5, lr, fp, rrx

00003660 <l3354>:
    3660:	624306fa 	subvs	r0, r3, #262144000	; 0xfa00000

00003664 <l3355>:
    3664:	e049a064 	sub	sl, r9, r4, rrx

00003668 <l3356>:
    3668:	e3d59ea5 	bics	r9, r5, #2640	; 0xa50

0000366c <l3357>:
    366c:	624eaeca 	subvs	sl, lr, #3232	; 0xca0

00003670 <l3358>:
    3670:	ea000000 	b	3678 <l3360>

00003674 <l3359>:
    3674:	eafffff8 	b	365c <l3353>

00003678 <l3360>:
    3678:	e2645a3a 	rsb	r5, r4, #237568	; 0x3a000

0000367c <l3361>:
    367c:	016f3f1c 	clzeq	r3, ip

00003680 <l3362>:
    3680:	43f08209 	mvnsmi	r8, #-1879048192	; 0x90000000

00003684 <l3363>:
    3684:	c3e0cbe1 	mvngt	ip, #230400	; 0x38400

00003688 <l3364>:
    3688:	e1d56065 	bics	r6, r5, r5, rrx

0000368c <l3365>:
    368c:	e028a7eb 	eor	sl, r8, fp, ror #15

00003690 <l3366>:
    3690:	92469d3f 	subls	r9, r6, #4032	; 0xfc0

00003694 <l3367>:
    3694:	b1f007a9 	mvnslt	r0, r9, lsr #15

00003698 <l3368>:
    3698:	e48dc000 	str	ip, [sp], #0

0000369c <l3369>:
    369c:	e1b06a11 	lsls	r6, r1, sl

000036a0 <l3370>:
    36a0:	c1e01000 	mvngt	r1, r0

000036a4 <l3371>:
    36a4:	e2022271 	and	r2, r2, #268435463	; 0x10000007

000036a8 <l3372>:
    36a8:	e13a000c 	teq	sl, ip

000036ac <l3373>:
    36ac:	b1730005 	cmnlt	r3, r5

000036b0 <l3374>:
    36b0:	2a000000 	bcs	36b8 <l3376>

000036b4 <l3375>:
    36b4:	e16f9f19 	clz	r9, r9

000036b8 <l3376>:
    36b8:	931901a5 	tstls	r9, #1073741865	; 0x40000029

000036bc <l3377>:
    36bc:	e11f0000 	tst	pc, r0

000036c0 <l3378>:
    36c0:	709b437b 	addsvc	r4, fp, fp, ror r3

000036c4 <l3379>:
    36c4:	016f1f18 	clzeq	r1, r8

000036c8 <l3380>:
    36c8:	418607a9 	orrmi	r0, r6, r9, lsr #15

000036cc <l3381>:
    36cc:	e0b61006 	adcs	r1, r6, r6

000036d0 <l3382>:
    36d0:	71770933 	cmnvc	r7, r3, lsr r9

000036d4 <l3383>:
    36d4:	e5cdb01c 	strb	fp, [sp, #28]

000036d8 <l3384>:
    36d8:	d16f5f12 	clzle	r5, r2

000036dc <l3385>:
    36dc:	7a000003 	bvc	36f0 <l3390>

000036e0 <l3386>:
    36e0:	505fc007 	subspl	ip, pc, r7

000036e4 <l3387>:
    36e4:	418aa472 	orrmi	sl, sl, r2, ror r4

000036e8 <l3388>:
    36e8:	60565064 	subsvs	r5, r6, r4, rrx

000036ec <l3389>:
    36ec:	e034e151 	eors	lr, r4, r1, asr r1

000036f0 <l3390>:
    36f0:	911802af 	tstls	r8, pc, lsr #5

000036f4 <l3391>:
    36f4:	50bfe78c 	adcspl	lr, pc, ip, lsl #15

000036f8 <l3392>:
    36f8:	e0b00004 	adcs	r0, r0, r4

000036fc <l3393>:
    36fc:	83f0758e 	mvnshi	r7, #595591168	; 0x23800000

00003700 <l3394>:
    3700:	e1b0e008 	movs	lr, r8

00003704 <l3395>:
    3704:	71710008 	cmnvc	r1, r8

00003708 <l3396>:
    3708:	e3a06018 	mov	r6, #24

0000370c <l3397>:
    370c:	e71da006 	ldr	sl, [sp, -r6]

00003710 <l3398>:
    3710:	51c85f8b 	bicpl	r5, r8, fp, lsl #31

00003714 <l3399>:
    3714:	e55d0005 	ldrb	r0, [sp, #-5]

00003718 <l3400>:
    3718:	e20166ab 	and	r6, r1, #179306496	; 0xab00000

0000371c <l3401>:
    371c:	20851002 	addcs	r1, r5, r2

00003720 <l3402>:
    3720:	11e02006 	mvnne	r2, r6

00003724 <l3403>:
    3724:	7a000004 	bvc	373c <l3409>

00003728 <l3404>:
    3728:	e28010e0 	add	r1, r0, #224	; 0xe0

0000372c <l3405>:
    372c:	e3dbac2a 	bics	sl, fp, #10752	; 0x2a00

00003730 <l3406>:
    3730:	d1530375 	cmple	r3, r5, ror r3

00003734 <l3407>:
    3734:	8060e000 	rsbhi	lr, r0, r0

00003738 <l3408>:
    3738:	ea000000 	b	3740 <l3410>

0000373c <l3409>:
    373c:	eafffffa 	b	372c <l3405>

00003740 <l3410>:
    3740:	e1942001 	orrs	r2, r4, r1

00003744 <l3411>:
    3744:	016fcf11 	clzeq	ip, r1

00003748 <l3412>:
    3748:	40166008 	andsmi	r6, r6, r8

0000374c <l3413>:
    374c:	d0f23061 	rscsle	r3, r2, r1, rrx

00003750 <l3414>:
    3750:	eaffffff 	b	3754 <l3415>

00003754 <l3415>:
    3754:	e371036e 	cmn	r1, #-1207959551	; 0xb8000001

00003758 <l3416>:
    3758:	e0578ae2 	subs	r8, r7, r2, ror #21

0000375c <l3417>:
    375c:	716f6f1c 	clzvc	r6, ip

00003760 <l3418>:
    3760:	e3b0253e 	movs	r2, #260046848	; 0xf800000

00003764 <l3419>:
    3764:	01c80ba2 	biceq	r0, r8, r2, lsr #23

00003768 <l3420>:
    3768:	504c660f 	subpl	r6, ip, pc, lsl #12

0000376c <l3421>:
    376c:	a15e000f 	cmpge	lr, pc

00003770 <l3422>:
    3770:	908f800e 	addls	r8, pc, lr

00003774 <l3423>:
    3774:	d0e16237 	rscle	r6, r1, r7, lsr r2

00003778 <l3424>:
    3778:	e1330ba1 	teq	r3, r1, lsr #23

0000377c <l3425>:
    377c:	e3e055da 	mvn	r5, #914358272	; 0x36800000

00003780 <l3426>:
    3780:	216fbf19 	clzcs	fp, r9

00003784 <l3427>:
    3784:	01cc6005 	biceq	r6, ip, r5

00003788 <l3428>:
    3788:	63550167 	cmpvs	r5, #-1073741799	; 0xc0000019

0000378c <l3429>:
    378c:	ea000004 	b	37a4 <l3435>

00003790 <l3430>:
    3790:	e2801021 	add	r1, r0, #33	; 0x21

00003794 <l3431>:
    3794:	0177006b 	cmneq	r7, fp, rrx

00003798 <l3432>:
    3798:	42877ebe 	addmi	r7, r7, #3040	; 0xbe0

0000379c <l3433>:
    379c:	e314068a 	tst	r4, #144703488	; 0x8a00000

000037a0 <l3434>:
    37a0:	ea000000 	b	37a8 <l3436>

000037a4 <l3435>:
    37a4:	eafffffa 	b	3794 <l3431>

000037a8 <l3436>:
    37a8:	e16f3f10 	clz	r3, r0

000037ac <l3437>:
    37ac:	e19c9c70 	orrs	r9, ip, r0, ror ip

000037b0 <l3438>:
    37b0:	c16fbf11 	clzgt	fp, r1

000037b4 <l3439>:
    37b4:	b5cdc021 	strblt	ip, [sp, #33]	; 0x21

000037b8 <l3440>:
    37b8:	7a000003 	bvc	37cc <l3445>

000037bc <l3441>:
    37bc:	c17e0115 	cmngt	lr, r5, lsl r1

000037c0 <l3442>:
    37c0:	e1520002 	cmp	r2, r2

000037c4 <l3443>:
    37c4:	605f32aa 	subsvs	r3, pc, sl, lsr #5

000037c8 <l3444>:
    37c8:	c11f0006 	tstgt	pc, r6

000037cc <l3445>:
    37cc:	c223606b 	eorgt	r6, r3, #107	; 0x6b

000037d0 <l3446>:
    37d0:	ea000006 	b	37f0 <l3454>

000037d4 <l3447>:
    37d4:	e28010a5 	add	r1, r0, #165	; 0xa5

000037d8 <l3448>:
    37d8:	20434064 	subcs	r4, r3, r4, rrx

000037dc <l3449>:
    37dc:	e051a91a 	subs	sl, r1, sl, lsl r9

000037e0 <l3450>:
    37e0:	5080e11b 	addpl	lr, r0, fp, lsl r1

000037e4 <l3451>:
    37e4:	52a0268e 	adcpl	r2, r0, #148897792	; 0x8e00000

000037e8 <l3452>:
    37e8:	53110d33 	tstpl	r1, #3264	; 0xcc0

000037ec <l3453>:
    37ec:	ea000000 	b	37f4 <l3455>

000037f0 <l3454>:
    37f0:	eafffff8 	b	37d8 <l3448>

000037f4 <l3455>:
    37f4:	c196c000 	orrsgt	ip, r6, r0

000037f8 <l3456>:
    37f8:	e1170638 	tst	r7, r8, lsr r6

000037fc <l3457>:
    37fc:	81d71067 	bicshi	r1, r7, r7, rrx

00003800 <l3458>:
    3800:	e55d900b 	ldrb	r9, [sp, #-11]

00003804 <l3459>:
    3804:	33f0b273 	mvnscc	fp, #805306375	; 0x30000007

00003808 <l3460>:
    3808:	e0516e39 	subs	r6, r1, r9, lsr lr

0000380c <l3461>:
    380c:	e2232941 	eor	r2, r3, #1064960	; 0x104000

00003810 <l3462>:
    3810:	00209009 	eoreq	r9, r0, r9

00003814 <l3463>:
    3814:	2043406c 	subcs	r4, r3, ip, rrx

00003818 <l3464>:
    3818:	e269ba99 	rsb	fp, r9, #626688	; 0x99000

0000381c <l3465>:
    381c:	e0bb4005 	adcs	r4, fp, r5

00003820 <l3466>:
    3820:	919e145b 	orrsls	r1, lr, fp, asr r4

00003824 <l3467>:
    3824:	ea000002 	b	3834 <l3471>

00003828 <l3468>:
    3828:	e2801090 	add	r1, r0, #144	; 0x90

0000382c <l3469>:
    382c:	d1190367 	tstle	r9, r7, ror #6

00003830 <l3470>:
    3830:	ea000000 	b	3838 <l3472>

00003834 <l3471>:
    3834:	eafffffc 	b	382c <l3469>

00003838 <l3472>:
    3838:	b0589575 	subslt	r9, r8, r5, ror r5

0000383c <l3473>:
    383c:	22fb7101 	rscscs	r7, fp, #1073741824	; 0x40000000

00003840 <l3474>:
    3840:	e1c6c003 	bic	ip, r6, r3

00003844 <l3475>:
    3844:	e0c0a064 	sbc	sl, r0, r4, rrx

00003848 <l3476>:
    3848:	e40de020 	str	lr, [sp], #-32

0000384c <l3477>:
    384c:	31d0213b 	bicscc	r2, r0, fp, lsr r1

00003850 <l3478>:
    3850:	4387b801 	orrmi	fp, r7, #65536	; 0x10000

00003854 <l3479>:
    3854:	e058e516 	subs	lr, r8, r6, lsl r5

00003858 <l3480>:
    3858:	ea000004 	b	3870 <l3486>

0000385c <l3481>:
    385c:	e2801079 	add	r1, r0, #121	; 0x79

00003860 <l3482>:
    3860:	10ea5002 	rscne	r5, sl, r2

00003864 <l3483>:
    3864:	e1f0e6a9 	mvns	lr, r9, lsr #13

00003868 <l3484>:
    3868:	e1190003 	tst	r9, r3

0000386c <l3485>:
    386c:	ea000000 	b	3874 <l3487>

00003870 <l3486>:
    3870:	eafffffa 	b	3860 <l3482>

00003874 <l3487>:
    3874:	e023e002 	eor	lr, r3, r2

00003878 <l3488>:
    3878:	0133000a 	teqeq	r3, sl

0000387c <l3489>:
    387c:	d13f0b03 	teqle	pc, r3, lsl #22

00003880 <l3490>:
    3880:	205ac45a 	subscs	ip, sl, sl, asr r4

00003884 <l3491>:
    3884:	e1f05c76 	mvns	r5, r6, ror ip

00003888 <l3492>:
    3888:	60c02007 	sbcvs	r2, r0, r7

0000388c <l3493>:
    388c:	1a000007 	bne	38b0 <l3502>

00003890 <l3494>:
    3890:	919beba1 	orrsls	lr, fp, r1, lsr #23

00003894 <l3495>:
    3894:	e3917b02 	orrs	r7, r1, #2048	; 0x800

00003898 <l3496>:
    3898:	e0c84000 	sbc	r4, r8, r0

0000389c <l3497>:
    389c:	c110000f 	tstgt	r0, pc

000038a0 <l3498>:
    38a0:	e0df1000 	sbcs	r1, pc, r0

000038a4 <l3499>:
    38a4:	80411777 	subhi	r1, r1, r7, ror r7

000038a8 <l3500>:
    38a8:	d16faf1e 	clzle	sl, lr

000038ac <l3501>:
    38ac:	e0b233c6 	adcs	r3, r2, r6, asr #7

000038b0 <l3502>:
    38b0:	e0fbb00f 	rscs	fp, fp, pc

000038b4 <l3503>:
    38b4:	e01fb009 	ands	fp, pc, r9

000038b8 <l3504>:
    38b8:	6a000008 	bvs	38e0 <l3514>

000038bc <l3505>:
    38bc:	e04a2004 	sub	r2, sl, r4

000038c0 <l3506>:
    38c0:	b38b3a92 	orrlt	r3, fp, #598016	; 0x92000

000038c4 <l3507>:
    38c4:	90294006 	eorls	r4, r9, r6

000038c8 <l3508>:
    38c8:	918cc5ea 	orrls	ip, ip, sl, ror #11

000038cc <l3509>:
    38cc:	e042200b 	sub	r2, r2, fp

000038d0 <l3510>:
    38d0:	e1f0a42f 	mvns	sl, pc, lsr #8

000038d4 <l3511>:
    38d4:	80fb9065 	rscshi	r9, fp, r5, rrx

000038d8 <l3512>:
    38d8:	d0241000 	eorle	r1, r4, r0

000038dc <l3513>:
    38dc:	20763ce6 	rsbscs	r3, r6, r6, ror #25

000038e0 <l3514>:
    38e0:	e16f4f15 	clz	r4, r5

000038e4 <l3515>:
    38e4:	008b8062 	addeq	r8, fp, r2, rrx

000038e8 <l3516>:
    38e8:	c0888936 	addgt	r8, r8, r6, lsr r9

000038ec <l3517>:
    38ec:	d1b09008 	movsle	r9, r8

000038f0 <l3518>:
    38f0:	8035c906 	eorshi	ip, r5, r6, lsl #18

000038f4 <l3519>:
    38f4:	a006200b 	andge	r2, r6, fp

000038f8 <l3520>:
    38f8:	01b07008 	movseq	r7, r8

000038fc <l3521>:
    38fc:	81140e8a 	tsthi	r4, sl, lsl #29

00003900 <l3522>:
    3900:	e154006b 	cmp	r4, fp, rrx

00003904 <l3523>:
    3904:	b03bb000 	eorslt	fp, fp, r0

00003908 <l3524>:
    3908:	e19b0b30 	orrs	r0, fp, r0, lsr fp

0000390c <l3525>:
    390c:	e16f3f14 	clz	r3, r4

00003910 <l3526>:
    3910:	a1f0900e 	mvnsge	r9, lr

00003914 <l3527>:
    3914:	e3a0701c 	mov	r7, #28

00003918 <l3528>:
    3918:	e69da007 	ldr	sl, [sp], r7

0000391c <l3529>:
    391c:	ea000002 	b	392c <l3533>

00003920 <l3530>:
    3920:	e2801020 	add	r1, r0, #32

00003924 <l3531>:
    3924:	01560a4b 	cmpeq	r6, fp, asr #20

00003928 <l3532>:
    3928:	ea000000 	b	3930 <l3534>

0000392c <l3533>:
    392c:	eafffffc 	b	3924 <l3531>

00003930 <l3534>:
    3930:	e3a07020 	mov	r7, #32

00003934 <l3535>:
    3934:	e78d2007 	str	r2, [sp, r7]

00003938 <l3536>:
    3938:	e1a0500a 	mov	r5, sl

0000393c <l3537>:
    393c:	e117000b 	tst	r7, fp

00003940 <l3538>:
    3940:	aa000003 	bge	3954 <l3543>

00003944 <l3539>:
    3944:	e280103c 	add	r1, r0, #60	; 0x3c

00003948 <l3540>:
    3948:	e35400cf 	cmp	r4, #207	; 0xcf

0000394c <l3541>:
    394c:	e0482658 	sub	r2, r8, r8, asr r6

00003950 <l3542>:
    3950:	ea000000 	b	3958 <l3544>

00003954 <l3543>:
    3954:	eafffffb 	b	3948 <l3540>

00003958 <l3544>:
    3958:	e1330064 	teq	r3, r4, rrx

0000395c <l3545>:
    395c:	10f8500e 	rscsne	r5, r8, lr

00003960 <l3546>:
    3960:	035c0232 	cmpeq	ip, #536870915	; 0x20000003

00003964 <l3547>:
    3964:	923be40e 	eorsls	lr, fp, #234881024	; 0xe000000

00003968 <l3548>:
    3968:	83876809 	orrhi	r6, r7, #589824	; 0x90000

0000396c <l3549>:
    396c:	e1c7a009 	bic	sl, r7, r9

00003970 <l3550>:
    3970:	b02a76c5 	eorlt	r7, sl, r5, asr #13

00003974 <l3551>:
    3974:	d337081f 	teqle	r7, #2031616	; 0x1f0000

00003978 <l3552>:
    3978:	2334017e 	teqcs	r4, #-2147483617	; 0x8000001f

0000397c <l3553>:
    397c:	e1895008 	orr	r5, r9, r8

00003980 <l3554>:
    3980:	e0218002 	eor	r8, r1, r2

00003984 <l3555>:
    3984:	e11f0006 	tst	pc, r6

00003988 <l3556>:
    3988:	e1e0900b 	mvn	r9, fp

0000398c <l3557>:
    398c:	122420c0 	eorne	r2, r4, #192	; 0xc0

00003990 <l3558>:
    3990:	e3d722aa 	bics	r2, r7, #-1610612726	; 0xa000000a

00003994 <l3559>:
    3994:	6a000006 	bvs	39b4 <l3567>

00003998 <l3560>:
    3998:	e28010b9 	add	r1, r0, #185	; 0xb9

0000399c <l3561>:
    399c:	e191963e 	orrs	r9, r1, lr, lsr r6

000039a0 <l3562>:
    39a0:	60976119 	addsvs	r6, r7, r9, lsl r1

000039a4 <l3563>:
    39a4:	a31908ad 	tstge	r9, #11337728	; 0xad0000

000039a8 <l3564>:
    39a8:	e384bd07 	orr	fp, r4, #448	; 0x1c0

000039ac <l3565>:
    39ac:	e0ec7000 	rsc	r7, ip, r0

000039b0 <l3566>:
    39b0:	ea000000 	b	39b8 <l3568>

000039b4 <l3567>:
    39b4:	eafffff8 	b	399c <l3561>

000039b8 <l3568>:
    39b8:	a16f3f10 	clzge	r3, r0

000039bc <l3569>:
    39bc:	90400e78 	subls	r0, r0, r8, ror lr

000039c0 <l3570>:
    39c0:	c1300009 	teqgt	r0, r9

000039c4 <l3571>:
    39c4:	e48d6028 	str	r6, [sp], #40	; 0x28

000039c8 <l3572>:
    39c8:	635f00b4 	cmpvs	pc, #180	; 0xb4

000039cc <l3573>:
    39cc:	501064a8 	andspl	r6, r0, r8, lsr #9

000039d0 <l3574>:
    39d0:	016f1f19 	clzeq	r1, r9

000039d4 <l3575>:
    39d4:	a386b0d0 	orrge	fp, r6, #208	; 0xd0

000039d8 <l3576>:
    39d8:	e139074e 	teq	r9, lr, asr #14

000039dc <l3577>:
    39dc:	e032aa10 	eors	sl, r2, r0, lsl sl

000039e0 <l3578>:
    39e0:	41510007 	cmpmi	r1, r7

000039e4 <l3579>:
    39e4:	e3979325 	orrs	r9, r7, #-1811939328	; 0x94000000

000039e8 <l3580>:
    39e8:	a046500a 	subge	r5, r6, sl

000039ec <l3581>:
    39ec:	d0145755 	andsle	r5, r4, r5, asr r7

000039f0 <l3582>:
    39f0:	818f5fc9 	orrhi	r5, pc, r9, asr #31

000039f4 <l3583>:
    39f4:	e023c12c 	eor	ip, r3, ip, lsr #2

000039f8 <l3584>:
    39f8:	a0e980ec 	rscge	r8, r9, ip, ror #1

000039fc <l3585>:
    39fc:	e3a0400c 	mov	r4, #12

00003a00 <l3586>:
    3a00:	e71de004 	ldr	lr, [sp, -r4]

00003a04 <l3587>:
    3a04:	e3a0a038 	mov	sl, #56	; 0x38

00003a08 <l3588>:
    3a08:	e75d100a 	ldrb	r1, [sp, -sl]

00003a0c <l3589>:
    3a0c:	e09c9002 	adds	r9, ip, r2

00003a10 <l3590>:
    3a10:	12090d23 	andne	r0, r9, #2240	; 0x8c0

00003a14 <l3591>:
    3a14:	e1894852 	orr	r4, r9, r2, asr r8

00003a18 <l3592>:
    3a18:	e3a0e007 	mov	lr, #7

00003a1c <l3593>:
    3a1c:	b74d100e 	strblt	r1, [sp, -lr]

00003a20 <l3594>:
    3a20:	950d1028 	strls	r1, [sp, #-40]	; 0x28

00003a24 <l3595>:
    3a24:	e1dc7b5c 	bics	r7, ip, ip, asr fp

00003a28 <l3596>:
    3a28:	e2844d12 	add	r4, r4, #1152	; 0x480

00003a2c <l3597>:
    3a2c:	33810a29 	orrcc	r0, r1, #167936	; 0x29000

00003a30 <l3598>:
    3a30:	82382103 	eorshi	r2, r8, #-1073741824	; 0xc0000000

00003a34 <l3599>:
    3a34:	51982158 	orrspl	r2, r8, r8, asr r1

00003a38 <l3600>:
    3a38:	4172006a 	cmnmi	r2, sl, rrx

00003a3c <l3601>:
    3a3c:	7019ce31 	andsvc	ip, r9, r1, lsr lr

00003a40 <l3602>:
    3a40:	e26b201a 	rsb	r2, fp, #26

00003a44 <l3603>:
    3a44:	e1e0e00a 	mvn	lr, sl

00003a48 <l3604>:
    3a48:	e3360cd2 	teq	r6, #53760	; 0xd200

00003a4c <l3605>:
    3a4c:	ea000007 	b	3a70 <l3614>

00003a50 <l3606>:
    3a50:	e2801036 	add	r1, r0, #54	; 0x36

00003a54 <l3607>:
    3a54:	e1180008 	tst	r8, r8

00003a58 <l3608>:
    3a58:	e1f0900a 	mvns	r9, sl

00003a5c <l3609>:
    3a5c:	33130163 	tstcc	r3, #-1073741800	; 0xc0000018

00003a60 <l3610>:
    3a60:	e35f0376 	cmp	pc, #-671088639	; 0xd8000001

00003a64 <l3611>:
    3a64:	e11c0007 	tst	ip, r7

00003a68 <l3612>:
    3a68:	e0487068 	sub	r7, r8, r8, rrx

00003a6c <l3613>:
    3a6c:	ea000000 	b	3a74 <l3615>

00003a70 <l3614>:
    3a70:	eafffff7 	b	3a54 <l3607>

00003a74 <l3615>:
    3a74:	a3995e9e 	orrsge	r5, r9, #2528	; 0x9e0

00003a78 <l3616>:
    3a78:	ea000003 	b	3a8c <l3621>

00003a7c <l3617>:
    3a7c:	e280109d 	add	r1, r0, #157	; 0x9d

00003a80 <l3618>:
    3a80:	925fe10e 	subsls	lr, pc, #-2147483645	; 0x80000003

00003a84 <l3619>:
    3a84:	e0e80911 	rsc	r0, r8, r1, lsl r9

00003a88 <l3620>:
    3a88:	ea000000 	b	3a90 <l3622>

00003a8c <l3621>:
    3a8c:	eafffffb 	b	3a80 <l3618>

00003a90 <l3622>:
    3a90:	10fb6271 	rscsne	r6, fp, r1, ror r2

00003a94 <l3623>:
    3a94:	d21f0de5 	andsle	r0, pc, #14656	; 0x3940

00003a98 <l3624>:
    3a98:	804ee470 	subhi	lr, lr, r0, ror r4

00003a9c <l3625>:
    3a9c:	c18e8b34 	orrgt	r8, lr, r4, lsr fp

00003aa0 <l3626>:
    3aa0:	e55d8025 	ldrb	r8, [sp, #-37]	; 0x25

00003aa4 <l3627>:
    3aa4:	ea000004 	b	3abc <l3633>

00003aa8 <l3628>:
    3aa8:	e28010c1 	add	r1, r0, #193	; 0xc1

00003aac <l3629>:
    3aac:	91c19311 	bicls	r9, r1, r1, lsl r3

00003ab0 <l3630>:
    3ab0:	90ec6375 	rscls	r6, ip, r5, ror r3

00003ab4 <l3631>:
    3ab4:	41cc3c1b 	bicmi	r3, ip, fp, lsl ip

00003ab8 <l3632>:
    3ab8:	ea000000 	b	3ac0 <l3634>

00003abc <l3633>:
    3abc:	eafffffa 	b	3aac <l3629>

00003ac0 <l3634>:
    3ac0:	10b1261c 	adcsne	r2, r1, ip, lsl r6

00003ac4 <l3635>:
    3ac4:	91b0221b 	lslsls	r2, fp, r2

00003ac8 <l3636>:
    3ac8:	b0462579 	sublt	r2, r6, r9, ror r5

00003acc <l3637>:
    3acc:	31810443 	orrcc	r0, r1, r3, asr #8

00003ad0 <l3638>:
    3ad0:	7a000005 	bvc	3aec <l3645>

00003ad4 <l3639>:
    3ad4:	616f4f16 	clzvs	r4, r6

00003ad8 <l3640>:
    3ad8:	e39fcc1e 	orrs	ip, pc, #7680	; 0x1e00

00003adc <l3641>:
    3adc:	41e06005 	mvnmi	r6, r5

00003ae0 <l3642>:
    3ae0:	93790fbe 	cmnls	r9, #760	; 0x2f8

00003ae4 <l3643>:
    3ae4:	e175006a 	cmn	r5, sl, rrx

00003ae8 <l3644>:
    3ae8:	e1b0700c 	movs	r7, ip

00003aec <l3645>:
    3aec:	e1100069 	tst	r0, r9, rrx

00003af0 <l3646>:
    3af0:	e0645002 	rsb	r5, r4, r2

00003af4 <l3647>:
    3af4:	716f7f16 	clzvc	r7, r6

00003af8 <l3648>:
    3af8:	6093100c 	addsvs	r1, r3, ip

00003afc <l3649>:
    3afc:	e1b0a06a 	rrxs	sl, sl

00003b00 <l3650>:
    3b00:	e05c18ea 	subs	r1, ip, sl, ror #17

00003b04 <l3651>:
    3b04:	b03c0008 	eorslt	r0, ip, r8

00003b08 <l3652>:
    3b08:	e17b0aaf 	cmn	fp, pc, lsr #21

00003b0c <l3653>:
    3b0c:	e1190410 	tst	r9, r0, lsl r4

00003b10 <l3654>:
    3b10:	40280477 	eormi	r0, r8, r7, ror r4

00003b14 <l3655>:
    3b14:	90179009 	andsls	r9, r7, r9

00003b18 <l3656>:
    3b18:	e083437e 	add	r4, r3, lr, ror r3

00003b1c <l3657>:
    3b1c:	1225a2ff 	eorne	sl, r5, #-268435441	; 0xf000000f

00003b20 <l3658>:
    3b20:	e0a7506a 	adc	r5, r7, sl, rrx

00003b24 <l3659>:
    3b24:	e092b00e 	adds	fp, r2, lr

00003b28 <l3660>:
    3b28:	e1a0690e 	lsl	r6, lr, #18

00003b2c <l3661>:
    3b2c:	b22cc9d1 	eorlt	ip, ip, #3424256	; 0x344000

00003b30 <l3662>:
    3b30:	e0432b5b 	sub	r2, r3, fp, asr fp

00003b34 <l3663>:
    3b34:	e1320005 	teq	r2, r5

00003b38 <l3664>:
    3b38:	ea000005 	b	3b54 <l3671>

00003b3c <l3665>:
    3b3c:	e28010a0 	add	r1, r0, #160	; 0xa0

00003b40 <l3666>:
    3b40:	e1f06339 	mvns	r6, r9, lsr r3

00003b44 <l3667>:
    3b44:	b22a99e5 	eorlt	r9, sl, #3751936	; 0x394000

00003b48 <l3668>:
    3b48:	e139006a 	teq	r9, sl, rrx

00003b4c <l3669>:
    3b4c:	b07e563b 	rsbslt	r5, lr, fp, lsr r6

00003b50 <l3670>:
    3b50:	ea000000 	b	3b58 <l3672>

00003b54 <l3671>:
    3b54:	eafffff9 	b	3b40 <l3666>

00003b58 <l3672>:
    3b58:	ca000000 	bgt	3b60 <l3674>

00003b5c <l3673>:
    3b5c:	91e0a061 	mvnls	sl, r1, rrx

00003b60 <l3674>:
    3b60:	e3120005 	tst	r2, #5

00003b64 <l3675>:
    3b64:	819a2e72 	orrshi	r2, sl, r2, ror lr

00003b68 <l3676>:
    3b68:	e0e17009 	rsc	r7, r1, r9

00003b6c <l3677>:
    3b6c:	e1b00854 	asrs	r0, r4, r8

00003b70 <l3678>:
    3b70:	e52d1004 	push	{r1}		; (str r1, [sp, #-4]!)

00003b74 <l3679>:
    3b74:	e2092e2d 	and	r2, r9, #720	; 0x2d0

00003b78 <l3680>:
    3b78:	42b9e642 	adcsmi	lr, r9, #69206016	; 0x4200000

00003b7c <l3681>:
    3b7c:	b3930131 	orrslt	r0, r3, #1073741836	; 0x4000000c

00003b80 <l3682>:
    3b80:	e255ef66 	subs	lr, r5, #408	; 0x198

00003b84 <l3683>:
    3b84:	e3340703 	teq	r4, #786432	; 0xc0000

00003b88 <l3684>:
    3b88:	31c0b97e 	biccc	fp, r0, lr, ror r9

00003b8c <l3685>:
    3b8c:	ea000003 	b	3ba0 <l3690>

00003b90 <l3686>:
    3b90:	2057b06a 	subscs	fp, r7, sl, rrx

00003b94 <l3687>:
    3b94:	e0821068 	add	r1, r2, r8, rrx

00003b98 <l3688>:
    3b98:	e15c0e65 	cmp	ip, r5, ror #28

00003b9c <l3689>:
    3b9c:	e20ce685 	and	lr, ip, #139460608	; 0x8500000

00003ba0 <l3690>:
    3ba0:	e3e0ba53 	mvn	fp, #339968	; 0x53000

00003ba4 <l3691>:
    3ba4:	a2dac615 	sbcsge	ip, sl, #22020096	; 0x1500000

00003ba8 <l3692>:
    3ba8:	01872d26 	orreq	r2, r7, r6, lsr #26

00003bac <l3693>:
    3bac:	e3a0a028 	mov	sl, #40	; 0x28

00003bb0 <l3694>:
    3bb0:	575dc00a 	ldrbpl	ip, [sp, -sl]

00003bb4 <l3695>:
    3bb4:	e1a061e0 	ror	r6, r0, #3

00003bb8 <l3696>:
    3bb8:	e1b0e976 	rors	lr, r6, r9

00003bbc <l3697>:
    3bbc:	e02845c8 	eor	r4, r8, r8, asr #11

00003bc0 <l3698>:
    3bc0:	e23ca9aa 	eors	sl, ip, #2785280	; 0x2a8000

00003bc4 <l3699>:
    3bc4:	00327372 	eorseq	r7, r2, r2, ror r3

00003bc8 <l3700>:
    3bc8:	eaffffff 	b	3bcc <l3701>

00003bcc <l3701>:
    3bcc:	d0596006 	subsle	r6, r9, r6

00003bd0 <l3702>:
    3bd0:	e16faf11 	clz	sl, r1

00003bd4 <l3703>:
    3bd4:	e01c3550 	ands	r3, ip, r0, asr r5

00003bd8 <l3704>:
    3bd8:	c1380ee0 	teqgt	r8, r0, ror #29

00003bdc <l3705>:
    3bdc:	e1500b27 	cmp	r0, r7, lsr #22

00003be0 <l3706>:
    3be0:	e0c9277e 	sbc	r2, r9, lr, ror r7

00003be4 <l3707>:
    3be4:	ea000005 	b	3c00 <l3714>

00003be8 <l3708>:
    3be8:	e280103e 	add	r1, r0, #62	; 0x3e

00003bec <l3709>:
    3bec:	c115012b 	tstgt	r5, fp, lsr #2

00003bf0 <l3710>:
    3bf0:	a16faf19 	clzge	sl, r9

00003bf4 <l3711>:
    3bf4:	e1f0e065 	mvns	lr, r5, rrx

00003bf8 <l3712>:
    3bf8:	31dc925c 	bicscc	r9, ip, ip, asr r2

00003bfc <l3713>:
    3bfc:	ea000000 	b	3c04 <l3715>

00003c00 <l3714>:
    3c00:	eafffff9 	b	3bec <l3709>

00003c04 <l3715>:
    3c04:	519a1066 	orrspl	r1, sl, r6, rrx

00003c08 <l3716>:
    3c08:	b099e068 	addslt	lr, r9, r8, rrx

00003c0c <l3717>:
    3c0c:	e1530c30 	cmp	r3, r0, lsr ip

00003c10 <l3718>:
    3c10:	e0e951a8 	rsc	r5, r9, r8, lsr #3

00003c14 <l3719>:
    3c14:	e1590430 	cmp	r9, r0, lsr r4

00003c18 <l3720>:
    3c18:	e187906a 	orr	r9, r7, sl, rrx

00003c1c <l3721>:
    3c1c:	e1750301 	cmn	r5, r1, lsl #6

00003c20 <l3722>:
    3c20:	62263769 	eorvs	r3, r6, #27525120	; 0x1a40000

00003c24 <l3723>:
    3c24:	a0213008 	eorge	r3, r1, r8

00003c28 <l3724>:
    3c28:	ea000007 	b	3c4c <l3733>

00003c2c <l3725>:
    3c2c:	e28010a5 	add	r1, r0, #165	; 0xa5

00003c30 <l3726>:
    3c30:	e043500a 	sub	r5, r3, sl

00003c34 <l3727>:
    3c34:	b19f9004 	orrslt	r9, pc, r4

00003c38 <l3728>:
    3c38:	30f82066 	rscscc	r2, r8, r6, rrx

00003c3c <l3729>:
    3c3c:	31770007 	cmncc	r7, r7

00003c40 <l3730>:
    3c40:	e1b0100b 	movs	r1, fp

00003c44 <l3731>:
    3c44:	d0882b52 	addle	r2, r8, r2, asr fp

00003c48 <l3732>:
    3c48:	ea000000 	b	3c50 <l3734>

00003c4c <l3733>:
    3c4c:	eafffff7 	b	3c30 <l3726>

00003c50 <l3734>:
    3c50:	111e0659 	tstne	lr, r9, asr r6

00003c54 <l3735>:
    3c54:	e3a02015 	mov	r2, #21

00003c58 <l3736>:
    3c58:	e75d2002 	ldrb	r2, [sp, -r2]

00003c5c <l3737>:
    3c5c:	a004451e 	andge	r4, r4, lr, lsl r5

00003c60 <l3738>:
    3c60:	e042700e 	sub	r7, r2, lr

00003c64 <l3739>:
    3c64:	616f4f18 	clzvs	r4, r8

00003c68 <l3740>:
    3c68:	a1130937 	tstge	r3, r7, lsr r9

00003c6c <l3741>:
    3c6c:	1a000003 	bne	3c80 <l3746>

00003c70 <l3742>:
    3c70:	e2801055 	add	r1, r0, #85	; 0x55

00003c74 <l3743>:
    3c74:	b06ee518 	rsblt	lr, lr, r8, lsl r5

00003c78 <l3744>:
    3c78:	e1a088aa 	lsr	r8, sl, #17

00003c7c <l3745>:
    3c7c:	ea000000 	b	3c84 <l3747>

00003c80 <l3746>:
    3c80:	eafffffb 	b	3c74 <l3743>

00003c84 <l3747>:
    3c84:	201e1062 	andscs	r1, lr, r2, rrx

00003c88 <l3748>:
    3c88:	e20fa2ae 	and	sl, pc, #-536870902	; 0xe000000a

00003c8c <l3749>:
    3c8c:	e03a906c 	eors	r9, sl, ip, rrx

00003c90 <l3750>:
    3c90:	e3a00000 	mov	r0, #0

00003c94 <l3751>:
    3c94:	e79d0000 	ldr	r0, [sp, r0]

00003c98 <l3752>:
    3c98:	209eee09 	addscs	lr, lr, r9, lsl #28

00003c9c <l3753>:
    3c9c:	5080c00f 	addpl	ip, r0, pc

00003ca0 <l3754>:
    3ca0:	e3f079ea 	mvns	r7, #3833856	; 0x3a8000

00003ca4 <l3755>:
    3ca4:	3297904b 	addscc	r9, r7, #75	; 0x4b

00003ca8 <l3756>:
    3ca8:	d16f4f1b 	clzle	r4, fp

00003cac <l3757>:
    3cac:	605ee3c8 	subsvs	lr, lr, r8, asr #7

00003cb0 <l3758>:
    3cb0:	e53d4020 	ldr	r4, [sp, #-32]!

00003cb4 <l3759>:
    3cb4:	40913674 	addsmi	r3, r1, r4, ror r6

00003cb8 <l3760>:
    3cb8:	e034e00a 	eors	lr, r4, sl

00003cbc <l3761>:
    3cbc:	d0397008 	eorsle	r7, r9, r8

00003cc0 <l3762>:
    3cc0:	b31e0509 	tstlt	lr, #37748736	; 0x2400000

00003cc4 <l3763>:
    3cc4:	90b2b001 	adcsls	fp, r2, r1

00003cc8 <l3764>:
    3cc8:	ea000005 	b	3ce4 <l3771>

00003ccc <l3765>:
    3ccc:	e2801076 	add	r1, r0, #118	; 0x76

00003cd0 <l3766>:
    3cd0:	93360ae9 	teqls	r6, #954368	; 0xe9000

00003cd4 <l3767>:
    3cd4:	d0ec6000 	rscle	r6, ip, r0

00003cd8 <l3768>:
    3cd8:	61d24901 	bicsvs	r4, r2, r1, lsl #18

00003cdc <l3769>:
    3cdc:	624676f7 	subvs	r7, r6, #258998272	; 0xf700000

00003ce0 <l3770>:
    3ce0:	ea000000 	b	3ce8 <l3772>

00003ce4 <l3771>:
    3ce4:	eafffff9 	b	3cd0 <l3766>

00003ce8 <l3772>:
    3ce8:	ea000007 	b	3d0c <l3781>

00003cec <l3773>:
    3cec:	e280100b 	add	r1, r0, #11

00003cf0 <l3774>:
    3cf0:	c31209e5 	tstgt	r2, #3751936	; 0x394000

00003cf4 <l3775>:
    3cf4:	e1a08271 	ror	r8, r1, r2

00003cf8 <l3776>:
    3cf8:	e1ca300f 	bic	r3, sl, pc

00003cfc <l3777>:
    3cfc:	e31a04eb 	tst	sl, #-352321536	; 0xeb000000

00003d00 <l3778>:
    3d00:	32a35e3e 	adccc	r5, r3, #992	; 0x3e0

00003d04 <l3779>:
    3d04:	e16f7f14 	clz	r7, r4

00003d08 <l3780>:
    3d08:	ea000000 	b	3d10 <l3782>

00003d0c <l3781>:
    3d0c:	eafffff7 	b	3cf0 <l3774>

00003d10 <l3782>:
    3d10:	71a0800e 	movvc	r8, lr

00003d14 <l3783>:
    3d14:	319eb069 	orrscc	fp, lr, r9, rrx

00003d18 <l3784>:
    3d18:	3216edbe 	andscc	lr, r6, #12160	; 0x2f80

00003d1c <l3785>:
    3d1c:	2a000001 	bcs	3d28 <l3788>

00003d20 <l3786>:
    3d20:	a197800b 	orrsge	r8, r7, fp

00003d24 <l3787>:
    3d24:	e31502cd 	tst	r5, #-805306356	; 0xd000000c

00003d28 <l3788>:
    3d28:	e2427062 	sub	r7, r2, #98	; 0x62

00003d2c <l3789>:
    3d2c:	d00a1255 	andle	r1, sl, r5, asr r2

00003d30 <l3790>:
    3d30:	13e03006 	mvnne	r3, #6

00003d34 <l3791>:
    3d34:	1a000003 	bne	3d48 <l3796>

00003d38 <l3792>:
    3d38:	e280109c 	add	r1, r0, #156	; 0x9c

00003d3c <l3793>:
    3d3c:	e1a07069 	rrx	r7, r9

00003d40 <l3794>:
    3d40:	e1c2c00a 	bic	ip, r2, sl

00003d44 <l3795>:
    3d44:	ea000000 	b	3d4c <l3797>

00003d48 <l3796>:
    3d48:	eafffffb 	b	3d3c <l3793>

00003d4c <l3797>:
    3d4c:	e196500c 	orrs	r5, r6, ip

00003d50 <l3798>:
    3d50:	e1a0000c 	mov	r0, ip

00003d54 <l3799>:
    3d54:	aa000003 	bge	3d68 <l3804>

00003d58 <l3800>:
    3d58:	e3350b27 	teq	r5, #39936	; 0x9c00

00003d5c <l3801>:
    3d5c:	01730002 	cmneq	r3, r2

00003d60 <l3802>:
    3d60:	d2f29a63 	rscsle	r9, r2, #405504	; 0x63000

00003d64 <l3803>:
    3d64:	61500001 	cmpvs	r0, r1

00003d68 <l3804>:
    3d68:	d0029009 	andle	r9, r2, r9

00003d6c <l3805>:
    3d6c:	e063b00f 	rsb	fp, r3, pc

00003d70 <l3806>:
    3d70:	d221ac22 	eorle	sl, r1, #8704	; 0x2200

00003d74 <l3807>:
    3d74:	e355003a 	cmp	r5, #58	; 0x3a

00003d78 <l3808>:
    3d78:	4209a997 	andmi	sl, r9, #2473984	; 0x25c000

00003d7c <l3809>:
    3d7c:	ea000002 	b	3d8c <l3813>

00003d80 <l3810>:
    3d80:	e2801015 	add	r1, r0, #21

00003d84 <l3811>:
    3d84:	c02e5c48 	eorgt	r5, lr, r8, asr #24

00003d88 <l3812>:
    3d88:	ea000000 	b	3d90 <l3814>

00003d8c <l3813>:
    3d8c:	eafffffc 	b	3d84 <l3811>

00003d90 <l3814>:
    3d90:	e02c2966 	eor	r2, ip, r6, ror #18

00003d94 <l3815>:
    3d94:	216f0f12 	clzcs	r0, r2

00003d98 <l3816>:
    3d98:	c02fc400 	eorgt	ip, pc, r0, lsl #8

00003d9c <l3817>:
    3d9c:	e0e5142b 	rsc	r1, r5, fp, lsr #8

00003da0 <l3818>:
    3da0:	ea000007 	b	3dc4 <l3827>

00003da4 <l3819>:
    3da4:	e28010e9 	add	r1, r0, #233	; 0xe9

00003da8 <l3820>:
    3da8:	71540003 	cmpvc	r4, r3

00003dac <l3821>:
    3dac:	316fef15 	clzcc	lr, r5

00003db0 <l3822>:
    3db0:	43cf094e 	bicmi	r0, pc, #1277952	; 0x138000

00003db4 <l3823>:
    3db4:	20c0400c 	sbccs	r4, r0, ip

00003db8 <l3824>:
    3db8:	d076300f 	rsbsle	r3, r6, pc

00003dbc <l3825>:
    3dbc:	b0de282c 	sbcslt	r2, lr, ip, lsr #16

00003dc0 <l3826>:
    3dc0:	ea000000 	b	3dc8 <l3828>

00003dc4 <l3827>:
    3dc4:	eafffff7 	b	3da8 <l3820>

00003dc8 <l3828>:
    3dc8:	e08ea903 	add	sl, lr, r3, lsl #18

00003dcc <l3829>:
    3dcc:	e1390176 	teq	r9, r6, ror r1

00003dd0 <l3830>:
    3dd0:	e04eed0b 	sub	lr, lr, fp, lsl #26

00003dd4 <l3831>:
    3dd4:	31d19f81 	bicscc	r9, r1, r1, lsl #31

00003dd8 <l3832>:
    3dd8:	90847a04 	addls	r7, r4, r4, lsl #20

00003ddc <l3833>:
    3ddc:	e09e100c 	adds	r1, lr, ip

00003de0 <l3834>:
    3de0:	71740778 	cmnvc	r4, r8, ror r7

00003de4 <l3835>:
    3de4:	e252b22d 	subs	fp, r2, #-805306366	; 0xd0000002

00003de8 <l3836>:
    3de8:	23cc9a65 	biccs	r9, ip, #413696	; 0x65000

00003dec <l3837>:
    3dec:	e1e0200c 	mvn	r2, ip

00003df0 <l3838>:
    3df0:	e0b9500f 	adcs	r5, r9, pc

00003df4 <l3839>:
    3df4:	a1a09008 	movge	r9, r8

00003df8 <l3840>:
    3df8:	ea000005 	b	3e14 <l3847>

00003dfc <l3841>:
    3dfc:	e2801008 	add	r1, r0, #8

00003e00 <l3842>:
    3e00:	b1770006 	cmnlt	r7, r6

00003e04 <l3843>:
    3e04:	e37c0262 	cmn	ip, #536870918	; 0x20000006

00003e08 <l3844>:
    3e08:	51cc9004 	bicpl	r9, ip, r4

00003e0c <l3845>:
    3e0c:	52753603 	rsbspl	r3, r5, #3145728	; 0x300000

00003e10 <l3846>:
    3e10:	ea000000 	b	3e18 <l3848>

00003e14 <l3847>:
    3e14:	eafffff9 	b	3e00 <l3842>

00003e18 <l3848>:
    3e18:	d2712926 	rsbsle	r2, r1, #622592	; 0x98000

00003e1c <l3849>:
    3e1c:	e3a0301d 	mov	r3, #29

00003e20 <l3850>:
    3e20:	e74de003 	strb	lr, [sp, -r3]

00003e24 <l3851>:
    3e24:	b1a02004 	movlt	r2, r4

00003e28 <l3852>:
    3e28:	e37f0b72 	cmn	pc, #116736	; 0x1c800

00003e2c <l3853>:
    3e2c:	ca000006 	bgt	3e4c <l3861>

00003e30 <l3854>:
    3e30:	e0ab1000 	adc	r1, fp, r0

00003e34 <l3855>:
    3e34:	e00e3e63 	and	r3, lr, r3, ror #28

00003e38 <l3856>:
    3e38:	e113000a 	tst	r3, sl

00003e3c <l3857>:
    3e3c:	50595937 	subspl	r5, r9, r7, lsr r9

00003e40 <l3858>:
    3e40:	e043a006 	sub	sl, r3, r6

00003e44 <l3859>:
    3e44:	e05b9007 	subs	r9, fp, r7

00003e48 <l3860>:
    3e48:	205e900b 	subscs	r9, lr, fp

00003e4c <l3861>:
    3e4c:	a294223e 	addsge	r2, r4, #-536870909	; 0xe0000003

00003e50 <l3862>:
    3e50:	10bf994a 	adcsne	r9, pc, sl, asr #18

00003e54 <l3863>:
    3e54:	e2127ae1 	ands	r7, r2, #921600	; 0xe1000

00003e58 <l3864>:
    3e58:	e2511ec6 	subs	r1, r1, #3168	; 0xc60

00003e5c <l3865>:
    3e5c:	ea000008 	b	3e84 <l3875>

00003e60 <l3866>:
    3e60:	e2804f4e 	add	r4, r0, #312	; 0x138

00003e64 <l3867>:
    3e64:	21960068 	orrscs	r0, r6, r8, rrx

00003e68 <l3868>:
    3e68:	20693064 	rsbcs	r3, r9, r4, rrx

00003e6c <l3869>:
    3e6c:	e22e0316 	eor	r0, lr, #1476395008	; 0x58000000

00003e70 <l3870>:
    3e70:	e1cc3062 	bic	r3, ip, r2, rrx

00003e74 <l3871>:
    3e74:	700f9006 	andvc	r9, pc, r6

00003e78 <l3872>:
    3e78:	e2b1c042 	adcs	ip, r1, #66	; 0x42

00003e7c <l3873>:
    3e7c:	c31a000c 	tstgt	sl, #12

00003e80 <l3874>:
    3e80:	c1b00623 	lsrsgt	r0, r3, #12

00003e84 <l3875>:
    3e84:	e071200c 	rsbs	r2, r1, ip

00003e88 <l3876>:
    3e88:	d16fbf16 	clzle	fp, r6

00003e8c <l3877>:
    3e8c:	e007741e 	and	r7, r7, lr, lsl r4

00003e90 <l3878>:
    3e90:	20707c14 	rsbscs	r7, r0, r4, lsl ip

00003e94 <l3879>:
    3e94:	e0739678 	rsbs	r9, r3, r8, ror r6

00003e98 <l3880>:
    3e98:	4a000003 	bmi	3eac <l3885>

00003e9c <l3881>:
    3e9c:	e28010eb 	add	r1, r0, #235	; 0xeb

00003ea0 <l3882>:
    3ea0:	d1b0200e 	movsle	r2, lr

00003ea4 <l3883>:
    3ea4:	e1100332 	tst	r0, r2, lsr r3

00003ea8 <l3884>:
    3ea8:	ea000000 	b	3eb0 <l3886>

00003eac <l3885>:
    3eac:	eafffffb 	b	3ea0 <l3882>

00003eb0 <l3886>:
    3eb0:	6060b729 	rsbvs	fp, r0, r9, lsr #14

00003eb4 <l3887>:
    3eb4:	a19688c6 	orrsge	r8, r6, r6, asr #17

00003eb8 <l3888>:
    3eb8:	41c0400b 	bicmi	r4, r0, fp

00003ebc <l3889>:
    3ebc:	ea000003 	b	3ed0 <l3894>

00003ec0 <l3890>:
    3ec0:	e280104a 	add	r1, r0, #74	; 0x4a

00003ec4 <l3891>:
    3ec4:	e2acbb85 	adc	fp, ip, #136192	; 0x21400

00003ec8 <l3892>:
    3ec8:	73b02b1b 	movsvc	r2, #27648	; 0x6c00

00003ecc <l3893>:
    3ecc:	ea000000 	b	3ed4 <l3895>

00003ed0 <l3894>:
    3ed0:	eafffffb 	b	3ec4 <l3891>

00003ed4 <l3895>:
    3ed4:	e049e061 	sub	lr, r9, r1, rrx

00003ed8 <l3896>:
    3ed8:	7195c310 	orrsvc	ip, r5, r0, lsl r3

00003edc <l3897>:
    3edc:	e0db0065 	sbcs	r0, fp, r5, rrx

00003ee0 <l3898>:
    3ee0:	d0b69008 	adcsle	r9, r6, r8

00003ee4 <l3899>:
    3ee4:	8040e574 	subhi	lr, r0, r4, ror r5

00003ee8 <l3900>:
    3ee8:	83a02526 	movhi	r2, #159383552	; 0x9800000

00003eec <l3901>:
    3eec:	e054e00a 	subs	lr, r4, sl

00003ef0 <l3902>:
    3ef0:	ea000004 	b	3f08 <l3908>

00003ef4 <l3903>:
    3ef4:	61380b8e 	teqvs	r8, lr, lsl #23

00003ef8 <l3904>:
    3ef8:	e05f4009 	subs	r4, pc, r9

00003efc <l3905>:
    3efc:	b1320b5e 	teqlt	r2, lr, asr fp

00003f00 <l3906>:
    3f00:	e0b7b003 	adcs	fp, r7, r3

00003f04 <l3907>:
    3f04:	c0764121 	rsbsgt	r4, r6, r1, lsr #2

00003f08 <l3908>:
    3f08:	216fbf12 	clzcs	fp, r2

00003f0c <l3909>:
    3f0c:	e024b656 	eor	fp, r4, r6, asr r6

00003f10 <l3910>:
    3f10:	e0f12bef 	rscs	r2, r1, pc, ror #23

00003f14 <l3911>:
    3f14:	e0511e71 	subs	r1, r1, r1, ror lr

00003f18 <l3912>:
    3f18:	c1f02733 	mvnsgt	r2, r3, lsr r7

00003f1c <l3913>:
    3f1c:	d16fef10 	clzle	lr, r0

00003f20 <l3914>:
    3f20:	a2982441 	addsge	r2, r8, #1090519040	; 0x41000000

00003f24 <l3915>:
    3f24:	e3a02019 	mov	r2, #25

00003f28 <l3916>:
    3f28:	e7cd7002 	strb	r7, [sp, r2]

00003f2c <l3917>:
    3f2c:	e05c4066 	subs	r4, ip, r6, rrx

00003f30 <l3918>:
    3f30:	e3a02009 	mov	r2, #9

00003f34 <l3919>:
    3f34:	e7cd3002 	strb	r3, [sp, r2]

00003f38 <l3920>:
    3f38:	e0536c1c 	subs	r6, r3, ip, lsl ip

00003f3c <l3921>:
    3f3c:	a1320005 	teqge	r2, r5

00003f40 <l3922>:
    3f40:	e15302cb 	cmp	r3, fp, asr #5

00003f44 <l3923>:
    3f44:	e3e0e355 	mvn	lr, #1409286145	; 0x54000001

00003f48 <l3924>:
    3f48:	20b55006 	adcscs	r5, r5, r6

00003f4c <l3925>:
    3f4c:	e0494a0b 	sub	r4, r9, fp, lsl #20

00003f50 <l3926>:
    3f50:	aa000007 	bge	3f74 <l3935>

00003f54 <l3927>:
    3f54:	e28010c4 	add	r1, r0, #196	; 0xc4

00003f58 <l3928>:
    3f58:	e2b80c49 	adcs	r0, r8, #18688	; 0x4900

00003f5c <l3929>:
    3f5c:	e1d54e83 	bics	r4, r5, r3, lsl #29

00003f60 <l3930>:
    3f60:	5113053b 	tstpl	r3, fp, lsr r5

00003f64 <l3931>:
    3f64:	e0526009 	subs	r6, r2, r9

00003f68 <l3932>:
    3f68:	e0205009 	eor	r5, r0, r9

00003f6c <l3933>:
    3f6c:	c06623a4 	rsbgt	r2, r6, r4, lsr #7

00003f70 <l3934>:
    3f70:	ea000000 	b	3f78 <l3936>

00003f74 <l3935>:
    3f74:	eafffff7 	b	3f58 <l3928>

00003f78 <l3936>:
    3f78:	0228619d 	eoreq	r6, r8, #1073741863	; 0x40000027

00003f7c <l3937>:
    3f7c:	e23e845b 	eors	r8, lr, #1526726656	; 0x5b000000

00003f80 <l3938>:
    3f80:	9a000002 	bls	3f90 <l3942>

00003f84 <l3939>:
    3f84:	e280100e 	add	r1, r0, #14

00003f88 <l3940>:
    3f88:	e20fb8b7 	and	fp, pc, #11993088	; 0xb70000

00003f8c <l3941>:
    3f8c:	ea000000 	b	3f94 <l3943>

00003f90 <l3942>:
    3f90:	eafffffc 	b	3f88 <l3940>

00003f94 <l3943>:
    3f94:	e0cc0c41 	sbc	r0, ip, r1, asr #24

00003f98 <l3944>:
    3f98:	e1a00008 	mov	r0, r8

00003f9c <l3945>:
    3f9c:	30365069 	eorscc	r5, r6, r9, rrx

00003fa0 <l3946>:
    3fa0:	e1944218 	orrs	r4, r4, r8, lsl r2

00003fa4 <l3947>:
    3fa4:	e13b0ca7 	teq	fp, r7, lsr #25

00003fa8 <l3948>:
    3fa8:	91918063 	orrsls	r8, r1, r3, rrx

00003fac <l3949>:
    3fac:	e00fb00b 	and	fp, pc, fp

00003fb0 <l3950>:
    3fb0:	00824063 	addeq	r4, r2, r3, rrx

00003fb4 <l3951>:
    3fb4:	b19f5184 	orrslt	r5, pc, r4, lsl #3

00003fb8 <l3952>:
    3fb8:	ea000004 	b	3fd0 <l3958>

00003fbc <l3953>:
    3fbc:	40e9006a 	rscmi	r0, r9, sl, rrx

00003fc0 <l3954>:
    3fc0:	01cb0061 	biceq	r0, fp, r1, rrx

00003fc4 <l3955>:
    3fc4:	0383a866 	orreq	sl, r3, #6684672	; 0x660000

00003fc8 <l3956>:
    3fc8:	c07c0064 	rsbsgt	r0, ip, r4, rrx

00003fcc <l3957>:
    3fcc:	70742747 	rsbsvc	r2, r4, r7, asr #14

00003fd0 <l3958>:
    3fd0:	016f6f17 	clzeq	r6, r7

00003fd4 <l3959>:
    3fd4:	32064d3a 	andcc	r4, r6, #3712	; 0xe80

00003fd8 <l3960>:
    3fd8:	e028423a 	eor	r4, r8, sl, lsr r2

00003fdc <l3961>:
    3fdc:	e29c46d9 	adds	r4, ip, #227540992	; 0xd900000

00003fe0 <l3962>:
    3fe0:	ca000002 	bgt	3ff0 <l3966>

00003fe4 <l3963>:
    3fe4:	e2801073 	add	r1, r0, #115	; 0x73

00003fe8 <l3964>:
    3fe8:	b1d29035 	bicslt	r9, r2, r5, lsr r0

00003fec <l3965>:
    3fec:	ea000000 	b	3ff4 <l3967>

00003ff0 <l3966>:
    3ff0:	eafffffc 	b	3fe8 <l3964>

00003ff4 <l3967>:
    3ff4:	41879002 	orrmi	r9, r7, r2

00003ff8 <l3968>:
    3ff8:	e0a9e9e8 	adc	lr, r9, r8, ror #19

00003ffc <l3969>:
    3ffc:	e16f2f1b 	clz	r2, fp

00004000 <l3970>:
    4000:	e11c0c80 	tst	ip, r0, lsl #25

00004004 <l3971>:
    4004:	e2b9b73e 	adcs	fp, r9, #16252928	; 0xf80000

00004008 <l3972>:
    4008:	e1e0a060 	mvn	sl, r0, rrx

0000400c <l3973>:
    400c:	e28751b1 	add	r5, r7, #1073741868	; 0x4000002c

00004010 <l3974>:
    4010:	254dc012 	strbcs	ip, [sp, #-18]

00004014 <l3975>:
    4014:	ea000001 	b	4020 <l3978>

00004018 <l3976>:
    4018:	61c43063 	bicvs	r3, r4, r3, rrx

0000401c <l3977>:
    401c:	3191cc76 	orrscc	ip, r1, r6, ror ip

00004020 <l3978>:
    4020:	72df0abe 	sbcsvc	r0, pc, #778240	; 0xbe000

00004024 <l3979>:
    4024:	21a0697e 	rorcs	r6, lr, r9

00004028 <l3980>:
    4028:	609b3000 	addsvs	r3, fp, r0

0000402c <l3981>:
    402c:	9136000a 	teqls	r6, sl

00004030 <l3982>:
    4030:	7a000004 	bvc	4048 <l3988>

00004034 <l3983>:
    4034:	e2801060 	add	r1, r0, #96	; 0x60

00004038 <l3984>:
    4038:	e0614ca7 	rsb	r4, r1, r7, lsr #25

0000403c <l3985>:
    403c:	507e163e 	rsbspl	r1, lr, lr, lsr r6

00004040 <l3986>:
    4040:	e0df9069 	sbcs	r9, pc, r9, rrx

00004044 <l3987>:
    4044:	ea000000 	b	404c <l3989>

00004048 <l3988>:
    4048:	eafffffa 	b	4038 <l3984>

0000404c <l3989>:
    404c:	3a000005 	bcc	4068 <l3996>

00004050 <l3990>:
    4050:	e0458fe8 	sub	r8, r5, r8, ror #31

00004054 <l3991>:
    4054:	80d09350 	sbcshi	r9, r0, r0, asr r3

00004058 <l3992>:
    4058:	7058700c 	subsvc	r7, r8, ip

0000405c <l3993>:
    405c:	41e0368b 	mvnmi	r3, fp, lsl #13

00004060 <l3994>:
    4060:	51580069 	cmppl	r8, r9, rrx

00004064 <l3995>:
    4064:	e237a6eb 	eors	sl, r7, #246415360	; 0xeb00000

00004068 <l3996>:
    4068:	116f2f1a 	clzne	r2, sl

0000406c <l3997>:
    406c:	e156000b 	cmp	r6, fp

00004070 <l3998>:
    4070:	901888ef 	andsls	r8, r8, pc, ror #17

00004074 <l3999>:
    4074:	b049900e 	sublt	r9, r9, lr

00004078 <l4000>:
    4078:	6043ee0f 	subvs	lr, r3, pc, lsl #28

0000407c <l4001>:
    407c:	75ddc026 	ldrbvc	ip, [sp, #38]	; 0x26

00004080 <l4002>:
    4080:	a0e15c69 	rscge	r5, r1, r9, ror #24

00004084 <l4003>:
    4084:	ea000003 	b	4098 <l4008>

00004088 <l4004>:
    4088:	e2801058 	add	r1, r0, #88	; 0x58

0000408c <l4005>:
    408c:	e35c0417 	cmp	ip, #385875968	; 0x17000000

00004090 <l4006>:
    4090:	e0930000 	adds	r0, r3, r0

00004094 <l4007>:
    4094:	ea000000 	b	409c <l4009>

00004098 <l4008>:
    4098:	eafffffb 	b	408c <l4005>

0000409c <l4009>:
    409c:	82c29b19 	sbchi	r9, r2, #25600	; 0x6400

000040a0 <l4010>:
    40a0:	32393707 	eorscc	r3, r9, #1835008	; 0x1c0000

000040a4 <l4011>:
    40a4:	70358235 	eorsvc	r8, r5, r5, lsr r2

000040a8 <l4012>:
    40a8:	d115006e 	tstle	r5, lr, rrx

000040ac <l4013>:
    40ac:	ea000002 	b	40bc <l4017>

000040b0 <l4014>:
    40b0:	e28010d1 	add	r1, r0, #209	; 0xd1

000040b4 <l4015>:
    40b4:	e26624d6 	rsb	r2, r6, #-704643072	; 0xd6000000

000040b8 <l4016>:
    40b8:	ea000000 	b	40c0 <l4018>

000040bc <l4017>:
    40bc:	eafffffc 	b	40b4 <l4015>

000040c0 <l4018>:
    40c0:	e3a04033 	mov	r4, #51	; 0x33

000040c4 <l4019>:
    40c4:	9040b001 	subls	fp, r0, r1

000040c8 <l4020>:
    40c8:	e3a0e010 	mov	lr, #16

000040cc <l4021>:
    40cc:	e69db00e 	ldr	fp, [sp], lr

000040d0 <l4022>:
    40d0:	6a000005 	bvs	40ec <l4029>

000040d4 <l4023>:
    40d4:	e28010fe 	add	r1, r0, #254	; 0xfe

000040d8 <l4024>:
    40d8:	e27128c6 	rsbs	r2, r1, #12976128	; 0xc60000

000040dc <l4025>:
    40dc:	e2df5403 	sbcs	r5, pc, #50331648	; 0x3000000

000040e0 <l4026>:
    40e0:	10447007 	subne	r7, r4, r7

000040e4 <l4027>:
    40e4:	81b09000 	movshi	r9, r0

000040e8 <l4028>:
    40e8:	ea000000 	b	40f0 <l4030>

000040ec <l4029>:
    40ec:	eafffff9 	b	40d8 <l4024>

000040f0 <l4030>:
    40f0:	e31c0a61 	tst	ip, #397312	; 0x61000

000040f4 <l4031>:
    40f4:	e0001062 	and	r1, r0, r2, rrx

000040f8 <l4032>:
    40f8:	5002c06c 	andpl	ip, r2, ip, rrx

000040fc <l4033>:
    40fc:	1090100f 	addsne	r1, r0, pc

00004100 <l4034>:
    4100:	ea000005 	b	411c <l4041>

00004104 <l4035>:
    4104:	5280a809 	addpl	sl, r0, #589824	; 0x90000

00004108 <l4036>:
    4108:	e08ce26f 	add	lr, ip, pc, ror #4

0000410c <l4037>:
    410c:	31c7c971 	biccc	ip, r7, r1, ror r9

00004110 <l4038>:
    4110:	e02c9254 	eor	r9, ip, r4, asr r2

00004114 <l4039>:
    4114:	911b0009 	tstls	fp, r9

00004118 <l4040>:
    4118:	e38904ca 	orr	r0, r9, #-905969664	; 0xca000000

0000411c <l4041>:
    411c:	e17e0376 	cmn	lr, r6, ror r3

00004120 <l4042>:
    4120:	ea000004 	b	4138 <l4048>

00004124 <l4043>:
    4124:	e2b6bfb3 	adcs	fp, r6, #716	; 0x2cc

00004128 <l4044>:
    4128:	e1d04485 	bics	r4, r0, r5, lsl #9

0000412c <l4045>:
    412c:	516fef1b 	clzpl	lr, fp

00004130 <l4046>:
    4130:	e067100a 	rsb	r1, r7, sl

00004134 <l4047>:
    4134:	03c4503b 	biceq	r5, r4, #59	; 0x3b

00004138 <l4048>:
    4138:	d0c03d47 	sbcle	r3, r0, r7, asr #26

0000413c <l4049>:
    413c:	616f4f14 	clzvs	r4, r4

00004140 <l4050>:
    4140:	c16f2f1a 	clzgt	r2, sl

00004144 <l4051>:
    4144:	ba000007 	blt	4168 <l4060>

00004148 <l4052>:
    4148:	e2801041 	add	r1, r0, #65	; 0x41

0000414c <l4053>:
    414c:	e16f1f15 	clz	r1, r5

00004150 <l4054>:
    4150:	92f9c020 	rscsls	ip, r9, #32

00004154 <l4055>:
    4154:	808f1003 	addhi	r1, pc, r3

00004158 <l4056>:
    4158:	61b0be39 	lsrsvs	fp, r9, lr

0000415c <l4057>:
    415c:	e0596009 	subs	r6, r9, r9

00004160 <l4058>:
    4160:	2082c80b 	addcs	ip, r2, fp, lsl #16

00004164 <l4059>:
    4164:	ea000000 	b	416c <l4061>

00004168 <l4060>:
    4168:	eafffff7 	b	414c <l4053>

0000416c <l4061>:
    416c:	7a000003 	bvc	4180 <l4066>

00004170 <l4062>:
    4170:	61a03c6e 	rorvs	r3, lr, #24

00004174 <l4063>:
    4174:	e35b0c05 	cmp	fp, #1280	; 0x500

00004178 <l4064>:
    4178:	21811fa9 	orrcs	r1, r1, r9, lsr #31

0000417c <l4065>:
    417c:	a01fc068 	andsge	ip, pc, r8, rrx

00004180 <l4066>:
    4180:	e3190622 	tst	r9, #35651584	; 0x2200000

00004184 <l4067>:
    4184:	b015400e 	andslt	r4, r5, lr

00004188 <l4068>:
    4188:	aa000006 	bge	41a8 <l4076>

0000418c <l4069>:
    418c:	20b3e065 	adcscs	lr, r3, r5, rrx

00004190 <l4070>:
    4190:	d0b626cc 	adcsle	r2, r6, ip, asr #13

00004194 <l4071>:
    4194:	e1340820 	teq	r4, r0, lsr #16

00004198 <l4072>:
    4198:	53d41469 	bicspl	r1, r4, #1761607680	; 0x69000000

0000419c <l4073>:
    419c:	e2441d07 	sub	r1, r4, #448	; 0x1c0

000041a0 <l4074>:
    41a0:	017e000e 	cmneq	lr, lr

000041a4 <l4075>:
    41a4:	9058a000 	subsls	sl, r8, r0

000041a8 <l4076>:
