
dpmul_5000.o:     file format elf32-littlearm


Disassembly of section .text:

00000000 <main>:
       0:	e05f000f 	subs	r0, pc, pc
       4:	e59fd000 	ldr	sp, [pc]	; c <val>
       8:	ea000000 	b	10 <next>

0000000c <val>:
       c:	000ffff0 	.word	0x000ffff0

00000010 <next>:
      10:	e59f1000 	ldr	r1, [pc]	; 18 <val1>
      14:	ea000000 	b	1c <next1>

00000018 <val1>:
      18:	fb4c5fe9 	.word	0xfb4c5fe9

0000001c <next1>:
      1c:	e59f2000 	ldr	r2, [pc]	; 24 <val2>
      20:	ea000000 	b	28 <next2>

00000024 <val2>:
      24:	5629d024 	.word	0x5629d024

00000028 <next2>:
      28:	e59f3000 	ldr	r3, [pc]	; 30 <val3>
      2c:	ea000000 	b	34 <next3>

00000030 <val3>:
      30:	ada37479 	.word	0xada37479

00000034 <next3>:
      34:	e59f4000 	ldr	r4, [pc]	; 3c <val4>
      38:	ea000000 	b	40 <next4>

0000003c <val4>:
      3c:	5fda39a2 	.word	0x5fda39a2

00000040 <next4>:
      40:	e59f5000 	ldr	r5, [pc]	; 48 <val5>
      44:	ea000000 	b	4c <next5>

00000048 <val5>:
      48:	932b83e2 	.word	0x932b83e2

0000004c <next5>:
      4c:	e59f6000 	ldr	r6, [pc]	; 54 <val6>
      50:	ea000000 	b	58 <next6>

00000054 <val6>:
      54:	a693b418 	.word	0xa693b418

00000058 <next6>:
      58:	e59f7000 	ldr	r7, [pc]	; 60 <val7>
      5c:	ea000000 	b	64 <next7>

00000060 <val7>:
      60:	e3cd78ec 	.word	0xe3cd78ec

00000064 <next7>:
      64:	e59f8000 	ldr	r8, [pc]	; 6c <val8>
      68:	ea000000 	b	70 <next8>

0000006c <val8>:
      6c:	9f60a1a5 	.word	0x9f60a1a5

00000070 <next8>:
      70:	e59f9000 	ldr	r9, [pc]	; 78 <val9>
      74:	ea000000 	b	7c <next9>

00000078 <val9>:
      78:	90cdc25c 	.word	0x90cdc25c

0000007c <next9>:
      7c:	e59fa000 	ldr	sl, [pc]	; 84 <val10>
      80:	ea000000 	b	88 <next10>

00000084 <val10>:
      84:	5369cd88 	.word	0x5369cd88

00000088 <next10>:
      88:	e59fb000 	ldr	fp, [pc]	; 90 <val11>
      8c:	ea000000 	b	94 <next11>

00000090 <val11>:
      90:	46a2089c 	.word	0x46a2089c

00000094 <next11>:
      94:	e59fc000 	ldr	ip, [pc]	; 9c <val12>
      98:	ea000000 	b	a0 <next12>

0000009c <val12>:
      9c:	d586e38b 	.word	0xd586e38b

000000a0 <next12>:
      a0:	e59fe000 	ldr	lr, [pc]	; a8 <val14>
      a4:	ea000000 	b	ac <next14>

000000a8 <val14>:
      a8:	10fc649d 	.word	0x10fc649d

000000ac <next14>:
      ac:	e59f1000 	ldr	r1, [pc]	; b4 <val15>
      b0:	ea000000 	b	b8 <next15>

000000b4 <val15>:
      b4:	6345eea0 	.word	0x6345eea0

000000b8 <next15>:
      b8:	e58d1000 	str	r1, [sp]
      bc:	e59f1000 	ldr	r1, [pc]	; c4 <val16>
      c0:	ea000000 	b	c8 <next16>

000000c4 <val16>:
      c4:	1a0684b6 	.word	0x1a0684b6

000000c8 <next16>:
      c8:	e50d1004 	str	r1, [sp, #-4]
      cc:	e59f1000 	ldr	r1, [pc]	; d4 <val17>
      d0:	ea000000 	b	d8 <next17>

000000d4 <val17>:
      d4:	d489f956 	.word	0xd489f956

000000d8 <next17>:
      d8:	e50d1008 	str	r1, [sp, #-8]
      dc:	e59f1000 	ldr	r1, [pc]	; e4 <val18>
      e0:	ea000000 	b	e8 <next18>

000000e4 <val18>:
      e4:	a0faa866 	.word	0xa0faa866

000000e8 <next18>:
      e8:	e50d100c 	str	r1, [sp, #-12]
      ec:	e59f1000 	ldr	r1, [pc]	; f4 <val19>
      f0:	ea000000 	b	f8 <next19>

000000f4 <val19>:
      f4:	06cca953 	.word	0x06cca953

000000f8 <next19>:
      f8:	e50d1010 	str	r1, [sp, #-16]
      fc:	e59f1000 	ldr	r1, [pc]	; 104 <val20>
     100:	ea000000 	b	108 <next20>

00000104 <val20>:
     104:	1d3105f2 	.word	0x1d3105f2

00000108 <next20>:
     108:	e50d1014 	str	r1, [sp, #-20]
     10c:	e59f1000 	ldr	r1, [pc]	; 114 <val21>
     110:	ea000000 	b	118 <next21>

00000114 <val21>:
     114:	ca05f7e1 	.word	0xca05f7e1

00000118 <next21>:
     118:	e50d1018 	str	r1, [sp, #-24]
     11c:	e59f1000 	ldr	r1, [pc]	; 124 <val22>
     120:	ea000000 	b	128 <next22>

00000124 <val22>:
     124:	6b7d5532 	.word	0x6b7d5532

00000128 <next22>:
     128:	e50d101c 	str	r1, [sp, #-28]
     12c:	e59f1000 	ldr	r1, [pc]	; 134 <val23>
     130:	ea000000 	b	138 <next23>

00000134 <val23>:
     134:	a7b17dd1 	.word	0xa7b17dd1

00000138 <next23>:
     138:	e50d1020 	str	r1, [sp, #-32]
     13c:	e59f1000 	ldr	r1, [pc]	; 144 <val24>
     140:	ea000000 	b	148 <next24>

00000144 <val24>:
     144:	f6f4966c 	.word	0xf6f4966c

00000148 <next24>:
     148:	e50d1024 	str	r1, [sp, #-36]	; 0x24
     14c:	e59f1000 	ldr	r1, [pc]	; 154 <val25>
     150:	ea000000 	b	158 <next25>

00000154 <val25>:
     154:	35da0ef5 	.word	0x35da0ef5

00000158 <next25>:
     158:	e50d1028 	str	r1, [sp, #-40]	; 0x28
     15c:	e59f1000 	ldr	r1, [pc]	; 164 <val26>
     160:	ea000000 	b	168 <next26>

00000164 <val26>:
     164:	f4f5cc01 	.word	0xf4f5cc01

00000168 <next26>:
     168:	e50d102c 	str	r1, [sp, #-44]	; 0x2c
     16c:	e59f1000 	ldr	r1, [pc]	; 174 <val27>
     170:	ea000000 	b	178 <next27>

00000174 <val27>:
     174:	fe4f4fda 	.word	0xfe4f4fda

00000178 <next27>:
     178:	e50d1030 	str	r1, [sp, #-48]	; 0x30
     17c:	e59f1000 	ldr	r1, [pc]	; 184 <val28>
     180:	ea000000 	b	188 <next28>

00000184 <val28>:
     184:	d0ddb523 	.word	0xd0ddb523

00000188 <next28>:
     188:	e50d1034 	str	r1, [sp, #-52]	; 0x34
     18c:	e59f1000 	ldr	r1, [pc]	; 194 <val29>
     190:	ea000000 	b	198 <next29>

00000194 <val29>:
     194:	d18dcf57 	.word	0xd18dcf57

00000198 <next29>:
     198:	e50d1038 	str	r1, [sp, #-56]	; 0x38
     19c:	e59f1000 	ldr	r1, [pc]	; 1a4 <val30>
     1a0:	ea000000 	b	1a8 <next30>

000001a4 <val30>:
     1a4:	c80c0c3c 	.word	0xc80c0c3c

000001a8 <next30>:
     1a8:	e50d103c 	str	r1, [sp, #-60]	; 0x3c
     1ac:	e59f1000 	ldr	r1, [pc]	; 1b4 <val31>
     1b0:	ea000000 	b	1b8 <next31>

000001b4 <val31>:
     1b4:	b6639544 	.word	0xb6639544

000001b8 <next31>:
     1b8:	e50d1040 	str	r1, [sp, #-64]	; 0x40
     1bc:	e59f1000 	ldr	r1, [pc]	; 1c4 <val32>
     1c0:	ea000000 	b	1c8 <next32>

000001c4 <val32>:
     1c4:	41cf4816 	.word	0x41cf4816

000001c8 <next32>:
     1c8:	e50d1044 	str	r1, [sp, #-68]	; 0x44
     1cc:	e59f1000 	ldr	r1, [pc]	; 1d4 <val33>
     1d0:	ea000000 	b	1d8 <next33>

000001d4 <val33>:
     1d4:	85ff5c94 	.word	0x85ff5c94

000001d8 <next33>:
     1d8:	e50d1048 	str	r1, [sp, #-72]	; 0x48
     1dc:	e59f1000 	ldr	r1, [pc]	; 1e4 <val34>
     1e0:	ea000000 	b	1e8 <next34>

000001e4 <val34>:
     1e4:	9e38b076 	.word	0x9e38b076

000001e8 <next34>:
     1e8:	e50d104c 	str	r1, [sp, #-76]	; 0x4c
     1ec:	e59f1000 	ldr	r1, [pc]	; 1f4 <val35>
     1f0:	ea000000 	b	1f8 <next35>

000001f4 <val35>:
     1f4:	e83bf554 	.word	0xe83bf554

000001f8 <next35>:
     1f8:	e50d1050 	str	r1, [sp, #-80]	; 0x50

000001fc <l1>:
     1fc:	80a05b5c 	adchi	r5, r0, ip, asr fp

00000200 <l2>:
     200:	e0144fe2 	ands	r4, r4, r2, ror #31

00000204 <l3>:
     204:	8216211b 	andshi	r2, r6, #-1073741818	; 0xc0000006

00000208 <l4>:
     208:	81110b7b 	tsthi	r1, fp, ror fp

0000020c <l5>:
     20c:	e2cc100c 	sbc	r1, ip, #12

00000210 <l6>:
     210:	50f82e84 	rscspl	r2, r8, r4, lsl #29

00000214 <l7>:
     214:	30c7b007 	sbccc	fp, r7, r7

00000218 <l8>:
     218:	30983831 	addscc	r3, r8, r1, lsr r8

0000021c <l9>:
     21c:	d005089b 	mulle	r5, fp, r8

00000220 <l10>:
     220:	21150310 	tstcs	r5, r0, lsl r3

00000224 <l11>:
     224:	420e45a3 	andmi	r4, lr, #683671552	; 0x28c00000

00000228 <l12>:
     228:	e0180699 	muls	r8, r9, r6

0000022c <l13>:
     22c:	e0c3be1e 	sbc	fp, r3, lr, lsl lr

00000230 <l14>:
     230:	e0338002 	eors	r8, r3, r2

00000234 <l15>:
     234:	a1b0b919 	lslsge	fp, r9, r9

00000238 <l16>:
     238:	e0140e91 	muls	r4, r1, lr

0000023c <l17>:
     23c:	e0050394 	mul	r5, r4, r3

00000240 <l18>:
     240:	51ccc007 	bicpl	ip, ip, r7

00000244 <l19>:
     244:	d39a653b 	orrsle	r6, sl, #247463936	; 0xec00000

00000248 <l20>:
     248:	e0049002 	and	r9, r4, r2

0000024c <l21>:
     24c:	400b0a98 	mulmi	fp, r8, sl

00000250 <l22>:
     250:	40ba400a 	adcsmi	r4, sl, sl

00000254 <l23>:
     254:	e0f809e6 	rscs	r0, r8, r6, ror #19

00000258 <l24>:
     258:	e089c54f 	add	ip, r9, pc, asr #10

0000025c <l25>:
     25c:	e0121778 	ands	r1, r2, r8, ror r7

00000260 <l26>:
     260:	622be556 	eorvs	lr, fp, #360710144	; 0x15800000

00000264 <l27>:
     264:	b0082476 	andlt	r2, r8, r6, ror r4

00000268 <l28>:
     268:	811209ef 	tsthi	r2, pc, ror #19

0000026c <l29>:
     26c:	0256e9dd 	subseq	lr, r6, #3620864	; 0x374000

00000270 <l30>:
     270:	81730242 	cmnhi	r3, r2, asr #4

00000274 <l31>:
     274:	4033a007 	eorsmi	sl, r3, r7

00000278 <l32>:
     278:	20104007 	andscs	r4, r0, r7

0000027c <l33>:
     27c:	713c0008 	teqvc	ip, r8

00000280 <l34>:
     280:	e02190aa 	eor	r9, r1, sl, lsr #1

00000284 <l35>:
     284:	501215e7 	andspl	r1, r2, r7, ror #11

00000288 <l36>:
     288:	e1b0900e 	movs	r9, lr

0000028c <l37>:
     28c:	c0100b93 	mulsgt	r0, r3, fp

00000290 <l38>:
     290:	70298003 	eorvc	r8, r9, r3

00000294 <l39>:
     294:	c014eba7 	andsgt	lr, r4, r7, lsr #23

00000298 <l40>:
     298:	e15a0146 	cmp	sl, r6, asr #2

0000029c <l41>:
     29c:	e00e0599 	mul	lr, r9, r5

000002a0 <l42>:
     2a0:	415e0606 	cmpmi	lr, r6, lsl #12

000002a4 <l43>:
     2a4:	e2c800ed 	sbc	r0, r8, #237	; 0xed

000002a8 <l44>:
     2a8:	e00e2066 	and	r2, lr, r6, rrx

000002ac <l45>:
     2ac:	e06c66c7 	rsb	r6, ip, r7, asr #13

000002b0 <l46>:
     2b0:	d0b9906c 	adcsle	r9, r9, ip, rrx

000002b4 <l47>:
     2b4:	01876b57 	orreq	r6, r7, r7, asr fp

000002b8 <l48>:
     2b8:	e002436c 	and	r4, r2, ip, ror #6

000002bc <l49>:
     2bc:	e11b0966 	tst	fp, r6, ror #18

000002c0 <l50>:
     2c0:	6039ee4b 	eorsvs	lr, r9, fp, asr #28

000002c4 <l51>:
     2c4:	e13e0dcb 	teq	lr, fp, asr #27

000002c8 <l52>:
     2c8:	e00c0b9b 	mul	ip, fp, fp

000002cc <l53>:
     2cc:	601c0193 	mulsvs	ip, r3, r1

000002d0 <l54>:
     2d0:	116fcf10 	clzne	ip, r0

000002d4 <l55>:
     2d4:	30d51271 	sbcscc	r1, r5, r1, ror r2

000002d8 <l56>:
     2d8:	c11c0005 	tstgt	ip, r5

000002dc <l57>:
     2dc:	c0040792 	mulgt	r4, r2, r7

000002e0 <l58>:
     2e0:	e0010b99 	mul	r1, r9, fp

000002e4 <l59>:
     2e4:	10130296 	mulsne	r3, r6, r2

000002e8 <l60>:
     2e8:	e238807c 	eors	r8, r8, #124	; 0x7c

000002ec <l61>:
     2ec:	e0050096 	mul	r5, r6, r0

000002f0 <l62>:
     2f0:	d23ca4cb 	eorsle	sl, ip, #-889192448	; 0xcb000000

000002f4 <l63>:
     2f4:	72141101 	andsvc	r1, r4, #1073741824	; 0x40000000

000002f8 <l64>:
     2f8:	13540ea9 	cmpne	r4, #2704	; 0xa90

000002fc <l65>:
     2fc:	e016089b 	muls	r6, fp, r8

00000300 <l66>:
     300:	e0050091 	mul	r5, r1, r0

00000304 <l67>:
     304:	216f8f11 	clzcs	r8, r1

00000308 <l68>:
     308:	100b049c 	mulne	fp, ip, r4

0000030c <l69>:
     30c:	e01bbe34 	ands	fp, fp, r4, lsr lr

00000310 <l70>:
     310:	b0130690 	mulslt	r3, r0, r6

00000314 <l71>:
     314:	e1b0363b 	lsrs	r3, fp, r6

00000318 <l72>:
     318:	901b0795 	mulsls	fp, r5, r7

0000031c <l73>:
     31c:	e00c0c91 	mul	ip, r1, ip

00000320 <l74>:
     320:	e00c0a90 	mul	ip, r0, sl

00000324 <l75>:
     324:	e01b0a9c 	muls	fp, ip, sl

00000328 <l76>:
     328:	a02f000e 	eorge	r0, pc, lr

0000032c <l77>:
     32c:	011b098e 	tsteq	fp, lr, lsl #19

00000330 <l78>:
     330:	80150c9b 	mulshi	r5, fp, ip

00000334 <l79>:
     334:	e097a305 	adds	sl, r7, r5, lsl #6

00000338 <l80>:
     338:	e24a5d8f 	sub	r5, sl, #9152	; 0x23c0

0000033c <l81>:
     33c:	30220fac 	eorcc	r0, r2, ip, lsr #31

00000340 <l82>:
     340:	e006089e 	mul	r6, lr, r8

00000344 <l83>:
     344:	53a01b12 	movpl	r1, #18432	; 0x4800

00000348 <l84>:
     348:	e155008e 	cmp	r5, lr, lsl #1

0000034c <l85>:
     34c:	800b0993 	mulhi	fp, r3, r9

00000350 <l86>:
     350:	e2d984bf 	sbcs	r8, r9, #-1090519040	; 0xbf000000

00000354 <l87>:
     354:	a009069c 	mulge	r9, ip, r6

00000358 <l88>:
     358:	b008069e 	mullt	r8, lr, r6

0000035c <l89>:
     35c:	b0088004 	andlt	r8, r8, r4

00000360 <l90>:
     360:	e082c63e 	add	ip, r2, lr, lsr r6

00000364 <l91>:
     364:	e01e0696 	muls	lr, r6, r6

00000368 <l92>:
     368:	523cb601 	eorspl	fp, ip, #1048576	; 0x100000

0000036c <l93>:
     36c:	e0190c91 	muls	r9, r1, ip

00000370 <l94>:
     370:	3096600f 	addscc	r6, r6, pc

00000374 <l95>:
     374:	e1d48004 	bics	r8, r4, r4

00000378 <l96>:
     378:	b00a0e9e 	mullt	sl, lr, lr

0000037c <l97>:
     37c:	d021ae65 	eorle	sl, r1, r5, ror #28

00000380 <l98>:
     380:	40abe20b 	adcmi	lr, fp, fp, lsl #4

00000384 <l99>:
     384:	2066c005 	rsbcs	ip, r6, r5

00000388 <l100>:
     388:	4008049a 	mulmi	r8, sl, r4

0000038c <l101>:
     38c:	5026500c 	eorpl	r5, r6, ip

00000390 <l102>:
     390:	e0080192 	mul	r8, r2, r1

00000394 <l103>:
     394:	e0130495 	muls	r3, r5, r4

00000398 <l104>:
     398:	c064a6c8 	rsbgt	sl, r4, r8, asr #13

0000039c <l105>:
     39c:	e03a5e86 	eors	r5, sl, r6, lsl #29

000003a0 <l106>:
     3a0:	b007069a 	mullt	r7, sl, r6

000003a4 <l107>:
     3a4:	20160e99 	mulscs	r6, r9, lr

000003a8 <l108>:
     3a8:	e1780008 	cmn	r8, r8

000003ac <l109>:
     3ac:	5015059e 	mulspl	r5, lr, r5

000003b0 <l110>:
     3b0:	92353045 	eorsls	r3, r5, #69	; 0x45

000003b4 <l111>:
     3b4:	e00c0c9e 	mul	ip, lr, ip

000003b8 <l112>:
     3b8:	e0536009 	subs	r6, r3, r9

000003bc <l113>:
     3bc:	50050390 	mulpl	r5, r0, r3

000003c0 <l114>:
     3c0:	60787261 	rsbsvs	r7, r8, r1, ror #4

000003c4 <l115>:
     3c4:	e0170a95 	muls	r7, r5, sl

000003c8 <l116>:
     3c8:	e0000a99 	mul	r0, r9, sl

000003cc <l117>:
     3cc:	c01c0a9a 	mulsgt	ip, sl, sl

000003d0 <l118>:
     3d0:	e1840008 	orr	r0, r4, r8

000003d4 <l119>:
     3d4:	60190490 	mulsvs	r9, r0, r4

000003d8 <l120>:
     3d8:	61320b70 	teqvs	r2, r0, ror fp

000003dc <l121>:
     3dc:	500bcb7c 	andpl	ip, fp, ip, ror fp

000003e0 <l122>:
     3e0:	e0078227 	and	r8, r7, r7, lsr #4

000003e4 <l123>:
     3e4:	901a4007 	andsls	r4, sl, r7

000003e8 <l124>:
     3e8:	e096255b 	adds	r2, r6, fp, asr r5

000003ec <l125>:
     3ec:	40050e96 	mulmi	r5, r6, lr

000003f0 <l126>:
     3f0:	e3a04ebd 	mov	r4, #3024	; 0xbd0

000003f4 <l127>:
     3f4:	e1a00001 	mov	r0, r1

000003f8 <l128>:
     3f8:	e0010694 	mul	r1, r4, r6

000003fc <l129>:
     3fc:	c0060999 	mulgt	r6, r9, r9

00000400 <l130>:
     400:	e0360243 	eors	r0, r6, r3, asr #4

00000404 <l131>:
     404:	e00b079c 	mul	fp, ip, r7

00000408 <l132>:
     408:	e0030c9c 	mul	r3, ip, ip

0000040c <l133>:
     40c:	e01e0a98 	muls	lr, r8, sl

00000410 <l134>:
     410:	e0140398 	muls	r4, r8, r3

00000414 <l135>:
     414:	e184e002 	orr	lr, r4, r2

00000418 <l136>:
     418:	7010029c 	mulsvc	r0, ip, r2

0000041c <l137>:
     41c:	e197b061 	orrs	fp, r7, r1, rrx

00000420 <l138>:
     420:	e35c02fe 	cmp	ip, #-536870897	; 0xe000000f

00000424 <l139>:
     424:	e011069b 	muls	r1, fp, r6

00000428 <l140>:
     428:	90296219 	eorls	r6, r9, r9, lsl r2

0000042c <l141>:
     42c:	7189cb81 	orrvc	ip, r9, r1, lsl #23

00000430 <l142>:
     430:	a150000b 	cmpge	r0, fp

00000434 <l143>:
     434:	800be714 	andhi	lr, fp, r4, lsl r7

00000438 <l144>:
     438:	20150899 	mulscs	r5, r9, r8

0000043c <l145>:
     43c:	e1320060 	teq	r2, r0, rrx

00000440 <l146>:
     440:	c16f0f11 	clzgt	r0, r1

00000444 <l147>:
     444:	e00c8638 	and	r8, ip, r8, lsr r6

00000448 <l148>:
     448:	70040993 	mulvc	r4, r3, r9

0000044c <l149>:
     44c:	e0fa100b 	rscs	r1, sl, fp

00000450 <l150>:
     450:	9187a161 	orrls	sl, r7, r1, ror #2

00000454 <l151>:
     454:	e2287a01 	eor	r7, r8, #4096	; 0x1000

00000458 <l152>:
     458:	e1f0a066 	mvns	sl, r6, rrx

0000045c <l153>:
     45c:	00070994 	muleq	r7, r4, r9

00000460 <l154>:
     460:	40180691 	mulsmi	r8, r1, r6

00000464 <l155>:
     464:	e1740005 	cmn	r4, r5

00000468 <l156>:
     468:	e171000b 	cmn	r1, fp

0000046c <l157>:
     46c:	10f4eb7a 	rscsne	lr, r4, sl, ror fp

00000470 <l158>:
     470:	e23682a1 	eors	r8, r6, #268435466	; 0x1000000a

00000474 <l159>:
     474:	60010490 	mulvs	r1, r0, r4

00000478 <l160>:
     478:	301e0499 	mulscc	lr, r9, r4

0000047c <l161>:
     47c:	e01e0c94 	muls	lr, r4, ip

00000480 <l162>:
     480:	e1d1a573 	bics	sl, r1, r3, ror r5

00000484 <l163>:
     484:	e1966006 	orrs	r6, r6, r6

00000488 <l164>:
     488:	e0eb4500 	rsc	r4, fp, r0, lsl #10

0000048c <l165>:
     48c:	9012039b 	mulsls	r2, fp, r3

00000490 <l166>:
     490:	a3b08b25 	movsge	r8, #37888	; 0x9400

00000494 <l167>:
     494:	e16f8f15 	clz	r8, r5

00000498 <l168>:
     498:	0158006a 	cmpeq	r8, sl, rrx

0000049c <l169>:
     49c:	e0090a9c 	mul	r9, ip, sl

000004a0 <l170>:
     4a0:	e0160994 	muls	r6, r4, r9

000004a4 <l171>:
     4a4:	e19fa000 	orrs	sl, pc, r0

000004a8 <l172>:
     4a8:	e01eca83 	ands	ip, lr, r3, lsl #21

000004ac <l173>:
     4ac:	d2337896 	eorsle	r7, r3, #9830400	; 0x960000

000004b0 <l174>:
     4b0:	20148175 	andscs	r8, r4, r5, ror r1

000004b4 <l175>:
     4b4:	b0e05474 	rsclt	r5, r0, r4, ror r4

000004b8 <l176>:
     4b8:	e0000691 	mul	r0, r1, r6

000004bc <l177>:
     4bc:	018c700a 	orreq	r7, ip, sl

000004c0 <l178>:
     4c0:	e013605b 	ands	r6, r3, fp, asr r0

000004c4 <l179>:
     4c4:	30030e9e 	mulcc	r3, lr, lr

000004c8 <l180>:
     4c8:	e1790000 	cmn	r9, r0

000004cc <l181>:
     4cc:	e0100b9e 	muls	r0, lr, fp

000004d0 <l182>:
     4d0:	e16f4f1c 	clz	r4, ip

000004d4 <l183>:
     4d4:	41e06008 	mvnmi	r6, r8

000004d8 <l184>:
     4d8:	401b0492 	mulsmi	fp, r2, r4

000004dc <l185>:
     4dc:	e23a621b 	eors	r6, sl, #-1342177279	; 0xb0000001

000004e0 <l186>:
     4e0:	70050c98 	mulvc	r5, r8, ip

000004e4 <l187>:
     4e4:	e0060391 	mul	r6, r1, r3

000004e8 <l188>:
     4e8:	90c01006 	sbcls	r1, r0, r6

000004ec <l189>:
     4ec:	0026600f 	eoreq	r6, r6, pc

000004f0 <l190>:
     4f0:	e0060e92 	mul	r6, r2, lr

000004f4 <l191>:
     4f4:	e0090598 	mul	r9, r8, r5

000004f8 <l192>:
     4f8:	e0613340 	rsb	r3, r1, r0, asr #6

000004fc <l193>:
     4fc:	51780000 	cmnpl	r8, r0

00000500 <l194>:
     500:	c2372d96 	eorsgt	r2, r7, #9600	; 0x2580

00000504 <l195>:
     504:	e1380002 	teq	r8, r2

00000508 <l196>:
     508:	8089c030 	addhi	ip, r9, r0, lsr r0

0000050c <l197>:
     50c:	539be5d9 	orrspl	lr, fp, #910163968	; 0x36400000

00000510 <l198>:
     510:	e0050493 	mul	r5, r3, r4

00000514 <l199>:
     514:	10ee07ca 	rscne	r0, lr, sl, asr #15

00000518 <l200>:
     518:	e07f1000 	rsbs	r1, pc, r0

0000051c <l201>:
     51c:	829a908a 	addshi	r9, sl, #138	; 0x8a

00000520 <l202>:
     520:	81a0c063 	rrxhi	ip, r3

00000524 <l203>:
     524:	41829002 	orrmi	r9, r2, r2

00000528 <l204>:
     528:	21130066 	tstcs	r3, r6, rrx

0000052c <l205>:
     52c:	117e0f0a 	cmnne	lr, sl, lsl #30

00000530 <l206>:
     530:	50159982 	andspl	r9, r5, r2, lsl #19

00000534 <l207>:
     534:	81a07003 	movhi	r7, r3

00000538 <l208>:
     538:	421aba11 	andsmi	fp, sl, #69632	; 0x11000

0000053c <l209>:
     53c:	b0030c91 	mullt	r3, r1, ip

00000540 <l210>:
     540:	e15c05c9 	cmp	ip, r9, asr #11

00000544 <l211>:
     544:	d234106b 	eorsle	r1, r4, #107	; 0x6b

00000548 <l212>:
     548:	e0100b98 	muls	r0, r8, fp

0000054c <l213>:
     54c:	d2dbabcd 	sbcsle	sl, fp, #209920	; 0x33400

00000550 <l214>:
     550:	619ac14c 	orrsvs	ip, sl, ip, asr #2

00000554 <l215>:
     554:	61b0ee65 	rorsvs	lr, r5, #28

00000558 <l216>:
     558:	500a0094 	mulpl	sl, r4, r0

0000055c <l217>:
     55c:	2253104c 	subscs	r1, r3, #76	; 0x4c

00000560 <l218>:
     560:	e00c0191 	mul	ip, r1, r1

00000564 <l219>:
     564:	70010193 	mulvc	r1, r3, r1

00000568 <l220>:
     568:	406e3204 	rsbmi	r3, lr, r4, lsl #4

0000056c <l221>:
     56c:	50f8e06c 	rscspl	lr, r8, ip, rrx

00000570 <l222>:
     570:	41520000 	cmpmi	r2, r0

00000574 <l223>:
     574:	e20f8ee3 	and	r8, pc, #3632	; 0xe30

00000578 <l224>:
     578:	82264f75 	eorhi	r4, r6, #468	; 0x1d4

0000057c <l225>:
     57c:	a0050a91 	mulge	r5, r1, sl

00000580 <l226>:
     580:	a022a06f 	eorge	sl, r2, pc, rrx

00000584 <l227>:
     584:	d19b7e4a 	orrsle	r7, fp, sl, asr #28

00000588 <l228>:
     588:	e1100a18 	tst	r0, r8, lsl sl

0000058c <l229>:
     58c:	30040a9a 	mulcc	r4, sl, sl

00000590 <l230>:
     590:	3189e28c 	orrcc	lr, r9, ip, lsl #5

00000594 <l231>:
     594:	200e089c 	mulcs	lr, ip, r8

00000598 <l232>:
     598:	80192062 	andshi	r2, r9, r2, rrx

0000059c <l233>:
     59c:	40010c93 	mulmi	r1, r3, ip

000005a0 <l234>:
     5a0:	40030195 	mulmi	r3, r5, r1

000005a4 <l235>:
     5a4:	a016029e 	mulsge	r6, lr, r2

000005a8 <l236>:
     5a8:	c0110796 	mulsgt	r1, r6, r7

000005ac <l237>:
     5ac:	e019ca52 	ands	ip, r9, r2, asr sl

000005b0 <l238>:
     5b0:	100b0e92 	mulne	fp, r2, lr

000005b4 <l239>:
     5b4:	2233b48b 	eorscs	fp, r3, #-1962934272	; 0x8b000000

000005b8 <l240>:
     5b8:	41560803 	cmpmi	r6, r3, lsl #16

000005bc <l241>:
     5bc:	60020997 	mulvs	r2, r7, r9

000005c0 <l242>:
     5c0:	e0140992 	muls	r4, r2, r9

000005c4 <l243>:
     5c4:	91570cec 	cmpls	r7, ip, ror #25

000005c8 <l244>:
     5c8:	10565437 	subsne	r5, r6, r7, lsr r4

000005cc <l245>:
     5cc:	e00a900a 	and	r9, sl, sl

000005d0 <l246>:
     5d0:	202f5e82 	eorcs	r5, pc, r2, lsl #29

000005d4 <l247>:
     5d4:	e18f400c 	orr	r4, pc, ip

000005d8 <l248>:
     5d8:	2011079c 	mulscs	r1, ip, r7

000005dc <l249>:
     5dc:	d03fc065 	eorsle	ip, pc, r5, rrx

000005e0 <l250>:
     5e0:	e0332653 	eors	r2, r3, r3, asr r6

000005e4 <l251>:
     5e4:	e0020594 	mul	r2, r4, r5

000005e8 <l252>:
     5e8:	83e03275 	mvnhi	r3, #1342177287	; 0x50000007

000005ec <l253>:
     5ec:	e0140e9a 	muls	r4, sl, lr

000005f0 <l254>:
     5f0:	91a0b510 	lslls	fp, r0, r5

000005f4 <l255>:
     5f4:	90f35063 	rscsls	r5, r3, r3, rrx

000005f8 <l256>:
     5f8:	23856dbb 	orrcs	r6, r5, #11968	; 0x2ec0

000005fc <l257>:
     5fc:	91700860 	cmnls	r0, r0, ror #16

00000600 <l258>:
     600:	e0050e93 	mul	r5, r3, lr

00000604 <l259>:
     604:	d3896f82 	orrle	r6, r9, #520	; 0x208

00000608 <l260>:
     608:	20060994 	mulcs	r6, r4, r9

0000060c <l261>:
     60c:	c1988876 	orrsgt	r8, r8, r6, ror r8

00000610 <l262>:
     610:	900e0c9c 	mulls	lr, ip, ip

00000614 <l263>:
     614:	e1d58a71 	bics	r8, r5, r1, ror sl

00000618 <l264>:
     618:	e1da500c 	bics	r5, sl, ip

0000061c <l265>:
     61c:	10080596 	mulne	r8, r6, r5

00000620 <l266>:
     620:	138b0cc2 	orrne	r0, fp, #49664	; 0xc200

00000624 <l267>:
     624:	e0120093 	muls	r2, r3, r0

00000628 <l268>:
     628:	116f2f1c 	clzne	r2, ip

0000062c <l269>:
     62c:	e1f0641a 	mvns	r6, sl, lsl r4

00000630 <l270>:
     630:	e00c0c9e 	mul	ip, lr, ip

00000634 <l271>:
     634:	e0080c93 	mul	r8, r3, ip

00000638 <l272>:
     638:	e1390067 	teq	r9, r7, rrx

0000063c <l273>:
     63c:	323e3506 	eorscc	r3, lr, #25165824	; 0x1800000

00000640 <l274>:
     640:	200c059e 	mulcs	ip, lr, r5

00000644 <l275>:
     644:	03720d22 	cmneq	r2, #2176	; 0x880

00000648 <l276>:
     648:	6022100b 	eorvs	r1, r2, fp

0000064c <l277>:
     64c:	70090e95 	mulvc	r9, r5, lr

00000650 <l278>:
     650:	80020a97 	mulhi	r2, r7, sl

00000654 <l279>:
     654:	a03f440f 	eorsge	r4, pc, pc, lsl #8

00000658 <l280>:
     658:	e013019e 	muls	r3, lr, r1

0000065c <l281>:
     65c:	50121067 	andspl	r1, r2, r7, rrx

00000660 <l282>:
     660:	833204ee 	teqhi	r2, #-301989888	; 0xee000000

00000664 <l283>:
     664:	a2485ca5 	subge	r5, r8, #42240	; 0xa500

00000668 <l284>:
     668:	61590e31 	cmpvs	r9, r1, lsr lr

0000066c <l285>:
     66c:	e1f02001 	mvns	r2, r1

00000670 <l286>:
     670:	b0160692 	mulslt	r6, r2, r6

00000674 <l287>:
     674:	903b3710 	eorsls	r3, fp, r0, lsl r7

00000678 <l288>:
     678:	e38e4ab6 	orr	r4, lr, #745472	; 0xb6000

0000067c <l289>:
     67c:	538b774e 	orrpl	r7, fp, #20447232	; 0x1380000

00000680 <l290>:
     680:	82096d67 	andhi	r6, r9, #6592	; 0x19c0

00000684 <l291>:
     684:	e1770824 	cmn	r7, r4, lsr #16

00000688 <l292>:
     688:	133b0262 	teqne	fp, #536870918	; 0x20000006

0000068c <l293>:
     68c:	e0180c94 	muls	r8, r4, ip

00000690 <l294>:
     690:	b174000f 	cmnlt	r4, pc

00000694 <l295>:
     694:	82039a0a 	andhi	r9, r3, #40960	; 0xa000

00000698 <l296>:
     698:	e00e0a93 	mul	lr, r3, sl

0000069c <l297>:
     69c:	e1882009 	orr	r2, r8, r9

000006a0 <l298>:
     6a0:	d18160ee 	orrle	r6, r1, lr, ror #1

000006a4 <l299>:
     6a4:	913a0e7a 	teqls	sl, sl, ror lr

000006a8 <l300>:
     6a8:	e172006a 	cmn	r2, sl, rrx

000006ac <l301>:
     6ac:	41cac008 	bicmi	ip, sl, r8

000006b0 <l302>:
     6b0:	4048100b 	submi	r1, r8, fp

000006b4 <l303>:
     6b4:	e00a0290 	mul	sl, r0, r2

000006b8 <l304>:
     6b8:	a0040a95 	mulge	r4, r5, sl

000006bc <l305>:
     6bc:	50150497 	mulspl	r5, r7, r4

000006c0 <l306>:
     6c0:	e038b008 	eors	fp, r8, r8

000006c4 <l307>:
     6c4:	b17b0002 	cmnlt	fp, r2

000006c8 <l308>:
     6c8:	81d9e807 	bicshi	lr, r9, r7, lsl #16

000006cc <l309>:
     6cc:	a1f0a005 	mvnsge	sl, r5

000006d0 <l310>:
     6d0:	c01b0a90 	mulsgt	fp, r0, sl

000006d4 <l311>:
     6d4:	e0040a95 	mul	r4, r5, sl

000006d8 <l312>:
     6d8:	2041a00a 	subcs	sl, r1, sl

000006dc <l313>:
     6dc:	839e6831 	orrshi	r6, lr, #3211264	; 0x310000

000006e0 <l314>:
     6e0:	e00aa00a 	and	sl, sl, sl

000006e4 <l315>:
     6e4:	b03c5339 	eorslt	r5, ip, r9, lsr r3

000006e8 <l316>:
     6e8:	b22e7001 	eorlt	r7, lr, #1

000006ec <l317>:
     6ec:	e000099e 	mul	r0, lr, r9

000006f0 <l318>:
     6f0:	b0090992 	mullt	r9, r2, r9

000006f4 <l319>:
     6f4:	e01a0098 	muls	sl, r8, r0

000006f8 <l320>:
     6f8:	31c8c948 	biccc	ip, r8, r8, asr #18

000006fc <l321>:
     6fc:	6036175c 	eorsvs	r1, r6, ip, asr r7

00000700 <l322>:
     700:	70202007 	eorvc	r2, r0, r7

00000704 <l323>:
     704:	e0150796 	muls	r5, r6, r7

00000708 <l324>:
     708:	e0100c98 	muls	r0, r8, ip

0000070c <l325>:
     70c:	e116073c 	tst	r6, ip, lsr r7

00000710 <l326>:
     710:	20432959 	subcs	r2, r3, r9, asr r9

00000714 <l327>:
     714:	e1931511 	orrs	r1, r3, r1, lsl r5

00000718 <l328>:
     718:	601e7b79 	andsvs	r7, lr, r9, ror fp

0000071c <l329>:
     71c:	b00c0392 	mullt	ip, r2, r3

00000720 <l330>:
     720:	e08a87c8 	add	r8, sl, r8, asr #15

00000724 <l331>:
     724:	00010792 	muleq	r1, r2, r7

00000728 <l332>:
     728:	200c4000 	andcs	r4, ip, r0

0000072c <l333>:
     72c:	40fb9434 	rscsmi	r9, fp, r4, lsr r4

00000730 <l334>:
     730:	e180e68b 	orr	lr, r0, fp, lsl #13

00000734 <l335>:
     734:	b00e0899 	mullt	lr, r9, r8

00000738 <l336>:
     738:	90b91003 	adcsls	r1, r9, r3

0000073c <l337>:
     73c:	a034900e 	eorsge	r9, r4, lr

00000740 <l338>:
     740:	e0100005 	ands	r0, r0, r5

00000744 <l339>:
     744:	a0150893 	mulsge	r5, r3, r8

00000748 <l340>:
     748:	b35f03e6 	cmplt	pc, #-1744830461	; 0x98000003

0000074c <l341>:
     74c:	90526359 	subsls	r6, r2, r9, asr r3

00000750 <l342>:
     750:	203c0007 	eorscs	r0, ip, r7

00000754 <l343>:
     754:	e08e8111 	add	r8, lr, r1, lsl r1

00000758 <l344>:
     758:	40070e95 	mulmi	r7, r5, lr

0000075c <l345>:
     75c:	e1a07148 	asr	r7, r8, #2

00000760 <l346>:
     760:	018716a9 	orreq	r1, r7, r9, lsr #13

00000764 <l347>:
     764:	e05a4b4a 	subs	r4, sl, sl, asr #22

00000768 <l348>:
     768:	80160a91 	mulshi	r6, r1, sl

0000076c <l349>:
     76c:	e16f3f1c 	clz	r3, ip

00000770 <l350>:
     770:	100a0590 	mulne	sl, r0, r5

00000774 <l351>:
     774:	e0140099 	muls	r4, r9, r0

00000778 <l352>:
     778:	0035b006 	eorseq	fp, r5, r6

0000077c <l353>:
     77c:	e05ba815 	subs	sl, fp, r5, lsl r8

00000780 <l354>:
     780:	e0130594 	muls	r3, r4, r5

00000784 <l355>:
     784:	40341229 	eorsmi	r1, r4, r9, lsr #4

00000788 <l356>:
     788:	e007bc71 	and	fp, r7, r1, ror ip

0000078c <l357>:
     78c:	80170398 	mulshi	r7, r8, r3

00000790 <l358>:
     790:	701e0395 	mulsvc	lr, r5, r3

00000794 <l359>:
     794:	d0bae00f 	adcsle	lr, sl, pc

00000798 <l360>:
     798:	3390cd5f 	orrscc	ip, r0, #6080	; 0x17c0

0000079c <l361>:
     79c:	831a01e9 	tsthi	sl, #1073741882	; 0x4000003a

000007a0 <l362>:
     7a0:	e0453006 	sub	r3, r5, r6

000007a4 <l363>:
     7a4:	c01e0002 	andsgt	r0, lr, r2

000007a8 <l364>:
     7a8:	a0030990 	mulge	r3, r0, r9

000007ac <l365>:
     7ac:	e00f1009 	and	r1, pc, r9

000007b0 <l366>:
     7b0:	e23a9d7b 	eors	r9, sl, #7872	; 0x1ec0

000007b4 <l367>:
     7b4:	e018069e 	muls	r8, lr, r6

000007b8 <l368>:
     7b8:	e1e0400e 	mvn	r4, lr

000007bc <l369>:
     7bc:	d005800e 	andle	r8, r5, lr

000007c0 <l370>:
     7c0:	739fc2ff 	orrsvc	ip, pc, #-268435441	; 0xf000000f

000007c4 <l371>:
     7c4:	e008009e 	mul	r8, lr, r0

000007c8 <l372>:
     7c8:	1010e066 	andsne	lr, r0, r6, rrx

000007cc <l373>:
     7cc:	70190690 	mulsvc	r9, r0, r6

000007d0 <l374>:
     7d0:	72a8822e 	adcvc	r8, r8, #-536870910	; 0xe0000002

000007d4 <l375>:
     7d4:	e01c049b 	muls	ip, fp, r4

000007d8 <l376>:
     7d8:	50060a94 	mulpl	r6, r4, sl

000007dc <l377>:
     7dc:	7017605b 	andsvc	r6, r7, fp, asr r0

000007e0 <l378>:
     7e0:	e37e089d 	cmn	lr, #10289152	; 0x9d0000

000007e4 <l379>:
     7e4:	e01b0698 	muls	fp, r8, r6

000007e8 <l380>:
     7e8:	9014099c 	mulsls	r4, ip, r9

000007ec <l381>:
     7ec:	820330fc 	andhi	r3, r3, #252	; 0xfc

000007f0 <l382>:
     7f0:	e0070b95 	mul	r7, r5, fp

000007f4 <l383>:
     7f4:	31d175e8 	bicscc	r7, r1, r8, ror #11

000007f8 <l384>:
     7f8:	a1570216 	cmpge	r7, r6, lsl r2

000007fc <l385>:
     7fc:	e0160394 	muls	r6, r4, r3

00000800 <l386>:
     800:	51b0afc6 	asrspl	sl, r6, #31

00000804 <l387>:
     804:	022faa15 	eoreq	sl, pc, #86016	; 0x15000

00000808 <l388>:
     808:	e39bea8e 	orrs	lr, fp, #581632	; 0x8e000

0000080c <l389>:
     80c:	c003727e 	andgt	r7, r3, lr, ror r2

00000810 <l390>:
     810:	71802530 	orrvc	r2, r0, r0, lsr r5

00000814 <l391>:
     814:	e16faf1e 	clz	sl, lr

00000818 <l392>:
     818:	c16f2f1c 	clzgt	r2, ip

0000081c <l393>:
     81c:	e00c0e98 	mul	ip, r8, lr

00000820 <l394>:
     820:	e0f3406f 	rscs	r4, r3, pc, rrx

00000824 <l395>:
     824:	6024e05b 	eorvs	lr, r4, fp, asr r0

00000828 <l396>:
     828:	e2567d4a 	subs	r7, r6, #4736	; 0x1280

0000082c <l397>:
     82c:	9003009a 	mulls	r3, sl, r0

00000830 <l398>:
     830:	60190b95 	mulsvs	r9, r5, fp

00000834 <l399>:
     834:	3011e007 	andscc	lr, r1, r7

00000838 <l400>:
     838:	e00e8ba7 	and	r8, lr, r7, lsr #23

0000083c <l401>:
     83c:	e0070299 	mul	r7, r9, r2

00000840 <l402>:
     840:	018c606a 	orreq	r6, ip, sl, rrx

00000844 <l403>:
     844:	80030194 	mulhi	r3, r4, r1

00000848 <l404>:
     848:	3009079c 	mulcc	r9, ip, r7

0000084c <l405>:
     84c:	e38187d3 	orr	r8, r1, #55312384	; 0x34c0000

00000850 <l406>:
     850:	e013069c 	muls	r3, ip, r6

00000854 <l407>:
     854:	e013cf03 	ands	ip, r3, r3, lsl #30

00000858 <l408>:
     858:	c16f5f10 	clzgt	r5, r0

0000085c <l409>:
     85c:	80130398 	mulshi	r3, r8, r3

00000860 <l410>:
     860:	e018079a 	muls	r8, sl, r7

00000864 <l411>:
     864:	639521de 	orrsvs	r2, r5, #-2147483593	; 0x80000037

00000868 <l412>:
     868:	10020998 	mulne	r2, r8, r9

0000086c <l413>:
     86c:	5016e5eb 	andspl	lr, r6, fp, ror #11

00000870 <l414>:
     870:	a13a0534 	teqge	sl, r4, lsr r5

00000874 <l415>:
     874:	a0080392 	mulge	r8, r2, r3

00000878 <l416>:
     878:	d0160492 	mulsle	r6, r2, r4

0000087c <l417>:
     87c:	82aa3090 	adchi	r3, sl, #144	; 0x90

00000880 <l418>:
     880:	e0030898 	mul	r3, r8, r8

00000884 <l419>:
     884:	81a0300e 	movhi	r3, lr

00000888 <l420>:
     888:	218ec1cf 	orrcs	ip, lr, pc, asr #3

0000088c <l421>:
     88c:	e00f2d2e 	and	r2, pc, lr, lsr #26

00000890 <l422>:
     890:	0000059e 	muleq	r0, lr, r5

00000894 <l423>:
     894:	802b4600 	eorhi	r4, fp, r0, lsl #12

00000898 <l424>:
     898:	103e3e3e 	eorsne	r3, lr, lr, lsr lr

0000089c <l425>:
     89c:	a0b908e8 	adcsge	r0, r9, r8, ror #17

000008a0 <l426>:
     8a0:	b01e0e96 	mulslt	lr, r6, lr

000008a4 <l427>:
     8a4:	32720d89 	rsbscc	r0, r2, #8768	; 0x2240

000008a8 <l428>:
     8a8:	02f5c596 	rscseq	ip, r5, #629145600	; 0x25800000

000008ac <l429>:
     8ac:	e1120846 	tst	r2, r6, asr #16

000008b0 <l430>:
     8b0:	30694006 	rsbcc	r4, r9, r6

000008b4 <l431>:
     8b4:	90120090 	mulsls	r2, r0, r0

000008b8 <l432>:
     8b8:	70100e95 	mulsvc	r0, r5, lr

000008bc <l433>:
     8bc:	e01b0a95 	muls	fp, r5, sl

000008c0 <l434>:
     8c0:	a013400b 	andsge	r4, r3, fp

000008c4 <l435>:
     8c4:	40170b96 	mulsmi	r7, r6, fp

000008c8 <l436>:
     8c8:	63320ee5 	teqvs	r2, #3664	; 0xe50

000008cc <l437>:
     8cc:	e02669a6 	eor	r6, r6, r6, lsr #19

000008d0 <l438>:
     8d0:	e00b0694 	mul	fp, r4, r6

000008d4 <l439>:
     8d4:	0016009b 	mulseq	r6, fp, r0

000008d8 <l440>:
     8d8:	c0030b99 	mulgt	r3, r9, fp

000008dc <l441>:
     8dc:	a19f7005 	orrsge	r7, pc, r5

000008e0 <l442>:
     8e0:	c1809211 	orrgt	r9, r0, r1, lsl r2

000008e4 <l443>:
     8e4:	d39e1225 	orrsle	r1, lr, #1342177282	; 0x50000002

000008e8 <l444>:
     8e8:	e0080697 	mul	r8, r7, r6

000008ec <l445>:
     8ec:	40090b9a 	mulmi	r9, sl, fp

000008f0 <l446>:
     8f0:	10166003 	andsne	r6, r6, r3

000008f4 <l447>:
     8f4:	e1934061 	orrs	r4, r3, r1, rrx

000008f8 <l448>:
     8f8:	b000a00a 	andlt	sl, r0, sl

000008fc <l449>:
     8fc:	10290115 	eorne	r0, r9, r5, lsl r1

00000900 <l450>:
     900:	d0030c9e 	mulle	r3, lr, ip

00000904 <l451>:
     904:	e026753e 	eor	r7, r6, lr, lsr r5

00000908 <l452>:
     908:	d015069e 	mulsle	r5, lr, r6

0000090c <l453>:
     90c:	30f2006c 	rscscc	r0, r2, ip, rrx

00000910 <l454>:
     910:	a230630d 	eorsge	r6, r0, #872415232	; 0x34000000

00000914 <l455>:
     914:	e1e0e273 	mvn	lr, r3, ror r2

00000918 <l456>:
     918:	e111000f 	tst	r1, pc

0000091c <l457>:
     91c:	a0160398 	mulsge	r6, r8, r3

00000920 <l458>:
     920:	3002089e 	mulcc	r2, lr, r8

00000924 <l459>:
     924:	e0190895 	muls	r9, r5, r8

00000928 <l460>:
     928:	601250a6 	andsvs	r5, r2, r6, lsr #1

0000092c <l461>:
     92c:	60150094 	mulsvs	r5, r4, r0

00000930 <l462>:
     930:	10140092 	mulsne	r4, r2, r0

00000934 <l463>:
     934:	b0130799 	mulslt	r3, r9, r7

00000938 <l464>:
     938:	700c0b95 	mulvc	ip, r5, fp

0000093c <l465>:
     93c:	617e0065 	cmnvs	lr, r5, rrx

00000940 <l466>:
     940:	e13f0f2a 	teq	pc, sl, lsr #30

00000944 <l467>:
     944:	00040c99 	muleq	r4, r9, ip

00000948 <l468>:
     948:	42140609 	andsmi	r0, r4, #9437184	; 0x900000

0000094c <l469>:
     94c:	40028117 	andmi	r8, r2, r7, lsl r1

00000950 <l470>:
     950:	9211c18d 	andsls	ip, r1, #1073741859	; 0x40000023

00000954 <l471>:
     954:	1006029b 	mulne	r6, fp, r2

00000958 <l472>:
     958:	902e5aa5 	eorls	r5, lr, r5, lsr #21

0000095c <l473>:
     95c:	e2dbba33 	sbcs	fp, fp, #208896	; 0x33000

00000960 <l474>:
     960:	81873325 	orrhi	r3, r7, r5, lsr #6

00000964 <l475>:
     964:	e181900f 	orr	r9, r1, pc

00000968 <l476>:
     968:	b03b1066 	eorslt	r1, fp, r6, rrx

0000096c <l477>:
     96c:	e0170393 	muls	r7, r3, r3

00000970 <l478>:
     970:	e006c00e 	and	ip, r6, lr

00000974 <l479>:
     974:	e057e0e7 	subs	lr, r7, r7, ror #1

00000978 <l480>:
     978:	81150000 	tsthi	r5, r0

0000097c <l481>:
     97c:	e370046d 	cmn	r0, #1828716544	; 0x6d000000

00000980 <l482>:
     980:	502aec18 	eorpl	lr, sl, r8, lsl ip

00000984 <l483>:
     984:	b118023e 	tstlt	r8, lr, lsr r2

00000988 <l484>:
     988:	30120191 	mulscc	r2, r1, r1

0000098c <l485>:
     98c:	e2277e4e 	eor	r7, r7, #1248	; 0x4e0

00000990 <l486>:
     990:	c0090c96 	mulgt	r9, r6, ip

00000994 <l487>:
     994:	e01c0299 	muls	ip, r9, r2

00000998 <l488>:
     998:	e0140595 	muls	r4, r5, r5

0000099c <l489>:
     99c:	e0040093 	mul	r4, r3, r0

000009a0 <l490>:
     9a0:	e0167009 	ands	r7, r6, r9

000009a4 <l491>:
     9a4:	601e306c 	andsvs	r3, lr, ip, rrx

000009a8 <l492>:
     9a8:	70070e9e 	mulvc	r7, lr, lr

000009ac <l493>:
     9ac:	311e0c63 	tstcc	lr, r3, ror #24

000009b0 <l494>:
     9b0:	e1120213 	tst	r2, r3, lsl r2

000009b4 <l495>:
     9b4:	e04e954f 	sub	r9, lr, pc, asr #10

000009b8 <l496>:
     9b8:	91966236 	orrsls	r6, r6, r6, lsr r2

000009bc <l497>:
     9bc:	e175000f 	cmn	r5, pc

000009c0 <l498>:
     9c0:	60932830 	addsvs	r2, r3, r0, lsr r8

000009c4 <l499>:
     9c4:	e2c3a3be 	sbc	sl, r3, #-134217726	; 0xf8000002

000009c8 <l500>:
     9c8:	e0140198 	muls	r4, r8, r1

000009cc <l501>:
     9cc:	b0b66537 	adcslt	r6, r6, r7, lsr r5

000009d0 <l502>:
     9d0:	e000079e 	mul	r0, lr, r7

000009d4 <l503>:
     9d4:	d0080894 	mulle	r8, r4, r8

000009d8 <l504>:
     9d8:	e018009e 	muls	r8, lr, r0

000009dc <l505>:
     9dc:	e1780000 	cmn	r8, r0

000009e0 <l506>:
     9e0:	a012e21b 	andsge	lr, r2, fp, lsl r2

000009e4 <l507>:
     9e4:	b1f05004 	mvnslt	r5, r4

000009e8 <l508>:
     9e8:	b0080b9e 	mullt	r8, lr, fp

000009ec <l509>:
     9ec:	a012019e 	mulsge	r2, lr, r1

000009f0 <l510>:
     9f0:	e183c7e0 	orr	ip, r3, r0, ror #15

000009f4 <l511>:
     9f4:	e00562e6 	and	r6, r5, r6, ror #5

000009f8 <l512>:
     9f8:	50cf5bab 	sbcpl	r5, pc, fp, lsr #23

000009fc <l513>:
     9fc:	400b0a9e 	mulmi	fp, lr, sl

00000a00 <l514>:
     a00:	e267c612 	rsb	ip, r7, #18874368	; 0x1200000

00000a04 <l515>:
     a04:	e3770a03 	cmn	r7, #12288	; 0x3000

00000a08 <l516>:
     a08:	e15c000c 	cmp	ip, ip

00000a0c <l517>:
     a0c:	e187900a 	orr	r9, r7, sl

00000a10 <l518>:
     a10:	e1e03009 	mvn	r3, r9

00000a14 <l519>:
     a14:	31e05008 	mvncc	r5, r8

00000a18 <l520>:
     a18:	60060491 	mulvs	r6, r1, r4

00000a1c <l521>:
     a1c:	50070896 	mulpl	r7, r6, r8

00000a20 <l522>:
     a20:	3046e2a9 	subcc	lr, r6, r9, lsr #5

00000a24 <l523>:
     a24:	3038a00c 	eorscc	sl, r8, ip

00000a28 <l524>:
     a28:	70233063 	eorvc	r3, r3, r3, rrx

00000a2c <l525>:
     a2c:	c3a01412 	movgt	r1, #301989888	; 0x12000000

00000a30 <l526>:
     a30:	316fcf18 	clzcc	ip, r8

00000a34 <l527>:
     a34:	e1330007 	teq	r3, r7

00000a38 <l528>:
     a38:	e1e0e009 	mvn	lr, r9

00000a3c <l529>:
     a3c:	e0030096 	mul	r3, r6, r0

00000a40 <l530>:
     a40:	e3310579 	teq	r1, #507510784	; 0x1e400000

00000a44 <l531>:
     a44:	80000598 	mulhi	r0, r8, r5

00000a48 <l532>:
     a48:	e0b46315 	adcs	r6, r4, r5, lsl r3

00000a4c <l533>:
     a4c:	50110a95 	mulspl	r1, r5, sl

00000a50 <l534>:
     a50:	e00e0b95 	mul	lr, r5, fp

00000a54 <l535>:
     a54:	e23f5da2 	eors	r5, pc, #10368	; 0x2880

00000a58 <l536>:
     a58:	b02ae06e 	eorlt	lr, sl, lr, rrx

00000a5c <l537>:
     a5c:	e0050f23 	and	r0, r5, r3, lsr #30

00000a60 <l538>:
     a60:	e37c0d5d 	cmn	ip, #5952	; 0x1740

00000a64 <l539>:
     a64:	0029131e 	eoreq	r1, r9, lr, lsl r3

00000a68 <l540>:
     a68:	e1b0e00f 	movs	lr, pc

00000a6c <l541>:
     a6c:	e1983008 	orrs	r3, r8, r8

00000a70 <l542>:
     a70:	e33c0002 	teq	ip, #2

00000a74 <l543>:
     a74:	9009747a 	andls	r7, r9, sl, ror r4

00000a78 <l544>:
     a78:	6133023b 	teqvs	r3, fp, lsr r2

00000a7c <l545>:
     a7c:	90140595 	mulsls	r4, r5, r5

00000a80 <l546>:
     a80:	40174318 	andsmi	r4, r7, r8, lsl r3

00000a84 <l547>:
     a84:	e3996371 	orrs	r6, r9, #-1006632959	; 0xc4000001

00000a88 <l548>:
     a88:	e03f300b 	eors	r3, pc, fp

00000a8c <l549>:
     a8c:	401c2a16 	andsmi	r2, ip, r6, lsl sl

00000a90 <l550>:
     a90:	e001b00e 	and	fp, r1, lr

00000a94 <l551>:
     a94:	e078c657 	rsbs	ip, r8, r7, asr r6

00000a98 <l552>:
     a98:	e1520005 	cmp	r2, r5

00000a9c <l553>:
     a9c:	60050c96 	mulvs	r5, r6, ip

00000aa0 <l554>:
     aa0:	806aa475 	rsbhi	sl, sl, r5, ror r4

00000aa4 <l555>:
     aa4:	13a0a90d 	movne	sl, #212992	; 0x34000

00000aa8 <l556>:
     aa8:	e019eac5 	ands	lr, r9, r5, asr #21

00000aac <l557>:
     aac:	a0070c9b 	mulge	r7, fp, ip

00000ab0 <l558>:
     ab0:	e07e8006 	rsbs	r8, lr, r6

00000ab4 <l559>:
     ab4:	e00e0499 	mul	lr, r9, r4

00000ab8 <l560>:
     ab8:	e01a0597 	muls	sl, r7, r5

00000abc <l561>:
     abc:	2174034f 	cmncs	r4, pc, asr #6

00000ac0 <l562>:
     ac0:	500e0898 	mulpl	lr, r8, r8

00000ac4 <l563>:
     ac4:	e0040598 	mul	r4, r8, r5

00000ac8 <l564>:
     ac8:	c01f17eb 	andsgt	r1, pc, fp, ror #15

00000acc <l565>:
     acc:	21ce200b 	biccs	r2, lr, fp

00000ad0 <l566>:
     ad0:	116f6f11 	clzne	r6, r1

00000ad4 <l567>:
     ad4:	8012079c 	mulshi	r2, ip, r7

00000ad8 <l568>:
     ad8:	e11f096f 	tst	pc, pc, ror #18

00000adc <l569>:
     adc:	e0170898 	muls	r7, r8, r8

00000ae0 <l570>:
     ae0:	e00a9e58 	and	r9, sl, r8, asr lr

00000ae4 <l571>:
     ae4:	a1d08b64 	bicsge	r8, r0, r4, ror #22

00000ae8 <l572>:
     ae8:	50851006 	addpl	r1, r5, r6

00000aec <l573>:
     aec:	e31008b1 	tst	r0, #11599872	; 0xb10000

00000af0 <l574>:
     af0:	e00c0590 	mul	ip, r0, r5

00000af4 <l575>:
     af4:	e01b0208 	ands	r0, fp, r8, lsl #4

00000af8 <l576>:
     af8:	b01e019b 	mulslt	lr, fp, r1

00000afc <l577>:
     afc:	e07ce4e1 	rsbs	lr, ip, r1, ror #9

00000b00 <l578>:
     b00:	c35409cf 	cmpgt	r4, #3391488	; 0x33c000

00000b04 <l579>:
     b04:	51d7506b 	bicspl	r5, r7, fp, rrx

00000b08 <l580>:
     b08:	e0040393 	mul	r4, r3, r3

00000b0c <l581>:
     b0c:	a0160592 	mulsge	r6, r2, r5

00000b10 <l582>:
     b10:	e0dc9166 	sbcs	r9, ip, r6, ror #2

00000b14 <l583>:
     b14:	d017099c 	mulsle	r7, ip, r9

00000b18 <l584>:
     b18:	90e0aa33 	rscls	sl, r0, r3, lsr sl

00000b1c <l585>:
     b1c:	e1a0400b 	mov	r4, fp

00000b20 <l586>:
     b20:	e15e0517 	cmp	lr, r7, lsl r5

00000b24 <l587>:
     b24:	e091caa3 	adds	ip, r1, r3, lsr #21

00000b28 <l588>:
     b28:	4010039b 	mulsmi	r0, fp, r3

00000b2c <l589>:
     b2c:	016f6f1a 	clzeq	r6, sl

00000b30 <l590>:
     b30:	e0142145 	ands	r2, r4, r5, asr #2

00000b34 <l591>:
     b34:	e185a5cc 	orr	sl, r5, ip, asr #11

00000b38 <l592>:
     b38:	a026b772 	eorge	fp, r6, r2, ror r7

00000b3c <l593>:
     b3c:	e0150a98 	muls	r5, r8, sl

00000b40 <l594>:
     b40:	e0060a92 	mul	r6, r2, sl

00000b44 <l595>:
     b44:	12216993 	eorne	r6, r1, #2408448	; 0x24c000

00000b48 <l596>:
     b48:	21a044e9 	rorcs	r4, r9, #9

00000b4c <l597>:
     b4c:	e20e371f 	and	r3, lr, #8126464	; 0x7c0000

00000b50 <l598>:
     b50:	60eab008 	rscvs	fp, sl, r8

00000b54 <l599>:
     b54:	7000e005 	andvc	lr, r0, r5

00000b58 <l600>:
     b58:	c0160198 	mulsgt	r6, r8, r1

00000b5c <l601>:
     b5c:	51100006 	tstpl	r0, r6

00000b60 <l602>:
     b60:	a0040e9a 	mulge	r4, sl, lr

00000b64 <l603>:
     b64:	a213356e 	andsge	r3, r3, #461373440	; 0x1b800000

00000b68 <l604>:
     b68:	70059007 	andvc	r9, r5, r7

00000b6c <l605>:
     b6c:	31939002 	orrscc	r9, r3, r2

00000b70 <l606>:
     b70:	119868ef 	orrsne	r6, r8, pc, ror #17

00000b74 <l607>:
     b74:	d2d8a8d9 	sbcsle	sl, r8, #14221312	; 0xd90000

00000b78 <l608>:
     b78:	b00e019b 	mullt	lr, fp, r1

00000b7c <l609>:
     b7c:	e1e02006 	mvn	r2, r6

00000b80 <l610>:
     b80:	90be2506 	adcsls	r2, lr, r6, lsl #10

00000b84 <l611>:
     b84:	0188b007 	orreq	fp, r8, r7

00000b88 <l612>:
     b88:	100c772a 	andne	r7, ip, sl, lsr #14

00000b8c <l613>:
     b8c:	e0140896 	muls	r4, r6, r8

00000b90 <l614>:
     b90:	e2233626 	eor	r3, r3, #39845888	; 0x2600000

00000b94 <l615>:
     b94:	50190c90 	mulspl	r9, r0, ip

00000b98 <l616>:
     b98:	70120a9a 	mulsvc	r2, sl, sl

00000b9c <l617>:
     b9c:	e16f7f16 	clz	r7, r6

00000ba0 <l618>:
     ba0:	320b8559 	andcc	r8, fp, #373293056	; 0x16400000

00000ba4 <l619>:
     ba4:	c16faf13 	clzgt	sl, r3

00000ba8 <l620>:
     ba8:	e008069c 	mul	r8, ip, r6

00000bac <l621>:
     bac:	a00b089a 	mulge	fp, sl, r8

00000bb0 <l622>:
     bb0:	40757003 	rsbsmi	r7, r5, r3

00000bb4 <l623>:
     bb4:	e00a0e9e 	mul	sl, lr, lr

00000bb8 <l624>:
     bb8:	200e0090 	mulcs	lr, r0, r0

00000bbc <l625>:
     bbc:	e03c9634 	eors	r9, ip, r4, lsr r6

00000bc0 <l626>:
     bc0:	b0070a9c 	mullt	r7, ip, sl

00000bc4 <l627>:
     bc4:	e187e019 	orr	lr, r7, r9, lsl r0

00000bc8 <l628>:
     bc8:	616f3f18 	clzvs	r3, r8

00000bcc <l629>:
     bcc:	e00fc006 	and	ip, pc, r6

00000bd0 <l630>:
     bd0:	023e8582 	eorseq	r8, lr, #545259520	; 0x20800000

00000bd4 <l631>:
     bd4:	c3c30203 	bicgt	r0, r3, #805306368	; 0x30000000

00000bd8 <l632>:
     bd8:	801eb00f 	andshi	fp, lr, pc

00000bdc <l633>:
     bdc:	4380187e 	orrmi	r1, r0, #8257536	; 0x7e0000

00000be0 <l634>:
     be0:	c23755a2 	eorsgt	r5, r7, #679477248	; 0x28800000

00000be4 <l635>:
     be4:	e02781af 	eor	r8, r7, pc, lsr #3

00000be8 <l636>:
     be8:	d18e22eb 	orrle	r2, lr, fp, ror #5

00000bec <l637>:
     bec:	e0020290 	mul	r2, r0, r2

00000bf0 <l638>:
     bf0:	e0356001 	eors	r6, r5, r1

00000bf4 <l639>:
     bf4:	e26a08be 	rsb	r0, sl, #12451840	; 0xbe0000

00000bf8 <l640>:
     bf8:	50050494 	mulpl	r5, r4, r4

00000bfc <l641>:
     bfc:	0012049e 	mulseq	r2, lr, r4

00000c00 <l642>:
     c00:	e16f6f10 	clz	r6, r0

00000c04 <l643>:
     c04:	e1a0053a 	lsr	r0, sl, r5

00000c08 <l644>:
     c08:	401b8002 	andsmi	r8, fp, r2

00000c0c <l645>:
     c0c:	b01b029a 	mulslt	fp, sl, r2

00000c10 <l646>:
     c10:	81f02369 	mvnshi	r2, r9, ror #6

00000c14 <l647>:
     c14:	801e0791 	mulshi	lr, r1, r7

00000c18 <l648>:
     c18:	6189c000 	orrvs	ip, r9, r0

00000c1c <l649>:
     c1c:	10117b16 	andsne	r7, r1, r6, lsl fp

00000c20 <l650>:
     c20:	119c1066 	orrsne	r1, ip, r6, rrx

00000c24 <l651>:
     c24:	d16f6f13 	clzle	r6, r3

00000c28 <l652>:
     c28:	80050493 	mulhi	r5, r3, r4

00000c2c <l653>:
     c2c:	40030a91 	mulmi	r3, r1, sl

00000c30 <l654>:
     c30:	90394739 	eorsls	r4, r9, r9, lsr r7

00000c34 <l655>:
     c34:	e1954d87 	orrs	r4, r5, r7, lsl #27

00000c38 <l656>:
     c38:	e29c832d 	adds	r8, ip, #-1275068416	; 0xb4000000

00000c3c <l657>:
     c3c:	e0330062 	eors	r0, r3, r2, rrx

00000c40 <l658>:
     c40:	200e0693 	mulcs	lr, r3, r6

00000c44 <l659>:
     c44:	b030600c 	eorslt	r6, r0, ip

00000c48 <l660>:
     c48:	d0120e9b 	mulsle	r2, fp, lr

00000c4c <l661>:
     c4c:	e3b0a75f 	movs	sl, #24903680	; 0x17c0000

00000c50 <l662>:
     c50:	e1a0521c 	lsl	r5, ip, r2

00000c54 <l663>:
     c54:	e05ce007 	subs	lr, ip, r7

00000c58 <l664>:
     c58:	71892172 	orrvc	r2, r9, r2, ror r1

00000c5c <l665>:
     c5c:	001b0e98 	mulseq	fp, r8, lr

00000c60 <l666>:
     c60:	a0060797 	mulge	r6, r7, r7

00000c64 <l667>:
     c64:	e22f3056 	eor	r3, pc, #86	; 0x56

00000c68 <l668>:
     c68:	a0190896 	mulsge	r9, r6, r8

00000c6c <l669>:
     c6c:	80120298 	mulshi	r2, r8, r2

00000c70 <l670>:
     c70:	e01b0b99 	muls	fp, r9, fp

00000c74 <l671>:
     c74:	e0100993 	muls	r0, r3, r9

00000c78 <l672>:
     c78:	e0030495 	mul	r3, r5, r4

00000c7c <l673>:
     c7c:	e3b0c516 	movs	ip, #92274688	; 0x5800000

00000c80 <l674>:
     c80:	711a0007 	tstvc	sl, r7

00000c84 <l675>:
     c84:	10f0e0a6 	rscsne	lr, r0, r6, lsr #1

00000c88 <l676>:
     c88:	e013aa4f 	ands	sl, r3, pc, asr #20

00000c8c <l677>:
     c8c:	20110b96 	mulscs	r1, r6, fp

00000c90 <l678>:
     c90:	d02f606c 	eorle	r6, pc, ip, rrx

00000c94 <l679>:
     c94:	e0138900 	ands	r8, r3, r0, lsl #18

00000c98 <l680>:
     c98:	e02b9004 	eor	r9, fp, r4

00000c9c <l681>:
     c9c:	e0231c53 	eor	r1, r3, r3, asr ip

00000ca0 <l682>:
     ca0:	60160991 	mulsvs	r6, r1, r9

00000ca4 <l683>:
     ca4:	122aa292 	eorne	sl, sl, #536870921	; 0x20000009

00000ca8 <l684>:
     ca8:	e0080a9b 	mul	r8, fp, sl

00000cac <l685>:
     cac:	e193c00c 	orrs	ip, r3, ip

00000cb0 <l686>:
     cb0:	e01b0b97 	muls	fp, r7, fp

00000cb4 <l687>:
     cb4:	c01c0593 	mulsgt	ip, r3, r5

00000cb8 <l688>:
     cb8:	3008106e 	andcc	r1, r8, lr, rrx

00000cbc <l689>:
     cbc:	619e1ac7 	orrsvs	r1, lr, r7, asr #21

00000cc0 <l690>:
     cc0:	313a006e 	teqcc	sl, lr, rrx

00000cc4 <l691>:
     cc4:	d008600f 	andle	r6, r8, pc

00000cc8 <l692>:
     cc8:	506c6001 	rsbpl	r6, ip, r1

00000ccc <l693>:
     ccc:	e098cc30 	adds	ip, r8, r0, lsr ip

00000cd0 <l694>:
     cd0:	10122e3e 	andsne	r2, r2, lr, lsr lr

00000cd4 <l695>:
     cd4:	e135093a 	teq	r5, sl, lsr r9

00000cd8 <l696>:
     cd8:	7011089a 	mulsvc	r1, sl, r8

00000cdc <l697>:
     cdc:	e1880003 	orr	r0, r8, r3

00000ce0 <l698>:
     ce0:	51b0257a 	rorspl	r2, sl, r5

00000ce4 <l699>:
     ce4:	d2245ba6 	eorle	r5, r4, #169984	; 0x29800

00000ce8 <l700>:
     ce8:	c012099e 	mulsgt	r2, lr, r9

00000cec <l701>:
     cec:	e0170e9b 	muls	r7, fp, lr

00000cf0 <l702>:
     cf0:	e1310c89 	teq	r1, r9, lsl #25

00000cf4 <l703>:
     cf4:	6186848c 	orrvs	r8, r6, ip, lsl #9

00000cf8 <l704>:
     cf8:	e3964dd6 	orrs	r4, r6, #13696	; 0x3580

00000cfc <l705>:
     cfc:	4199c00e 	orrsmi	ip, r9, lr

00000d00 <l706>:
     d00:	e01a0096 	muls	sl, r6, r0

00000d04 <l707>:
     d04:	c03cc007 	eorsgt	ip, ip, r7

00000d08 <l708>:
     d08:	b00c029e 	mullt	ip, lr, r2

00000d0c <l709>:
     d0c:	601c0c9e 	mulsvs	ip, lr, ip

00000d10 <l710>:
     d10:	e3ccc5b5 	bic	ip, ip, #759169024	; 0x2d400000

00000d14 <l711>:
     d14:	9022900c 	eorls	r9, r2, ip

00000d18 <l712>:
     d18:	e3130ebd 	tst	r3, #3024	; 0xbd0

00000d1c <l713>:
     d1c:	b0030b94 	mullt	r3, r4, fp

00000d20 <l714>:
     d20:	500b4275 	andpl	r4, fp, r5, ror r2

00000d24 <l715>:
     d24:	00060692 	muleq	r6, r2, r6

00000d28 <l716>:
     d28:	e230420b 	eors	r4, r0, #-1342177280	; 0xb0000000

00000d2c <l717>:
     d2c:	e006059b 	mul	r6, fp, r5

00000d30 <l718>:
     d30:	e0060997 	mul	r6, r7, r9

00000d34 <l719>:
     d34:	3009099c 	mulcc	r9, ip, r9

00000d38 <l720>:
     d38:	e1520e12 	cmp	r2, r2, lsl lr

00000d3c <l721>:
     d3c:	d0214000 	eorle	r4, r1, r0

00000d40 <l722>:
     d40:	e01c0794 	muls	ip, r4, r7

00000d44 <l723>:
     d44:	c007af80 	andgt	sl, r7, r0, lsl #31

00000d48 <l724>:
     d48:	b1c6a1cc 	biclt	sl, r6, ip, asr #3

00000d4c <l725>:
     d4c:	e38043d2 	orr	r4, r0, #1207959555	; 0x48000003

00000d50 <l726>:
     d50:	e2255e47 	eor	r5, r5, #1136	; 0x470

00000d54 <l727>:
     d54:	90076060 	andls	r6, r7, r0, rrx

00000d58 <l728>:
     d58:	e080581c 	add	r5, r0, ip, lsl r8

00000d5c <l729>:
     d5c:	e033e008 	eors	lr, r3, r8

00000d60 <l730>:
     d60:	d203a04a 	andle	sl, r3, #74	; 0x4a

00000d64 <l731>:
     d64:	e16faf1c 	clz	sl, ip

00000d68 <l732>:
     d68:	e01a900b 	ands	r9, sl, fp

00000d6c <l733>:
     d6c:	e337008b 	teq	r7, #139	; 0x8b

00000d70 <l734>:
     d70:	80358001 	eorshi	r8, r5, r1

00000d74 <l735>:
     d74:	00030990 	muleq	r3, r0, r9

00000d78 <l736>:
     d78:	201ce06c 	andscs	lr, ip, ip, rrx

00000d7c <l737>:
     d7c:	e00e0e9c 	mul	lr, ip, lr

00000d80 <l738>:
     d80:	e013834e 	ands	r8, r3, lr, asr #6

00000d84 <l739>:
     d84:	719f3009 	orrsvc	r3, pc, r9

00000d88 <l740>:
     d88:	e2daec02 	sbcs	lr, sl, #512	; 0x200

00000d8c <l741>:
     d8c:	e155006e 	cmp	r5, lr, rrx

00000d90 <l742>:
     d90:	116f2f1e 	clzne	r2, lr

00000d94 <l743>:
     d94:	d001089c 	mulle	r1, ip, r8

00000d98 <l744>:
     d98:	20260f4a 	eorcs	r0, r6, sl, asr #30

00000d9c <l745>:
     d9c:	e0040a95 	mul	r4, r5, sl

00000da0 <l746>:
     da0:	c385afc5 	orrgt	sl, r5, #788	; 0x314

00000da4 <l747>:
     da4:	d16f9f18 	clzle	r9, r8

00000da8 <l748>:
     da8:	217f0002 	cmncs	pc, r2

00000dac <l749>:
     dac:	c1859004 	orrgt	r9, r5, r4

00000db0 <l750>:
     db0:	e39600c0 	orrs	r0, r6, #192	; 0xc0

00000db4 <l751>:
     db4:	c0c97850 	sbcgt	r7, r9, r0, asr r8

00000db8 <l752>:
     db8:	4029200c 	eormi	r2, r9, ip

00000dbc <l753>:
     dbc:	e0042009 	and	r2, r4, r9

00000dc0 <l754>:
     dc0:	4217a219 	andsmi	sl, r7, #-1879048191	; 0x90000001

00000dc4 <l755>:
     dc4:	e1884349 	orr	r4, r8, r9, asr #6

00000dc8 <l756>:
     dc8:	e159000a 	cmp	r9, sl

00000dcc <l757>:
     dcc:	e0085fe4 	and	r5, r8, r4, ror #31

00000dd0 <l758>:
     dd0:	20180591 	mulscs	r8, r1, r5

00000dd4 <l759>:
     dd4:	6018009b 	mulsvs	r8, fp, r0

00000dd8 <l760>:
     dd8:	900c0c93 	mulls	ip, r3, ip

00000ddc <l761>:
     ddc:	e21940b5 	ands	r4, r9, #181	; 0xb5

00000de0 <l762>:
     de0:	e1370837 	teq	r7, r7, lsr r8

00000de4 <l763>:
     de4:	d2387106 	eorsle	r7, r8, #-2147483647	; 0x80000001

00000de8 <l764>:
     de8:	e01e0e98 	muls	lr, r8, lr

00000dec <l765>:
     dec:	e0085006 	and	r5, r8, r6

00000df0 <l766>:
     df0:	30190c9c 	mulscc	r9, ip, ip

00000df4 <l767>:
     df4:	b0302066 	eorslt	r2, r0, r6, rrx

00000df8 <l768>:
     df8:	827bea4f 	rsbshi	lr, fp, #323584	; 0x4f000

00000dfc <l769>:
     dfc:	e0130098 	muls	r3, r8, r0

00000e00 <l770>:
     e00:	e011a006 	ands	sl, r1, r6

00000e04 <l771>:
     e04:	70539a89 	subsvc	r9, r3, r9, lsl #21

00000e08 <l772>:
     e08:	6230902a 	eorsvs	r9, r0, #42	; 0x2a

00000e0c <l773>:
     e0c:	5273a315 	rsbspl	sl, r3, #1409286144	; 0x54000000

00000e10 <l774>:
     e10:	e1790bae 	cmn	r9, lr, lsr #23

00000e14 <l775>:
     e14:	e009039a 	mul	r9, sl, r3

00000e18 <l776>:
     e18:	e0010992 	mul	r1, r2, r9

00000e1c <l777>:
     e1c:	601e0499 	mulsvs	lr, r9, r4

00000e20 <l778>:
     e20:	30070c9e 	mulcc	r7, lr, ip

00000e24 <l779>:
     e24:	e02e9261 	eor	r9, lr, r1, ror #4

00000e28 <l780>:
     e28:	e236bfc3 	eors	fp, r6, #780	; 0x30c

00000e2c <l781>:
     e2c:	117902ec 	cmnne	r9, ip, ror #5

00000e30 <l782>:
     e30:	c0538050 	subsgt	r8, r3, r0, asr r0

00000e34 <l783>:
     e34:	e00c0192 	mul	ip, r2, r1

00000e38 <l784>:
     e38:	d01e089a 	mulsle	lr, sl, r8

00000e3c <l785>:
     e3c:	107b8b5c 	rsbsne	r8, fp, ip, asr fp

00000e40 <l786>:
     e40:	e1a02d40 	asr	r2, r0, #26

00000e44 <l787>:
     e44:	500c0896 	mulpl	ip, r6, r8

00000e48 <l788>:
     e48:	901a0898 	mulsls	sl, r8, r8

00000e4c <l789>:
     e4c:	3023c435 	eorcc	ip, r3, r5, lsr r4

00000e50 <l790>:
     e50:	b01e9009 	andslt	r9, lr, r9

00000e54 <l791>:
     e54:	e16f9f17 	clz	r9, r7

00000e58 <l792>:
     e58:	e00e6ea5 	and	r6, lr, r5, lsr #29

00000e5c <l793>:
     e5c:	c1c02001 	bicgt	r2, r0, r1

00000e60 <l794>:
     e60:	504c7900 	subpl	r7, ip, r0, lsl #18

00000e64 <l795>:
     e64:	70030e97 	mulvc	r3, r7, lr

00000e68 <l796>:
     e68:	a0000698 	mulge	r0, r8, r6

00000e6c <l797>:
     e6c:	90140091 	mulsls	r4, r1, r0

00000e70 <l798>:
     e70:	e0025b74 	and	r5, r2, r4, ror fp

00000e74 <l799>:
     e74:	00397073 	eorseq	r7, r9, r3, ror r0

00000e78 <l800>:
     e78:	e0020c98 	mul	r2, r8, ip

00000e7c <l801>:
     e7c:	50150a92 	mulspl	r5, r2, sl

00000e80 <l802>:
     e80:	a0130c9e 	mulsge	r3, lr, ip

00000e84 <l803>:
     e84:	e1a0e516 	lsl	lr, r6, r5

00000e88 <l804>:
     e88:	e16faf14 	clz	sl, r4

00000e8c <l805>:
     e8c:	20100a9e 	mulscs	r0, lr, sl

00000e90 <l806>:
     e90:	e00e0394 	mul	lr, r4, r3

00000e94 <l807>:
     e94:	70050094 	mulvc	r5, r4, r0

00000e98 <l808>:
     e98:	e0030398 	mul	r3, r8, r3

00000e9c <l809>:
     e9c:	2039a00f 	eorscs	sl, r9, pc

00000ea0 <l810>:
     ea0:	d0040191 	mulle	r4, r1, r1

00000ea4 <l811>:
     ea4:	10060597 	mulne	r6, r7, r5

00000ea8 <l812>:
     ea8:	e1874952 	orr	r4, r7, r2, asr r9

00000eac <l813>:
     eac:	e04bc96e 	sub	ip, fp, lr, ror #18

00000eb0 <l814>:
     eb0:	c2372626 	eorsgt	r2, r7, #39845888	; 0x2600000

00000eb4 <l815>:
     eb4:	e01b0a9e 	muls	fp, lr, sl

00000eb8 <l816>:
     eb8:	e0fe6817 	rscs	r6, lr, r7, lsl r8

00000ebc <l817>:
     ebc:	018bc5c6 	orreq	ip, fp, r6, asr #11

00000ec0 <l818>:
     ec0:	e0040496 	mul	r4, r6, r4

00000ec4 <l819>:
     ec4:	70045a66 	andvc	r5, r4, r6, ror #20

00000ec8 <l820>:
     ec8:	e015a564 	ands	sl, r5, r4, ror #10

00000ecc <l821>:
     ecc:	200a500c 	andcs	r5, sl, ip

00000ed0 <l822>:
     ed0:	e0140a90 	muls	r4, r0, sl

00000ed4 <l823>:
     ed4:	9134081b 	teqls	r4, fp, lsl r8

00000ed8 <l824>:
     ed8:	d08cc009 	addle	ip, ip, r9

00000edc <l825>:
     edc:	e1390236 	teq	r9, r6, lsr r2

00000ee0 <l826>:
     ee0:	a1890652 	orrge	r0, r9, r2, asr r6

00000ee4 <l827>:
     ee4:	6181806e 	orrvs	r8, r1, lr, rrx

00000ee8 <l828>:
     ee8:	e0030896 	mul	r3, r6, r8

00000eec <l829>:
     eec:	e15409e3 	cmp	r4, r3, ror #19

00000ef0 <l830>:
     ef0:	e0040190 	mul	r4, r0, r1

00000ef4 <l831>:
     ef4:	d2028ab5 	andle	r8, r2, #741376	; 0xb5000

00000ef8 <l832>:
     ef8:	80010690 	mulhi	r1, r0, r6

00000efc <l833>:
     efc:	30080491 	mulcc	r8, r1, r4

00000f00 <l834>:
     f00:	00160993 	mulseq	r6, r3, r9

00000f04 <l835>:
     f04:	e24566ad 	sub	r6, r5, #181403648	; 0xad00000

00000f08 <l836>:
     f08:	a054606e 	subsge	r6, r4, lr, rrx

00000f0c <l837>:
     f0c:	e0190992 	muls	r9, r2, r9

00000f10 <l838>:
     f10:	a000029a 	mulge	r0, sl, r2

00000f14 <l839>:
     f14:	c2a620d2 	adcgt	r2, r6, #210	; 0xd2

00000f18 <l840>:
     f18:	e0110996 	muls	r1, r6, r9

00000f1c <l841>:
     f1c:	e0139728 	ands	r9, r3, r8, lsr #14

00000f20 <l842>:
     f20:	50c1a007 	sbcpl	sl, r1, r7

00000f24 <l843>:
     f24:	40a6b565 	adcmi	fp, r6, r5, ror #10

00000f28 <l844>:
     f28:	e16f7f15 	clz	r7, r5

00000f2c <l845>:
     f2c:	a1350fcb 	teqge	r5, fp, asr #31

00000f30 <l846>:
     f30:	51960374 	orrspl	r0, r6, r4, ror r3

00000f34 <l847>:
     f34:	715e000f 	cmpvc	lr, pc

00000f38 <l848>:
     f38:	e0150598 	muls	r5, r8, r5

00000f3c <l849>:
     f3c:	81b0a005 	movshi	sl, r5

00000f40 <l850>:
     f40:	41e03913 	mvnmi	r3, r3, lsl r9

00000f44 <l851>:
     f44:	e386926e 	orr	r9, r6, #-536870906	; 0xe0000006

00000f48 <l852>:
     f48:	e01a0895 	muls	sl, r5, r8

00000f4c <l853>:
     f4c:	3009019b 	mulcc	r9, fp, r1

00000f50 <l854>:
     f50:	e16faf15 	clz	sl, r5

00000f54 <l855>:
     f54:	80070193 	mulhi	r7, r3, r1

00000f58 <l856>:
     f58:	e004400a 	and	r4, r4, sl

00000f5c <l857>:
     f5c:	e20f4901 	and	r4, pc, #16384	; 0x4000

00000f60 <l858>:
     f60:	02557737 	subseq	r7, r5, #14417920	; 0xdc0000

00000f64 <l859>:
     f64:	e0070195 	mul	r7, r5, r1

00000f68 <l860>:
     f68:	e230c602 	eors	ip, r0, #2097152	; 0x200000

00000f6c <l861>:
     f6c:	e0a95713 	adc	r5, r9, r3, lsl r7

00000f70 <l862>:
     f70:	e0674009 	rsb	r4, r7, r9

00000f74 <l863>:
     f74:	20060291 	mulcs	r6, r1, r2

00000f78 <l864>:
     f78:	e0120193 	muls	r2, r3, r1

00000f7c <l865>:
     f7c:	139f6b01 	orrsne	r6, pc, #1024	; 0x400

00000f80 <l866>:
     f80:	401454af 	andsmi	r5, r4, pc, lsr #9

00000f84 <l867>:
     f84:	b0624002 	rsblt	r4, r2, r2

00000f88 <l868>:
     f88:	e0080397 	mul	r8, r7, r3

00000f8c <l869>:
     f8c:	c26e36e9 	rsbgt	r3, lr, #244318208	; 0xe900000

00000f90 <l870>:
     f90:	e083a007 	add	sl, r3, r7

00000f94 <l871>:
     f94:	a04c406b 	subge	r4, ip, fp, rrx

00000f98 <l872>:
     f98:	e00466ce 	and	r6, r4, lr, asr #13

00000f9c <l873>:
     f9c:	d25f882e 	subsle	r8, pc, #3014656	; 0x2e0000

00000fa0 <l874>:
     fa0:	e38c2841 	orr	r2, ip, #4259840	; 0x410000

00000fa4 <l875>:
     fa4:	c018099a 	mulsgt	r8, sl, r9

00000fa8 <l876>:
     fa8:	e01b0e9c 	muls	fp, ip, lr

00000fac <l877>:
     fac:	e01c0b95 	muls	ip, r5, fp

00000fb0 <l878>:
     fb0:	c2aebc99 	adcgt	fp, lr, #39168	; 0x9900

00000fb4 <l879>:
     fb4:	e180c007 	orr	ip, r0, r7

00000fb8 <l880>:
     fb8:	03941eff 	orrseq	r1, r4, #4080	; 0xff0

00000fbc <l881>:
     fbc:	e2892357 	add	r2, r9, #1543503873	; 0x5c000001

00000fc0 <l882>:
     fc0:	e1d32002 	bics	r2, r3, r2

00000fc4 <l883>:
     fc4:	631b0a11 	tstvs	fp, #69632	; 0x11000

00000fc8 <l884>:
     fc8:	70050193 	mulvc	r5, r3, r1

00000fcc <l885>:
     fcc:	50264aa0 	eorpl	r4, r6, r0, lsr #21

00000fd0 <l886>:
     fd0:	100a0697 	mulne	sl, r7, r6

00000fd4 <l887>:
     fd4:	a20f606d 	andge	r6, pc, #109	; 0x6d

00000fd8 <l888>:
     fd8:	31510009 	cmpcc	r1, r9

00000fdc <l889>:
     fdc:	e0191b4e 	ands	r1, r9, lr, asr #22

00000fe0 <l890>:
     fe0:	e13802c0 	teq	r8, r0, asr #5

00000fe4 <l891>:
     fe4:	e03ca00b 	eors	sl, ip, fp

00000fe8 <l892>:
     fe8:	b240a1d3 	sublt	sl, r0, #-1073741772	; 0xc0000034

00000fec <l893>:
     fec:	50208006 	eorpl	r8, r0, r6

00000ff0 <l894>:
     ff0:	e01b1a54 	ands	r1, fp, r4, asr sl

00000ff4 <l895>:
     ff4:	80150094 	mulshi	r5, r4, r0

00000ff8 <l896>:
     ff8:	e0040d62 	and	r0, r4, r2, ror #26

00000ffc <l897>:
     ffc:	63867539 	orrvs	r7, r6, #239075328	; 0xe400000

00001000 <l898>:
    1000:	e39b914e 	orrs	r9, fp, #-2147483629	; 0x80000013

00001004 <l899>:
    1004:	80957060 	addshi	r7, r5, r0, rrx

00001008 <l900>:
    1008:	40289b35 	eormi	r9, r8, r5, lsr fp

0000100c <l901>:
    100c:	e2046ecb 	and	r6, r4, #3248	; 0xcb0

00001010 <l902>:
    1010:	40040c96 	mulmi	r4, r6, ip

00001014 <l903>:
    1014:	a0160499 	mulsge	r6, r9, r4

00001018 <l904>:
    1018:	e19c0005 	orrs	r0, ip, r5

0000101c <l905>:
    101c:	11700776 	cmnne	r0, r6, ror r7

00001020 <l906>:
    1020:	a0070398 	mulge	r7, r8, r3

00001024 <l907>:
    1024:	b092e132 	addslt	lr, r2, r2, lsr r1

00001028 <l908>:
    1028:	421994c6 	andsmi	r9, r9, #-973078528	; 0xc6000000

0000102c <l909>:
    102c:	e00e0e9c 	mul	lr, ip, lr

00001030 <l910>:
    1030:	e0118e03 	ands	r8, r1, r3, lsl #28

00001034 <l911>:
    1034:	70140e9e 	mulsvc	r4, lr, lr

00001038 <l912>:
    1038:	e21f0059 	ands	r0, pc, #89	; 0x59

0000103c <l913>:
    103c:	e0060894 	mul	r6, r4, r8

00001040 <l914>:
    1040:	e3d93691 	bics	r3, r9, #152043520	; 0x9100000

00001044 <l915>:
    1044:	e38e0b73 	orr	r0, lr, #117760	; 0x1cc00

00001048 <l916>:
    1048:	c0000893 	mulgt	r0, r3, r8

0000104c <l917>:
    104c:	e00a079c 	mul	sl, ip, r7

00001050 <l918>:
    1050:	2184b00b 	orrcs	fp, r4, fp

00001054 <l919>:
    1054:	b151000f 	cmplt	r1, pc

00001058 <l920>:
    1058:	e253397f 	subs	r3, r3, #2080768	; 0x1fc000

0000105c <l921>:
    105c:	d33f0ba3 	teqle	pc, #166912	; 0x28c00

00001060 <l922>:
    1060:	60ac2001 	adcvs	r2, ip, r1

00001064 <l923>:
    1064:	e1e0e00b 	mvn	lr, fp

00001068 <l924>:
    1068:	60429005 	subvs	r9, r2, r5

0000106c <l925>:
    106c:	e01a0a9c 	muls	sl, ip, sl

00001070 <l926>:
    1070:	0132006c 	teqeq	r2, ip, rrx

00001074 <l927>:
    1074:	d0190290 	mulsle	r9, r0, r2

00001078 <l928>:
    1078:	e0141350 	ands	r1, r4, r0, asr r3

0000107c <l929>:
    107c:	e0b23679 	adcs	r3, r2, r9, ror r6

00001080 <l930>:
    1080:	e01c0290 	muls	ip, r0, r2

00001084 <l931>:
    1084:	e00e7000 	and	r7, lr, r0

00001088 <l932>:
    1088:	e0050692 	mul	r5, r2, r6

0000108c <l933>:
    108c:	90070a90 	mulls	r7, r0, sl

00001090 <l934>:
    1090:	802b2001 	eorhi	r2, fp, r1

00001094 <l935>:
    1094:	e118006b 	tst	r8, fp, rrx

00001098 <l936>:
    1098:	83c45084 	bichi	r5, r4, #132	; 0x84

0000109c <l937>:
    109c:	e1dac006 	bics	ip, sl, r6

000010a0 <l938>:
    10a0:	e1b07000 	movs	r7, r0

000010a4 <l939>:
    10a4:	e1c9bc64 	bic	fp, r9, r4, ror #24

000010a8 <l940>:
    10a8:	e0d34003 	sbcs	r4, r3, r3

000010ac <l941>:
    10ac:	b012009a 	mulslt	r2, sl, r0

000010b0 <l942>:
    10b0:	e00a0b9e 	mul	sl, lr, fp

000010b4 <l943>:
    10b4:	c01c079a 	mulsgt	ip, sl, r7

000010b8 <l944>:
    10b8:	e0040095 	mul	r4, r5, r0

000010bc <l945>:
    10bc:	e00018e3 	and	r1, r0, r3, ror #17

000010c0 <l946>:
    10c0:	e16f3f18 	clz	r3, r8

000010c4 <l947>:
    10c4:	d0490506 	suble	r0, r9, r6, lsl #10

000010c8 <l948>:
    10c8:	c017009a 	mulsgt	r7, sl, r0

000010cc <l949>:
    10cc:	e00b0098 	mul	fp, r8, r0

000010d0 <l950>:
    10d0:	816f0f1b 	clzhi	r0, fp

000010d4 <l951>:
    10d4:	e3812c2e 	orr	r2, r1, #11776	; 0x2e00

000010d8 <l952>:
    10d8:	3201254e 	andcc	r2, r1, #327155712	; 0x13800000

000010dc <l953>:
    10dc:	e0170494 	muls	r7, r4, r4

000010e0 <l954>:
    10e0:	e010099c 	muls	r0, ip, r9

000010e4 <l955>:
    10e4:	53e05613 	mvnpl	r5, #19922944	; 0x1300000

000010e8 <l956>:
    10e8:	e012079b 	muls	r2, fp, r7

000010ec <l957>:
    10ec:	e0877002 	add	r7, r7, r2

000010f0 <l958>:
    10f0:	c01c059a 	mulsgt	ip, sl, r5

000010f4 <l959>:
    10f4:	819c7e34 	orrshi	r7, ip, r4, lsr lr

000010f8 <l960>:
    10f8:	42170e21 	andsmi	r0, r7, #528	; 0x210

000010fc <l961>:
    10fc:	e11c087e 	tst	ip, lr, ror r8

00001100 <l962>:
    1100:	e042306e 	sub	r3, r2, lr, rrx

00001104 <l963>:
    1104:	e3e0062b 	mvn	r0, #45088768	; 0x2b00000

00001108 <l964>:
    1108:	d00a0a94 	mulle	sl, r4, sl

0000110c <l965>:
    110c:	e01c0090 	muls	ip, r0, r0

00001110 <l966>:
    1110:	e00b019a 	mul	fp, sl, r1

00001114 <l967>:
    1114:	e251a1c7 	subs	sl, r1, #-1073741775	; 0xc0000031

00001118 <l968>:
    1118:	e19e4006 	orrs	r4, lr, r6

0000111c <l969>:
    111c:	03cf1b03 	biceq	r1, pc, #3072	; 0xc00

00001120 <l970>:
    1120:	00637009 	rsbeq	r7, r3, r9

00001124 <l971>:
    1124:	e021b007 	eor	fp, r1, r7

00001128 <l972>:
    1128:	409a500b 	addsmi	r5, sl, fp

0000112c <l973>:
    112c:	e39b401e 	orrs	r4, fp, #30

00001130 <l974>:
    1130:	0015c77c 	andseq	ip, r5, ip, ror r7

00001134 <l975>:
    1134:	41dc138e 	bicsmi	r1, ip, lr, lsl #7

00001138 <l976>:
    1138:	22d817a1 	sbcscs	r1, r8, #42205184	; 0x2840000

0000113c <l977>:
    113c:	b0557000 	subslt	r7, r5, r0

00001140 <l978>:
    1140:	101145a1 	andsne	r4, r1, r1, lsr #11

00001144 <l979>:
    1144:	e04a2458 	sub	r2, sl, r8, asr r4

00001148 <l980>:
    1148:	e216ed37 	ands	lr, r6, #3520	; 0xdc0

0000114c <l981>:
    114c:	e00aae17 	and	sl, sl, r7, lsl lr

00001150 <l982>:
    1150:	e2016276 	and	r6, r1, #1610612743	; 0x60000007

00001154 <l983>:
    1154:	e35f0d09 	cmp	pc, #576	; 0x240

00001158 <l984>:
    1158:	902ace37 	eorls	ip, sl, r7, lsr lr

0000115c <l985>:
    115c:	e38478db 	orr	r7, r4, #14352384	; 0xdb0000

00001160 <l986>:
    1160:	e37c067f 	cmn	ip, #133169152	; 0x7f00000

00001164 <l987>:
    1164:	9380717a 	orrls	r7, r0, #-2147483618	; 0x8000001e

00001168 <l988>:
    1168:	5231898d 	eorspl	r8, r1, #2310144	; 0x234000

0000116c <l989>:
    116c:	422c1311 	eormi	r1, ip, #1140850688	; 0x44000000

00001170 <l990>:
    1170:	238c10bb 	orrcs	r1, ip, #187	; 0xbb

00001174 <l991>:
    1174:	90050299 	mulls	r5, r9, r2

00001178 <l992>:
    1178:	b00b0196 	mullt	fp, r6, r1

0000117c <l993>:
    117c:	e0a48005 	adc	r8, r4, r5

00001180 <l994>:
    1180:	40916000 	addsmi	r6, r1, r0

00001184 <l995>:
    1184:	e0110090 	muls	r1, r0, r0

00001188 <l996>:
    1188:	e3700d27 	cmn	r0, #2496	; 0x9c0

0000118c <l997>:
    118c:	e04eb004 	sub	fp, lr, r4

00001190 <l998>:
    1190:	e39c64c3 	orrs	r6, ip, #-1023410176	; 0xc3000000

00001194 <l999>:
    1194:	e0195550 	ands	r5, r9, r0, asr r5

00001198 <l1000>:
    1198:	120e0d5a 	andne	r0, lr, #5760	; 0x1680

0000119c <l1001>:
    119c:	e078e008 	rsbs	lr, r8, r8

000011a0 <l1002>:
    11a0:	e0190398 	muls	r9, r8, r3

000011a4 <l1003>:
    11a4:	e009155b 	and	r1, r9, fp, asr r5

000011a8 <l1004>:
    11a8:	e010079e 	muls	r0, lr, r7

000011ac <l1005>:
    11ac:	e185855a 	orr	r8, r5, sl, asr r5

000011b0 <l1006>:
    11b0:	a0190c97 	mulsge	r9, r7, ip

000011b4 <l1007>:
    11b4:	71b0300e 	movsvc	r3, lr

000011b8 <l1008>:
    11b8:	301562eb 	andscc	r6, r5, fp, ror #5

000011bc <l1009>:
    11bc:	e0020c9c 	mul	r2, ip, ip

000011c0 <l1010>:
    11c0:	e043e000 	sub	lr, r3, r0

000011c4 <l1011>:
    11c4:	70120691 	mulsvc	r2, r1, r6

000011c8 <l1012>:
    11c8:	e038c06a 	eors	ip, r8, sl, rrx

000011cc <l1013>:
    11cc:	e00b0b98 	mul	fp, r8, fp

000011d0 <l1014>:
    11d0:	e0197a72 	ands	r7, r9, r2, ror sl

000011d4 <l1015>:
    11d4:	41837065 	orrmi	r7, r3, r5, rrx

000011d8 <l1016>:
    11d8:	e1de8a36 	bics	r8, lr, r6, lsr sl

000011dc <l1017>:
    11dc:	21c39970 	biccs	r9, r3, r0, ror r9

000011e0 <l1018>:
    11e0:	80040692 	mulhi	r4, r2, r6

000011e4 <l1019>:
    11e4:	30030291 	mulcc	r3, r1, r2

000011e8 <l1020>:
    11e8:	500e0194 	mulpl	lr, r4, r1

000011ec <l1021>:
    11ec:	a023b635 	eorge	fp, r3, r5, lsr r6

000011f0 <l1022>:
    11f0:	e19223ab 	orrs	r2, r2, fp, lsr #7

000011f4 <l1023>:
    11f4:	50249031 	eorpl	r9, r4, r1, lsr r0

000011f8 <l1024>:
    11f8:	e0070892 	mul	r7, r2, r8

000011fc <l1025>:
    11fc:	81f09e41 	mvnshi	r9, r1, asr #28

00001200 <l1026>:
    1200:	e1770831 	cmn	r7, r1, lsr r8

00001204 <l1027>:
    1204:	00170392 	mulseq	r7, r2, r3

00001208 <l1028>:
    1208:	e0160193 	muls	r6, r3, r1

0000120c <l1029>:
    120c:	50020c98 	mulpl	r2, r8, ip

00001210 <l1030>:
    1210:	8214503b 	andshi	r5, r4, #59	; 0x3b

00001214 <l1031>:
    1214:	e058507c 	subs	r5, r8, ip, ror r0

00001218 <l1032>:
    1218:	e0150b96 	muls	r5, r6, fp

0000121c <l1033>:
    121c:	e013a219 	ands	sl, r3, r9, lsl r2

00001220 <l1034>:
    1220:	e0110390 	muls	r1, r0, r3

00001224 <l1035>:
    1224:	e02ee069 	eor	lr, lr, r9, rrx

00001228 <l1036>:
    1228:	50e8c007 	rscpl	ip, r8, r7

0000122c <l1037>:
    122c:	500e0490 	mulpl	lr, r0, r4

00001230 <l1038>:
    1230:	12105e42 	andsne	r5, r0, #1056	; 0x420

00001234 <l1039>:
    1234:	e27f3519 	rsbs	r3, pc, #104857600	; 0x6400000

00001238 <l1040>:
    1238:	b01b0693 	mulslt	fp, r3, r6

0000123c <l1041>:
    123c:	e16f6f15 	clz	r6, r5

00001240 <l1042>:
    1240:	30030292 	mulcc	r3, r2, r2

00001244 <l1043>:
    1244:	a00b039e 	mulge	fp, lr, r3

00001248 <l1044>:
    1248:	e0150594 	muls	r5, r4, r5

0000124c <l1045>:
    124c:	e192280f 	orrs	r2, r2, pc, lsl #16

00001250 <l1046>:
    1250:	a16f6f17 	clzge	r6, r7

00001254 <l1047>:
    1254:	e0040698 	mul	r4, r8, r6

00001258 <l1048>:
    1258:	200ebb79 	andcs	fp, lr, r9, ror fp

0000125c <l1049>:
    125c:	50130a90 	mulspl	r3, r0, sl

00001260 <l1050>:
    1260:	c22a5062 	eorgt	r5, sl, #98	; 0x62

00001264 <l1051>:
    1264:	e01a059c 	muls	sl, ip, r5

00001268 <l1052>:
    1268:	10592371 	subsne	r2, r9, r1, ror r3

0000126c <l1053>:
    126c:	c1720631 	cmngt	r2, r1, lsr r6

00001270 <l1054>:
    1270:	801a0790 	mulshi	sl, r0, r7

00001274 <l1055>:
    1274:	9041e250 	subls	lr, r1, r0, asr r2

00001278 <l1056>:
    1278:	02f9b621 	rscseq	fp, r9, #34603008	; 0x2100000

0000127c <l1057>:
    127c:	00010799 	muleq	r1, r9, r7

00001280 <l1058>:
    1280:	d00c7f2f 	andle	r7, ip, pc, lsr #30

00001284 <l1059>:
    1284:	e01b8009 	ands	r8, fp, r9

00001288 <l1060>:
    1288:	919c8476 	orrsls	r8, ip, r6, ror r4

0000128c <l1061>:
    128c:	e1e0cb34 	mvn	ip, r4, lsr fp

00001290 <l1062>:
    1290:	e0070891 	mul	r7, r1, r8

00001294 <l1063>:
    1294:	702e3000 	eorvc	r3, lr, r0

00001298 <l1064>:
    1298:	e1360de2 	teq	r6, r2, ror #27

0000129c <l1065>:
    129c:	d20a1c0e 	andle	r1, sl, #3584	; 0xe00

000012a0 <l1066>:
    12a0:	e021151c 	eor	r1, r1, ip, lsl r5

000012a4 <l1067>:
    12a4:	e0006e61 	and	r6, r0, r1, ror #28

000012a8 <l1068>:
    12a8:	900b019a 	mulls	fp, sl, r1

000012ac <l1069>:
    12ac:	22f0710b 	rscscs	r7, r0, #-1073741822	; 0xc0000002

000012b0 <l1070>:
    12b0:	e0120091 	muls	r2, r1, r0

000012b4 <l1071>:
    12b4:	e043700a 	sub	r7, r3, sl

000012b8 <l1072>:
    12b8:	c0040b97 	mulgt	r4, r7, fp

000012bc <l1073>:
    12bc:	e1806000 	orr	r6, r0, r0

000012c0 <l1074>:
    12c0:	90fca063 	rscsls	sl, ip, r3, rrx

000012c4 <l1075>:
    12c4:	5266e906 	rsbpl	lr, r6, #98304	; 0x18000

000012c8 <l1076>:
    12c8:	5053514a 	subspl	r5, r3, sl, asr #2

000012cc <l1077>:
    12cc:	e008089e 	mul	r8, lr, r8

000012d0 <l1078>:
    12d0:	e35e0bc5 	cmp	lr, #201728	; 0x31400

000012d4 <l1079>:
    12d4:	e00c069e 	mul	ip, lr, r6

000012d8 <l1080>:
    12d8:	00a6500a 	adceq	r5, r6, sl

000012dc <l1081>:
    12dc:	318e9067 	orrcc	r9, lr, r7, rrx

000012e0 <l1082>:
    12e0:	80050991 	mulhi	r5, r1, r9

000012e4 <l1083>:
    12e4:	108c68a7 	addne	r6, ip, r7, lsr #17

000012e8 <l1084>:
    12e8:	e228c62e 	eor	ip, r8, #48234496	; 0x2e00000

000012ec <l1085>:
    12ec:	60070994 	mulvs	r7, r4, r9

000012f0 <l1086>:
    12f0:	e013315e 	ands	r3, r3, lr, asr r1

000012f4 <l1087>:
    12f4:	222fc776 	eorcs	ip, pc, #30932992	; 0x1d80000

000012f8 <l1088>:
    12f8:	e01e0a94 	muls	lr, r4, sl

000012fc <l1089>:
    12fc:	e013099b 	muls	r3, fp, r9

00001300 <l1090>:
    1300:	30100595 	mulscc	r0, r5, r5

00001304 <l1091>:
    1304:	e17a006a 	cmn	sl, sl, rrx

00001308 <l1092>:
    1308:	51790001 	cmnpl	r9, r1

0000130c <l1093>:
    130c:	e090e009 	adds	lr, r0, r9

00001310 <l1094>:
    1310:	60040e95 	mulvs	r4, r5, lr

00001314 <l1095>:
    1314:	e159050f 	cmp	r9, pc, lsl #10

00001318 <l1096>:
    1318:	e17906c6 	cmn	r9, r6, asr #13

0000131c <l1097>:
    131c:	d0181070 	andsle	r1, r8, r0, ror r0

00001320 <l1098>:
    1320:	40caa012 	sbcmi	sl, sl, r2, lsl r0

00001324 <l1099>:
    1324:	e0347001 	eors	r7, r4, r1

00001328 <l1100>:
    1328:	13920806 	orrsne	r0, r2, #393216	; 0x60000

0000132c <l1101>:
    132c:	e00b600b 	and	r6, fp, fp

00001330 <l1102>:
    1330:	e01c0091 	muls	ip, r1, r0

00001334 <l1103>:
    1334:	b0130e90 	mulslt	r3, r0, lr

00001338 <l1104>:
    1338:	e3e0baa7 	mvn	fp, #684032	; 0xa7000

0000133c <l1105>:
    133c:	b1f07060 	mvnslt	r7, r0, rrx

00001340 <l1106>:
    1340:	e1170060 	tst	r7, r0, rrx

00001344 <l1107>:
    1344:	e226291d 	eor	r2, r6, #475136	; 0x74000

00001348 <l1108>:
    1348:	4040bb16 	submi	fp, r0, r6, lsl fp

0000134c <l1109>:
    134c:	e01ce168 	ands	lr, ip, r8, ror #2

00001350 <l1110>:
    1350:	201b300e 	andscs	r3, fp, lr

00001354 <l1111>:
    1354:	c06937c0 	rsbgt	r3, r9, r0, asr #15

00001358 <l1112>:
    1358:	60180493 	mulsvs	r8, r3, r4

0000135c <l1113>:
    135c:	50090197 	mulpl	r9, r7, r1

00001360 <l1114>:
    1360:	2017069a 	mulscs	r7, sl, r6

00001364 <l1115>:
    1364:	200c0196 	mulcs	ip, r6, r1

00001368 <l1116>:
    1368:	d0f37808 	rscsle	r7, r3, r8, lsl #16

0000136c <l1117>:
    136c:	e01e0596 	muls	lr, r6, r5

00001370 <l1118>:
    1370:	e1b0937c 	rors	r9, ip, r3

00001374 <l1119>:
    1374:	60326004 	eorsvs	r6, r2, r4

00001378 <l1120>:
    1378:	7009069c 	mulvc	r9, ip, r6

0000137c <l1121>:
    137c:	9071251e 	rsbsls	r2, r1, lr, lsl r5

00001380 <l1122>:
    1380:	e0eb3006 	rsc	r3, fp, r6

00001384 <l1123>:
    1384:	e00e0995 	mul	lr, r5, r9

00001388 <l1124>:
    1388:	518f9064 	orrpl	r9, pc, r4, rrx

0000138c <l1125>:
    138c:	e135097c 	teq	r5, ip, ror r9

00001390 <l1126>:
    1390:	100b591b 	andne	r5, fp, fp, lsl r9

00001394 <l1127>:
    1394:	e16fbf1c 	clz	fp, ip

00001398 <l1128>:
    1398:	c1160063 	tstgt	r6, r3, rrx

0000139c <l1129>:
    139c:	b3360319 	teqlt	r6, #1677721600	; 0x64000000

000013a0 <l1130>:
    13a0:	70de9032 	sbcsvc	r9, lr, r2, lsr r0

000013a4 <l1131>:
    13a4:	33720633 	cmncc	r2, #53477376	; 0x3300000

000013a8 <l1132>:
    13a8:	e33308f6 	teq	r3, #16121856	; 0xf60000

000013ac <l1133>:
    13ac:	e005606e 	and	r6, r5, lr, rrx

000013b0 <l1134>:
    13b0:	e00e6007 	and	r6, lr, r7

000013b4 <l1135>:
    13b4:	801e0590 	mulshi	lr, r0, r5

000013b8 <l1136>:
    13b8:	009f506a 	addseq	r5, pc, sl, rrx

000013bc <l1137>:
    13bc:	e00c0698 	mul	ip, r8, r6

000013c0 <l1138>:
    13c0:	522a2999 	eorpl	r2, sl, #2506752	; 0x264000

000013c4 <l1139>:
    13c4:	718895c3 	orrvc	r9, r8, r3, asr #11

000013c8 <l1140>:
    13c8:	e01e8a75 	ands	r8, lr, r5, ror sl

000013cc <l1141>:
    13cc:	e0080394 	mul	r8, r4, r3

000013d0 <l1142>:
    13d0:	118ee009 	orrne	lr, lr, r9

000013d4 <l1143>:
    13d4:	301a0094 	mulscc	sl, r4, r0

000013d8 <l1144>:
    13d8:	e0e0b00c 	rsc	fp, r0, ip

000013dc <l1145>:
    13dc:	e032141e 	eors	r1, r2, lr, lsl r4

000013e0 <l1146>:
    13e0:	b170003e 	cmnlt	r0, lr, lsr r0

000013e4 <l1147>:
    13e4:	e13c000b 	teq	ip, fp

000013e8 <l1148>:
    13e8:	6032b24c 	eorsvs	fp, r2, ip, asr #4

000013ec <l1149>:
    13ec:	e39ae68d 	orrs	lr, sl, #147849216	; 0x8d00000

000013f0 <l1150>:
    13f0:	e188000a 	orr	r0, r8, sl

000013f4 <l1151>:
    13f4:	e07e3ba9 	rsbs	r3, lr, r9, lsr #23

000013f8 <l1152>:
    13f8:	d013844b 	andsle	r8, r3, fp, asr #8

000013fc <l1153>:
    13fc:	e1879008 	orr	r9, r7, r8

00001400 <l1154>:
    1400:	e01e0098 	muls	lr, r8, r0

00001404 <l1155>:
    1404:	e0150c91 	muls	r5, r1, ip

00001408 <l1156>:
    1408:	e019e3e8 	ands	lr, r9, r8, ror #7

0000140c <l1157>:
    140c:	e0218736 	eor	r8, r1, r6, lsr r7

00001410 <l1158>:
    1410:	d0180a90 	mulsle	r8, r0, sl

00001414 <l1159>:
    1414:	30bcb974 	adcscc	fp, ip, r4, ror r9

00001418 <l1160>:
    1418:	e0d7c060 	sbcs	ip, r7, r0, rrx

0000141c <l1161>:
    141c:	e0cc7004 	sbc	r7, ip, r4

00001420 <l1162>:
    1420:	e16faf17 	clz	sl, r7

00001424 <l1163>:
    1424:	e01c0890 	muls	ip, r0, r8

00001428 <l1164>:
    1428:	e018019e 	muls	r8, lr, r1

0000142c <l1165>:
    142c:	e0949009 	adds	r9, r4, r9

00001430 <l1166>:
    1430:	e0000196 	mul	r0, r6, r1

00001434 <l1167>:
    1434:	d1c4e00c 	bicle	lr, r4, ip

00001438 <l1168>:
    1438:	e09b006e 	adds	r0, fp, lr, rrx

0000143c <l1169>:
    143c:	e20f6215 	and	r6, pc, #1342177281	; 0x50000001

00001440 <l1170>:
    1440:	e0199e66 	ands	r9, r9, r6, ror #28

00001444 <l1171>:
    1444:	c186a158 	orrgt	sl, r6, r8, asr r1

00001448 <l1172>:
    1448:	e0321a79 	eors	r1, r2, r9, ror sl

0000144c <l1173>:
    144c:	e0106009 	ands	r6, r0, r9

00001450 <l1174>:
    1450:	900a0e9b 	mulls	sl, fp, lr

00001454 <l1175>:
    1454:	720c816b 	andvc	r8, ip, #-1073741798	; 0xc000001a

00001458 <l1176>:
    1458:	e057b00f 	subs	fp, r7, pc

0000145c <l1177>:
    145c:	a01c0e95 	mulsge	ip, r5, lr

00001460 <l1178>:
    1460:	e19a2bcf 	orrs	r2, sl, pc, asr #23

00001464 <l1179>:
    1464:	e172000e 	cmn	r2, lr

00001468 <l1180>:
    1468:	e0140597 	muls	r4, r7, r5

0000146c <l1181>:
    146c:	43f0801f 	mvnsmi	r8, #31

00001470 <l1182>:
    1470:	00000094 	muleq	r0, r4, r0

00001474 <l1183>:
    1474:	401a079e 	mulsmi	sl, lr, r7

00001478 <l1184>:
    1478:	20120393 	mulscs	r2, r3, r3

0000147c <l1185>:
    147c:	e0040998 	mul	r4, r8, r9

00001480 <l1186>:
    1480:	729004c7 	addsvc	r0, r0, #-956301312	; 0xc7000000

00001484 <l1187>:
    1484:	e01a2532 	ands	r2, sl, r2, lsr r5

00001488 <l1188>:
    1488:	000a0292 	muleq	sl, r2, r2

0000148c <l1189>:
    148c:	31975a1e 	orrscc	r5, r7, lr, lsl sl

00001490 <l1190>:
    1490:	c0120198 	mulsgt	r2, r8, r1

00001494 <l1191>:
    1494:	e1390b26 	teq	r9, r6, lsr #22

00001498 <l1192>:
    1498:	e2ef8133 	rsc	r8, pc, #-1073741812	; 0xc000000c

0000149c <l1193>:
    149c:	c18e3612 	orrgt	r3, lr, r2, lsl r6

000014a0 <l1194>:
    14a0:	e006099e 	mul	r6, lr, r9

000014a4 <l1195>:
    14a4:	41b06a78 	rorsmi	r6, r8, sl

000014a8 <l1196>:
    14a8:	e00c0c9b 	mul	ip, fp, ip

000014ac <l1197>:
    14ac:	70050b96 	mulvc	r5, r6, fp

000014b0 <l1198>:
    14b0:	e01a019c 	muls	sl, ip, r1

000014b4 <l1199>:
    14b4:	6079c559 	rsbsvs	ip, r9, r9, asr r5

000014b8 <l1200>:
    14b8:	e21a9d16 	ands	r9, sl, #1408	; 0x580

000014bc <l1201>:
    14bc:	e2201d32 	eor	r1, r0, #3200	; 0xc80

000014c0 <l1202>:
    14c0:	70180890 	mulsvc	r8, r0, r8

000014c4 <l1203>:
    14c4:	2185100c 	orrcs	r1, r5, ip

000014c8 <l1204>:
    14c8:	733c0f75 	teqvc	ip, #468	; 0x1d4

000014cc <l1205>:
    14cc:	12b47b8f 	adcsne	r7, r4, #146432	; 0x23c00

000014d0 <l1206>:
    14d0:	e016c856 	ands	ip, r6, r6, asr r8

000014d4 <l1207>:
    14d4:	e0120795 	muls	r2, r5, r7

000014d8 <l1208>:
    14d8:	e3ca9843 	bic	r9, sl, #4390912	; 0x430000

000014dc <l1209>:
    14dc:	b00a059c 	mullt	sl, ip, r5

000014e0 <l1210>:
    14e0:	e1d7c27e 	bics	ip, r7, lr, ror r2

000014e4 <l1211>:
    14e4:	01822063 	orreq	r2, r2, r3, rrx

000014e8 <l1212>:
    14e8:	a0060099 	mulge	r6, r9, r0

000014ec <l1213>:
    14ec:	60010b95 	mulvs	r1, r5, fp

000014f0 <l1214>:
    14f0:	b001647c 	andlt	r6, r1, ip, ror r4

000014f4 <l1215>:
    14f4:	e010099a 	muls	r0, sl, r9

000014f8 <l1216>:
    14f8:	2001009a 	mulcs	r1, sl, r0

000014fc <l1217>:
    14fc:	02aee15d 	adceq	lr, lr, #1073741847	; 0x40000017

00001500 <l1218>:
    1500:	e0192364 	ands	r2, r9, r4, ror #6

00001504 <l1219>:
    1504:	30080090 	mulcc	r8, r0, r0

00001508 <l1220>:
    1508:	d00e0594 	mulle	lr, r4, r5

0000150c <l1221>:
    150c:	e0221009 	eor	r1, r2, r9

00001510 <l1222>:
    1510:	d0190696 	mulsle	r9, r6, r6

00001514 <l1223>:
    1514:	e1320c5a 	teq	r2, sl, asr ip

00001518 <l1224>:
    1518:	407bb001 	rsbsmi	fp, fp, r1

0000151c <l1225>:
    151c:	b01b0a94 	mulslt	fp, r4, sl

00001520 <l1226>:
    1520:	e011079b 	muls	r1, fp, r7

00001524 <l1227>:
    1524:	107a02ec 	rsbsne	r0, sl, ip, ror #5

00001528 <l1228>:
    1528:	51390935 	teqpl	r9, r5, lsr r9

0000152c <l1229>:
    152c:	e0180791 	muls	r8, r1, r7

00001530 <l1230>:
    1530:	e23333e1 	eors	r3, r3, #-2080374781	; 0x84000003

00001534 <l1231>:
    1534:	b3a0ccdf 	movlt	ip, #57088	; 0xdf00

00001538 <l1232>:
    1538:	e0170695 	muls	r7, r5, r6

0000153c <l1233>:
    153c:	d035a00e 	eorsle	sl, r5, lr

00001540 <l1234>:
    1540:	e0100495 	muls	r0, r5, r4

00001544 <l1235>:
    1544:	b0100699 	mulslt	r0, r9, r6

00001548 <l1236>:
    1548:	e0000e96 	mul	r0, r6, lr

0000154c <l1237>:
    154c:	e0000e94 	mul	r0, r4, lr

00001550 <l1238>:
    1550:	a3976929 	orrsge	r6, r7, #671744	; 0xa4000

00001554 <l1239>:
    1554:	c0150396 	mulsgt	r5, r6, r3

00001558 <l1240>:
    1558:	e0110392 	muls	r1, r2, r3

0000155c <l1241>:
    155c:	101b029c 	mulsne	fp, ip, r2

00001560 <l1242>:
    1560:	e00c0990 	mul	ip, r0, r9

00001564 <l1243>:
    1564:	516fcf11 	clzpl	ip, r1

00001568 <l1244>:
    1568:	e0e43065 	rsc	r3, r4, r5, rrx

0000156c <l1245>:
    156c:	90010e92 	mulls	r1, r2, lr

00001570 <l1246>:
    1570:	60170896 	mulsvs	r7, r6, r8

00001574 <l1247>:
    1574:	e18a4e16 	orr	r4, sl, r6, lsl lr

00001578 <l1248>:
    1578:	e00a0e90 	mul	sl, r0, lr

0000157c <l1249>:
    157c:	e01b0293 	muls	fp, r3, r2

00001580 <l1250>:
    1580:	9082994b 	addls	r9, r2, fp, asr #18

00001584 <l1251>:
    1584:	e01ba530 	ands	sl, fp, r0, lsr r5

00001588 <l1252>:
    1588:	813c0352 	teqhi	ip, r2, asr r3

0000158c <l1253>:
    158c:	e39a1d23 	orrs	r1, sl, #2240	; 0x8c0

00001590 <l1254>:
    1590:	e1730004 	cmn	r3, r4

00001594 <l1255>:
    1594:	21180007 	tstcs	r8, r7

00001598 <l1256>:
    1598:	103eeb03 	eorsne	lr, lr, r3, lsl #22

0000159c <l1257>:
    159c:	e05c6002 	subs	r6, ip, r2

000015a0 <l1258>:
    15a0:	e0090b9b 	mul	r9, fp, fp

000015a4 <l1259>:
    15a4:	116fef1e 	clzne	lr, lr

000015a8 <l1260>:
    15a8:	e1da8775 	bics	r8, sl, r5, ror r7

000015ac <l1261>:
    15ac:	d33c0c82 	teqle	ip, #33280	; 0x8200

000015b0 <l1262>:
    15b0:	e0379003 	eors	r9, r7, r3

000015b4 <l1263>:
    15b4:	e0184006 	ands	r4, r8, r6

000015b8 <l1264>:
    15b8:	00180390 	mulseq	r8, r0, r3

000015bc <l1265>:
    15bc:	e0030594 	mul	r3, r4, r5

000015c0 <l1266>:
    15c0:	4004c4e3 	andmi	ip, r4, r3, ror #9

000015c4 <l1267>:
    15c4:	e078037e 	rsbs	r0, r8, lr, ror r3

000015c8 <l1268>:
    15c8:	c0160599 	mulsgt	r6, r9, r5

000015cc <l1269>:
    15cc:	70e82a68 	rscvc	r2, r8, r8, ror #20

000015d0 <l1270>:
    15d0:	7199300a 	orrsvc	r3, r9, sl

000015d4 <l1271>:
    15d4:	e0040499 	mul	r4, r9, r4

000015d8 <l1272>:
    15d8:	c178000e 	cmngt	r8, lr

000015dc <l1273>:
    15dc:	701a0b90 	mulsvc	sl, r0, fp

000015e0 <l1274>:
    15e0:	e0140492 	muls	r4, r2, r4

000015e4 <l1275>:
    15e4:	90010e9a 	mulls	r1, sl, lr

000015e8 <l1276>:
    15e8:	d0398c72 	eorsle	r8, r9, r2, ror ip

000015ec <l1277>:
    15ec:	3066a767 	rsbcc	sl, r6, r7, ror #14

000015f0 <l1278>:
    15f0:	000b0a96 	muleq	fp, r6, sl

000015f4 <l1279>:
    15f4:	b0070e93 	mullt	r7, r3, lr

000015f8 <l1280>:
    15f8:	100c0b98 	mulne	ip, r8, fp

000015fc <l1281>:
    15fc:	716f1f1c 	clzvc	r1, ip

00001600 <l1282>:
    1600:	00020e93 	muleq	r2, r3, lr

00001604 <l1283>:
    1604:	111e061c 	tstne	lr, ip, lsl r6

00001608 <l1284>:
    1608:	021c60f8 	andseq	r6, ip, #248	; 0xf8

0000160c <l1285>:
    160c:	30020890 	mulcc	r2, r0, r8

00001610 <l1286>:
    1610:	e0286016 	eor	r6, r8, r6, lsl r0

00001614 <l1287>:
    1614:	e038500e 	eors	r5, r8, lr

00001618 <l1288>:
    1618:	e1a01214 	lsl	r1, r4, r2

0000161c <l1289>:
    161c:	e0393002 	eors	r3, r9, r2

00001620 <l1290>:
    1620:	501e0690 	mulspl	lr, r0, r6

00001624 <l1291>:
    1624:	9184a0a6 	orrls	sl, r4, r6, lsr #1

00001628 <l1292>:
    1628:	e359095f 	cmp	r9, #1556480	; 0x17c000

0000162c <l1293>:
    162c:	105bb66b 	subsne	fp, fp, fp, ror #12

00001630 <l1294>:
    1630:	d1120007 	tstle	r2, r7

00001634 <l1295>:
    1634:	a0100599 	mulsge	r0, r9, r5

00001638 <l1296>:
    1638:	418ee009 	orrmi	lr, lr, r9

0000163c <l1297>:
    163c:	10045062 	andne	r5, r4, r2, rrx

00001640 <l1298>:
    1640:	a02a677b 	eorge	r6, sl, fp, ror r7

00001644 <l1299>:
    1644:	819c872b 	orrshi	r8, ip, fp, lsr #14

00001648 <l1300>:
    1648:	c1c2806a 	bicgt	r8, r2, sl, rrx

0000164c <l1301>:
    164c:	40080004 	andmi	r0, r8, r4

00001650 <l1302>:
    1650:	c024a156 	eorgt	sl, r4, r6, asr r1

00001654 <l1303>:
    1654:	e01ee00a 	ands	lr, lr, sl

00001658 <l1304>:
    1658:	40030096 	mulmi	r3, r6, r0

0000165c <l1305>:
    165c:	e0c5028b 	sbc	r0, r5, fp, lsl #5

00001660 <l1306>:
    1660:	e0150b92 	muls	r5, r2, fp

00001664 <l1307>:
    1664:	b01e0b99 	mulslt	lr, r9, fp

00001668 <l1308>:
    1668:	50b02911 	adcspl	r2, r0, r1, lsl r9

0000166c <l1309>:
    166c:	4036b8c7 	eorsmi	fp, r6, r7, asr #17

00001670 <l1310>:
    1670:	d010019b 	mulsle	r0, fp, r1

00001674 <l1311>:
    1674:	e00a0194 	mul	sl, r4, r1

00001678 <l1312>:
    1678:	e1b07e7b 	rors	r7, fp, lr

0000167c <l1313>:
    167c:	e31800a3 	tst	r8, #163	; 0xa3

00001680 <l1314>:
    1680:	10f9600e 	rscsne	r6, r9, lr

00001684 <l1315>:
    1684:	e114007e 	tst	r4, lr, ror r0

00001688 <l1316>:
    1688:	e238693f 	eors	r6, r8, #1032192	; 0xfc000

0000168c <l1317>:
    168c:	e1520002 	cmp	r2, r2

00001690 <l1318>:
    1690:	d03f4009 	eorsle	r4, pc, r9

00001694 <l1319>:
    1694:	e2029987 	and	r9, r2, #2211840	; 0x21c000

00001698 <l1320>:
    1698:	63a0e832 	movvs	lr, #3276800	; 0x320000

0000169c <l1321>:
    169c:	e0a2906e 	adc	r9, r2, lr, rrx

000016a0 <l1322>:
    16a0:	e00e1511 	and	r1, lr, r1, lsl r5

000016a4 <l1323>:
    16a4:	b15301c7 	cmplt	r3, r7, asr #3

000016a8 <l1324>:
    16a8:	e0e44003 	rsc	r4, r4, r3

000016ac <l1325>:
    16ac:	e2872686 	add	r2, r7, #140509184	; 0x8600000

000016b0 <l1326>:
    16b0:	b11f000e 	tstlt	pc, lr

000016b4 <l1327>:
    16b4:	e0150991 	muls	r5, r1, r9

000016b8 <l1328>:
    16b8:	8052000e 	subshi	r0, r2, lr

000016bc <l1329>:
    16bc:	d004019b 	mulle	r4, fp, r1

000016c0 <l1330>:
    16c0:	30060e9c 	mulcc	r6, ip, lr

000016c4 <l1331>:
    16c4:	211e0716 	tstcs	lr, r6, lsl r7

000016c8 <l1332>:
    16c8:	601e0693 	mulsvs	lr, r3, r6

000016cc <l1333>:
    16cc:	c019b511 	andsgt	fp, r9, r1, lsl r5

000016d0 <l1334>:
    16d0:	103c2fa8 	eorsne	r2, ip, r8, lsr #31

000016d4 <l1335>:
    16d4:	e0b84179 	adcs	r4, r8, r9, ror r1

000016d8 <l1336>:
    16d8:	e0073005 	and	r3, r7, r5

000016dc <l1337>:
    16dc:	e00a0399 	mul	sl, r9, r3

000016e0 <l1338>:
    16e0:	6386a0ae 	orrvs	sl, r6, #174	; 0xae

000016e4 <l1339>:
    16e4:	52a9e20b 	adcpl	lr, r9, #-1342177280	; 0xb0000000

000016e8 <l1340>:
    16e8:	224a5c12 	subcs	r5, sl, #4608	; 0x1200

000016ec <l1341>:
    16ec:	e0050798 	mul	r5, r8, r7

000016f0 <l1342>:
    16f0:	6006500e 	andvs	r5, r6, lr

000016f4 <l1343>:
    16f4:	e032500c 	eors	r5, r2, ip

000016f8 <l1344>:
    16f8:	c2152d5b 	andsgt	r2, r5, #5824	; 0x16c0

000016fc <l1345>:
    16fc:	5337069e 	teqpl	r7, #165675008	; 0x9e00000

00001700 <l1346>:
    1700:	e0120399 	muls	r2, r9, r3

00001704 <l1347>:
    1704:	729b6057 	addsvc	r6, fp, #87	; 0x57

00001708 <l1348>:
    1708:	c0110999 	mulsgt	r1, r9, r9

0000170c <l1349>:
    170c:	50d2c00f 	sbcspl	ip, r2, pc

00001710 <l1350>:
    1710:	603a2007 	eorsvs	r2, sl, r7

00001714 <l1351>:
    1714:	60060297 	mulvs	r6, r7, r2

00001718 <l1352>:
    1718:	e0254005 	eor	r4, r5, r5

0000171c <l1353>:
    171c:	e22813d5 	eor	r1, r8, #1409286147	; 0x54000003

00001720 <l1354>:
    1720:	e0124973 	ands	r4, r2, r3, ror r9

00001724 <l1355>:
    1724:	00090c9a 	muleq	r9, sl, ip

00001728 <l1356>:
    1728:	e0ebe417 	rsc	lr, fp, r7, lsl r4

0000172c <l1357>:
    172c:	81160c1c 	tsthi	r6, ip, lsl ip

00001730 <l1358>:
    1730:	701b0091 	mulsvc	fp, r1, r0

00001734 <l1359>:
    1734:	e21ccfcf 	ands	ip, ip, #828	; 0x33c

00001738 <l1360>:
    1738:	602e5065 	eorvs	r5, lr, r5, rrx

0000173c <l1361>:
    173c:	e33603fe 	teq	r6, #-134217725	; 0xf8000003

00001740 <l1362>:
    1740:	d0508c2a 	subsle	r8, r0, sl, lsr #24

00001744 <l1363>:
    1744:	e00c0697 	mul	ip, r7, r6

00001748 <l1364>:
    1748:	127b55ff 	rsbsne	r5, fp, #1069547520	; 0x3fc00000

0000174c <l1365>:
    174c:	e16f0f14 	clz	r0, r4

00001750 <l1366>:
    1750:	8212e805 	andshi	lr, r2, #327680	; 0x50000

00001754 <l1367>:
    1754:	e03fc84f 	eors	ip, pc, pc, asr #16

00001758 <l1368>:
    1758:	1018039b 	mulsne	r8, fp, r3

0000175c <l1369>:
    175c:	e0142008 	ands	r2, r4, r8

00001760 <l1370>:
    1760:	e00e0296 	mul	lr, r6, r2

00001764 <l1371>:
    1764:	e0359356 	eors	r9, r5, r6, asr r3

00001768 <l1372>:
    1768:	e01c0993 	muls	ip, r3, r9

0000176c <l1373>:
    176c:	a1917b18 	orrsge	r7, r1, r8, lsl fp

00001770 <l1374>:
    1770:	e0256005 	eor	r6, r5, r5

00001774 <l1375>:
    1774:	9273c33b 	rsbsls	ip, r3, #-335544320	; 0xec000000

00001778 <l1376>:
    1778:	e25b7083 	subs	r7, fp, #131	; 0x83

0000177c <l1377>:
    177c:	80120394 	mulshi	r2, r4, r3

00001780 <l1378>:
    1780:	3011ef04 	andscc	lr, r1, r4, lsl #30

00001784 <l1379>:
    1784:	e01b0e9a 	muls	fp, sl, lr

00001788 <l1380>:
    1788:	0252341a 	subseq	r3, r2, #436207616	; 0x1a000000

0000178c <l1381>:
    178c:	616fbf11 	clzvs	fp, r1

00001790 <l1382>:
    1790:	701e0c9c 	mulsvc	lr, ip, ip

00001794 <l1383>:
    1794:	a01c0797 	mulsge	ip, r7, r7

00001798 <l1384>:
    1798:	205b6008 	subscs	r6, fp, r8

0000179c <l1385>:
    179c:	83c95512 	bichi	r5, r9, #75497472	; 0x4800000

000017a0 <l1386>:
    17a0:	e00c0198 	mul	ip, r8, r1

000017a4 <l1387>:
    17a4:	31540004 	cmpcc	r4, r4

000017a8 <l1388>:
    17a8:	3090e53a 	addscc	lr, r0, sl, lsr r5

000017ac <l1389>:
    17ac:	000c3954 	andeq	r3, ip, r4, asr r9

000017b0 <l1390>:
    17b0:	e186e53a 	orr	lr, r6, sl, lsr r5

000017b4 <l1391>:
    17b4:	e0461060 	sub	r1, r6, r0, rrx

000017b8 <l1392>:
    17b8:	e1c30032 	bic	r0, r3, r2, lsr r0

000017bc <l1393>:
    17bc:	e005700b 	and	r7, r5, fp

000017c0 <l1394>:
    17c0:	a1b02b10 	lslsge	r2, r0, fp

000017c4 <l1395>:
    17c4:	811c0511 	tsthi	ip, r1, lsl r5

000017c8 <l1396>:
    17c8:	e1720ca2 	cmn	r2, r2, lsr #25

000017cc <l1397>:
    17cc:	60080c93 	mulvs	r8, r3, ip

000017d0 <l1398>:
    17d0:	e0170490 	muls	r7, r0, r4

000017d4 <l1399>:
    17d4:	10190195 	mulsne	r9, r5, r1

000017d8 <l1400>:
    17d8:	e0333716 	eors	r3, r3, r6, lsl r7

000017dc <l1401>:
    17dc:	e0000393 	mul	r0, r3, r3

000017e0 <l1402>:
    17e0:	3016e152 	andscc	lr, r6, r2, asr r1

000017e4 <l1403>:
    17e4:	e2094da5 	and	r4, r9, #10560	; 0x2940

000017e8 <l1404>:
    17e8:	0012019a 	mulseq	r2, sl, r1

000017ec <l1405>:
    17ec:	e039306b 	eors	r3, r9, fp, rrx

000017f0 <l1406>:
    17f0:	e01b0a94 	muls	fp, r4, sl

000017f4 <l1407>:
    17f4:	c008e000 	andgt	lr, r8, r0

000017f8 <l1408>:
    17f8:	a01b0c9a 	mulsge	fp, sl, ip

000017fc <l1409>:
    17fc:	902be552 	eorls	lr, fp, r2, asr r5

00001800 <l1410>:
    1800:	905b33aa 	subsls	r3, fp, sl, lsr #7

00001804 <l1411>:
    1804:	2198c1a0 	orrscs	ip, r8, r0, lsr #3

00001808 <l1412>:
    1808:	60030199 	mulvs	r3, r9, r1

0000180c <l1413>:
    180c:	60020296 	mulvs	r2, r6, r2

00001810 <l1414>:
    1810:	d216ab86 	andsle	sl, r6, #137216	; 0x21800

00001814 <l1415>:
    1814:	c01c600f 	andsgt	r6, ip, pc

00001818 <l1416>:
    1818:	600e0998 	mulvs	lr, r8, r9

0000181c <l1417>:
    181c:	e01e089b 	muls	lr, fp, r8

00001820 <l1418>:
    1820:	e1390001 	teq	r9, r1

00001824 <l1419>:
    1824:	219f9003 	orrscs	r9, pc, r3

00001828 <l1420>:
    1828:	c009937c 	andgt	r9, r9, ip, ror r3

0000182c <l1421>:
    182c:	302ce00f 	eorcc	lr, ip, pc

00001830 <l1422>:
    1830:	60204004 	eorvs	r4, r0, r4

00001834 <l1423>:
    1834:	12aab8ea 	adcne	fp, sl, #15335424	; 0xea0000

00001838 <l1424>:
    1838:	e0030090 	mul	r3, r0, r0

0000183c <l1425>:
    183c:	e005019c 	mul	r5, ip, r1

00001840 <l1426>:
    1840:	e190c156 	orrs	ip, r0, r6, asr r1

00001844 <l1427>:
    1844:	c23519c7 	eorsgt	r1, r5, #3260416	; 0x31c000

00001848 <l1428>:
    1848:	113e0081 	teqne	lr, r1, lsl #1

0000184c <l1429>:
    184c:	e090800c 	adds	r8, r0, ip

00001850 <l1430>:
    1850:	51f06067 	mvnspl	r6, r7, rrx

00001854 <l1431>:
    1854:	e02a782c 	eor	r7, sl, ip, lsr #16

00001858 <l1432>:
    1858:	80170b90 	mulshi	r7, r0, fp

0000185c <l1433>:
    185c:	e0180790 	muls	r8, r0, r7

00001860 <l1434>:
    1860:	e026400f 	eor	r4, r6, pc

00001864 <l1435>:
    1864:	30160e9c 	mulscc	r6, ip, lr

00001868 <l1436>:
    1868:	a2b17d2d 	adcsge	r7, r1, #2880	; 0xb40

0000186c <l1437>:
    186c:	20010e9a 	mulcs	r1, sl, lr

00001870 <l1438>:
    1870:	b0141134 	andslt	r1, r4, r4, lsr r1

00001874 <l1439>:
    1874:	e027b355 	eor	fp, r7, r5, asr r3

00001878 <l1440>:
    1878:	b01a0898 	mulslt	sl, r8, r8

0000187c <l1441>:
    187c:	e055c006 	subs	ip, r5, r6

00001880 <l1442>:
    1880:	406f400b 	rsbmi	r4, pc, fp

00001884 <l1443>:
    1884:	401b1062 	andsmi	r1, fp, r2, rrx

00001888 <l1444>:
    1888:	90160894 	mulsls	r6, r4, r8

0000188c <l1445>:
    188c:	c002e074 	andgt	lr, r2, r4, ror r0

00001890 <l1446>:
    1890:	d397bbf3 	orrsle	fp, r7, #248832	; 0x3cc00

00001894 <l1447>:
    1894:	e33e0331 	teq	lr, #-1006632960	; 0xc4000000

00001898 <l1448>:
    1898:	e010059b 	muls	r0, fp, r5

0000189c <l1449>:
    189c:	4000089c 	mulmi	r0, ip, r8

000018a0 <l1450>:
    18a0:	d0180a93 	mulsle	r8, r3, sl

000018a4 <l1451>:
    18a4:	c1350004 	teqgt	r5, r4

000018a8 <l1452>:
    18a8:	b16f1f13 	clzlt	r1, r3

000018ac <l1453>:
    18ac:	e1350678 	teq	r5, r8, ror r6

000018b0 <l1454>:
    18b0:	900e0193 	mulls	lr, r3, r1

000018b4 <l1455>:
    18b4:	e00a0895 	mul	sl, r5, r8

000018b8 <l1456>:
    18b8:	323ace1d 	eorscc	ip, sl, #464	; 0x1d0

000018bc <l1457>:
    18bc:	e19a5005 	orrs	r5, sl, r5

000018c0 <l1458>:
    18c0:	328bb0f8 	addcc	fp, fp, #248	; 0xf8

000018c4 <l1459>:
    18c4:	e2355005 	eors	r5, r5, #5

000018c8 <l1460>:
    18c8:	d0f5400e 	rscsle	r4, r5, lr

000018cc <l1461>:
    18cc:	835c06cf 	cmphi	ip, #217055232	; 0xcf00000

000018d0 <l1462>:
    18d0:	416f4f14 	clzmi	r4, r4

000018d4 <l1463>:
    18d4:	500a0790 	mulpl	sl, r0, r7

000018d8 <l1464>:
    18d8:	e0ca9004 	sbc	r9, sl, r4

000018dc <l1465>:
    18dc:	10130395 	mulsne	r3, r5, r3

000018e0 <l1466>:
    18e0:	e0070792 	mul	r7, r2, r7

000018e4 <l1467>:
    18e4:	53140f87 	tstpl	r4, #540	; 0x21c

000018e8 <l1468>:
    18e8:	e2e05b0d 	rsc	r5, r0, #13312	; 0x3400

000018ec <l1469>:
    18ec:	016f7f1e 	clzeq	r7, lr

000018f0 <l1470>:
    18f0:	e02074a3 	eor	r7, r0, r3, lsr #9

000018f4 <l1471>:
    18f4:	e0040099 	mul	r4, r9, r0

000018f8 <l1472>:
    18f8:	e0d6575e 	sbcs	r5, r6, lr, asr r7

000018fc <l1473>:
    18fc:	522072eb 	eorpl	r7, r0, #-1342177266	; 0xb000000e

00001900 <l1474>:
    1900:	e19f6a6f 	orrs	r6, pc, pc, ror #20

00001904 <l1475>:
    1904:	b003cc64 	andlt	ip, r3, r4, ror #24

00001908 <l1476>:
    1908:	e0160891 	muls	r6, r1, r8

0000190c <l1477>:
    190c:	e01e1474 	ands	r1, lr, r4, ror r4

00001910 <l1478>:
    1910:	517f0002 	cmnpl	pc, r2

00001914 <l1479>:
    1914:	e01a0895 	muls	sl, r5, r8

00001918 <l1480>:
    1918:	201c0796 	mulscs	ip, r6, r7

0000191c <l1481>:
    191c:	001b0195 	mulseq	fp, r5, r1

00001920 <l1482>:
    1920:	20130c9a 	mulscs	r3, sl, ip

00001924 <l1483>:
    1924:	d23544af 	eorsle	r4, r5, #-1358954496	; 0xaf000000

00001928 <l1484>:
    1928:	40100097 	mulsmi	r0, r7, r0

0000192c <l1485>:
    192c:	300e0595 	mulcc	lr, r5, r5

00001930 <l1486>:
    1930:	e0884a30 	add	r4, r8, r0, lsr sl

00001934 <l1487>:
    1934:	e2285b1b 	eor	r5, r8, #27648	; 0x6c00

00001938 <l1488>:
    1938:	42131a0e 	andsmi	r1, r3, #57344	; 0xe000

0000193c <l1489>:
    193c:	61947559 	orrsvs	r7, r4, r9, asr r5

00001940 <l1490>:
    1940:	53330621 	teqpl	r3, #34603008	; 0x2100000

00001944 <l1491>:
    1944:	81866002 	orrhi	r6, r6, r2

00001948 <l1492>:
    1948:	102f9004 	eorne	r9, pc, r4

0000194c <l1493>:
    194c:	e180337b 	orr	r3, r0, fp, ror r3

00001950 <l1494>:
    1950:	41b02973 	rorsmi	r2, r3, r9

00001954 <l1495>:
    1954:	92419221 	subls	r9, r1, #268435458	; 0x10000002

00001958 <l1496>:
    1958:	0393082a 	orrseq	r0, r3, #2752512	; 0x2a0000

0000195c <l1497>:
    195c:	10cc2b35 	sbcne	r2, ip, r5, lsr fp

00001960 <l1498>:
    1960:	e1320633 	teq	r2, r3, lsr r6

00001964 <l1499>:
    1964:	e24f4e79 	sub	r4, pc, #1936	; 0x790

00001968 <l1500>:
    1968:	e0154744 	ands	r4, r5, r4, asr #14

0000196c <l1501>:
    196c:	e0060791 	mul	r6, r1, r7

00001970 <l1502>:
    1970:	50100996 	mulspl	r0, r6, r9

00001974 <l1503>:
    1974:	d05b6469 	subsle	r6, fp, r9, ror #8

00001978 <l1504>:
    1978:	705e3004 	subsvc	r3, lr, r4

0000197c <l1505>:
    197c:	e0160c90 	muls	r6, r0, ip

00001980 <l1506>:
    1980:	718c2064 	orrvc	r2, ip, r4, rrx

00001984 <l1507>:
    1984:	e029ec55 	eor	lr, r9, r5, asr ip

00001988 <l1508>:
    1988:	e01a31a5 	ands	r3, sl, r5, lsr #3

0000198c <l1509>:
    198c:	e0110594 	muls	r1, r4, r5

00001990 <l1510>:
    1990:	e00c0e91 	mul	ip, r1, lr

00001994 <l1511>:
    1994:	90020b9b 	mulls	r2, fp, fp

00001998 <l1512>:
    1998:	e1da757b 	bics	r7, sl, fp, ror r5

0000199c <l1513>:
    199c:	e1f0ca14 	mvns	ip, r4, lsl sl

000019a0 <l1514>:
    19a0:	e21752d3 	ands	r5, r7, #805306381	; 0x3000000d

000019a4 <l1515>:
    19a4:	50080299 	mulpl	r8, r9, r2

000019a8 <l1516>:
    19a8:	e0090690 	mul	r9, r0, r6

000019ac <l1517>:
    19ac:	713a0058 	teqvc	sl, r8, asr r0

000019b0 <l1518>:
    19b0:	e006039b 	mul	r6, fp, r3

000019b4 <l1519>:
    19b4:	03e08beb 	mvneq	r8, #240640	; 0x3ac00

000019b8 <l1520>:
    19b8:	3006b061 	andcc	fp, r6, r1, rrx

000019bc <l1521>:
    19bc:	b0000899 	mullt	r0, r9, r8

000019c0 <l1522>:
    19c0:	80190395 	mulshi	r9, r5, r3

000019c4 <l1523>:
    19c4:	e01c0295 	muls	ip, r5, r2

000019c8 <l1524>:
    19c8:	e010029e 	muls	r0, lr, r2

000019cc <l1525>:
    19cc:	80140696 	mulshi	r4, r6, r6

000019d0 <l1526>:
    19d0:	e0020497 	mul	r2, r7, r4

000019d4 <l1527>:
    19d4:	61d8c002 	bicsvs	ip, r8, r2

000019d8 <l1528>:
    19d8:	10c1724a 	sbcne	r7, r1, sl, asr #4

000019dc <l1529>:
    19dc:	e01c019a 	muls	ip, sl, r1

000019e0 <l1530>:
    19e0:	523bafbb 	eorspl	sl, fp, #748	; 0x2ec

000019e4 <l1531>:
    19e4:	e0090291 	mul	r9, r1, r2

000019e8 <l1532>:
    19e8:	e1f0c807 	mvns	ip, r7, lsl #16

000019ec <l1533>:
    19ec:	818ae002 	orrhi	lr, sl, r2

000019f0 <l1534>:
    19f0:	e0180e94 	muls	r8, r4, lr

000019f4 <l1535>:
    19f4:	8010099e 	mulshi	r0, lr, r9

000019f8 <l1536>:
    19f8:	a11a000b 	tstge	sl, fp

000019fc <l1537>:
    19fc:	d0060999 	mulle	r6, r9, r9

00001a00 <l1538>:
    1a00:	919c3b72 	orrsls	r3, ip, r2, ror fp

00001a04 <l1539>:
    1a04:	e192e00c 	orrs	lr, r2, ip

00001a08 <l1540>:
    1a08:	e3b04c0b 	movs	r4, #2816	; 0xb00

00001a0c <l1541>:
    1a0c:	a034035e 	eorsge	r0, r4, lr, asr r3

00001a10 <l1542>:
    1a10:	e080c00a 	add	ip, r0, sl

00001a14 <l1543>:
    1a14:	e3190fc7 	tst	r9, #796	; 0x31c

00001a18 <l1544>:
    1a18:	e0f9a063 	rscs	sl, r9, r3, rrx

00001a1c <l1545>:
    1a1c:	d030e570 	eorsle	lr, r0, r0, ror r5

00001a20 <l1546>:
    1a20:	81c84065 	bichi	r4, r8, r5, rrx

00001a24 <l1547>:
    1a24:	e00b0b95 	mul	fp, r5, fp

00001a28 <l1548>:
    1a28:	30000b95 	mulcc	r0, r5, fp

00001a2c <l1549>:
    1a2c:	e0090696 	mul	r9, r6, r6

00001a30 <l1550>:
    1a30:	30256003 	eorcc	r6, r5, r3

00001a34 <l1551>:
    1a34:	d075ba1e 	rsbsle	fp, r5, lr, lsl sl

00001a38 <l1552>:
    1a38:	e0100a95 	muls	r0, r5, sl

00001a3c <l1553>:
    1a3c:	3189500f 	orrcc	r5, r9, pc

00001a40 <l1554>:
    1a40:	e1d9b556 	bics	fp, r9, r6, asr r5

00001a44 <l1555>:
    1a44:	c21c2152 	andsgt	r2, ip, #-2147483628	; 0x80000014

00001a48 <l1556>:
    1a48:	e00a6004 	and	r6, sl, r4

00001a4c <l1557>:
    1a4c:	405925ef 	subsmi	r2, r9, pc, ror #11

00001a50 <l1558>:
    1a50:	30456003 	subcc	r6, r5, r3

00001a54 <l1559>:
    1a54:	e0120999 	muls	r2, r9, r9

00001a58 <l1560>:
    1a58:	e0f1100b 	rscs	r1, r1, fp

00001a5c <l1561>:
    1a5c:	0004009a 	muleq	r4, sl, r0

00001a60 <l1562>:
    1a60:	70060e93 	mulvc	r6, r3, lr

00001a64 <l1563>:
    1a64:	e00e019c 	mul	lr, ip, r1

00001a68 <l1564>:
    1a68:	50b83684 	adcspl	r3, r8, r4, lsl #13

00001a6c <l1565>:
    1a6c:	80517007 	subshi	r7, r1, r7

00001a70 <l1566>:
    1a70:	e0130795 	muls	r3, r5, r7

00001a74 <l1567>:
    1a74:	e0150796 	muls	r5, r6, r7

00001a78 <l1568>:
    1a78:	0203811d 	andeq	r8, r3, #1073741831	; 0x40000007

00001a7c <l1569>:
    1a7c:	c021800e 	eorgt	r8, r1, lr

00001a80 <l1570>:
    1a80:	c1190077 	tstgt	r9, r7, ror r0

00001a84 <l1571>:
    1a84:	e1330465 	teq	r3, r5, ror #8

00001a88 <l1572>:
    1a88:	e180000f 	orr	r0, r0, pc

00001a8c <l1573>:
    1a8c:	e385534f 	orr	r5, r5, #1006632961	; 0x3c000001

00001a90 <l1574>:
    1a90:	e1dcbe86 	bics	fp, ip, r6, lsl #29

00001a94 <l1575>:
    1a94:	e0070096 	mul	r7, r6, r0

00001a98 <l1576>:
    1a98:	e009029e 	mul	r9, lr, r2

00001a9c <l1577>:
    1a9c:	e0b68831 	adcs	r8, r6, r1, lsr r8

00001aa0 <l1578>:
    1aa0:	51b09862 	rorspl	r9, r2, #16

00001aa4 <l1579>:
    1aa4:	e0010c95 	mul	r1, r5, ip

00001aa8 <l1580>:
    1aa8:	e0398439 	eors	r8, r9, r9, lsr r4

00001aac <l1581>:
    1aac:	62a0558d 	adcvs	r5, r0, #591396864	; 0x23400000

00001ab0 <l1582>:
    1ab0:	2394c226 	orrscs	ip, r4, #1610612738	; 0x60000002

00001ab4 <l1583>:
    1ab4:	900a0291 	mulls	sl, r1, r2

00001ab8 <l1584>:
    1ab8:	c386a436 	orrgt	sl, r6, #905969664	; 0x36000000

00001abc <l1585>:
    1abc:	819e13c3 	orrshi	r1, lr, r3, asr #7

00001ac0 <l1586>:
    1ac0:	e1b0322b 	lsrs	r3, fp, #4

00001ac4 <l1587>:
    1ac4:	e03cb009 	eors	fp, ip, r9

00001ac8 <l1588>:
    1ac8:	319a6953 	orrscc	r6, sl, r3, asr r9

00001acc <l1589>:
    1acc:	e393294b 	orrs	r2, r3, #1228800	; 0x12c000

00001ad0 <l1590>:
    1ad0:	e00c0598 	mul	ip, r8, r5

00001ad4 <l1591>:
    1ad4:	e1360001 	teq	r6, r1

00001ad8 <l1592>:
    1ad8:	e0467008 	sub	r7, r6, r8

00001adc <l1593>:
    1adc:	a0180491 	mulsge	r8, r1, r4

00001ae0 <l1594>:
    1ae0:	e025200c 	eor	r2, r5, ip

00001ae4 <l1595>:
    1ae4:	0313015b 	tsteq	r3, #-1073741802	; 0xc0000016

00001ae8 <l1596>:
    1ae8:	e197400e 	orrs	r4, r7, lr

00001aec <l1597>:
    1aec:	4004049b 	mulmi	r4, fp, r4

00001af0 <l1598>:
    1af0:	e0100496 	muls	r0, r6, r4

00001af4 <l1599>:
    1af4:	e03e1e75 	eors	r1, lr, r5, ror lr

00001af8 <l1600>:
    1af8:	316f7f15 	clzcc	r7, r5

00001afc <l1601>:
    1afc:	0186b001 	orreq	fp, r6, r1

00001b00 <l1602>:
    1b00:	a00a0191 	mulge	sl, r1, r1

00001b04 <l1603>:
    1b04:	00010e90 	muleq	r1, r0, lr

00001b08 <l1604>:
    1b08:	71964006 	orrsvc	r4, r6, r6

00001b0c <l1605>:
    1b0c:	30039158 	andcc	r9, r3, r8, asr r1

00001b10 <l1606>:
    1b10:	e0010193 	mul	r1, r3, r1

00001b14 <l1607>:
    1b14:	a0060390 	mulge	r6, r0, r3

00001b18 <l1608>:
    1b18:	40130695 	mulsmi	r3, r5, r6

00001b1c <l1609>:
    1b1c:	03815cfb 	orreq	r5, r1, #64256	; 0xfb00

00001b20 <l1610>:
    1b20:	2002059a 	mulcs	r2, sl, r5

00001b24 <l1611>:
    1b24:	6038206e 	eorsvs	r2, r8, lr, rrx

00001b28 <l1612>:
    1b28:	40020697 	mulmi	r2, r7, r6

00001b2c <l1613>:
    1b2c:	40153006 	andsmi	r3, r5, r6

00001b30 <l1614>:
    1b30:	31d4ae60 	bicscc	sl, r4, r0, ror #28

00001b34 <l1615>:
    1b34:	e0030a9b 	mul	r3, fp, sl

00001b38 <l1616>:
    1b38:	e31405b1 	tst	r4, #742391808	; 0x2c400000

00001b3c <l1617>:
    1b3c:	c0170e93 	mulsgt	r7, r3, lr

00001b40 <l1618>:
    1b40:	b0070b93 	mullt	r7, r3, fp

00001b44 <l1619>:
    1b44:	3112000f 	tstcc	r2, pc

00001b48 <l1620>:
    1b48:	e01a0e90 	muls	sl, r0, lr

00001b4c <l1621>:
    1b4c:	901a0899 	mulsls	sl, r9, r8

00001b50 <l1622>:
    1b50:	80f73b8a 	rscshi	r3, r7, sl, lsl #23

00001b54 <l1623>:
    1b54:	e1160c3a 	tst	r6, sl, lsr ip

00001b58 <l1624>:
    1b58:	b11e06c0 	tstlt	lr, r0, asr #13

00001b5c <l1625>:
    1b5c:	90271e09 	eorls	r1, r7, r9, lsl #28

00001b60 <l1626>:
    1b60:	e0060097 	mul	r6, r7, r0

00001b64 <l1627>:
    1b64:	90e41063 	rscls	r1, r4, r3, rrx

00001b68 <l1628>:
    1b68:	51550764 	cmppl	r5, r4, ror #14

00001b6c <l1629>:
    1b6c:	9379063a 	cmnls	r9, #60817408	; 0x3a00000

00001b70 <l1630>:
    1b70:	e0d09060 	sbcs	r9, r0, r0, rrx

00001b74 <l1631>:
    1b74:	e38a5725 	orr	r5, sl, #9699328	; 0x940000

00001b78 <l1632>:
    1b78:	e012e009 	ands	lr, r2, r9

00001b7c <l1633>:
    1b7c:	e00b0192 	mul	fp, r2, r1

00001b80 <l1634>:
    1b80:	b1710204 	cmnlt	r1, r4, lsl #4

00001b84 <l1635>:
    1b84:	b0d7e938 	sbcslt	lr, r7, r8, lsr r9

00001b88 <l1636>:
    1b88:	016f5f13 	clzeq	r5, r3

00001b8c <l1637>:
    1b8c:	c0010399 	mulgt	r1, r9, r3

00001b90 <l1638>:
    1b90:	e0036421 	and	r6, r3, r1, lsr #8

00001b94 <l1639>:
    1b94:	421241f7 	andsmi	r4, r2, #-1073741763	; 0xc000003d

00001b98 <l1640>:
    1b98:	e0a9945a 	adc	r9, r9, sl, asr r4

00001b9c <l1641>:
    1b9c:	e01e0998 	muls	lr, r8, r9

00001ba0 <l1642>:
    1ba0:	738e1416 	orrvc	r1, lr, #369098752	; 0x16000000

00001ba4 <l1643>:
    1ba4:	00119235 	andseq	r9, r1, r5, lsr r2

00001ba8 <l1644>:
    1ba8:	c001029b 	mulgt	r1, fp, r2

00001bac <l1645>:
    1bac:	a0ea7513 	rscge	r7, sl, r3, lsl r5

00001bb0 <l1646>:
    1bb0:	b2739773 	rsbslt	r9, r3, #30146560	; 0x1cc0000

00001bb4 <l1647>:
    1bb4:	d181b005 	orrle	fp, r1, r5

00001bb8 <l1648>:
    1bb8:	e01e0991 	muls	lr, r1, r9

00001bbc <l1649>:
    1bbc:	101e0997 	mulsne	lr, r7, r9

00001bc0 <l1650>:
    1bc0:	3134076f 	teqcc	r4, pc, ror #14

00001bc4 <l1651>:
    1bc4:	e19b55a0 	orrs	r5, fp, r0, lsr #11

00001bc8 <l1652>:
    1bc8:	d0170191 	mulsle	r7, r1, r1

00001bcc <l1653>:
    1bcc:	c1540bef 	cmpgt	r4, pc, ror #23

00001bd0 <l1654>:
    1bd0:	e01b700c 	ands	r7, fp, ip

00001bd4 <l1655>:
    1bd4:	63965ef1 	orrsvs	r5, r6, #3856	; 0xf10

00001bd8 <l1656>:
    1bd8:	500a0091 	mulpl	sl, r1, r0

00001bdc <l1657>:
    1bdc:	200b0e96 	mulcs	fp, r6, lr

00001be0 <l1658>:
    1be0:	10100b9a 	mulsne	r0, sl, fp

00001be4 <l1659>:
    1be4:	e13c09ca 	teq	ip, sl, asr #19

00001be8 <l1660>:
    1be8:	21a00001 	movcs	r0, r1

00001bec <l1661>:
    1bec:	e013e830 	ands	lr, r3, r0, lsr r8

00001bf0 <l1662>:
    1bf0:	00140b96 	mulseq	r4, r6, fp

00001bf4 <l1663>:
    1bf4:	b0080790 	mullt	r8, r0, r7

00001bf8 <l1664>:
    1bf8:	b0170896 	mulslt	r7, r6, r8

00001bfc <l1665>:
    1bfc:	e090b004 	adds	fp, r0, r4

00001c00 <l1666>:
    1c00:	70d0c066 	sbcsvc	ip, r0, r6, rrx

00001c04 <l1667>:
    1c04:	e16f5f16 	clz	r5, r6

00001c08 <l1668>:
    1c08:	e3180189 	tst	r8, #1073741858	; 0x40000022

00001c0c <l1669>:
    1c0c:	93550ce6 	cmpls	r5, #58880	; 0xe600

00001c10 <l1670>:
    1c10:	0218432b 	andseq	r4, r8, #-1409286144	; 0xac000000

00001c14 <l1671>:
    1c14:	e0130794 	muls	r3, r4, r7

00001c18 <l1672>:
    1c18:	a16fef17 	clzge	lr, r7

00001c1c <l1673>:
    1c1c:	e2b60b07 	adcs	r0, r6, #7168	; 0x1c00

00001c20 <l1674>:
    1c20:	121118a6 	andsne	r1, r1, #10878976	; 0xa60000

00001c24 <l1675>:
    1c24:	e0180b99 	muls	r8, r9, fp

00001c28 <l1676>:
    1c28:	e00a0a90 	mul	sl, r0, sl

00001c2c <l1677>:
    1c2c:	b3e0047a 	mvnlt	r0, #2046820352	; 0x7a000000

00001c30 <l1678>:
    1c30:	1110000b 	tstne	r0, fp

00001c34 <l1679>:
    1c34:	501c0895 	mulspl	ip, r5, r8

00001c38 <l1680>:
    1c38:	b052c973 	subslt	ip, r2, r3, ror r9

00001c3c <l1681>:
    1c3c:	e01c2616 	ands	r2, ip, r6, lsl r6

00001c40 <l1682>:
    1c40:	e114061e 	tst	r4, lr, lsl r6

00001c44 <l1683>:
    1c44:	7191706f 	orrsvc	r7, r1, pc, rrx

00001c48 <l1684>:
    1c48:	e0186646 	ands	r6, r8, r6, asr #12

00001c4c <l1685>:
    1c4c:	90040892 	mulls	r4, r2, r8

00001c50 <l1686>:
    1c50:	e044c0c2 	sub	ip, r4, r2, asr #1

00001c54 <l1687>:
    1c54:	c16f3f12 	clzgt	r3, r2

00001c58 <l1688>:
    1c58:	a17807ca 	cmnge	r8, sl, asr #15

00001c5c <l1689>:
    1c5c:	e00e6004 	and	r6, lr, r4

00001c60 <l1690>:
    1c60:	e0050898 	mul	r5, r8, r8

00001c64 <l1691>:
    1c64:	e13201ac 	teq	r2, ip, lsr #3

00001c68 <l1692>:
    1c68:	e0355ba5 	eors	r5, r5, r5, lsr #23

00001c6c <l1693>:
    1c6c:	e3c8914a 	bic	r9, r8, #-2147483630	; 0x80000012

00001c70 <l1694>:
    1c70:	e0120990 	muls	r2, r0, r9

00001c74 <l1695>:
    1c74:	e19ee5cf 	orrs	lr, lr, pc, asr #11

00001c78 <l1696>:
    1c78:	320c7173 	andcc	r7, ip, #-1073741796	; 0xc000001c

00001c7c <l1697>:
    1c7c:	e2036d0d 	and	r6, r3, #832	; 0x340

00001c80 <l1698>:
    1c80:	e0030191 	mul	r3, r1, r1

00001c84 <l1699>:
    1c84:	e0b08001 	adcs	r8, r0, r1

00001c88 <l1700>:
    1c88:	e3500057 	cmp	r0, #87	; 0x57

00001c8c <l1701>:
    1c8c:	d000b062 	andle	fp, r0, r2, rrx

00001c90 <l1702>:
    1c90:	100c029b 	mulne	ip, fp, r2

00001c94 <l1703>:
    1c94:	01912066 	orrseq	r2, r1, r6, rrx

00001c98 <l1704>:
    1c98:	5186e06c 	orrpl	lr, r6, ip, rrx

00001c9c <l1705>:
    1c9c:	e01b0293 	muls	fp, r3, r2

00001ca0 <l1706>:
    1ca0:	c2281c5e 	eorgt	r1, r8, #24064	; 0x5e00

00001ca4 <l1707>:
    1ca4:	e016600b 	ands	r6, r6, fp

00001ca8 <l1708>:
    1ca8:	e05b9830 	subs	r9, fp, r0, lsr r8

00001cac <l1709>:
    1cac:	e187e701 	orr	lr, r7, r1, lsl #14

00001cb0 <l1710>:
    1cb0:	80098d83 	andhi	r8, r9, r3, lsl #27

00001cb4 <l1711>:
    1cb4:	902c5522 	eorls	r5, ip, r2, lsr #10

00001cb8 <l1712>:
    1cb8:	e000069c 	mul	r0, ip, r6

00001cbc <l1713>:
    1cbc:	e1320779 	teq	r2, r9, ror r7

00001cc0 <l1714>:
    1cc0:	11cc5e61 	bicne	r5, ip, r1, ror #28

00001cc4 <l1715>:
    1cc4:	e00a200b 	and	r2, sl, fp

00001cc8 <l1716>:
    1cc8:	43770b23 	cmnmi	r7, #35840	; 0x8c00

00001ccc <l1717>:
    1ccc:	e199b00e 	orrs	fp, r9, lr

00001cd0 <l1718>:
    1cd0:	10190292 	mulsne	r9, r2, r2

00001cd4 <l1719>:
    1cd4:	e3974acf 	orrs	r4, r7, #847872	; 0xcf000

00001cd8 <l1720>:
    1cd8:	1011800a 	andsne	r8, r1, sl

00001cdc <l1721>:
    1cdc:	a0050897 	mulge	r5, r7, r8

00001ce0 <l1722>:
    1ce0:	c39881a5 	orrsgt	r8, r8, #1073741865	; 0x40000029

00001ce4 <l1723>:
    1ce4:	7040bb7c 	subvc	fp, r0, ip, ror fp

00001ce8 <l1724>:
    1ce8:	e19e4b35 	orrs	r4, lr, r5, lsr fp

00001cec <l1725>:
    1cec:	900c1a7b 	andls	r1, ip, fp, ror sl

00001cf0 <l1726>:
    1cf0:	117a0329 	cmnne	sl, r9, lsr #6

00001cf4 <l1727>:
    1cf4:	e3818e3f 	orr	r8, r1, #1008	; 0x3f0

00001cf8 <l1728>:
    1cf8:	00100094 	mulseq	r0, r4, r0

00001cfc <l1729>:
    1cfc:	90eab004 	rscls	fp, sl, r4

00001d00 <l1730>:
    1d00:	a00e0e92 	mulge	lr, r2, lr

00001d04 <l1731>:
    1d04:	b01a0593 	mulslt	sl, r3, r5

00001d08 <l1732>:
    1d08:	101b4230 	andsne	r4, fp, r0, lsr r2

00001d0c <l1733>:
    1d0c:	e017c54a 	ands	ip, r7, sl, asr #10

00001d10 <l1734>:
    1d10:	e047120e 	sub	r1, r7, lr, lsl #4

00001d14 <l1735>:
    1d14:	e0170391 	muls	r7, r1, r3

00001d18 <l1736>:
    1d18:	23510219 	cmpcs	r1, #-1879048191	; 0x90000001

00001d1c <l1737>:
    1d1c:	219354e6 	orrscs	r5, r3, r6, ror #9

00001d20 <l1738>:
    1d20:	108eaa84 	addne	sl, lr, r4, lsl #21

00001d24 <l1739>:
    1d24:	60160b98 	mulsvs	r6, r8, fp

00001d28 <l1740>:
    1d28:	300c0591 	mulcc	ip, r1, r5

00001d2c <l1741>:
    1d2c:	e016019b 	muls	r6, fp, r1

00001d30 <l1742>:
    1d30:	e0060494 	mul	r6, r4, r4

00001d34 <l1743>:
    1d34:	2001019b 	mulcs	r1, fp, r1

00001d38 <l1744>:
    1d38:	e04e0956 	sub	r0, lr, r6, asr r9

00001d3c <l1745>:
    1d3c:	6004069a 	mulvs	r4, sl, r6

00001d40 <l1746>:
    1d40:	e0120e95 	muls	r2, r5, lr

00001d44 <l1747>:
    1d44:	80040698 	mulhi	r4, r8, r6

00001d48 <l1748>:
    1d48:	723190a1 	eorsvc	r9, r1, #161	; 0xa1

00001d4c <l1749>:
    1d4c:	c1190000 	tstgt	r9, r0

00001d50 <l1750>:
    1d50:	c11a0000 	tstgt	sl, r0

00001d54 <l1751>:
    1d54:	e1950572 	orrs	r0, r5, r2, ror r5

00001d58 <l1752>:
    1d58:	e03ca453 	eors	sl, ip, r3, asr r4

00001d5c <l1753>:
    1d5c:	e18b600b 	orr	r6, fp, fp

00001d60 <l1754>:
    1d60:	a1877006 	orrge	r7, r7, r6

00001d64 <l1755>:
    1d64:	e003009a 	mul	r3, sl, r0

00001d68 <l1756>:
    1d68:	e01c0599 	muls	ip, r9, r5

00001d6c <l1757>:
    1d6c:	e11902af 	tst	r9, pc, lsr #5

00001d70 <l1758>:
    1d70:	d359095f 	cmple	r9, #1556480	; 0x17c000

00001d74 <l1759>:
    1d74:	e19e2980 	orrs	r2, lr, r0, lsl #19

00001d78 <l1760>:
    1d78:	e0020142 	and	r0, r2, r2, asr #2

00001d7c <l1761>:
    1d7c:	c19638c0 	orrsgt	r3, r6, r0, asr #17

00001d80 <l1762>:
    1d80:	319fece3 	orrscc	lr, pc, r3, ror #25

00001d84 <l1763>:
    1d84:	b018039b 	mulslt	r8, fp, r3

00001d88 <l1764>:
    1d88:	e1967010 	orrs	r7, r6, r0, lsl r0

00001d8c <l1765>:
    1d8c:	21866885 	orrcs	r6, r6, r5, lsl #17

00001d90 <l1766>:
    1d90:	e20c0433 	and	r0, ip, #855638016	; 0x33000000

00001d94 <l1767>:
    1d94:	90878e76 	addls	r8, r7, r6, ror lr

00001d98 <l1768>:
    1d98:	d0050693 	mulle	r5, r3, r6

00001d9c <l1769>:
    1d9c:	e0160697 	muls	r6, r7, r6

00001da0 <l1770>:
    1da0:	e1c69ac9 	bic	r9, r6, r9, asr #21

00001da4 <l1771>:
    1da4:	e014079e 	muls	r4, lr, r7

00001da8 <l1772>:
    1da8:	e0329ba7 	eors	r9, r2, r7, lsr #23

00001dac <l1773>:
    1dac:	13350068 	teqne	r5, #104	; 0x68

00001db0 <l1774>:
    1db0:	e0120797 	muls	r2, r7, r7

00001db4 <l1775>:
    1db4:	c033ea1b 	eorsgt	lr, r3, fp, lsl sl

00001db8 <l1776>:
    1db8:	e15a0247 	cmp	sl, r7, asr #4

00001dbc <l1777>:
    1dbc:	e083e302 	add	lr, r3, r2, lsl #6

00001dc0 <l1778>:
    1dc0:	d1a09e4a 	asrle	r9, sl, #28

00001dc4 <l1779>:
    1dc4:	a005009a 	mulge	r5, sl, r0

00001dc8 <l1780>:
    1dc8:	80140c98 	mulshi	r4, r8, ip

00001dcc <l1781>:
    1dcc:	b1580930 	cmplt	r8, r0, lsr r9

00001dd0 <l1782>:
    1dd0:	e19f2065 	orrs	r2, pc, r5, rrx

00001dd4 <l1783>:
    1dd4:	d0090296 	mulle	r9, r6, r2

00001dd8 <l1784>:
    1dd8:	e01a0494 	muls	sl, r4, r4

00001ddc <l1785>:
    1ddc:	e1ce5c7e 	bic	r5, lr, lr, ror ip

00001de0 <l1786>:
    1de0:	e0150b97 	muls	r5, r7, fp

00001de4 <l1787>:
    1de4:	e16f6f12 	clz	r6, r2

00001de8 <l1788>:
    1de8:	c0070191 	mulgt	r7, r1, r1

00001dec <l1789>:
    1dec:	20472184 	subcs	r2, r7, r4, lsl #3

00001df0 <l1790>:
    1df0:	3010006f 	andscc	r0, r0, pc, rrx

00001df4 <l1791>:
    1df4:	e0d94004 	sbcs	r4, r9, r4

00001df8 <l1792>:
    1df8:	419f1cca 	orrsmi	r1, pc, sl, asr #25

00001dfc <l1793>:
    1dfc:	c0010796 	mulgt	r1, r6, r7

00001e00 <l1794>:
    1e00:	429fc017 	addsmi	ip, pc, #23

00001e04 <l1795>:
    1e04:	60040a9e 	mulvs	r4, lr, sl

00001e08 <l1796>:
    1e08:	00070190 	muleq	r7, r0, r1

00001e0c <l1797>:
    1e0c:	e0000592 	mul	r0, r2, r5

00001e10 <l1798>:
    1e10:	e17c0961 	cmn	ip, r1, ror #18

00001e14 <l1799>:
    1e14:	10341004 	eorsne	r1, r4, r4

00001e18 <l1800>:
    1e18:	e003300a 	and	r3, r3, sl

00001e1c <l1801>:
    1e1c:	d007099a 	mulle	r7, sl, r9

00001e20 <l1802>:
    1e20:	e0340004 	eors	r0, r4, r4

00001e24 <l1803>:
    1e24:	e0eb0952 	rsc	r0, fp, r2, asr r9

00001e28 <l1804>:
    1e28:	305b900c 	subscc	r9, fp, ip

00001e2c <l1805>:
    1e2c:	e00c0496 	mul	ip, r6, r4

00001e30 <l1806>:
    1e30:	c01cea47 	andsgt	lr, ip, r7, asr #20

00001e34 <l1807>:
    1e34:	e0663007 	rsb	r3, r6, r7

00001e38 <l1808>:
    1e38:	601e089b 	mulsvs	lr, fp, r8

00001e3c <l1809>:
    1e3c:	a0020a91 	mulge	r2, r1, sl

00001e40 <l1810>:
    1e40:	d014099a 	mulsle	r4, sl, r9

00001e44 <l1811>:
    1e44:	e0040592 	mul	r4, r2, r5

00001e48 <l1812>:
    1e48:	e0180a96 	muls	r8, r6, sl

00001e4c <l1813>:
    1e4c:	e25b68ad 	subs	r6, fp, #11337728	; 0xad0000

00001e50 <l1814>:
    1e50:	50010a95 	mulpl	r1, r5, sl

00001e54 <l1815>:
    1e54:	9035be48 	eorsls	fp, r5, r8, asr #28

00001e58 <l1816>:
    1e58:	e0347881 	eors	r7, r4, r1, lsl #17

00001e5c <l1817>:
    1e5c:	50110a9a 	mulspl	r1, sl, sl

00001e60 <l1818>:
    1e60:	900e0e92 	mulls	lr, r2, lr

00001e64 <l1819>:
    1e64:	90140a9b 	mulsls	r4, fp, sl

00001e68 <l1820>:
    1e68:	90190a90 	mulsls	r9, r0, sl

00001e6c <l1821>:
    1e6c:	e1d3406c 	bics	r4, r3, ip, rrx

00001e70 <l1822>:
    1e70:	303f7006 	eorscc	r7, pc, r6

00001e74 <l1823>:
    1e74:	501b0794 	mulspl	fp, r4, r7

00001e78 <l1824>:
    1e78:	c0060e93 	mulgt	r6, r3, lr

00001e7c <l1825>:
    1e7c:	e099606b 	adds	r6, r9, fp, rrx

00001e80 <l1826>:
    1e80:	e0cb6001 	sbc	r6, fp, r1

00001e84 <l1827>:
    1e84:	40093687 	andmi	r3, r9, r7, lsl #13

00001e88 <l1828>:
    1e88:	701e0e9b 	mulsvc	lr, fp, lr

00001e8c <l1829>:
    1e8c:	41b05060 	rrxsmi	r5, r0

00001e90 <l1830>:
    1e90:	d04ac722 	suble	ip, sl, r2, lsr #14

00001e94 <l1831>:
    1e94:	e01c0399 	muls	ip, r9, r3

00001e98 <l1832>:
    1e98:	e39ecb6f 	orrs	ip, lr, #113664	; 0x1bc00

00001e9c <l1833>:
    1e9c:	038062e1 	orreq	r6, r0, #268435470	; 0x1000000e

00001ea0 <l1834>:
    1ea0:	d002099e 	mulle	r2, lr, r9

00001ea4 <l1835>:
    1ea4:	40563008 	subsmi	r3, r6, r8

00001ea8 <l1836>:
    1ea8:	1399b19a 	orrsne	fp, r9, #-2147483610	; 0x80000026

00001eac <l1837>:
    1eac:	8234801f 	eorshi	r8, r4, #31

00001eb0 <l1838>:
    1eb0:	7222e8b5 	eorvc	lr, r2, #11862016	; 0xb50000

00001eb4 <l1839>:
    1eb4:	50020390 	mulpl	r2, r0, r3

00001eb8 <l1840>:
    1eb8:	70080e9c 	mulvc	r8, ip, lr

00001ebc <l1841>:
    1ebc:	e039e87a 	eors	lr, r9, sl, ror r8

00001ec0 <l1842>:
    1ec0:	4050e724 	subsmi	lr, r0, r4, lsr #14

00001ec4 <l1843>:
    1ec4:	1154023a 	cmpne	r4, sl, lsr r2

00001ec8 <l1844>:
    1ec8:	a026281a 	eorge	r2, r6, sl, lsl r8

00001ecc <l1845>:
    1ecc:	60110093 	mulsvs	r1, r3, r0

00001ed0 <l1846>:
    1ed0:	e1dbb008 	bics	fp, fp, r8

00001ed4 <l1847>:
    1ed4:	c0858639 	addgt	r8, r5, r9, lsr r6

00001ed8 <l1848>:
    1ed8:	e2034e83 	and	r4, r3, #2096	; 0x830

00001edc <l1849>:
    1edc:	90929258 	addsls	r9, r2, r8, asr r2

00001ee0 <l1850>:
    1ee0:	e23398a6 	eors	r9, r3, #10878976	; 0xa60000

00001ee4 <l1851>:
    1ee4:	e00c0095 	mul	ip, r5, r0

00001ee8 <l1852>:
    1ee8:	403ce00b 	eorsmi	lr, ip, fp

00001eec <l1853>:
    1eec:	00123000 	andseq	r3, r2, r0

00001ef0 <l1854>:
    1ef0:	e0040697 	mul	r4, r7, r6

00001ef4 <l1855>:
    1ef4:	4007039e 	mulmi	r7, lr, r3

00001ef8 <l1856>:
    1ef8:	e0140192 	muls	r4, r2, r1

00001efc <l1857>:
    1efc:	70110490 	mulsvc	r1, r0, r4

00001f00 <l1858>:
    1f00:	700c0e93 	mulvc	ip, r3, lr

00001f04 <l1859>:
    1f04:	e0d5b06c 	sbcs	fp, r5, ip, rrx

00001f08 <l1860>:
    1f08:	e0982f6e 	adds	r2, r8, lr, ror #30

00001f0c <l1861>:
    1f0c:	90190b93 	mulsls	r9, r3, fp

00001f10 <l1862>:
    1f10:	70110b99 	mulsvc	r1, r9, fp

00001f14 <l1863>:
    1f14:	001e0299 	mulseq	lr, r9, r2

00001f18 <l1864>:
    1f18:	e01a0093 	muls	sl, r3, r0

00001f1c <l1865>:
    1f1c:	e0090b94 	mul	r9, r4, fp

00001f20 <l1866>:
    1f20:	93a0e6fb 	movls	lr, #263192576	; 0xfb00000

00001f24 <l1867>:
    1f24:	b0060ec8 	andlt	r0, r6, r8, asr #29

00001f28 <l1868>:
    1f28:	e0050c91 	mul	r5, r1, ip

00001f2c <l1869>:
    1f2c:	50422006 	subpl	r2, r2, r6

00001f30 <l1870>:
    1f30:	e0141005 	ands	r1, r4, r5

00001f34 <l1871>:
    1f34:	62266fd6 	eorvs	r6, r6, #856	; 0x358

00001f38 <l1872>:
    1f38:	901b0891 	mulsls	fp, r1, r8

00001f3c <l1873>:
    1f3c:	e0a11433 	adc	r1, r1, r3, lsr r4

00001f40 <l1874>:
    1f40:	51550009 	cmppl	r5, r9

00001f44 <l1875>:
    1f44:	7005029c 	mulvc	r5, ip, r2

00001f48 <l1876>:
    1f48:	e1890310 	orr	r0, r9, r0, lsl r3

00001f4c <l1877>:
    1f4c:	e037200a 	eors	r2, r7, sl

00001f50 <l1878>:
    1f50:	700e0399 	mulvc	lr, r9, r3

00001f54 <l1879>:
    1f54:	10111e5e 	andsne	r1, r1, lr, asr lr

00001f58 <l1880>:
    1f58:	e1b03164 	rors	r3, r4, #2

00001f5c <l1881>:
    1f5c:	00039004 	andeq	r9, r3, r4

00001f60 <l1882>:
    1f60:	4239af65 	eorsmi	sl, r9, #404	; 0x194

00001f64 <l1883>:
    1f64:	d1dc555e 	bicsle	r5, ip, lr, asr r5

00001f68 <l1884>:
    1f68:	e221a60e 	eor	sl, r1, #14680064	; 0xe00000

00001f6c <l1885>:
    1f6c:	e002069a 	mul	r2, sl, r6

00001f70 <l1886>:
    1f70:	10130a98 	mulsne	r3, r8, sl

00001f74 <l1887>:
    1f74:	e01a0b94 	muls	sl, r4, fp

00001f78 <l1888>:
    1f78:	000b0b9a 	muleq	fp, sl, fp

00001f7c <l1889>:
    1f7c:	21802bce 	orrcs	r2, r0, lr, asr #23

00001f80 <l1890>:
    1f80:	919f700f 	orrsls	r7, pc, pc

00001f84 <l1891>:
    1f84:	209c200a 	addscs	r2, ip, sl

00001f88 <l1892>:
    1f88:	e00c0797 	mul	ip, r7, r7

00001f8c <l1893>:
    1f8c:	4193e114 	orrsmi	lr, r3, r4, lsl r1

00001f90 <l1894>:
    1f90:	01e07b67 	mvneq	r7, r7, ror #22

00001f94 <l1895>:
    1f94:	401a0b98 	mulsmi	sl, r8, fp

00001f98 <l1896>:
    1f98:	e18bbe64 	orr	fp, fp, r4, ror #28

00001f9c <l1897>:
    1f9c:	10140598 	mulsne	r4, r8, r5

00001fa0 <l1898>:
    1fa0:	e0167000 	ands	r7, r6, r0

00001fa4 <l1899>:
    1fa4:	204b506c 	subcs	r5, fp, ip, rrx

00001fa8 <l1900>:
    1fa8:	10055154 	andne	r5, r5, r4, asr r1

00001fac <l1901>:
    1fac:	10130498 	mulsne	r3, r8, r4

00001fb0 <l1902>:
    1fb0:	438792e9 	orrmi	r9, r7, #-1879048178	; 0x9000000e

00001fb4 <l1903>:
    1fb4:	40fba061 	rscsmi	sl, fp, r1, rrx

00001fb8 <l1904>:
    1fb8:	30b5a112 	adcscc	sl, r5, r2, lsl r1

00001fbc <l1905>:
    1fbc:	91966604 	orrsls	r6, r6, r4, lsl #12

00001fc0 <l1906>:
    1fc0:	c38476b6 	orrgt	r7, r4, #190840832	; 0xb600000

00001fc4 <l1907>:
    1fc4:	c0b0700c 	adcsgt	r7, r0, ip

00001fc8 <l1908>:
    1fc8:	e0010298 	mul	r1, r8, r2

00001fcc <l1909>:
    1fcc:	60150e90 	mulsvs	r5, r0, lr

00001fd0 <l1910>:
    1fd0:	e0110595 	muls	r1, r5, r5

00001fd4 <l1911>:
    1fd4:	4316079b 	tstmi	r6, #40632320	; 0x26c0000

00001fd8 <l1912>:
    1fd8:	601c0093 	mulsvs	ip, r3, r0

00001fdc <l1913>:
    1fdc:	e0050992 	mul	r5, r2, r9

00001fe0 <l1914>:
    1fe0:	e1908009 	orrs	r8, r0, r9

00001fe4 <l1915>:
    1fe4:	816fbf17 	clzhi	fp, r7

00001fe8 <l1916>:
    1fe8:	50f236aa 	rscspl	r3, r2, sl, lsr #13

00001fec <l1917>:
    1fec:	50b9c00e 	adcspl	ip, r9, lr

00001ff0 <l1918>:
    1ff0:	10677ae0 	rsbne	r7, r7, r0, ror #21

00001ff4 <l1919>:
    1ff4:	017a0069 	cmneq	sl, r9, rrx

00001ff8 <l1920>:
    1ff8:	20030097 	mulcs	r3, r7, r0

00001ffc <l1921>:
    1ffc:	504ba065 	subpl	sl, fp, r5, rrx

00002000 <l1922>:
    2000:	e3500666 	cmp	r0, #106954752	; 0x6600000

00002004 <l1923>:
    2004:	41f07066 	mvnsmi	r7, r6, rrx

00002008 <l1924>:
    2008:	c3e00021 	mvngt	r0, #33	; 0x21

0000200c <l1925>:
    200c:	301c0391 	mulscc	ip, r1, r3

00002010 <l1926>:
    2010:	a03e5300 	eorsge	r5, lr, r0, lsl #6

00002014 <l1927>:
    2014:	e0000496 	mul	r0, r6, r4

00002018 <l1928>:
    2018:	e15f000b 	cmp	pc, fp

0000201c <l1929>:
    201c:	21d3190c 	bicscs	r1, r3, ip, lsl #18

00002020 <l1930>:
    2020:	322c03fe 	eorcc	r0, ip, #-134217725	; 0xf8000003

00002024 <l1931>:
    2024:	d034c21a 	eorsle	ip, r4, sl, lsl r2

00002028 <l1932>:
    2028:	2010039b 	mulscs	r0, fp, r3

0000202c <l1933>:
    202c:	e37b0e2e 	cmn	fp, #736	; 0x2e0

00002030 <l1934>:
    2030:	80316a4c 	eorshi	r6, r1, ip, asr #20

00002034 <l1935>:
    2034:	e21cb01d 	ands	fp, ip, #29

00002038 <l1936>:
    2038:	92084a37 	andls	r4, r8, #225280	; 0x37000

0000203c <l1937>:
    203c:	e001009e 	mul	r1, lr, r0

00002040 <l1938>:
    2040:	80140999 	mulshi	r4, r9, r9

00002044 <l1939>:
    2044:	000e0096 	muleq	lr, r6, r0

00002048 <l1940>:
    2048:	e015614f 	ands	r6, r5, pc, asr #2

0000204c <l1941>:
    204c:	302a2000 	eorcc	r2, sl, r0

00002050 <l1942>:
    2050:	020689f2 	andeq	r8, r6, #3964928	; 0x3c8000

00002054 <l1943>:
    2054:	30110898 	mulscc	r1, r8, r8

00002058 <l1944>:
    2058:	e0070093 	mul	r7, r3, r0

0000205c <l1945>:
    205c:	e084118b 	add	r1, r4, fp, lsl #3

00002060 <l1946>:
    2060:	501a0992 	mulspl	sl, r2, r9

00002064 <l1947>:
    2064:	d03ce4e2 	eorsle	lr, ip, r2, ror #9

00002068 <l1948>:
    2068:	e21fbfe6 	ands	fp, pc, #920	; 0x398

0000206c <l1949>:
    206c:	e266a52a 	rsb	sl, r6, #176160768	; 0xa800000

00002070 <l1950>:
    2070:	00533000 	subseq	r3, r3, r0

00002074 <l1951>:
    2074:	c0ecb175 	rscgt	fp, ip, r5, ror r1

00002078 <l1952>:
    2078:	d00a089b 	mulle	sl, fp, r8

0000207c <l1953>:
    207c:	8000019a 	mulhi	r0, sl, r1

00002080 <l1954>:
    2080:	80140c93 	mulshi	r4, r3, ip

00002084 <l1955>:
    2084:	e1b0e43a 	lsrs	lr, sl, r4

00002088 <l1956>:
    2088:	e3a0b7a7 	mov	fp, #43778048	; 0x29c0000

0000208c <l1957>:
    208c:	e1a0400b 	mov	r4, fp

00002090 <l1958>:
    2090:	d23e01fa 	eorsle	r0, lr, #-2147483586	; 0x8000003e

00002094 <l1959>:
    2094:	302c9007 	eorcc	r9, ip, r7

00002098 <l1960>:
    2098:	8009089a 	mulhi	r9, sl, r8

0000209c <l1961>:
    209c:	e191ad0e 	orrs	sl, r1, lr, lsl #26

000020a0 <l1962>:
    20a0:	400b100f 	andmi	r1, fp, pc

000020a4 <l1963>:
    20a4:	e0010099 	mul	r1, r9, r0

000020a8 <l1964>:
    20a8:	e00e0e95 	mul	lr, r5, lr

000020ac <l1965>:
    20ac:	e0178f45 	ands	r8, r7, r5, asr #30

000020b0 <l1966>:
    20b0:	e007069a 	mul	r7, sl, r6

000020b4 <l1967>:
    20b4:	b1932060 	orrslt	r2, r3, r0, rrx

000020b8 <l1968>:
    20b8:	e17e087e 	cmn	lr, lr, ror r8

000020bc <l1969>:
    20bc:	601ac6cf 	andsvs	ip, sl, pc, asr #13

000020c0 <l1970>:
    20c0:	6014176e 	andsvs	r1, r4, lr, ror #14

000020c4 <l1971>:
    20c4:	22ea1819 	rsccs	r1, sl, #1638400	; 0x190000

000020c8 <l1972>:
    20c8:	401b0498 	mulsmi	fp, r8, r4

000020cc <l1973>:
    20cc:	e00649ab 	and	r4, r6, fp, lsr #19

000020d0 <l1974>:
    20d0:	9034a006 	eorsls	sl, r4, r6

000020d4 <l1975>:
    20d4:	e177000b 	cmn	r7, fp

000020d8 <l1976>:
    20d8:	b00b0e90 	mullt	fp, r0, lr

000020dc <l1977>:
    20dc:	30116000 	andscc	r6, r1, r0

000020e0 <l1978>:
    20e0:	40110996 	mulsmi	r1, r6, r9

000020e4 <l1979>:
    20e4:	d01e0b92 	mulsle	lr, r2, fp

000020e8 <l1980>:
    20e8:	e19cac61 	orrs	sl, ip, r1, ror #24

000020ec <l1981>:
    20ec:	216f1f1c 	clzcs	r1, ip

000020f0 <l1982>:
    20f0:	50140191 	mulspl	r4, r1, r1

000020f4 <l1983>:
    20f4:	219b0b79 	orrscs	r0, fp, r9, ror fp

000020f8 <l1984>:
    20f8:	e1740060 	cmn	r4, r0, rrx

000020fc <l1985>:
    20fc:	52309121 	eorspl	r9, r0, #1073741832	; 0x40000008

00002100 <l1986>:
    2100:	d06c508a 	rsble	r5, ip, sl, lsl #1

00002104 <l1987>:
    2104:	90180599 	mulsls	r8, r9, r5

00002108 <l1988>:
    2108:	e033406b 	eors	r4, r3, fp, rrx

0000210c <l1989>:
    210c:	50239066 	eorpl	r9, r3, r6, rrx

00002110 <l1990>:
    2110:	e1960000 	orrs	r0, r6, r0

00002114 <l1991>:
    2114:	e0301de2 	eors	r1, r0, r2, ror #27

00002118 <l1992>:
    2118:	e17f0066 	cmn	pc, r6, rrx

0000211c <l1993>:
    211c:	e014019c 	muls	r4, ip, r1

00002120 <l1994>:
    2120:	a0a3b002 	adcge	fp, r3, r2

00002124 <l1995>:
    2124:	e1a05130 	lsr	r5, r0, r1

00002128 <l1996>:
    2128:	e055b000 	subs	fp, r5, r0

0000212c <l1997>:
    212c:	c0170493 	mulsgt	r7, r3, r4

00002130 <l1998>:
    2130:	20e3b000 	rsccs	fp, r3, r0

00002134 <l1999>:
    2134:	d0c31069 	sbcle	r1, r3, r9, rrx

00002138 <l2000>:
    2138:	3151032e 	cmpcc	r1, lr, lsr #6

0000213c <l2001>:
    213c:	b1c4c066 	biclt	ip, r4, r6, rrx

00002140 <l2002>:
    2140:	20231006 	eorcs	r1, r3, r6

00002144 <l2003>:
    2144:	61ca1dc5 	bicvs	r1, sl, r5, asr #27

00002148 <l2004>:
    2148:	816f1f17 	clzhi	r1, r7

0000214c <l2005>:
    214c:	e04e093c 	sub	r0, lr, ip, lsr r9

00002150 <l2006>:
    2150:	e2c5e723 	sbc	lr, r5, #9175040	; 0x8c0000

00002154 <l2007>:
    2154:	e150027b 	cmp	r0, fp, ror r2

00002158 <l2008>:
    2158:	8113000c 	tsthi	r3, ip

0000215c <l2009>:
    215c:	60120194 	mulsvs	r2, r4, r1

00002160 <l2010>:
    2160:	30020b9a 	mulcc	r2, sl, fp

00002164 <l2011>:
    2164:	a0049a35 	andge	r9, r4, r5, lsr sl

00002168 <l2012>:
    2168:	a00b0b96 	mulge	fp, r6, fp

0000216c <l2013>:
    216c:	e01c0898 	muls	ip, r8, r8

00002170 <l2014>:
    2170:	e0e60a30 	rsc	r0, r6, r0, lsr sl

00002174 <l2015>:
    2174:	e003089a 	mul	r3, sl, r8

00002178 <l2016>:
    2178:	01180c51 	tsteq	r8, r1, asr ip

0000217c <l2017>:
    217c:	e0090092 	mul	r9, r2, r0

00002180 <l2018>:
    2180:	e1800000 	orr	r0, r0, r0

00002184 <l2019>:
    2184:	40221000 	eormi	r1, r2, r0

00002188 <l2020>:
    2188:	621441a1 	andsvs	r4, r4, #1073741864	; 0x40000028

0000218c <l2021>:
    218c:	713c0805 	teqvc	ip, r5, lsl #16

00002190 <l2022>:
    2190:	e194e93e 	orrs	lr, r4, lr, lsr r9

00002194 <l2023>:
    2194:	72442717 	subvc	r2, r4, #6029312	; 0x5c0000

00002198 <l2024>:
    2198:	819e044f 	orrshi	r0, lr, pc, asr #8

0000219c <l2025>:
    219c:	e2bbca06 	adcs	ip, fp, #24576	; 0x6000

000021a0 <l2026>:
    21a0:	e0d9ebe3 	sbcs	lr, r9, r3, ror #23

000021a4 <l2027>:
    21a4:	61847063 	orrvs	r7, r4, r3, rrx

000021a8 <l2028>:
    21a8:	80010693 	mulhi	r1, r3, r6

000021ac <l2029>:
    21ac:	e03a1cea 	eors	r1, sl, sl, ror #25

000021b0 <l2030>:
    21b0:	200c0996 	mulcs	ip, r6, r9

000021b4 <l2031>:
    21b4:	e298593d 	adds	r5, r8, #999424	; 0xf4000

000021b8 <l2032>:
    21b8:	e0073677 	and	r3, r7, r7, ror r6

000021bc <l2033>:
    21bc:	d19867e8 	orrsle	r6, r8, r8, ror #15

000021c0 <l2034>:
    21c0:	307aa87e 	rsbscc	sl, sl, lr, ror r8

000021c4 <l2035>:
    21c4:	4054c00a 	subsmi	ip, r4, sl

000021c8 <l2036>:
    21c8:	c00e9006 	andgt	r9, lr, r6

000021cc <l2037>:
    21cc:	e39bc0c0 	orrs	ip, fp, #192	; 0xc0

000021d0 <l2038>:
    21d0:	90da1007 	sbcsls	r1, sl, r7

000021d4 <l2039>:
    21d4:	e00b0694 	mul	fp, r4, r6

000021d8 <l2040>:
    21d8:	e011099e 	muls	r1, lr, r9

000021dc <l2041>:
    21dc:	e0284009 	eor	r4, r8, r9

000021e0 <l2042>:
    21e0:	e1914003 	orrs	r4, r1, r3

000021e4 <l2043>:
    21e4:	e0010199 	mul	r1, r9, r1

000021e8 <l2044>:
    21e8:	10010992 	mulne	r1, r2, r9

000021ec <l2045>:
    21ec:	00b7400f 	adcseq	r4, r7, pc

000021f0 <l2046>:
    21f0:	e0160391 	muls	r6, r1, r3

000021f4 <l2047>:
    21f4:	e19e500e 	orrs	r5, lr, lr

000021f8 <l2048>:
    21f8:	e0375657 	eors	r5, r7, r7, asr r6

000021fc <l2049>:
    21fc:	20160b9a 	mulscs	r6, sl, fp

00002200 <l2050>:
    2200:	801a0195 	mulshi	sl, r5, r1

00002204 <l2051>:
    2204:	e00e009b 	mul	lr, fp, r0

00002208 <l2052>:
    2208:	228a8f7d 	addcs	r8, sl, #500	; 0x1f4

0000220c <l2053>:
    220c:	5239154a 	eorspl	r1, r9, #310378496	; 0x12800000

00002210 <l2054>:
    2210:	8336074a 	teqhi	r6, #19398656	; 0x1280000

00002214 <l2055>:
    2214:	9041b655 	subls	fp, r1, r5, asr r6

00002218 <l2056>:
    2218:	e39ca039 	orrs	sl, ip, #57	; 0x39

0000221c <l2057>:
    221c:	90120a9c 	mulsls	r2, ip, sl

00002220 <l2058>:
    2220:	60120699 	mulsvs	r2, r9, r6

00002224 <l2059>:
    2224:	200b069a 	mulcs	fp, sl, r6

00002228 <l2060>:
    2228:	00020198 	muleq	r2, r8, r1

0000222c <l2061>:
    222c:	e13e0063 	teq	lr, r3, rrx

00002230 <l2062>:
    2230:	e00a0e91 	mul	sl, r1, lr

00002234 <l2063>:
    2234:	e0080a9a 	mul	r8, sl, sl

00002238 <l2064>:
    2238:	e1856001 	orr	r6, r5, r1

0000223c <l2065>:
    223c:	e00a029b 	mul	sl, fp, r2

00002240 <l2066>:
    2240:	b01c0b94 	mulslt	ip, r4, fp

00002244 <l2067>:
    2244:	e0020191 	mul	r2, r1, r1

00002248 <l2068>:
    2248:	107ce6ae 	rsbsne	lr, ip, lr, lsr #13

0000224c <l2069>:
    224c:	e2398331 	eors	r8, r9, #-1006632960	; 0xc4000000

00002250 <l2070>:
    2250:	e00c0092 	mul	ip, r2, r0

00002254 <l2071>:
    2254:	e01b0096 	muls	fp, r6, r0

00002258 <l2072>:
    2258:	3011099b 	mulscc	r1, fp, r9

0000225c <l2073>:
    225c:	e1b0e002 	movs	lr, r2

00002260 <l2074>:
    2260:	9188671c 	orrls	r6, r8, ip, lsl r7

00002264 <l2075>:
    2264:	e00e0199 	mul	lr, r9, r1

00002268 <l2076>:
    2268:	e181e005 	orr	lr, r1, r5

0000226c <l2077>:
    226c:	d0337000 	eorsle	r7, r3, r0

00002270 <l2078>:
    2270:	e039100a 	eors	r1, r9, sl

00002274 <l2079>:
    2274:	4000e671 	andmi	lr, r0, r1, ror r6

00002278 <l2080>:
    2278:	e03e2013 	eors	r2, lr, r3, lsl r0

0000227c <l2081>:
    227c:	00608981 	rsbeq	r8, r0, r1, lsl #19

00002280 <l2082>:
    2280:	e0c4e06e 	sbc	lr, r4, lr, rrx

00002284 <l2083>:
    2284:	d1909a1a 	orrsle	r9, r0, sl, lsl sl

00002288 <l2084>:
    2288:	00180692 	mulseq	r8, r2, r6

0000228c <l2085>:
    228c:	70040199 	mulvc	r4, r9, r1

00002290 <l2086>:
    2290:	e0a29a35 	adc	r9, r2, r5, lsr sl

00002294 <l2087>:
    2294:	e06e191e 	rsb	r1, lr, lr, lsl r9

00002298 <l2088>:
    2298:	600e0e94 	mulvs	lr, r4, lr

0000229c <l2089>:
    229c:	50bb6006 	adcspl	r6, fp, r6

000022a0 <l2090>:
    22a0:	30070e9b 	mulcc	r7, fp, lr

000022a4 <l2091>:
    22a4:	e05cc00c 	subs	ip, ip, ip

000022a8 <l2092>:
    22a8:	a0507b17 	subsge	r7, r0, r7, lsl fp

000022ac <l2093>:
    22ac:	d0000698 	mulle	r0, r8, r6

000022b0 <l2094>:
    22b0:	a0180b97 	mulsge	r8, r7, fp

000022b4 <l2095>:
    22b4:	e0c85774 	sbc	r5, r8, r4, ror r7

000022b8 <l2096>:
    22b8:	e16f3f12 	clz	r3, r2

000022bc <l2097>:
    22bc:	01e0b002 	mvneq	fp, r2

000022c0 <l2098>:
    22c0:	e3520495 	cmp	r2, #-1795162112	; 0x95000000

000022c4 <l2099>:
    22c4:	30c9767a 	sbccc	r7, r9, sl, ror r6

000022c8 <l2100>:
    22c8:	61914009 	orrsvs	r4, r1, r9

000022cc <l2101>:
    22cc:	323ab1a5 	eorscc	fp, sl, #1073741865	; 0x40000029

000022d0 <l2102>:
    22d0:	41b0600b 	movsmi	r6, fp

000022d4 <l2103>:
    22d4:	60000b9e 	mulvs	r0, lr, fp

000022d8 <l2104>:
    22d8:	20010c92 	mulcs	r1, r2, ip

000022dc <l2105>:
    22dc:	e007b00f 	and	fp, r7, pc

000022e0 <l2106>:
    22e0:	a39f3fce 	orrsge	r3, pc, #824	; 0x338

000022e4 <l2107>:
    22e4:	e0260006 	eor	r0, r6, r6

000022e8 <l2108>:
    22e8:	e1835061 	orr	r5, r3, r1, rrx

000022ec <l2109>:
    22ec:	e0060e95 	mul	r6, r5, lr

000022f0 <l2110>:
    22f0:	7030a003 	eorsvc	sl, r0, r3

000022f4 <l2111>:
    22f4:	b0474b5c 	sublt	r4, r7, ip, asr fp

000022f8 <l2112>:
    22f8:	d0190794 	mulsle	r9, r4, r7

000022fc <l2113>:
    22fc:	e1998007 	orrs	r8, r9, r7

00002300 <l2114>:
    2300:	e0f68001 	rscs	r8, r6, r1

00002304 <l2115>:
    2304:	e132006c 	teq	r2, ip, rrx

00002308 <l2116>:
    2308:	e0287dea 	eor	r7, r8, sl, ror #27

0000230c <l2117>:
    230c:	a01a0297 	mulsge	sl, r7, r2

00002310 <l2118>:
    2310:	e01b0c94 	muls	fp, r4, ip

00002314 <l2119>:
    2314:	e012049a 	muls	r2, sl, r4

00002318 <l2120>:
    2318:	a17e000b 	cmnge	lr, fp

0000231c <l2121>:
    231c:	c015039e 	mulsgt	r5, lr, r3

00002320 <l2122>:
    2320:	30f6500c 	rscscc	r5, r6, ip

00002324 <l2123>:
    2324:	e39912fe 	orrs	r1, r9, #-536870897	; 0xe000000f

00002328 <l2124>:
    2328:	30170894 	mulscc	r7, r4, r8

0000232c <l2125>:
    232c:	10060290 	mulne	r6, r0, r2

00002330 <l2126>:
    2330:	d2f52293 	rscsle	r2, r5, #805306377	; 0x30000009

00002334 <l2127>:
    2334:	e0484118 	sub	r4, r8, r8, lsl r1

00002338 <l2128>:
    2338:	00100699 	mulseq	r0, r9, r6

0000233c <l2129>:
    233c:	e03e1003 	eors	r1, lr, r3

00002340 <l2130>:
    2340:	0015a701 	andseq	sl, r5, r1, lsl #14

00002344 <l2131>:
    2344:	d187106b 	orrle	r1, r7, fp, rrx

00002348 <l2132>:
    2348:	e00c0a9b 	mul	ip, fp, sl

0000234c <l2133>:
    234c:	d012a006 	andsle	sl, r2, r6

00002350 <l2134>:
    2350:	10150c9e 	mulsne	r5, lr, ip

00002354 <l2135>:
    2354:	90070b95 	mulls	r7, r5, fp

00002358 <l2136>:
    2358:	41500a41 	cmpmi	r0, r1, asr #20

0000235c <l2137>:
    235c:	9237bb2e 	eorsls	fp, r7, #47104	; 0xb800

00002360 <l2138>:
    2360:	d19f1060 	orrsle	r1, pc, r0, rrx

00002364 <l2139>:
    2364:	30d98001 	sbcscc	r8, r9, r1

00002368 <l2140>:
    2368:	e00c0092 	mul	ip, r2, r0

0000236c <l2141>:
    236c:	e0160698 	muls	r6, r8, r6

00002370 <l2142>:
    2370:	30000893 	mulcc	r0, r3, r8

00002374 <l2143>:
    2374:	e0393110 	eors	r3, r9, r0, lsl r1

00002378 <l2144>:
    2378:	e1834f29 	orr	r4, r3, r9, lsr #30

0000237c <l2145>:
    237c:	e028c066 	eor	ip, r8, r6, rrx

00002380 <l2146>:
    2380:	72196701 	andsvc	r6, r9, #262144	; 0x40000

00002384 <l2147>:
    2384:	818a7062 	orrhi	r7, sl, r2, rrx

00002388 <l2148>:
    2388:	70395658 	eorsvc	r5, r9, r8, asr r6

0000238c <l2149>:
    238c:	0005049c 	muleq	r5, ip, r4

00002390 <l2150>:
    2390:	e0030c95 	mul	r3, r5, ip

00002394 <l2151>:
    2394:	1187941a 	orrne	r9, r7, sl, lsl r4

00002398 <l2152>:
    2398:	e2c54ee9 	sbc	r4, r5, #3728	; 0xe90

0000239c <l2153>:
    239c:	e0050b96 	mul	r5, r6, fp

000023a0 <l2154>:
    23a0:	e0feb87a 	rscs	fp, lr, sl, ror r8

000023a4 <l2155>:
    23a4:	401b029c 	mulsmi	fp, ip, r2

000023a8 <l2156>:
    23a8:	e007e17b 	and	lr, r7, fp, ror r1

000023ac <l2157>:
    23ac:	e1e0000c 	mvn	r0, ip

000023b0 <l2158>:
    23b0:	d20303af 	andle	r0, r3, #-1140850686	; 0xbc000002

000023b4 <l2159>:
    23b4:	3194e00b 	orrscc	lr, r4, fp

000023b8 <l2160>:
    23b8:	e1e0293a 	mvn	r2, sl, lsr r9

000023bc <l2161>:
    23bc:	a05e6067 	subsge	r6, lr, r7, rrx

000023c0 <l2162>:
    23c0:	e38c4616 	orr	r4, ip, #23068672	; 0x1600000

000023c4 <l2163>:
    23c4:	e0140290 	muls	r4, r0, r2

000023c8 <l2164>:
    23c8:	e18b3b13 	orr	r3, fp, r3, lsl fp

000023cc <l2165>:
    23cc:	e0010890 	mul	r1, r0, r8

000023d0 <l2166>:
    23d0:	919c9067 	orrsls	r9, ip, r7, rrx

000023d4 <l2167>:
    23d4:	803e5620 	eorshi	r5, lr, r0, lsr #12

000023d8 <l2168>:
    23d8:	e17e06e3 	cmn	lr, r3, ror #13

000023dc <l2169>:
    23dc:	e0139fac 	ands	r9, r3, ip, lsr #31

000023e0 <l2170>:
    23e0:	c02be00f 	eorgt	lr, fp, pc

000023e4 <l2171>:
    23e4:	e00c0b93 	mul	ip, r3, fp

000023e8 <l2172>:
    23e8:	b1f04007 	mvnslt	r4, r7

000023ec <l2173>:
    23ec:	e0100c95 	muls	r0, r5, ip

000023f0 <l2174>:
    23f0:	4018800f 	andsmi	r8, r8, pc

000023f4 <l2175>:
    23f4:	e01e0094 	muls	lr, r4, r0

000023f8 <l2176>:
    23f8:	702ace58 	eorvc	ip, sl, r8, asr lr

000023fc <l2177>:
    23fc:	804b2000 	subhi	r2, fp, r0

00002400 <l2178>:
    2400:	40070c9c 	mulmi	r7, ip, ip

00002404 <l2179>:
    2404:	e0481068 	sub	r1, r8, r8, rrx

00002408 <l2180>:
    2408:	e1e03e3e 	mvn	r3, lr, lsr lr

0000240c <l2181>:
    240c:	e172006e 	cmn	r2, lr, rrx

00002410 <l2182>:
    2410:	e0010496 	mul	r1, r6, r4

00002414 <l2183>:
    2414:	616f2f1a 	clzvs	r2, sl

00002418 <l2184>:
    2418:	e0329535 	eors	r9, r2, r5, lsr r5

0000241c <l2185>:
    241c:	90e40c19 	rscls	r0, r4, r9, lsl ip

00002420 <l2186>:
    2420:	e0230812 	eor	r0, r3, r2, lsl r8

00002424 <l2187>:
    2424:	e3530d1a 	cmp	r3, #1664	; 0x680

00002428 <l2188>:
    2428:	e0070490 	mul	r7, r0, r4

0000242c <l2189>:
    242c:	e1d65ce0 	bics	r5, r6, r0, ror #25

00002430 <l2190>:
    2430:	01932e79 	orrseq	r2, r3, r9, ror lr

00002434 <l2191>:
    2434:	82fb65fd 	rscshi	r6, fp, #1061158912	; 0x3f400000

00002438 <l2192>:
    2438:	b065b009 	rsblt	fp, r5, r9

0000243c <l2193>:
    243c:	b3190b49 	tstlt	r9, #74752	; 0x12400

00002440 <l2194>:
    2440:	1030c072 	eorsne	ip, r0, r2, ror r0

00002444 <l2195>:
    2444:	c033100e 	eorsgt	r1, r3, lr

00002448 <l2196>:
    2448:	e225b886 	eor	fp, r5, #8781824	; 0x860000

0000244c <l2197>:
    244c:	10710a14 	rsbsne	r0, r1, r4, lsl sl

00002450 <l2198>:
    2450:	c0871932 	addgt	r1, r7, r2, lsr r9

00002454 <l2199>:
    2454:	50166065 	andspl	r6, r6, r5, rrx

00002458 <l2200>:
    2458:	e210ed23 	ands	lr, r0, #2240	; 0x8c0

0000245c <l2201>:
    245c:	40150e90 	mulsmi	r5, r0, lr

00002460 <l2202>:
    2460:	9235e205 	eorsls	lr, r5, #1342177280	; 0x50000000

00002464 <l2203>:
    2464:	e1842675 	orr	r2, r4, r5, ror r6

00002468 <l2204>:
    2468:	e013039b 	muls	r3, fp, r3

0000246c <l2205>:
    246c:	c017b514 	andsgt	fp, r7, r4, lsl r5

00002470 <l2206>:
    2470:	30a33064 	adccc	r3, r3, r4, rrx

00002474 <l2207>:
    2474:	e38081df 	orr	r8, r0, #-1073741769	; 0xc0000037

00002478 <l2208>:
    2478:	400a0899 	mulmi	sl, r9, r8

0000247c <l2209>:
    247c:	423f2529 	eorsmi	r2, pc, #171966464	; 0xa400000

00002480 <l2210>:
    2480:	10563c8f 	subsne	r3, r6, pc, lsl #25

00002484 <l2211>:
    2484:	e0100a94 	muls	r0, r4, sl

00002488 <l2212>:
    2488:	e0209a1e 	eor	r9, r0, lr, lsl sl

0000248c <l2213>:
    248c:	e00b049c 	mul	fp, ip, r4

00002490 <l2214>:
    2490:	22faaa7b 	rscscs	sl, sl, #503808	; 0x7b000

00002494 <l2215>:
    2494:	81916068 	orrshi	r6, r1, r8, rrx

00002498 <l2216>:
    2498:	7009019a 	mulvc	r9, sl, r1

0000249c <l2217>:
    249c:	9395691f 	orrsls	r6, r5, #507904	; 0x7c000

000024a0 <l2218>:
    24a0:	51f04581 	mvnspl	r4, r1, lsl #11

000024a4 <l2219>:
    24a4:	316f5f10 	clzcc	r5, r0

000024a8 <l2220>:
    24a8:	e0269007 	eor	r9, r6, r7

000024ac <l2221>:
    24ac:	80a5a479 	adchi	sl, r5, r9, ror r4

000024b0 <l2222>:
    24b0:	5093e00f 	addspl	lr, r3, pc

000024b4 <l2223>:
    24b4:	e26be83f 	rsb	lr, fp, #4128768	; 0x3f0000

000024b8 <l2224>:
    24b8:	a0c6ae15 	sbcge	sl, r6, r5, lsl lr

000024bc <l2225>:
    24bc:	e01e0795 	muls	lr, r5, r7

000024c0 <l2226>:
    24c0:	00040e97 	muleq	r4, r7, lr

000024c4 <l2227>:
    24c4:	e00e0b9c 	mul	lr, ip, fp

000024c8 <l2228>:
    24c8:	90c16062 	sbcls	r6, r1, r2, rrx

000024cc <l2229>:
    24cc:	e0598721 	subs	r8, r9, r1, lsr #14

000024d0 <l2230>:
    24d0:	d15a000e 	cmple	sl, lr

000024d4 <l2231>:
    24d4:	826c8603 	rsbhi	r8, ip, #3145728	; 0x300000

000024d8 <l2232>:
    24d8:	300a0493 	mulcc	sl, r3, r4

000024dc <l2233>:
    24dc:	801646ae 	andshi	r4, r6, lr, lsr #13

000024e0 <l2234>:
    24e0:	81f0216f 	mvnshi	r2, pc, ror #2

000024e4 <l2235>:
    24e4:	e00e3936 	and	r3, lr, r6, lsr r9

000024e8 <l2236>:
    24e8:	e0e20f2b 	rsc	r0, r2, fp, lsr #30

000024ec <l2237>:
    24ec:	d0060e94 	mulle	r6, r4, lr

000024f0 <l2238>:
    24f0:	e06f406f 	rsb	r4, pc, pc, rrx

000024f4 <l2239>:
    24f4:	60150c94 	mulsvs	r5, r4, ip

000024f8 <l2240>:
    24f8:	20329008 	eorscs	r9, r2, r8

000024fc <l2241>:
    24fc:	101a1063 	andsne	r1, sl, r3, rrx

00002500 <l2242>:
    2500:	40140a93 	mulsmi	r4, r3, sl

00002504 <l2243>:
    2504:	30ee8062 	rsccc	r8, lr, r2, rrx

00002508 <l2244>:
    2508:	e0384005 	eors	r4, r8, r5

0000250c <l2245>:
    250c:	123443de 	eorsne	r4, r4, #2013265923	; 0x78000003

00002510 <l2246>:
    2510:	e060be8b 	rsb	fp, r0, fp, lsl #29

00002514 <l2247>:
    2514:	e0140596 	muls	r4, r6, r5

00002518 <l2248>:
    2518:	e11009af 	tst	r0, pc, lsr #19

0000251c <l2249>:
    251c:	e0170696 	muls	r7, r6, r6

00002520 <l2250>:
    2520:	e354057a 	cmp	r4, #511705088	; 0x1e800000

00002524 <l2251>:
    2524:	e005497e 	and	r4, r5, lr, ror r9

00002528 <l2252>:
    2528:	e1160b3c 	tst	r6, ip, lsr fp

0000252c <l2253>:
    252c:	30385a57 	eorscc	r5, r8, r7, asr sl

00002530 <l2254>:
    2530:	708e706c 	addvc	r7, lr, ip, rrx

00002534 <l2255>:
    2534:	e04e6836 	sub	r6, lr, r6, lsr r8

00002538 <l2256>:
    2538:	d219b0d8 	andsle	fp, r9, #216	; 0xd8

0000253c <l2257>:
    253c:	00120996 	mulseq	r2, r6, r9

00002540 <l2258>:
    2540:	e1a0700e 	mov	r7, lr

00002544 <l2259>:
    2544:	70010597 	mulvc	r1, r7, r5

00002548 <l2260>:
    2548:	00ce5b59 	sbceq	r5, lr, r9, asr fp

0000254c <l2261>:
    254c:	70100295 	mulsvc	r0, r5, r2

00002550 <l2262>:
    2550:	e022c004 	eor	ip, r2, r4

00002554 <l2263>:
    2554:	500a0e96 	mulpl	sl, r6, lr

00002558 <l2264>:
    2558:	e00e0e98 	mul	lr, r8, lr

0000255c <l2265>:
    255c:	e0096253 	and	r6, r9, r3, asr r2

00002560 <l2266>:
    2560:	e15b0060 	cmp	fp, r0, rrx

00002564 <l2267>:
    2564:	e01c0993 	muls	ip, r3, r9

00002568 <l2268>:
    2568:	e15800cb 	cmp	r8, fp, asr #1

0000256c <l2269>:
    256c:	10df2006 	sbcsne	r2, pc, r6

00002570 <l2270>:
    2570:	e19e0674 	orrs	r0, lr, r4, ror r6

00002574 <l2271>:
    2574:	e233259a 	eors	r2, r3, #645922816	; 0x26800000

00002578 <l2272>:
    2578:	e01b1830 	ands	r1, fp, r0, lsr r8

0000257c <l2273>:
    257c:	e00f400c 	and	r4, pc, ip

00002580 <l2274>:
    2580:	b0080c94 	mullt	r8, r4, ip

00002584 <l2275>:
    2584:	e0d29000 	sbcs	r9, r2, r0

00002588 <l2276>:
    2588:	e3530502 	cmp	r3, #8388608	; 0x800000

0000258c <l2277>:
    258c:	a010079e 	mulsge	r0, lr, r7

00002590 <l2278>:
    2590:	a007049e 	mulge	r7, lr, r4

00002594 <l2279>:
    2594:	e07b6006 	rsbs	r6, fp, r6

00002598 <l2280>:
    2598:	401439e9 	andsmi	r3, r4, r9, ror #19

0000259c <l2281>:
    259c:	d35f04e5 	cmple	pc, #-452984832	; 0xe5000000

000025a0 <l2282>:
    25a0:	0036c6ef 	eorseq	ip, r6, pc, ror #13

000025a4 <l2283>:
    25a4:	e15a0184 	cmp	sl, r4, lsl #3

000025a8 <l2284>:
    25a8:	e16f1f11 	clz	r1, r1

000025ac <l2285>:
    25ac:	c06a400c 	rsbgt	r4, sl, ip

000025b0 <l2286>:
    25b0:	401c0698 	mulsmi	ip, r8, r6

000025b4 <l2287>:
    25b4:	42af3361 	adcmi	r3, pc, #-2080374783	; 0x84000001

000025b8 <l2288>:
    25b8:	8215ab71 	andshi	sl, r5, #115712	; 0x1c400

000025bc <l2289>:
    25bc:	10180892 	mulsne	r8, r2, r8

000025c0 <l2290>:
    25c0:	60f1c82a 	rscsvs	ip, r1, sl, lsr #16

000025c4 <l2291>:
    25c4:	51881770 	orrpl	r1, r8, r0, ror r7

000025c8 <l2292>:
    25c8:	10d8c06f 	sbcsne	ip, r8, pc, rrx

000025cc <l2293>:
    25cc:	80112005 	andshi	r2, r1, r5

000025d0 <l2294>:
    25d0:	c01e61e8 	andsgt	r6, lr, r8, ror #3

000025d4 <l2295>:
    25d4:	a011039a 	mulsge	r1, sl, r3

000025d8 <l2296>:
    25d8:	502fc003 	eorpl	ip, pc, r3

000025dc <l2297>:
    25dc:	e2160497 	ands	r0, r6, #-1761607680	; 0x97000000

000025e0 <l2298>:
    25e0:	4150000e 	cmpmi	r0, lr

000025e4 <l2299>:
    25e4:	e0150199 	muls	r5, r9, r1

000025e8 <l2300>:
    25e8:	e0a73207 	adc	r3, r7, r7, lsl #4

000025ec <l2301>:
    25ec:	4193cb71 	orrsmi	ip, r3, r1, ror fp

000025f0 <l2302>:
    25f0:	90050894 	mulls	r5, r4, r8

000025f4 <l2303>:
    25f4:	40979da0 	addsmi	r9, r7, r0, lsr #27

000025f8 <l2304>:
    25f8:	e240a9b2 	sub	sl, r0, #2916352	; 0x2c8000

000025fc <l2305>:
    25fc:	402ae008 	eormi	lr, sl, r8

00002600 <l2306>:
    2600:	e00a099e 	mul	sl, lr, r9

00002604 <l2307>:
    2604:	40080790 	mulmi	r8, r0, r7

00002608 <l2308>:
    2608:	5001039a 	mulpl	r1, sl, r3

0000260c <l2309>:
    260c:	e2092956 	and	r2, r9, #1409024	; 0x158000

00002610 <l2310>:
    2610:	41922066 	orrsmi	r2, r2, r6, rrx

00002614 <l2311>:
    2614:	4043675c 	submi	r6, r3, ip, asr r7

00002618 <l2312>:
    2618:	e0161be5 	ands	r1, r6, r5, ror #23

0000261c <l2313>:
    261c:	70137002 	andsvc	r7, r3, r2

00002620 <l2314>:
    2620:	40201416 	eormi	r1, r0, r6, lsl r4

00002624 <l2315>:
    2624:	e038a00e 	eors	sl, r8, lr

00002628 <l2316>:
    2628:	a0150a91 	mulsge	r5, r1, sl

0000262c <l2317>:
    262c:	e264c409 	rsb	ip, r4, #150994944	; 0x9000000

00002630 <l2318>:
    2630:	e0170b92 	muls	r7, r2, fp

00002634 <l2319>:
    2634:	00030092 	muleq	r3, r2, r0

00002638 <l2320>:
    2638:	e01a0a91 	muls	sl, r1, sl

0000263c <l2321>:
    263c:	e0090497 	mul	r9, r7, r4

00002640 <l2322>:
    2640:	e0137067 	ands	r7, r3, r7, rrx

00002644 <l2323>:
    2644:	e31f0c9a 	tst	pc, #39424	; 0x9a00

00002648 <l2324>:
    2648:	e23ec7fb 	eors	ip, lr, #65798144	; 0x3ec0000

0000264c <l2325>:
    264c:	e0070498 	mul	r7, r8, r4

00002650 <l2326>:
    2650:	e1a01060 	rrx	r1, r0

00002654 <l2327>:
    2654:	60110594 	mulsvs	r1, r4, r5

00002658 <l2328>:
    2658:	31b0300b 	movscc	r3, fp

0000265c <l2329>:
    265c:	e0297944 	eor	r7, r9, r4, asr #18

00002660 <l2330>:
    2660:	e005039a 	mul	r5, sl, r3

00002664 <l2331>:
    2664:	938088ca 	orrls	r8, r0, #13238272	; 0xca0000

00002668 <l2332>:
    2668:	e1951006 	orrs	r1, r5, r6

0000266c <l2333>:
    266c:	e1893009 	orr	r3, r9, r9

00002670 <l2334>:
    2670:	e01fc001 	ands	ip, pc, r1

00002674 <l2335>:
    2674:	900a039b 	mulls	sl, fp, r3

00002678 <l2336>:
    2678:	b19a400b 	orrslt	r4, sl, fp

0000267c <l2337>:
    267c:	20647283 	rsbcs	r7, r4, r3, lsl #5

00002680 <l2338>:
    2680:	70170007 	andsvc	r0, r7, r7

00002684 <l2339>:
    2684:	40130496 	mulsmi	r3, r6, r4

00002688 <l2340>:
    2688:	10087843 	andne	r7, r8, r3, asr #16

0000268c <l2341>:
    268c:	e026c065 	eor	ip, r6, r5, rrx

00002690 <l2342>:
    2690:	61f0b00e 	mvnsvs	fp, lr

00002694 <l2343>:
    2694:	e16fbf1a 	clz	fp, sl

00002698 <l2344>:
    2698:	e005c717 	and	ip, r5, r7, lsl r7

0000269c <l2345>:
    269c:	e0216837 	eor	r6, r1, r7, lsr r8

000026a0 <l2346>:
    26a0:	31a0a8a6 	lsrcc	sl, r6, #17

000026a4 <l2347>:
    26a4:	e02aea80 	eor	lr, sl, r0, lsl #21

000026a8 <l2348>:
    26a8:	c3828d33 	orrgt	r8, r2, #3264	; 0xcc0

000026ac <l2349>:
    26ac:	8012059c 	mulshi	r2, ip, r5

000026b0 <l2350>:
    26b0:	b004000c 	andlt	r0, r4, ip

000026b4 <l2351>:
    26b4:	e005c964 	and	ip, r5, r4, ror #18

000026b8 <l2352>:
    26b8:	e05aa277 	subs	sl, sl, r7, ror r2

000026bc <l2353>:
    26bc:	82203929 	eorhi	r3, r0, #671744	; 0xa4000

000026c0 <l2354>:
    26c0:	e1d01370 	bics	r1, r0, r0, ror r3

000026c4 <l2355>:
    26c4:	e09ca839 	adds	sl, ip, r9, lsr r8

000026c8 <l2356>:
    26c8:	e2429d32 	sub	r9, r2, #3200	; 0xc80

000026cc <l2357>:
    26cc:	6016099e 	mulsvs	r6, lr, r9

000026d0 <l2358>:
    26d0:	a1d08004 	bicsge	r8, r0, r4

000026d4 <l2359>:
    26d4:	e0080399 	mul	r8, r9, r3

000026d8 <l2360>:
    26d8:	c0130890 	mulsgt	r3, r0, r8

000026dc <l2361>:
    26dc:	e1873900 	orr	r3, r7, r0, lsl #18

000026e0 <l2362>:
    26e0:	d00b0298 	mulle	fp, r8, r2

000026e4 <l2363>:
    26e4:	e00c0792 	mul	ip, r2, r7

000026e8 <l2364>:
    26e8:	601b775b 	andsvs	r7, fp, fp, asr r7

000026ec <l2365>:
    26ec:	e0c31009 	sbc	r1, r3, r9

000026f0 <l2366>:
    26f0:	716f3f19 	clzvc	r3, r9

000026f4 <l2367>:
    26f4:	00002003 	andeq	r2, r0, r3

000026f8 <l2368>:
    26f8:	e180922b 	orr	r9, r0, fp, lsr #4

000026fc <l2369>:
    26fc:	d01aa06f 	andsle	sl, sl, pc, rrx

00002700 <l2370>:
    2700:	d02864e2 	eorle	r6, r8, r2, ror #9

00002704 <l2371>:
    2704:	e285c52e 	add	ip, r5, #192937984	; 0xb800000

00002708 <l2372>:
    2708:	d0110293 	mulsle	r1, r3, r2

0000270c <l2373>:
    270c:	121e2802 	andsne	r2, lr, #131072	; 0x20000

00002710 <l2374>:
    2710:	e3100c89 	tst	r0, #35072	; 0x8900

00002714 <l2375>:
    2714:	00046000 	andeq	r6, r4, r0

00002718 <l2376>:
    2718:	e0180595 	muls	r8, r5, r5

0000271c <l2377>:
    271c:	e014009b 	muls	r4, fp, r0

00002720 <l2378>:
    2720:	5198706f 	orrspl	r7, r8, pc, rrx

00002724 <l2379>:
    2724:	c02c0c7a 	eorgt	r0, ip, sl, ror ip

00002728 <l2380>:
    2728:	d35f0a87 	cmple	pc, #552960	; 0x87000

0000272c <l2381>:
    272c:	e001029e 	mul	r1, lr, r2

00002730 <l2382>:
    2730:	7200caa2 	andvc	ip, r0, #663552	; 0xa2000

00002734 <l2383>:
    2734:	50080999 	mulpl	r8, r9, r9

00002738 <l2384>:
    2738:	d1b0400e 	movsle	r4, lr

0000273c <l2385>:
    273c:	502f9067 	eorpl	r9, pc, r7, rrx

00002740 <l2386>:
    2740:	800b089a 	mulhi	fp, sl, r8

00002744 <l2387>:
    2744:	e223070f 	eor	r0, r3, #3932160	; 0x3c0000

00002748 <l2388>:
    2748:	701bc529 	andsvc	ip, fp, r9, lsr #10

0000274c <l2389>:
    274c:	6050afe6 	subsvs	sl, r0, r6, ror #31

00002750 <l2390>:
    2750:	71500a11 	cmpvc	r0, r1, lsl sl

00002754 <l2391>:
    2754:	7191a00f 	orrsvc	sl, r1, pc

00002758 <l2392>:
    2758:	e1300262 	teq	r0, r2, ror #4

0000275c <l2393>:
    275c:	e09f2003 	adds	r2, pc, r3

00002760 <l2394>:
    2760:	901c0a92 	mulsls	ip, r2, sl

00002764 <l2395>:
    2764:	4003089a 	mulmi	r3, sl, r8

00002768 <l2396>:
    2768:	e3510090 	cmp	r1, #144	; 0x90

0000276c <l2397>:
    276c:	41927978 	orrsmi	r7, r2, r8, ror r9

00002770 <l2398>:
    2770:	e22f7653 	eor	r7, pc, #87031808	; 0x5300000

00002774 <l2399>:
    2774:	001b0c9c 	mulseq	fp, ip, ip

00002778 <l2400>:
    2778:	20546d64 	subscs	r6, r4, r4, ror #26

0000277c <l2401>:
    277c:	e02b9da8 	eor	r9, fp, r8, lsr #27

00002780 <l2402>:
    2780:	e006049b 	mul	r6, fp, r4

00002784 <l2403>:
    2784:	3011069b 	mulscc	r1, fp, r6

00002788 <l2404>:
    2788:	e01f3008 	ands	r3, pc, r8

0000278c <l2405>:
    278c:	e194654f 	orrs	r6, r4, pc, asr #10

00002790 <l2406>:
    2790:	00140599 	mulseq	r4, r9, r5

00002794 <l2407>:
    2794:	6032a009 	eorsvs	sl, r2, r9

00002798 <l2408>:
    2798:	e012099e 	muls	r2, lr, r9

0000279c <l2409>:
    279c:	c1350579 	teqgt	r5, r9, ror r5

000027a0 <l2410>:
    27a0:	703f6008 	eorsvc	r6, pc, r8

000027a4 <l2411>:
    27a4:	01e04004 	mvneq	r4, r4

000027a8 <l2412>:
    27a8:	908c8137 	addls	r8, ip, r7, lsr r1

000027ac <l2413>:
    27ac:	000c0497 	muleq	ip, r7, r4

000027b0 <l2414>:
    27b0:	e06bb164 	rsb	fp, fp, r4, ror #2

000027b4 <l2415>:
    27b4:	e2b36525 	adcs	r6, r3, #155189248	; 0x9400000

000027b8 <l2416>:
    27b8:	d011039a 	mulsle	r1, sl, r3

000027bc <l2417>:
    27bc:	e0ee2dac 	rsc	r2, lr, ip, lsr #27

000027c0 <l2418>:
    27c0:	e0110b9e 	muls	r1, lr, fp

000027c4 <l2419>:
    27c4:	e0200066 	eor	r0, r0, r6, rrx

000027c8 <l2420>:
    27c8:	e00e0c9c 	mul	lr, ip, ip

000027cc <l2421>:
    27cc:	4181906e 	orrmi	r9, r1, lr, rrx

000027d0 <l2422>:
    27d0:	4013089e 	mulsmi	r3, lr, r8

000027d4 <l2423>:
    27d4:	201b0696 	mulscs	fp, r6, r6

000027d8 <l2424>:
    27d8:	b007069e 	mullt	r7, lr, r6

000027dc <l2425>:
    27dc:	807c5866 	rsbshi	r5, ip, r6, ror #16

000027e0 <l2426>:
    27e0:	116f3f16 	clzne	r3, r6

000027e4 <l2427>:
    27e4:	e00b0891 	mul	fp, r1, r8

000027e8 <l2428>:
    27e8:	00e72067 	rsceq	r2, r7, r7, rrx

000027ec <l2429>:
    27ec:	e019b957 	ands	fp, r9, r7, asr r9

000027f0 <l2430>:
    27f0:	e18ba465 	orr	sl, fp, r5, ror #8

000027f4 <l2431>:
    27f4:	e0117069 	ands	r7, r1, r9, rrx

000027f8 <l2432>:
    27f8:	703cc641 	eorsvc	ip, ip, r1, asr #12

000027fc <l2433>:
    27fc:	e0190e9a 	muls	r9, sl, lr

00002800 <l2434>:
    2800:	200c0497 	mulcs	ip, r7, r4

00002804 <l2435>:
    2804:	e0b12743 	adcs	r2, r1, r3, asr #14

00002808 <l2436>:
    2808:	00110e99 	mulseq	r1, r9, lr

0000280c <l2437>:
    280c:	c3320fe5 	teqgt	r2, #916	; 0x394

00002810 <l2438>:
    2810:	e0365c13 	eors	r5, r6, r3, lsl ip

00002814 <l2439>:
    2814:	50070e90 	mulpl	r7, r0, lr

00002818 <l2440>:
    2818:	c1961060 	orrsgt	r1, r6, r0, rrx

0000281c <l2441>:
    281c:	00ec8780 	rsceq	r8, ip, r0, lsl #15

00002820 <l2442>:
    2820:	e0150494 	muls	r5, r4, r4

00002824 <l2443>:
    2824:	0230a0a0 	eorseq	sl, r0, #160	; 0xa0

00002828 <l2444>:
    2828:	e31e0586 	tst	lr, #562036736	; 0x21800000

0000282c <l2445>:
    282c:	e1b01005 	movs	r1, r5

00002830 <l2446>:
    2830:	b1e0300f 	mvnlt	r3, pc

00002834 <l2447>:
    2834:	a0170793 	mulsge	r7, r3, r7

00002838 <l2448>:
    2838:	d01c0393 	mulsle	ip, r3, r3

0000283c <l2449>:
    283c:	80180992 	mulshi	r8, r2, r9

00002840 <l2450>:
    2840:	10180a97 	mulsne	r8, r7, sl

00002844 <l2451>:
    2844:	c1b0c009 	movsgt	ip, r9

00002848 <l2452>:
    2848:	e39773fb 	orrs	r7, r7, #-335544317	; 0xec000003

0000284c <l2453>:
    284c:	200a0791 	mulcs	sl, r1, r7

00002850 <l2454>:
    2850:	8182730f 	orrhi	r7, r2, pc, lsl #6

00002854 <l2455>:
    2854:	b03b5581 	eorslt	r5, fp, r1, lsl #11

00002858 <l2456>:
    2858:	50566851 	subspl	r6, r6, r1, asr r8

0000285c <l2457>:
    285c:	e00b0190 	mul	fp, r0, r1

00002860 <l2458>:
    2860:	e2f0a060 	rscs	sl, r0, #96	; 0x60

00002864 <l2459>:
    2864:	70206001 	eorvc	r6, r0, r1

00002868 <l2460>:
    2868:	a0180499 	mulsge	r8, r9, r4

0000286c <l2461>:
    286c:	e0190896 	muls	r9, r6, r8

00002870 <l2462>:
    2870:	e0b06064 	adcs	r6, r0, r4, rrx

00002874 <l2463>:
    2874:	111b0f85 	tstne	fp, r5, lsl #31

00002878 <l2464>:
    2878:	d00fab45 	andle	sl, pc, r5, asr #22

0000287c <l2465>:
    287c:	c1550186 	cmpgt	r5, r6, lsl #3

00002880 <l2466>:
    2880:	818a9005 	orrhi	r9, sl, r5

00002884 <l2467>:
    2884:	62030592 	andvs	r0, r3, #612368384	; 0x24800000

00002888 <l2468>:
    2888:	500a0e9c 	mulpl	sl, ip, lr

0000288c <l2469>:
    288c:	80946000 	addshi	r6, r4, r0

00002890 <l2470>:
    2890:	316f9f11 	clzcc	r9, r1

00002894 <l2471>:
    2894:	e01b0290 	muls	fp, r0, r2

00002898 <l2472>:
    2898:	e005029a 	mul	r5, sl, r2

0000289c <l2473>:
    289c:	e1520875 	cmp	r2, r5, ror r8

000028a0 <l2474>:
    28a0:	c2430209 	subgt	r0, r3, #-1879048192	; 0x90000000

000028a4 <l2475>:
    28a4:	70070e98 	mulvc	r7, r8, lr

000028a8 <l2476>:
    28a8:	60070c9b 	mulvs	r7, fp, ip

000028ac <l2477>:
    28ac:	c0670e69 	rsbgt	r0, r7, r9, ror #28

000028b0 <l2478>:
    28b0:	e1b0683b 	lsrs	r6, fp, r8

000028b4 <l2479>:
    28b4:	91a01f85 	lslls	r1, r5, #31

000028b8 <l2480>:
    28b8:	e0000297 	mul	r0, r7, r2

000028bc <l2481>:
    28bc:	e24e426f 	sub	r4, lr, #-268435450	; 0xf0000006

000028c0 <l2482>:
    28c0:	e182c60e 	orr	ip, r2, lr, lsl #12

000028c4 <l2483>:
    28c4:	e1926003 	orrs	r6, r2, r3

000028c8 <l2484>:
    28c8:	12223146 	eorne	r3, r2, #-2147483631	; 0x80000011

000028cc <l2485>:
    28cc:	e0110b9a 	muls	r1, sl, fp

000028d0 <l2486>:
    28d0:	9185c550 	orrls	ip, r5, r0, asr r5

000028d4 <l2487>:
    28d4:	b0040a9c 	mullt	r4, ip, sl

000028d8 <l2488>:
    28d8:	e23f847e 	eors	r8, pc, #2113929216	; 0x7e000000

000028dc <l2489>:
    28dc:	e013ab32 	ands	sl, r3, r2, lsr fp

000028e0 <l2490>:
    28e0:	d3825aed 	orrle	r5, r2, #970752	; 0xed000

000028e4 <l2491>:
    28e4:	e195000c 	orrs	r0, r5, ip

000028e8 <l2492>:
    28e8:	e16f7f1e 	clz	r7, lr

000028ec <l2493>:
    28ec:	e1846c3a 	orr	r6, r4, sl, lsr ip

000028f0 <l2494>:
    28f0:	60160c94 	mulsvs	r6, r4, ip

000028f4 <l2495>:
    28f4:	a0072c1b 	andge	r2, r7, fp, lsl ip

000028f8 <l2496>:
    28f8:	c2041281 	andgt	r1, r4, #268435464	; 0x10000008

000028fc <l2497>:
    28fc:	0177023b 	cmneq	r7, fp, lsr r2

00002900 <l2498>:
    2900:	e003029e 	mul	r3, lr, r2

00002904 <l2499>:
    2904:	121f1411 	andsne	r1, pc, #285212672	; 0x11000000

00002908 <l2500>:
    2908:	c0090397 	mulgt	r9, r7, r3

0000290c <l2501>:
    290c:	50040b9e 	mulpl	r4, lr, fp

00002910 <l2502>:
    2910:	60120296 	mulsvs	r2, r6, r2

00002914 <l2503>:
    2914:	00e83062 	rsceq	r3, r8, r2, rrx

00002918 <l2504>:
    2918:	e003069c 	mul	r3, ip, r6

0000291c <l2505>:
    291c:	e0112009 	ands	r2, r1, r9

00002920 <l2506>:
    2920:	531e0bc9 	tstpl	lr, #205824	; 0x32400

00002924 <l2507>:
    2924:	518fcf47 	orrpl	ip, pc, r7, asr #30

00002928 <l2508>:
    2928:	3018019c 	mulscc	r8, ip, r1

0000292c <l2509>:
    292c:	e208a3d7 	and	sl, r8, #1543503875	; 0x5c000003

00002930 <l2510>:
    2930:	e0160092 	muls	r6, r2, r0

00002934 <l2511>:
    2934:	e036af82 	eors	sl, r6, r2, lsl #31

00002938 <l2512>:
    2938:	32f18721 	rscscc	r8, r1, #8650752	; 0x840000

0000293c <l2513>:
    293c:	e0396131 	eors	r6, r9, r1, lsr r1

00002940 <l2514>:
    2940:	d020e004 	eorle	lr, r0, r4

00002944 <l2515>:
    2944:	e04a0060 	sub	r0, sl, r0, rrx

00002948 <l2516>:
    2948:	10190a91 	mulsne	r9, r1, sl

0000294c <l2517>:
    294c:	a01a0a93 	mulsge	sl, r3, sl

00002950 <l2518>:
    2950:	e2742609 	rsbs	r2, r4, #9437184	; 0x900000

00002954 <l2519>:
    2954:	4013099a 	mulsmi	r3, sl, r9

00002958 <l2520>:
    2958:	915e0276 	cmpls	lr, r6, ror r2

0000295c <l2521>:
    295c:	a01c0995 	mulsge	ip, r5, r9

00002960 <l2522>:
    2960:	d01b0396 	mulsle	fp, r6, r3

00002964 <l2523>:
    2964:	e00561ec 	and	r6, r5, ip, ror #3

00002968 <l2524>:
    2968:	c0070695 	mulgt	r7, r5, r6

0000296c <l2525>:
    296c:	e0016001 	and	r6, r1, r1

00002970 <l2526>:
    2970:	9213c26b 	andsls	ip, r3, #-1342177274	; 0xb0000006

00002974 <l2527>:
    2974:	800c059a 	mulhi	ip, sl, r5

00002978 <l2528>:
    2978:	e00311c4 	and	r1, r3, r4, asr #3

0000297c <l2529>:
    297c:	00020394 	muleq	r2, r4, r3

00002980 <l2530>:
    2980:	e03c1066 	eors	r1, ip, r6, rrx

00002984 <l2531>:
    2984:	e0270000 	eor	r0, r7, r0

00002988 <l2532>:
    2988:	30927009 	addscc	r7, r2, r9

0000298c <l2533>:
    298c:	30130b9a 	mulscc	r3, sl, fp

00002990 <l2534>:
    2990:	105f9cef 	subsne	r9, pc, pc, ror #25

00002994 <l2535>:
    2994:	e29b87e2 	adds	r8, fp, #59244544	; 0x3880000

00002998 <l2536>:
    2998:	222fb89a 	eorcs	fp, pc, #10092544	; 0x9a0000

0000299c <l2537>:
    299c:	0185c008 	orreq	ip, r5, r8

000029a0 <l2538>:
    29a0:	e02c7808 	eor	r7, ip, r8, lsl #16

000029a4 <l2539>:
    29a4:	70110b9a 	mulsvc	r1, sl, fp

000029a8 <l2540>:
    29a8:	20448935 	subcs	r8, r4, r5, lsr r9

000029ac <l2541>:
    29ac:	e01c0698 	muls	ip, r8, r6

000029b0 <l2542>:
    29b0:	e0c19008 	sbc	r9, r1, r8

000029b4 <l2543>:
    29b4:	e0040992 	mul	r4, r2, r9

000029b8 <l2544>:
    29b8:	e0343060 	eors	r3, r4, r0, rrx

000029bc <l2545>:
    29bc:	519c700f 	orrspl	r7, ip, pc

000029c0 <l2546>:
    29c0:	d0d3e068 	sbcsle	lr, r3, r8, rrx

000029c4 <l2547>:
    29c4:	c3a08a1a 	movgt	r8, #106496	; 0x1a000

000029c8 <l2548>:
    29c8:	e1a08a75 	ror	r8, r5, sl

000029cc <l2549>:
    29cc:	e015069c 	muls	r5, ip, r6

000029d0 <l2550>:
    29d0:	e1da9e64 	bics	r9, sl, r4, ror #28

000029d4 <l2551>:
    29d4:	e0343b1e 	eors	r3, r4, lr, lsl fp

000029d8 <l2552>:
    29d8:	b1e02752 	mvnlt	r2, r2, asr r7

000029dc <l2553>:
    29dc:	402b1006 	eormi	r1, fp, r6

000029e0 <l2554>:
    29e0:	60120394 	mulsvs	r2, r4, r3

000029e4 <l2555>:
    29e4:	02355515 	eorseq	r5, r5, #88080384	; 0x5400000

000029e8 <l2556>:
    29e8:	118bb001 	orrne	fp, fp, r1

000029ec <l2557>:
    29ec:	e0856322 	add	r6, r5, r2, lsr #6

000029f0 <l2558>:
    29f0:	90150791 	mulsls	r5, r1, r7

000029f4 <l2559>:
    29f4:	21b0caa3 	lsrscs	ip, r3, #21

000029f8 <l2560>:
    29f8:	6031757a 	eorsvs	r7, r1, sl, ror r5

000029fc <l2561>:
    29fc:	e00b0e9c 	mul	fp, ip, lr

00002a00 <l2562>:
    2a00:	e1ce9001 	bic	r9, lr, r1

00002a04 <l2563>:
    2a04:	e0100294 	muls	r0, r4, r2

00002a08 <l2564>:
    2a08:	e233acfa 	eors	sl, r3, #64000	; 0xfa00

00002a0c <l2565>:
    2a0c:	30080794 	mulcc	r8, r4, r7

00002a10 <l2566>:
    2a10:	e08aaf8f 	add	sl, sl, pc, lsl #31

00002a14 <l2567>:
    2a14:	a054283c 	subsge	r2, r4, ip, lsr r8

00002a18 <l2568>:
    2a18:	e2e70e72 	rsc	r0, r7, #1824	; 0x720

00002a1c <l2569>:
    2a1c:	e00a1002 	and	r1, sl, r2

00002a20 <l2570>:
    2a20:	b1190217 	tstlt	r9, r7, lsl r2

00002a24 <l2571>:
    2a24:	e2281aad 	eor	r1, r8, #708608	; 0xad000

00002a28 <l2572>:
    2a28:	e006079a 	mul	r6, sl, r7

00002a2c <l2573>:
    2a2c:	91939fa8 	orrsls	r9, r3, r8, lsr #31

00002a30 <l2574>:
    2a30:	60070c98 	mulvs	r7, r8, ip

00002a34 <l2575>:
    2a34:	e00c0798 	mul	ip, r8, r7

00002a38 <l2576>:
    2a38:	70080896 	mulvc	r8, r6, r8

00002a3c <l2577>:
    2a3c:	619e2728 	orrsvs	r2, lr, r8, lsr #14

00002a40 <l2578>:
    2a40:	e29586af 	adds	r8, r5, #183500800	; 0xaf00000

00002a44 <l2579>:
    2a44:	900c2a11 	andls	r2, ip, r1, lsl sl

00002a48 <l2580>:
    2a48:	60188009 	andsvs	r8, r8, r9

00002a4c <l2581>:
    2a4c:	50190091 	mulspl	r9, r1, r0

00002a50 <l2582>:
    2a50:	e21b724a 	ands	r7, fp, #-1610612732	; 0xa0000004

00002a54 <l2583>:
    2a54:	b16fcf15 	clzlt	ip, r5

00002a58 <l2584>:
    2a58:	601b0590 	mulsvs	fp, r0, r5

00002a5c <l2585>:
    2a5c:	a045a06c 	subge	sl, r5, ip, rrx

00002a60 <l2586>:
    2a60:	e130071b 	teq	r0, fp, lsl r7

00002a64 <l2587>:
    2a64:	60049069 	andvs	r9, r4, r9, rrx

00002a68 <l2588>:
    2a68:	80150290 	mulshi	r5, r0, r2

00002a6c <l2589>:
    2a6c:	e012019b 	muls	r2, fp, r1

00002a70 <l2590>:
    2a70:	e00e0094 	mul	lr, r4, r0

00002a74 <l2591>:
    2a74:	e0080996 	mul	r8, r6, r9

00002a78 <l2592>:
    2a78:	61819959 	orrvs	r9, r1, r9, asr r9

00002a7c <l2593>:
    2a7c:	20020490 	mulcs	r2, r0, r4

00002a80 <l2594>:
    2a80:	2026b650 	eorcs	fp, r6, r0, asr r6

00002a84 <l2595>:
    2a84:	707ce005 	rsbsvc	lr, ip, r5

00002a88 <l2596>:
    2a88:	303c643c 	eorscc	r6, ip, ip, lsr r4

00002a8c <l2597>:
    2a8c:	101c069e 	mulsne	ip, lr, r6

00002a90 <l2598>:
    2a90:	e03eca7e 	eors	ip, lr, lr, ror sl

00002a94 <l2599>:
    2a94:	60100596 	mulsvs	r0, r6, r5

00002a98 <l2600>:
    2a98:	e0333006 	eors	r3, r3, r6

00002a9c <l2601>:
    2a9c:	e2b6641e 	adcs	r6, r6, #503316480	; 0x1e000000

00002aa0 <l2602>:
    2aa0:	e201902b 	and	r9, r1, #43	; 0x2b

00002aa4 <l2603>:
    2aa4:	e1380064 	teq	r8, r4, rrx

00002aa8 <l2604>:
    2aa8:	90f6a440 	rscsls	sl, r6, r0, asr #8

00002aac <l2605>:
    2aac:	a1390064 	teqge	r9, r4, rrx

00002ab0 <l2606>:
    2ab0:	e11a000c 	tst	sl, ip

00002ab4 <l2607>:
    2ab4:	e0140e91 	muls	r4, r1, lr

00002ab8 <l2608>:
    2ab8:	116faf1c 	clzne	sl, ip

00002abc <l2609>:
    2abc:	c0150a97 	mulsgt	r5, r7, sl

00002ac0 <l2610>:
    2ac0:	e35b0f89 	cmp	fp, #548	; 0x224

00002ac4 <l2611>:
    2ac4:	4000009c 	mulmi	r0, ip, r0

00002ac8 <l2612>:
    2ac8:	93c127c2 	bicls	r2, r1, #50855936	; 0x3080000

00002acc <l2613>:
    2acc:	13770c2a 	cmnne	r7, #10752	; 0x2a00

00002ad0 <l2614>:
    2ad0:	e229c5ea 	eor	ip, r9, #981467136	; 0x3a800000

00002ad4 <l2615>:
    2ad4:	d01aa73e 	andsle	sl, sl, lr, lsr r7

00002ad8 <l2616>:
    2ad8:	c00c0191 	mulgt	ip, r1, r1

00002adc <l2617>:
    2adc:	b009019e 	mullt	r9, lr, r1

00002ae0 <l2618>:
    2ae0:	e01b0998 	muls	fp, r8, r9

00002ae4 <l2619>:
    2ae4:	901c0c99 	mulsls	ip, r9, ip

00002ae8 <l2620>:
    2ae8:	e0d8c06f 	sbcs	ip, r8, pc, rrx

00002aec <l2621>:
    2aec:	401e0c94 	mulsmi	lr, r4, ip

00002af0 <l2622>:
    2af0:	e0190998 	muls	r9, r8, r9

00002af4 <l2623>:
    2af4:	e012099b 	muls	r2, fp, r9

00002af8 <l2624>:
    2af8:	e01c039e 	muls	ip, lr, r3

00002afc <l2625>:
    2afc:	e391c275 	orrs	ip, r1, #1342177287	; 0x50000007

00002b00 <l2626>:
    2b00:	501a0592 	mulspl	sl, r2, r5

00002b04 <l2627>:
    2b04:	a01a049c 	mulsge	sl, ip, r4

00002b08 <l2628>:
    2b08:	e21bb1b2 	ands	fp, fp, #-2147483604	; 0x8000002c

00002b0c <l2629>:
    2b0c:	20070794 	mulcs	r7, r4, r7

00002b10 <l2630>:
    2b10:	e017b067 	ands	fp, r7, r7, rrx

00002b14 <l2631>:
    2b14:	e005e747 	and	lr, r5, r7, asr #14

00002b18 <l2632>:
    2b18:	31a0756f 	rorcc	r7, pc, #10

00002b1c <l2633>:
    2b1c:	b0090e93 	mullt	r9, r3, lr

00002b20 <l2634>:
    2b20:	e35a0611 	cmp	sl, #17825792	; 0x1100000

00002b24 <l2635>:
    2b24:	20170b94 	mulscs	r7, r4, fp

00002b28 <l2636>:
    2b28:	5029c418 	eorpl	ip, r9, r8, lsl r4

00002b2c <l2637>:
    2b2c:	e0c09062 	sbc	r9, r0, r2, rrx

00002b30 <l2638>:
    2b30:	e0140398 	muls	r4, r8, r3

00002b34 <l2639>:
    2b34:	50c13009 	sbcpl	r3, r1, r9

00002b38 <l2640>:
    2b38:	a010029c 	mulsge	r0, ip, r2

00002b3c <l2641>:
    2b3c:	519a9251 	orrspl	r9, sl, r1, asr r2

00002b40 <l2642>:
    2b40:	e012039e 	muls	r2, lr, r3

00002b44 <l2643>:
    2b44:	216faf1b 	clzcs	sl, fp

00002b48 <l2644>:
    2b48:	e01c029a 	muls	ip, sl, r2

00002b4c <l2645>:
    2b4c:	e0010692 	mul	r1, r2, r6

00002b50 <l2646>:
    2b50:	e00a0493 	mul	sl, r3, r4

00002b54 <l2647>:
    2b54:	e02c2b3c 	eor	r2, ip, ip, lsr fp

00002b58 <l2648>:
    2b58:	13c96d1a 	bicne	r6, r9, #1664	; 0x680

00002b5c <l2649>:
    2b5c:	e210257e 	ands	r2, r0, #528482304	; 0x1f800000

00002b60 <l2650>:
    2b60:	e0050291 	mul	r5, r1, r2

00002b64 <l2651>:
    2b64:	301e009a 	mulscc	lr, sl, r0

00002b68 <l2652>:
    2b68:	e1f0bdc1 	mvns	fp, r1, asr #27

00002b6c <l2653>:
    2b6c:	811a0def 	tsthi	sl, pc, ror #27

00002b70 <l2654>:
    2b70:	e220e569 	eor	lr, r0, #440401920	; 0x1a400000

00002b74 <l2655>:
    2b74:	3397907b 	orrscc	r9, r7, #123	; 0x7b

00002b78 <l2656>:
    2b78:	e13b0008 	teq	fp, r8

00002b7c <l2657>:
    2b7c:	e380b4bf 	orr	fp, r0, #-1090519040	; 0xbf000000

00002b80 <l2658>:
    2b80:	b023bb0e 	eorlt	fp, r3, lr, lsl #22

00002b84 <l2659>:
    2b84:	e01b3065 	ands	r3, fp, r5, rrx

00002b88 <l2660>:
    2b88:	e0558254 	subs	r8, r5, r4, asr r2

00002b8c <l2661>:
    2b8c:	71540000 	cmpvc	r4, r0

00002b90 <l2662>:
    2b90:	e2c7c939 	sbc	ip, r7, #933888	; 0xe4000

00002b94 <l2663>:
    2b94:	d152000c 	cmple	r2, ip

00002b98 <l2664>:
    2b98:	d00e0199 	mulle	lr, r9, r1

00002b9c <l2665>:
    2b9c:	40010a98 	mulmi	r1, r8, sl

00002ba0 <l2666>:
    2ba0:	10150b91 	mulsne	r5, r1, fp

00002ba4 <l2667>:
    2ba4:	e20f3a0a 	and	r3, pc, #40960	; 0xa000

00002ba8 <l2668>:
    2ba8:	e0100c99 	muls	r0, r9, ip

00002bac <l2669>:
    2bac:	201a019e 	mulscs	sl, lr, r1

00002bb0 <l2670>:
    2bb0:	901c0798 	mulsls	ip, r8, r7

00002bb4 <l2671>:
    2bb4:	600a0498 	mulvs	sl, r8, r4

00002bb8 <l2672>:
    2bb8:	61e05c6a 	mvnvs	r5, sl, ror #24

00002bbc <l2673>:
    2bbc:	20080b90 	mulcs	r8, r0, fp

00002bc0 <l2674>:
    2bc0:	e011e030 	ands	lr, r1, r0, lsr r0

00002bc4 <l2675>:
    2bc4:	e00b0393 	mul	fp, r3, r3

00002bc8 <l2676>:
    2bc8:	b0070694 	mullt	r7, r4, r6

00002bcc <l2677>:
    2bcc:	e0021a56 	and	r1, r2, r6, asr sl

00002bd0 <l2678>:
    2bd0:	8035900b 	eorshi	r9, r5, fp

00002bd4 <l2679>:
    2bd4:	e0130c99 	muls	r3, r9, ip

00002bd8 <l2680>:
    2bd8:	63cf2d9a 	bicvs	r2, pc, #9856	; 0x2680

00002bdc <l2681>:
    2bdc:	83835028 	orrhi	r5, r3, #40	; 0x28

00002be0 <l2682>:
    2be0:	31d25217 	bicscc	r5, r2, r7, lsl r2

00002be4 <l2683>:
    2be4:	e2010b99 	and	r0, r1, #156672	; 0x26400

00002be8 <l2684>:
    2be8:	b01e069c 	mulslt	lr, ip, r6

00002bec <l2685>:
    2bec:	e0608008 	rsb	r8, r0, r8

00002bf0 <l2686>:
    2bf0:	e00b0097 	mul	fp, r7, r0

00002bf4 <l2687>:
    2bf4:	e24f7ce2 	sub	r7, pc, #57856	; 0xe200

00002bf8 <l2688>:
    2bf8:	e0060793 	mul	r6, r3, r7

00002bfc <l2689>:
    2bfc:	e0110195 	muls	r1, r5, r1

00002c00 <l2690>:
    2c00:	2206e2b5 	andcs	lr, r6, #1342177291	; 0x5000000b

00002c04 <l2691>:
    2c04:	101b0897 	mulsne	fp, r7, r8

00002c08 <l2692>:
    2c08:	e0020593 	mul	r2, r3, r5

00002c0c <l2693>:
    2c0c:	b0140090 	mulslt	r4, r0, r0

00002c10 <l2694>:
    2c10:	e395483e 	orrs	r4, r5, #4063232	; 0x3e0000

00002c14 <l2695>:
    2c14:	80130b95 	mulshi	r3, r5, fp

00002c18 <l2696>:
    2c18:	5242bcfd 	subpl	fp, r2, #64768	; 0xfd00

00002c1c <l2697>:
    2c1c:	9007e606 	andls	lr, r7, r6, lsl #12

00002c20 <l2698>:
    2c20:	108c0c53 	addne	r0, ip, r3, asr ip

00002c24 <l2699>:
    2c24:	71b09582 	lslsvc	r9, r2, #11

00002c28 <l2700>:
    2c28:	c0110590 	mulsgt	r1, r0, r5

00002c2c <l2701>:
    2c2c:	e0070a94 	mul	r7, r4, sl

00002c30 <l2702>:
    2c30:	329f07a1 	addscc	r0, pc, #42205184	; 0x2840000

00002c34 <l2703>:
    2c34:	e1d1cfa3 	bics	ip, r1, r3, lsr #31

00002c38 <l2704>:
    2c38:	9228a4a3 	eorls	sl, r8, #-1560281088	; 0xa3000000

00002c3c <l2705>:
    2c3c:	e0b61060 	adcs	r1, r6, r0, rrx

00002c40 <l2706>:
    2c40:	40050c98 	mulmi	r5, r8, ip

00002c44 <l2707>:
    2c44:	408a1003 	addmi	r1, sl, r3

00002c48 <l2708>:
    2c48:	83d78c21 	bicshi	r8, r7, #8448	; 0x2100

00002c4c <l2709>:
    2c4c:	700e0e90 	mulvc	lr, r0, lr

00002c50 <l2710>:
    2c50:	e0180e9e 	muls	r8, lr, lr

00002c54 <l2711>:
    2c54:	039012d1 	orrseq	r1, r0, #268435469	; 0x1000000d

00002c58 <l2712>:
    2c58:	603c900c 	eorsvs	r9, ip, ip

00002c5c <l2713>:
    2c5c:	a0c3bb77 	sbcge	fp, r3, r7, ror fp

00002c60 <l2714>:
    2c60:	004b3321 	subeq	r3, fp, r1, lsr #6

00002c64 <l2715>:
    2c64:	001e099a 	mulseq	lr, sl, r9

00002c68 <l2716>:
    2c68:	e01b0099 	muls	fp, r9, r0

00002c6c <l2717>:
    2c6c:	80010c9e 	mulhi	r1, lr, ip

00002c70 <l2718>:
    2c70:	b001600c 	andlt	r6, r1, ip

00002c74 <l2719>:
    2c74:	801b0793 	mulshi	fp, r3, r7

00002c78 <l2720>:
    2c78:	70010b95 	mulvc	r1, r5, fp

00002c7c <l2721>:
    2c7c:	e2bac705 	adcs	ip, sl, #1310720	; 0x140000

00002c80 <l2722>:
    2c80:	a0448e2a 	subge	r8, r4, sl, lsr #28

00002c84 <l2723>:
    2c84:	50090690 	mulpl	r9, r0, r6

00002c88 <l2724>:
    2c88:	d119077e 	tstle	r9, lr, ror r7

00002c8c <l2725>:
    2c8c:	c0030a9a 	mulgt	r3, sl, sl

00002c90 <l2726>:
    2c90:	71330cc3 	teqvc	r3, r3, asr #25

00002c94 <l2727>:
    2c94:	e02f0068 	eor	r0, pc, r8, rrx

00002c98 <l2728>:
    2c98:	13510332 	cmpne	r1, #-939524096	; 0xc8000000

00002c9c <l2729>:
    2c9c:	205b000a 	subscs	r0, fp, sl

00002ca0 <l2730>:
    2ca0:	11e031c6 	mvnne	r3, r6, asr #3

00002ca4 <l2731>:
    2ca4:	e0b1e8c5 	adcs	lr, r1, r5, asr #17

00002ca8 <l2732>:
    2ca8:	0023400b 	eoreq	r4, r3, fp

00002cac <l2733>:
    2cac:	9088e00f 	addls	lr, r8, pc

00002cb0 <l2734>:
    2cb0:	e20f9e21 	and	r9, pc, #528	; 0x210

00002cb4 <l2735>:
    2cb4:	e0050694 	mul	r5, r4, r6

00002cb8 <l2736>:
    2cb8:	e00c0c93 	mul	ip, r3, ip

00002cbc <l2737>:
    2cbc:	e013069c 	muls	r3, ip, r6

00002cc0 <l2738>:
    2cc0:	9020a002 	eorls	sl, r0, r2

00002cc4 <l2739>:
    2cc4:	801e0293 	mulshi	lr, r3, r2

00002cc8 <l2740>:
    2cc8:	e01c049e 	muls	ip, lr, r4

00002ccc <l2741>:
    2ccc:	003ab01a 	eorseq	fp, sl, sl, lsl r0

00002cd0 <l2742>:
    2cd0:	e0070890 	mul	r7, r0, r8

00002cd4 <l2743>:
    2cd4:	2314030b 	tstcs	r4, #738197504	; 0x2c000000

00002cd8 <l2744>:
    2cd8:	80914005 	addshi	r4, r1, r5

00002cdc <l2745>:
    2cdc:	7005079c 	mulvc	r5, ip, r7

00002ce0 <l2746>:
    2ce0:	60b91572 	adcsvs	r1, r9, r2, ror r5

00002ce4 <l2747>:
    2ce4:	7249c9af 	subvc	ip, r9, #2867200	; 0x2bc000

00002ce8 <l2748>:
    2ce8:	32975825 	addscc	r5, r7, #2424832	; 0x250000

00002cec <l2749>:
    2cec:	e057e63c 	subs	lr, r7, ip, lsr r6

00002cf0 <l2750>:
    2cf0:	301eec7c 	andscc	lr, lr, ip, ror ip

00002cf4 <l2751>:
    2cf4:	c033606e 	eorsgt	r6, r3, lr, rrx

00002cf8 <l2752>:
    2cf8:	e0215b19 	eor	r5, r1, r9, lsl fp

00002cfc <l2753>:
    2cfc:	a0bca061 	adcsge	sl, ip, r1, rrx

00002d00 <l2754>:
    2d00:	d01a059e 	mulsle	sl, lr, r5

00002d04 <l2755>:
    2d04:	e01b0a99 	muls	fp, r9, sl

00002d08 <l2756>:
    2d08:	e1b0bb1b 	lsls	fp, fp, fp

00002d0c <l2757>:
    2d0c:	e1946006 	orrs	r6, r4, r6

00002d10 <l2758>:
    2d10:	e2238423 	eor	r8, r3, #587202560	; 0x23000000

00002d14 <l2759>:
    2d14:	e1db1003 	bics	r1, fp, r3

00002d18 <l2760>:
    2d18:	217f0003 	cmncs	pc, r3

00002d1c <l2761>:
    2d1c:	e0110a9c 	muls	r1, ip, sl

00002d20 <l2762>:
    2d20:	a0110595 	mulsge	r1, r5, r5

00002d24 <l2763>:
    2d24:	139b957d 	orrsne	r9, fp, #524288000	; 0x1f400000

00002d28 <l2764>:
    2d28:	d0150199 	mulsle	r5, r9, r1

00002d2c <l2765>:
    2d2c:	401e0194 	mulsmi	lr, r4, r1

00002d30 <l2766>:
    2d30:	e0150499 	muls	r5, r9, r4

00002d34 <l2767>:
    2d34:	63df3179 	bicsvs	r3, pc, #1073741854	; 0x4000001e

00002d38 <l2768>:
    2d38:	40001001 	andmi	r1, r0, r1

00002d3c <l2769>:
    2d3c:	e0170896 	muls	r7, r6, r8

00002d40 <l2770>:
    2d40:	e0120996 	muls	r2, r6, r9

00002d44 <l2771>:
    2d44:	e2255ad2 	eor	r5, r5, #860160	; 0xd2000

00002d48 <l2772>:
    2d48:	e0070891 	mul	r7, r1, r8

00002d4c <l2773>:
    2d4c:	e19a1068 	orrs	r1, sl, r8, rrx

00002d50 <l2774>:
    2d50:	c0114b0a 	andsgt	r4, r1, sl, lsl #22

00002d54 <l2775>:
    2d54:	e15f0ee2 	cmp	pc, r2, ror #29

00002d58 <l2776>:
    2d58:	e23095f3 	eors	r9, r0, #1019215872	; 0x3cc00000

00002d5c <l2777>:
    2d5c:	e22ebd81 	eor	fp, lr, #8256	; 0x2040

00002d60 <l2778>:
    2d60:	d1340009 	teqle	r4, r9

00002d64 <l2779>:
    2d64:	a3b08c0e 	movsge	r8, #3584	; 0xe00

00002d68 <l2780>:
    2d68:	101a0b99 	mulsne	sl, r9, fp

00002d6c <l2781>:
    2d6c:	b3948dde 	orrslt	r8, r4, #14208	; 0x3780

00002d70 <l2782>:
    2d70:	b39fcfe5 	orrslt	ip, pc, #916	; 0x394

00002d74 <l2783>:
    2d74:	41a0b3ee 	rormi	fp, lr, #7

00002d78 <l2784>:
    2d78:	d01c099a 	mulsle	ip, sl, r9

00002d7c <l2785>:
    2d7c:	e01a0e9b 	muls	sl, fp, lr

00002d80 <l2786>:
    2d80:	c00e691e 	andgt	r6, lr, lr, lsl r9

00002d84 <l2787>:
    2d84:	7024800b 	eorvc	r8, r4, fp

00002d88 <l2788>:
    2d88:	50e4e41c 	rscpl	lr, r4, ip, lsl r4

00002d8c <l2789>:
    2d8c:	e0050497 	mul	r5, r7, r4

00002d90 <l2790>:
    2d90:	400c0092 	mulmi	ip, r2, r0

00002d94 <l2791>:
    2d94:	e2f690ab 	rscs	r9, r6, #171	; 0xab

00002d98 <l2792>:
    2d98:	e00c0692 	mul	ip, r2, r6

00002d9c <l2793>:
    2d9c:	50110696 	mulspl	r1, r6, r6

00002da0 <l2794>:
    2da0:	d15b0000 	cmple	fp, r0

00002da4 <l2795>:
    2da4:	e054767b 	subs	r7, r4, fp, ror r6

00002da8 <l2796>:
    2da8:	80ab356a 	adchi	r3, fp, sl, ror #10

00002dac <l2797>:
    2dac:	600b039e 	mulvs	fp, lr, r3

00002db0 <l2798>:
    2db0:	e198c51c 	orrs	ip, r8, ip, lsl r5

00002db4 <l2799>:
    2db4:	c39352b2 	orrsgt	r5, r3, #536870923	; 0x2000000b

00002db8 <l2800>:
    2db8:	301c5f22 	andscc	r5, ip, r2, lsr #30

00002dbc <l2801>:
    2dbc:	e00b059e 	mul	fp, lr, r5

00002dc0 <l2802>:
    2dc0:	8016643a 	andshi	r6, r6, sl, lsr r4

00002dc4 <l2803>:
    2dc4:	b19ce007 	orrslt	lr, ip, r7

00002dc8 <l2804>:
    2dc8:	e0170598 	muls	r7, r8, r5

00002dcc <l2805>:
    2dcc:	e0070591 	mul	r7, r1, r5

00002dd0 <l2806>:
    2dd0:	21800679 	orrcs	r0, r0, r9, ror r6

00002dd4 <l2807>:
    2dd4:	d2b4adef 	adcsle	sl, r4, #15296	; 0x3bc0

00002dd8 <l2808>:
    2dd8:	1035a00e 	eorsne	sl, r5, lr

00002ddc <l2809>:
    2ddc:	e0deb006 	sbcs	fp, lr, r6

00002de0 <l2810>:
    2de0:	10120393 	mulsne	r2, r3, r3

00002de4 <l2811>:
    2de4:	70224518 	eorvc	r4, r2, r8, lsl r5

00002de8 <l2812>:
    2de8:	1024500b 	eorne	r5, r4, fp

00002dec <l2813>:
    2dec:	b04cb063 	sublt	fp, ip, r3, rrx

00002df0 <l2814>:
    2df0:	50150290 	mulspl	r5, r0, r2

00002df4 <l2815>:
    2df4:	31e0b833 	mvncc	fp, r3, lsr r8

00002df8 <l2816>:
    2df8:	e00b029e 	mul	fp, lr, r2

00002dfc <l2817>:
    2dfc:	e015a004 	ands	sl, r5, r4

00002e00 <l2818>:
    2e00:	816f3f17 	clzhi	r3, r7

00002e04 <l2819>:
    2e04:	41880626 	orrmi	r0, r8, r6, lsr #12

00002e08 <l2820>:
    2e08:	917e0537 	cmnls	lr, r7, lsr r5

00002e0c <l2821>:
    2e0c:	e0140b99 	muls	r4, r9, fp

00002e10 <l2822>:
    2e10:	e192ba51 	orrs	fp, r2, r1, asr sl

00002e14 <l2823>:
    2e14:	70fa700e 	rscsvc	r7, sl, lr

00002e18 <l2824>:
    2e18:	203ba066 	eorscs	sl, fp, r6, rrx

00002e1c <l2825>:
    2e1c:	c1160001 	tstgt	r6, r1

00002e20 <l2826>:
    2e20:	a1970008 	orrsge	r0, r7, r8

00002e24 <l2827>:
    2e24:	e01c0e91 	muls	ip, r1, lr

00002e28 <l2828>:
    2e28:	81808349 	orrhi	r8, r0, r9, asr #6

00002e2c <l2829>:
    2e2c:	e2818133 	add	r8, r1, #-1073741812	; 0xc000000c

00002e30 <l2830>:
    2e30:	41830ec8 	orrmi	r0, r3, r8, asr #29

00002e34 <l2831>:
    2e34:	e0050894 	mul	r5, r4, r8

00002e38 <l2832>:
    2e38:	e089015b 	add	r0, r9, fp, asr r1

00002e3c <l2833>:
    2e3c:	d1909003 	orrsle	r9, r0, r3

00002e40 <l2834>:
    2e40:	12145c75 	andsne	r5, r4, #29952	; 0x7500

00002e44 <l2835>:
    2e44:	51e0b7e3 	mvnpl	fp, r3, ror #15

00002e48 <l2836>:
    2e48:	71c8b008 	bicvc	fp, r8, r8

00002e4c <l2837>:
    2e4c:	80160b97 	mulshi	r6, r7, fp

00002e50 <l2838>:
    2e50:	e0030c9a 	mul	r3, sl, ip

00002e54 <l2839>:
    2e54:	51855008 	orrpl	r5, r5, r8

00002e58 <l2840>:
    2e58:	e090000c 	adds	r0, r0, ip

00002e5c <l2841>:
    2e5c:	8116067e 	tsthi	r6, lr, ror r6

00002e60 <l2842>:
    2e60:	6008b006 	andvs	fp, r8, r6

00002e64 <l2843>:
    2e64:	a1b010a7 	lsrsge	r1, r7, #1

00002e68 <l2844>:
    2e68:	e1e0455a 	mvn	r4, sl, asr r5

00002e6c <l2845>:
    2e6c:	e0010a9c 	mul	r1, ip, sl

00002e70 <l2846>:
    2e70:	b0050299 	mullt	r5, r9, r2

00002e74 <l2847>:
    2e74:	e0160797 	muls	r6, r7, r7

00002e78 <l2848>:
    2e78:	e021600e 	eor	r6, r1, lr

00002e7c <l2849>:
    2e7c:	e0090797 	mul	r9, r7, r7

00002e80 <l2850>:
    2e80:	e013079b 	muls	r3, fp, r7

00002e84 <l2851>:
    2e84:	e16fcf16 	clz	ip, r6

00002e88 <l2852>:
    2e88:	e380b02e 	orr	fp, r0, #46	; 0x2e

00002e8c <l2853>:
    2e8c:	d013099b 	mulsle	r3, fp, r9

00002e90 <l2854>:
    2e90:	80180b9b 	mulshi	r8, fp, fp

00002e94 <l2855>:
    2e94:	b09b818b 	addslt	r8, fp, fp, lsl #3

00002e98 <l2856>:
    2e98:	d00b0092 	mulle	fp, r2, r0

00002e9c <l2857>:
    2e9c:	e0351e89 	eors	r1, r5, r9, lsl #29

00002ea0 <l2858>:
    2ea0:	51190936 	tstpl	r9, r6, lsr r9

00002ea4 <l2859>:
    2ea4:	918ce002 	orrls	lr, ip, r2

00002ea8 <l2860>:
    2ea8:	72095aa5 	andvc	r5, r9, #675840	; 0xa5000

00002eac <l2861>:
    2eac:	e0130299 	muls	r3, r9, r2

00002eb0 <l2862>:
    2eb0:	501b517b 	andspl	r5, fp, fp, ror r1

00002eb4 <l2863>:
    2eb4:	c02c33cf 	eorgt	r3, ip, pc, asr #7

00002eb8 <l2864>:
    2eb8:	c0070799 	mulgt	r7, r9, r7

00002ebc <l2865>:
    2ebc:	e1720aaf 	cmn	r2, pc, lsr #21

00002ec0 <l2866>:
    2ec0:	e0130890 	muls	r3, r0, r8

00002ec4 <l2867>:
    2ec4:	425e845a 	subsmi	r8, lr, #1509949440	; 0x5a000000

00002ec8 <l2868>:
    2ec8:	e1350772 	teq	r5, r2, ror r7

00002ecc <l2869>:
    2ecc:	e185e006 	orr	lr, r5, r6

00002ed0 <l2870>:
    2ed0:	e18b071c 	orr	r0, fp, ip, lsl r7

00002ed4 <l2871>:
    2ed4:	02372d67 	eorseq	r2, r7, #6592	; 0x19c0

00002ed8 <l2872>:
    2ed8:	e05a1f45 	subs	r1, sl, r5, asr #30

00002edc <l2873>:
    2edc:	e1922003 	orrs	r2, r2, r3

00002ee0 <l2874>:
    2ee0:	60170092 	mulsvs	r7, r2, r0

00002ee4 <l2875>:
    2ee4:	60257004 	eorvs	r7, r5, r4

00002ee8 <l2876>:
    2ee8:	70120398 	mulsvc	r2, r8, r3

00002eec <l2877>:
    2eec:	e19b2650 	orrs	r2, fp, r0, asr r6

00002ef0 <l2878>:
    2ef0:	e3360635 	teq	r6, #55574528	; 0x3500000

00002ef4 <l2879>:
    2ef4:	e278ac17 	rsbs	sl, r8, #5888	; 0x1700

00002ef8 <l2880>:
    2ef8:	b2688155 	rsblt	r8, r8, #1073741845	; 0x40000015

00002efc <l2881>:
    2efc:	035e06cf 	cmpeq	lr, #217055232	; 0xcf00000

00002f00 <l2882>:
    2f00:	a0150699 	mulsge	r5, r9, r6

00002f04 <l2883>:
    2f04:	e0140793 	muls	r4, r3, r7

00002f08 <l2884>:
    2f08:	e0274004 	eor	r4, r7, r4

00002f0c <l2885>:
    2f0c:	d0040299 	mulle	r4, r9, r2

00002f10 <l2886>:
    2f10:	e2506ea3 	subs	r6, r0, #2608	; 0xa30

00002f14 <l2887>:
    2f14:	001c089a 	mulseq	ip, sl, r8

00002f18 <l2888>:
    2f18:	e0070299 	mul	r7, r9, r2

00002f1c <l2889>:
    2f1c:	e0110b95 	muls	r1, r5, fp

00002f20 <l2890>:
    2f20:	00190c97 	mulseq	r9, r7, ip

00002f24 <l2891>:
    2f24:	3071700e 	rsbscc	r7, r1, lr

00002f28 <l2892>:
    2f28:	d0344002 	eorsle	r4, r4, r2

00002f2c <l2893>:
    2f2c:	901e0596 	mulsls	lr, r6, r5

00002f30 <l2894>:
    2f30:	b1d62177 	bicslt	r2, r6, r7, ror r1

00002f34 <l2895>:
    2f34:	a2238e1f 	eorge	r8, r3, #496	; 0x1f0

00002f38 <l2896>:
    2f38:	7013059e 	mulsvc	r3, lr, r5

00002f3c <l2897>:
    2f3c:	e16f0f19 	clz	r0, r9

00002f40 <l2898>:
    2f40:	c0ae201a 	adcgt	r2, lr, sl, lsl r0

00002f44 <l2899>:
    2f44:	c09e545a 	addsgt	r5, lr, sl, asr r4

00002f48 <l2900>:
    2f48:	e0190090 	muls	r9, r0, r0

00002f4c <l2901>:
    2f4c:	a377050e 	cmnge	r7, #58720256	; 0x3800000

00002f50 <l2902>:
    2f50:	e1b0400a 	movs	r4, sl

00002f54 <l2903>:
    2f54:	00110493 	mulseq	r1, r3, r4

00002f58 <l2904>:
    2f58:	90a58065 	adcls	r8, r5, r5, rrx

00002f5c <l2905>:
    2f5c:	d0030a94 	mulle	r3, r4, sl

00002f60 <l2906>:
    2f60:	e019069c 	muls	r9, ip, r6

00002f64 <l2907>:
    2f64:	a0b35235 	adcsge	r5, r3, r5, lsr r2

00002f68 <l2908>:
    2f68:	d033700c 	eorsle	r7, r3, ip

00002f6c <l2909>:
    2f6c:	e0034b6f 	and	r4, r3, pc, ror #22

00002f70 <l2910>:
    2f70:	5200b826 	andpl	fp, r0, #2490368	; 0x260000

00002f74 <l2911>:
    2f74:	02084fdb 	andeq	r4, r8, #876	; 0x36c

00002f78 <l2912>:
    2f78:	90c47007 	sbcls	r7, r4, r7

00002f7c <l2913>:
    2f7c:	e258e50b 	subs	lr, r8, #46137344	; 0x2c00000

00002f80 <l2914>:
    2f80:	b0030491 	mullt	r3, r1, r4

00002f84 <l2915>:
    2f84:	6021e06c 	eorvs	lr, r1, ip, rrx

00002f88 <l2916>:
    2f88:	e0150e91 	muls	r5, r1, lr

00002f8c <l2917>:
    2f8c:	b0158001 	andslt	r8, r5, r1

00002f90 <l2918>:
    2f90:	e02c413c 	eor	r4, ip, ip, lsr r1

00002f94 <l2919>:
    2f94:	40025009 	andmi	r5, r2, r9

00002f98 <l2920>:
    2f98:	31844916 	orrcc	r4, r4, r6, lsl r9

00002f9c <l2921>:
    2f9c:	601e0c96 	mulsvs	lr, r6, ip

00002fa0 <l2922>:
    2fa0:	32067b23 	andcc	r7, r6, #35840	; 0x8c00

00002fa4 <l2923>:
    2fa4:	e0356009 	eors	r6, r5, r9

00002fa8 <l2924>:
    2fa8:	b0388f22 	eorslt	r8, r8, r2, lsr #30

00002fac <l2925>:
    2fac:	401e0b94 	mulsmi	lr, r4, fp

00002fb0 <l2926>:
    2fb0:	e0179e70 	ands	r9, r7, r0, ror lr

00002fb4 <l2927>:
    2fb4:	e03c5003 	eors	r5, ip, r3

00002fb8 <l2928>:
    2fb8:	e1a02007 	mov	r2, r7

00002fbc <l2929>:
    2fbc:	c16fcf16 	clzgt	ip, r6

00002fc0 <l2930>:
    2fc0:	e0269b0a 	eor	r9, r6, sl, lsl #22

00002fc4 <l2931>:
    2fc4:	e1977009 	orrs	r7, r7, r9

00002fc8 <l2932>:
    2fc8:	013e030e 	teqeq	lr, lr, lsl #6

00002fcc <l2933>:
    2fcc:	e204a51f 	and	sl, r4, #130023424	; 0x7c00000

00002fd0 <l2934>:
    2fd0:	d3944a41 	orrsle	r4, r4, #266240	; 0x41000

00002fd4 <l2935>:
    2fd4:	e012800b 	ands	r8, r2, fp

00002fd8 <l2936>:
    2fd8:	e0061a73 	and	r1, r6, r3, ror sl

00002fdc <l2937>:
    2fdc:	e18820cc 	orr	r2, r8, ip, asr #1

00002fe0 <l2938>:
    2fe0:	8218ac53 	andshi	sl, r8, #21248	; 0x5300

00002fe4 <l2939>:
    2fe4:	d35f0606 	cmple	pc, #6291456	; 0x600000

00002fe8 <l2940>:
    2fe8:	e01a0c90 	muls	sl, r0, ip

00002fec <l2941>:
    2fec:	a0030898 	mulge	r3, r8, r8

00002ff0 <l2942>:
    2ff0:	90130795 	mulsls	r3, r5, r7

00002ff4 <l2943>:
    2ff4:	d001089c 	mulle	r1, ip, r8

00002ff8 <l2944>:
    2ff8:	101e069c 	mulsne	lr, ip, r6

00002ffc <l2945>:
    2ffc:	a113045a 	tstge	r3, sl, asr r4

00003000 <l2946>:
    3000:	d0070e9c 	mulle	r7, ip, lr

00003004 <l2947>:
    3004:	b16f2f1c 	clzlt	r2, ip

00003008 <l2948>:
    3008:	0046bf0b 	subeq	fp, r6, fp, lsl #30

0000300c <l2949>:
    300c:	e0170b90 	muls	r7, r0, fp

00003010 <l2950>:
    3010:	728c0d42 	addvc	r0, ip, #4224	; 0x1080

00003014 <l2951>:
    3014:	e0110397 	muls	r1, r7, r3

00003018 <l2952>:
    3018:	e3310fed 	teq	r1, #948	; 0x3b4

0000301c <l2953>:
    301c:	20110390 	mulscs	r1, r0, r3

00003020 <l2954>:
    3020:	900a0199 	mulls	sl, r9, r1

00003024 <l2955>:
    3024:	10090997 	mulne	r9, r7, r9

00003028 <l2956>:
    3028:	3019079a 	mulscc	r9, sl, r7

0000302c <l2957>:
    302c:	d005009e 	mulle	r5, lr, r0

00003030 <l2958>:
    3030:	3153000b 	cmpcc	r3, fp

00003034 <l2959>:
    3034:	20359060 	eorscs	r9, r5, r0, rrx

00003038 <l2960>:
    3038:	80160491 	mulshi	r6, r1, r4

0000303c <l2961>:
    303c:	03b00021 	movseq	r0, #33	; 0x21

00003040 <l2962>:
    3040:	e0020099 	mul	r2, r9, r0

00003044 <l2963>:
    3044:	a3580b2b 	cmpge	r8, #44032	; 0xac00

00003048 <l2964>:
    3048:	203c8064 	eorscs	r8, ip, r4, rrx

0000304c <l2965>:
    304c:	b39318b1 	orrslt	r1, r3, #11599872	; 0xb10000

00003050 <l2966>:
    3050:	e0070791 	mul	r7, r1, r7

00003054 <l2967>:
    3054:	506373e7 	rsbpl	r7, r3, r7, ror #7

00003058 <l2968>:
    3058:	8011a61e 	andshi	sl, r1, lr, lsl r6

0000305c <l2969>:
    305c:	e115003e 	tst	r5, lr, lsr r0

00003060 <l2970>:
    3060:	2190c003 	orrscs	ip, r0, r3

00003064 <l2971>:
    3064:	e1884063 	orr	r4, r8, r3, rrx

00003068 <l2972>:
    3068:	622968af 	eorvs	r6, r9, #11468800	; 0xaf0000

0000306c <l2973>:
    306c:	e00b019a 	mul	fp, sl, r1

00003070 <l2974>:
    3070:	93f0bb15 	mvnsls	fp, #21504	; 0x5400

00003074 <l2975>:
    3074:	e00a089b 	mul	sl, fp, r8

00003078 <l2976>:
    3078:	719e214e 	orrsvc	r2, lr, lr, asr #2

0000307c <l2977>:
    307c:	9023abc8 	eorls	sl, r3, r8, asr #23

00003080 <l2978>:
    3080:	902ce009 	eorls	lr, ip, r9

00003084 <l2979>:
    3084:	e05e2710 	subs	r2, lr, r0, lsl r7

00003088 <l2980>:
    3088:	a007089b 	mulge	r7, fp, r8

0000308c <l2981>:
    308c:	e0020996 	mul	r2, r6, r9

00003090 <l2982>:
    3090:	50162009 	andspl	r2, r6, r9

00003094 <l2983>:
    3094:	d0160492 	mulsle	r6, r2, r4

00003098 <l2984>:
    3098:	0198a511 	orrseq	sl, r8, r1, lsl r5

0000309c <l2985>:
    309c:	60997005 	addsvs	r7, r9, r5

000030a0 <l2986>:
    30a0:	d01e059a 	mulsle	lr, sl, r5

000030a4 <l2987>:
    30a4:	d098bb1b 	addsle	fp, r8, fp, lsl fp

000030a8 <l2988>:
    30a8:	600b9007 	andvs	r9, fp, r7

000030ac <l2989>:
    30ac:	a35e065a 	cmpge	lr, #94371840	; 0x5a00000

000030b0 <l2990>:
    30b0:	a0110b9e 	mulsge	r1, lr, fp

000030b4 <l2991>:
    30b4:	e038e732 	eors	lr, r8, r2, lsr r7

000030b8 <l2992>:
    30b8:	301c0b90 	mulscc	ip, r0, fp

000030bc <l2993>:
    30bc:	e0120190 	muls	r2, r0, r1

000030c0 <l2994>:
    30c0:	5279a446 	rsbspl	sl, r9, #1174405120	; 0x46000000

000030c4 <l2995>:
    30c4:	82ab2165 	adchi	r2, fp, #1073741849	; 0x40000019

000030c8 <l2996>:
    30c8:	e03263ec 	eors	r6, r2, ip, ror #7

000030cc <l2997>:
    30cc:	e189e00b 	orr	lr, r9, fp

000030d0 <l2998>:
    30d0:	e035040f 	eors	r0, r5, pc, lsl #8

000030d4 <l2999>:
    30d4:	e00a0c9e 	mul	sl, lr, ip

000030d8 <l3000>:
    30d8:	e011059c 	muls	r1, ip, r5

000030dc <l3001>:
    30dc:	4016049c 	mulsmi	r6, ip, r4

000030e0 <l3002>:
    30e0:	0015049a 	mulseq	r5, sl, r4

000030e4 <l3003>:
    30e4:	63c2433d 	bicvs	r4, r2, #-201326592	; 0xf4000000

000030e8 <l3004>:
    30e8:	001b0290 	mulseq	fp, r0, r2

000030ec <l3005>:
    30ec:	e170006b 	cmn	r0, fp, rrx

000030f0 <l3006>:
    30f0:	d3e06203 	mvnle	r6, #805306368	; 0x30000000

000030f4 <l3007>:
    30f4:	c247270f 	subgt	r2, r7, #3932160	; 0x3c0000

000030f8 <l3008>:
    30f8:	d151006a 	cmple	r1, sl, rrx

000030fc <l3009>:
    30fc:	e01c100f 	ands	r1, ip, pc

00003100 <l3010>:
    3100:	e1110950 	tst	r1, r0, asr r9

00003104 <l3011>:
    3104:	e0867b10 	add	r7, r6, r0, lsl fp

00003108 <l3012>:
    3108:	e16f8f1e 	clz	r8, lr

0000310c <l3013>:
    310c:	b381e72f 	orrlt	lr, r1, #12320768	; 0xbc0000

00003110 <l3014>:
    3110:	72c3490d 	sbcvc	r4, r3, #212992	; 0x34000

00003114 <l3015>:
    3114:	e2191bbd 	ands	r1, r9, #193536	; 0x2f400

00003118 <l3016>:
    3118:	611c0530 	tstvs	ip, r0, lsr r5

0000311c <l3017>:
    311c:	42c82c01 	sbcmi	r2, r8, #256	; 0x100

00003120 <l3018>:
    3120:	e1e0ae45 	mvn	sl, r5, asr #28

00003124 <l3019>:
    3124:	e056900a 	subs	r9, r6, sl

00003128 <l3020>:
    3128:	e38fa977 	orr	sl, pc, #1949696	; 0x1dc000

0000312c <l3021>:
    312c:	e0160a93 	muls	r6, r3, sl

00003130 <l3022>:
    3130:	611a081c 	tstvs	sl, ip, lsl r8

00003134 <l3023>:
    3134:	2019069a 	mulscs	r9, sl, r6

00003138 <l3024>:
    3138:	9385c01c 	orrls	ip, r5, #28

0000313c <l3025>:
    313c:	8075a06f 	rsbshi	sl, r5, pc, rrx

00003140 <l3026>:
    3140:	e0893001 	add	r3, r9, r1

00003144 <l3027>:
    3144:	e0070b9b 	mul	r7, fp, fp

00003148 <l3028>:
    3148:	e1520a66 	cmp	r2, r6, ror #20

0000314c <l3029>:
    314c:	20180193 	mulscs	r8, r3, r1

00003150 <l3030>:
    3150:	e01a0c98 	muls	sl, r8, ip

00003154 <l3031>:
    3154:	e0217006 	eor	r7, r1, r6

00003158 <l3032>:
    3158:	5209bce7 	andpl	fp, r9, #59136	; 0xe700

0000315c <l3033>:
    315c:	60010390 	mulvs	r1, r0, r3

00003160 <l3034>:
    3160:	e0321b3a 	eors	r1, r2, sl, lsr fp

00003164 <l3035>:
    3164:	e184020e 	orr	r0, r4, lr, lsl #4

00003168 <l3036>:
    3168:	c11708ce 	tstgt	r7, lr, asr #17

0000316c <l3037>:
    316c:	30000000 	andcc	r0, r0, r0

00003170 <l3038>:
    3170:	72c4e1d7 	sbcvc	lr, r4, #-1073741771	; 0xc0000035

00003174 <l3039>:
    3174:	30510002 	subscc	r0, r1, r2

00003178 <l3040>:
    3178:	e21c762f 	ands	r7, ip, #49283072	; 0x2f00000

0000317c <l3041>:
    317c:	e3da84f7 	bics	r8, sl, #-150994944	; 0xf7000000

00003180 <l3042>:
    3180:	e0100c91 	muls	r0, r1, ip

00003184 <l3043>:
    3184:	22cf50b0 	sbccs	r5, pc, #176	; 0xb0

00003188 <l3044>:
    3188:	c0c33e38 	sbcgt	r3, r3, r8, lsr lr

0000318c <l3045>:
    318c:	d1895003 	orrle	r5, r9, r3

00003190 <l3046>:
    3190:	e38f7cbf 	orr	r7, pc, #48896	; 0xbf00

00003194 <l3047>:
    3194:	e0e81764 	rsc	r1, r8, r4, ror #14

00003198 <l3048>:
    3198:	0038e3e1 	eorseq	lr, r8, r1, ror #7

0000319c <l3049>:
    319c:	22e6b616 	rsccs	fp, r6, #23068672	; 0x1600000

000031a0 <l3050>:
    31a0:	5154000a 	cmppl	r4, sl

000031a4 <l3051>:
    31a4:	e087500f 	add	r5, r7, pc

000031a8 <l3052>:
    31a8:	e1f04078 	mvns	r4, r8, ror r0

000031ac <l3053>:
    31ac:	e1835b1b 	orr	r5, r3, fp, lsl fp

000031b0 <l3054>:
    31b0:	e0140499 	muls	r4, r9, r4

000031b4 <l3055>:
    31b4:	23832a29 	orrcs	r2, r3, #167936	; 0x29000

000031b8 <l3056>:
    31b8:	e3a05e9e 	mov	r5, #2528	; 0x9e0

000031bc <l3057>:
    31bc:	e03fc762 	eors	ip, pc, r2, ror #14

000031c0 <l3058>:
    31c0:	e01c6b35 	ands	r6, ip, r5, lsr fp

000031c4 <l3059>:
    31c4:	e1390062 	teq	r9, r2, rrx

000031c8 <l3060>:
    31c8:	915e006b 	cmpls	lr, fp, rrx

000031cc <l3061>:
    31cc:	0191a06f 	orrseq	sl, r1, pc, rrx

000031d0 <l3062>:
    31d0:	e013039c 	muls	r3, ip, r3

000031d4 <l3063>:
    31d4:	60040397 	mulvs	r4, r7, r3

000031d8 <l3064>:
    31d8:	70140b9e 	mulsvc	r4, lr, fp

000031dc <l3065>:
    31dc:	e20e594d 	and	r5, lr, #1261568	; 0x134000

000031e0 <l3066>:
    31e0:	e0f89a54 	rscs	r9, r8, r4, asr sl

000031e4 <l3067>:
    31e4:	00090c94 	muleq	r9, r4, ip

000031e8 <l3068>:
    31e8:	30bae00e 	adcscc	lr, sl, lr

000031ec <l3069>:
    31ec:	c0217006 	eorgt	r7, r1, r6

000031f0 <l3070>:
    31f0:	102e3005 	eorne	r3, lr, r5

000031f4 <l3071>:
    31f4:	e00ea008 	and	sl, lr, r8

000031f8 <l3072>:
    31f8:	e18c9615 	orr	r9, ip, r5, lsl r6

000031fc <l3073>:
    31fc:	e016b005 	ands	fp, r6, r5

00003200 <l3074>:
    3200:	c0050c9e 	mulgt	r5, lr, ip

00003204 <l3075>:
    3204:	316f4f19 	clzcc	r4, r9

00003208 <l3076>:
    3208:	10030398 	mulne	r3, r8, r3

0000320c <l3077>:
    320c:	e3790399 	cmn	r9, #1677721602	; 0x64000002

00003210 <l3078>:
    3210:	21d51069 	bicscs	r1, r5, r9, rrx

00003214 <l3079>:
    3214:	e0010393 	mul	r1, r3, r3

00003218 <l3080>:
    3218:	019e9640 	orrseq	r9, lr, r0, asr #12

0000321c <l3081>:
    321c:	3008b2c8 	andcc	fp, r8, r8, asr #5

00003220 <l3082>:
    3220:	e16fef13 	clz	lr, r3

00003224 <l3083>:
    3224:	e0120e95 	muls	r2, r5, lr

00003228 <l3084>:
    3228:	2011ba75 	andscs	fp, r1, r5, ror sl

0000322c <l3085>:
    322c:	21ceea48 	biccs	lr, lr, r8, asr #20

00003230 <l3086>:
    3230:	d1802514 	orrle	r2, r0, r4, lsl r5

00003234 <l3087>:
    3234:	801e0e95 	mulshi	lr, r5, lr

00003238 <l3088>:
    3238:	a194542e 	orrsge	r5, r4, lr, lsr #8

0000323c <l3089>:
    323c:	e16fbf12 	clz	fp, r2

00003240 <l3090>:
    3240:	e17a0002 	cmn	sl, r2

00003244 <l3091>:
    3244:	20f67a1e 	rscscs	r7, r6, lr, lsl sl

00003248 <l3092>:
    3248:	c022125e 	eorgt	r1, r2, lr, asr r2

0000324c <l3093>:
    324c:	a077b377 	rsbsge	fp, r7, r7, ror r3

00003250 <l3094>:
    3250:	a0b28d89 	adcsge	r8, r2, r9, lsl #27

00003254 <l3095>:
    3254:	00140297 	mulseq	r4, r7, r2

00003258 <l3096>:
    3258:	e0d18eea 	sbcs	r8, r1, sl, ror #29

0000325c <l3097>:
    325c:	51908006 	orrspl	r8, r0, r6

00003260 <l3098>:
    3260:	23d20f8f 	bicscs	r0, r2, #572	; 0x23c

00003264 <l3099>:
    3264:	80543141 	subshi	r3, r4, r1, asr #2

00003268 <l3100>:
    3268:	80bc25cf 	adcshi	r2, ip, pc, asr #11

0000326c <l3101>:
    326c:	d0349061 	eorsle	r9, r4, r1, rrx

00003270 <l3102>:
    3270:	d11b02a3 	tstle	fp, r3, lsr #5

00003274 <l3103>:
    3274:	e0070593 	mul	r7, r3, r5

00003278 <l3104>:
    3278:	e1530001 	cmp	r3, r1

0000327c <l3105>:
    327c:	801ba06f 	andshi	sl, fp, pc, rrx

00003280 <l3106>:
    3280:	e0196954 	ands	r6, r9, r4, asr r9

00003284 <l3107>:
    3284:	12244623 	eorne	r4, r4, #36700160	; 0x2300000

00003288 <l3108>:
    3288:	2005089c 	mulcs	r5, ip, r8

0000328c <l3109>:
    328c:	e0068177 	and	r8, r6, r7, ror r1

00003290 <l3110>:
    3290:	e39b6479 	orrs	r6, fp, #2030043136	; 0x79000000

00003294 <l3111>:
    3294:	b0080a9b 	mullt	r8, fp, sl

00003298 <l3112>:
    3298:	b186c008 	orrlt	ip, r6, r8

0000329c <l3113>:
    329c:	e16f3f12 	clz	r3, r2

000032a0 <l3114>:
    32a0:	90274001 	eorls	r4, r7, r1

000032a4 <l3115>:
    32a4:	c0278643 	eorgt	r8, r7, r3, asr #12

000032a8 <l3116>:
    32a8:	40475076 	submi	r5, r7, r6, ror r0

000032ac <l3117>:
    32ac:	e06615e4 	rsb	r1, r6, r4, ror #11

000032b0 <l3118>:
    32b0:	3039a004 	eorscc	sl, r9, r4

000032b4 <l3119>:
    32b4:	51844253 	orrpl	r4, r4, r3, asr r2

000032b8 <l3120>:
    32b8:	e015049c 	muls	r5, ip, r4

000032bc <l3121>:
    32bc:	e01e0291 	muls	lr, r1, r2

000032c0 <l3122>:
    32c0:	20190a93 	mulscs	r9, r3, sl

000032c4 <l3123>:
    32c4:	e01b0e93 	muls	fp, r3, lr

000032c8 <l3124>:
    32c8:	e00eec1a 	and	lr, lr, sl, lsl ip

000032cc <l3125>:
    32cc:	e017059c 	muls	r7, ip, r5

000032d0 <l3126>:
    32d0:	80fb1003 	rscshi	r1, fp, r3

000032d4 <l3127>:
    32d4:	139c810b 	orrsne	r8, ip, #-1073741822	; 0xc0000002

000032d8 <l3128>:
    32d8:	e0190e93 	muls	r9, r3, lr

000032dc <l3129>:
    32dc:	d1790006 	cmnle	r9, r6

000032e0 <l3130>:
    32e0:	e01b0997 	muls	fp, r7, r9

000032e4 <l3131>:
    32e4:	601a0598 	mulsvs	sl, r8, r5

000032e8 <l3132>:
    32e8:	01330b16 	teqeq	r3, r6, lsl fp

000032ec <l3133>:
    32ec:	c01c0595 	mulsgt	ip, r5, r5

000032f0 <l3134>:
    32f0:	80010895 	mulhi	r1, r5, r8

000032f4 <l3135>:
    32f4:	60040b97 	mulvs	r4, r7, fp

000032f8 <l3136>:
    32f8:	b0bf7007 	adcslt	r7, pc, r7

000032fc <l3137>:
    32fc:	e1e03062 	mvn	r3, r2, rrx

00003300 <l3138>:
    3300:	e0186da7 	ands	r6, r8, r7, lsr #27

00003304 <l3139>:
    3304:	e0130495 	muls	r3, r5, r4

00003308 <l3140>:
    3308:	019c5069 	orrseq	r5, ip, r9, rrx

0000330c <l3141>:
    330c:	e0313750 	eors	r3, r1, r0, asr r7

00003310 <l3142>:
    3310:	e0180692 	muls	r8, r2, r6

00003314 <l3143>:
    3314:	40030b95 	mulmi	r3, r5, fp

00003318 <l3144>:
    3318:	716f7f13 	clzvc	r7, r3

0000331c <l3145>:
    331c:	23110901 	tstcs	r1, #16384	; 0x4000

00003320 <l3146>:
    3320:	c1170004 	tstgt	r7, r4

00003324 <l3147>:
    3324:	323b5c22 	eorscc	r5, fp, #8704	; 0x2200

00003328 <l3148>:
    3328:	e1a08835 	lsr	r8, r5, r8

0000332c <l3149>:
    332c:	e0100c92 	muls	r0, r2, ip

00003330 <l3150>:
    3330:	e16f2f19 	clz	r2, r9

00003334 <l3151>:
    3334:	90e9893a 	rscls	r8, r9, sl, lsr r9

00003338 <l3152>:
    3338:	e00a0919 	and	r0, sl, r9, lsl r9

0000333c <l3153>:
    333c:	e0150690 	muls	r5, r0, r6

00003340 <l3154>:
    3340:	31720c73 	cmncc	r2, r3, ror ip

00003344 <l3155>:
    3344:	2208a29d 	andcs	sl, r8, #-805306359	; 0xd0000009

00003348 <l3156>:
    3348:	a051853b 	subsge	r8, r1, fp, lsr r5

0000334c <l3157>:
    334c:	e0170e96 	muls	r7, r6, lr

00003350 <l3158>:
    3350:	e0150693 	muls	r5, r3, r6

00003354 <l3159>:
    3354:	90cf1004 	sbcls	r1, pc, r4

00003358 <l3160>:
    3358:	604eb008 	subvs	fp, lr, r8

0000335c <l3161>:
    335c:	e0122615 	ands	r2, r2, r5, lsl r6

00003360 <l3162>:
    3360:	a2bc28c3 	adcsge	r2, ip, #12779520	; 0xc30000

00003364 <l3163>:
    3364:	80000e98 	mulhi	r0, r8, lr

00003368 <l3164>:
    3368:	80572002 	subshi	r2, r7, r2

0000336c <l3165>:
    336c:	9389ca37 	orrls	ip, r9, #225280	; 0x37000

00003370 <l3166>:
    3370:	900c0991 	mulls	ip, r1, r9

00003374 <l3167>:
    3374:	c000806e 	andgt	r8, r0, lr, rrx

00003378 <l3168>:
    3378:	e0dbce8e 	sbcs	ip, fp, lr, lsl #29

0000337c <l3169>:
    337c:	e2269065 	eor	r9, r6, #101	; 0x65

00003380 <l3170>:
    3380:	31977c59 	orrscc	r7, r7, r9, asr ip

00003384 <l3171>:
    3384:	e00e4759 	and	r4, lr, r9, asr r7

00003388 <l3172>:
    3388:	9039e840 	eorsls	lr, r9, r0, asr #16

0000338c <l3173>:
    338c:	c015700a 	andsgt	r7, r5, sl

00003390 <l3174>:
    3390:	e13802a8 	teq	r8, r8, lsr #5

00003394 <l3175>:
    3394:	40190298 	mulsmi	r9, r8, r2

00003398 <l3176>:
    3398:	e0110599 	muls	r1, r9, r5

0000339c <l3177>:
    339c:	e1a08068 	rrx	r8, r8

000033a0 <l3178>:
    33a0:	e00b0b92 	mul	fp, r2, fp

000033a4 <l3179>:
    33a4:	40140b91 	mulsmi	r4, r1, fp

000033a8 <l3180>:
    33a8:	4004806f 	andmi	r8, r4, pc, rrx

000033ac <l3181>:
    33ac:	e0170998 	muls	r7, r8, r9

000033b0 <l3182>:
    33b0:	6095b007 	addsvs	fp, r5, r7

000033b4 <l3183>:
    33b4:	00130798 	mulseq	r3, r8, r7

000033b8 <l3184>:
    33b8:	e0110394 	muls	r1, r4, r3

000033bc <l3185>:
    33bc:	213c0cce 	teqcs	ip, lr, asr #25

000033c0 <l3186>:
    33c0:	e0070a91 	mul	r7, r1, sl

000033c4 <l3187>:
    33c4:	40140b99 	mulsmi	r4, r9, fp

000033c8 <l3188>:
    33c8:	3213a606 	andscc	sl, r3, #6291456	; 0x600000

000033cc <l3189>:
    33cc:	00500532 	subseq	r0, r0, r2, lsr r5

000033d0 <l3190>:
    33d0:	e19b2001 	orrs	r2, fp, r1

000033d4 <l3191>:
    33d4:	a00c0697 	mulge	ip, r7, r6

000033d8 <l3192>:
    33d8:	e0120993 	muls	r2, r3, r9

000033dc <l3193>:
    33dc:	e01b049a 	muls	fp, sl, r4

000033e0 <l3194>:
    33e0:	e17a0c4c 	cmn	sl, ip, asr #24

000033e4 <l3195>:
    33e4:	e01b7713 	ands	r7, fp, r3, lsl r7

000033e8 <l3196>:
    33e8:	e0130e9e 	muls	r3, lr, lr

000033ec <l3197>:
    33ec:	119e600f 	orrsne	r6, lr, pc

000033f0 <l3198>:
    33f0:	e1cf9005 	bic	r9, pc, r5

000033f4 <l3199>:
    33f4:	e0030292 	mul	r3, r2, r2

000033f8 <l3200>:
    33f8:	80170596 	mulshi	r7, r6, r5

000033fc <l3201>:
    33fc:	e193200f 	orrs	r2, r3, pc

00003400 <l3202>:
    3400:	e189e06b 	orr	lr, r9, fp, rrx

00003404 <l3203>:
    3404:	e00ca004 	and	sl, ip, r4

00003408 <l3204>:
    3408:	e0f1b520 	rscs	fp, r1, r0, lsr #10

0000340c <l3205>:
    340c:	e1800033 	orr	r0, r0, r3, lsr r0

00003410 <l3206>:
    3410:	e2202b63 	eor	r2, r0, #101376	; 0x18c00

00003414 <l3207>:
    3414:	e1da137c 	bics	r1, sl, ip, ror r3

00003418 <l3208>:
    3418:	80040099 	mulhi	r4, r9, r0

0000341c <l3209>:
    341c:	618f7063 	orrvs	r7, pc, r3, rrx

00003420 <l3210>:
    3420:	c01f700f 	andsgt	r7, pc, pc

00003424 <l3211>:
    3424:	e0802009 	add	r2, r0, r9

00003428 <l3212>:
    3428:	e1790009 	cmn	r9, r9

0000342c <l3213>:
    342c:	20b1900a 	adcscs	r9, r1, sl

00003430 <l3214>:
    3430:	a0d1e082 	sbcsge	lr, r1, r2, lsl #1

00003434 <l3215>:
    3434:	e112000a 	tst	r2, sl

00003438 <l3216>:
    3438:	0007664b 	andeq	r6, r7, fp, asr #12

0000343c <l3217>:
    343c:	00020394 	muleq	r2, r4, r3

00003440 <l3218>:
    3440:	b0090294 	mullt	r9, r4, r2

00003444 <l3219>:
    3444:	201e2a46 	andscs	r2, lr, r6, asr #20

00003448 <l3220>:
    3448:	e1b0a006 	movs	sl, r6

0000344c <l3221>:
    344c:	32148a79 	andscc	r8, r4, #495616	; 0x79000

00003450 <l3222>:
    3450:	e208b4da 	and	fp, r8, #-637534208	; 0xda000000

00003454 <l3223>:
    3454:	1029c173 	eorne	ip, r9, r3, ror r1

00003458 <l3224>:
    3458:	e15c0887 	cmp	ip, r7, lsl #17

0000345c <l3225>:
    345c:	a21a12e6 	andsge	r1, sl, #1610612750	; 0x6000000e

00003460 <l3226>:
    3460:	e0180997 	muls	r8, r7, r9

00003464 <l3227>:
    3464:	e00e0e9c 	mul	lr, ip, lr

00003468 <l3228>:
    3468:	10140498 	mulsne	r4, r8, r4

0000346c <l3229>:
    346c:	30110c94 	mulscc	r1, r4, ip

00003470 <l3230>:
    3470:	03f048d5 	mvnseq	r4, #13959168	; 0xd50000

00003474 <l3231>:
    3474:	e0160191 	muls	r6, r1, r1

00003478 <l3232>:
    3478:	218052a6 	orrcs	r5, r0, r6, lsr #5

0000347c <l3233>:
    347c:	61974337 	orrsvs	r4, r7, r7, lsr r3

00003480 <l3234>:
    3480:	c006099b 	mulgt	r6, fp, r9

00003484 <l3235>:
    3484:	7137005e 	teqvc	r7, lr, asr r0

00003488 <l3236>:
    3488:	80010193 	mulhi	r1, r3, r1

0000348c <l3237>:
    348c:	e38cabf3 	orr	sl, ip, #248832	; 0x3cc00

00003490 <l3238>:
    3490:	539b0038 	orrspl	r0, fp, #56	; 0x38

00003494 <l3239>:
    3494:	e0090496 	mul	r9, r6, r4

00003498 <l3240>:
    3498:	e18ba009 	orr	sl, fp, r9

0000349c <l3241>:
    349c:	e019e91e 	ands	lr, r9, lr, lsl r9

000034a0 <l3242>:
    34a0:	819513e9 	orrshi	r1, r5, r9, ror #7

000034a4 <l3243>:
    34a4:	e195e051 	orrs	lr, r5, r1, asr r0

000034a8 <l3244>:
    34a8:	01cca003 	biceq	sl, ip, r3

000034ac <l3245>:
    34ac:	50110292 	mulspl	r1, r2, r2

000034b0 <l3246>:
    34b0:	00190b9b 	mulseq	r9, fp, fp

000034b4 <l3247>:
    34b4:	61caa673 	bicvs	sl, sl, r3, ror r6

000034b8 <l3248>:
    34b8:	1034000c 	eorsne	r0, r4, ip

000034bc <l3249>:
    34bc:	e009306a 	and	r3, r9, sl, rrx

000034c0 <l3250>:
    34c0:	33750806 	cmncc	r5, #393216	; 0x60000

000034c4 <l3251>:
    34c4:	a23b671a 	eorsge	r6, fp, #6815744	; 0x680000

000034c8 <l3252>:
    34c8:	306b200c 	rsbcc	r2, fp, ip

000034cc <l3253>:
    34cc:	500e0099 	mulpl	lr, r9, r0

000034d0 <l3254>:
    34d0:	e1590008 	cmp	r9, r8

000034d4 <l3255>:
    34d4:	016f0f15 	clzeq	r0, r5

000034d8 <l3256>:
    34d8:	e03b8063 	eors	r8, fp, r3, rrx

000034dc <l3257>:
    34dc:	d0054066 	andle	r4, r5, r6, rrx

000034e0 <l3258>:
    34e0:	e0080593 	mul	r8, r3, r5

000034e4 <l3259>:
    34e4:	6006049b 	mulvs	r6, fp, r4

000034e8 <l3260>:
    34e8:	b0a12006 	adclt	r2, r1, r6

000034ec <l3261>:
    34ec:	e38f2c0d 	orr	r2, pc, #3328	; 0xd00

000034f0 <l3262>:
    34f0:	e018b069 	ands	fp, r8, r9, rrx

000034f4 <l3263>:
    34f4:	e014079a 	muls	r4, sl, r7

000034f8 <l3264>:
    34f8:	e001406f 	and	r4, r1, pc, rrx

000034fc <l3265>:
    34fc:	a18b8716 	orrge	r8, fp, r6, lsl r7

00003500 <l3266>:
    3500:	e001069a 	mul	r1, sl, r6

00003504 <l3267>:
    3504:	e1905003 	orrs	r5, r0, r3

00003508 <l3268>:
    3508:	d154016e 	cmple	r4, lr, ror #2

0000350c <l3269>:
    350c:	e0447001 	sub	r7, r4, r1

00003510 <l3270>:
    3510:	b0190e1b 	andslt	r0, r9, fp, lsl lr

00003514 <l3271>:
    3514:	01887002 	orreq	r7, r8, r2

00003518 <l3272>:
    3518:	a197283b 	orrsge	r2, r7, fp, lsr r8

0000351c <l3273>:
    351c:	e0a2273c 	adc	r2, r2, ip, lsr r7

00003520 <l3274>:
    3520:	e0267716 	eor	r7, r6, r6, lsl r7

00003524 <l3275>:
    3524:	a0076064 	andge	r6, r7, r4, rrx

00003528 <l3276>:
    3528:	e350089a 	cmp	r0, #10092544	; 0x9a0000

0000352c <l3277>:
    352c:	e0130298 	muls	r3, r8, r2

00003530 <l3278>:
    3530:	e38aecc9 	orr	lr, sl, #51456	; 0xc900

00003534 <l3279>:
    3534:	d3730b13 	cmnle	r3, #19456	; 0x4c00

00003538 <l3280>:
    3538:	e0170993 	muls	r7, r3, r9

0000353c <l3281>:
    353c:	100f4be5 	andne	r4, pc, r5, ror #23

00003540 <l3282>:
    3540:	00130a9a 	mulseq	r3, sl, sl

00003544 <l3283>:
    3544:	e1330004 	teq	r3, r4

00003548 <l3284>:
    3548:	a190e004 	orrsge	lr, r0, r4

0000354c <l3285>:
    354c:	4004009b 	mulmi	r4, fp, r0

00003550 <l3286>:
    3550:	e27f4409 	rsbs	r4, pc, #150994944	; 0x9000000

00003554 <l3287>:
    3554:	e0356312 	eors	r6, r5, r2, lsl r3

00003558 <l3288>:
    3558:	b0000195 	mullt	r0, r5, r1

0000355c <l3289>:
    355c:	603e3259 	eorsvs	r3, lr, r9, asr r2

00003560 <l3290>:
    3560:	41d7c001 	bicsmi	ip, r7, r1

00003564 <l3291>:
    3564:	e137000a 	teq	r7, sl

00003568 <l3292>:
    3568:	20110596 	mulscs	r1, r6, r5

0000356c <l3293>:
    356c:	e0000e98 	mul	r0, r8, lr

00003570 <l3294>:
    3570:	e1330065 	teq	r3, r5, rrx

00003574 <l3295>:
    3574:	618bb008 	orrvs	fp, fp, r8

00003578 <l3296>:
    3578:	e007b005 	and	fp, r7, r5

0000357c <l3297>:
    357c:	e16f0f10 	clz	r0, r0

00003580 <l3298>:
    3580:	e3510b95 	cmp	r1, #152576	; 0x25400

00003584 <l3299>:
    3584:	a0040191 	mulge	r4, r1, r1

00003588 <l3300>:
    3588:	e00e049b 	mul	lr, fp, r4

0000358c <l3301>:
    358c:	b0040595 	mullt	r4, r5, r5

00003590 <l3302>:
    3590:	b15a0063 	cmplt	sl, r3, rrx

00003594 <l3303>:
    3594:	e0180156 	ands	r0, r8, r6, asr r1

00003598 <l3304>:
    3598:	b0cec00c 	sbclt	ip, lr, ip

0000359c <l3305>:
    359c:	e0675e7b 	rsb	r5, r7, fp, ror lr

000035a0 <l3306>:
    35a0:	e01b0998 	muls	fp, r8, r9

000035a4 <l3307>:
    35a4:	200b0495 	mulcs	fp, r5, r4

000035a8 <l3308>:
    35a8:	e2f81797 	rscs	r1, r8, #39583744	; 0x25c0000

000035ac <l3309>:
    35ac:	e00c0895 	mul	ip, r5, r8

000035b0 <l3310>:
    35b0:	e0160497 	muls	r6, r7, r4

000035b4 <l3311>:
    35b4:	a0a2a00c 	adcge	sl, r2, ip

000035b8 <l3312>:
    35b8:	4018079c 	mulsmi	r8, ip, r7

000035bc <l3313>:
    35bc:	c0e0000f 	rscgt	r0, r0, pc

000035c0 <l3314>:
    35c0:	e012100b 	ands	r1, r2, fp

000035c4 <l3315>:
    35c4:	e0080390 	mul	r8, r0, r3

000035c8 <l3316>:
    35c8:	316fef1e 	clzcc	lr, lr

000035cc <l3317>:
    35cc:	e1b05459 	asrs	r5, r9, r4

000035d0 <l3318>:
    35d0:	e0735a53 	rsbs	r5, r3, r3, asr sl

000035d4 <l3319>:
    35d4:	e0020894 	mul	r2, r4, r8

000035d8 <l3320>:
    35d8:	e016019c 	muls	r6, ip, r1

000035dc <l3321>:
    35dc:	10160091 	mulsne	r6, r1, r0

000035e0 <l3322>:
    35e0:	e01a0b93 	muls	sl, r3, fp

000035e4 <l3323>:
    35e4:	e2cfc835 	sbc	ip, pc, #3473408	; 0x350000

000035e8 <l3324>:
    35e8:	5009059a 	mulpl	r9, sl, r5

000035ec <l3325>:
    35ec:	30120b9a 	mulscc	r2, sl, fp

000035f0 <l3326>:
    35f0:	e0180a92 	muls	r8, r2, sl

000035f4 <l3327>:
    35f4:	e187506e 	orr	r5, r7, lr, rrx

000035f8 <l3328>:
    35f8:	63881331 	orrvs	r1, r8, #-1006632960	; 0xc4000000

000035fc <l3329>:
    35fc:	10ef4004 	rscne	r4, pc, r4

00003600 <l3330>:
    3600:	0017059c 	mulseq	r7, ip, r5

00003604 <l3331>:
    3604:	00070a9c 	muleq	r7, ip, sl

00003608 <l3332>:
    3608:	e010483e 	ands	r4, r0, lr, lsr r8

0000360c <l3333>:
    360c:	e00f8104 	and	r8, pc, r4, lsl #2

00003610 <l3334>:
    3610:	2053106f 	subscs	r1, r3, pc, rrx

00003614 <l3335>:
    3614:	61540154 	cmpvs	r4, r4, asr r1

00003618 <l3336>:
    3618:	3178000e 	cmncc	r8, lr

0000361c <l3337>:
    361c:	802fc5e2 	eorhi	ip, pc, r2, ror #11

00003620 <l3338>:
    3620:	50170091 	mulspl	r7, r1, r0

00003624 <l3339>:
    3624:	e00c0199 	mul	ip, r9, r1

00003628 <l3340>:
    3628:	e013562b 	ands	r5, r3, fp, lsr #12

0000362c <l3341>:
    362c:	e18ca08c 	orr	sl, ip, ip, lsl #1

00003630 <l3342>:
    3630:	e00b0597 	mul	fp, r7, r5

00003634 <l3343>:
    3634:	e1b03561 	rors	r3, r1, #10

00003638 <l3344>:
    3638:	b0100a98 	mulslt	r0, r8, sl

0000363c <l3345>:
    363c:	e0077684 	and	r7, r7, r4, lsl #13

00003640 <l3346>:
    3640:	e0170596 	muls	r7, r6, r5

00003644 <l3347>:
    3644:	03150b62 	tsteq	r5, #100352	; 0x18800

00003648 <l3348>:
    3648:	309e4069 	addscc	r4, lr, r9, rrx

0000364c <l3349>:
    364c:	b182c324 	orrlt	ip, r2, r4, lsr #6

00003650 <l3350>:
    3650:	219c4533 	orrscs	r4, ip, r3, lsr r5

00003654 <l3351>:
    3654:	e0060b97 	mul	r6, r7, fp

00003658 <l3352>:
    3658:	e0020d07 	and	r0, r2, r7, lsl #26

0000365c <l3353>:
    365c:	e2215040 	eor	r5, r1, #64	; 0x40

00003660 <l3354>:
    3660:	e39c88f1 	orrs	r8, ip, #15794176	; 0xf10000

00003664 <l3355>:
    3664:	70060998 	mulvc	r6, r8, r9

00003668 <l3356>:
    3668:	60120497 	mulsvs	r2, r7, r4

0000366c <l3357>:
    366c:	c0010c92 	mulgt	r1, r2, ip

00003670 <l3358>:
    3670:	e0006007 	and	r6, r0, r7

00003674 <l3359>:
    3674:	02cc60f2 	sbceq	r6, ip, #242	; 0xf2

00003678 <l3360>:
    3678:	71b08857 	asrsvc	r8, r7, r8

0000367c <l3361>:
    367c:	80250e06 	eorhi	r0, r5, r6, lsl #28

00003680 <l3362>:
    3680:	20170493 	mulscs	r7, r3, r4

00003684 <l3363>:
    3684:	e0140e90 	muls	r4, r0, lr

00003688 <l3364>:
    3688:	001c3158 	andseq	r3, ip, r8, asr r1

0000368c <l3365>:
    368c:	9001069c 	mulls	r1, ip, r6

00003690 <l3366>:
    3690:	e0160698 	muls	r6, r8, r6

00003694 <l3367>:
    3694:	a18c2813 	orrge	r2, ip, r3, lsl r8

00003698 <l3368>:
    3698:	c0060c9b 	mulgt	r6, fp, ip

0000369c <l3369>:
    369c:	e18c7b77 	orr	r7, ip, r7, ror fp

000036a0 <l3370>:
    36a0:	e11c0374 	tst	ip, r4, ror r3

000036a4 <l3371>:
    36a4:	e0e5800e 	rsc	r8, r5, lr

000036a8 <l3372>:
    36a8:	e00e0b9c 	mul	lr, ip, fp

000036ac <l3373>:
    36ac:	e01a0c9b 	muls	sl, fp, ip

000036b0 <l3374>:
    36b0:	d01b0b9e 	mulsle	fp, lr, fp

000036b4 <l3375>:
    36b4:	01c0a002 	biceq	sl, r0, r2

000036b8 <l3376>:
    36b8:	e0091061 	and	r1, r9, r1, rrx

000036bc <l3377>:
    36bc:	10102653 	andsne	r2, r0, r3, asr r6

000036c0 <l3378>:
    36c0:	a3e087c1 	mvnge	r8, #50593792	; 0x3040000

000036c4 <l3379>:
    36c4:	e004b005 	and	fp, r4, r5

000036c8 <l3380>:
    36c8:	622fede3 	eorvs	lr, pc, #14528	; 0x38c0

000036cc <l3381>:
    36cc:	e19b088f 	orrs	r0, fp, pc, lsl #17

000036d0 <l3382>:
    36d0:	016f5f19 	clzeq	r5, r9

000036d4 <l3383>:
    36d4:	e16f6f17 	clz	r6, r7

000036d8 <l3384>:
    36d8:	e0db5875 	sbcs	r5, fp, r5, ror r8

000036dc <l3385>:
    36dc:	8011079a 	mulshi	r1, sl, r7

000036e0 <l3386>:
    36e0:	e1cbed62 	bic	lr, fp, r2, ror #26

000036e4 <l3387>:
    36e4:	e0100992 	muls	r0, r2, r9

000036e8 <l3388>:
    36e8:	e0020890 	mul	r2, r0, r8

000036ec <l3389>:
    36ec:	003b5112 	eorseq	r5, fp, r2, lsl r1

000036f0 <l3390>:
    36f0:	c0190912 	andsgt	r0, r9, r2, lsl r9

000036f4 <l3391>:
    36f4:	831c0ef5 	tsthi	ip, #3920	; 0xf50

000036f8 <l3392>:
    36f8:	20130499 	mulscs	r3, r9, r4

000036fc <l3393>:
    36fc:	e0100e91 	muls	r0, r1, lr

00003700 <l3394>:
    3700:	e0eaa009 	rsc	sl, sl, r9

00003704 <l3395>:
    3704:	d057772c 	subsle	r7, r7, ip, lsr #14

00003708 <l3396>:
    3708:	e1916004 	orrs	r6, r1, r4

0000370c <l3397>:
    370c:	c18093e6 	orrgt	r9, r0, r6, ror #7

00003710 <l3398>:
    3710:	e01c0096 	muls	ip, r6, r0

00003714 <l3399>:
    3714:	1018029e 	mulsne	r8, lr, r2

00003718 <l3400>:
    3718:	e3350e1a 	teq	r5, #416	; 0x1a0

0000371c <l3401>:
    371c:	60000896 	mulvs	r0, r6, r8

00003720 <l3402>:
    3720:	d002089a 	mulle	r2, sl, r8

00003724 <l3403>:
    3724:	600b1daa 	andvs	r1, fp, sl, lsr #27

00003728 <l3404>:
    3728:	623a7d55 	eorsvs	r7, sl, #5440	; 0x1540

0000372c <l3405>:
    372c:	e3120c01 	tst	r2, #256	; 0x100

00003730 <l3406>:
    3730:	e2002e7f 	and	r2, r0, #2032	; 0x7f0

00003734 <l3407>:
    3734:	e272be81 	rsbs	fp, r2, #2064	; 0x810

00003738 <l3408>:
    3738:	6004e009 	andvs	lr, r4, r9

0000373c <l3409>:
    373c:	e005039b 	mul	r5, fp, r3

00003740 <l3410>:
    3740:	e01a0394 	muls	sl, r4, r3

00003744 <l3411>:
    3744:	a17b0eaa 	cmnge	fp, sl, lsr #29

00003748 <l3412>:
    3748:	e1b0be12 	lsls	fp, r2, lr

0000374c <l3413>:
    374c:	e0b8200a 	adcs	r2, r8, sl

00003750 <l3414>:
    3750:	e0641061 	rsb	r1, r4, r1, rrx

00003754 <l3415>:
    3754:	e0285004 	eor	r5, r8, r4

00003758 <l3416>:
    3758:	80d48733 	sbcshi	r8, r4, r3, lsr r7

0000375c <l3417>:
    375c:	e1b0493e 	lsrs	r4, lr, r9

00003760 <l3418>:
    3760:	20cf7006 	sbccs	r7, pc, r6

00003764 <l3419>:
    3764:	e000039c 	mul	r0, ip, r3

00003768 <l3420>:
    3768:	e1560064 	cmp	r6, r4, rrx

0000376c <l3421>:
    376c:	80070e9a 	mulhi	r7, sl, lr

00003770 <l3422>:
    3770:	70e79006 	rscvc	r9, r7, r6

00003774 <l3423>:
    3774:	3008079c 	mulcc	r8, ip, r7

00003778 <l3424>:
    3778:	e01c079e 	muls	ip, lr, r7

0000377c <l3425>:
    377c:	2382351f 	orrcs	r3, r2, #130023424	; 0x7c00000

00003780 <l3426>:
    3780:	63770f75 	cmnvs	r7, #468	; 0x1d4

00003784 <l3427>:
    3784:	c03a8002 	eorsgt	r8, sl, r2

00003788 <l3428>:
    3788:	e0140890 	muls	r4, r0, r8

0000378c <l3429>:
    378c:	71a0c851 	asrvc	ip, r1, r8

00003790 <l3430>:
    3790:	e00a029b 	mul	sl, fp, r2

00003794 <l3431>:
    3794:	e04cbc70 	sub	fp, ip, r0, ror ip

00003798 <l3432>:
    3798:	e1f0620a 	mvns	r6, sl, lsl #4

0000379c <l3433>:
    379c:	01d1854a 	bicseq	r8, r1, sl, asr #10

000037a0 <l3434>:
    37a0:	9001e862 	andls	lr, r1, r2, ror #16

000037a4 <l3435>:
    37a4:	e1862ccb 	orr	r2, r6, fp, asr #25

000037a8 <l3436>:
    37a8:	e037100a 	eors	r1, r7, sl

000037ac <l3437>:
    37ac:	e033ae31 	eors	sl, r3, r1, lsr lr

000037b0 <l3438>:
    37b0:	c04e2062 	subgt	r2, lr, r2, rrx

000037b4 <l3439>:
    37b4:	d19a6b75 	orrsle	r6, sl, r5, ror fp

000037b8 <l3440>:
    37b8:	e0366702 	eors	r6, r6, r2, lsl #14

000037bc <l3441>:
    37bc:	a0160994 	mulsge	r6, r4, r9

000037c0 <l3442>:
    37c0:	e017039c 	muls	r7, ip, r3

000037c4 <l3443>:
    37c4:	70193003 	andsvc	r3, r9, r3

000037c8 <l3444>:
    37c8:	e19ee673 	orrs	lr, lr, r3, ror r6

000037cc <l3445>:
    37cc:	e35b0f6f 	cmp	fp, #444	; 0x1bc

000037d0 <l3446>:
    37d0:	20120996 	mulscs	r2, r6, r9

000037d4 <l3447>:
    37d4:	e1a03006 	mov	r3, r6

000037d8 <l3448>:
    37d8:	b00c0695 	mullt	ip, r5, r6

000037dc <l3449>:
    37dc:	a03ee000 	eorsge	lr, lr, r0

000037e0 <l3450>:
    37e0:	60050294 	mulvs	r5, r4, r2

000037e4 <l3451>:
    37e4:	e0013008 	and	r3, r1, r8

000037e8 <l3452>:
    37e8:	a0239001 	eorge	r9, r3, r1

000037ec <l3453>:
    37ec:	003be00b 	eorseq	lr, fp, fp

000037f0 <l3454>:
    37f0:	d0bb1281 	adcsle	r1, fp, r1, lsl #5

000037f4 <l3455>:
    37f4:	e05eb77b 	subs	fp, lr, fp, ror r7

000037f8 <l3456>:
    37f8:	700b2061 	andvc	r2, fp, r1, rrx

000037fc <l3457>:
    37fc:	e0d28a49 	sbcs	r8, r2, r9, asr #20

00003800 <l3458>:
    3800:	1013079a 	mulsne	r3, sl, r7

00003804 <l3459>:
    3804:	e03bb06e 	eors	fp, fp, lr, rrx

00003808 <l3460>:
    3808:	c01b049c 	mulsgt	fp, ip, r4

0000380c <l3461>:
    380c:	e0333070 	eors	r3, r3, r0, ror r0

00003810 <l3462>:
    3810:	61de5003 	bicsvs	r5, lr, r3

00003814 <l3463>:
    3814:	e00b0e99 	mul	fp, r9, lr

00003818 <l3464>:
    3818:	e029e965 	eor	lr, r9, r5, ror #18

0000381c <l3465>:
    381c:	811f0007 	tsthi	pc, r7

00003820 <l3466>:
    3820:	903a6062 	eorsls	r6, sl, r2, rrx

00003824 <l3467>:
    3824:	e020106b 	eor	r1, r0, fp, rrx

00003828 <l3468>:
    3828:	e3e08d83 	mvn	r8, #8384	; 0x20c0

0000382c <l3469>:
    382c:	e00c0196 	mul	ip, r6, r1

00003830 <l3470>:
    3830:	10190a95 	mulsne	r9, r5, sl

00003834 <l3471>:
    3834:	22387275 	eorscs	r7, r8, #1342177287	; 0x50000007

00003838 <l3472>:
    3838:	e0070291 	mul	r7, r1, r2

0000383c <l3473>:
    383c:	c0062004 	andgt	r2, r6, r4

00003840 <l3474>:
    3840:	e00e0092 	mul	lr, r2, r0

00003844 <l3475>:
    3844:	e0150c98 	muls	r5, r8, ip

00003848 <l3476>:
    3848:	019ae00f 	orrseq	lr, sl, pc

0000384c <l3477>:
    384c:	e075612c 	rsbs	r6, r5, ip, lsr #2

00003850 <l3478>:
    3850:	50010c92 	mulpl	r1, r2, ip

00003854 <l3479>:
    3854:	3003039a 	mulcc	r3, sl, r3

00003858 <l3480>:
    3858:	e0020396 	mul	r2, r6, r3

0000385c <l3481>:
    385c:	20180a96 	mulscs	r8, r6, sl

00003860 <l3482>:
    3860:	e272320e 	rsbs	r3, r2, #-536870912	; 0xe0000000

00003864 <l3483>:
    3864:	71d60811 	bicsvc	r0, r6, r1, lsl r8

00003868 <l3484>:
    3868:	e01e906a 	ands	r9, lr, sl, rrx

0000386c <l3485>:
    386c:	e004e005 	and	lr, r4, r5

00003870 <l3486>:
    3870:	11993b28 	orrsne	r3, r9, r8, lsr #22

00003874 <l3487>:
    3874:	e0221271 	eor	r1, r2, r1, ror r2

00003878 <l3488>:
    3878:	e0160497 	muls	r6, r7, r4

0000387c <l3489>:
    387c:	e0fcb00e 	rscs	fp, ip, lr

00003880 <l3490>:
    3880:	e1b06a6f 	rors	r6, pc, #20

00003884 <l3491>:
    3884:	201c0991 	mulscs	ip, r1, r9

00003888 <l3492>:
    3888:	02097843 	andeq	r7, r9, #4390912	; 0x430000

0000388c <l3493>:
    388c:	038e8084 	orreq	r8, lr, #132	; 0x84

00003890 <l3494>:
    3890:	e2d32d0d 	sbcs	r2, r3, #832	; 0x340

00003894 <l3495>:
    3894:	30010095 	mulcc	r1, r5, r0

00003898 <l3496>:
    3898:	e212e1a5 	ands	lr, r2, #1073741865	; 0x40000029

0000389c <l3497>:
    389c:	c11e0c1b 	tstgt	lr, fp, lsl ip

000038a0 <l3498>:
    38a0:	21110005 	tstcs	r1, r5

000038a4 <l3499>:
    38a4:	c0190190 	mulsgt	r9, r0, r1

000038a8 <l3500>:
    38a8:	b007079c 	mullt	r7, ip, r7

000038ac <l3501>:
    38ac:	207a3003 	rsbscs	r3, sl, r3

000038b0 <l3502>:
    38b0:	e009a00c 	and	sl, r9, ip

000038b4 <l3503>:
    38b4:	d05ee630 	subsle	lr, lr, r0, lsr r6

000038b8 <l3504>:
    38b8:	40100b95 	mulsmi	r0, r5, fp

000038bc <l3505>:
    38bc:	e006009c 	mul	r6, ip, r0

000038c0 <l3506>:
    38c0:	b032b065 	eorslt	fp, r2, r5, rrx

000038c4 <l3507>:
    38c4:	601b0a90 	mulsvs	fp, r0, sl

000038c8 <l3508>:
    38c8:	1078b570 	rsbsne	fp, r8, r0, ror r5

000038cc <l3509>:
    38cc:	c018089a 	mulsgt	r8, sl, r8

000038d0 <l3510>:
    38d0:	20fa89c2 	rscscs	r8, sl, r2, asr #19

000038d4 <l3511>:
    38d4:	e034b001 	eors	fp, r4, r1

000038d8 <l3512>:
    38d8:	4195a107 	orrsmi	sl, r5, r7, lsl #2

000038dc <l3513>:
    38dc:	e0020e9e 	mul	r2, lr, lr

000038e0 <l3514>:
    38e0:	d008039e 	mulle	r8, lr, r3

000038e4 <l3515>:
    38e4:	e23b2502 	eors	r2, fp, #8388608	; 0x800000

000038e8 <l3516>:
    38e8:	e19e745e 	orrs	r7, lr, lr, asr r4

000038ec <l3517>:
    38ec:	6028186f 	eorvs	r1, r8, pc, ror #16

000038f0 <l3518>:
    38f0:	00f0400c 	rscseq	r4, r0, ip

000038f4 <l3519>:
    38f4:	e02310e1 	eor	r1, r3, r1, ror #1

000038f8 <l3520>:
    38f8:	121cbbd2 	andsne	fp, ip, #215040	; 0x34800

000038fc <l3521>:
    38fc:	e015049b 	muls	r5, fp, r4

00003900 <l3522>:
    3900:	e02b423e 	eor	r4, fp, lr, lsr r2

00003904 <l3523>:
    3904:	e0010c9c 	mul	r1, ip, ip

00003908 <l3524>:
    3908:	e0b44b48 	adcs	r4, r4, r8, asr #22

0000390c <l3525>:
    390c:	e00124a8 	and	r2, r1, r8, lsr #9

00003910 <l3526>:
    3910:	e3987bf6 	orrs	r7, r8, #251904	; 0x3d800

00003914 <l3527>:
    3914:	e0d8a667 	sbcs	sl, r8, r7, ror #12

00003918 <l3528>:
    3918:	9018029e 	mulsls	r8, lr, r2

0000391c <l3529>:
    391c:	e004b5c5 	and	fp, r4, r5, asr #11

00003920 <l3530>:
    3920:	60160090 	mulsvs	r6, r0, r0

00003924 <l3531>:
    3924:	e0070093 	mul	r7, r3, r0

00003928 <l3532>:
    3928:	a13e0da6 	teqge	lr, r6, lsr #27

0000392c <l3533>:
    392c:	e0e54b19 	rsc	r4, r5, r9, lsl fp

00003930 <l3534>:
    3930:	e01c0b97 	muls	ip, r7, fp

00003934 <l3535>:
    3934:	13867112 	orrne	r7, r6, #-2147483644	; 0x80000004

00003938 <l3536>:
    3938:	42afef5a 	adcmi	lr, pc, #360	; 0x168

0000393c <l3537>:
    393c:	e0140192 	muls	r4, r2, r1

00003940 <l3538>:
    3940:	500aa003 	andpl	sl, sl, r3

00003944 <l3539>:
    3944:	d1951066 	orrsle	r1, r5, r6, rrx

00003948 <l3540>:
    3948:	e33e0312 	teq	lr, #1207959552	; 0x48000000

0000394c <l3541>:
    394c:	40080695 	mulmi	r8, r5, r6

00003950 <l3542>:
    3950:	70080190 	mulvc	r8, r0, r1

00003954 <l3543>:
    3954:	e01e059a 	muls	lr, sl, r5

00003958 <l3544>:
    3958:	b0160691 	mulslt	r6, r1, r6

0000395c <l3545>:
    395c:	e01c0c9e 	muls	ip, lr, ip

00003960 <l3546>:
    3960:	e0050b96 	mul	r5, r6, fp

00003964 <l3547>:
    3964:	600b0693 	mulvs	fp, r3, r6

00003968 <l3548>:
    3968:	e0080393 	mul	r8, r3, r3

0000396c <l3549>:
    396c:	4282293e 	addmi	r2, r2, #1015808	; 0xf8000

00003970 <l3550>:
    3970:	300a0491 	mulcc	sl, r1, r4

00003974 <l3551>:
    3974:	215f0062 	cmpcs	pc, r2, rrx

00003978 <l3552>:
    3978:	71989066 	orrsvc	r9, r8, r6, rrx

0000397c <l3553>:
    397c:	4012a009 	andsmi	sl, r2, r9

00003980 <l3554>:
    3980:	e02f506e 	eor	r5, pc, lr, rrx

00003984 <l3555>:
    3984:	401ebec2 	andsmi	fp, lr, r2, asr #29

00003988 <l3556>:
    3988:	6013049e 	mulsvs	r3, lr, r4

0000398c <l3557>:
    398c:	50160998 	mulspl	r6, r8, r9

00003990 <l3558>:
    3990:	e00b0a99 	mul	fp, r9, sl

00003994 <l3559>:
    3994:	e115000b 	tst	r5, fp

00003998 <l3560>:
    3998:	90160893 	mulsls	r6, r3, r8

0000399c <l3561>:
    399c:	5002406c 	andpl	r4, r2, ip, rrx

000039a0 <l3562>:
    39a0:	7229cf6a 	eorvc	ip, r9, #424	; 0x1a8

000039a4 <l3563>:
    39a4:	41d47e2c 	bicsmi	r7, r4, ip, lsr #28

000039a8 <l3564>:
    39a8:	701b079e 	mulsvc	fp, lr, r7

000039ac <l3565>:
    39ac:	e0050294 	mul	r5, r4, r2

000039b0 <l3566>:
    39b0:	e0034068 	and	r4, r3, r8, rrx

000039b4 <l3567>:
    39b4:	e0190796 	muls	r9, r6, r7

000039b8 <l3568>:
    39b8:	0003009b 	muleq	r3, fp, r0

000039bc <l3569>:
    39bc:	223c125b 	eorscs	r1, ip, #-1342177275	; 0xb0000005

000039c0 <l3570>:
    39c0:	90140591 	mulsls	r4, r1, r5

000039c4 <l3571>:
    39c4:	d16f6f18 	clzle	r6, r8

000039c8 <l3572>:
    39c8:	e036500e 	eors	r5, r6, lr

000039cc <l3573>:
    39cc:	e0c3803a 	sbc	r8, r3, sl, lsr r0

000039d0 <l3574>:
    39d0:	10120a96 	mulsne	r2, r6, sl

000039d4 <l3575>:
    39d4:	e0050c9e 	mul	r5, lr, ip

000039d8 <l3576>:
    39d8:	e00b0a9e 	mul	fp, lr, sl

000039dc <l3577>:
    39dc:	30054004 	andcc	r4, r5, r4

000039e0 <l3578>:
    39e0:	e3520c0a 	cmp	r2, #2560	; 0xa00

000039e4 <l3579>:
    39e4:	e0050c9c 	mul	r5, ip, ip

000039e8 <l3580>:
    39e8:	e0150899 	muls	r5, r9, r8

000039ec <l3581>:
    39ec:	e1740ae7 	cmn	r4, r7, ror #21

000039f0 <l3582>:
    39f0:	80150994 	mulshi	r5, r4, r9

000039f4 <l3583>:
    39f4:	60190c96 	mulsvs	r9, r6, ip

000039f8 <l3584>:
    39f8:	62746b1b 	rsbsvs	r6, r4, #27648	; 0x6c00

000039fc <l3585>:
    39fc:	318bb461 	orrcc	fp, fp, r1, ror #8

00003a00 <l3586>:
    3a00:	30468067 	subcc	r8, r6, r7, rrx

00003a04 <l3587>:
    3a04:	e01b0c97 	muls	fp, r7, ip

00003a08 <l3588>:
    3a08:	105ec00c 	subsne	ip, lr, ip

00003a0c <l3589>:
    3a0c:	00070990 	muleq	r7, r0, r9

00003a10 <l3590>:
    3a10:	501a0991 	mulspl	sl, r1, r9

00003a14 <l3591>:
    3a14:	b13304a4 	teqlt	r3, r4, lsr #9

00003a18 <l3592>:
    3a18:	e225362b 	eor	r3, r5, #45088768	; 0x2b00000

00003a1c <l3593>:
    3a1c:	a185606e 	orrge	r6, r5, lr, rrx

00003a20 <l3594>:
    3a20:	e03f9005 	eors	r9, pc, r5

00003a24 <l3595>:
    3a24:	e1360574 	teq	r6, r4, ror r5

00003a28 <l3596>:
    3a28:	1080a063 	addne	sl, r0, r3, rrx

00003a2c <l3597>:
    3a2c:	c0060990 	mulgt	r6, r0, r9

00003a30 <l3598>:
    3a30:	5378045f 	cmnpl	r8, #1593835520	; 0x5f000000

00003a34 <l3599>:
    3a34:	233a0d2d 	teqcs	sl, #2880	; 0xb40

00003a38 <l3600>:
    3a38:	e0027005 	and	r7, r2, r5

00003a3c <l3601>:
    3a3c:	e25aa41a 	subs	sl, sl, #436207616	; 0x1a000000

00003a40 <l3602>:
    3a40:	539b9732 	orrspl	r9, fp, #13107200	; 0xc80000

00003a44 <l3603>:
    3a44:	717e061b 	cmnvc	lr, fp, lsl r6

00003a48 <l3604>:
    3a48:	e039e7a7 	eors	lr, r9, r7, lsr #15

00003a4c <l3605>:
    3a4c:	30180694 	mulscc	r8, r4, r6

00003a50 <l3606>:
    3a50:	9238c207 	eorsls	ip, r8, #1879048192	; 0x70000000

00003a54 <l3607>:
    3a54:	809e6774 	addshi	r6, lr, r4, ror r7

00003a58 <l3608>:
    3a58:	e0050e9c 	mul	r5, ip, lr

00003a5c <l3609>:
    3a5c:	63730309 	cmnvs	r3, #603979776	; 0x24000000

00003a60 <l3610>:
    3a60:	c1d91009 	bicsgt	r1, r9, r9

00003a64 <l3611>:
    3a64:	919ba445 	orrsls	sl, fp, r5, asr #8

00003a68 <l3612>:
    3a68:	e18219eb 	orr	r1, r2, fp, ror #19

00003a6c <l3613>:
    3a6c:	4189775b 	orrmi	r7, r9, fp, asr r7

00003a70 <l3614>:
    3a70:	e00a009c 	mul	sl, ip, r0

00003a74 <l3615>:
    3a74:	818e418a 	orrhi	r4, lr, sl, lsl #3

00003a78 <l3616>:
    3a78:	11848c39 	orrne	r8, r4, r9, lsr ip

00003a7c <l3617>:
    3a7c:	30c3b774 	sbccc	fp, r3, r4, ror r7

00003a80 <l3618>:
    3a80:	d005059c 	mulle	r5, ip, r5

00003a84 <l3619>:
    3a84:	e008c208 	and	ip, r8, r8, lsl #4

00003a88 <l3620>:
    3a88:	c026991c 	eorgt	r9, r6, ip, lsl r9

00003a8c <l3621>:
    3a8c:	10040998 	mulne	r4, r8, r9

00003a90 <l3622>:
    3a90:	82a7c003 	adchi	ip, r7, #3

00003a94 <l3623>:
    3a94:	e01239e8 	ands	r3, r2, r8, ror #19

00003a98 <l3624>:
    3a98:	e0150196 	muls	r5, r6, r1

00003a9c <l3625>:
    3a9c:	e00c0ca9 	and	r0, ip, r9, lsr #25

00003aa0 <l3626>:
    3aa0:	11f0b000 	mvnsne	fp, r0

00003aa4 <l3627>:
    3aa4:	319873ee 	orrscc	r7, r8, lr, ror #7

00003aa8 <l3628>:
    3aa8:	a1862477 	orrge	r2, r6, r7, ror r4

00003aac <l3629>:
    3aac:	c00b583c 	andgt	r5, fp, ip, lsr r8

00003ab0 <l3630>:
    3ab0:	605eba1b 	subsvs	fp, lr, fp, lsl sl

00003ab4 <l3631>:
    3ab4:	239a43e2 	orrscs	r4, sl, #-2013265917	; 0x88000003

00003ab8 <l3632>:
    3ab8:	d0060093 	mulle	r6, r3, r0

00003abc <l3633>:
    3abc:	e0060491 	mul	r6, r1, r4

00003ac0 <l3634>:
    3ac0:	700a0492 	mulvc	sl, r2, r4

00003ac4 <l3635>:
    3ac4:	d1a02008 	movle	r2, r8

00003ac8 <l3636>:
    3ac8:	e118000f 	tst	r8, pc

00003acc <l3637>:
    3acc:	e0676062 	rsb	r6, r7, r2, rrx

00003ad0 <l3638>:
    3ad0:	900b0495 	mulls	fp, r5, r4

00003ad4 <l3639>:
    3ad4:	e0050293 	mul	r5, r3, r2

00003ad8 <l3640>:
    3ad8:	e3160b2b 	tst	r6, #44032	; 0xac00

00003adc <l3641>:
    3adc:	101c0290 	mulsne	ip, r0, r2

00003ae0 <l3642>:
    3ae0:	d2205a1a 	eorle	r5, r0, #106496	; 0x1a000

00003ae4 <l3643>:
    3ae4:	8187ea77 	orrhi	lr, r7, r7, ror sl

00003ae8 <l3644>:
    3ae8:	52a77557 	adcpl	r7, r7, #364904448	; 0x15c00000

00003aec <l3645>:
    3aec:	d0038009 	andle	r8, r3, r9

00003af0 <l3646>:
    3af0:	301e0093 	mulscc	lr, r3, r0

00003af4 <l3647>:
    3af4:	e1560001 	cmp	r6, r1

00003af8 <l3648>:
    3af8:	316f1f18 	clzcc	r1, r8

00003afc <l3649>:
    3afc:	e0130996 	muls	r3, r6, r9

00003b00 <l3650>:
    3b00:	60080691 	mulvs	r8, r1, r6

00003b04 <l3651>:
    3b04:	e001079a 	mul	r1, sl, r7

00003b08 <l3652>:
    3b08:	600e0695 	mulvs	lr, r5, r6

00003b0c <l3653>:
    3b0c:	e0130c90 	muls	r3, r0, ip

00003b10 <l3654>:
    3b10:	90010694 	mulls	r1, r4, r6

00003b14 <l3655>:
    3b14:	e01e0a9c 	muls	lr, ip, sl

00003b18 <l3656>:
    3b18:	80160b9e 	mulshi	r6, lr, fp

00003b1c <l3657>:
    3b1c:	e20ce43f 	and	lr, ip, #1056964608	; 0x3f000000

00003b20 <l3658>:
    3b20:	c025c517 	eorgt	ip, r5, r7, lsl r5

00003b24 <l3659>:
    3b24:	e0030297 	mul	r3, r7, r2

00003b28 <l3660>:
    3b28:	e0167c49 	ands	r7, r6, r9, asr #24

00003b2c <l3661>:
    3b2c:	c00a0498 	mulgt	sl, r8, r4

00003b30 <l3662>:
    3b30:	e18bc063 	orr	ip, fp, r3, rrx

00003b34 <l3663>:
    3b34:	e098bc10 	adds	fp, r8, r0, lsl ip

00003b38 <l3664>:
    3b38:	e00b089c 	mul	fp, ip, r8

00003b3c <l3665>:
    3b3c:	e17b0170 	cmn	fp, r0, ror r1

00003b40 <l3666>:
    3b40:	1114006e 	tstne	r4, lr, rrx

00003b44 <l3667>:
    3b44:	5009e007 	andpl	lr, r9, r7

00003b48 <l3668>:
    3b48:	d01c0691 	mulsle	ip, r1, r6

00003b4c <l3669>:
    3b4c:	301c0393 	mulscc	ip, r3, r3

00003b50 <l3670>:
    3b50:	62105d99 	andsvs	r5, r0, #9792	; 0x2640

00003b54 <l3671>:
    3b54:	c01e0992 	mulsgt	lr, r2, r9

00003b58 <l3672>:
    3b58:	e00b0e9c 	mul	fp, ip, lr

00003b5c <l3673>:
    3b5c:	d0e61451 	rscle	r1, r6, r1, asr r4

00003b60 <l3674>:
    3b60:	e0454370 	sub	r4, r5, r0, ror r3

00003b64 <l3675>:
    3b64:	b1903a79 	orrslt	r3, r0, r9, ror sl

00003b68 <l3676>:
    3b68:	e00b7d49 	and	r7, fp, r9, asr #26

00003b6c <l3677>:
    3b6c:	e15909a5 	cmp	r9, r5, lsr #19

00003b70 <l3678>:
    3b70:	72465d51 	subvc	r5, r6, #5184	; 0x1440

00003b74 <l3679>:
    3b74:	51560a38 	cmppl	r6, r8, lsr sl

00003b78 <l3680>:
    3b78:	e0332664 	eors	r2, r3, r4, ror #12

00003b7c <l3681>:
    3b7c:	e1510a8f 	cmp	r1, pc, lsl #21

00003b80 <l3682>:
    3b80:	004be9e1 	subeq	lr, fp, r1, ror #19

00003b84 <l3683>:
    3b84:	10197064 	andsne	r7, r9, r4, rrx

00003b88 <l3684>:
    3b88:	501c099a 	mulspl	ip, sl, r9

00003b8c <l3685>:
    3b8c:	d032606c 	eorsle	r6, r2, ip, rrx

00003b90 <l3686>:
    3b90:	23963c69 	orrscs	r3, r6, #26880	; 0x6900

00003b94 <l3687>:
    3b94:	e0b12a76 	adcs	r2, r1, r6, ror sl

00003b98 <l3688>:
    3b98:	b0120a98 	mulslt	r2, r8, sl

00003b9c <l3689>:
    3b9c:	20463b32 	subcs	r3, r6, r2, lsr fp

00003ba0 <l3690>:
    3ba0:	e388b1e7 	orr	fp, r8, #-1073741767	; 0xc0000039

00003ba4 <l3691>:
    3ba4:	002f9009 	eoreq	r9, pc, r9

00003ba8 <l3692>:
    3ba8:	e0311069 	eors	r1, r1, r9, rrx

00003bac <l3693>:
    3bac:	e0a14466 	adc	r4, r1, r6, ror #8

00003bb0 <l3694>:
    3bb0:	e0125435 	ands	r5, r2, r5, lsr r4

00003bb4 <l3695>:
    3bb4:	d1b03379 	rorsle	r3, r9, r3

00003bb8 <l3696>:
    3bb8:	b0130991 	mulslt	r3, r1, r9

00003bbc <l3697>:
    3bbc:	5024968f 	eorpl	r9, r4, pc, lsl #13

00003bc0 <l3698>:
    3bc0:	e016089b 	muls	r6, fp, r8

00003bc4 <l3699>:
    3bc4:	a0040a96 	mulge	r4, r6, sl

00003bc8 <l3700>:
    3bc8:	901a019c 	mulsls	sl, ip, r1

00003bcc <l3701>:
    3bcc:	c0ebe615 	rscgt	lr, fp, r5, lsl r6

00003bd0 <l3702>:
    3bd0:	919c7005 	orrsls	r7, ip, r5

00003bd4 <l3703>:
    3bd4:	e003099e 	mul	r3, lr, r9

00003bd8 <l3704>:
    3bd8:	e0a52bcc 	adc	r2, r5, ip, asr #23

00003bdc <l3705>:
    3bdc:	11540007 	cmpne	r4, r7

00003be0 <l3706>:
    3be0:	90110b9b 	mulsls	r1, fp, fp

00003be4 <l3707>:
    3be4:	e0180c93 	muls	r8, r3, ip

00003be8 <l3708>:
    3be8:	0079bc5c 	rsbseq	fp, r9, ip, asr ip

00003bec <l3709>:
    3bec:	415b0008 	cmpmi	fp, r8

00003bf0 <l3710>:
    3bf0:	60090896 	mulvs	r9, r6, r8

00003bf4 <l3711>:
    3bf4:	b18ca657 	orrlt	sl, ip, r7, asr r6

00003bf8 <l3712>:
    3bf8:	e0207004 	eor	r7, r0, r4

00003bfc <l3713>:
    3bfc:	e0c26060 	sbc	r6, r2, r0, rrx

00003c00 <l3714>:
    3c00:	c01b0092 	mulsgt	fp, r2, r0

00003c04 <l3715>:
    3c04:	90040a99 	mulls	r4, r9, sl

00003c08 <l3716>:
    3c08:	e020955b 	eor	r9, r0, fp, asr r5

00003c0c <l3717>:
    3c0c:	50183008 	andspl	r3, r8, r8

00003c10 <l3718>:
    3c10:	50135008 	andspl	r5, r3, r8

00003c14 <l3719>:
    3c14:	e18eb360 	orr	fp, lr, r0, ror #6

00003c18 <l3720>:
    3c18:	e000099b 	mul	r0, fp, r9

00003c1c <l3721>:
    3c1c:	1009079e 	mulne	r9, lr, r7

00003c20 <l3722>:
    3c20:	81911057 	orrshi	r1, r1, r7, asr r0

00003c24 <l3723>:
    3c24:	e003039b 	mul	r3, fp, r3

00003c28 <l3724>:
    3c28:	50100798 	mulspl	r0, r8, r7

00003c2c <l3725>:
    3c2c:	e0a94620 	adc	r4, r9, r0, lsr #12

00003c30 <l3726>:
    3c30:	5014039e 	mulspl	r4, lr, r3

00003c34 <l3727>:
    3c34:	e009059c 	mul	r9, ip, r5

00003c38 <l3728>:
    3c38:	911e0609 	tstls	lr, r9, lsl #12

00003c3c <l3729>:
    3c3c:	d26b197f 	rsble	r1, fp, #2080768	; 0x1fc000

00003c40 <l3730>:
    3c40:	b0030a99 	mullt	r3, r9, sl

00003c44 <l3731>:
    3c44:	1019100b 	andsne	r1, r9, fp

00003c48 <l3732>:
    3c48:	e0321b26 	eors	r1, r2, r6, lsr #22

00003c4c <l3733>:
    3c4c:	e0761827 	rsbs	r1, r6, r7, lsr #16

00003c50 <l3734>:
    3c50:	000e0c9a 	muleq	lr, sl, ip

00003c54 <l3735>:
    3c54:	e0307741 	eors	r7, r0, r1, asr #14

00003c58 <l3736>:
    3c58:	601f4b8f 	andsvs	r4, pc, pc, lsl #23

00003c5c <l3737>:
    3c5c:	e00c0490 	mul	ip, r0, r4

00003c60 <l3738>:
    3c60:	e0e29175 	rsc	r9, r2, r5, ror r1

00003c64 <l3739>:
    3c64:	416f9f16 	clzmi	r9, r6

00003c68 <l3740>:
    3c68:	900a0795 	mulls	sl, r5, r7

00003c6c <l3741>:
    3c6c:	800a0992 	mulhi	sl, r2, r9

00003c70 <l3742>:
    3c70:	e017039b 	muls	r7, fp, r3

00003c74 <l3743>:
    3c74:	000e12ef 	andeq	r1, lr, pc, ror #5

00003c78 <l3744>:
    3c78:	301f6060 	andscc	r6, pc, r0, rrx

00003c7c <l3745>:
    3c7c:	e0090091 	mul	r9, r1, r0

00003c80 <l3746>:
    3c80:	c0150394 	mulsgt	r5, r4, r3

00003c84 <l3747>:
    3c84:	e171000e 	cmn	r1, lr

00003c88 <l3748>:
    3c88:	b02b801b 	eorlt	r8, fp, fp, lsl r0

00003c8c <l3749>:
    3c8c:	60881003 	addvs	r1, r8, r3

00003c90 <l3750>:
    3c90:	53a08819 	movpl	r8, #1638400	; 0x190000

00003c94 <l3751>:
    3c94:	e039beaf 	eors	fp, r9, pc, lsr #29

00003c98 <l3752>:
    3c98:	d0000492 	mulle	r0, r2, r4

00003c9c <l3753>:
    3c9c:	60fa4b8b 	rscsvs	r4, sl, fp, lsl #23

00003ca0 <l3754>:
    3ca0:	400e0998 	mulmi	lr, r8, r9

00003ca4 <l3755>:
    3ca4:	c0331b7c 	eorsgt	r1, r3, ip, ror fp

00003ca8 <l3756>:
    3ca8:	700e019b 	mulvc	lr, fp, r1

00003cac <l3757>:
    3cac:	e3780a2d 	cmn	r8, #184320	; 0x2d000

00003cb0 <l3758>:
    3cb0:	90150291 	mulsls	r5, r1, r2

00003cb4 <l3759>:
    3cb4:	816f6f19 	clzhi	r6, r9

00003cb8 <l3760>:
    3cb8:	302a99c1 	eorcc	r9, sl, r1, asr #19

00003cbc <l3761>:
    3cbc:	e00b0692 	mul	fp, r2, r6

00003cc0 <l3762>:
    3cc0:	e16fcf1a 	clz	ip, sl

00003cc4 <l3763>:
    3cc4:	b0793005 	rsbslt	r3, r9, r5

00003cc8 <l3764>:
    3cc8:	42526631 	subsmi	r6, r2, #51380224	; 0x3100000

00003ccc <l3765>:
    3ccc:	e2196806 	ands	r6, r9, #393216	; 0x60000

00003cd0 <l3766>:
    3cd0:	e17a0038 	cmn	sl, r8, lsr r0

00003cd4 <l3767>:
    3cd4:	e009089c 	mul	r9, ip, r8

00003cd8 <l3768>:
    3cd8:	51e00259 	mvnpl	r0, r9, asr r2

00003cdc <l3769>:
    3cdc:	e2409883 	sub	r9, r0, #8585216	; 0x830000

00003ce0 <l3770>:
    3ce0:	d0a6a174 	adcle	sl, r6, r4, ror r1

00003ce4 <l3771>:
    3ce4:	b01e0296 	mulslt	lr, r6, r2

00003ce8 <l3772>:
    3ce8:	7016029a 	mulsvc	r6, sl, r2

00003cec <l3773>:
    3cec:	e0180e93 	muls	r8, r3, lr

00003cf0 <l3774>:
    3cf0:	501c0690 	mulspl	ip, r0, r6

00003cf4 <l3775>:
    3cf4:	23995edf 	orrscs	r5, r9, #3568	; 0xdf0

00003cf8 <l3776>:
    3cf8:	511906ae 	tstpl	r9, lr, lsr #13

00003cfc <l3777>:
    3cfc:	1017a00e 	andsne	sl, r7, lr

00003d00 <l3778>:
    3d00:	e00c0a95 	mul	ip, r5, sl

00003d04 <l3779>:
    3d04:	e189406e 	orr	r4, r9, lr, rrx

00003d08 <l3780>:
    3d08:	1002099c 	mulne	r2, ip, r9

00003d0c <l3781>:
    3d0c:	e115000f 	tst	r5, pc

00003d10 <l3782>:
    3d10:	c01a0b93 	mulsgt	sl, r3, fp

00003d14 <l3783>:
    3d14:	c01fc00e 	andsgt	ip, pc, lr

00003d18 <l3784>:
    3d18:	e2e3c12b 	rsc	ip, r3, #-1073741814	; 0xc000000a

00003d1c <l3785>:
    3d1c:	01560e80 	cmpeq	r6, r0, lsl #29

00003d20 <l3786>:
    3d20:	e23ee533 	eors	lr, lr, #213909504	; 0xcc00000

00003d24 <l3787>:
    3d24:	e291355d 	adds	r3, r1, #390070272	; 0x17400000

00003d28 <l3788>:
    3d28:	e3b01a55 	movs	r1, #348160	; 0x55000

00003d2c <l3789>:
    3d2c:	5017906e 	andspl	r9, r7, lr, rrx

00003d30 <l3790>:
    3d30:	e1864064 	orr	r4, r6, r4, rrx

00003d34 <l3791>:
    3d34:	e1320007 	teq	r2, r7

00003d38 <l3792>:
    3d38:	403a6006 	eorsmi	r6, sl, r6

00003d3c <l3793>:
    3d3c:	30190e96 	mulscc	r9, r6, lr

00003d40 <l3794>:
    3d40:	e0000096 	mul	r0, r6, r0

00003d44 <l3795>:
    3d44:	c00b5b07 	andgt	r5, fp, r7, lsl #22

00003d48 <l3796>:
    3d48:	e1310ce5 	teq	r1, r5, ror #25

00003d4c <l3797>:
    3d4c:	e186c870 	orr	ip, r6, r0, ror r8

00003d50 <l3798>:
    3d50:	e1370002 	teq	r7, r2

00003d54 <l3799>:
    3d54:	e3510ad1 	cmp	r1, #856064	; 0xd1000

00003d58 <l3800>:
    3d58:	e00a0490 	mul	sl, r0, r4

00003d5c <l3801>:
    3d5c:	e0120190 	muls	r2, r0, r1

00003d60 <l3802>:
    3d60:	a01b3581 	andsge	r3, fp, r1, lsl #11

00003d64 <l3803>:
    3d64:	e1c8042a 	bic	r0, r8, sl, lsr #8

00003d68 <l3804>:
    3d68:	918cb523 	orrls	fp, ip, r3, lsr #10

00003d6c <l3805>:
    3d6c:	c0050892 	mulgt	r5, r2, r8

00003d70 <l3806>:
    3d70:	e014706a 	ands	r7, r4, sl, rrx

00003d74 <l3807>:
    3d74:	938f8003 	orrls	r8, pc, #3

00003d78 <l3808>:
    3d78:	e03cc5a0 	eors	ip, ip, r0, lsr #11

00003d7c <l3809>:
    3d7c:	20050591 	mulcs	r5, r1, r5

00003d80 <l3810>:
    3d80:	e0cb200e 	sbc	r2, fp, lr

00003d84 <l3811>:
    3d84:	e190657e 	orrs	r6, r0, lr, ror r5

00003d88 <l3812>:
    3d88:	b0007a09 	andlt	r7, r0, r9, lsl #20

00003d8c <l3813>:
    3d8c:	301b019e 	mulscc	fp, lr, r1

00003d90 <l3814>:
    3d90:	5013089c 	mulspl	r3, ip, r8

00003d94 <l3815>:
    3d94:	e01b0399 	muls	fp, r9, r3

00003d98 <l3816>:
    3d98:	10b7b00a 	adcsne	fp, r7, sl

00003d9c <l3817>:
    3d9c:	2018039b 	mulscs	r8, fp, r3

00003da0 <l3818>:
    3da0:	32fb0542 	rscscc	r0, fp, #276824064	; 0x10800000

00003da4 <l3819>:
    3da4:	e02a1b0e 	eor	r1, sl, lr, lsl #22

00003da8 <l3820>:
    3da8:	7095800a 	addsvc	r8, r5, sl

00003dac <l3821>:
    3dac:	a174006f 	cmnge	r4, pc, rrx

00003db0 <l3822>:
    3db0:	e00a0a99 	mul	sl, r9, sl

00003db4 <l3823>:
    3db4:	e208a7c1 	and	sl, r8, #50593792	; 0x3040000

00003db8 <l3824>:
    3db8:	e1110885 	tst	r1, r5, lsl #17

00003dbc <l3825>:
    3dbc:	1206cc55 	andne	ip, r6, #21760	; 0x5500

00003dc0 <l3826>:
    3dc0:	4001406f 	andmi	r4, r1, pc, rrx

00003dc4 <l3827>:
    3dc4:	e0140393 	muls	r4, r3, r3

00003dc8 <l3828>:
    3dc8:	b02f9064 	eorlt	r9, pc, r4, rrx

00003dcc <l3829>:
    3dcc:	20180e99 	mulscs	r8, r9, lr

00003dd0 <l3830>:
    3dd0:	9006676c 	andls	r6, r6, ip, ror #14

00003dd4 <l3831>:
    3dd4:	e0000396 	mul	r0, r6, r3

00003dd8 <l3832>:
    3dd8:	21931004 	orrscs	r1, r3, r4

00003ddc <l3833>:
    3ddc:	d01e059a 	mulsle	lr, sl, r5

00003de0 <l3834>:
    3de0:	400b592e 	andmi	r5, fp, lr, lsr #18

00003de4 <l3835>:
    3de4:	70130195 	mulsvc	r3, r5, r1

00003de8 <l3836>:
    3de8:	e00c4631 	and	r4, ip, r1, lsr r6

00003dec <l3837>:
    3dec:	338fc0ef 	orrcc	ip, pc, #239	; 0xef

00003df0 <l3838>:
    3df0:	e0060491 	mul	r6, r1, r4

00003df4 <l3839>:
    3df4:	1011a832 	andsne	sl, r1, r2, lsr r8

00003df8 <l3840>:
    3df8:	40ffb186 	rscsmi	fp, pc, r6, lsl #3

00003dfc <l3841>:
    3dfc:	90f98659 	rscsls	r8, r9, r9, asr r6

00003e00 <l3842>:
    3e00:	a0050294 	mulge	r5, r4, r2

00003e04 <l3843>:
    3e04:	500c8000 	andpl	r8, ip, r0

00003e08 <l3844>:
    3e08:	e0070e99 	mul	r7, r9, lr

00003e0c <l3845>:
    3e0c:	e0060c99 	mul	r6, r9, ip

00003e10 <l3846>:
    3e10:	e1d93008 	bics	r3, r9, r8

00003e14 <l3847>:
    3e14:	e0130197 	muls	r3, r7, r1

00003e18 <l3848>:
    3e18:	c16f6f13 	clzgt	r6, r3

00003e1c <l3849>:
    3e1c:	e16f0f11 	clz	r0, r1

00003e20 <l3850>:
    3e20:	e0000798 	mul	r0, r8, r7

00003e24 <l3851>:
    3e24:	50327918 	eorspl	r7, r2, r8, lsl r9

00003e28 <l3852>:
    3e28:	5023823a 	eorpl	r8, r3, sl, lsr r2

00003e2c <l3853>:
    3e2c:	901e0696 	mulsls	lr, r6, r6

00003e30 <l3854>:
    3e30:	c1b071c4 	asrsgt	r7, r4, #3

00003e34 <l3855>:
    3e34:	32c987aa 	sbccc	r8, r9, #44564480	; 0x2a80000

00003e38 <l3856>:
    3e38:	00160695 	mulseq	r6, r5, r6

00003e3c <l3857>:
    3e3c:	e0305c22 	eors	r5, r0, r2, lsr #24

00003e40 <l3858>:
    3e40:	b3cf3b2b 	biclt	r3, pc, #44032	; 0xac00

00003e44 <l3859>:
    3e44:	a0080593 	mulge	r8, r3, r5

00003e48 <l3860>:
    3e48:	21e05fae 	mvncs	r5, lr, lsr #31

00003e4c <l3861>:
    3e4c:	e00a8338 	and	r8, sl, r8, lsr r3

00003e50 <l3862>:
    3e50:	a0150c92 	mulsge	r5, r2, ip

00003e54 <l3863>:
    3e54:	e01b0b9e 	muls	fp, lr, fp

00003e58 <l3864>:
    3e58:	e25117cf 	subs	r1, r1, #54263808	; 0x33c0000

00003e5c <l3865>:
    3e5c:	81f0e008 	mvnshi	lr, r8

00003e60 <l3866>:
    3e60:	105e6de1 	subsne	r6, lr, r1, ror #27

00003e64 <l3867>:
    3e64:	c19c1f42 	orrsgt	r1, ip, r2, asr #30

00003e68 <l3868>:
    3e68:	e1f00064 	mvns	r0, r4, rrx

00003e6c <l3869>:
    3e6c:	e0a9bc3c 	adc	fp, r9, ip, lsr ip

00003e70 <l3870>:
    3e70:	e3f06c46 	mvns	r6, #17920	; 0x4600

00003e74 <l3871>:
    3e74:	20b9400b 	adcscs	r4, r9, fp

00003e78 <l3872>:
    3e78:	60197002 	andsvs	r7, r9, r2

00003e7c <l3873>:
    3e7c:	e0160697 	muls	r6, r7, r6

00003e80 <l3874>:
    3e80:	30150e93 	mulscc	r5, r3, lr

00003e84 <l3875>:
    3e84:	e076087a 	rsbs	r0, r6, sl, ror r8

00003e88 <l3876>:
    3e88:	1013019b 	mulsne	r3, fp, r1

00003e8c <l3877>:
    3e8c:	52251633 	eorpl	r1, r5, #53477376	; 0x3300000

00003e90 <l3878>:
    3e90:	80190993 	mulshi	r9, r3, r9

00003e94 <l3879>:
    3e94:	e230ed5a 	eors	lr, r0, #5760	; 0x1680

00003e98 <l3880>:
    3e98:	d2ef8bc5 	rscle	r8, pc, #201728	; 0x31400

00003e9c <l3881>:
    3e9c:	b0fb964e 	rscslt	r9, fp, lr, asr #12

00003ea0 <l3882>:
    3ea0:	739a5b72 	orrsvc	r5, sl, #116736	; 0x1c800

00003ea4 <l3883>:
    3ea4:	7009039e 	mulvc	r9, lr, r3

00003ea8 <l3884>:
    3ea8:	e38f5d93 	orr	r5, pc, #9408	; 0x24c0

00003eac <l3885>:
    3eac:	23e067c5 	mvncs	r6, #51642368	; 0x3140000

00003eb0 <l3886>:
    3eb0:	10020291 	mulne	r2, r1, r2

00003eb4 <l3887>:
    3eb4:	d018069e 	mulsle	r8, lr, r6

00003eb8 <l3888>:
    3eb8:	607f700b 	rsbsvs	r7, pc, fp

00003ebc <l3889>:
    3ebc:	701a019b 	mulsvc	sl, fp, r1

00003ec0 <l3890>:
    3ec0:	e20c978a 	and	r9, ip, #36175872	; 0x2280000

00003ec4 <l3891>:
    3ec4:	e033b830 	eors	fp, r3, r0, lsr r8

00003ec8 <l3892>:
    3ec8:	d073106a 	rsbsle	r1, r3, sl, rrx

00003ecc <l3893>:
    3ecc:	e20b04a9 	and	r0, fp, #-1459617792	; 0xa9000000

00003ed0 <l3894>:
    3ed0:	c00f400e 	andgt	r4, pc, lr

00003ed4 <l3895>:
    3ed4:	e1890065 	orr	r0, r9, r5, rrx

00003ed8 <l3896>:
    3ed8:	e18585ec 	orr	r8, r5, ip, ror #11

00003edc <l3897>:
    3edc:	120185ba 	andne	r8, r1, #780140544	; 0x2e800000

00003ee0 <l3898>:
    3ee0:	00170892 	mulseq	r7, r2, r8

00003ee4 <l3899>:
    3ee4:	e0020c97 	mul	r2, r7, ip

00003ee8 <l3900>:
    3ee8:	c158037a 	cmpgt	r8, sl, ror r3

00003eec <l3901>:
    3eec:	40afca2b 	adcmi	ip, pc, fp, lsr #20

00003ef0 <l3902>:
    3ef0:	e207bc16 	and	fp, r7, #5632	; 0x1600

00003ef4 <l3903>:
    3ef4:	90b9ea30 	adcsls	lr, r9, r0, lsr sl

00003ef8 <l3904>:
    3ef8:	60090894 	mulvs	r9, r4, r8

00003efc <l3905>:
    3efc:	01790069 	cmneq	r9, r9, rrx

00003f00 <l3906>:
    3f00:	202a243e 	eorcs	r2, sl, lr, lsr r4

00003f04 <l3907>:
    3f04:	e0150691 	muls	r5, r1, r6

00003f08 <l3908>:
    3f08:	e008300b 	and	r3, r8, fp

00003f0c <l3909>:
    3f0c:	c01c0096 	mulsgt	ip, r6, r0

00003f10 <l3910>:
    3f10:	809b87c8 	addshi	r8, fp, r8, asr #15

00003f14 <l3911>:
    3f14:	8018039c 	mulshi	r8, ip, r3

00003f18 <l3912>:
    3f18:	e19f43c9 	orrs	r4, pc, r9, asr #7

00003f1c <l3913>:
    3f1c:	e00906c5 	and	r0, r9, r5, asr #13

00003f20 <l3914>:
    3f20:	219375cc 	orrscs	r7, r3, ip, asr #11

00003f24 <l3915>:
    3f24:	e01b039a 	muls	fp, sl, r3

00003f28 <l3916>:
    3f28:	e00b089e 	mul	fp, lr, r8

00003f2c <l3917>:
    3f2c:	300a0796 	mulcc	sl, r6, r7

00003f30 <l3918>:
    3f30:	b1130002 	tstlt	r3, r2

00003f34 <l3919>:
    3f34:	e2919125 	adds	r9, r1, #1073741833	; 0x40000009

00003f38 <l3920>:
    3f38:	521c3832 	andspl	r3, ip, #3276800	; 0x320000

00003f3c <l3921>:
    3f3c:	1015c86e 	andsne	ip, r5, lr, ror #16

00003f40 <l3922>:
    3f40:	01f03000 	mvnseq	r3, r0

00003f44 <l3923>:
    3f44:	a249eb12 	subge	lr, r9, #18432	; 0x4800

00003f48 <l3924>:
    3f48:	100b0596 	mulne	fp, r6, r5

00003f4c <l3925>:
    3f4c:	e0100199 	muls	r0, r9, r1

00003f50 <l3926>:
    3f50:	e04f6069 	sub	r6, pc, r9, rrx

00003f54 <l3927>:
    3f54:	e0c55002 	sbc	r5, r5, r2

00003f58 <l3928>:
    3f58:	e0455003 	sub	r5, r5, r3

00003f5c <l3929>:
    3f5c:	e0137003 	ands	r7, r3, r3

00003f60 <l3930>:
    3f60:	11946002 	orrsne	r6, r4, r2

00003f64 <l3931>:
    3f64:	e0100098 	muls	r0, r8, r0

00003f68 <l3932>:
    3f68:	e17a063e 	cmn	sl, lr, lsr r6

00003f6c <l3933>:
    3f6c:	305f0064 	subscc	r0, pc, r4, rrx

00003f70 <l3934>:
    3f70:	e1a00066 	rrx	r0, r6

00003f74 <l3935>:
    3f74:	901a0b98 	mulsls	sl, r8, fp

00003f78 <l3936>:
    3f78:	c0080793 	mulgt	r8, r3, r7

00003f7c <l3937>:
    3f7c:	3186ce4e 	orrcc	ip, r6, lr, asr #28

00003f80 <l3938>:
    3f80:	e1770978 	cmn	r7, r8, ror r9

00003f84 <l3939>:
    3f84:	e0040998 	mul	r4, r8, r9

00003f88 <l3940>:
    3f88:	e044a332 	sub	sl, r4, r2, lsr r3

00003f8c <l3941>:
    3f8c:	222641ab 	eorcs	r4, r6, #-1073741782	; 0xc000002a

00003f90 <l3942>:
    3f90:	900c029a 	mulls	ip, sl, r2

00003f94 <l3943>:
    3f94:	e19a5004 	orrs	r5, sl, r4

00003f98 <l3944>:
    3f98:	20110895 	mulscs	r1, r5, r8

00003f9c <l3945>:
    3f9c:	c00a0698 	mulgt	sl, r8, r6

00003fa0 <l3946>:
    3fa0:	e0110e93 	muls	r1, r3, lr

00003fa4 <l3947>:
    3fa4:	e16f8f15 	clz	r8, r5

00003fa8 <l3948>:
    3fa8:	e0250751 	eor	r0, r5, r1, asr r7

00003fac <l3949>:
    3fac:	e1580152 	cmp	r8, r2, asr r1

00003fb0 <l3950>:
    3fb0:	1019019e 	mulsne	r9, lr, r1

00003fb4 <l3951>:
    3fb4:	41824a2e 	orrmi	r4, r2, lr, lsr #20

00003fb8 <l3952>:
    3fb8:	e1190003 	tst	r9, r3

00003fbc <l3953>:
    3fbc:	601a0a90 	mulsvs	sl, r0, sl

00003fc0 <l3954>:
    3fc0:	e0180b90 	muls	r8, r0, fp

00003fc4 <l3955>:
    3fc4:	e1e03615 	mvn	r3, r5, lsl r6

00003fc8 <l3956>:
    3fc8:	e019099e 	muls	r9, lr, r9

00003fcc <l3957>:
    3fcc:	e031c000 	eors	ip, r1, r0

00003fd0 <l3958>:
    3fd0:	80959071 	addshi	r9, r5, r1, ror r0

00003fd4 <l3959>:
    3fd4:	30080292 	mulcc	r8, r2, r2

00003fd8 <l3960>:
    3fd8:	e0d6722c 	sbcs	r7, r6, ip, lsr #4

00003fdc <l3961>:
    3fdc:	10090795 	mulne	r9, r5, r7

00003fe0 <l3962>:
    3fe0:	a332055e 	teqge	r2, #394264576	; 0x17800000

00003fe4 <l3963>:
    3fe4:	d0190c95 	mulsle	r9, r5, ip

00003fe8 <l3964>:
    3fe8:	e16f9f17 	clz	r9, r7

00003fec <l3965>:
    3fec:	e0150c91 	muls	r5, r1, ip

00003ff0 <l3966>:
    3ff0:	9084b064 	addls	fp, r4, r4, rrx

00003ff4 <l3967>:
    3ff4:	e00e3b04 	and	r3, lr, r4, lsl #22

00003ff8 <l3968>:
    3ff8:	b00b9613 	andlt	r9, fp, r3, lsl r6

00003ffc <l3969>:
    3ffc:	e01a0a91 	muls	sl, r1, sl

00004000 <l3970>:
    4000:	222f15e2 	eorcs	r1, pc, #947912704	; 0x38800000

00004004 <l3971>:
    4004:	20180799 	mulscs	r8, r9, r7

00004008 <l3972>:
    4008:	a0130c99 	mulsge	r3, r9, ip

0000400c <l3973>:
    400c:	e16f8f14 	clz	r8, r4

00004010 <l3974>:
    4010:	b199adc7 	orrslt	sl, r9, r7, asr #27

00004014 <l3975>:
    4014:	b082e001 	addlt	lr, r2, r1

00004018 <l3976>:
    4018:	9183a06a 	orrls	sl, r3, sl, rrx

0000401c <l3977>:
    401c:	e00b0a9e 	mul	fp, lr, sl

00004020 <l3978>:
    4020:	e01a0e90 	muls	sl, r0, lr

00004024 <l3979>:
    4024:	e0050490 	mul	r5, r0, r4

00004028 <l3980>:
    4028:	e0130c99 	muls	r3, r9, ip

0000402c <l3981>:
    402c:	10120c9b 	mulsne	r2, fp, ip

00004030 <l3982>:
    4030:	017a0000 	cmneq	sl, r0

00004034 <l3983>:
    4034:	50030595 	mulpl	r3, r5, r5

00004038 <l3984>:
    4038:	d0120895 	mulsle	r2, r5, r8

0000403c <l3985>:
    403c:	02a31d0f 	adceq	r1, r3, #960	; 0x3c0

00004040 <l3986>:
    4040:	0025900c 	eoreq	r9, r5, ip

00004044 <l3987>:
    4044:	40321c8b 	eorsmi	r1, r2, fp, lsl #25

00004048 <l3988>:
    4048:	820b2ce1 	andhi	r2, fp, #57600	; 0xe100

0000404c <l3989>:
    404c:	01f0806c 	mvnseq	r8, ip, rrx

00004050 <l3990>:
    4050:	e1150330 	tst	r5, r0, lsr r3

00004054 <l3991>:
    4054:	e0180991 	muls	r8, r1, r9

00004058 <l3992>:
    4058:	e0090390 	mul	r9, r0, r3

0000405c <l3993>:
    405c:	e017059e 	muls	r7, lr, r5

00004060 <l3994>:
    4060:	1088906a 	addne	r9, r8, sl, rrx

00004064 <l3995>:
    4064:	101a0396 	mulsne	sl, r6, r3

00004068 <l3996>:
    4068:	e21e2cc5 	ands	r2, lr, #50432	; 0xc500

0000406c <l3997>:
    406c:	e014069e 	muls	r4, lr, r6

00004070 <l3998>:
    4070:	0200e8b3 	andeq	lr, r0, #11730944	; 0xb30000

00004074 <l3999>:
    4074:	83130e46 	tsthi	r3, #1120	; 0x460

00004078 <l4000>:
    4078:	a0090191 	mulge	r9, r1, r1

0000407c <l4001>:
    407c:	e1340a50 	teq	r4, r0, asr sl

00004080 <l4002>:
    4080:	900a0699 	mulls	sl, r9, r6

00004084 <l4003>:
    4084:	4019089e 	mulsmi	r9, lr, r8

00004088 <l4004>:
    4088:	e1926000 	orrs	r6, r2, r0

0000408c <l4005>:
    408c:	e00c059b 	mul	ip, fp, r5

00004090 <l4006>:
    4090:	90050497 	mulls	r5, r7, r4

00004094 <l4007>:
    4094:	e1550357 	cmp	r5, r7, asr r3

00004098 <l4008>:
    4098:	e0130297 	muls	r3, r7, r2

0000409c <l4009>:
    409c:	e03f5003 	eors	r5, pc, r3

000040a0 <l4010>:
    40a0:	3331000a 	teqcc	r1, #10

000040a4 <l4011>:
    40a4:	41570934 	cmpmi	r7, r4, lsr r9

000040a8 <l4012>:
    40a8:	70d20b1e 	sbcsvc	r0, r2, lr, lsl fp

000040ac <l4013>:
    40ac:	e0050e9c 	mul	r5, ip, lr

000040b0 <l4014>:
    40b0:	20110293 	mulscs	r1, r3, r2

000040b4 <l4015>:
    40b4:	e0429915 	sub	r9, r2, r5, lsl r9

000040b8 <l4016>:
    40b8:	80160797 	mulshi	r6, r7, r7

000040bc <l4017>:
    40bc:	901a5007 	andsls	r5, sl, r7

000040c0 <l4018>:
    40c0:	80190991 	mulshi	r9, r1, r9

000040c4 <l4019>:
    40c4:	a0000691 	mulge	r0, r1, r6

000040c8 <l4020>:
    40c8:	9292c5b5 	addsls	ip, r2, #759169024	; 0x2d400000

000040cc <l4021>:
    40cc:	8032b336 	eorshi	fp, r2, r6, lsr r3

000040d0 <l4022>:
    40d0:	e1340009 	teq	r4, r9

000040d4 <l4023>:
    40d4:	82f89606 	rscshi	r9, r8, #6291456	; 0x600000

000040d8 <l4024>:
    40d8:	e1cf500f 	bic	r5, pc, pc

000040dc <l4025>:
    40dc:	8003089b 	mulhi	r3, fp, r8

000040e0 <l4026>:
    40e0:	e208723b 	and	r7, r8, #-1342177277	; 0xb0000003

000040e4 <l4027>:
    40e4:	e019019e 	muls	r9, lr, r1

000040e8 <l4028>:
    40e8:	616f5f18 	clzvs	r5, r8

000040ec <l4029>:
    40ec:	b0d0c51e 	sbcslt	ip, r0, lr, lsl r5

000040f0 <l4030>:
    40f0:	d18369aa 	orrle	r6, r3, sl, lsr #19

000040f4 <l4031>:
    40f4:	e22526b1 	eor	r2, r5, #185597952	; 0xb100000

000040f8 <l4032>:
    40f8:	e013079e 	muls	r3, lr, r7

000040fc <l4033>:
    40fc:	d0100195 	mulsle	r0, r5, r1

00004100 <l4034>:
    4100:	7259170a 	subsvc	r1, r9, #2621440	; 0x280000

00004104 <l4035>:
    4104:	50120393 	mulspl	r2, r3, r3

00004108 <l4036>:
    4108:	e01b039c 	muls	fp, ip, r3

0000410c <l4037>:
    410c:	e0010690 	mul	r1, r0, r6

00004110 <l4038>:
    4110:	c002049a 	mulgt	r2, sl, r4

00004114 <l4039>:
    4114:	e2098b01 	and	r8, r9, #1024	; 0x400

00004118 <l4040>:
    4118:	e0040e9a 	mul	r4, sl, lr

0000411c <l4041>:
    411c:	62288832 	eorvs	r8, r8, #3276800	; 0x320000

00004120 <l4042>:
    4120:	60019003 	andvs	r9, r1, r3

00004124 <l4043>:
    4124:	e0010e97 	mul	r1, r7, lr

00004128 <l4044>:
    4128:	e0c15007 	sbc	r5, r1, r7

0000412c <l4045>:
    412c:	e024b5aa 	eor	fp, r4, sl, lsr #11

00004130 <l4046>:
    4130:	51815002 	orrpl	r5, r1, r2

00004134 <l4047>:
    4134:	e0020999 	mul	r2, r9, r9

00004138 <l4048>:
    4138:	9181200f 	orrls	r2, r1, pc

0000413c <l4049>:
    413c:	e0180b9a 	muls	r8, sl, fp

00004140 <l4050>:
    4140:	e033e067 	eors	lr, r3, r7, rrx

00004144 <l4051>:
    4144:	b0113678 	andslt	r3, r1, r8, ror r6

00004148 <l4052>:
    4148:	e02e293e 	eor	r2, lr, lr, lsr r9

0000414c <l4053>:
    414c:	901c2007 	andsls	r2, ip, r7

00004150 <l4054>:
    4150:	e3a0e73e 	mov	lr, #16252928	; 0xf80000

00004154 <l4055>:
    4154:	e00e0991 	mul	lr, r1, r9

00004158 <l4056>:
    4158:	90b34001 	adcsls	r4, r3, r1

0000415c <l4057>:
    415c:	e01bc54f 	ands	ip, fp, pc, asr #10

00004160 <l4058>:
    4160:	221fa68e 	andscs	sl, pc, #148897792	; 0x8e00000

00004164 <l4059>:
    4164:	e004048b 	and	r0, r4, fp, lsl #9

00004168 <l4060>:
    4168:	e31c00e8 	tst	ip, #232	; 0xe8

0000416c <l4061>:
    416c:	e0030790 	mul	r3, r0, r7

00004170 <l4062>:
    4170:	70c3e50b 	sbcvc	lr, r3, fp, lsl #10

00004174 <l4063>:
    4174:	e0220e1a 	eor	r0, r2, sl, lsl lr

00004178 <l4064>:
    4178:	6010e000 	andsvs	lr, r0, r0

0000417c <l4065>:
    417c:	d1110005 	tstle	r1, r5

00004180 <l4066>:
    4180:	038c7109 	orreq	r7, ip, #1073741826	; 0x40000002

00004184 <l4067>:
    4184:	20ccb8e9 	sbccs	fp, ip, r9, ror #17

00004188 <l4068>:
    4188:	8001039c 	mulhi	r1, ip, r3

0000418c <l4069>:
    418c:	a0594988 	subsge	r4, r9, r8, lsl #19

00004190 <l4070>:
    4190:	e20ac072 	and	ip, sl, #114	; 0x72

00004194 <l4071>:
    4194:	e3b0e901 	movs	lr, #16384	; 0x4000

00004198 <l4072>:
    4198:	e16f8f11 	clz	r8, r1

0000419c <l4073>:
    419c:	e1f0ec66 	mvns	lr, r6, ror #24

000041a0 <l4074>:
    41a0:	a0772061 	rsbsge	r2, r7, r1, rrx

000041a4 <l4075>:
    41a4:	e11f0c01 	tst	pc, r1, lsl #24

000041a8 <l4076>:
    41a8:	5193493c 	orrspl	r4, r3, ip, lsr r9

000041ac <l4077>:
    41ac:	33720a5d 	cmncc	r2, #380928	; 0x5d000

000041b0 <l4078>:
    41b0:	101f774a 	andsne	r7, pc, sl, asr #14

000041b4 <l4079>:
    41b4:	d16f7f18 	clzle	r7, r8

000041b8 <l4080>:
    41b8:	9188c06a 	orrls	ip, r8, sl, rrx

000041bc <l4081>:
    41bc:	e1a03001 	mov	r3, r1

000041c0 <l4082>:
