
dpsmlal_5000.o:     file format elf32-littlearm


Disassembly of section .text:

00000000 <main>:
       0:	e05f000f 	subs	r0, pc, pc
       4:	e59fd000 	ldr	sp, [pc]	; c <val>
       8:	ea000000 	b	10 <next>

0000000c <val>:
       c:	000ffff0 	.word	0x000ffff0

00000010 <next>:
      10:	e59f1000 	ldr	r1, [pc]	; 18 <val1>
      14:	ea000000 	b	1c <next1>

00000018 <val1>:
      18:	fa138a17 	.word	0xfa138a17

0000001c <next1>:
      1c:	e59f2000 	ldr	r2, [pc]	; 24 <val2>
      20:	ea000000 	b	28 <next2>

00000024 <val2>:
      24:	3e3837f9 	.word	0x3e3837f9

00000028 <next2>:
      28:	e59f3000 	ldr	r3, [pc]	; 30 <val3>
      2c:	ea000000 	b	34 <next3>

00000030 <val3>:
      30:	c508b777 	.word	0xc508b777

00000034 <next3>:
      34:	e59f4000 	ldr	r4, [pc]	; 3c <val4>
      38:	ea000000 	b	40 <next4>

0000003c <val4>:
      3c:	e1ea3c01 	.word	0xe1ea3c01

00000040 <next4>:
      40:	e59f5000 	ldr	r5, [pc]	; 48 <val5>
      44:	ea000000 	b	4c <next5>

00000048 <val5>:
      48:	1d81d404 	.word	0x1d81d404

0000004c <next5>:
      4c:	e59f6000 	ldr	r6, [pc]	; 54 <val6>
      50:	ea000000 	b	58 <next6>

00000054 <val6>:
      54:	b0b02893 	.word	0xb0b02893

00000058 <next6>:
      58:	e59f7000 	ldr	r7, [pc]	; 60 <val7>
      5c:	ea000000 	b	64 <next7>

00000060 <val7>:
      60:	315472cd 	.word	0x315472cd

00000064 <next7>:
      64:	e59f8000 	ldr	r8, [pc]	; 6c <val8>
      68:	ea000000 	b	70 <next8>

0000006c <val8>:
      6c:	09ad9749 	.word	0x09ad9749

00000070 <next8>:
      70:	e59f9000 	ldr	r9, [pc]	; 78 <val9>
      74:	ea000000 	b	7c <next9>

00000078 <val9>:
      78:	4ae21d20 	.word	0x4ae21d20

0000007c <next9>:
      7c:	e59fa000 	ldr	sl, [pc]	; 84 <val10>
      80:	ea000000 	b	88 <next10>

00000084 <val10>:
      84:	05642bf8 	.word	0x05642bf8

00000088 <next10>:
      88:	e59fb000 	ldr	fp, [pc]	; 90 <val11>
      8c:	ea000000 	b	94 <next11>

00000090 <val11>:
      90:	458e16f5 	.word	0x458e16f5

00000094 <next11>:
      94:	e59fc000 	ldr	ip, [pc]	; 9c <val12>
      98:	ea000000 	b	a0 <next12>

0000009c <val12>:
      9c:	f7f458e5 	.word	0xf7f458e5

000000a0 <next12>:
      a0:	e59fe000 	ldr	lr, [pc]	; a8 <val14>
      a4:	ea000000 	b	ac <next14>

000000a8 <val14>:
      a8:	04cfc0ca 	.word	0x04cfc0ca

000000ac <next14>:
      ac:	e59f1000 	ldr	r1, [pc]	; b4 <val15>
      b0:	ea000000 	b	b8 <next15>

000000b4 <val15>:
      b4:	465cccf7 	.word	0x465cccf7

000000b8 <next15>:
      b8:	e58d1000 	str	r1, [sp]
      bc:	e59f1000 	ldr	r1, [pc]	; c4 <val16>
      c0:	ea000000 	b	c8 <next16>

000000c4 <val16>:
      c4:	1e878e4d 	.word	0x1e878e4d

000000c8 <next16>:
      c8:	e50d1004 	str	r1, [sp, #-4]
      cc:	e59f1000 	ldr	r1, [pc]	; d4 <val17>
      d0:	ea000000 	b	d8 <next17>

000000d4 <val17>:
      d4:	2c3b054f 	.word	0x2c3b054f

000000d8 <next17>:
      d8:	e50d1008 	str	r1, [sp, #-8]
      dc:	e59f1000 	ldr	r1, [pc]	; e4 <val18>
      e0:	ea000000 	b	e8 <next18>

000000e4 <val18>:
      e4:	b4a4b6a8 	.word	0xb4a4b6a8

000000e8 <next18>:
      e8:	e50d100c 	str	r1, [sp, #-12]
      ec:	e59f1000 	ldr	r1, [pc]	; f4 <val19>
      f0:	ea000000 	b	f8 <next19>

000000f4 <val19>:
      f4:	41709a25 	.word	0x41709a25

000000f8 <next19>:
      f8:	e50d1010 	str	r1, [sp, #-16]
      fc:	e59f1000 	ldr	r1, [pc]	; 104 <val20>
     100:	ea000000 	b	108 <next20>

00000104 <val20>:
     104:	d46361d9 	.word	0xd46361d9

00000108 <next20>:
     108:	e50d1014 	str	r1, [sp, #-20]
     10c:	e59f1000 	ldr	r1, [pc]	; 114 <val21>
     110:	ea000000 	b	118 <next21>

00000114 <val21>:
     114:	cbd9bbae 	.word	0xcbd9bbae

00000118 <next21>:
     118:	e50d1018 	str	r1, [sp, #-24]
     11c:	e59f1000 	ldr	r1, [pc]	; 124 <val22>
     120:	ea000000 	b	128 <next22>

00000124 <val22>:
     124:	092f8f13 	.word	0x092f8f13

00000128 <next22>:
     128:	e50d101c 	str	r1, [sp, #-28]
     12c:	e59f1000 	ldr	r1, [pc]	; 134 <val23>
     130:	ea000000 	b	138 <next23>

00000134 <val23>:
     134:	8cc2e584 	.word	0x8cc2e584

00000138 <next23>:
     138:	e50d1020 	str	r1, [sp, #-32]
     13c:	e59f1000 	ldr	r1, [pc]	; 144 <val24>
     140:	ea000000 	b	148 <next24>

00000144 <val24>:
     144:	febe8e29 	.word	0xfebe8e29

00000148 <next24>:
     148:	e50d1024 	str	r1, [sp, #-36]	; 0x24
     14c:	e59f1000 	ldr	r1, [pc]	; 154 <val25>
     150:	ea000000 	b	158 <next25>

00000154 <val25>:
     154:	26ee9b5d 	.word	0x26ee9b5d

00000158 <next25>:
     158:	e50d1028 	str	r1, [sp, #-40]	; 0x28
     15c:	e59f1000 	ldr	r1, [pc]	; 164 <val26>
     160:	ea000000 	b	168 <next26>

00000164 <val26>:
     164:	d2d423ce 	.word	0xd2d423ce

00000168 <next26>:
     168:	e50d102c 	str	r1, [sp, #-44]	; 0x2c
     16c:	e59f1000 	ldr	r1, [pc]	; 174 <val27>
     170:	ea000000 	b	178 <next27>

00000174 <val27>:
     174:	d160820f 	.word	0xd160820f

00000178 <next27>:
     178:	e50d1030 	str	r1, [sp, #-48]	; 0x30
     17c:	e59f1000 	ldr	r1, [pc]	; 184 <val28>
     180:	ea000000 	b	188 <next28>

00000184 <val28>:
     184:	323ad368 	.word	0x323ad368

00000188 <next28>:
     188:	e50d1034 	str	r1, [sp, #-52]	; 0x34
     18c:	e59f1000 	ldr	r1, [pc]	; 194 <val29>
     190:	ea000000 	b	198 <next29>

00000194 <val29>:
     194:	a583aa27 	.word	0xa583aa27

00000198 <next29>:
     198:	e50d1038 	str	r1, [sp, #-56]	; 0x38
     19c:	e59f1000 	ldr	r1, [pc]	; 1a4 <val30>
     1a0:	ea000000 	b	1a8 <next30>

000001a4 <val30>:
     1a4:	84d9affa 	.word	0x84d9affa

000001a8 <next30>:
     1a8:	e50d103c 	str	r1, [sp, #-60]	; 0x3c
     1ac:	e59f1000 	ldr	r1, [pc]	; 1b4 <val31>
     1b0:	ea000000 	b	1b8 <next31>

000001b4 <val31>:
     1b4:	304c2135 	.word	0x304c2135

000001b8 <next31>:
     1b8:	e50d1040 	str	r1, [sp, #-64]	; 0x40
     1bc:	e59f1000 	ldr	r1, [pc]	; 1c4 <val32>
     1c0:	ea000000 	b	1c8 <next32>

000001c4 <val32>:
     1c4:	203a1052 	.word	0x203a1052

000001c8 <next32>:
     1c8:	e50d1044 	str	r1, [sp, #-68]	; 0x44
     1cc:	e59f1000 	ldr	r1, [pc]	; 1d4 <val33>
     1d0:	ea000000 	b	1d8 <next33>

000001d4 <val33>:
     1d4:	a60aafc1 	.word	0xa60aafc1

000001d8 <next33>:
     1d8:	e50d1048 	str	r1, [sp, #-72]	; 0x48
     1dc:	e59f1000 	ldr	r1, [pc]	; 1e4 <val34>
     1e0:	ea000000 	b	1e8 <next34>

000001e4 <val34>:
     1e4:	ae9352b6 	.word	0xae9352b6

000001e8 <next34>:
     1e8:	e50d104c 	str	r1, [sp, #-76]	; 0x4c
     1ec:	e59f1000 	ldr	r1, [pc]	; 1f4 <val35>
     1f0:	ea000000 	b	1f8 <next35>

000001f4 <val35>:
     1f4:	beb75215 	.word	0xbeb75215

000001f8 <next35>:
     1f8:	e50d1050 	str	r1, [sp, #-80]	; 0x50

000001fc <l1>:
     1fc:	521b32e9 	andspl	r3, fp, #-1879048178	; 0x9000000e

00000200 <l2>:
     200:	e1db406b 	bics	r4, fp, fp, rrx

00000204 <l3>:
     204:	6026ca94 	mlavs	r6, r4, sl, ip

00000208 <l4>:
     208:	e11e025e 	tst	lr, lr, asr r2

0000020c <l5>:
     20c:	e0f97390 	smlals	r7, r9, r0, r3

00000210 <l6>:
     210:	b18002c5 	orrlt	r0, r0, r5, asr #5

00000214 <l7>:
     214:	b0020497 	mullt	r2, r7, r4

00000218 <l8>:
     218:	d1540003 	cmple	r4, r3

0000021c <l9>:
     21c:	e08b6064 	add	r6, fp, r4, rrx

00000220 <l10>:
     220:	d03e9e3a 	eorsle	r9, lr, sl, lsr lr

00000224 <l11>:
     224:	e11e076b 	tst	lr, fp, ror #14

00000228 <l12>:
     228:	e1e0706c 	mvn	r7, ip, rrx

0000022c <l13>:
     22c:	73370f7e 	teqvc	r7, #504	; 0x1f8

00000230 <l14>:
     230:	e24873ed 	sub	r7, r8, #-1275068413	; 0xb4000003

00000234 <l15>:
     234:	e0950997 	umulls	r0, r5, r7, r9

00000238 <l16>:
     238:	b0d2639c 	smullslt	r6, r2, ip, r3

0000023c <l17>:
     23c:	023822f5 	eorseq	r2, r8, #1342177295	; 0x5000000f

00000240 <l18>:
     240:	e0070b90 	mul	r7, r0, fp

00000244 <l19>:
     244:	e035b3e0 	eors	fp, r5, r0, ror #7

00000248 <l20>:
     248:	120980ca 	andne	r8, r9, #202	; 0xca

0000024c <l21>:
     24c:	31993718 	orrscc	r3, r9, r8, lsl r7

00000250 <l22>:
     250:	613c000f 	teqvs	ip, pc

00000254 <l23>:
     254:	e0b9c096 	umlals	ip, r9, r6, r0

00000258 <l24>:
     258:	d0917e95 	umullsle	r7, r1, r5, lr

0000025c <l25>:
     25c:	e3c1afc1 	bic	sl, r1, #772	; 0x304

00000260 <l26>:
     260:	e1927455 	orrs	r7, r2, r5, asr r4

00000264 <l27>:
     264:	b0879a9a 	umulllt	r9, r7, sl, sl

00000268 <l28>:
     268:	e0472062 	sub	r2, r7, r2, rrx

0000026c <l29>:
     26c:	e001006c 	and	r0, r1, ip, rrx

00000270 <l30>:
     270:	b027c094 	mlalt	r7, r4, r0, ip

00000274 <l31>:
     274:	e0b83199 	umlals	r3, r8, r9, r1

00000278 <l32>:
     278:	e0362636 	eors	r2, r6, r6, lsr r6

0000027c <l33>:
     27c:	10231898 	mlane	r3, r8, r8, r1

00000280 <l34>:
     280:	30926c95 	umullscc	r6, r2, r5, ip

00000284 <l35>:
     284:	72b9a2bd 	adcsvc	sl, r9, #-805306357	; 0xd000000b

00000288 <l36>:
     288:	e09e709b 	umulls	r7, lr, fp, r0

0000028c <l37>:
     28c:	a17a0004 	cmnge	sl, r4

00000290 <l38>:
     290:	e00f506c 	and	r5, pc, ip, rrx

00000294 <l39>:
     294:	d054600f 	subsle	r6, r4, pc

00000298 <l40>:
     298:	303ae064 	eorscc	lr, sl, r4, rrx

0000029c <l41>:
     29c:	60dc1692 	smullsvs	r1, ip, r2, r6

000002a0 <l42>:
     2a0:	200c8008 	andcs	r8, ip, r8

000002a4 <l43>:
     2a4:	e0170e9b 	muls	r7, fp, lr

000002a8 <l44>:
     2a8:	20a59a91 	umlalcs	r9, r5, r1, sl

000002ac <l45>:
     2ac:	20a5219b 	umlalcs	r2, r5, fp, r1

000002b0 <l46>:
     2b0:	b0d79c96 	smullslt	r9, r7, r6, ip

000002b4 <l47>:
     2b4:	e39995b9 	orrs	r9, r9, #775946240	; 0x2e400000

000002b8 <l48>:
     2b8:	e0180296 	muls	r8, r6, r2

000002bc <l49>:
     2bc:	e1d91a7a 	bics	r1, r9, sl, ror sl

000002c0 <l50>:
     2c0:	e01a0397 	muls	sl, r7, r3

000002c4 <l51>:
     2c4:	e180800f 	orr	r8, r0, pc

000002c8 <l52>:
     2c8:	30362aa0 	eorscc	r2, r6, r0, lsr #21

000002cc <l53>:
     2cc:	411f0007 	tstmi	pc, r7

000002d0 <l54>:
     2d0:	5043a00e 	subpl	sl, r3, lr

000002d4 <l55>:
     2d4:	e2449e3a 	sub	r9, r4, #928	; 0x3a0

000002d8 <l56>:
     2d8:	b0bc4795 	umlalslt	r4, ip, r5, r7

000002dc <l57>:
     2dc:	001a506e 	andseq	r5, sl, lr, rrx

000002e0 <l58>:
     2e0:	c0e5229b 	smlalgt	r2, r5, fp, r2

000002e4 <l59>:
     2e4:	d0ab5c9e 	umlalle	r5, fp, lr, ip

000002e8 <l60>:
     2e8:	b011421b 	andslt	r4, r1, fp, lsl r2

000002ec <l61>:
     2ec:	6188400c 	orrvs	r4, r8, ip

000002f0 <l62>:
     2f0:	11c1ecef 	bicne	lr, r1, pc, ror #25

000002f4 <l63>:
     2f4:	d0287e39 	eorle	r7, r8, r9, lsr lr

000002f8 <l64>:
     2f8:	e3a02837 	mov	r2, #3604480	; 0x370000

000002fc <l65>:
     2fc:	30e1eb95 	smlalcc	lr, r1, r5, fp

00000300 <l66>:
     300:	90e02b94 	smlalls	r2, r0, r4, fp

00000304 <l67>:
     304:	90a7989b 	umlalls	r9, r7, fp, r8

00000308 <l68>:
     308:	0023ae9e 	mlaeq	r3, lr, lr, sl

0000030c <l69>:
     30c:	e01ee34e 	ands	lr, lr, lr, asr #6

00000310 <l70>:
     310:	6059bb09 	subsvs	fp, r9, r9, lsl #22

00000314 <l71>:
     314:	303b1392 	mlascc	fp, r2, r3, r1

00000318 <l72>:
     318:	00b89638 	adcseq	r9, r8, r8, lsr r6

0000031c <l73>:
     31c:	00012458 	andeq	r2, r1, r8, asr r4

00000320 <l74>:
     320:	811a098c 	tsthi	sl, ip, lsl #19

00000324 <l75>:
     324:	e0b2529c 	umlals	r5, r2, ip, r2

00000328 <l76>:
     328:	e0140b9b 	muls	r4, fp, fp

0000032c <l77>:
     32c:	80fc900e 	rscshi	r9, ip, lr

00000330 <l78>:
     330:	e0cca690 	smull	sl, ip, r0, r6

00000334 <l79>:
     334:	e001475b 	and	r4, r1, fp, asr r7

00000338 <l80>:
     338:	e1ce8066 	bic	r8, lr, r6, rrx

0000033c <l81>:
     33c:	e2f84eb3 	rscs	r4, r8, #2864	; 0xb30

00000340 <l82>:
     340:	b0010792 	mullt	r1, r2, r7

00000344 <l83>:
     344:	01884007 	orreq	r4, r8, r7

00000348 <l84>:
     348:	e1a08866 	ror	r8, r6, #16

0000034c <l85>:
     34c:	e0be5a92 	umlals	r5, lr, r2, sl

00000350 <l86>:
     350:	208ac999 	umullcs	ip, sl, r9, r9

00000354 <l87>:
     354:	e0335907 	eors	r5, r3, r7, lsl #18

00000358 <l88>:
     358:	711b0273 	tstvc	fp, r3, ror r2

0000035c <l89>:
     35c:	00b51993 	umlalseq	r1, r5, r3, r9

00000360 <l90>:
     360:	80009c31 	andhi	r9, r0, r1, lsr ip

00000364 <l91>:
     364:	618f500e 	orrvs	r5, pc, lr

00000368 <l92>:
     368:	e030ca98 	mlas	r0, r8, sl, ip

0000036c <l93>:
     36c:	a16f6f10 	clzge	r6, r0

00000370 <l94>:
     370:	e19f2005 	orrs	r2, pc, r5

00000374 <l95>:
     374:	71810860 	orrvc	r0, r1, r0, ror #16

00000378 <l96>:
     378:	30025005 	andcc	r5, r2, r5

0000037c <l97>:
     37c:	b009900b 	andlt	r9, r9, fp

00000380 <l98>:
     380:	c0da7292 	smullsgt	r7, sl, r2, r2

00000384 <l99>:
     384:	e16f5f10 	clz	r5, r0

00000388 <l100>:
     388:	e098a008 	adds	sl, r8, r8

0000038c <l101>:
     38c:	20a5ea9c 	umlalcs	lr, r5, ip, sl

00000390 <l102>:
     390:	e00b0496 	mul	fp, r6, r4

00000394 <l103>:
     394:	30d86393 	smullscc	r6, r8, r3, r3

00000398 <l104>:
     398:	022fb9a9 	eoreq	fp, pc, #2768896	; 0x2a4000

0000039c <l105>:
     39c:	e0379398 	mlas	r7, r8, r3, r9

000003a0 <l106>:
     3a0:	a0b90296 	umlalsge	r0, r9, r6, r2

000003a4 <l107>:
     3a4:	520687ca 	andpl	r8, r6, #52953088	; 0x3280000

000003a8 <l108>:
     3a8:	e0299a70 	eor	r9, r9, r0, ror sl

000003ac <l109>:
     3ac:	602f7006 	eorvs	r7, pc, r6

000003b0 <l110>:
     3b0:	e1330006 	teq	r3, r6

000003b4 <l111>:
     3b4:	60be3b94 	umlalsvs	r3, lr, r4, fp

000003b8 <l112>:
     3b8:	11a0c81e 	lslne	ip, lr, r8

000003bc <l113>:
     3bc:	901f49a1 	andsls	r4, pc, r1, lsr #19

000003c0 <l114>:
     3c0:	6197a838 	orrsvs	sl, r7, r8, lsr r8

000003c4 <l115>:
     3c4:	e1560009 	cmp	r6, r9

000003c8 <l116>:
     3c8:	508e5479 	addpl	r5, lr, r9, ror r4

000003cc <l117>:
     3cc:	e13e0005 	teq	lr, r5

000003d0 <l118>:
     3d0:	1189c06b 	orrne	ip, r9, fp, rrx

000003d4 <l119>:
     3d4:	00c40692 	smulleq	r0, r4, r2, r6

000003d8 <l120>:
     3d8:	71ce600b 	bicvc	r6, lr, fp

000003dc <l121>:
     3dc:	c02e4003 	eorgt	r4, lr, r3

000003e0 <l122>:
     3e0:	31530b56 	cmpcc	r3, r6, asr fp

000003e4 <l123>:
     3e4:	81a02003 	movhi	r2, r3

000003e8 <l124>:
     3e8:	e0876395 	umull	r6, r7, r5, r3

000003ec <l125>:
     3ec:	e084b59e 	umull	fp, r4, lr, r5

000003f0 <l126>:
     3f0:	70e6909c 	smlalvc	r9, r6, ip, r0

000003f4 <l127>:
     3f4:	e0b9009c 	umlals	r0, r9, ip, r0

000003f8 <l128>:
     3f8:	20e49096 	smlalcs	r9, r4, r6, r0

000003fc <l129>:
     3fc:	e0e53599 	smlal	r3, r5, r9, r5

00000400 <l130>:
     400:	e0337752 	eors	r7, r3, r2, asr r7

00000404 <l131>:
     404:	6227a549 	eorvs	sl, r7, #306184192	; 0x12400000

00000408 <l132>:
     408:	62266d15 	eorvs	r6, r6, #1344	; 0x540

0000040c <l133>:
     40c:	e0902193 	umulls	r2, r0, r3, r1

00000410 <l134>:
     410:	e0fb819e 	smlals	r8, fp, lr, r1

00000414 <l135>:
     414:	e0b54b93 	umlals	r4, r5, r3, fp

00000418 <l136>:
     418:	b11e0009 	tstlt	lr, r9

0000041c <l137>:
     41c:	00b7a99e 	umlalseq	sl, r7, lr, r9

00000420 <l138>:
     420:	203b9b93 	mlascs	fp, r3, fp, r9

00000424 <l139>:
     424:	e0324006 	eors	r4, r2, r6

00000428 <l140>:
     428:	e05114a7 	subs	r1, r1, r7, lsr #9

0000042c <l141>:
     42c:	e18cb118 	orr	fp, ip, r8, lsl r1

00000430 <l142>:
     430:	80a19592 	umlalhi	r9, r1, r2, r5

00000434 <l143>:
     434:	e0080e94 	mul	r8, r4, lr

00000438 <l144>:
     438:	8094c006 	addshi	ip, r4, r6

0000043c <l145>:
     43c:	e33a0b59 	teq	sl, #91136	; 0x16400

00000440 <l146>:
     440:	e16f3f1c 	clz	r3, ip

00000444 <l147>:
     444:	e0cb3496 	smull	r3, fp, r6, r4

00000448 <l148>:
     448:	20db5993 	smullscs	r5, fp, r3, r9

0000044c <l149>:
     44c:	c0b8b49c 	umlalsgt	fp, r8, ip, r4

00000450 <l150>:
     450:	e025663a 	eor	r6, r5, sl, lsr r6

00000454 <l151>:
     454:	e01c2a83 	ands	r2, ip, r3, lsl #21

00000458 <l152>:
     458:	e0a9bb9c 	umlal	fp, r9, ip, fp

0000045c <l153>:
     45c:	804a9350 	subhi	r9, sl, r0, asr r3

00000460 <l154>:
     460:	e032200f 	eors	r2, r2, pc

00000464 <l155>:
     464:	e092074a 	adds	r0, r2, sl, asr #14

00000468 <l156>:
     468:	31ce4062 	biccc	r4, lr, r2, rrx

0000046c <l157>:
     46c:	e0d67992 	smulls	r7, r6, r2, r9

00000470 <l158>:
     470:	80f72c98 	smlalshi	r2, r7, r8, ip

00000474 <l159>:
     474:	5031b060 	eorspl	fp, r1, r0, rrx

00000478 <l160>:
     478:	3080709a 	umullcc	r7, r0, sl, r0

0000047c <l161>:
     47c:	e13c0061 	teq	ip, r1, rrx

00000480 <l162>:
     480:	e08ba392 	umull	sl, fp, r2, r3

00000484 <l163>:
     484:	700c0692 	mulvc	ip, r2, r6

00000488 <l164>:
     488:	71170d6e 	tstvc	r7, lr, ror #26

0000048c <l165>:
     48c:	1095c596 	umullsne	ip, r5, r6, r5

00000490 <l166>:
     490:	e19c6062 	orrs	r6, ip, r2, rrx

00000494 <l167>:
     494:	e01e0090 	muls	lr, r0, r0

00000498 <l168>:
     498:	61370864 	teqvs	r7, r4, ror #16

0000049c <l169>:
     49c:	e1130da9 	tst	r3, r9, lsr #27

000004a0 <l170>:
     4a0:	6036800c 	eorsvs	r8, r6, ip

000004a4 <l171>:
     4a4:	e09b7494 	umulls	r7, fp, r4, r4

000004a8 <l172>:
     4a8:	c0c13294 	smullgt	r3, r1, r4, r2

000004ac <l173>:
     4ac:	e2134121 	ands	r4, r3, #1073741832	; 0x40000008

000004b0 <l174>:
     4b0:	e091559c 	umulls	r5, r1, ip, r5

000004b4 <l175>:
     4b4:	b0ab2b30 	adclt	r2, fp, r0, lsr fp

000004b8 <l176>:
     4b8:	c194611e 	orrsgt	r6, r4, lr, lsl r1

000004bc <l177>:
     4bc:	316f6f1a 	clzcc	r6, sl

000004c0 <l178>:
     4c0:	11b04064 	rrxsne	r4, r4

000004c4 <l179>:
     4c4:	82306ce2 	eorshi	r6, r0, #57856	; 0xe200

000004c8 <l180>:
     4c8:	00d4117a 	sbcseq	r1, r4, sl, ror r1

000004cc <l181>:
     4cc:	e3869305 	orr	r9, r6, #335544320	; 0x14000000

000004d0 <l182>:
     4d0:	b0845297 	umulllt	r5, r4, r7, r2

000004d4 <l183>:
     4d4:	b0960793 	umullslt	r0, r6, r3, r7

000004d8 <l184>:
     4d8:	30289a9b 	mlacc	r8, fp, sl, r9

000004dc <l185>:
     4dc:	e1825009 	orr	r5, r2, r9

000004e0 <l186>:
     4e0:	60115361 	andsvs	r5, r1, r1, ror #6

000004e4 <l187>:
     4e4:	10abe890 	umlalne	lr, fp, r0, r8

000004e8 <l188>:
     4e8:	e18fc00a 	orr	ip, pc, sl

000004ec <l189>:
     4ec:	b09b689a 	umullslt	r6, fp, sl, r8

000004f0 <l190>:
     4f0:	e38be109 	orr	lr, fp, #1073741826	; 0x40000002

000004f4 <l191>:
     4f4:	e0b5949e 	umlals	r9, r5, lr, r4

000004f8 <l192>:
     4f8:	a01c1e73 	andsge	r1, ip, r3, ror lr

000004fc <l193>:
     4fc:	b2358309 	eorslt	r8, r5, #603979776	; 0x24000000

00000500 <l194>:
     500:	c0b4c293 	umlalsgt	ip, r4, r3, r2

00000504 <l195>:
     504:	10b67990 	umlalsne	r7, r6, r0, r9

00000508 <l196>:
     508:	10d17999 	smullsne	r7, r1, r9, r9

0000050c <l197>:
     50c:	7037369a 	mlasvc	r7, sl, r6, r3

00000510 <l198>:
     510:	e39c7dc3 	orrs	r7, ip, #12480	; 0x30c0

00000514 <l199>:
     514:	e0fc300a 	rscs	r3, ip, sl

00000518 <l200>:
     518:	e0110493 	muls	r1, r3, r4

0000051c <l201>:
     51c:	10a0689c 	umlalne	r6, r0, ip, r8

00000520 <l202>:
     520:	200b6ae3 	andcs	r6, fp, r3, ror #21

00000524 <l203>:
     524:	e0dbac9c 	smulls	sl, fp, ip, ip

00000528 <l204>:
     528:	e02b5c9e 	mla	fp, lr, ip, r5

0000052c <l205>:
     52c:	d0996e9b 	umullsle	r6, r9, fp, lr

00000530 <l206>:
     530:	e0040796 	mul	r4, r6, r7

00000534 <l207>:
     534:	5023c061 	eorpl	ip, r3, r1, rrx

00000538 <l208>:
     538:	80091062 	andhi	r1, r9, r2, rrx

0000053c <l209>:
     53c:	901b0197 	mulsls	fp, r7, r1

00000540 <l210>:
     540:	e05a925e 	subs	r9, sl, lr, asr r2

00000544 <l211>:
     544:	e0c46b9c 	smull	r6, r4, ip, fp

00000548 <l212>:
     548:	620e16c6 	andvs	r1, lr, #207618048	; 0xc600000

0000054c <l213>:
     54c:	80a24a16 	adchi	r4, r2, r6, lsl sl

00000550 <l214>:
     550:	d0d0a517 	sbcsle	sl, r0, r7, lsl r5

00000554 <l215>:
     554:	e3988487 	orrs	r8, r8, #-2030043136	; 0x87000000

00000558 <l216>:
     558:	c0e09e92 	smlalgt	r9, r0, r2, lr

0000055c <l217>:
     55c:	e0dc1a96 	smulls	r1, ip, r6, sl

00000560 <l218>:
     560:	e3310074 	teq	r1, #116	; 0x74

00000564 <l219>:
     564:	404e335b 	submi	r3, lr, fp, asr r3

00000568 <l220>:
     568:	c01e61e0 	andsgt	r6, lr, r0, ror #3

0000056c <l221>:
     56c:	e03a9012 	eors	r9, sl, r2, lsl r0

00000570 <l222>:
     570:	b17a0b21 	cmnlt	sl, r1, lsr #22

00000574 <l223>:
     574:	e1b0760b 	lsls	r7, fp, #12

00000578 <l224>:
     578:	c0dc9969 	sbcsgt	r9, ip, r9, ror #18

0000057c <l225>:
     57c:	e1e09413 	mvn	r9, r3, lsl r4

00000580 <l226>:
     580:	72707d9f 	rsbsvc	r7, r0, #10176	; 0x27c0

00000584 <l227>:
     584:	e15a0003 	cmp	sl, r3

00000588 <l228>:
     588:	e1f03002 	mvns	r3, r2

0000058c <l229>:
     58c:	e0932398 	umulls	r2, r3, r8, r3

00000590 <l230>:
     590:	72b7beba 	adcsvc	fp, r7, #2976	; 0xba0

00000594 <l231>:
     594:	e03fe123 	eors	lr, pc, r3, lsr #2

00000598 <l232>:
     598:	93c25af1 	bicls	r5, r2, #987136	; 0xf1000

0000059c <l233>:
     59c:	03e07807 	mvneq	r7, #458752	; 0x70000

000005a0 <l234>:
     5a0:	003aa699 	mlaseq	sl, r9, r6, sl

000005a4 <l235>:
     5a4:	e1907778 	orrs	r7, r0, r8, ror r7

000005a8 <l236>:
     5a8:	e00cbb7a 	and	fp, ip, sl, ror fp

000005ac <l237>:
     5ac:	60bb2c9e 	umlalsvs	r2, fp, lr, ip

000005b0 <l238>:
     5b0:	e0d24493 	smulls	r4, r2, r3, r4

000005b4 <l239>:
     5b4:	40336063 	eorsmi	r6, r3, r3, rrx

000005b8 <l240>:
     5b8:	70f9299a 	smlalsvc	r2, r9, sl, r9

000005bc <l241>:
     5bc:	e0fa1297 	smlals	r1, sl, r7, r2

000005c0 <l242>:
     5c0:	e017049b 	muls	r7, fp, r4

000005c4 <l243>:
     5c4:	d0da689b 	smullsle	r6, sl, fp, r8

000005c8 <l244>:
     5c8:	23550737 	cmpcs	r5, #14417920	; 0xdc0000

000005cc <l245>:
     5cc:	e39e7c29 	orrs	r7, lr, #10496	; 0x2900

000005d0 <l246>:
     5d0:	e38ba542 	orr	sl, fp, #276824064	; 0x10800000

000005d4 <l247>:
     5d4:	e056ca1c 	subs	ip, r6, ip, lsl sl

000005d8 <l248>:
     5d8:	40fb8332 	rscsmi	r8, fp, r2, lsr r3

000005dc <l249>:
     5dc:	e06b7008 	rsb	r7, fp, r8

000005e0 <l250>:
     5e0:	e3780122 	cmn	r8, #-2147483640	; 0x80000008

000005e4 <l251>:
     5e4:	e0ba3a98 	umlals	r3, sl, r8, sl

000005e8 <l252>:
     5e8:	11f071e4 	mvnsne	r7, r4, ror #3

000005ec <l253>:
     5ec:	e0350790 	mlas	r5, r0, r7, r0

000005f0 <l254>:
     5f0:	42f0ba25 	rscsmi	fp, r0, #151552	; 0x25000

000005f4 <l255>:
     5f4:	02631439 	rsbeq	r1, r3, #956301312	; 0x39000000

000005f8 <l256>:
     5f8:	e0b50396 	umlals	r0, r5, r6, r3

000005fc <l257>:
     5fc:	51a0c003 	movpl	ip, r3

00000600 <l258>:
     600:	a231a76d 	eorsge	sl, r1, #28573696	; 0x1b40000

00000604 <l259>:
     604:	80891797 	umullhi	r1, r9, r7, r7

00000608 <l260>:
     608:	40c0200a 	sbcmi	r2, r0, sl

0000060c <l261>:
     60c:	e036aa90 	mlas	r6, r0, sl, sl

00000610 <l262>:
     610:	e28bad06 	add	sl, fp, #384	; 0x180

00000614 <l263>:
     614:	e19c700e 	orrs	r7, ip, lr

00000618 <l264>:
     618:	80931797 	umullshi	r1, r3, r7, r7

0000061c <l265>:
     61c:	302a8b06 	eorcc	r8, sl, r6, lsl #22

00000620 <l266>:
     620:	40a4e592 	umlalmi	lr, r4, r2, r5

00000624 <l267>:
     624:	501a089e 	mulspl	sl, lr, r8

00000628 <l268>:
     628:	e38e70cc 	orr	r7, lr, #204	; 0xcc

0000062c <l269>:
     62c:	000bc06b 	andeq	ip, fp, fp, rrx

00000630 <l270>:
     630:	e01c8062 	ands	r8, ip, r2, rrx

00000634 <l271>:
     634:	e007b818 	and	fp, r7, r8, lsl r8

00000638 <l272>:
     638:	2079e006 	rsbscs	lr, r9, r6

0000063c <l273>:
     63c:	e180108e 	orr	r1, r0, lr, lsl #1

00000640 <l274>:
     640:	311404a1 	tstcc	r4, r1, lsr #9

00000644 <l275>:
     644:	b08a129b 	umulllt	r1, sl, fp, r2

00000648 <l276>:
     648:	d0f1706c 	rscsle	r7, r1, ip, rrx

0000064c <l277>:
     64c:	e001e253 	and	lr, r1, r3, asr r2

00000650 <l278>:
     650:	901ca065 	andsls	sl, ip, r5, rrx

00000654 <l279>:
     654:	00df6ac4 	sbcseq	r6, pc, r4, asr #21

00000658 <l280>:
     658:	70d14a9a 	smullsvc	r4, r1, sl, sl

0000065c <l281>:
     65c:	e031e679 	eors	lr, r1, r9, ror r6

00000660 <l282>:
     660:	c1c92065 	bicgt	r2, r9, r5, rrx

00000664 <l283>:
     664:	e20ce6a9 	and	lr, ip, #177209344	; 0xa900000

00000668 <l284>:
     668:	e0e20694 	smlal	r0, r2, r4, r6

0000066c <l285>:
     66c:	e1d84f02 	bics	r4, r8, r2, lsl #30

00000670 <l286>:
     670:	b037c69e 	mlaslt	r7, lr, r6, ip

00000674 <l287>:
     674:	e222a835 	eor	sl, r2, #3473408	; 0x350000

00000678 <l288>:
     678:	e206560a 	and	r5, r6, #10485760	; 0xa00000

0000067c <l289>:
     67c:	e22a8d1d 	eor	r8, sl, #1856	; 0x740

00000680 <l290>:
     680:	e0779739 	rsbs	r9, r7, r9, lsr r7

00000684 <l291>:
     684:	e09be99c 	umulls	lr, fp, ip, r9

00000688 <l292>:
     688:	e19cb347 	orrs	fp, ip, r7, asr #6

0000068c <l293>:
     68c:	7024c006 	eorvc	ip, r4, r6

00000690 <l294>:
     690:	e080ba94 	umull	fp, r0, r4, sl

00000694 <l295>:
     694:	10de1998 	smullsne	r1, lr, r8, r9

00000698 <l296>:
     698:	e0130b98 	muls	r3, r8, fp

0000069c <l297>:
     69c:	e190900a 	orrs	r9, r0, sl

000006a0 <l298>:
     6a0:	91875530 	orrls	r5, r7, r0, lsr r5

000006a4 <l299>:
     6a4:	7188b44f 	orrvc	fp, r8, pc, asr #8

000006a8 <l300>:
     6a8:	e029600a 	eor	r6, r9, sl

000006ac <l301>:
     6ac:	e0299c91 	mla	r9, r1, ip, r9

000006b0 <l302>:
     6b0:	50948993 	umullspl	r8, r4, r3, r9

000006b4 <l303>:
     6b4:	30e85899 	smlalcc	r5, r8, r9, r8

000006b8 <l304>:
     6b8:	d08ca067 	addle	sl, ip, r7, rrx

000006bc <l305>:
     6bc:	a15e080f 	cmpge	lr, pc, lsl #16

000006c0 <l306>:
     6c0:	91b00001 	movsls	r0, r1

000006c4 <l307>:
     6c4:	30212a9e 	mlacc	r1, lr, sl, r2

000006c8 <l308>:
     6c8:	7028eb95 	mlavc	r8, r5, fp, lr

000006cc <l309>:
     6cc:	40c14887 	sbcmi	r4, r1, r7, lsl #17

000006d0 <l310>:
     6d0:	e3c38271 	bic	r8, r3, #268435463	; 0x10000007

000006d4 <l311>:
     6d4:	e0db439e 	smulls	r4, fp, lr, r3

000006d8 <l312>:
     6d8:	1023e397 	mlane	r3, r7, r3, lr

000006dc <l313>:
     6dc:	e04fa985 	sub	sl, pc, r5, lsl #19

000006e0 <l314>:
     6e0:	0196283b 	orrseq	r2, r6, fp, lsr r8

000006e4 <l315>:
     6e4:	e03b500e 	eors	r5, fp, lr

000006e8 <l316>:
     6e8:	035903f1 	cmpeq	r9, #-1006632957	; 0xc4000003

000006ec <l317>:
     6ec:	e0d7b093 	smulls	fp, r7, r3, r0

000006f0 <l318>:
     6f0:	e0d3e394 	smulls	lr, r3, r4, r3

000006f4 <l319>:
     6f4:	21995870 	orrscs	r5, r9, r0, ror r8

000006f8 <l320>:
     6f8:	e3882c9d 	orr	r2, r8, #40192	; 0x9d00

000006fc <l321>:
     6fc:	e0f5209b 	smlals	r2, r5, fp, r0

00000700 <l322>:
     700:	e05b7512 	subs	r7, fp, r2, lsl r5

00000704 <l323>:
     704:	20ceb291 	smullcs	fp, lr, r1, r2

00000708 <l324>:
     708:	e35f0ecd 	cmp	pc, #3280	; 0xcd0

0000070c <l325>:
     70c:	70090e9e 	mulvc	r9, lr, lr

00000710 <l326>:
     710:	a038a080 	eorsge	sl, r8, r0, lsl #1

00000714 <l327>:
     714:	40382090 	mlasmi	r8, r0, r0, r2

00000718 <l328>:
     718:	716f7f1e 	clzvc	r7, lr

0000071c <l329>:
     71c:	e079100c 	rsbs	r1, r9, ip

00000720 <l330>:
     720:	c1e0455e 	mvngt	r4, lr, asr r5

00000724 <l331>:
     724:	e0396295 	mlas	r9, r5, r2, r6

00000728 <l332>:
     728:	001b0094 	mulseq	fp, r4, r0

0000072c <l333>:
     72c:	e009019a 	mul	r9, sl, r1

00000730 <l334>:
     730:	50e2b59a 	smlalpl	fp, r2, sl, r5

00000734 <l335>:
     734:	e0b3c89e 	umlals	ip, r3, lr, r8

00000738 <l336>:
     738:	20130b96 	mulscs	r3, r6, fp

0000073c <l337>:
     73c:	e192a065 	orrs	sl, r2, r5, rrx

00000740 <l338>:
     740:	e0ba599e 	umlals	r5, sl, lr, r9

00000744 <l339>:
     744:	e0e4389b 	smlal	r3, r4, fp, r8

00000748 <l340>:
     748:	e188583e 	orr	r5, r8, lr, lsr r8

0000074c <l341>:
     74c:	71530004 	cmpvc	r3, r4

00000750 <l342>:
     750:	e2566d31 	subs	r6, r6, #3136	; 0xc40

00000754 <l343>:
     754:	30155445 	andscc	r5, r5, r5, asr #8

00000758 <l344>:
     758:	e21c0dbd 	ands	r0, ip, #12096	; 0x2f40

0000075c <l345>:
     75c:	701ec07c 	andsvc	ip, lr, ip, ror r0

00000760 <l346>:
     760:	418771cf 	orrmi	r7, r7, pc, asr #3

00000764 <l347>:
     764:	e1938061 	orrs	r8, r3, r1, rrx

00000768 <l348>:
     768:	e1e0551e 	mvn	r5, lr, lsl r5

0000076c <l349>:
     76c:	e0214131 	eor	r4, r1, r1, lsr r1

00000770 <l350>:
     770:	e0140c9e 	muls	r4, lr, ip

00000774 <l351>:
     774:	b234bb29 	eorslt	fp, r4, #41984	; 0xa400

00000778 <l352>:
     778:	e0240062 	eor	r0, r4, r2, rrx

0000077c <l353>:
     77c:	e1930003 	orrs	r0, r3, r3

00000780 <l354>:
     780:	e0289e91 	mla	r8, r1, lr, r9

00000784 <l355>:
     784:	e3e01102 	mvn	r1, #-2147483648	; 0x80000000

00000788 <l356>:
     788:	b16f2f1a 	clzlt	r2, sl

0000078c <l357>:
     78c:	30008658 	andcc	r8, r0, r8, asr r6

00000790 <l358>:
     790:	e0162002 	ands	r2, r6, r2

00000794 <l359>:
     794:	10c1359c 	smullne	r3, r1, ip, r5

00000798 <l360>:
     798:	203a6a3c 	eorscs	r6, sl, ip, lsr sl

0000079c <l361>:
     79c:	b0ea475a 	rsclt	r4, sl, sl, asr r7

000007a0 <l362>:
     7a0:	c0d5989e 	smullsgt	r9, r5, lr, r8

000007a4 <l363>:
     7a4:	e0c61692 	smull	r1, r6, r2, r6

000007a8 <l364>:
     7a8:	816f3f1b 	clzhi	r3, fp

000007ac <l365>:
     7ac:	2191300f 	orrscs	r3, r1, pc

000007b0 <l366>:
     7b0:	e0d57e96 	smulls	r7, r5, r6, lr

000007b4 <l367>:
     7b4:	e199726f 	orrs	r7, r9, pc, ror #4

000007b8 <l368>:
     7b8:	7181ab13 	orrvc	sl, r1, r3, lsl fp

000007bc <l369>:
     7bc:	60f5a1a3 	rscsvs	sl, r5, r3, lsr #3

000007c0 <l370>:
     7c0:	402b6192 	mlami	fp, r2, r1, r6

000007c4 <l371>:
     7c4:	0045800e 	subeq	r8, r5, lr

000007c8 <l372>:
     7c8:	100b506f 	andne	r5, fp, pc, rrx

000007cc <l373>:
     7cc:	b3c02d29 	biclt	r2, r0, #2624	; 0xa40

000007d0 <l374>:
     7d0:	e0fe8696 	smlals	r8, lr, r6, r6

000007d4 <l375>:
     7d4:	10620258 	rsbne	r0, r2, r8, asr r2

000007d8 <l376>:
     7d8:	e386c10a 	orr	ip, r6, #-2147483646	; 0x80000002

000007dc <l377>:
     7dc:	b044ef4a 	sublt	lr, r4, sl, asr #30

000007e0 <l378>:
     7e0:	e0010796 	mul	r1, r6, r7

000007e4 <l379>:
     7e4:	718e1009 	orrvc	r1, lr, r9

000007e8 <l380>:
     7e8:	020bedeb 	andeq	lr, fp, #15040	; 0x3ac0

000007ec <l381>:
     7ec:	a0082003 	andge	r2, r8, r3

000007f0 <l382>:
     7f0:	e0c7b894 	smull	fp, r7, r4, r8

000007f4 <l383>:
     7f4:	a06681c6 	rsbge	r8, r6, r6, asr #3

000007f8 <l384>:
     7f8:	4175006a 	cmnmi	r5, sl, rrx

000007fc <l385>:
     7fc:	e31a0cce 	tst	sl, #52736	; 0xce00

00000800 <l386>:
     800:	13901111 	orrsne	r1, r0, #1073741828	; 0x40000004

00000804 <l387>:
     804:	c2308c0d 	eorsgt	r8, r0, #3328	; 0xd00

00000808 <l388>:
     808:	e193be38 	orrs	fp, r3, r8, lsr lr

0000080c <l389>:
     80c:	a02e2491 	mlage	lr, r1, r4, r2

00000810 <l390>:
     810:	c194e832 	orrsgt	lr, r4, r2, lsr r8

00000814 <l391>:
     814:	e1824c12 	orr	r4, r2, r2, lsl ip

00000818 <l392>:
     818:	e1f00032 	mvns	r0, r2, lsr r0

0000081c <l393>:
     81c:	b3c8257e 	biclt	r2, r8, #528482304	; 0x1f800000

00000820 <l394>:
     820:	2136000e 	teqcs	r6, lr

00000824 <l395>:
     824:	51c8ebea 	bicpl	lr, r8, sl, ror #23

00000828 <l396>:
     828:	60debe94 	smullsvs	fp, lr, r4, lr

0000082c <l397>:
     82c:	60400eaf 	subvs	r0, r0, pc, lsr #29

00000830 <l398>:
     830:	e0ecb005 	rsc	fp, ip, r5

00000834 <l399>:
     834:	51949565 	orrspl	r9, r4, r5, ror #10

00000838 <l400>:
     838:	50a13e97 	umlalpl	r3, r1, r7, lr

0000083c <l401>:
     83c:	e1801470 	orr	r1, r0, r0, ror r4

00000840 <l402>:
     840:	e17e0ca5 	cmn	lr, r5, lsr #25

00000844 <l403>:
     844:	e095ae97 	umulls	sl, r5, r7, lr

00000848 <l404>:
     848:	e0d62c93 	smulls	r2, r6, r3, ip

0000084c <l405>:
     84c:	e1884515 	orr	r4, r8, r5, lsl r5

00000850 <l406>:
     850:	e0067004 	and	r7, r6, r4

00000854 <l407>:
     854:	e0190291 	muls	r9, r1, r2

00000858 <l408>:
     858:	20160b94 	mulscs	r6, r4, fp

0000085c <l409>:
     85c:	538438a7 	orrpl	r3, r4, #10944512	; 0xa70000

00000860 <l410>:
     860:	539aa24f 	orrspl	sl, sl, #-268435452	; 0xf0000004

00000864 <l411>:
     864:	c1891128 	orrgt	r1, r9, r8, lsr #2

00000868 <l412>:
     868:	e090a693 	umulls	sl, r0, r3, r6

0000086c <l413>:
     86c:	e0c62b90 	smull	r2, r6, r0, fp

00000870 <l414>:
     870:	b0a60695 	umlallt	r0, r6, r5, r6

00000874 <l415>:
     874:	e0a8b69c 	umlal	fp, r8, ip, r6

00000878 <l416>:
     878:	e0294065 	eor	r4, r9, r5, rrx

0000087c <l417>:
     87c:	e1825005 	orr	r5, r2, r5

00000880 <l418>:
     880:	93d4808f 	bicsls	r8, r4, #143	; 0x8f

00000884 <l419>:
     884:	e0207008 	eor	r7, r0, r8

00000888 <l420>:
     888:	6135000c 	teqvs	r5, ip

0000088c <l421>:
     88c:	e06eb650 	rsb	fp, lr, r0, asr r6

00000890 <l422>:
     890:	01926061 	orrseq	r6, r2, r1, rrx

00000894 <l423>:
     894:	e0e2c59b 	smlal	ip, r2, fp, r5

00000898 <l424>:
     898:	e18ca90e 	orr	sl, ip, lr, lsl #18

0000089c <l425>:
     89c:	d13b0005 	teqle	fp, r5

000008a0 <l426>:
     8a0:	e1310007 	teq	r1, r7

000008a4 <l427>:
     8a4:	5191791e 	orrspl	r7, r1, lr, lsl r9

000008a8 <l428>:
     8a8:	22b04e6a 	adcscs	r4, r0, #1696	; 0x6a0

000008ac <l429>:
     8ac:	b228a761 	eorlt	sl, r8, #25427968	; 0x1840000

000008b0 <l430>:
     8b0:	b184a63a 	orrlt	sl, r4, sl, lsr r6

000008b4 <l431>:
     8b4:	a032b87c 	eorsge	fp, r2, ip, ror r8

000008b8 <l432>:
     8b8:	e0a06299 	umlal	r6, r0, r9, r2

000008bc <l433>:
     8bc:	e08a2197 	umull	r2, sl, r7, r1

000008c0 <l434>:
     8c0:	e19ca063 	orrs	sl, ip, r3, rrx

000008c4 <l435>:
     8c4:	e26e8b77 	rsb	r8, lr, #121856	; 0x1dc00

000008c8 <l436>:
     8c8:	e33f0026 	teq	pc, #38	; 0x26

000008cc <l437>:
     8cc:	e097049e 	umulls	r0, r7, lr, r4

000008d0 <l438>:
     8d0:	318ce005 	orrcc	lr, ip, r5

000008d4 <l439>:
     8d4:	e11e000e 	tst	lr, lr

000008d8 <l440>:
     8d8:	50c61009 	sbcpl	r1, r6, r9

000008dc <l441>:
     8dc:	d09e9190 	umullsle	r9, lr, r0, r1

000008e0 <l442>:
     8e0:	42910949 	addsmi	r0, r1, #1196032	; 0x124000

000008e4 <l443>:
     8e4:	e155000f 	cmp	r5, pc

000008e8 <l444>:
     8e8:	9031249e 	mlasls	r1, lr, r4, r2

000008ec <l445>:
     8ec:	718124a6 	orrvc	r2, r1, r6, lsr #9

000008f0 <l446>:
     8f0:	e0b0bc96 	umlals	fp, r0, r6, ip

000008f4 <l447>:
     8f4:	c19c0006 	orrsgt	r0, ip, r6

000008f8 <l448>:
     8f8:	e010a00f 	ands	sl, r0, pc

000008fc <l449>:
     8fc:	b184700a 	orrlt	r7, r4, sl

00000900 <l450>:
     900:	e0150a98 	muls	r5, r8, sl

00000904 <l451>:
     904:	c23910ea 	eorsgt	r1, r9, #234	; 0xea

00000908 <l452>:
     908:	d0024004 	andle	r4, r2, r4

0000090c <l453>:
     90c:	9004069c 	mulls	r4, ip, r6

00000910 <l454>:
     910:	11540bc8 	cmpne	r4, r8, asr #23

00000914 <l455>:
     914:	e18a700e 	orr	r7, sl, lr

00000918 <l456>:
     918:	e0b02c6b 	adcs	r2, r0, fp, ror #24

0000091c <l457>:
     91c:	e2862003 	add	r2, r6, #3

00000920 <l458>:
     920:	e0b6ca53 	adcs	ip, r6, r3, asr sl

00000924 <l459>:
     924:	e0ae4896 	umlal	r4, lr, r6, r8

00000928 <l460>:
     928:	4022c096 	mlami	r2, r6, r0, ip

0000092c <l461>:
     92c:	126ce38a 	rsbne	lr, ip, #671088642	; 0x28000002

00000930 <l462>:
     930:	e2000a3f 	and	r0, r0, #258048	; 0x3f000

00000934 <l463>:
     934:	30279394 	mlacc	r7, r4, r3, r9

00000938 <l464>:
     938:	10837194 	umullne	r7, r3, r4, r1

0000093c <l465>:
     93c:	d115035e 	tstle	r5, lr, asr r3

00000940 <l466>:
     940:	e1b06b7c 	rors	r6, ip, fp

00000944 <l467>:
     944:	d0b35990 	umlalsle	r5, r3, r0, r9

00000948 <l468>:
     948:	e0f9997e 	rscs	r9, r9, lr, ror r9

0000094c <l469>:
     94c:	01140578 	tsteq	r4, r8, ror r5

00000950 <l470>:
     950:	90020a94 	mulls	r2, r4, sl

00000954 <l471>:
     954:	e245723b 	sub	r7, r5, #-1342177277	; 0xb0000003

00000958 <l472>:
     958:	40171b40 	andsmi	r1, r7, r0, asr #22

0000095c <l473>:
     95c:	701b0b92 	mulsvc	fp, r2, fp

00000960 <l474>:
     960:	e0286277 	eor	r6, r8, r7, ror r2

00000964 <l475>:
     964:	e390b617 	orrs	fp, r0, #24117248	; 0x1700000

00000968 <l476>:
     968:	e0053066 	and	r3, r5, r6, rrx

0000096c <l477>:
     96c:	e196800b 	orrs	r8, r6, fp

00000970 <l478>:
     970:	40254c7e 	eormi	r4, r5, lr, ror ip

00000974 <l479>:
     974:	30269997 	mlacc	r6, r7, r9, r9

00000978 <l480>:
     978:	e31c082f 	tst	ip, #3080192	; 0x2f0000

0000097c <l481>:
     97c:	333e0571 	teqcc	lr, #473956352	; 0x1c400000

00000980 <l482>:
     980:	e3dc1159 	bics	r1, ip, #1073741846	; 0x40000016

00000984 <l483>:
     984:	d38c9c0f 	orrle	r9, ip, #3840	; 0xf00

00000988 <l484>:
     988:	e0e33775 	rsc	r3, r3, r5, ror r7

0000098c <l485>:
     98c:	e0205004 	eor	r5, r0, r4

00000990 <l486>:
     990:	e05c1001 	subs	r1, ip, r1

00000994 <l487>:
     994:	9202cbdd 	andls	ip, r2, #226304	; 0x37400

00000998 <l488>:
     998:	e0160e93 	muls	r6, r3, lr

0000099c <l489>:
     99c:	4009b687 	andmi	fp, r9, r7, lsl #13

000009a0 <l490>:
     9a0:	50887a9c 	umullpl	r7, r8, ip, sl

000009a4 <l491>:
     9a4:	20e7829b 	smlalcs	r8, r7, fp, r2

000009a8 <l492>:
     9a8:	5250320d 	subspl	r3, r0, #-805306368	; 0xd0000000

000009ac <l493>:
     9ac:	80253298 	mlahi	r5, r8, r2, r3

000009b0 <l494>:
     9b0:	916f3f1c 	clzls	r3, ip

000009b4 <l495>:
     9b4:	e1f01e30 	mvns	r1, r0, lsr lr

000009b8 <l496>:
     9b8:	40f29098 	smlalsmi	r9, r2, r8, r0

000009bc <l497>:
     9bc:	e0892690 	umull	r2, r9, r0, r6

000009c0 <l498>:
     9c0:	80150a94 	mulshi	r5, r4, sl

000009c4 <l499>:
     9c4:	e02a100c 	eor	r1, sl, ip

000009c8 <l500>:
     9c8:	80e74d88 	rschi	r4, r7, r8, lsl #27

000009cc <l501>:
     9cc:	204b8065 	subcs	r8, fp, r5, rrx

000009d0 <l502>:
     9d0:	e024a89a 	mla	r4, sl, r8, sl

000009d4 <l503>:
     9d4:	e15c0f44 	cmp	ip, r4, asr #30

000009d8 <l504>:
     9d8:	e0c01009 	sbc	r1, r0, r9

000009dc <l505>:
     9dc:	40223994 	mlami	r2, r4, r9, r3

000009e0 <l506>:
     9e0:	1260a803 	rsbne	sl, r0, #196608	; 0x30000

000009e4 <l507>:
     9e4:	e192306b 	orrs	r3, r2, fp, rrx

000009e8 <l508>:
     9e8:	e194a06c 	orrs	sl, r4, ip, rrx

000009ec <l509>:
     9ec:	e0c57898 	smull	r7, r5, r8, r8

000009f0 <l510>:
     9f0:	80f6e997 	smlalshi	lr, r6, r7, r9

000009f4 <l511>:
     9f4:	51100241 	tstpl	r0, r1, asr #4

000009f8 <l512>:
     9f8:	30807799 	umullcc	r7, r0, r9, r7

000009fc <l513>:
     9fc:	e18abb57 	orr	fp, sl, r7, asr fp

00000a00 <l514>:
     a00:	51d52536 	bicspl	r2, r5, r6, lsr r5

00000a04 <l515>:
     a04:	a173000a 	cmnge	r3, sl

00000a08 <l516>:
     a08:	c1590217 	cmpgt	r9, r7, lsl r2

00000a0c <l517>:
     a0c:	215a06c6 	cmpcs	sl, r6, asr #13

00000a10 <l518>:
     a10:	e02c9c37 	eor	r9, ip, r7, lsr ip

00000a14 <l519>:
     a14:	e0f3899a 	smlals	r8, r3, sl, r9

00000a18 <l520>:
     a18:	02297729 	eoreq	r7, r9, #10747904	; 0xa40000

00000a1c <l521>:
     a1c:	e211b06d 	ands	fp, r1, #109	; 0x6d

00000a20 <l522>:
     a20:	a0fc32eb 	rscsge	r3, ip, fp, ror #5

00000a24 <l523>:
     a24:	d026e192 	mlale	r6, r2, r1, lr

00000a28 <l524>:
     a28:	60b28a93 	umlalsvs	r8, r2, r3, sl

00000a2c <l525>:
     a2c:	5198600a 	orrspl	r6, r8, sl

00000a30 <l526>:
     a30:	e033b252 	eors	fp, r3, r2, asr r2

00000a34 <l527>:
     a34:	809b0596 	umullshi	r0, fp, r6, r5

00000a38 <l528>:
     a38:	e0247006 	eor	r7, r4, r6

00000a3c <l529>:
     a3c:	606820c4 	rsbvs	r2, r8, r4, asr #1

00000a40 <l530>:
     a40:	e0ca5b90 	smull	r5, sl, r0, fp

00000a44 <l531>:
     a44:	d0a7059e 	umlalle	r0, r7, lr, r5

00000a48 <l532>:
     a48:	e11a0004 	tst	sl, r4

00000a4c <l533>:
     a4c:	e0a49296 	umlal	r9, r4, r6, r2

00000a50 <l534>:
     a50:	52015e66 	andpl	r5, r1, #1632	; 0x660

00000a54 <l535>:
     a54:	b1140542 	tstlt	r4, r2, asr #10

00000a58 <l536>:
     a58:	b198b06f 	orrslt	fp, r8, pc, rrx

00000a5c <l537>:
     a5c:	d13c000f 	teqle	ip, pc

00000a60 <l538>:
     a60:	619875ac 	orrsvs	r7, r8, ip, lsr #11

00000a64 <l539>:
     a64:	339e95f3 	orrscc	r9, lr, #1019215872	; 0x3cc00000

00000a68 <l540>:
     a68:	3239c713 	eorscc	ip, r9, #4980736	; 0x4c0000

00000a6c <l541>:
     a6c:	e031719a 	mlas	r1, sl, r1, r7

00000a70 <l542>:
     a70:	01500064 	cmpeq	r0, r4, rrx

00000a74 <l543>:
     a74:	01740008 	cmneq	r4, r8

00000a78 <l544>:
     a78:	73b006b1 	movsvc	r0, #185597952	; 0xb100000

00000a7c <l545>:
     a7c:	40c7c798 	smullmi	ip, r7, r8, r7

00000a80 <l546>:
     a80:	e020b816 	eor	fp, r0, r6, lsl r8

00000a84 <l547>:
     a84:	e000b06e 	and	fp, r0, lr, rrx

00000a88 <l548>:
     a88:	e277324a 	rsbs	r3, r7, #-1610612732	; 0xa0000004

00000a8c <l549>:
     a8c:	93c3ee15 	bicls	lr, r3, #336	; 0x150

00000a90 <l550>:
     a90:	a0496a34 	subge	r6, r9, r4, lsr sl

00000a94 <l551>:
     a94:	b1969063 	orrslt	r9, r6, r3, rrx

00000a98 <l552>:
     a98:	e1911003 	orrs	r1, r1, r3

00000a9c <l553>:
     a9c:	b0196970 	andslt	r6, r9, r0, ror r9

00000aa0 <l554>:
     aa0:	e38278c9 	orr	r7, r2, #13172736	; 0xc90000

00000aa4 <l555>:
     aa4:	e015099a 	muls	r5, sl, r9

00000aa8 <l556>:
     aa8:	e116006b 	tst	r6, fp, rrx

00000aac <l557>:
     aac:	501c28a3 	andspl	r2, ip, r3, lsr #17

00000ab0 <l558>:
     ab0:	83510d5b 	cmphi	r1, #5824	; 0x16c0

00000ab4 <l559>:
     ab4:	717a061c 	cmnvc	sl, ip, lsl r6

00000ab8 <l560>:
     ab8:	30b30191 	umlalscc	r0, r3, r1, r1

00000abc <l561>:
     abc:	b2fe069e 	rscslt	r0, lr, #165675008	; 0x9e00000

00000ac0 <l562>:
     ac0:	b1d21ae2 	bicslt	r1, r2, r2, ror #21

00000ac4 <l563>:
     ac4:	60856192 	umullvs	r6, r5, r2, r1

00000ac8 <l564>:
     ac8:	d063906e 	rsble	r9, r3, lr, rrx

00000acc <l565>:
     acc:	019f4006 	orrseq	r4, pc, r6

00000ad0 <l566>:
     ad0:	e1790007 	cmn	r9, r7

00000ad4 <l567>:
     ad4:	9249992a 	subls	r9, r9, #688128	; 0xa8000

00000ad8 <l568>:
     ad8:	9178070a 	cmnls	r8, sl, lsl #14

00000adc <l569>:
     adc:	e1902982 	orrs	r2, r0, r2, lsl #19

00000ae0 <l570>:
     ae0:	b01e5139 	andslt	r5, lr, r9, lsr r1

00000ae4 <l571>:
     ae4:	00c01297 	smulleq	r1, r0, r7, r2

00000ae8 <l572>:
     ae8:	205c4067 	subscs	r4, ip, r7, rrx

00000aec <l573>:
     aec:	a0ba192a 	adcsge	r1, sl, sl, lsr #18

00000af0 <l574>:
     af0:	e0efc00f 	rsc	ip, pc, pc

00000af4 <l575>:
     af4:	22078777 	andcs	r8, r7, #31195136	; 0x1dc0000

00000af8 <l576>:
     af8:	e1e0e004 	mvn	lr, r4

00000afc <l577>:
     afc:	60279737 	eorvs	r9, r7, r7, lsr r7

00000b00 <l578>:
     b00:	21f02006 	mvnscs	r2, r6

00000b04 <l579>:
     b04:	01a0628e 	lsleq	r6, lr, #5

00000b08 <l580>:
     b08:	9038726a 	eorsls	r7, r8, sl, ror #4

00000b0c <l581>:
     b0c:	e0e87c9c 	smlal	r7, r8, ip, ip

00000b10 <l582>:
     b10:	015a0862 	cmpeq	sl, r2, ror #16

00000b14 <l583>:
     b14:	42862237 	addmi	r2, r6, #1879048195	; 0x70000003

00000b18 <l584>:
     b18:	e0f0569b 	smlals	r5, r0, fp, r6

00000b1c <l585>:
     b1c:	b0a94a93 	umlallt	r4, r9, r3, sl

00000b20 <l586>:
     b20:	e2f6ab83 	rscs	sl, r6, #134144	; 0x20c00

00000b24 <l587>:
     b24:	40010e99 	mulmi	r1, r9, lr

00000b28 <l588>:
     b28:	20169253 	andscs	r9, r6, r3, asr r2

00000b2c <l589>:
     b2c:	e15e0141 	cmp	lr, r1, asr #2

00000b30 <l590>:
     b30:	01160350 	tsteq	r6, r0, asr r3

00000b34 <l591>:
     b34:	00e3a392 	smlaleq	sl, r3, r2, r3

00000b38 <l592>:
     b38:	91590000 	cmpls	r9, r0

00000b3c <l593>:
     b3c:	e07e8e2f 	rsbs	r8, lr, pc, lsr #28

00000b40 <l594>:
     b40:	a0eb8007 	rscge	r8, fp, r7

00000b44 <l595>:
     b44:	e021c00c 	eor	ip, r1, ip

00000b48 <l596>:
     b48:	e13a0007 	teq	sl, r7

00000b4c <l597>:
     b4c:	90e9829a 	smlalls	r8, r9, sl, r2

00000b50 <l598>:
     b50:	e00807c3 	and	r0, r8, r3, asr #15

00000b54 <l599>:
     b54:	20a75993 	umlalcs	r5, r7, r3, r9

00000b58 <l600>:
     b58:	e082ba9e 	umull	fp, r2, lr, sl

00000b5c <l601>:
     b5c:	403a6399 	mlasmi	sl, r9, r3, r6

00000b60 <l602>:
     b60:	21380002 	teqcs	r8, r2

00000b64 <l603>:
     b64:	e0de9e95 	smulls	r9, lr, r5, lr

00000b68 <l604>:
     b68:	d0f48090 	smlalsle	r8, r4, r0, r0

00000b6c <l605>:
     b6c:	40180c99 	mulsmi	r8, r9, ip

00000b70 <l606>:
     b70:	e1d04030 	bics	r4, r0, r0, lsr r0

00000b74 <l607>:
     b74:	b038c00e 	eorslt	ip, r8, lr

00000b78 <l608>:
     b78:	e0214e95 	mla	r1, r5, lr, r4

00000b7c <l609>:
     b7c:	e0679005 	rsb	r9, r7, r5

00000b80 <l610>:
     b80:	21b0e673 	rorscs	lr, r3, r6

00000b84 <l611>:
     b84:	600fe42c 	andvs	lr, pc, ip, lsr #8

00000b88 <l612>:
     b88:	e0a07004 	adc	r7, r0, r4

00000b8c <l613>:
     b8c:	e0d1a297 	smulls	sl, r1, r7, r2

00000b90 <l614>:
     b90:	818c73c9 	orrhi	r7, ip, r9, asr #7

00000b94 <l615>:
     b94:	e0270893 	mla	r7, r3, r8, r0

00000b98 <l616>:
     b98:	c0562b78 	subsgt	r2, r6, r8, ror fp

00000b9c <l617>:
     b9c:	e0f3e791 	smlals	lr, r3, r1, r7

00000ba0 <l618>:
     ba0:	0213914e 	andseq	r9, r3, #-2147483629	; 0x80000013

00000ba4 <l619>:
     ba4:	c0097004 	andgt	r7, r9, r4

00000ba8 <l620>:
     ba8:	40b28958 	adcsmi	r8, r2, r8, asr r9

00000bac <l621>:
     bac:	e080e69a 	umull	lr, r0, sl, r6

00000bb0 <l622>:
     bb0:	e195e001 	orrs	lr, r5, r1

00000bb4 <l623>:
     bb4:	e0950596 	umulls	r0, r5, r6, r5

00000bb8 <l624>:
     bb8:	e09ba999 	umulls	sl, fp, r9, r9

00000bbc <l625>:
     bbc:	01909e74 	orrseq	r9, r0, r4, ror lr

00000bc0 <l626>:
     bc0:	50b8a193 	umlalspl	sl, r8, r3, r1

00000bc4 <l627>:
     bc4:	217a0005 	cmncs	sl, r5

00000bc8 <l628>:
     bc8:	e0323008 	eors	r3, r2, r8

00000bcc <l629>:
     bcc:	8011311c 	andshi	r3, r1, ip, lsl r1

00000bd0 <l630>:
     bd0:	e0992897 	umulls	r2, r9, r7, r8

00000bd4 <l631>:
     bd4:	00981b93 	umullseq	r1, r8, r3, fp

00000bd8 <l632>:
     bd8:	e0ee8390 	smlal	r8, lr, r0, r3

00000bdc <l633>:
     bdc:	c0373004 	eorsgt	r3, r7, r4

00000be0 <l634>:
     be0:	e0a71c9c 	umlal	r1, r7, ip, ip

00000be4 <l635>:
     be4:	a16fbf12 	clzge	fp, r2

00000be8 <l636>:
     be8:	e1835c0c 	orr	r5, r3, ip, lsl #24

00000bec <l637>:
     bec:	30de2c9a 	smullscc	r2, lr, sl, ip

00000bf0 <l638>:
     bf0:	2009039a 	mulcs	r9, sl, r3

00000bf4 <l639>:
     bf4:	809c1c99 	umullshi	r1, ip, r9, ip

00000bf8 <l640>:
     bf8:	508a1068 	addpl	r1, sl, r8, rrx

00000bfc <l641>:
     bfc:	820ac915 	andhi	ip, sl, #344064	; 0x54000

00000c00 <l642>:
     c00:	e1f01250 	mvns	r1, r0, asr r2

00000c04 <l643>:
     c04:	82a72a37 	adchi	r2, r7, #225280	; 0x37000

00000c08 <l644>:
     c08:	e02e5079 	eor	r5, lr, r9, ror r0

00000c0c <l645>:
     c0c:	e0abea91 	umlal	lr, fp, r1, sl

00000c10 <l646>:
     c10:	d0c7bc9e 	smullle	fp, r7, lr, ip

00000c14 <l647>:
     c14:	d028bb93 	mlale	r8, r3, fp, fp

00000c18 <l648>:
     c18:	21180a42 	tstcs	r8, r2, asr #20

00000c1c <l649>:
     c1c:	61350259 	teqvs	r5, r9, asr r2

00000c20 <l650>:
     c20:	20b51c9a 	umlalscs	r1, r5, sl, ip

00000c24 <l651>:
     c24:	80b93291 	umlalshi	r3, r9, r1, r2

00000c28 <l652>:
     c28:	81820a44 	orrhi	r0, r2, r4, asr #20

00000c2c <l653>:
     c2c:	9226cc4a 	eorls	ip, r6, #18944	; 0x4a00

00000c30 <l654>:
     c30:	d0c83a97 	smullle	r3, r8, r7, sl

00000c34 <l655>:
     c34:	e0457d60 	sub	r7, r5, r0, ror #26

00000c38 <l656>:
     c38:	70130b9a 	mulsvc	r3, sl, fp

00000c3c <l657>:
     c3c:	e20c2b32 	and	r2, ip, #51200	; 0xc800

00000c40 <l658>:
     c40:	70633218 	rsbvc	r3, r3, r8, lsl r2

00000c44 <l659>:
     c44:	5184e00e 	orrpl	lr, r4, lr

00000c48 <l660>:
     c48:	e03ceb7b 	eors	lr, ip, fp, ror fp

00000c4c <l661>:
     c4c:	50fc9006 	rscspl	r9, ip, r6

00000c50 <l662>:
     c50:	e0071006 	and	r1, r7, r6

00000c54 <l663>:
     c54:	a1780005 	cmnge	r8, r5

00000c58 <l664>:
     c58:	70ac3240 	adcvc	r3, ip, r0, asr #4

00000c5c <l665>:
     c5c:	e185c066 	orr	ip, r5, r6, rrx

00000c60 <l666>:
     c60:	e398c60f 	orrs	ip, r8, #15728640	; 0xf00000

00000c64 <l667>:
     c64:	e17c0a58 	cmn	ip, r8, asr sl

00000c68 <l668>:
     c68:	e0d09394 	smulls	r9, r0, r4, r3

00000c6c <l669>:
     c6c:	30258234 	eorcc	r8, r5, r4, lsr r2

00000c70 <l670>:
     c70:	e183621e 	orr	r6, r3, lr, lsl r2

00000c74 <l671>:
     c74:	71dec87e 	bicsvc	ip, lr, lr, ror r8

00000c78 <l672>:
     c78:	207eb003 	rsbscs	fp, lr, r3

00000c7c <l673>:
     c7c:	622c6e47 	eorvs	r6, ip, #1136	; 0x470

00000c80 <l674>:
     c80:	e0c6aa90 	smull	sl, r6, r0, sl

00000c84 <l675>:
     c84:	e0132a14 	ands	r2, r3, r4, lsl sl

00000c88 <l676>:
     c88:	e13a0177 	teq	sl, r7, ror r1

00000c8c <l677>:
     c8c:	60550155 	subsvs	r0, r5, r5, asr r1

00000c90 <l678>:
     c90:	6097069a 	umullsvs	r0, r7, sl, r6

00000c94 <l679>:
     c94:	e01a0b91 	muls	sl, r1, fp

00000c98 <l680>:
     c98:	201e0098 	mulscs	lr, r8, r0

00000c9c <l681>:
     c9c:	e0048d67 	and	r8, r4, r7, ror #26

00000ca0 <l682>:
     ca0:	e0cebc94 	smull	fp, lr, r4, ip

00000ca4 <l683>:
     ca4:	e1100374 	tst	r0, r4, ror r3

00000ca8 <l684>:
     ca8:	e02e1696 	mla	lr, r6, r6, r1

00000cac <l685>:
     cac:	10b46132 	adcsne	r6, r4, r2, lsr r1

00000cb0 <l686>:
     cb0:	c020cec2 	eorgt	ip, r0, r2, asr #29

00000cb4 <l687>:
     cb4:	b093a59c 	umullslt	sl, r3, ip, r5

00000cb8 <l688>:
     cb8:	e1a04e7a 	ror	r4, sl, lr

00000cbc <l689>:
     cbc:	e1f080a2 	mvns	r8, r2, lsr #1

00000cc0 <l690>:
     cc0:	c0c5c292 	smullgt	ip, r5, r2, r2

00000cc4 <l691>:
     cc4:	80d9b998 	smullshi	fp, r9, r8, r9

00000cc8 <l692>:
     cc8:	7055200a 	subsvc	r2, r5, sl

00000ccc <l693>:
     ccc:	e0587008 	subs	r7, r8, r8

00000cd0 <l694>:
     cd0:	e212166a 	ands	r1, r2, #111149056	; 0x6a00000

00000cd4 <l695>:
     cd4:	81b0e00c 	movshi	lr, ip

00000cd8 <l696>:
     cd8:	a19f9068 	orrsge	r9, pc, r8, rrx

00000cdc <l697>:
     cdc:	e0308916 	eors	r8, r0, r6, lsl r9

00000ce0 <l698>:
     ce0:	e1a07ee4 	ror	r7, r4, #29

00000ce4 <l699>:
     ce4:	5004306e 	andpl	r3, r4, lr, rrx

00000ce8 <l700>:
     ce8:	e0f0300e 	rscs	r3, r0, lr

00000cec <l701>:
     cec:	e0f0419e 	smlals	r4, r0, lr, r1

00000cf0 <l702>:
     cf0:	d0d15a35 	sbcsle	r5, r1, r5, lsr sl

00000cf4 <l703>:
     cf4:	90ca4096 	smullls	r4, sl, r6, r0

00000cf8 <l704>:
     cf8:	3215cfdf 	andscc	ip, r5, #892	; 0x37c

00000cfc <l705>:
     cfc:	e0d91066 	sbcs	r1, r9, r6, rrx

00000d00 <l706>:
     d00:	50be9004 	adcspl	r9, lr, r4

00000d04 <l707>:
     d04:	e0343290 	mlas	r4, r0, r2, r3

00000d08 <l708>:
     d08:	601bec38 	andsvs	lr, fp, r8, lsr ip

00000d0c <l709>:
     d0c:	c01a0299 	mulsgt	sl, r9, r2

00000d10 <l710>:
     d10:	e1944067 	orrs	r4, r4, r7, rrx

00000d14 <l711>:
     d14:	218b4000 	orrcs	r4, fp, r0

00000d18 <l712>:
     d18:	e026379c 	mla	r6, ip, r7, r3

00000d1c <l713>:
     d1c:	22bf1acf 	adcscs	r1, pc, #847872	; 0xcf000

00000d20 <l714>:
     d20:	302608a5 	eorcc	r0, r6, r5, lsr #17

00000d24 <l715>:
     d24:	b0150397 	mulslt	r5, r7, r3

00000d28 <l716>:
     d28:	e03a1695 	mlas	sl, r5, r6, r1

00000d2c <l717>:
     d2c:	70c9859e 	smullvc	r8, r9, lr, r5

00000d30 <l718>:
     d30:	e1859008 	orr	r9, r5, r8

00000d34 <l719>:
     d34:	135100fc 	cmpne	r1, #252	; 0xfc

00000d38 <l720>:
     d38:	11925004 	orrsne	r5, r2, r4

00000d3c <l721>:
     d3c:	305ea068 	subscc	sl, lr, r8, rrx

00000d40 <l722>:
     d40:	818b6003 	orrhi	r6, fp, r3

00000d44 <l723>:
     d44:	3008e00b 	andcc	lr, r8, fp

00000d48 <l724>:
     d48:	e20a0042 	and	r0, sl, #66	; 0x42

00000d4c <l725>:
     d4c:	c22fa939 	eorgt	sl, pc, #933888	; 0xe4000

00000d50 <l726>:
     d50:	6392b000 	orrsvs	fp, r2, #0

00000d54 <l727>:
     d54:	d02411c9 	eorle	r1, r4, r9, asr #3

00000d58 <l728>:
     d58:	e019cca3 	ands	ip, r9, r3, lsr #25

00000d5c <l729>:
     d5c:	d0b40692 	umlalsle	r0, r4, r2, r6

00000d60 <l730>:
     d60:	e11806eb 	tst	r8, fp, ror #13

00000d64 <l731>:
     d64:	a019059e 	mulsge	r9, lr, r5

00000d68 <l732>:
     d68:	41700a47 	cmnmi	r0, r7, asr #20

00000d6c <l733>:
     d6c:	e0d4159c 	smulls	r1, r4, ip, r5

00000d70 <l734>:
     d70:	e0090296 	mul	r9, r6, r2

00000d74 <l735>:
     d74:	d2ab1a12 	adcle	r1, fp, #73728	; 0x12000

00000d78 <l736>:
     d78:	e21f8cee 	ands	r8, pc, #60928	; 0xee00

00000d7c <l737>:
     d7c:	e1f0500e 	mvns	r5, lr

00000d80 <l738>:
     d80:	6029ca95 	mlavs	r9, r5, sl, ip

00000d84 <l739>:
     d84:	40d3c396 	smullsmi	ip, r3, r6, r3

00000d88 <l740>:
     d88:	b024b002 	eorlt	fp, r4, r2

00000d8c <l741>:
     d8c:	e35e04be 	cmp	lr, #-1107296256	; 0xbe000000

00000d90 <l742>:
     d90:	208eb992 	umullcs	fp, lr, r2, r9

00000d94 <l743>:
     d94:	e0080e9c 	mul	r8, ip, lr

00000d98 <l744>:
     d98:	90e763cb 	rscls	r6, r7, fp, asr #7

00000d9c <l745>:
     d9c:	30160193 	mulscc	r6, r3, r1

00000da0 <l746>:
     da0:	50564783 	subspl	r4, r6, r3, lsl #15

00000da4 <l747>:
     da4:	4033b000 	eorsmi	fp, r3, r0

00000da8 <l748>:
     da8:	218b4955 	orrcs	r4, fp, r5, asr r9

00000dac <l749>:
     dac:	e19a2001 	orrs	r2, sl, r1

00000db0 <l750>:
     db0:	e19271c8 	orrs	r7, r2, r8, asr #3

00000db4 <l751>:
     db4:	e11b0b15 	tst	fp, r5, lsl fp

00000db8 <l752>:
     db8:	22258f9a 	eorcs	r8, r5, #616	; 0x268

00000dbc <l753>:
     dbc:	e1a06068 	rrx	r6, r8

00000dc0 <l754>:
     dc0:	e199bf21 	orrs	fp, r9, r1, lsr #30

00000dc4 <l755>:
     dc4:	e0f13003 	rscs	r3, r1, r3

00000dc8 <l756>:
     dc8:	e0a18893 	umlal	r8, r1, r3, r8

00000dcc <l757>:
     dcc:	02a16139 	adceq	r6, r1, #1073741838	; 0x4000000e

00000dd0 <l758>:
     dd0:	e0c6eb94 	smull	lr, r6, r4, fp

00000dd4 <l759>:
     dd4:	303316c8 	eorscc	r1, r3, r8, asr #13

00000dd8 <l760>:
     dd8:	908fb062 	addls	fp, pc, r2, rrx

00000ddc <l761>:
     ddc:	e0f40791 	smlals	r0, r4, r1, r7

00000de0 <l762>:
     de0:	e0c0949b 	smull	r9, r0, fp, r4

00000de4 <l763>:
     de4:	e03a6494 	mlas	sl, r4, r4, r6

00000de8 <l764>:
     de8:	d1d26067 	bicsle	r6, r2, r7, rrx

00000dec <l765>:
     dec:	e013019c 	muls	r3, ip, r1

00000df0 <l766>:
     df0:	70fe7c95 	smlalsvc	r7, lr, r5, ip

00000df4 <l767>:
     df4:	41948904 	orrsmi	r8, r4, r4, lsl #18

00000df8 <l768>:
     df8:	3008a06f 	andcc	sl, r8, pc, rrx

00000dfc <l769>:
     dfc:	d2af9503 	adcle	r9, pc, #12582912	; 0xc00000

00000e00 <l770>:
     e00:	e01e0396 	muls	lr, r6, r3

00000e04 <l771>:
     e04:	e03f0000 	eors	r0, pc, r0

00000e08 <l772>:
     e08:	a1807e5b 	orrge	r7, r0, fp, asr lr

00000e0c <l773>:
     e0c:	705e000c 	subsvc	r0, lr, ip

00000e10 <l774>:
     e10:	a1d4963c 	bicsge	r9, r4, ip, lsr r6

00000e14 <l775>:
     e14:	70250c91 	mlavc	r5, r1, ip, r0

00000e18 <l776>:
     e18:	e0b3ab95 	umlals	sl, r3, r5, fp

00000e1c <l777>:
     e1c:	e0367498 	mlas	r6, r8, r4, r7

00000e20 <l778>:
     e20:	e03e0496 	mlas	lr, r6, r4, r0

00000e24 <l779>:
     e24:	e0f1579e 	smlals	r5, r1, lr, r7

00000e28 <l780>:
     e28:	72121115 	andsvc	r1, r2, #1073741829	; 0x40000005

00000e2c <l781>:
     e2c:	10a96295 	umlalne	r6, r9, r5, r2

00000e30 <l782>:
     e30:	e0190495 	muls	r9, r5, r4

00000e34 <l783>:
     e34:	d00e0399 	mulle	lr, r9, r3

00000e38 <l784>:
     e38:	70ac8062 	adcvc	r8, ip, r2, rrx

00000e3c <l785>:
     e3c:	e138006c 	teq	r8, ip, rrx

00000e40 <l786>:
     e40:	e0170099 	muls	r7, r9, r0

00000e44 <l787>:
     e44:	e0be6491 	umlals	r6, lr, r1, r4

00000e48 <l788>:
     e48:	e3998e3d 	orrs	r8, r9, #976	; 0x3d0

00000e4c <l789>:
     e4c:	e0aa7a96 	umlal	r7, sl, r6, sl

00000e50 <l790>:
     e50:	e0b1e99a 	umlals	lr, r1, sl, r9

00000e54 <l791>:
     e54:	a233766b 	eorsge	r7, r3, #112197632	; 0x6b00000

00000e58 <l792>:
     e58:	018e5407 	orreq	r5, lr, r7, lsl #8

00000e5c <l793>:
     e5c:	e1c7800e 	bic	r8, r7, lr

00000e60 <l794>:
     e60:	e383e391 	orr	lr, r3, #1140850690	; 0x44000002

00000e64 <l795>:
     e64:	e0f03995 	smlals	r3, r0, r5, r9

00000e68 <l796>:
     e68:	e2760014 	rsbs	r0, r6, #20

00000e6c <l797>:
     e6c:	51a0b852 	asrpl	fp, r2, r8

00000e70 <l798>:
     e70:	d05a7373 	subsle	r7, sl, r3, ror r3

00000e74 <l799>:
     e74:	0008e003 	andeq	lr, r8, r3

00000e78 <l800>:
     e78:	e0b3a991 	umlals	sl, r3, r1, r9

00000e7c <l801>:
     e7c:	00aea692 	umlaleq	sl, lr, r2, r6

00000e80 <l802>:
     e80:	e13f0da3 	teq	pc, r3, lsr #27

00000e84 <l803>:
     e84:	e1969634 	orrs	r9, r6, r4, lsr r6

00000e88 <l804>:
     e88:	e0ec349b 	smlal	r3, ip, fp, r4

00000e8c <l805>:
     e8c:	e0a56292 	umlal	r6, r5, r2, r2

00000e90 <l806>:
     e90:	923a880e 	eorsls	r8, sl, #917504	; 0xe0000

00000e94 <l807>:
     e94:	a16f3f11 	clzge	r3, r1

00000e98 <l808>:
     e98:	e255b90b 	subs	fp, r5, #180224	; 0x2c000

00000e9c <l809>:
     e9c:	52208951 	eorpl	r8, r0, #1327104	; 0x144000

00000ea0 <l810>:
     ea0:	e1c26066 	bic	r6, r2, r6, rrx

00000ea4 <l811>:
     ea4:	d1b0e062 	rrxsle	lr, r2

00000ea8 <l812>:
     ea8:	90170067 	andsls	r0, r7, r7, rrx

00000eac <l813>:
     eac:	c0020b9e 	mulgt	r2, lr, fp

00000eb0 <l814>:
     eb0:	60ee8599 	smlalvs	r8, lr, r9, r5

00000eb4 <l815>:
     eb4:	b0a74b96 	umlallt	r4, r7, r6, fp

00000eb8 <l816>:
     eb8:	20370275 	eorscs	r0, r7, r5, ror r2

00000ebc <l817>:
     ebc:	e082ce97 	umull	ip, r2, r7, lr

00000ec0 <l818>:
     ec0:	c0831a94 	umullgt	r1, r3, r4, sl

00000ec4 <l819>:
     ec4:	903ce4ce 	eorsls	lr, ip, lr, asr #9

00000ec8 <l820>:
     ec8:	e2038d11 	and	r8, r3, #1088	; 0x440

00000ecc <l821>:
     ecc:	e1821060 	orr	r1, r2, r0, rrx

00000ed0 <l822>:
     ed0:	e03c6616 	eors	r6, ip, r6, lsl r6

00000ed4 <l823>:
     ed4:	700c5260 	andvc	r5, ip, r0, ror #4

00000ed8 <l824>:
     ed8:	e0336304 	eors	r6, r3, r4, lsl #6

00000edc <l825>:
     edc:	e0e73094 	smlal	r3, r7, r4, r0

00000ee0 <l826>:
     ee0:	e1b01212 	lsls	r1, r2, r2

00000ee4 <l827>:
     ee4:	e35e0ac1 	cmp	lr, #790528	; 0xc1000

00000ee8 <l828>:
     ee8:	03a0ab23 	moveq	sl, #35840	; 0x8c00

00000eec <l829>:
     eec:	9028a06e 	eorls	sl, r8, lr, rrx

00000ef0 <l830>:
     ef0:	30856b9e 	umullcc	r6, r5, lr, fp

00000ef4 <l831>:
     ef4:	801bcc3a 	andshi	ip, fp, sl, lsr ip

00000ef8 <l832>:
     ef8:	e1f01452 	mvns	r1, r2, asr r4

00000efc <l833>:
     efc:	60839a90 	umullvs	r9, r3, r0, sl

00000f00 <l834>:
     f00:	9199213c 	orrsls	r2, r9, ip, lsr r1

00000f04 <l835>:
     f04:	30184006 	andscc	r4, r8, r6

00000f08 <l836>:
     f08:	e03be595 	mlas	fp, r5, r5, lr

00000f0c <l837>:
     f0c:	e0100096 	muls	r0, r6, r0

00000f10 <l838>:
     f10:	609b0994 	umullsvs	r0, fp, r4, r9

00000f14 <l839>:
     f14:	a02b761c 	eorge	r7, fp, ip, lsl r6

00000f18 <l840>:
     f18:	b0050e98 	mullt	r5, r8, lr

00000f1c <l841>:
     f1c:	c2d79179 	sbcsgt	r9, r7, #1073741854	; 0x4000001e

00000f20 <l842>:
     f20:	7358005f 	cmpvc	r8, #95	; 0x5f

00000f24 <l843>:
     f24:	9022100a 	eorls	r1, r2, sl

00000f28 <l844>:
     f28:	12230635 	eorne	r0, r3, #55574528	; 0x3500000

00000f2c <l845>:
     f2c:	b1823e1e 	orrlt	r3, r2, lr, lsl lr

00000f30 <l846>:
     f30:	81dceb13 	bicshi	lr, ip, r3, lsl fp

00000f34 <l847>:
     f34:	500e039b 	mulpl	lr, fp, r3

00000f38 <l848>:
     f38:	e0253b90 	mla	r5, r0, fp, r3

00000f3c <l849>:
     f3c:	e0b7a293 	umlals	sl, r7, r3, r2

00000f40 <l850>:
     f40:	038918bf 	orreq	r1, r9, #12517376	; 0xbf0000

00000f44 <l851>:
     f44:	30cb5596 	smullcc	r5, fp, r6, r5

00000f48 <l852>:
     f48:	e2909b0b 	adds	r9, r0, #11264	; 0x2c00

00000f4c <l853>:
     f4c:	e0c7139a 	smull	r1, r7, sl, r3

00000f50 <l854>:
     f50:	c1110960 	tstgt	r1, r0, ror #18

00000f54 <l855>:
     f54:	a0a9c896 	umlalge	ip, r9, r6, r8

00000f58 <l856>:
     f58:	e0352b91 	mlas	r5, r1, fp, r2

00000f5c <l857>:
     f5c:	10f0c498 	smlalsne	ip, r0, r8, r4

00000f60 <l858>:
     f60:	e005100f 	and	r1, r5, pc

00000f64 <l859>:
     f64:	31829832 	orrcc	r9, r2, r2, lsr r8

00000f68 <l860>:
     f68:	518ec233 	orrpl	ip, lr, r3, lsr r2

00000f6c <l861>:
     f6c:	e0000599 	mul	r0, r9, r5

00000f70 <l862>:
     f70:	e09a3e8f 	adds	r3, sl, pc, lsl #29

00000f74 <l863>:
     f74:	10984996 	umullsne	r4, r8, r6, r9

00000f78 <l864>:
     f78:	d220e7a2 	eorle	lr, r0, #42467328	; 0x2880000

00000f7c <l865>:
     f7c:	e18e1008 	orr	r1, lr, r8

00000f80 <l866>:
     f80:	a0fc7891 	smlalsge	r7, ip, r1, r8

00000f84 <l867>:
     f84:	50006001 	andpl	r6, r0, r1

00000f88 <l868>:
     f88:	d21f1a1b 	andsle	r1, pc, #110592	; 0x1b000

00000f8c <l869>:
     f8c:	e0076b27 	and	r6, r7, r7, lsr #22

00000f90 <l870>:
     f90:	90f26697 	smlalsls	r6, r2, r7, r6

00000f94 <l871>:
     f94:	e1966920 	orrs	r6, r6, r0, lsr #18

00000f98 <l872>:
     f98:	e03c0092 	mlas	ip, r2, r0, r0

00000f9c <l873>:
     f9c:	11998233 	orrsne	r8, r9, r3, lsr r2

00000fa0 <l874>:
     fa0:	e0e19795 	smlal	r9, r1, r5, r7

00000fa4 <l875>:
     fa4:	9009c711 	andls	ip, r9, r1, lsl r7

00000fa8 <l876>:
     fa8:	e3858705 	orr	r8, r5, #1310720	; 0x140000

00000fac <l877>:
     fac:	42398315 	eorsmi	r8, r9, #1409286144	; 0x54000000

00000fb0 <l878>:
     fb0:	b026e530 	eorlt	lr, r6, r0, lsr r5

00000fb4 <l879>:
     fb4:	e0120397 	muls	r2, r7, r3

00000fb8 <l880>:
     fb8:	e0c5b691 	smull	fp, r5, r1, r6

00000fbc <l881>:
     fbc:	802ac23b 	eorhi	ip, sl, fp, lsr r2

00000fc0 <l882>:
     fc0:	90e5629c 	smlalls	r6, r5, ip, r2

00000fc4 <l883>:
     fc4:	11912069 	orrsne	r2, r1, r9, rrx

00000fc8 <l884>:
     fc8:	9254bd0e 	subsls	fp, r4, #896	; 0x380

00000fcc <l885>:
     fcc:	10283248 	eorne	r3, r8, r8, asr #4

00000fd0 <l886>:
     fd0:	60db9291 	smullsvs	r9, fp, r1, r2

00000fd4 <l887>:
     fd4:	a0022006 	andge	r2, r2, r6

00000fd8 <l888>:
     fd8:	2030c001 	eorscs	ip, r0, r1

00000fdc <l889>:
     fdc:	e16f5f1c 	clz	r5, ip

00000fe0 <l890>:
     fe0:	827b4705 	rsbshi	r4, fp, #1310720	; 0x140000

00000fe4 <l891>:
     fe4:	e0ace596 	umlal	lr, ip, r6, r5

00000fe8 <l892>:
     fe8:	b05e500f 	subslt	r5, lr, pc

00000fec <l893>:
     fec:	70ce5e91 	smullvc	r5, lr, r1, lr

00000ff0 <l894>:
     ff0:	50080a96 	mulpl	r8, r6, sl

00000ff4 <l895>:
     ff4:	d184800e 	orrle	r8, r4, lr

00000ff8 <l896>:
     ff8:	e0050899 	mul	r5, r9, r8

00000ffc <l897>:
     ffc:	e1a05a6b 	ror	r5, fp, #20

00001000 <l898>:
    1000:	40233791 	mlami	r3, r1, r7, r3

00001004 <l899>:
    1004:	31b08007 	movscc	r8, r7

00001008 <l900>:
    1008:	c1380b52 	teqgt	r8, r2, asr fp

0000100c <l901>:
    100c:	917e0004 	cmnls	lr, r4

00001010 <l902>:
    1010:	e0699009 	rsb	r9, r9, r9

00001014 <l903>:
    1014:	60d9c596 	smullsvs	ip, r9, r6, r5

00001018 <l904>:
    1018:	e02e6008 	eor	r6, lr, r8

0000101c <l905>:
    101c:	a0b18790 	umlalsge	r8, r1, r0, r7

00001020 <l906>:
    1020:	e1150e52 	tst	r5, r2, asr lr

00001024 <l907>:
    1024:	81f00914 	mvnshi	r0, r4, lsl r9

00001028 <l908>:
    1028:	10a5ee9b 	umlalne	lr, r5, fp, lr

0000102c <l909>:
    102c:	e2e17862 	rsc	r7, r1, #6422528	; 0x620000

00001030 <l910>:
    1030:	8039cce9 	eorshi	ip, r9, r9, ror #25

00001034 <l911>:
    1034:	31560066 	cmpcc	r6, r6, rrx

00001038 <l912>:
    1038:	5021e87e 	eorpl	lr, r1, lr, ror r8

0000103c <l913>:
    103c:	e0356192 	mlas	r5, r2, r1, r6

00001040 <l914>:
    1040:	524241db 	subpl	r4, r2, #-1073741770	; 0xc0000036

00001044 <l915>:
    1044:	617a0002 	cmnvs	sl, r2

00001048 <l916>:
    1048:	e0c17a98 	smull	r7, r1, r8, sl

0000104c <l917>:
    104c:	6192084f 	orrsvs	r0, r2, pc, asr #16

00001050 <l918>:
    1050:	60070596 	mulvs	r7, r6, r5

00001054 <l919>:
    1054:	e037619b 	mlas	r7, fp, r1, r6

00001058 <l920>:
    1058:	e0c72a9c 	smull	r2, r7, ip, sl

0000105c <l921>:
    105c:	202f1066 	eorcs	r1, pc, r6, rrx

00001060 <l922>:
    1060:	917c0000 	cmnls	ip, r0

00001064 <l923>:
    1064:	e1c19004 	bic	r9, r1, r4

00001068 <l924>:
    1068:	e04a8d4a 	sub	r8, sl, sl, asr #26

0000106c <l925>:
    106c:	e1790007 	cmn	r9, r7

00001070 <l926>:
    1070:	e0e0559c 	smlal	r5, r0, ip, r5

00001074 <l927>:
    1074:	e0b2739b 	umlals	r7, r2, fp, r3

00001078 <l928>:
    1078:	00245d26 	eoreq	r5, r4, r6, lsr #26

0000107c <l929>:
    107c:	e0be4004 	adcs	r4, lr, r4

00001080 <l930>:
    1080:	e05bccec 	subs	ip, fp, ip, ror #25

00001084 <l931>:
    1084:	e199000e 	orrs	r0, r9, lr

00001088 <l932>:
    1088:	3093b090 	umullscc	fp, r3, r0, r0

0000108c <l933>:
    108c:	e374002a 	cmn	r4, #42	; 0x2a

00001090 <l934>:
    1090:	30fc5c3b 	rscscc	r5, ip, fp, lsr ip

00001094 <l935>:
    1094:	e3140cd1 	tst	r4, #53504	; 0xd100

00001098 <l936>:
    1098:	b0f93b91 	smlalslt	r3, r9, r1, fp

0000109c <l937>:
    109c:	40209c50 	eormi	r9, r0, r0, asr ip

000010a0 <l938>:
    10a0:	e2552d11 	subs	r2, r5, #1088	; 0x440

000010a4 <l939>:
    10a4:	502c406f 	eorpl	r4, ip, pc, rrx

000010a8 <l940>:
    10a8:	e11b0068 	tst	fp, r8, rrx

000010ac <l941>:
    10ac:	e1160008 	tst	r6, r8

000010b0 <l942>:
    10b0:	e0b38790 	umlals	r8, r3, r0, r7

000010b4 <l943>:
    10b4:	40aa6997 	umlalmi	r6, sl, r7, r9

000010b8 <l944>:
    10b8:	e3974b1f 	orrs	r4, r7, #31744	; 0x7c00

000010bc <l945>:
    10bc:	7192b035 	orrsvc	fp, r2, r5, lsr r0

000010c0 <l946>:
    10c0:	d0e60e9c 	smlalle	r0, r6, ip, lr

000010c4 <l947>:
    10c4:	90338063 	eorsls	r8, r3, r3, rrx

000010c8 <l948>:
    10c8:	0089a194 	umulleq	sl, r9, r4, r1

000010cc <l949>:
    10cc:	30a40291 	umlalcc	r0, r4, r1, r2

000010d0 <l950>:
    10d0:	10138007 	andsne	r8, r3, r7

000010d4 <l951>:
    10d4:	c18aaa74 	orrgt	sl, sl, r4, ror sl

000010d8 <l952>:
    10d8:	e0180c90 	muls	r8, r0, ip

000010dc <l953>:
    10dc:	e0381696 	mlas	r8, r6, r6, r1

000010e0 <l954>:
    10e0:	e07f12ca 	rsbs	r1, pc, sl, asr #5

000010e4 <l955>:
    10e4:	9008a001 	andls	sl, r8, r1

000010e8 <l956>:
    10e8:	e0ea8491 	smlal	r8, sl, r1, r4

000010ec <l957>:
    10ec:	21ce3634 	biccs	r3, lr, r4, lsr r6

000010f0 <l958>:
    10f0:	e2fb1465 	rscs	r1, fp, #1694498816	; 0x65000000

000010f4 <l959>:
    10f4:	50a37118 	adcpl	r7, r3, r8, lsl r1

000010f8 <l960>:
    10f8:	2037a999 	mlascs	r7, r9, r9, sl

000010fc <l961>:
    10fc:	900a1007 	andls	r1, sl, r7

00001100 <l962>:
    1100:	e1802416 	orr	r2, r0, r6, lsl r4

00001104 <l963>:
    1104:	90854891 	umullls	r4, r5, r1, r8

00001108 <l964>:
    1108:	302f5064 	eorcc	r5, pc, r4, rrx

0000110c <l965>:
    110c:	00db9196 	smullseq	r9, fp, r6, r1

00001110 <l966>:
    1110:	e0a5a290 	umlal	sl, r5, r0, r2

00001114 <l967>:
    1114:	e11f0228 	tst	pc, r8, lsr #4

00001118 <l968>:
    1118:	80c0c596 	smullhi	ip, r0, r6, r5

0000111c <l969>:
    111c:	301a6a68 	andscc	r6, sl, r8, ror #20

00001120 <l970>:
    1120:	5028200e 	eorpl	r2, r8, lr

00001124 <l971>:
    1124:	c03ee994 	mlasgt	lr, r4, r9, lr

00001128 <l972>:
    1128:	e04762e9 	sub	r6, r7, r9, ror #5

0000112c <l973>:
    112c:	60096007 	andvs	r6, r9, r7

00001130 <l974>:
    1130:	c210e7a1 	andsgt	lr, r0, #42205184	; 0x2840000

00001134 <l975>:
    1134:	919a906a 	orrsls	r9, sl, sl, rrx

00001138 <l976>:
    1138:	11944002 	orrsne	r4, r4, r2

0000113c <l977>:
    113c:	e024407b 	eor	r4, r4, fp, ror r0

00001140 <l978>:
    1140:	a0c2849a 	smullge	r8, r2, sl, r4

00001144 <l979>:
    1144:	23f0725f 	mvnscs	r7, #-268435451	; 0xf0000005

00001148 <l980>:
    1148:	a0147423 	andsge	r7, r4, r3, lsr #8

0000114c <l981>:
    114c:	e017049e 	muls	r7, lr, r4

00001150 <l982>:
    1150:	c0e5e098 	smlalgt	lr, r5, r8, r0

00001154 <l983>:
    1154:	10aeab98 	umlalne	sl, lr, r8, fp

00001158 <l984>:
    1158:	e031700c 	eors	r7, r1, ip

0000115c <l985>:
    115c:	30188004 	andscc	r8, r8, r4

00001160 <l986>:
    1160:	e0a6806f 	adc	r8, r6, pc, rrx

00001164 <l987>:
    1164:	30026b56 	andcc	r6, r2, r6, asr fp

00001168 <l988>:
    1168:	d0fe3999 	smlalsle	r3, lr, r9, r9

0000116c <l989>:
    116c:	e21c26a6 	ands	r2, ip, #174063616	; 0xa600000

00001170 <l990>:
    1170:	e000099a 	mul	r0, sl, r9

00001174 <l991>:
    1174:	01a09000 	moveq	r9, r0

00001178 <l992>:
    1178:	c1110002 	tstgt	r1, r2

0000117c <l993>:
    117c:	60075c29 	andvs	r5, r7, r9, lsr #24

00001180 <l994>:
    1180:	3288a703 	addcc	sl, r8, #786432	; 0xc0000

00001184 <l995>:
    1184:	80a9be93 	umlalhi	fp, r9, r3, lr

00001188 <l996>:
    1188:	30060490 	mulcc	r6, r0, r4

0000118c <l997>:
    118c:	c0d7160b 	sbcsgt	r1, r7, fp, lsl #12

00001190 <l998>:
    1190:	916f9f1c 	clzls	r9, ip

00001194 <l999>:
    1194:	e189b216 	orr	fp, r9, r6, lsl r2

00001198 <l1000>:
    1198:	30f4b993 	smlalscc	fp, r4, r3, r9

0000119c <l1001>:
    119c:	e194e254 	orrs	lr, r4, r4, asr r2

000011a0 <l1002>:
    11a0:	c0940105 	addsgt	r0, r4, r5, lsl #2

000011a4 <l1003>:
    11a4:	a01e0791 	mulsge	lr, r1, r7

000011a8 <l1004>:
    11a8:	4246e362 	submi	lr, r6, #-2013265919	; 0x88000001

000011ac <l1005>:
    11ac:	c17c011e 	cmngt	ip, lr, lsl r1

000011b0 <l1006>:
    11b0:	b0b58a39 	adcslt	r8, r5, r9, lsr sl

000011b4 <l1007>:
    11b4:	a38f007f 	orrge	r0, pc, #127	; 0x7f

000011b8 <l1008>:
    11b8:	91700716 	cmnls	r0, r6, lsl r7

000011bc <l1009>:
    11bc:	803348a7 	eorshi	r4, r3, r7, lsr #17

000011c0 <l1010>:
    11c0:	e16f9f15 	clz	r9, r5

000011c4 <l1011>:
    11c4:	e0470065 	sub	r0, r7, r5, rrx

000011c8 <l1012>:
    11c8:	80742001 	rsbshi	r2, r4, r1

000011cc <l1013>:
    11cc:	e00c1232 	and	r1, ip, r2, lsr r2

000011d0 <l1014>:
    11d0:	e021ab28 	eor	sl, r1, r8, lsr #22

000011d4 <l1015>:
    11d4:	10160c9a 	mulsne	r6, sl, ip

000011d8 <l1016>:
    11d8:	e1877002 	orr	r7, r7, r2

000011dc <l1017>:
    11dc:	b0e13a95 	smlallt	r3, r1, r5, sl

000011e0 <l1018>:
    11e0:	e093c290 	umulls	ip, r3, r0, r2

000011e4 <l1019>:
    11e4:	723a5605 	eorsvc	r5, sl, #5242880	; 0x500000

000011e8 <l1020>:
    11e8:	e0eb5998 	smlal	r5, fp, r8, r9

000011ec <l1021>:
    11ec:	e0089c83 	and	r9, r8, r3, lsl #25

000011f0 <l1022>:
    11f0:	e24ccc49 	sub	ip, ip, #18688	; 0x4900

000011f4 <l1023>:
    11f4:	d1b02c49 	asrsle	r2, r9, #24

000011f8 <l1024>:
    11f8:	7090c09e 	umullsvc	ip, r0, lr, r0

000011fc <l1025>:
    11fc:	e373080f 	cmn	r3, #983040	; 0xf0000

00001200 <l1026>:
    1200:	418c9003 	orrmi	r9, ip, r3

00001204 <l1027>:
    1204:	e16f7f19 	clz	r7, r9

00001208 <l1028>:
    1208:	916f6f10 	clzls	r6, r0

0000120c <l1029>:
    120c:	e03c2498 	mlas	ip, r8, r4, r2

00001210 <l1030>:
    1210:	e003089e 	mul	r3, lr, r8

00001214 <l1031>:
    1214:	80b87291 	umlalshi	r7, r8, r1, r2

00001218 <l1032>:
    1218:	60946c91 	umullsvs	r6, r4, r1, ip

0000121c <l1033>:
    121c:	d0c82599 	smullle	r2, r8, r9, r5

00001220 <l1034>:
    1220:	e0130b95 	muls	r3, r5, fp

00001224 <l1035>:
    1224:	e0370005 	eors	r0, r7, r5

00001228 <l1036>:
    1228:	a1e0cc83 	mvnge	ip, r3, lsl #25

0000122c <l1037>:
    122c:	037a0816 	cmneq	sl, #1441792	; 0x160000

00001230 <l1038>:
    1230:	e09cac96 	umulls	sl, ip, r6, ip

00001234 <l1039>:
    1234:	e0329a97 	mlas	r2, r7, sl, r9

00001238 <l1040>:
    1238:	e18c0c60 	orr	r0, ip, r0, ror #24

0000123c <l1041>:
    123c:	40110194 	mulsmi	r1, r4, r1

00001240 <l1042>:
    1240:	e0142310 	ands	r2, r4, r0, lsl r3

00001244 <l1043>:
    1244:	70c0be98 	smullvc	fp, r0, r8, lr

00001248 <l1044>:
    1248:	e03cb893 	mlas	ip, r3, r8, fp

0000124c <l1045>:
    124c:	b219cb4e 	andslt	ip, r9, #79872	; 0x13800

00001250 <l1046>:
    1250:	e0b6bc5c 	adcs	fp, r6, ip, asr ip

00001254 <l1047>:
    1254:	e1a06c7e 	ror	r6, lr, ip

00001258 <l1048>:
    1258:	60a06597 	umlalvs	r6, r0, r7, r5

0000125c <l1049>:
    125c:	43de13a5 	bicsmi	r1, lr, #-1811939326	; 0x94000002

00001260 <l1050>:
    1260:	e1f0c2cf 	mvns	ip, pc, asr #5

00001264 <l1051>:
    1264:	e0d073e3 	sbcs	r7, r0, r3, ror #7

00001268 <l1052>:
    1268:	70c38a92 	smullvc	r8, r3, r2, sl

0000126c <l1053>:
    126c:	10225594 	mlane	r2, r4, r5, r5

00001270 <l1054>:
    1270:	816faf12 	clzhi	sl, r2

00001274 <l1055>:
    1274:	23120de9 	tstcs	r2, #14912	; 0x3a40

00001278 <l1056>:
    1278:	e19eb00c 	orrs	fp, lr, ip

0000127c <l1057>:
    127c:	e235a829 	eors	sl, r5, #2686976	; 0x290000

00001280 <l1058>:
    1280:	7031b693 	mlasvc	r1, r3, r6, fp

00001284 <l1059>:
    1284:	70e4b06c 	rscvc	fp, r4, ip, rrx

00001288 <l1060>:
    1288:	20e9249e 	smlalcs	r2, r9, lr, r4

0000128c <l1061>:
    128c:	e0eb3794 	smlal	r3, fp, r4, r7

00001290 <l1062>:
    1290:	9037c001 	eorsls	ip, r7, r1

00001294 <l1063>:
    1294:	1119000f 	tstne	r9, pc

00001298 <l1064>:
    1298:	10a63897 	umlalne	r3, r6, r7, r8

0000129c <l1065>:
    129c:	e0277008 	eor	r7, r7, r8

000012a0 <l1066>:
    12a0:	6203e912 	andvs	lr, r3, #294912	; 0x48000

000012a4 <l1067>:
    12a4:	6221e3c9 	eorvs	lr, r1, #603979779	; 0x24000003

000012a8 <l1068>:
    12a8:	a06671a7 	rsbge	r7, r6, r7, lsr #3

000012ac <l1069>:
    12ac:	e0005001 	and	r5, r0, r1

000012b0 <l1070>:
    12b0:	308c6c9e 	umullcc	r6, ip, lr, ip

000012b4 <l1071>:
    12b4:	e031b003 	eors	fp, r1, r3

000012b8 <l1072>:
    12b8:	6257673a 	subsvs	r6, r7, #15204352	; 0xe80000

000012bc <l1073>:
    12bc:	e379048d 	cmn	r9, #-1929379840	; 0x8d000000

000012c0 <l1074>:
    12c0:	50284790 	mlapl	r8, r0, r7, r4

000012c4 <l1075>:
    12c4:	e0c56003 	sbc	r6, r5, r3

000012c8 <l1076>:
    12c8:	e0671e57 	rsb	r1, r7, r7, asr lr

000012cc <l1077>:
    12cc:	80324007 	eorshi	r4, r2, r7

000012d0 <l1078>:
    12d0:	50294007 	eorpl	r4, r9, r7

000012d4 <l1079>:
    12d4:	c0150996 	mulsgt	r5, r6, r9

000012d8 <l1080>:
    12d8:	e1800000 	orr	r0, r0, r0

000012dc <l1081>:
    12dc:	60356cce 	eorsvs	r6, r5, lr, asr #25

000012e0 <l1082>:
    12e0:	e0a67392 	umlal	r7, r6, r2, r3

000012e4 <l1083>:
    12e4:	e3720105 	cmn	r2, #1073741825	; 0x40000001

000012e8 <l1084>:
    12e8:	523ea9c6 	eorspl	sl, lr, #3244032	; 0x318000

000012ec <l1085>:
    12ec:	c0be1095 	umlalsgt	r1, lr, r5, r0

000012f0 <l1086>:
    12f0:	e2e966c3 	rsc	r6, r9, #204472320	; 0xc300000

000012f4 <l1087>:
    12f4:	e02c200f 	eor	r2, ip, pc

000012f8 <l1088>:
    12f8:	12347431 	eorsne	r7, r4, #822083584	; 0x31000000

000012fc <l1089>:
    12fc:	616fef16 	clzvs	lr, r6

00001300 <l1090>:
    1300:	d0293b5c 	eorle	r3, r9, ip, asr fp

00001304 <l1091>:
    1304:	a026e00e 	eorge	lr, r6, lr

00001308 <l1092>:
    1308:	71370a2a 	teqvc	r7, sl, lsr #20

0000130c <l1093>:
    130c:	23170341 	tstcs	r7, #67108865	; 0x4000001

00001310 <l1094>:
    1310:	00d36297 	smullseq	r6, r3, r7, r2

00001314 <l1095>:
    1314:	801c0e94 	mulshi	ip, r4, lr

00001318 <l1096>:
    1318:	e0b08897 	umlals	r8, r0, r7, r8

0000131c <l1097>:
    131c:	216f7f14 	clzcs	r7, r4

00001320 <l1098>:
    1320:	8199978f 	orrshi	r9, r9, pc, lsl #15

00001324 <l1099>:
    1324:	303e5615 	eorscc	r5, lr, r5, lsl r6

00001328 <l1100>:
    1328:	e19bc777 	orrs	ip, fp, r7, ror r7

0000132c <l1101>:
    132c:	40243062 	eormi	r3, r4, r2, rrx

00001330 <l1102>:
    1330:	8038b353 	eorshi	fp, r8, r3, asr r3

00001334 <l1103>:
    1334:	20878691 	umullcs	r8, r7, r1, r6

00001338 <l1104>:
    1338:	e223ee79 	eor	lr, r3, #1936	; 0x790

0000133c <l1105>:
    133c:	e02ac576 	eor	ip, sl, r6, ror r5

00001340 <l1106>:
    1340:	50156814 	andspl	r6, r5, r4, lsl r8

00001344 <l1107>:
    1344:	6383cedb 	orrvs	ip, r3, #3504	; 0xdb0

00001348 <l1108>:
    1348:	72dc4d0f 	sbcsvc	r4, ip, #960	; 0x3c0

0000134c <l1109>:
    134c:	70968a9c 	umullsvc	r8, r6, ip, sl

00001350 <l1110>:
    1350:	31946000 	orrscc	r6, r4, r0

00001354 <l1111>:
    1354:	e0b08004 	adcs	r8, r0, r4

00001358 <l1112>:
    1358:	00d7ae94 	smullseq	sl, r7, r4, lr

0000135c <l1113>:
    135c:	e0f56009 	rscs	r6, r5, r9

00001360 <l1114>:
    1360:	b0b68092 	umlalslt	r8, r6, r2, r0

00001364 <l1115>:
    1364:	e0b04c97 	umlals	r4, r0, r7, ip

00001368 <l1116>:
    1368:	0200c312 	andeq	ip, r0, #1207959552	; 0x48000000

0000136c <l1117>:
    136c:	e0072068 	and	r2, r7, r8, rrx

00001370 <l1118>:
    1370:	d04e2a69 	suble	r2, lr, r9, ror #20

00001374 <l1119>:
    1374:	e0311197 	mlas	r1, r7, r1, r1

00001378 <l1120>:
    1378:	e0b65390 	umlals	r5, r6, r0, r3

0000137c <l1121>:
    137c:	e0f12a98 	smlals	r2, r1, r8, sl

00001380 <l1122>:
    1380:	e18bb155 	orr	fp, fp, r5, asr r1

00001384 <l1123>:
    1384:	90aca294 	umlalls	sl, ip, r4, r2

00001388 <l1124>:
    1388:	82270f96 	eorhi	r0, r7, #600	; 0x258

0000138c <l1125>:
    138c:	d0c6e179 	sbcle	lr, r6, r9, ror r1

00001390 <l1126>:
    1390:	40805193 	umullmi	r5, r0, r3, r1

00001394 <l1127>:
    1394:	b0d7500f 	sbcslt	r5, r7, pc

00001398 <l1128>:
    1398:	319cef09 	orrscc	lr, ip, r9, lsl #30

0000139c <l1129>:
    139c:	10902299 	umullsne	r2, r0, r9, r2

000013a0 <l1130>:
    13a0:	e0122000 	ands	r2, r2, r0

000013a4 <l1131>:
    13a4:	e0b05e98 	umlals	r5, r0, r8, lr

000013a8 <l1132>:
    13a8:	e01b0097 	muls	fp, r7, r0

000013ac <l1133>:
    13ac:	6021487e 	eorvs	r4, r1, lr, ror r8

000013b0 <l1134>:
    13b0:	00312002 	eorseq	r2, r1, r2

000013b4 <l1135>:
    13b4:	e184a00a 	orr	sl, r4, sl

000013b8 <l1136>:
    13b8:	e02ea002 	eor	sl, lr, r2

000013bc <l1137>:
    13bc:	70010e92 	mulvc	r1, r2, lr

000013c0 <l1138>:
    13c0:	c02e4060 	eorgt	r4, lr, r0, rrx

000013c4 <l1139>:
    13c4:	b0365e97 	mlaslt	r6, r7, lr, r5

000013c8 <l1140>:
    13c8:	e2c4cad6 	sbc	ip, r4, #876544	; 0xd6000

000013cc <l1141>:
    13cc:	a02aac9e 	mlage	sl, lr, ip, sl

000013d0 <l1142>:
    13d0:	e0212001 	eor	r2, r1, r1

000013d4 <l1143>:
    13d4:	018c0009 	orreq	r0, ip, r9

000013d8 <l1144>:
    13d8:	e22f44d1 	eor	r4, pc, #-788529152	; 0xd1000000

000013dc <l1145>:
    13dc:	a039ca96 	mlasge	r9, r6, sl, ip

000013e0 <l1146>:
    13e0:	10a48292 	umlalne	r8, r4, r2, r2

000013e4 <l1147>:
    13e4:	30c6179e 	smullcc	r1, r6, lr, r7

000013e8 <l1148>:
    13e8:	e1a0e006 	mov	lr, r6

000013ec <l1149>:
    13ec:	e0696000 	rsb	r6, r9, r0

000013f0 <l1150>:
    13f0:	e0070e93 	mul	r7, r3, lr

000013f4 <l1151>:
    13f4:	e083c003 	add	ip, r3, r3

000013f8 <l1152>:
    13f8:	002aa393 	mlaeq	sl, r3, r3, sl

000013fc <l1153>:
    13fc:	e0db8099 	smulls	r8, fp, r9, r0

00001400 <l1154>:
    1400:	0023a009 	eoreq	sl, r3, r9

00001404 <l1155>:
    1404:	4007a007 	andmi	sl, r7, r7

00001408 <l1156>:
    1408:	0038c007 	eorseq	ip, r8, r7

0000140c <l1157>:
    140c:	e00ab000 	and	fp, sl, r0

00001410 <l1158>:
    1410:	e197b005 	orrs	fp, r7, r5

00001414 <l1159>:
    1414:	d38f600f 	orrle	r6, pc, #15

00001418 <l1160>:
    1418:	e0fa0b97 	smlals	r0, sl, r7, fp

0000141c <l1161>:
    141c:	2035800f 	eorscs	r8, r5, pc

00001420 <l1162>:
    1420:	e02c800c 	eor	r8, ip, ip

00001424 <l1163>:
    1424:	e02e4001 	eor	r4, lr, r1

00001428 <l1164>:
    1428:	d0312290 	mlasle	r1, r0, r2, r2

0000142c <l1165>:
    142c:	738c50e1 	orrvc	r5, ip, #225	; 0xe1

00001430 <l1166>:
    1430:	c00765a2 	andgt	r6, r7, r2, lsr #11

00001434 <l1167>:
    1434:	318bb00b 	orrcc	fp, fp, fp

00001438 <l1168>:
    1438:	415e02e9 	cmpmi	lr, r9, ror #5

0000143c <l1169>:
    143c:	5094ae92 	umullspl	sl, r4, r2, lr

00001440 <l1170>:
    1440:	60443c12 	subvs	r3, r4, r2, lsl ip

00001444 <l1171>:
    1444:	e38052da 	orr	r5, r0, #-1610612723	; 0xa000000d

00001448 <l1172>:
    1448:	4069063a 	rsbmi	r0, r9, sl, lsr r6

0000144c <l1173>:
    144c:	8053c004 	subshi	ip, r3, r4

00001450 <l1174>:
    1450:	80f4191c 	rscshi	r1, r4, ip, lsl r9

00001454 <l1175>:
    1454:	e0d75710 	sbcs	r5, r7, r0, lsl r7

00001458 <l1176>:
    1458:	c18c8060 	orrgt	r8, ip, r0, rrx

0000145c <l1177>:
    145c:	901e4115 	andsls	r4, lr, r5, lsl r1

00001460 <l1178>:
    1460:	e3882a36 	orr	r2, r8, #221184	; 0x36000

00001464 <l1179>:
    1464:	e0e9aa1c 	rsc	sl, r9, ip, lsl sl

00001468 <l1180>:
    1468:	e1ca1063 	bic	r1, sl, r3, rrx

0000146c <l1181>:
    146c:	70205295 	mlavc	r0, r5, r2, r5

00001470 <l1182>:
    1470:	d024b492 	mlale	r4, r2, r4, fp

00001474 <l1183>:
    1474:	d0a87b90 	umlalle	r7, r8, r0, fp

00001478 <l1184>:
    1478:	10309005 	eorsne	r9, r0, r5

0000147c <l1185>:
    147c:	40132000 	andsmi	r2, r3, r0

00001480 <l1186>:
    1480:	00f68a93 	smlalseq	r8, r6, r3, sl

00001484 <l1187>:
    1484:	d002c10f 	andle	ip, r2, pc, lsl #2

00001488 <l1188>:
    1488:	51530d48 	cmppl	r3, r8, asr #26

0000148c <l1189>:
    148c:	217204c2 	cmncs	r2, r2, asr #9

00001490 <l1190>:
    1490:	e11a0005 	tst	sl, r5

00001494 <l1191>:
    1494:	e3e00926 	mvn	r0, #622592	; 0x98000

00001498 <l1192>:
    1498:	e2136ef5 	ands	r6, r3, #3920	; 0xf50

0000149c <l1193>:
    149c:	601ced69 	andsvs	lr, ip, r9, ror #26

000014a0 <l1194>:
    14a0:	b0d39b9a 	smullslt	r9, r3, sl, fp

000014a4 <l1195>:
    14a4:	d0b3a594 	umlalsle	sl, r3, r4, r5

000014a8 <l1196>:
    14a8:	2086b594 	umullcs	fp, r6, r4, r5

000014ac <l1197>:
    14ac:	e1e0a069 	mvn	sl, r9, rrx

000014b0 <l1198>:
    14b0:	e0de7c9a 	smulls	r7, lr, sl, ip

000014b4 <l1199>:
    14b4:	e0992695 	umulls	r2, r9, r5, r6

000014b8 <l1200>:
    14b8:	e2a8439a 	adc	r4, r8, #1744830466	; 0x68000002

000014bc <l1201>:
    14bc:	e182363c 	orr	r3, r2, ip, lsr r6

000014c0 <l1202>:
    14c0:	d0337a9e 	mlasle	r3, lr, sl, r7

000014c4 <l1203>:
    14c4:	e16f0f14 	clz	r0, r4

000014c8 <l1204>:
    14c8:	600ce773 	andvs	lr, ip, r3, ror r7

000014cc <l1205>:
    14cc:	e2897caf 	add	r7, r9, #44800	; 0xaf00

000014d0 <l1206>:
    14d0:	6033a398 	mlasvs	r3, r8, r3, sl

000014d4 <l1207>:
    14d4:	e1981112 	orrs	r1, r8, r2, lsl r1

000014d8 <l1208>:
    14d8:	e0bba791 	umlals	sl, fp, r1, r7

000014dc <l1209>:
    14dc:	30d3619a 	smullscc	r6, r3, sl, r1

000014e0 <l1210>:
    14e0:	4080949b 	umullmi	r9, r0, fp, r4

000014e4 <l1211>:
    14e4:	902baa94 	mlals	fp, r4, sl, sl

000014e8 <l1212>:
    14e8:	b0b98a6f 	adcslt	r8, r9, pc, ror #20

000014ec <l1213>:
    14ec:	e1370b35 	teq	r7, r5, lsr fp

000014f0 <l1214>:
    14f0:	e00c0596 	mul	ip, r6, r5

000014f4 <l1215>:
    14f4:	7050500c 	subsvc	r5, r0, ip

000014f8 <l1216>:
    14f8:	5079700b 	rsbspl	r7, r9, fp

000014fc <l1217>:
    14fc:	301e049a 	mulscc	lr, sl, r4

00001500 <l1218>:
    1500:	a07e0fc6 	rsbsge	r0, lr, r6, asr #31

00001504 <l1219>:
    1504:	e0e5b69e 	smlal	fp, r5, lr, r6

00001508 <l1220>:
    1508:	102cca9b 	mlane	ip, fp, sl, ip

0000150c <l1221>:
    150c:	715c000f 	cmpvc	ip, pc

00001510 <l1222>:
    1510:	10f2329e 	smlalsne	r3, r2, lr, r2

00001514 <l1223>:
    1514:	50c2889c 	smullpl	r8, r2, ip, r8

00001518 <l1224>:
    1518:	50cc0494 	smullpl	r0, ip, r4, r4

0000151c <l1225>:
    151c:	9093969b 	umullsls	r9, r3, fp, r6

00001520 <l1226>:
    1520:	4063100e 	rsbmi	r1, r3, lr

00001524 <l1227>:
    1524:	c0118a46 	andsgt	r8, r1, r6, asr #20

00001528 <l1228>:
    1528:	e0449847 	sub	r9, r4, r7, asr #16

0000152c <l1229>:
    152c:	90b94197 	umlalsls	r4, r9, r7, r1

00001530 <l1230>:
    1530:	e0370060 	eors	r0, r7, r0, rrx

00001534 <l1231>:
    1534:	40c94aae 	sbcmi	r4, r9, lr, lsr #21

00001538 <l1232>:
    1538:	537c0109 	cmnpl	ip, #1073741826	; 0x40000002

0000153c <l1233>:
    153c:	1208b12b 	andne	fp, r8, #-1073741814	; 0xc000000a

00001540 <l1234>:
    1540:	23981ee3 	orrscs	r1, r8, #3632	; 0xe30

00001544 <l1235>:
    1544:	725c93b5 	subsvc	r9, ip, #-738197502	; 0xd4000002

00001548 <l1236>:
    1548:	60f0399b 	smlalsvs	r3, r0, fp, r9

0000154c <l1237>:
    154c:	e005b16f 	and	fp, r5, pc, ror #2

00001550 <l1238>:
    1550:	32fe27b3 	rscscc	r2, lr, #46923776	; 0x2cc0000

00001554 <l1239>:
    1554:	e0254790 	mla	r5, r0, r7, r4

00001558 <l1240>:
    1558:	91910d4b 	orrsls	r0, r1, fp, asr #26

0000155c <l1241>:
    155c:	2024e003 	eorcs	lr, r4, r3

00001560 <l1242>:
    1560:	108bc007 	addne	ip, fp, r7

00001564 <l1243>:
    1564:	c0c13394 	smullgt	r3, r1, r4, r3

00001568 <l1244>:
    1568:	c16fef14 	clzgt	lr, r4

0000156c <l1245>:
    156c:	e3e03601 	mvn	r3, #1048576	; 0x100000

00001570 <l1246>:
    1570:	e1f04003 	mvns	r4, r3

00001574 <l1247>:
    1574:	938e85cf 	orrls	r8, lr, #868220928	; 0x33c00000

00001578 <l1248>:
    1578:	e0b7099b 	umlals	r0, r7, fp, r9

0000157c <l1249>:
    157c:	b0a61a99 	umlallt	r1, r6, r9, sl

00001580 <l1250>:
    1580:	e0398a96 	mlas	r9, r6, sl, r8

00001584 <l1251>:
    1584:	80012e22 	andhi	r2, r1, r2, lsr #28

00001588 <l1252>:
    1588:	e035100c 	eors	r1, r5, ip

0000158c <l1253>:
    158c:	8012ca68 	andshi	ip, r2, r8, ror #20

00001590 <l1254>:
    1590:	d11f050f 	tstle	pc, pc, lsl #10

00001594 <l1255>:
    1594:	e20f3e19 	and	r3, pc, #400	; 0x190

00001598 <l1256>:
    1598:	e1c15065 	bic	r5, r1, r5, rrx

0000159c <l1257>:
    159c:	92de802b 	sbcsls	r8, lr, #43	; 0x2b

000015a0 <l1258>:
    15a0:	e16fcf16 	clz	ip, r6

000015a4 <l1259>:
    15a4:	b1984b75 	orrslt	r4, r8, r5, ror fp

000015a8 <l1260>:
    15a8:	10eba095 	smlalne	sl, fp, r5, r0

000015ac <l1261>:
    15ac:	22a98c1d 	adccs	r8, r9, #7424	; 0x1d00

000015b0 <l1262>:
    15b0:	6025600c 	eorvs	r6, r5, ip

000015b4 <l1263>:
    15b4:	9000069b 	mulls	r0, fp, r6

000015b8 <l1264>:
    15b8:	e05b10ca 	subs	r1, fp, sl, asr #1

000015bc <l1265>:
    15bc:	31330008 	teqcc	r3, r8

000015c0 <l1266>:
    15c0:	e0acc003 	adc	ip, ip, r3

000015c4 <l1267>:
    15c4:	e0ab7494 	umlal	r7, fp, r4, r4

000015c8 <l1268>:
    15c8:	e000a644 	and	sl, r0, r4, asr #12

000015cc <l1269>:
    15cc:	e0c0c197 	smull	ip, r0, r7, r1

000015d0 <l1270>:
    15d0:	40a6e00e 	adcmi	lr, r6, lr

000015d4 <l1271>:
    15d4:	903acac5 	eorsls	ip, sl, r5, asr #21

000015d8 <l1272>:
    15d8:	a3889d76 	orrge	r9, r8, #7552	; 0x1d80

000015dc <l1273>:
    15dc:	e0fe4493 	smlals	r4, lr, r3, r4

000015e0 <l1274>:
    15e0:	e33200c8 	teq	r2, #200	; 0xc8

000015e4 <l1275>:
    15e4:	e21f0195 	ands	r0, pc, #1073741861	; 0x40000025

000015e8 <l1276>:
    15e8:	10c73001 	sbcne	r3, r7, r1

000015ec <l1277>:
    15ec:	e0b1029a 	umlals	r0, r1, sl, r2

000015f0 <l1278>:
    15f0:	e088639e 	umull	r6, r8, lr, r3

000015f4 <l1279>:
    15f4:	00117004 	andseq	r7, r1, r4

000015f8 <l1280>:
    15f8:	e0190e92 	muls	r9, r2, lr

000015fc <l1281>:
    15fc:	e2f2456f 	rscs	r4, r2, #465567744	; 0x1bc00000

00001600 <l1282>:
    1600:	e1100066 	tst	r0, r6, rrx

00001604 <l1283>:
    1604:	a18c700f 	orrge	r7, ip, pc

00001608 <l1284>:
    1608:	e1110008 	tst	r1, r8

0000160c <l1285>:
    160c:	e1100b57 	tst	r0, r7, asr fp

00001610 <l1286>:
    1610:	2239aae1 	eorscs	sl, r9, #921600	; 0xe1000

00001614 <l1287>:
    1614:	213100a7 	teqcs	r1, r7, lsr #1

00001618 <l1288>:
    1618:	e20f26f7 	and	r2, pc, #258998272	; 0xf700000

0000161c <l1289>:
    161c:	c019bac1 	andsgt	fp, r9, r1, asr #21

00001620 <l1290>:
    1620:	30ce6e99 	smullcc	r6, lr, r9, lr

00001624 <l1291>:
    1624:	30786622 	rsbscc	r6, r8, r2, lsr #12

00001628 <l1292>:
    1628:	e003600f 	and	r6, r3, pc

0000162c <l1293>:
    162c:	e0a03997 	umlal	r3, r0, r7, r9

00001630 <l1294>:
    1630:	8097a096 	umullshi	sl, r7, r6, r0

00001634 <l1295>:
    1634:	a0b04692 	umlalsge	r4, r0, r2, r6

00001638 <l1296>:
    1638:	e02eedcb 	eor	lr, lr, fp, asr #27

0000163c <l1297>:
    163c:	e218096b 	ands	r0, r8, #1753088	; 0x1ac000

00001640 <l1298>:
    1640:	00c82aeb 	sbceq	r2, r8, fp, ror #21

00001644 <l1299>:
    1644:	00108107 	andseq	r8, r0, r7, lsl #2

00001648 <l1300>:
    1648:	e22c8493 	eor	r8, ip, #-1828716544	; 0x93000000

0000164c <l1301>:
    164c:	c0985491 	umullsgt	r5, r8, r1, r4

00001650 <l1302>:
    1650:	70e59693 	smlalvc	r9, r5, r3, r6

00001654 <l1303>:
    1654:	e0130796 	muls	r3, r6, r7

00001658 <l1304>:
    1658:	a0f6bb94 	smlalsge	fp, r6, r4, fp

0000165c <l1305>:
    165c:	e0086439 	and	r6, r8, r9, lsr r4

00001660 <l1306>:
    1660:	4391320e 	orrsmi	r3, r1, #-536870912	; 0xe0000000

00001664 <l1307>:
    1664:	b1974711 	orrslt	r4, r7, r1, lsl r7

00001668 <l1308>:
    1668:	e03e555a 	eors	r5, lr, sl, asr r5

0000166c <l1309>:
    166c:	9053e00f 	subsls	lr, r3, pc

00001670 <l1310>:
    1670:	a0258899 	mlage	r5, r9, r8, r8

00001674 <l1311>:
    1674:	e0c949c9 	sbc	r4, r9, r9, asr #19

00001678 <l1312>:
    1678:	51da6067 	bicspl	r6, sl, r7, rrx

0000167c <l1313>:
    167c:	9016352c 	andsls	r3, r6, ip, lsr #10

00001680 <l1314>:
    1680:	12143be3 	andsne	r3, r4, #232448	; 0x38c00

00001684 <l1315>:
    1684:	e086029c 	umull	r0, r6, ip, r2

00001688 <l1316>:
    1688:	40056e30 	andmi	r6, r5, r0, lsr lr

0000168c <l1317>:
    168c:	10372bc8 	eorsne	r2, r7, r8, asr #23

00001690 <l1318>:
    1690:	e0b2c89e 	umlals	ip, r2, lr, r8

00001694 <l1319>:
    1694:	c0e08293 	smlalgt	r8, r0, r3, r2

00001698 <l1320>:
    1698:	e030699a 	mlas	r0, sl, r9, r6

0000169c <l1321>:
    169c:	e25b0505 	subs	r0, fp, #20971520	; 0x1400000

000016a0 <l1322>:
    16a0:	4092459e 	umullsmi	r4, r2, lr, r5

000016a4 <l1323>:
    16a4:	e010906c 	ands	r9, r0, ip, rrx

000016a8 <l1324>:
    16a8:	e02c5063 	eor	r5, ip, r3, rrx

000016ac <l1325>:
    16ac:	e00e0005 	and	r0, lr, r5

000016b0 <l1326>:
    16b0:	902a6299 	mlals	sl, r9, r2, r6

000016b4 <l1327>:
    16b4:	c025a061 	eorgt	sl, r5, r1, rrx

000016b8 <l1328>:
    16b8:	e3c76306 	bic	r6, r7, #402653184	; 0x18000000

000016bc <l1329>:
    16bc:	a16f1f1e 	clzge	r1, lr

000016c0 <l1330>:
    16c0:	0039bb9a 	mlaseq	r9, sl, fp, fp

000016c4 <l1331>:
    16c4:	e38a0111 	orr	r0, sl, #1073741828	; 0x40000004

000016c8 <l1332>:
    16c8:	b385152a 	orrlt	r1, r5, #176160768	; 0xa800000

000016cc <l1333>:
    16cc:	038020cc 	orreq	r2, r0, #204	; 0xcc

000016d0 <l1334>:
    16d0:	c015b009 	andsgt	fp, r5, r9

000016d4 <l1335>:
    16d4:	e19cc00a 	orrs	ip, ip, sl

000016d8 <l1336>:
    16d8:	623a5707 	eorsvs	r5, sl, #1835008	; 0x1c0000

000016dc <l1337>:
    16dc:	e01c6ec3 	ands	r6, ip, r3, asr #29

000016e0 <l1338>:
    16e0:	70080097 	mulvc	r8, r7, r0

000016e4 <l1339>:
    16e4:	e19653a1 	orrs	r5, r6, r1, lsr #7

000016e8 <l1340>:
    16e8:	e0b51196 	umlals	r1, r5, r6, r1

000016ec <l1341>:
    16ec:	50e56299 	smlalpl	r6, r5, r9, r2

000016f0 <l1342>:
    16f0:	40991b93 	umullsmi	r1, r9, r3, fp

000016f4 <l1343>:
    16f4:	e3903802 	orrs	r3, r0, #131072	; 0x20000

000016f8 <l1344>:
    16f8:	6014a5a0 	andsvs	sl, r4, r0, lsr #11

000016fc <l1345>:
    16fc:	e1510003 	cmp	r1, r3

00001700 <l1346>:
    1700:	02138b03 	andseq	r8, r3, #3072	; 0xc00

00001704 <l1347>:
    1704:	b381edc7 	orrlt	lr, r1, #12736	; 0x31c0

00001708 <l1348>:
    1708:	618e5065 	orrvs	r5, lr, r5, rrx

0000170c <l1349>:
    170c:	e22f4489 	eor	r4, pc, #-1996488704	; 0x89000000

00001710 <l1350>:
    1710:	21e03003 	mvncs	r3, r3

00001714 <l1351>:
    1714:	e11a022c 	tst	sl, ip, lsr #4

00001718 <l1352>:
    1718:	400c0698 	mulmi	ip, r8, r6

0000171c <l1353>:
    171c:	500b0a92 	mulpl	fp, r2, sl

00001720 <l1354>:
    1720:	e00c0e98 	mul	ip, r8, lr

00001724 <l1355>:
    1724:	50f90098 	smlalspl	r0, r9, r8, r0

00001728 <l1356>:
    1728:	e025b00b 	eor	fp, r5, fp

0000172c <l1357>:
    172c:	c2d94606 	sbcsgt	r4, r9, #6291456	; 0x600000

00001730 <l1358>:
    1730:	e0848e92 	umull	r8, r4, r2, lr

00001734 <l1359>:
    1734:	40288063 	eormi	r8, r8, r3, rrx

00001738 <l1360>:
    1738:	e1962cca 	orrs	r2, r6, sl, asr #25

0000173c <l1361>:
    173c:	e0812060 	add	r2, r1, r0, rrx

00001740 <l1362>:
    1740:	e0b3ea9c 	umlals	lr, r3, ip, sl

00001744 <l1363>:
    1744:	50f2e79a 	smlalspl	lr, r2, sl, r7

00001748 <l1364>:
    1748:	1060e00b 	rsbne	lr, r0, fp

0000174c <l1365>:
    174c:	e0187003 	ands	r7, r8, r3

00001750 <l1366>:
    1750:	e234a426 	eors	sl, r4, #637534208	; 0x26000000

00001754 <l1367>:
    1754:	20b6ba94 	umlalscs	fp, r6, r4, sl

00001758 <l1368>:
    1758:	e11c0a12 	tst	ip, r2, lsl sl

0000175c <l1369>:
    175c:	e080c396 	umull	ip, r0, r6, r3

00001760 <l1370>:
    1760:	d00a6d0f 	andle	r6, sl, pc, lsl #26

00001764 <l1371>:
    1764:	e18972af 	orr	r7, r9, pc, lsr #5

00001768 <l1372>:
    1768:	e0080193 	mul	r8, r3, r1

0000176c <l1373>:
    176c:	e033ce78 	eors	ip, r3, r8, ror lr

00001770 <l1374>:
    1770:	703e100c 	eorsvc	r1, lr, ip

00001774 <l1375>:
    1774:	61700b10 	cmnvs	r0, r0, lsl fp

00001778 <l1376>:
    1778:	e0e95497 	smlal	r5, r9, r7, r4

0000177c <l1377>:
    177c:	10e8b492 	smlalne	fp, r8, r2, r4

00001780 <l1378>:
    1780:	70b10696 	umlalsvc	r0, r1, r6, r6

00001784 <l1379>:
    1784:	e1f0e003 	mvns	lr, r3

00001788 <l1380>:
    1788:	918165e1 	orrls	r6, r1, r1, ror #11

0000178c <l1381>:
    178c:	417205e0 	cmnmi	r2, r0, ror #11

00001790 <l1382>:
    1790:	31a08e45 	asrcc	r8, r5, #28

00001794 <l1383>:
    1794:	921f039b 	andsls	r0, pc, #1811939330	; 0x6c000002

00001798 <l1384>:
    1798:	13300beb 	teqne	r0, #240640	; 0x3ac00

0000179c <l1385>:
    179c:	c00ae471 	andgt	lr, sl, r1, ror r4

000017a0 <l1386>:
    17a0:	6219672b 	andsvs	r6, r9, #11272192	; 0xac0000

000017a4 <l1387>:
    17a4:	b0fc9795 	smlalslt	r9, ip, r5, r7

000017a8 <l1388>:
    17a8:	e3a0b711 	mov	fp, #4456448	; 0x440000

000017ac <l1389>:
    17ac:	b0abc063 	adclt	ip, fp, r3, rrx

000017b0 <l1390>:
    17b0:	00d82199 	smullseq	r2, r8, r9, r1

000017b4 <l1391>:
    17b4:	e0f96394 	smlals	r6, r9, r4, r3

000017b8 <l1392>:
    17b8:	e0445068 	sub	r5, r4, r8, rrx

000017bc <l1393>:
    17bc:	0046a062 	subeq	sl, r6, r2, rrx

000017c0 <l1394>:
    17c0:	303ee595 	mlascc	lr, r5, r5, lr

000017c4 <l1395>:
    17c4:	20767416 	rsbscs	r7, r6, r6, lsl r4

000017c8 <l1396>:
    17c8:	90d69e92 	smullsls	r9, r6, r2, lr

000017cc <l1397>:
    17cc:	4022559b 	mlami	r2, fp, r5, r5

000017d0 <l1398>:
    17d0:	21dcb06c 	bicscs	fp, ip, ip, rrx

000017d4 <l1399>:
    17d4:	50020594 	mulpl	r2, r4, r5

000017d8 <l1400>:
    17d8:	60d13499 	smullsvs	r3, r1, r9, r4

000017dc <l1401>:
    17dc:	238129fb 	orrcs	r2, r1, #4112384	; 0x3ec000

000017e0 <l1402>:
    17e0:	e01f006e 	ands	r0, pc, lr, rrx

000017e4 <l1403>:
    17e4:	e16f8f10 	clz	r8, r0

000017e8 <l1404>:
    17e8:	b08eef84 	addlt	lr, lr, r4, lsl #31

000017ec <l1405>:
    17ec:	7007ceac 	andvc	ip, r7, ip, lsr #29

000017f0 <l1406>:
    17f0:	60b65278 	adcsvs	r5, r6, r8, ror r2

000017f4 <l1407>:
    17f4:	e0cc4e9a 	smull	r4, ip, sl, lr

000017f8 <l1408>:
    17f8:	223c5731 	eorscs	r5, ip, #12845056	; 0xc40000

000017fc <l1409>:
    17fc:	60b5a193 	umlalsvs	sl, r5, r3, r1

00001800 <l1410>:
    1800:	e0861592 	umull	r1, r6, r2, r5

00001804 <l1411>:
    1804:	e03a169b 	mlas	sl, fp, r6, r1

00001808 <l1412>:
    1808:	e0050692 	mul	r5, r2, r6

0000180c <l1413>:
    180c:	02b89fca 	adcseq	r9, r8, #808	; 0x328

00001810 <l1414>:
    1810:	c0c9279c 	smullgt	r2, r9, ip, r7

00001814 <l1415>:
    1814:	70f41c92 	smlalsvc	r1, r4, r2, ip

00001818 <l1416>:
    1818:	e03e6b9a 	mlas	lr, sl, fp, r6

0000181c <l1417>:
    181c:	e16fcf11 	clz	ip, r1

00001820 <l1418>:
    1820:	e0169218 	ands	r9, r6, r8, lsl r2

00001824 <l1419>:
    1824:	e2a6264d 	adc	r2, r6, #80740352	; 0x4d00000

00001828 <l1420>:
    1828:	521ea543 	andspl	sl, lr, #281018368	; 0x10c00000

0000182c <l1421>:
    182c:	10e58691 	smlalne	r8, r5, r1, r6

00001830 <l1422>:
    1830:	e20b0271 	and	r0, fp, #268435463	; 0x10000007

00001834 <l1423>:
    1834:	41913412 	orrsmi	r3, r1, r2, lsl r4

00001838 <l1424>:
    1838:	e0a9ac97 	umlal	sl, r9, r7, ip

0000183c <l1425>:
    183c:	2078c008 	rsbscs	ip, r8, r8

00001840 <l1426>:
    1840:	538aa6a1 	orrpl	sl, sl, #168820736	; 0xa100000

00001844 <l1427>:
    1844:	c0293a93 	mlagt	r9, r3, sl, r3

00001848 <l1428>:
    1848:	c08f100a 	addgt	r1, pc, sl

0000184c <l1429>:
    184c:	70e7229a 	smlalvc	r2, r7, sl, r2

00001850 <l1430>:
    1850:	d0035a2e 	andle	r5, r3, lr, lsr #20

00001854 <l1431>:
    1854:	e03f100f 	eors	r1, pc, pc

00001858 <l1432>:
    1858:	e086399b 	umull	r3, r6, fp, r9

0000185c <l1433>:
    185c:	e1180062 	tst	r8, r2, rrx

00001860 <l1434>:
    1860:	e1170372 	tst	r7, r2, ror r3

00001864 <l1435>:
    1864:	10b3c398 	umlalsne	ip, r3, r8, r3

00001868 <l1436>:
    1868:	4190a005 	orrsmi	sl, r0, r5

0000186c <l1437>:
    186c:	e2213c39 	eor	r3, r1, #14592	; 0x3900

00001870 <l1438>:
    1870:	a0304799 	mlasge	r0, r9, r7, r4

00001874 <l1439>:
    1874:	e395ae39 	orrs	sl, r5, #912	; 0x390

00001878 <l1440>:
    1878:	70071005 	andvc	r1, r7, r5

0000187c <l1441>:
    187c:	e03e5524 	eors	r5, lr, r4, lsr #10

00001880 <l1442>:
    1880:	e08b3795 	umull	r3, fp, r5, r7

00001884 <l1443>:
    1884:	2038100b 	eorscs	r1, r8, fp

00001888 <l1444>:
    1888:	519ce320 	orrspl	lr, ip, r0, lsr #6

0000188c <l1445>:
    188c:	40100b97 	mulsmi	r0, r7, fp

00001890 <l1446>:
    1890:	c1e0c001 	mvngt	ip, r1

00001894 <l1447>:
    1894:	e39e791e 	orrs	r7, lr, #491520	; 0x78000

00001898 <l1448>:
    1898:	e0cc749e 	smull	r7, ip, lr, r4

0000189c <l1449>:
    189c:	e005500b 	and	r5, r5, fp

000018a0 <l1450>:
    18a0:	90e2c29e 	smlalls	ip, r2, lr, r2

000018a4 <l1451>:
    18a4:	e17e0a4f 	cmn	lr, pc, asr #20

000018a8 <l1452>:
    18a8:	822a143f 	eorhi	r1, sl, #1056964608	; 0x3f000000

000018ac <l1453>:
    18ac:	b33709b1 	teqlt	r7, #2899968	; 0x2c4000

000018b0 <l1454>:
    18b0:	e0a1e192 	umlal	lr, r1, r2, r1

000018b4 <l1455>:
    18b4:	b20b06bd 	andlt	r0, fp, #198180864	; 0xbd00000

000018b8 <l1456>:
    18b8:	c23b0fb1 	eorsgt	r0, fp, #708	; 0x2c4

000018bc <l1457>:
    18bc:	e201e08a 	and	lr, r1, #138	; 0x8a

000018c0 <l1458>:
    18c0:	e1330a33 	teq	r3, r3, lsr sl

000018c4 <l1459>:
    18c4:	e1e09004 	mvn	r9, r4

000018c8 <l1460>:
    18c8:	e1180061 	tst	r8, r1, rrx

000018cc <l1461>:
    18cc:	e3b0220b 	movs	r2, #-1342177280	; 0xb0000000

000018d0 <l1462>:
    18d0:	821a68ae 	andshi	r6, sl, #11403264	; 0xae0000

000018d4 <l1463>:
    18d4:	11f0c065 	mvnsne	ip, r5, rrx

000018d8 <l1464>:
    18d8:	e08b5992 	umull	r5, fp, r2, r9

000018dc <l1465>:
    18dc:	5180c37a 	orrpl	ip, r0, sl, ror r3

000018e0 <l1466>:
    18e0:	00e63091 	smlaleq	r3, r6, r1, r0

000018e4 <l1467>:
    18e4:	e0683061 	rsb	r3, r8, r1, rrx

000018e8 <l1468>:
    18e8:	e2634014 	rsb	r4, r3, #20

000018ec <l1469>:
    18ec:	8189aa56 	orrhi	sl, r9, r6, asr sl

000018f0 <l1470>:
    18f0:	a0234002 	eorge	r4, r3, r2

000018f4 <l1471>:
    18f4:	e0dc539e 	smulls	r5, ip, lr, r3

000018f8 <l1472>:
    18f8:	c19a603a 	orrsgt	r6, sl, sl, lsr r0

000018fc <l1473>:
    18fc:	d1590067 	cmple	r9, r7, rrx

00001900 <l1474>:
    1900:	e2c7617b 	sbc	r6, r7, #-1073741794	; 0xc000001e

00001904 <l1475>:
    1904:	c0d91298 	smullsgt	r1, r9, r8, r2

00001908 <l1476>:
    1908:	3038a293 	mlascc	r8, r3, r2, sl

0000190c <l1477>:
    190c:	e16f7f12 	clz	r7, r2

00001910 <l1478>:
    1910:	e17b06ce 	cmn	fp, lr, asr #13

00001914 <l1479>:
    1914:	c191ce1c 	orrsgt	ip, r1, ip, lsl lr

00001918 <l1480>:
    1918:	70be419b 	umlalsvc	r4, lr, fp, r1

0000191c <l1481>:
    191c:	50846d09 	addpl	r6, r4, r9, lsl #26

00001920 <l1482>:
    1920:	e0f40e64 	rscs	r0, r4, r4, ror #28

00001924 <l1483>:
    1924:	30150c98 	mulscc	r5, r8, ip

00001928 <l1484>:
    1928:	e24e9332 	sub	r9, lr, #-939524096	; 0xc8000000

0000192c <l1485>:
    192c:	e2133baa 	ands	r3, r3, #174080	; 0x2a800

00001930 <l1486>:
    1930:	015308c3 	cmpeq	r3, r3, asr #17

00001934 <l1487>:
    1934:	60334591 	mlasvs	r3, r1, r5, r4

00001938 <l1488>:
    1938:	e3320e26 	teq	r2, #608	; 0x260

0000193c <l1489>:
    193c:	e041a475 	sub	sl, r1, r5, ror r4

00001940 <l1490>:
    1940:	e01c0691 	muls	ip, r1, r6

00001944 <l1491>:
    1944:	e0268eef 	eor	r8, r6, pc, ror #29

00001948 <l1492>:
    1948:	e0299953 	eor	r9, r9, r3, asr r9

0000194c <l1493>:
    194c:	40050001 	andmi	r0, r5, r1

00001950 <l1494>:
    1950:	a0359496 	mlasge	r5, r6, r4, r9

00001954 <l1495>:
    1954:	60231138 	eorvs	r1, r3, r8, lsr r1

00001958 <l1496>:
    1958:	e3968d3a 	orrs	r8, r6, #3712	; 0xe80

0000195c <l1497>:
    195c:	e04e1e78 	sub	r1, lr, r8, ror lr

00001960 <l1498>:
    1960:	e13c0130 	teq	ip, r0, lsr r1

00001964 <l1499>:
    1964:	60fe9494 	smlalsvs	r9, lr, r4, r4

00001968 <l1500>:
    1968:	e16f7f15 	clz	r7, r5

0000196c <l1501>:
    196c:	20cc9a93 	smullcs	r9, ip, r3, sl

00001970 <l1502>:
    1970:	139ca04d 	orrsne	sl, ip, #77	; 0x4d

00001974 <l1503>:
    1974:	10291c57 	eorne	r1, r9, r7, asr ip

00001978 <l1504>:
    1978:	e1806004 	orr	r6, r0, r4

0000197c <l1505>:
    197c:	e1f0000b 	mvns	r0, fp

00001980 <l1506>:
    1980:	e032aa98 	mlas	r2, r8, sl, sl

00001984 <l1507>:
    1984:	505e7000 	subspl	r7, lr, r0

00001988 <l1508>:
    1988:	e03a8925 	eors	r8, sl, r5, lsr #18

0000198c <l1509>:
    198c:	a086a394 	umullge	sl, r6, r4, r3

00001990 <l1510>:
    1990:	00d51094 	smullseq	r1, r5, r4, r0

00001994 <l1511>:
    1994:	90e0909c 	smlalls	r9, r0, ip, r0

00001998 <l1512>:
    1998:	a0eb0b0a 	rscge	r0, fp, sl, lsl #22

0000199c <l1513>:
    199c:	921373ba 	andsls	r7, r3, #-402653182	; 0xe8000002

000019a0 <l1514>:
    19a0:	e0bb8890 	umlals	r8, fp, r0, r8

000019a4 <l1515>:
    19a4:	700243ab 	andvc	r4, r2, fp, lsr #7

000019a8 <l1516>:
    19a8:	d006110f 	andle	r1, r6, pc, lsl #2

000019ac <l1517>:
    19ac:	e0a73a95 	umlal	r3, r7, r5, sl

000019b0 <l1518>:
    19b0:	e1861057 	orr	r1, r6, r7, asr r0

000019b4 <l1519>:
    19b4:	d38b71b9 	orrle	r7, fp, #1073741870	; 0x4000002e

000019b8 <l1520>:
    19b8:	e186b00c 	orr	fp, r6, ip

000019bc <l1521>:
    19bc:	0212900f 	andseq	r9, r2, #15

000019c0 <l1522>:
    19c0:	60835068 	addvs	r5, r3, r8, rrx

000019c4 <l1523>:
    19c4:	6037cf8f 	eorsvs	ip, r7, pc, lsl #31

000019c8 <l1524>:
    19c8:	e025a890 	mla	r5, r0, r8, sl

000019cc <l1525>:
    19cc:	e2525d2b 	subs	r5, r2, #2752	; 0xac0

000019d0 <l1526>:
    19d0:	e0eb889c 	smlal	r8, fp, ip, r8

000019d4 <l1527>:
    19d4:	d194b11c 	orrsle	fp, r4, ip, lsl r1

000019d8 <l1528>:
    19d8:	30ba3007 	adcscc	r3, sl, r7

000019dc <l1529>:
    19dc:	917c09ee 	cmnls	ip, lr, ror #19

000019e0 <l1530>:
    19e0:	e18a0063 	orr	r0, sl, r3, rrx

000019e4 <l1531>:
    19e4:	c18fc6a9 	orrgt	ip, pc, r9, lsr #13

000019e8 <l1532>:
    19e8:	e1910118 	orrs	r0, r1, r8, lsl r1

000019ec <l1533>:
    19ec:	80a6769a 	umlalhi	r7, r6, sl, r6

000019f0 <l1534>:
    19f0:	10b1a5a2 	adcsne	sl, r1, r2, lsr #11

000019f4 <l1535>:
    19f4:	504b800f 	subpl	r8, fp, pc

000019f8 <l1536>:
    19f8:	e0190093 	muls	r9, r3, r0

000019fc <l1537>:
    19fc:	e0160a4e 	ands	r0, r6, lr, asr #20

00001a00 <l1538>:
    1a00:	b0375009 	eorslt	r5, r7, r9

00001a04 <l1539>:
    1a04:	c1e0b014 	mvngt	fp, r4, lsl r0

00001a08 <l1540>:
    1a08:	00d8a391 	smullseq	sl, r8, r1, r3

00001a0c <l1541>:
    1a0c:	e19c600b 	orrs	r6, ip, fp

00001a10 <l1542>:
    1a10:	e39e5c0b 	orrs	r5, lr, #2816	; 0xb00

00001a14 <l1543>:
    1a14:	e1f08005 	mvns	r8, r5

00001a18 <l1544>:
    1a18:	b0cb733e 	sbclt	r7, fp, lr, lsr r3

00001a1c <l1545>:
    1a1c:	c1580b44 	cmpgt	r8, r4, asr #22

00001a20 <l1546>:
    1a20:	c1924aa4 	orrsgt	r4, r2, r4, lsr #21

00001a24 <l1547>:
    1a24:	3233af9b 	eorscc	sl, r3, #620	; 0x26c

00001a28 <l1548>:
    1a28:	d2492417 	suble	r2, r9, #385875968	; 0x17000000

00001a2c <l1549>:
    1a2c:	716f6f10 	clzvc	r6, r0

00001a30 <l1550>:
    1a30:	639f771b 	orrsvs	r7, pc, #7077888	; 0x6c0000

00001a34 <l1551>:
    1a34:	e1360012 	teq	r6, r2, lsl r0

00001a38 <l1552>:
    1a38:	e0b7a591 	umlals	sl, r7, r1, r5

00001a3c <l1553>:
    1a3c:	e199496f 	orrs	r4, r9, pc, ror #18

00001a40 <l1554>:
    1a40:	e33c0d16 	teq	ip, #1408	; 0x580

00001a44 <l1555>:
    1a44:	e0e9c00b 	rsc	ip, r9, fp

00001a48 <l1556>:
    1a48:	001c7a31 	andseq	r7, ip, r1, lsr sl

00001a4c <l1557>:
    1a4c:	91f09a1a 	mvnsls	r9, sl, lsl sl

00001a50 <l1558>:
    1a50:	e0856a21 	add	r6, r5, r1, lsr #20

00001a54 <l1559>:
    1a54:	e01c0290 	muls	ip, r0, r2

00001a58 <l1560>:
    1a58:	e1e0ca87 	mvn	ip, r7, lsl #21

00001a5c <l1561>:
    1a5c:	20fea006 	rscscs	sl, lr, r6

00001a60 <l1562>:
    1a60:	c1b01884 	lslsgt	r1, r4, #17

00001a64 <l1563>:
    1a64:	00090094 	muleq	r9, r4, r0

00001a68 <l1564>:
    1a68:	104ae008 	subne	lr, sl, r8

00001a6c <l1565>:
    1a6c:	e004552f 	and	r5, r4, pc, lsr #10

00001a70 <l1566>:
    1a70:	e0257e67 	eor	r7, r5, r7, ror #28

00001a74 <l1567>:
    1a74:	513003e2 	teqpl	r0, r2, ror #7

00001a78 <l1568>:
    1a78:	a0b2a190 	umlalsge	sl, r2, r0, r1

00001a7c <l1569>:
    1a7c:	e294ac3b 	adds	sl, r4, #15104	; 0x3b00

00001a80 <l1570>:
    1a80:	e0bbeb98 	umlals	lr, fp, r8, fp

00001a84 <l1571>:
    1a84:	e135000a 	teq	r5, sl

00001a88 <l1572>:
    1a88:	e0f5169e 	smlals	r1, r5, lr, r6

00001a8c <l1573>:
    1a8c:	e0e7e000 	rsc	lr, r7, r0

00001a90 <l1574>:
    1a90:	b18e7002 	orrlt	r7, lr, r2

00001a94 <l1575>:
    1a94:	61916139 	orrsvs	r6, r1, r9, lsr r1

00001a98 <l1576>:
    1a98:	4395c201 	orrsmi	ip, r5, #268435456	; 0x10000000

00001a9c <l1577>:
    1a9c:	70047912 	andvc	r7, r4, r2, lsl r9

00001aa0 <l1578>:
    1aa0:	e092c009 	adds	ip, r2, r9

00001aa4 <l1579>:
    1aa4:	5007c82e 	andpl	ip, r7, lr, lsr #16

00001aa8 <l1580>:
    1aa8:	b00c059e 	mullt	ip, lr, r5

00001aac <l1581>:
    1aac:	50a3499a 	umlalpl	r4, r3, sl, r9

00001ab0 <l1582>:
    1ab0:	d0e7e699 	smlalle	lr, r7, r9, r6

00001ab4 <l1583>:
    1ab4:	00338b9a 	mlaseq	r3, sl, fp, r8

00001ab8 <l1584>:
    1ab8:	e0714c60 	rsbs	r4, r1, r0, ror #24

00001abc <l1585>:
    1abc:	a0f3aa9c 	smlalsge	sl, r3, ip, sl

00001ac0 <l1586>:
    1ac0:	c0ceb595 	smullgt	fp, lr, r5, r5

00001ac4 <l1587>:
    1ac4:	e1f0754a 	mvns	r7, sl, asr #10

00001ac8 <l1588>:
    1ac8:	40384002 	eorsmi	r4, r8, r2

00001acc <l1589>:
    1acc:	00cb4698 	smulleq	r4, fp, r8, r6

00001ad0 <l1590>:
    1ad0:	e18e400a 	orr	r4, lr, sl

00001ad4 <l1591>:
    1ad4:	1041b12b 	subne	fp, r1, fp, lsr #2

00001ad8 <l1592>:
    1ad8:	8091e993 	umullshi	lr, r1, r3, r9

00001adc <l1593>:
    1adc:	10e8e69b 	smlalne	lr, r8, fp, r6

00001ae0 <l1594>:
    1ae0:	70511ea2 	subsvc	r1, r1, r2, lsr #29

00001ae4 <l1595>:
    1ae4:	e008039a 	mul	r8, sl, r3

00001ae8 <l1596>:
    1ae8:	e16fbf14 	clz	fp, r4

00001aec <l1597>:
    1aec:	e1916c21 	orrs	r6, r1, r1, lsr #24

00001af0 <l1598>:
    1af0:	e001ec84 	and	lr, r1, r4, lsl #25

00001af4 <l1599>:
    1af4:	521eb2f9 	andspl	fp, lr, #-1879048177	; 0x9000000f

00001af8 <l1600>:
    1af8:	531e09be 	tstpl	lr, #3112960	; 0x2f8000

00001afc <l1601>:
    1afc:	b0180999 	mulslt	r8, r9, r9

00001b00 <l1602>:
    1b00:	e3520b0a 	cmp	r2, #10240	; 0x2800

00001b04 <l1603>:
    1b04:	e0912194 	umulls	r2, r1, r4, r1

00001b08 <l1604>:
    1b08:	e0dc6198 	smulls	r6, ip, r8, r1

00001b0c <l1605>:
    1b0c:	c0280c96 	mlagt	r8, r6, ip, r0

00001b10 <l1606>:
    1b10:	516f5f18 	clzpl	r5, r8

00001b14 <l1607>:
    1b14:	e01e0891 	muls	lr, r1, r8

00001b18 <l1608>:
    1b18:	e130000a 	teq	r0, sl

00001b1c <l1609>:
    1b1c:	a18c525c 	orrge	r5, ip, ip, asr r2

00001b20 <l1610>:
    1b20:	c1530004 	cmpgt	r3, r4

00001b24 <l1611>:
    1b24:	e0a2ce97 	umlal	ip, r2, r7, lr

00001b28 <l1612>:
    1b28:	8011300f 	andshi	r3, r1, pc

00001b2c <l1613>:
    1b2c:	e003233e 	and	r2, r3, lr, lsr r3

00001b30 <l1614>:
    1b30:	73907c27 	orrsvc	r7, r0, #9984	; 0x2700

00001b34 <l1615>:
    1b34:	e0593215 	subs	r3, r9, r5, lsl r2

00001b38 <l1616>:
    1b38:	00120999 	mulseq	r2, r9, r9

00001b3c <l1617>:
    1b3c:	e1dba05c 	bics	sl, fp, ip, asr r0

00001b40 <l1618>:
    1b40:	60841692 	umullvs	r1, r4, r2, r6

00001b44 <l1619>:
    1b44:	e0070e91 	mul	r7, r1, lr

00001b48 <l1620>:
    1b48:	10e9b693 	smlalne	fp, r9, r3, r6

00001b4c <l1621>:
    1b4c:	20d6ac94 	smullscs	sl, r6, r4, ip

00001b50 <l1622>:
    1b50:	61a00618 	lslvs	r0, r8, r6

00001b54 <l1623>:
    1b54:	e009b97a 	and	fp, r9, sl, ror r9

00001b58 <l1624>:
    1b58:	d225b60b 	eorle	fp, r5, #11534336	; 0xb00000

00001b5c <l1625>:
    1b5c:	e035519a 	mlas	r5, sl, r1, r5

00001b60 <l1626>:
    1b60:	00be9c92 	umlalseq	r9, lr, r2, ip

00001b64 <l1627>:
    1b64:	70a71e90 	umlalvc	r1, r7, r0, lr

00001b68 <l1628>:
    1b68:	037b0927 	cmneq	fp, #638976	; 0x9c000

00001b6c <l1629>:
    1b6c:	e0070498 	mul	r7, r8, r4

00001b70 <l1630>:
    1b70:	e1954be9 	orrs	r4, r5, r9, ror #23

00001b74 <l1631>:
    1b74:	400a0999 	mulmi	sl, r9, r9

00001b78 <l1632>:
    1b78:	e2352315 	eors	r2, r5, #1409286144	; 0x54000000

00001b7c <l1633>:
    1b7c:	60727007 	rsbsvs	r7, r2, r7

00001b80 <l1634>:
    1b80:	801e751b 	andshi	r7, lr, fp, lsl r5

00001b84 <l1635>:
    1b84:	80150b9a 	mulshi	r5, sl, fp

00001b88 <l1636>:
    1b88:	e0a8ee93 	umlal	lr, r8, r3, lr

00001b8c <l1637>:
    1b8c:	60b59a92 	umlalsvs	r9, r5, r2, sl

00001b90 <l1638>:
    1b90:	709a629e 	umullsvc	r6, sl, lr, r2

00001b94 <l1639>:
    1b94:	e0e3599a 	smlal	r5, r3, sl, r9

00001b98 <l1640>:
    1b98:	71993807 	orrsvc	r3, r9, r7, lsl #16

00001b9c <l1641>:
    1b9c:	e089219c 	umull	r2, r9, ip, r1

00001ba0 <l1642>:
    1ba0:	e0040791 	mul	r4, r1, r7

00001ba4 <l1643>:
    1ba4:	60ab929e 	umlalvs	r9, fp, lr, r2

00001ba8 <l1644>:
    1ba8:	40c93a9a 	smullmi	r3, r9, sl, sl

00001bac <l1645>:
    1bac:	e03b9866 	eors	r9, fp, r6, ror #16

00001bb0 <l1646>:
    1bb0:	92bf6511 	adcsls	r6, pc, #71303168	; 0x4400000

00001bb4 <l1647>:
    1bb4:	e3db1a25 	bics	r1, fp, #151552	; 0x25000

00001bb8 <l1648>:
    1bb8:	500b9065 	andpl	r9, fp, r5, rrx

00001bbc <l1649>:
    1bbc:	c099c892 	umullsgt	ip, r9, r2, r8

00001bc0 <l1650>:
    1bc0:	e0163004 	ands	r3, r6, r4

00001bc4 <l1651>:
    1bc4:	e334081d 	teq	r4, #1900544	; 0x1d0000

00001bc8 <l1652>:
    1bc8:	e3e09b72 	mvn	r9, #116736	; 0x1c800

00001bcc <l1653>:
    1bcc:	e01b8533 	ands	r8, fp, r3, lsr r5

00001bd0 <l1654>:
    1bd0:	e0086475 	and	r6, r8, r5, ror r4

00001bd4 <l1655>:
    1bd4:	e19c8536 	orrs	r8, ip, r6, lsr r5

00001bd8 <l1656>:
    1bd8:	e1700064 	cmn	r0, r4, rrx

00001bdc <l1657>:
    1bdc:	a06f3062 	rsbge	r3, pc, r2, rrx

00001be0 <l1658>:
    1be0:	e0191083 	ands	r1, r9, r3, lsl #1

00001be4 <l1659>:
    1be4:	015f0061 	cmpeq	pc, r1, rrx

00001be8 <l1660>:
    1be8:	02284731 	eoreq	r4, r8, #12845056	; 0xc40000

00001bec <l1661>:
    1bec:	7063388b 	rsbvc	r3, r3, fp, lsl #17

00001bf0 <l1662>:
    1bf0:	60e9699e 	smlalvs	r6, r9, lr, r9

00001bf4 <l1663>:
    1bf4:	60030313 	andvs	r0, r3, r3, lsl r3

00001bf8 <l1664>:
    1bf8:	e197a00b 	orrs	sl, r7, fp

00001bfc <l1665>:
    1bfc:	b0281e94 	mlalt	r8, r4, lr, r1

00001c00 <l1666>:
    1c00:	903c4290 	mlasls	ip, r0, r2, r4

00001c04 <l1667>:
    1c04:	e0862e9a 	umull	r2, r6, sl, lr

00001c08 <l1668>:
    1c08:	e0e3c067 	rsc	ip, r3, r7, rrx

00001c0c <l1669>:
    1c0c:	b0f1b06b 	rscslt	fp, r1, fp, rrx

00001c10 <l1670>:
    1c10:	e038ab92 	mlas	r8, r2, fp, sl

00001c14 <l1671>:
    1c14:	0180c489 	orreq	ip, r0, r9, lsl #9

00001c18 <l1672>:
    1c18:	81824002 	orrhi	r4, r2, r2

00001c1c <l1673>:
    1c1c:	821c89a1 	andshi	r8, ip, #2637824	; 0x284000

00001c20 <l1674>:
    1c20:	e0165b53 	ands	r5, r6, r3, asr fp

00001c24 <l1675>:
    1c24:	e22107f9 	eor	r0, r1, #65273856	; 0x3e40000

00001c28 <l1676>:
    1c28:	200fb008 	andcs	fp, pc, r8

00001c2c <l1677>:
    1c2c:	40d2a090 	smullsmi	sl, r2, r0, r0

00001c30 <l1678>:
    1c30:	702b300b 	eorvc	r3, fp, fp

00001c34 <l1679>:
    1c34:	e1cce77a 	bic	lr, ip, sl, ror r7

00001c38 <l1680>:
    1c38:	e2302000 	eors	r2, r0, #0

00001c3c <l1681>:
    1c3c:	20fa7395 	smlalscs	r7, sl, r5, r3

00001c40 <l1682>:
    1c40:	e0325064 	eors	r5, r2, r4, rrx

00001c44 <l1683>:
    1c44:	e3999d63 	orrs	r9, r9, #6336	; 0x18c0

00001c48 <l1684>:
    1c48:	a067e008 	rsbge	lr, r7, r8

00001c4c <l1685>:
    1c4c:	e0150999 	muls	r5, r9, r9

00001c50 <l1686>:
    1c50:	00307596 	mlaseq	r0, r6, r5, r7

00001c54 <l1687>:
    1c54:	e1f04008 	mvns	r4, r8

00001c58 <l1688>:
    1c58:	111b0378 	tstne	fp, r8, ror r3

00001c5c <l1689>:
    1c5c:	922972f7 	eorls	r7, r9, #1879048207	; 0x7000000f

00001c60 <l1690>:
    1c60:	e19c9b50 	orrs	r9, ip, r0, asr fp

00001c64 <l1691>:
    1c64:	30dc1b95 	smullscc	r1, ip, r5, fp

00001c68 <l1692>:
    1c68:	20a23990 	umlalcs	r3, r2, r0, r9

00001c6c <l1693>:
    1c6c:	50110c9a 	mulspl	r1, sl, ip

00001c70 <l1694>:
    1c70:	e08ca395 	umull	sl, ip, r5, r3

00001c74 <l1695>:
    1c74:	1197ca32 	orrsne	ip, r7, r2, lsr sl

00001c78 <l1696>:
    1c78:	e21e74ad 	ands	r7, lr, #-1392508928	; 0xad000000

00001c7c <l1697>:
    1c7c:	119e5538 	orrsne	r5, lr, r8, lsr r5

00001c80 <l1698>:
    1c80:	e0f2e890 	smlals	lr, r2, r0, r8

00001c84 <l1699>:
    1c84:	e0dc8b99 	smulls	r8, ip, r9, fp

00001c88 <l1700>:
    1c88:	d11a0006 	tstle	sl, r6

00001c8c <l1701>:
    1c8c:	8225ee25 	eorhi	lr, r5, #592	; 0x250

00001c90 <l1702>:
    1c90:	2027e799 	mlacs	r7, r9, r7, lr

00001c94 <l1703>:
    1c94:	e012600e 	ands	r6, r2, lr

00001c98 <l1704>:
    1c98:	9359006c 	cmpls	r9, #108	; 0x6c

00001c9c <l1705>:
    1c9c:	30b0ca93 	umlalscc	ip, r0, r3, sl

00001ca0 <l1706>:
    1ca0:	e0e52690 	smlal	r2, r5, r0, r6

00001ca4 <l1707>:
    1ca4:	5196b71e 	orrspl	fp, r6, lr, lsl r7

00001ca8 <l1708>:
    1ca8:	7081c896 	umullvc	ip, r1, r6, r8

00001cac <l1709>:
    1cac:	e019800f 	ands	r8, r9, pc

00001cb0 <l1710>:
    1cb0:	01930125 	orrseq	r0, r3, r5, lsr #2

00001cb4 <l1711>:
    1cb4:	e07f300c 	rsbs	r3, pc, ip

00001cb8 <l1712>:
    1cb8:	c027aa93 	mlagt	r7, r3, sl, sl

00001cbc <l1713>:
    1cbc:	42cbb6f1 	sbcmi	fp, fp, #252706816	; 0xf100000

00001cc0 <l1714>:
    1cc0:	63540fe2 	cmpvs	r4, #904	; 0x388

00001cc4 <l1715>:
    1cc4:	631b089a 	tstvs	fp, #10092544	; 0x9a0000

00001cc8 <l1716>:
    1cc8:	e03e0002 	eors	r0, lr, r2

00001ccc <l1717>:
    1ccc:	e3300de7 	teq	r0, #14784	; 0x39c0

00001cd0 <l1718>:
    1cd0:	e02ae153 	eor	lr, sl, r3, asr r1

00001cd4 <l1719>:
    1cd4:	100f700a 	andne	r7, pc, sl

00001cd8 <l1720>:
    1cd8:	60cce00e 	sbcvs	lr, ip, lr

00001cdc <l1721>:
    1cdc:	e00cb006 	and	fp, ip, r6

00001ce0 <l1722>:
    1ce0:	721488d5 	andsvc	r8, r4, #13959168	; 0xd50000

00001ce4 <l1723>:
    1ce4:	e0040198 	mul	r4, r8, r1

00001ce8 <l1724>:
    1ce8:	90180490 	mulsls	r8, r0, r4

00001cec <l1725>:
    1cec:	30b76b91 	umlalscc	r6, r7, r1, fp

00001cf0 <l1726>:
    1cf0:	e18a9c68 	orr	r9, sl, r8, ror #24

00001cf4 <l1727>:
    1cf4:	2194c0e4 	orrscs	ip, r4, r4, ror #1

00001cf8 <l1728>:
    1cf8:	e29c8402 	adds	r8, ip, #33554432	; 0x2000000

00001cfc <l1729>:
    1cfc:	e2244d39 	eor	r4, r4, #3648	; 0xe40

00001d00 <l1730>:
    1d00:	e0978594 	umulls	r8, r7, r4, r5

00001d04 <l1731>:
    1d04:	60e67492 	smlalvs	r7, r6, r2, r4

00001d08 <l1732>:
    1d08:	30128008 	andscc	r8, r2, r8

00001d0c <l1733>:
    1d0c:	40c2c397 	smullmi	ip, r2, r7, r3

00001d10 <l1734>:
    1d10:	d2261a02 	eorle	r1, r6, #8192	; 0x2000

00001d14 <l1735>:
    1d14:	e0d21399 	smulls	r1, r2, r9, r3

00001d18 <l1736>:
    1d18:	133902d6 	teqne	r9, #1610612749	; 0x6000000d

00001d1c <l1737>:
    1d1c:	e04a53a0 	sub	r5, sl, r0, lsr #7

00001d20 <l1738>:
    1d20:	539e58d7 	orrspl	r5, lr, #14090240	; 0xd70000

00001d24 <l1739>:
    1d24:	40180e95 	mulsmi	r8, r5, lr

00001d28 <l1740>:
    1d28:	e0c1779a 	smull	r7, r1, sl, r7

00001d2c <l1741>:
    1d2c:	e026e071 	eor	lr, r6, r1, ror r0

00001d30 <l1742>:
    1d30:	220c820b 	andcs	r8, ip, #-1342177280	; 0xb0000000

00001d34 <l1743>:
    1d34:	e157000b 	cmp	r7, fp

00001d38 <l1744>:
    1d38:	21120611 	tstcs	r2, r1, lsl r6

00001d3c <l1745>:
    1d3c:	e0079b54 	and	r9, r7, r4, asr fp

00001d40 <l1746>:
    1d40:	e1340006 	teq	r4, r6

00001d44 <l1747>:
    1d44:	61982479 	orrsvs	r2, r8, r9, ror r4

00001d48 <l1748>:
    1d48:	639e1e23 	orrsvs	r1, lr, #560	; 0x230

00001d4c <l1749>:
    1d4c:	00048ac6 	andeq	r8, r4, r6, asr #21

00001d50 <l1750>:
    1d50:	60aaec95 	umlalvs	lr, sl, r5, ip

00001d54 <l1751>:
    1d54:	c0f12494 	smlalsgt	r2, r1, r4, r4

00001d58 <l1752>:
    1d58:	e0fb4a9e 	smlals	r4, fp, lr, sl

00001d5c <l1753>:
    1d5c:	e0090495 	mul	r9, r5, r4

00001d60 <l1754>:
    1d60:	e1b08c19 	lsls	r8, r9, ip

00001d64 <l1755>:
    1d64:	e0c8cb90 	smull	ip, r8, r0, fp

00001d68 <l1756>:
    1d68:	00c27393 	smulleq	r7, r2, r3, r3

00001d6c <l1757>:
    1d6c:	e31c0101 	tst	ip, #1073741824	; 0x40000000

00001d70 <l1758>:
    1d70:	116fbf1e 	clzne	fp, lr

00001d74 <l1759>:
    1d74:	e0975594 	umulls	r5, r7, r4, r5

00001d78 <l1760>:
    1d78:	e009009c 	mul	r9, ip, r0

00001d7c <l1761>:
    1d7c:	e1110b57 	tst	r1, r7, asr fp

00001d80 <l1762>:
    1d80:	4131000b 	teqmi	r1, fp

00001d84 <l1763>:
    1d84:	e02c400b 	eor	r4, ip, fp

00001d88 <l1764>:
    1d88:	c3906035 	orrsgt	r6, r0, #53	; 0x35

00001d8c <l1765>:
    1d8c:	10023430 	andne	r3, r2, r0, lsr r4

00001d90 <l1766>:
    1d90:	b15f070a 	cmplt	pc, sl, lsl #14

00001d94 <l1767>:
    1d94:	a00b0c91 	mulge	fp, r1, ip

00001d98 <l1768>:
    1d98:	4032009a 	mlasmi	r2, sl, r0, r0

00001d9c <l1769>:
    1d9c:	c028e390 	mlagt	r8, r0, r3, lr

00001da0 <l1770>:
    1da0:	e0250005 	eor	r0, r5, r5

00001da4 <l1771>:
    1da4:	e0060a93 	mul	r6, r3, sl

00001da8 <l1772>:
    1da8:	9025c996 	mlals	r5, r6, r9, ip

00001dac <l1773>:
    1dac:	e1b03003 	movs	r3, r3

00001db0 <l1774>:
    1db0:	50ca7b1b 	sbcpl	r7, sl, fp, lsl fp

00001db4 <l1775>:
    1db4:	50d003e9 	sbcspl	r0, r0, r9, ror #7

00001db8 <l1776>:
    1db8:	7035b197 	mlasvc	r5, r7, r1, fp

00001dbc <l1777>:
    1dbc:	10aa0296 	umlalne	r0, sl, r6, r2

00001dc0 <l1778>:
    1dc0:	01c12313 	biceq	r2, r1, r3, lsl r3

00001dc4 <l1779>:
    1dc4:	30c53449 	sbccc	r3, r5, r9, asr #8

00001dc8 <l1780>:
    1dc8:	e1872c1b 	orr	r2, r7, fp, lsl ip

00001dcc <l1781>:
    1dcc:	a180432b 	orrge	r4, r0, fp, lsr #6

00001dd0 <l1782>:
    1dd0:	e0bae891 	umlals	lr, sl, r1, r8

00001dd4 <l1783>:
    1dd4:	e1c5206c 	bic	r2, r5, ip, rrx

00001dd8 <l1784>:
    1dd8:	d02ae003 	eorle	lr, sl, r3

00001ddc <l1785>:
    1ddc:	73530020 	cmpvc	r3, #32

00001de0 <l1786>:
    1de0:	e016021c 	ands	r0, r6, ip, lsl r2

00001de4 <l1787>:
    1de4:	e0010c98 	mul	r1, r8, ip

00001de8 <l1788>:
    1de8:	e1823000 	orr	r3, r2, r0

00001dec <l1789>:
    1dec:	e0d1c09a 	smulls	ip, r1, sl, r0

00001df0 <l1790>:
    1df0:	00c98b9e 	smulleq	r8, r9, lr, fp

00001df4 <l1791>:
    1df4:	e0268007 	eor	r8, r6, r7

00001df8 <l1792>:
    1df8:	002b5a1b 	eoreq	r5, fp, fp, lsl sl

00001dfc <l1793>:
    1dfc:	2376039e 	cmncs	r6, #2013265922	; 0x78000002

00001e00 <l1794>:
    1e00:	e083ba97 	umull	fp, r3, r7, sl

00001e04 <l1795>:
    1e04:	e0206e22 	eor	r6, r0, r2, lsr #28

00001e08 <l1796>:
    1e08:	31954133 	orrscc	r4, r5, r3, lsr r1

00001e0c <l1797>:
    1e0c:	e0b53499 	umlals	r3, r5, r9, r4

00001e10 <l1798>:
    1e10:	e1915835 	orrs	r5, r1, r5, lsr r8

00001e14 <l1799>:
    1e14:	e17f0000 	cmn	pc, r0

00001e18 <l1800>:
    1e18:	6183e24a 	orrvs	lr, r3, sl, asr #4

00001e1c <l1801>:
    1e1c:	80c57593 	smullhi	r7, r5, r3, r5

00001e20 <l1802>:
    1e20:	e06e8007 	rsb	r8, lr, r7

00001e24 <l1803>:
    1e24:	50100c97 	mulspl	r0, r7, ip

00001e28 <l1804>:
    1e28:	4007b00c 	andmi	fp, r7, ip

00001e2c <l1805>:
    1e2c:	e03b299a 	mlas	fp, sl, r9, r2

00001e30 <l1806>:
    1e30:	50f7be96 	smlalspl	fp, r7, r6, lr

00001e34 <l1807>:
    1e34:	a17e0152 	cmnge	lr, r2, asr r1

00001e38 <l1808>:
    1e38:	e0d6a090 	smulls	sl, r6, r0, r0

00001e3c <l1809>:
    1e3c:	01a02069 	rrxeq	r2, r9

00001e40 <l1810>:
    1e40:	30576949 	subscc	r6, r7, r9, asr #18

00001e44 <l1811>:
    1e44:	709ca094 	umullsvc	sl, ip, r4, r0

00001e48 <l1812>:
    1e48:	21810000 	orrcs	r0, r1, r0

00001e4c <l1813>:
    1e4c:	e0d46b98 	smulls	r6, r4, r8, fp

00001e50 <l1814>:
    1e50:	a274c11d 	rsbsge	ip, r4, #1073741831	; 0x40000007

00001e54 <l1815>:
    1e54:	12a932d6 	adcne	r3, r9, #1610612749	; 0x6000000d

00001e58 <l1816>:
    1e58:	10370e38 	eorsne	r0, r7, r8, lsr lr

00001e5c <l1817>:
    1e5c:	d18fc007 	orrle	ip, pc, r7

00001e60 <l1818>:
    1e60:	e02ba005 	eor	sl, fp, r5

00001e64 <l1819>:
    1e64:	6154000f 	cmpvs	r4, pc

00001e68 <l1820>:
    1e68:	a0998b1c 	addsge	r8, r9, ip, lsl fp

00001e6c <l1821>:
    1e6c:	11946214 	orrsne	r6, r4, r4, lsl r2

00001e70 <l1822>:
    1e70:	d0192a60 	andsle	r2, r9, r0, ror #20

00001e74 <l1823>:
    1e74:	40170199 	mulsmi	r7, r9, r1

00001e78 <l1824>:
    1e78:	61770783 	cmnvs	r7, r3, lsl #15

00001e7c <l1825>:
    1e7c:	b0190097 	mulslt	r9, r7, r0

00001e80 <l1826>:
    1e80:	a0593006 	subsge	r3, r9, r6

00001e84 <l1827>:
    1e84:	e006049b 	mul	r6, fp, r4

00001e88 <l1828>:
    1e88:	e22e723a 	eor	r7, lr, #-1610612733	; 0xa0000003

00001e8c <l1829>:
    1e8c:	e3881a23 	orr	r1, r8, #143360	; 0x23000

00001e90 <l1830>:
    1e90:	20d65b92 	smullscs	r5, r6, r2, fp

00001e94 <l1831>:
    1e94:	8235b3e5 	eorshi	fp, r5, #-1811939325	; 0x94000003

00001e98 <l1832>:
    1e98:	20e9ae59 	rsccs	sl, r9, r9, asr lr

00001e9c <l1833>:
    1e9c:	e21665de 	ands	r6, r6, #931135488	; 0x37800000

00001ea0 <l1834>:
    1ea0:	60020697 	mulvs	r2, r7, r6

00001ea4 <l1835>:
    1ea4:	600620e5 	andvs	r2, r6, r5, ror #1

00001ea8 <l1836>:
    1ea8:	90ee609c 	smlalls	r6, lr, ip, r0

00001eac <l1837>:
    1eac:	e0379481 	eors	r9, r7, r1, lsl #9

00001eb0 <l1838>:
    1eb0:	4185500c 	orrmi	r5, r5, ip

00001eb4 <l1839>:
    1eb4:	e0190890 	muls	r9, r0, r8

00001eb8 <l1840>:
    1eb8:	d016647e 	andsle	r6, r6, lr, ror r4

00001ebc <l1841>:
    1ebc:	e0285090 	mla	r8, r0, r0, r5

00001ec0 <l1842>:
    1ec0:	e17f0003 	cmn	pc, r3

00001ec4 <l1843>:
    1ec4:	5181b0cf 	orrpl	fp, r1, pc, asr #1

00001ec8 <l1844>:
    1ec8:	e23c70fd 	eors	r7, ip, #253	; 0xfd

00001ecc <l1845>:
    1ecc:	a224ace5 	eorge	sl, r4, #58624	; 0xe500

00001ed0 <l1846>:
    1ed0:	d02a8492 	mlale	sl, r2, r4, r8

00001ed4 <l1847>:
    1ed4:	529cc50b 	addspl	ip, ip, #46137344	; 0x2c00000

00001ed8 <l1848>:
    1ed8:	80bc0196 	umlalshi	r0, ip, r6, r1

00001edc <l1849>:
    1edc:	42179536 	andsmi	r9, r7, #226492416	; 0xd800000

00001ee0 <l1850>:
    1ee0:	405e0e68 	subsmi	r0, lr, r8, ror #28

00001ee4 <l1851>:
    1ee4:	e0c10c95 	smull	r0, r1, r5, ip

00001ee8 <l1852>:
    1ee8:	9396a301 	orrsls	sl, r6, #67108864	; 0x4000000

00001eec <l1853>:
    1eec:	e0980005 	adds	r0, r8, r5

00001ef0 <l1854>:
    1ef0:	11922000 	orrsne	r2, r2, r0

00001ef4 <l1855>:
    1ef4:	7281150a 	addvc	r1, r1, #41943040	; 0x2800000

00001ef8 <l1856>:
    1ef8:	62de43a5 	sbcsvs	r4, lr, #-1811939326	; 0x94000002

00001efc <l1857>:
    1efc:	e2021029 	and	r1, r2, #41	; 0x29

00001f00 <l1858>:
    1f00:	30a1699b 	umlalcc	r6, r1, fp, r9

00001f04 <l1859>:
    1f04:	d3e0effe 	mvnle	lr, #1016	; 0x3f8

00001f08 <l1860>:
    1f08:	d2827636 	addle	r7, r2, #56623104	; 0x3600000

00001f0c <l1861>:
    1f0c:	021ae917 	andseq	lr, sl, #376832	; 0x5c000

00001f10 <l1862>:
    1f10:	821fc17d 	andshi	ip, pc, #1073741855	; 0x4000001f

00001f14 <l1863>:
    1f14:	c3e0861b 	mvngt	r8, #28311552	; 0x1b00000

00001f18 <l1864>:
    1f18:	c036106b 	eorsgt	r1, r6, fp, rrx

00001f1c <l1865>:
    1f1c:	e2560312 	subs	r0, r6, #1207959552	; 0x48000000

00001f20 <l1866>:
    1f20:	e16f8f15 	clz	r8, r5

00001f24 <l1867>:
    1f24:	b0b4629a 	umlalslt	r6, r4, sl, r2

00001f28 <l1868>:
    1f28:	2242692b 	subcs	r6, r2, #704512	; 0xac000

00001f2c <l1869>:
    1f2c:	e03c6128 	eors	r6, ip, r8, lsr #2

00001f30 <l1870>:
    1f30:	e083729b 	umull	r7, r3, fp, r2

00001f34 <l1871>:
    1f34:	e0e7ba91 	smlal	fp, r7, r1, sl

00001f38 <l1872>:
    1f38:	90090c92 	mulls	r9, r2, ip

00001f3c <l1873>:
    1f3c:	33320343 	teqcc	r2, #201326593	; 0xc000001

00001f40 <l1874>:
    1f40:	10331f87 	eorsne	r1, r3, r7, lsl #31

00001f44 <l1875>:
    1f44:	30283e3e 	eorcc	r3, r8, lr, lsr lr

00001f48 <l1876>:
    1f48:	e215a272 	ands	sl, r5, #536870919	; 0x20000007

00001f4c <l1877>:
    1f4c:	e0f13290 	smlals	r3, r1, r0, r2

00001f50 <l1878>:
    1f50:	a0a1cb9e 	umlalge	ip, r1, lr, fp

00001f54 <l1879>:
    1f54:	e18a2fe0 	orr	r2, sl, r0, ror #31

00001f58 <l1880>:
    1f58:	71720343 	cmnvc	r2, r3, asr #6

00001f5c <l1881>:
    1f5c:	3013089a 	mulscc	r3, sl, r8

00001f60 <l1882>:
    1f60:	e00c0e9a 	mul	ip, sl, lr

00001f64 <l1883>:
    1f64:	207a0b3c 	rsbscs	r0, sl, ip, lsr fp

00001f68 <l1884>:
    1f68:	538f4b0a 	orrpl	r4, pc, #10240	; 0x2800

00001f6c <l1885>:
    1f6c:	422f24f7 	eormi	r2, pc, #-150994944	; 0xf7000000

00001f70 <l1886>:
    1f70:	e01f500e 	ands	r5, pc, lr

00001f74 <l1887>:
    1f74:	a0b04592 	umlalsge	r4, r0, r2, r5

00001f78 <l1888>:
    1f78:	90bcab97 	umlalsls	sl, ip, r7, fp

00001f7c <l1889>:
    1f7c:	e1570006 	cmp	r7, r6

00001f80 <l1890>:
    1f80:	703e1007 	eorsvc	r1, lr, r7

00001f84 <l1891>:
    1f84:	a3e0c0c6 	mvnge	ip, #198	; 0xc6

00001f88 <l1892>:
    1f88:	838f6b1d 	orrhi	r6, pc, #29696	; 0x7400

00001f8c <l1893>:
    1f8c:	e0c4ae96 	smull	sl, r4, r6, lr

00001f90 <l1894>:
    1f90:	e01729e7 	ands	r2, r7, r7, ror #19

00001f94 <l1895>:
    1f94:	1330050d 	teqne	r0, #54525952	; 0x3400000

00001f98 <l1896>:
    1f98:	e3929006 	orrs	r9, r2, #6

00001f9c <l1897>:
    1f9c:	e0f90a97 	smlals	r0, r9, r7, sl

00001fa0 <l1898>:
    1fa0:	e1e0c008 	mvn	ip, r8

00001fa4 <l1899>:
    1fa4:	e0368006 	eors	r8, r6, r6

00001fa8 <l1900>:
    1fa8:	b081b290 	umulllt	fp, r1, r0, r2

00001fac <l1901>:
    1fac:	a0b8c295 	umlalsge	ip, r8, r5, r2

00001fb0 <l1902>:
    1fb0:	403baa92 	mlasmi	fp, r2, sl, sl

00001fb4 <l1903>:
    1fb4:	619e8fe1 	orrsvs	r8, lr, r1, ror #31

00001fb8 <l1904>:
    1fb8:	e03b800a 	eors	r8, fp, sl

00001fbc <l1905>:
    1fbc:	80d9669e 	smullshi	r6, r9, lr, r6

00001fc0 <l1906>:
    1fc0:	70c24b98 	smullvc	r4, r2, r8, fp

00001fc4 <l1907>:
    1fc4:	123f2050 	eorsne	r2, pc, #80	; 0x50

00001fc8 <l1908>:
    1fc8:	1034a9c3 	eorsne	sl, r4, r3, asr #19

00001fcc <l1909>:
    1fcc:	a2320c3f 	eorsge	r0, r2, #16128	; 0x3f00

00001fd0 <l1910>:
    1fd0:	b0fae06b 	rscslt	lr, sl, fp, rrx

00001fd4 <l1911>:
    1fd4:	43e0466d 	mvnmi	r4, #114294784	; 0x6d00000

00001fd8 <l1912>:
    1fd8:	e206930e 	and	r9, r6, #939524096	; 0x38000000

00001fdc <l1913>:
    1fdc:	e0c69e91 	smull	r9, r6, r1, lr

00001fe0 <l1914>:
    1fe0:	60ab0396 	umlalvs	r0, fp, r6, r3

00001fe4 <l1915>:
    1fe4:	5020906f 	eorpl	r9, r0, pc, rrx

00001fe8 <l1916>:
    1fe8:	60374a5b 	eorsvs	r4, r7, fp, asr sl

00001fec <l1917>:
    1fec:	e2e2611f 	rsc	r6, r2, #-1073741817	; 0xc0000007

00001ff0 <l1918>:
    1ff0:	e0681e2c 	rsb	r1, r8, ip, lsr #28

00001ff4 <l1919>:
    1ff4:	e0000091 	mul	r0, r1, r0

00001ff8 <l1920>:
    1ff8:	427fa296 	rsbsmi	sl, pc, #1610612745	; 0x60000009

00001ffc <l1921>:
    1ffc:	e3cc90fb 	bic	r9, ip, #251	; 0xfb

00002000 <l1922>:
    2000:	32516c31 	subscc	r6, r1, #12544	; 0x3100

00002004 <l1923>:
    2004:	50c8a192 	smullpl	sl, r8, r2, r1

00002008 <l1924>:
    2008:	e0dc1e90 	smulls	r1, ip, r0, lr

0000200c <l1925>:
    200c:	e0f07998 	smlals	r7, r0, r8, r9

00002010 <l1926>:
    2010:	e004029e 	mul	r4, lr, r2

00002014 <l1927>:
    2014:	a015099b 	mulsge	r5, fp, r9

00002018 <l1928>:
    2018:	83999447 	orrshi	r9, r9, #1191182336	; 0x47000000

0000201c <l1929>:
    201c:	b087ba95 	umulllt	fp, r7, r5, sl

00002020 <l1930>:
    2020:	e0b4549b 	umlals	r5, r4, fp, r4

00002024 <l1931>:
    2024:	e0e80f00 	rsc	r0, r8, r0, lsl #30

00002028 <l1932>:
    2028:	201f2aa5 	andscs	r2, pc, r5, lsr #21

0000202c <l1933>:
    202c:	40febe97 	smlalsmi	fp, lr, r7, lr

00002030 <l1934>:
    2030:	e026b391 	mla	r6, r1, r3, fp

00002034 <l1935>:
    2034:	a0ce2190 	smullge	r2, lr, r0, r1

00002038 <l1936>:
    2038:	70e45291 	smlalvc	r5, r4, r1, r2

0000203c <l1937>:
    203c:	a01e0a97 	mulsge	lr, r7, sl

00002040 <l1938>:
    2040:	d20c6d06 	andle	r6, ip, #384	; 0x180

00002044 <l1939>:
    2044:	421b6ca5 	andsmi	r6, fp, #42240	; 0xa500

00002048 <l1940>:
    2048:	e21f7937 	ands	r7, pc, #901120	; 0xdc000

0000204c <l1941>:
    204c:	e0c79064 	sbc	r9, r7, r4, rrx

00002050 <l1942>:
    2050:	b18ae001 	orrlt	lr, sl, r1

00002054 <l1943>:
    2054:	e002b061 	and	fp, r2, r1, rrx

00002058 <l1944>:
    2058:	e27bb66e 	rsbs	fp, fp, #115343360	; 0x6e00000

0000205c <l1945>:
    205c:	e21eebc5 	ands	lr, lr, #201728	; 0x31400

00002060 <l1946>:
    2060:	e353020b 	cmp	r3, #-1342177280	; 0xb0000000

00002064 <l1947>:
    2064:	d1140180 	tstle	r4, r0, lsl #3

00002068 <l1948>:
    2068:	60110797 	mulsvs	r1, r7, r7

0000206c <l1949>:
    206c:	e031ea3e 	eors	lr, r1, lr, lsr sl

00002070 <l1950>:
    2070:	d38b3d8f 	orrle	r3, fp, #9152	; 0x23c0

00002074 <l1951>:
    2074:	e00326af 	and	r2, r3, pc, lsr #13

00002078 <l1952>:
    2078:	a1c4aec6 	bicge	sl, r4, r6, asr #29

0000207c <l1953>:
    207c:	30937994 	umullscc	r7, r3, r4, r9

00002080 <l1954>:
    2080:	e03f9363 	eors	r9, pc, r3, ror #6

00002084 <l1955>:
    2084:	20334003 	eorscs	r4, r3, r3

00002088 <l1956>:
    2088:	60ee849a 	smlalvs	r8, lr, sl, r4

0000208c <l1957>:
    208c:	e04b106e 	sub	r1, fp, lr, rrx

00002090 <l1958>:
    2090:	4182b064 	orrmi	fp, r2, r4, rrx

00002094 <l1959>:
    2094:	e0be2997 	umlals	r2, lr, r7, r9

00002098 <l1960>:
    2098:	e16f9f18 	clz	r9, r8

0000209c <l1961>:
    209c:	50cf2060 	sbcpl	r2, pc, r0, rrx

000020a0 <l1962>:
    20a0:	b1b0600c 	movslt	r6, ip

000020a4 <l1963>:
    20a4:	a1b03065 	rrxsge	r3, r5

000020a8 <l1964>:
    20a8:	8031cc44 	eorshi	ip, r1, r4, asr #24

000020ac <l1965>:
    20ac:	91b00004 	movsls	r0, r4

000020b0 <l1966>:
    20b0:	900c0795 	mulls	ip, r5, r7

000020b4 <l1967>:
    20b4:	71f07879 	mvnsvc	r7, r9, ror r8

000020b8 <l1968>:
    20b8:	c0b6459e 	umlalsgt	r4, r6, lr, r5

000020bc <l1969>:
    20bc:	e18ae000 	orr	lr, sl, r0

000020c0 <l1970>:
    20c0:	e0803991 	umull	r3, r0, r1, r9

000020c4 <l1971>:
    20c4:	7000035c 	andvc	r0, r0, ip, asr r3

000020c8 <l1972>:
    20c8:	41846060 	orrmi	r6, r4, r0, rrx

000020cc <l1973>:
    20cc:	e0d59698 	smulls	r9, r5, r8, r6

000020d0 <l1974>:
    20d0:	e1170008 	tst	r7, r8

000020d4 <l1975>:
    20d4:	10a3ba9c 	umlalne	fp, r3, ip, sl

000020d8 <l1976>:
    20d8:	e026889c 	mla	r6, ip, r8, r8

000020dc <l1977>:
    20dc:	e3996030 	orrs	r6, r9, #48	; 0x30

000020e0 <l1978>:
    20e0:	e050b3cf 	subs	fp, r0, pc, asr #7

000020e4 <l1979>:
    20e4:	719ee411 	orrsvc	lr, lr, r1, lsl r4

000020e8 <l1980>:
    20e8:	e0f96009 	rscs	r6, r9, r9

000020ec <l1981>:
    20ec:	70ee979a 	smlalvc	r9, lr, sl, r7

000020f0 <l1982>:
    20f0:	e02653c7 	eor	r5, r6, r7, asr #7

000020f4 <l1983>:
    20f4:	e0140192 	muls	r4, r2, r1

000020f8 <l1984>:
    20f8:	90e54492 	smlalls	r4, r5, r2, r4

000020fc <l1985>:
    20fc:	90f28395 	smlalsls	r8, r2, r5, r3

00002100 <l1986>:
    2100:	e016029c 	muls	r6, ip, r2

00002104 <l1987>:
    2104:	e0190194 	muls	r9, r4, r1

00002108 <l1988>:
    2108:	416f1f10 	clzmi	r1, r0

0000210c <l1989>:
    210c:	01ce900c 	biceq	r9, lr, ip

00002110 <l1990>:
    2110:	e0172767 	ands	r2, r7, r7, ror #14

00002114 <l1991>:
    2114:	e08a3097 	umull	r3, sl, r7, r0

00002118 <l1992>:
    2118:	91c81008 	bicls	r1, r8, r8

0000211c <l1993>:
    211c:	e0c26054 	sbc	r6, r2, r4, asr r0

00002120 <l1994>:
    2120:	e034b397 	mlas	r4, r7, r3, fp

00002124 <l1995>:
    2124:	e08c207e 	add	r2, ip, lr, ror r0

00002128 <l1996>:
    2128:	4086a592 	umullmi	sl, r6, r2, r5

0000212c <l1997>:
    212c:	a0ba1b9c 	umlalsge	r1, sl, ip, fp

00002130 <l1998>:
    2130:	e212c855 	ands	ip, r2, #5570560	; 0x550000

00002134 <l1999>:
    2134:	00e7a39c 	smlaleq	sl, r7, ip, r3

00002138 <l2000>:
    2138:	e09f0002 	adds	r0, pc, r2

0000213c <l2001>:
    213c:	40255004 	eormi	r5, r5, r4

00002140 <l2002>:
    2140:	e033e925 	eors	lr, r3, r5, lsr #18

00002144 <l2003>:
    2144:	60f79e9c 	smlalsvs	r9, r7, ip, lr

00002148 <l2004>:
    2148:	919e8c3a 	orrsls	r8, lr, sl, lsr ip

0000214c <l2005>:
    214c:	e1740001 	cmn	r4, r1

00002150 <l2006>:
    2150:	e1170000 	tst	r7, r0

00002154 <l2007>:
    2154:	e115000c 	tst	r5, ip

00002158 <l2008>:
    2158:	e0a6ca99 	umlal	ip, r6, r9, sl

0000215c <l2009>:
    215c:	0037a991 	mlaseq	r7, r1, r9, sl

00002160 <l2010>:
    2160:	b1979503 	orrslt	r9, r7, r3, lsl #10

00002164 <l2011>:
    2164:	701ea857 	andsvc	sl, lr, r7, asr r8

00002168 <l2012>:
    2168:	82b0cc4d 	adcshi	ip, r0, #19712	; 0x4d00

0000216c <l2013>:
    216c:	5042c1a4 	subpl	ip, r2, r4, lsr #3

00002170 <l2014>:
    2170:	e030c061 	eors	ip, r0, r1, rrx

00002174 <l2015>:
    2174:	e0f44060 	rscs	r4, r4, r0, rrx

00002178 <l2016>:
    2178:	70ae0e95 	umlalvc	r0, lr, r5, lr

0000217c <l2017>:
    217c:	e0212e99 	mla	r1, r9, lr, r2

00002180 <l2018>:
    2180:	61500637 	cmpvs	r0, r7, lsr r6

00002184 <l2019>:
    2184:	e02aa007 	eor	sl, sl, r7

00002188 <l2020>:
    2188:	e0e1909a 	smlal	r9, r1, sl, r0

0000218c <l2021>:
    218c:	21f0b060 	mvnscs	fp, r0, rrx

00002190 <l2022>:
    2190:	e0402004 	sub	r2, r0, r4

00002194 <l2023>:
    2194:	01560004 	cmpeq	r6, r4

00002198 <l2024>:
    2198:	e1d9e00f 	bics	lr, r9, pc

0000219c <l2025>:
    219c:	1091b997 	umullsne	fp, r1, r7, r9

000021a0 <l2026>:
    21a0:	c1808b56 	orrgt	r8, r0, r6, asr fp

000021a4 <l2027>:
    21a4:	016fef17 	clzeq	lr, r7

000021a8 <l2028>:
    21a8:	a0d86b9c 	smullsge	r6, r8, ip, fp

000021ac <l2029>:
    21ac:	4074255b 	rsbsmi	r2, r4, fp, asr r5

000021b0 <l2030>:
    21b0:	e0030590 	mul	r3, r0, r5

000021b4 <l2031>:
    21b4:	e033269b 	mlas	r3, fp, r6, r2

000021b8 <l2032>:
    21b8:	61943ca5 	orrsvs	r3, r4, r5, lsr #25

000021bc <l2033>:
    21bc:	e0cb024f 	sbc	r0, fp, pc, asr #4

000021c0 <l2034>:
    21c0:	e0301691 	mlas	r0, r1, r6, r1

000021c4 <l2035>:
    21c4:	10242584 	eorne	r2, r4, r4, lsl #11

000021c8 <l2036>:
    21c8:	e0140197 	muls	r4, r7, r1

000021cc <l2037>:
    21cc:	31849537 	orrcc	r9, r4, r7, lsr r5

000021d0 <l2038>:
    21d0:	a181e638 	orrge	lr, r1, r8, lsr r6

000021d4 <l2039>:
    21d4:	e0163005 	ands	r3, r6, r5

000021d8 <l2040>:
    21d8:	e19b60e3 	orrs	r6, fp, r3, ror #1

000021dc <l2041>:
    21dc:	20a2aa90 	umlalcs	sl, r2, r0, sl

000021e0 <l2042>:
    21e0:	005a3009 	subseq	r3, sl, r9

000021e4 <l2043>:
    21e4:	e19c0663 	orrs	r0, ip, r3, ror #12

000021e8 <l2044>:
    21e8:	40a90698 	umlalmi	r0, r9, r8, r6

000021ec <l2045>:
    21ec:	803f9744 	eorshi	r9, pc, r4, asr #14

000021f0 <l2046>:
    21f0:	e25a3d17 	subs	r3, sl, #1472	; 0x5c0

000021f4 <l2047>:
    21f4:	7195b063 	orrsvc	fp, r5, r3, rrx

000021f8 <l2048>:
    21f8:	b0d3259a 	smullslt	r2, r3, sl, r5

000021fc <l2049>:
    21fc:	80da479e 	smullshi	r4, sl, lr, r7

00002200 <l2050>:
    2200:	e0071fe1 	and	r1, r7, r1, ror #31

00002204 <l2051>:
    2204:	92e61646 	rscls	r1, r6, #73400320	; 0x4600000

00002208 <l2052>:
    2208:	60dec695 	smullsvs	ip, lr, r5, r6

0000220c <l2053>:
    220c:	e0a89a9e 	umlal	r9, r8, lr, sl

00002210 <l2054>:
    2210:	8081a19c 	umullhi	sl, r1, ip, r1

00002214 <l2055>:
    2214:	e03b5009 	eors	r5, fp, r9

00002218 <l2056>:
    2218:	e00b8006 	and	r8, fp, r6

0000221c <l2057>:
    221c:	31b0a062 	rrxscc	sl, r2

00002220 <l2058>:
    2220:	70b37e99 	umlalsvc	r7, r3, r9, lr

00002224 <l2059>:
    2224:	e1917005 	orrs	r7, r1, r5

00002228 <l2060>:
    2228:	e39f72be 	orrs	r7, pc, #-536870901	; 0xe000000b

0000222c <l2061>:
    222c:	00ce0299 	smulleq	r0, lr, r9, r2

00002230 <l2062>:
    2230:	701b006c 	andsvc	r0, fp, ip, rrx

00002234 <l2063>:
    2234:	8206be2d 	andhi	fp, r6, #720	; 0x2d0

00002238 <l2064>:
    2238:	003c8094 	mlaseq	ip, r4, r0, r8

0000223c <l2065>:
    223c:	e0190792 	muls	r9, r2, r7

00002240 <l2066>:
    2240:	d0f5c39e 	smlalsle	ip, r5, lr, r3

00002244 <l2067>:
    2244:	e1b0800b 	movs	r8, fp

00002248 <l2068>:
    2248:	e02a8e93 	mla	sl, r3, lr, r8

0000224c <l2069>:
    224c:	e16f9f1a 	clz	r9, sl

00002250 <l2070>:
    2250:	e0acb29a 	umlal	fp, ip, sl, r2

00002254 <l2071>:
    2254:	e0322916 	eors	r2, r2, r6, lsl r9

00002258 <l2072>:
    2258:	e3a0a206 	mov	sl, #1610612736	; 0x60000000

0000225c <l2073>:
    225c:	e09a2594 	umulls	r2, sl, r4, r5

00002260 <l2074>:
    2260:	20040064 	andcs	r0, r4, r4, rrx

00002264 <l2075>:
    2264:	01859544 	orreq	r9, r5, r4, asr #10

00002268 <l2076>:
    2268:	30ac0009 	adccc	r0, ip, r9

0000226c <l2077>:
    226c:	50411282 	subpl	r1, r1, r2, lsl #5

00002270 <l2078>:
    2270:	40983491 	umullsmi	r3, r8, r1, r4

00002274 <l2079>:
    2274:	002ec003 	eoreq	ip, lr, r3

00002278 <l2080>:
    2278:	90e513cb 	rscls	r1, r5, fp, asr #7

0000227c <l2081>:
    227c:	61770007 	cmnvs	r7, r7

00002280 <l2082>:
    2280:	50324f46 	eorspl	r4, r2, r6, asr #30

00002284 <l2083>:
    2284:	11580202 	cmpne	r8, r2, lsl #4

00002288 <l2084>:
    2288:	70454163 	subvc	r4, r5, r3, ror #2

0000228c <l2085>:
    228c:	e16f0f13 	clz	r0, r3

00002290 <l2086>:
    2290:	80065638 	andhi	r5, r6, r8, lsr r6

00002294 <l2087>:
    2294:	40a1c994 	umlalmi	ip, r1, r4, r9

00002298 <l2088>:
    2298:	8014000e 	andshi	r0, r4, lr

0000229c <l2089>:
    229c:	72e94107 	rscvc	r4, r9, #-1073741823	; 0xc0000001

000022a0 <l2090>:
    22a0:	1021bb94 	mlane	r1, r4, fp, fp

000022a4 <l2091>:
    22a4:	e16f0f19 	clz	r0, r9

000022a8 <l2092>:
    22a8:	d0b04e93 	umlalsle	r4, r0, r3, lr

000022ac <l2093>:
    22ac:	e27897d2 	rsbs	r9, r8, #55050240	; 0x3480000

000022b0 <l2094>:
    22b0:	20d41195 	smullscs	r1, r4, r5, r1

000022b4 <l2095>:
    22b4:	e0d6900c 	sbcs	r9, r6, ip

000022b8 <l2096>:
    22b8:	80291c5e 	eorhi	r1, r9, lr, asr ip

000022bc <l2097>:
    22bc:	e0ba2e97 	umlals	r2, sl, r7, lr

000022c0 <l2098>:
    22c0:	a0ee729b 	smlalge	r7, lr, fp, r2

000022c4 <l2099>:
    22c4:	70594853 	subsvc	r4, r9, r3, asr r8

000022c8 <l2100>:
    22c8:	00aae89c 	umlaleq	lr, sl, ip, r8

000022cc <l2101>:
    22cc:	10b71899 	umlalsne	r1, r7, r9, r8

000022d0 <l2102>:
    22d0:	606c917b 	rsbvs	r9, ip, fp, ror r1

000022d4 <l2103>:
    22d4:	90f8c003 	rscsls	ip, r8, r3

000022d8 <l2104>:
    22d8:	e03c4092 	mlas	ip, r2, r0, r4

000022dc <l2105>:
    22dc:	b179005b 	cmnlt	r9, fp, asr r0

000022e0 <l2106>:
    22e0:	11b07439 	lsrsne	r7, r9, r4

000022e4 <l2107>:
    22e4:	e0030698 	mul	r3, r8, r6

000022e8 <l2108>:
    22e8:	e1b04001 	movs	r4, r1

000022ec <l2109>:
    22ec:	e1f0b000 	mvns	fp, r0

000022f0 <l2110>:
    22f0:	6001b065 	andvs	fp, r1, r5, rrx

000022f4 <l2111>:
    22f4:	e011200f 	ands	r2, r1, pc

000022f8 <l2112>:
    22f8:	e1886e5a 	orr	r6, r8, sl, asr lr

000022fc <l2113>:
    22fc:	e16f5f19 	clz	r5, r9

00002300 <l2114>:
    2300:	7089cb91 	umullvc	ip, r9, r1, fp

00002304 <l2115>:
    2304:	3081ab90 	umullcc	sl, r1, r0, fp

00002308 <l2116>:
    2308:	10c4ee90 	smullne	lr, r4, r0, lr

0000230c <l2117>:
    230c:	116f7f19 	clzne	r7, r9

00002310 <l2118>:
    2310:	8033739b 	mlashi	r3, fp, r3, r7

00002314 <l2119>:
    2314:	e0121c1c 	ands	r1, r2, ip, lsl ip

00002318 <l2120>:
    2318:	e31c0ed7 	tst	ip, #3440	; 0xd70

0000231c <l2121>:
    231c:	a2602017 	rsbge	r2, r0, #23

00002320 <l2122>:
    2320:	33dc4851 	bicscc	r4, ip, #5308416	; 0x510000

00002324 <l2123>:
    2324:	e0b93c97 	umlals	r3, r9, r7, ip

00002328 <l2124>:
    2328:	60382993 	mlasvs	r8, r3, r9, r2

0000232c <l2125>:
    232c:	921e7e1b 	andsls	r7, lr, #432	; 0x1b0

00002330 <l2126>:
    2330:	708c8393 	umullvc	r8, ip, r3, r3

00002334 <l2127>:
    2334:	61390a1c 	teqvs	r9, ip, lsl sl

00002338 <l2128>:
    2338:	a090e299 	umullsge	lr, r0, r9, r2

0000233c <l2129>:
    233c:	c023c4cb 	eorgt	ip, r3, fp, asr #9

00002340 <l2130>:
    2340:	33720f45 	cmncc	r2, #276	; 0x114

00002344 <l2131>:
    2344:	e0060890 	mul	r6, r0, r8

00002348 <l2132>:
    2348:	e0b25793 	umlals	r5, r2, r3, r7

0000234c <l2133>:
    234c:	e0ee3199 	smlal	r3, lr, r9, r1

00002350 <l2134>:
    2350:	e1f0e068 	mvns	lr, r8, rrx

00002354 <l2135>:
    2354:	e0d23894 	smulls	r3, r2, r4, r8

00002358 <l2136>:
    2358:	10356e07 	eorsne	r6, r5, r7, lsl #28

0000235c <l2137>:
    235c:	e0019000 	and	r9, r1, r0

00002360 <l2138>:
    2360:	e070efa5 	rsbs	lr, r0, r5, lsr #31

00002364 <l2139>:
    2364:	e19a4370 	orrs	r4, sl, r0, ror r3

00002368 <l2140>:
    2368:	e0112001 	ands	r2, r1, r1

0000236c <l2141>:
    236c:	41320003 	teqmi	r2, r3

00002370 <l2142>:
    2370:	e1b07003 	movs	r7, r3

00002374 <l2143>:
    2374:	d16fbf11 	clzle	fp, r1

00002378 <l2144>:
    2378:	901c0c9e 	mulsls	ip, lr, ip

0000237c <l2145>:
    237c:	e09ec998 	umulls	ip, lr, r8, r9

00002380 <l2146>:
    2380:	6021129b 	mlavs	r1, fp, r2, r1

00002384 <l2147>:
    2384:	e0de5493 	smulls	r5, lr, r3, r4

00002388 <l2148>:
    2388:	e025e913 	eor	lr, r5, r3, lsl r9

0000238c <l2149>:
    238c:	50e0e59a 	smlalpl	lr, r0, sl, r5

00002390 <l2150>:
    2390:	e1130a55 	tst	r3, r5, asr sl

00002394 <l2151>:
    2394:	81f0a0c3 	mvnshi	sl, r3, asr #1

00002398 <l2152>:
    2398:	e1d56000 	bics	r6, r5, r0

0000239c <l2153>:
    239c:	e01ba00c 	ands	sl, fp, ip

000023a0 <l2154>:
    23a0:	e26cb5bd 	rsb	fp, ip, #792723456	; 0x2f400000

000023a4 <l2155>:
    23a4:	80b49698 	umlalshi	r9, r4, r8, r6

000023a8 <l2156>:
    23a8:	c2e2e8d7 	rscgt	lr, r2, #14090240	; 0xd70000

000023ac <l2157>:
    23ac:	70b85a93 	umlalsvc	r5, r8, r3, sl

000023b0 <l2158>:
    23b0:	838e2fff 	orrhi	r2, lr, #1020	; 0x3fc

000023b4 <l2159>:
    23b4:	e1971005 	orrs	r1, r7, r5

000023b8 <l2160>:
    23b8:	b0b3c29b 	umlalslt	ip, r3, fp, r2

000023bc <l2161>:
    23bc:	e039707e 	eors	r7, r9, lr, ror r0

000023c0 <l2162>:
    23c0:	92855a32 	addls	r5, r5, #204800	; 0x32000

000023c4 <l2163>:
    23c4:	9029aa3e 	eorls	sl, r9, lr, lsr sl

000023c8 <l2164>:
    23c8:	e0037009 	and	r7, r3, r9

000023cc <l2165>:
    23cc:	e16f9f18 	clz	r9, r8

000023d0 <l2166>:
    23d0:	3052200f 	subscc	r2, r2, pc

000023d4 <l2167>:
    23d4:	216f6f17 	clzcs	r6, r7

000023d8 <l2168>:
    23d8:	00b0b497 	umlalseq	fp, r0, r7, r4

000023dc <l2169>:
    23dc:	b08619ca 	addlt	r1, r6, sl, asr #19

000023e0 <l2170>:
    23e0:	e11c076f 	tst	ip, pc, ror #14

000023e4 <l2171>:
    23e4:	e09eb595 	umulls	fp, lr, r5, r5

000023e8 <l2172>:
    23e8:	10b17061 	adcsne	r7, r1, r1, rrx

000023ec <l2173>:
    23ec:	e0c35996 	smull	r5, r3, r6, r9

000023f0 <l2174>:
    23f0:	40e79394 	smlalmi	r9, r7, r4, r3

000023f4 <l2175>:
    23f4:	e099c00a 	adds	ip, r9, sl

000023f8 <l2176>:
    23f8:	a0a0c421 	adcge	ip, r0, r1, lsr #8

000023fc <l2177>:
    23fc:	71c931ac 	bicvc	r3, r9, ip, lsr #3

00002400 <l2178>:
    2400:	30170492 	mulscc	r7, r2, r4

00002404 <l2179>:
    2404:	61770063 	cmnvs	r7, r3, rrx

00002408 <l2180>:
    2408:	901cb518 	andsls	fp, ip, r8, lsl r5

0000240c <l2181>:
    240c:	80c1259b 	smullhi	r2, r1, fp, r5

00002410 <l2182>:
    2410:	621be33a 	andsvs	lr, fp, #-402653184	; 0xe8000000

00002414 <l2183>:
    2414:	531c020a 	tstpl	ip, #-1610612736	; 0xa0000000

00002418 <l2184>:
    2418:	a0c29c9a 	smullge	r9, r2, sl, ip

0000241c <l2185>:
    241c:	e19173e2 	orrs	r7, r1, r2, ror #7

00002420 <l2186>:
    2420:	d0f1860b 	rscsle	r8, r1, fp, lsl #12

00002424 <l2187>:
    2424:	13300556 	teqne	r0, #360710144	; 0x15800000

00002428 <l2188>:
    2428:	21120973 	tstcs	r2, r3, ror r9

0000242c <l2189>:
    242c:	92807030 	addls	r7, r0, #48	; 0x30

00002430 <l2190>:
    2430:	d03c2a35 	eorsle	r2, ip, r5, lsr sl

00002434 <l2191>:
    2434:	01969733 	orrseq	r9, r6, r3, lsr r7

00002438 <l2192>:
    2438:	31150006 	tstcc	r5, r6

0000243c <l2193>:
    243c:	700c2675 	andvc	r2, ip, r5, ror r6

00002440 <l2194>:
    2440:	600571ac 	andvs	r7, r5, ip, lsr #3

00002444 <l2195>:
    2444:	a371021a 	cmnge	r1, #-1610612735	; 0xa0000001

00002448 <l2196>:
    2448:	e1904065 	orrs	r4, r0, r5, rrx

0000244c <l2197>:
    244c:	316fbf1c 	clzcc	fp, ip

00002450 <l2198>:
    2450:	b0e19397 	smlallt	r9, r1, r7, r3

00002454 <l2199>:
    2454:	318fc003 	orrcc	ip, pc, r3

00002458 <l2200>:
    2458:	20f7bb99 	smlalscs	fp, r7, r9, fp

0000245c <l2201>:
    245c:	32173e36 	andscc	r3, r7, #864	; 0x360

00002460 <l2202>:
    2460:	e3730ffa 	cmn	r3, #1000	; 0x3e8

00002464 <l2203>:
    2464:	60eb2e96 	smlalvs	r2, fp, r6, lr

00002468 <l2204>:
    2468:	d049c000 	suble	ip, r9, r0

0000246c <l2205>:
    246c:	e00a0692 	mul	sl, r2, r6

00002470 <l2206>:
    2470:	e029a99c 	mla	r9, ip, r9, sl

00002474 <l2207>:
    2474:	e256a91d 	subs	sl, r6, #475136	; 0x74000

00002478 <l2208>:
    2478:	12292c97 	eorne	r2, r9, #38656	; 0x9700

0000247c <l2209>:
    247c:	e02356c5 	eor	r5, r3, r5, asr #13

00002480 <l2210>:
    2480:	40a41a95 	umlalmi	r1, r4, r5, sl

00002484 <l2211>:
    2484:	a0077060 	andge	r7, r7, r0, rrx

00002488 <l2212>:
    2488:	e02f9064 	eor	r9, pc, r4, rrx

0000248c <l2213>:
    248c:	e04ae00e 	sub	lr, sl, lr

00002490 <l2214>:
    2490:	e0184766 	ands	r4, r8, r6, ror #14

00002494 <l2215>:
    2494:	0014000c 	andseq	r0, r4, ip

00002498 <l2216>:
    2498:	a0161822 	andsge	r1, r6, r2, lsr #16

0000249c <l2217>:
    249c:	c019a338 	andsgt	sl, r9, r8, lsr r3

000024a0 <l2218>:
    24a0:	b37904c5 	cmnlt	r9, #-989855744	; 0xc5000000

000024a4 <l2219>:
    24a4:	e1823c40 	orr	r3, r2, r0, asr #24

000024a8 <l2220>:
    24a8:	e039a005 	eors	sl, r9, r5

000024ac <l2221>:
    24ac:	e022b297 	mla	r2, r7, r2, fp

000024b0 <l2222>:
    24b0:	e024411c 	eor	r4, r4, ip, lsl r1

000024b4 <l2223>:
    24b4:	e0a3079e 	umlal	r0, r3, lr, r7

000024b8 <l2224>:
    24b8:	e0214492 	mla	r1, r2, r4, r4

000024bc <l2225>:
    24bc:	e039e690 	mlas	r9, r0, r6, lr

000024c0 <l2226>:
    24c0:	b0d70291 	smullslt	r0, r7, r1, r2

000024c4 <l2227>:
    24c4:	e082bb90 	umull	fp, r2, r0, fp

000024c8 <l2228>:
    24c8:	8030a005 	eorshi	sl, r0, r5

000024cc <l2229>:
    24cc:	0013ca1e 	andseq	ip, r3, lr, lsl sl

000024d0 <l2230>:
    24d0:	e137000e 	teq	r7, lr

000024d4 <l2231>:
    24d4:	e185e161 	orr	lr, r5, r1, ror #2

000024d8 <l2232>:
    24d8:	e195164c 	orrs	r1, r5, ip, asr #12

000024dc <l2233>:
    24dc:	e0e6a004 	rsc	sl, r6, r4

000024e0 <l2234>:
    24e0:	e01a0790 	muls	sl, r0, r7

000024e4 <l2235>:
    24e4:	e1710259 	cmn	r1, r9, asr r2

000024e8 <l2236>:
    24e8:	e0e63c90 	smlal	r3, r6, r0, ip

000024ec <l2237>:
    24ec:	e01ac005 	ands	ip, sl, r5

000024f0 <l2238>:
    24f0:	e033ce6f 	eors	ip, r3, pc, ror #28

000024f4 <l2239>:
    24f4:	e2288282 	eor	r8, r8, #536870920	; 0x20000008

000024f8 <l2240>:
    24f8:	63842416 	orrvs	r2, r4, #369098752	; 0x16000000

000024fc <l2241>:
    24fc:	e15901a6 	cmp	r9, r6, lsr #3

00002500 <l2242>:
    2500:	e000900b 	and	r9, r0, fp

00002504 <l2243>:
    2504:	401c0999 	mulsmi	ip, r9, r9

00002508 <l2244>:
    2508:	40aa689c 	umlalmi	r6, sl, ip, r8

0000250c <l2245>:
    250c:	9132017e 	teqls	r2, lr, ror r1

00002510 <l2246>:
    2510:	e0b61897 	umlals	r1, r6, r7, r8

00002514 <l2247>:
    2514:	e0dc0698 	smulls	r0, ip, r8, r6

00002518 <l2248>:
    2518:	e186bcee 	orr	fp, r6, lr, ror #25

0000251c <l2249>:
    251c:	e193a12e 	orrs	sl, r3, lr, lsr #2

00002520 <l2250>:
    2520:	e2a992c2 	adc	r9, r9, #536870924	; 0x2000000c

00002524 <l2251>:
    2524:	716f6f16 	clzvc	r6, r6

00002528 <l2252>:
    2528:	e00a0695 	mul	sl, r5, r6

0000252c <l2253>:
    252c:	11110819 	tstne	r1, r9, lsl r8

00002530 <l2254>:
    2530:	e2746a73 	rsbs	r6, r4, #471040	; 0x73000

00002534 <l2255>:
    2534:	d0251069 	eorle	r1, r5, r9, rrx

00002538 <l2256>:
    2538:	9192b37e 	orrsls	fp, r2, lr, ror r3

0000253c <l2257>:
    253c:	41530ce0 	cmpmi	r3, r0, ror #25

00002540 <l2258>:
    2540:	c0010690 	mulgt	r1, r0, r6

00002544 <l2259>:
    2544:	e19e200f 	orrs	r2, lr, pc

00002548 <l2260>:
    2548:	e0289494 	mla	r8, r4, r4, r9

0000254c <l2261>:
    254c:	0058c11e 	subseq	ip, r8, lr, lsl r1

00002550 <l2262>:
    2550:	e0329747 	eors	r9, r2, r7, asr #14

00002554 <l2263>:
    2554:	b0c42a9a 	smulllt	r2, r4, sl, sl

00002558 <l2264>:
    2558:	e1b01332 	lsrs	r1, r2, r3

0000255c <l2265>:
    255c:	e095eb9b 	umulls	lr, r5, fp, fp

00002560 <l2266>:
    2560:	e356020d 	cmp	r6, #-805306368	; 0xd0000000

00002564 <l2267>:
    2564:	60292697 	mlavs	r9, r7, r6, r2

00002568 <l2268>:
    2568:	316f4f12 	clzcc	r4, r2

0000256c <l2269>:
    256c:	b1540065 	cmplt	r4, r5, rrx

00002570 <l2270>:
    2570:	e1da7060 	bics	r7, sl, r0, rrx

00002574 <l2271>:
    2574:	902e7a19 	eorls	r7, lr, r9, lsl sl

00002578 <l2272>:
    2578:	40b65311 	adcsmi	r5, r6, r1, lsl r3

0000257c <l2273>:
    257c:	90c54396 	smullls	r4, r5, r6, r3

00002580 <l2274>:
    2580:	5186b007 	orrpl	fp, r6, r7

00002584 <l2275>:
    2584:	e1f0a003 	mvns	sl, r3

00002588 <l2276>:
    2588:	e2fe5eb1 	rscs	r5, lr, #2832	; 0xb10

0000258c <l2277>:
    258c:	e0ca8b92 	smull	r8, sl, r2, fp

00002590 <l2278>:
    2590:	d0306873 	eorsle	r6, r0, r3, ror r8

00002594 <l2279>:
    2594:	e0a02e3a 	adc	r2, r0, sl, lsr lr

00002598 <l2280>:
    2598:	901b8062 	andsls	r8, fp, r2, rrx

0000259c <l2281>:
    259c:	c03e2b93 	mlasgt	lr, r3, fp, r2

000025a0 <l2282>:
    25a0:	e0ec2758 	rsc	r2, ip, r8, asr r7

000025a4 <l2283>:
    25a4:	e0a5c59b 	umlal	ip, r5, fp, r5

000025a8 <l2284>:
    25a8:	e21e7619 	ands	r7, lr, #26214400	; 0x1900000

000025ac <l2285>:
    25ac:	20d8c69b 	smullscs	ip, r8, fp, r6

000025b0 <l2286>:
    25b0:	801b0a99 	mulshi	fp, r9, sl

000025b4 <l2287>:
    25b4:	9181c008 	orrls	ip, r1, r8

000025b8 <l2288>:
    25b8:	e046af66 	sub	sl, r6, r6, ror #30

000025bc <l2289>:
    25bc:	e202ce16 	and	ip, r2, #352	; 0x160

000025c0 <l2290>:
    25c0:	817e0000 	cmnhi	lr, r0

000025c4 <l2291>:
    25c4:	8027306c 	eorhi	r3, r7, ip, rrx

000025c8 <l2292>:
    25c8:	30d28e97 	smullscc	r8, r2, r7, lr

000025cc <l2293>:
    25cc:	b0313c50 	eorslt	r3, r1, r0, asr ip

000025d0 <l2294>:
    25d0:	e019a005 	ands	sl, r9, r5

000025d4 <l2295>:
    25d4:	e1520a54 	cmp	r2, r4, asr sl

000025d8 <l2296>:
    25d8:	a0060e91 	mulge	r6, r1, lr

000025dc <l2297>:
    25dc:	60e6379c 	smlalvs	r3, r6, ip, r7

000025e0 <l2298>:
    25e0:	6209b567 	andvs	fp, r9, #432013312	; 0x19c00000

000025e4 <l2299>:
    25e4:	100a200e 	andne	r2, sl, lr

000025e8 <l2300>:
    25e8:	10a03297 	umlalne	r3, r0, r7, r2

000025ec <l2301>:
    25ec:	8228ed3a 	eorhi	lr, r8, #3712	; 0xe80

000025f0 <l2302>:
    25f0:	00e7ab91 	smlaleq	sl, r7, r1, fp

000025f4 <l2303>:
    25f4:	800ee0a2 	andhi	lr, lr, r2, lsr #1

000025f8 <l2304>:
    25f8:	8136000a 	teqhi	r6, sl

000025fc <l2305>:
    25fc:	0002e2eb 	andeq	lr, r2, fp, ror #5

00002600 <l2306>:
    2600:	e005099c 	mul	r5, ip, r9

00002604 <l2307>:
    2604:	e003c43e 	and	ip, r3, lr, lsr r4

00002608 <l2308>:
    2608:	4038e290 	mlasmi	r8, r0, r2, lr

0000260c <l2309>:
    260c:	2073400b 	rsbscs	r4, r3, fp

00002610 <l2310>:
    2610:	b0e78068 	rsclt	r8, r7, r8, rrx

00002614 <l2311>:
    2614:	e002400c 	and	r4, r2, ip

00002618 <l2312>:
    2618:	a1900002 	orrsge	r0, r0, r2

0000261c <l2313>:
    261c:	e135075c 	teq	r5, ip, asr r7

00002620 <l2314>:
    2620:	b3c43286 	biclt	r3, r4, #1610612744	; 0x60000008

00002624 <l2315>:
    2624:	e02faea6 	eor	sl, pc, r6, lsr #29

00002628 <l2316>:
    2628:	809e929b 	umullshi	r9, lr, fp, r2

0000262c <l2317>:
    262c:	e220eb6a 	eor	lr, r0, #108544	; 0x1a800

00002630 <l2318>:
    2630:	61821776 	orrvs	r1, r2, r6, ror r7

00002634 <l2319>:
    2634:	40be6b95 	umlalsmi	r6, lr, r5, fp

00002638 <l2320>:
    2638:	e0a4b995 	umlal	fp, r4, r5, r9

0000263c <l2321>:
    263c:	e2a5eea7 	adc	lr, r5, #2672	; 0xa70

00002640 <l2322>:
    2640:	50331490 	mlaspl	r3, r0, r4, r1

00002644 <l2323>:
    2644:	e0beae93 	umlals	sl, lr, r3, lr

00002648 <l2324>:
    2648:	b0189004 	andslt	r9, r8, r4

0000264c <l2325>:
    264c:	e025b066 	eor	fp, r5, r6, rrx

00002650 <l2326>:
    2650:	d0ab8c94 	umlalle	r8, fp, r4, ip

00002654 <l2327>:
    2654:	431f0d1e 	tstmi	pc, #1920	; 0x780

00002658 <l2328>:
    2658:	425b6a87 	subsmi	r6, fp, #552960	; 0x87000

0000265c <l2329>:
    265c:	51b01924 	lsrspl	r1, r4, #18

00002660 <l2330>:
    2660:	1001089c 	mulne	r1, ip, r8

00002664 <l2331>:
    2664:	e05e4753 	subs	r4, lr, r3, asr r7

00002668 <l2332>:
    2668:	40a2679a 	umlalmi	r6, r2, sl, r7

0000266c <l2333>:
    266c:	d0489376 	suble	r9, r8, r6, ror r3

00002670 <l2334>:
    2670:	b01a0c93 	mulslt	sl, r3, ip

00002674 <l2335>:
    2674:	e0f31e9b 	smlals	r1, r3, fp, lr

00002678 <l2336>:
    2678:	202c749e 	mlacs	ip, lr, r4, r7

0000267c <l2337>:
    267c:	e0dc9294 	smulls	r9, ip, r4, r2

00002680 <l2338>:
    2680:	70895000 	addvc	r5, r9, r0

00002684 <l2339>:
    2684:	602c800a 	eorvs	r8, ip, sl

00002688 <l2340>:
    2688:	622f3767 	eorvs	r3, pc, #27000832	; 0x19c0000

0000268c <l2341>:
    268c:	e0ba5693 	umlals	r5, sl, r3, r6

00002690 <l2342>:
    2690:	b0aab29c 	umlallt	fp, sl, ip, r2

00002694 <l2343>:
    2694:	c1d65c64 	bicsgt	r5, r6, r4, ror #24

00002698 <l2344>:
    2698:	e2d4302e 	sbcs	r3, r4, #46	; 0x2e

0000269c <l2345>:
    269c:	91330c0b 	teqls	r3, fp, lsl #24

000026a0 <l2346>:
    26a0:	a0071006 	andge	r1, r7, r6

000026a4 <l2347>:
    26a4:	e37a00e0 	cmn	sl, #224	; 0xe0

000026a8 <l2348>:
    26a8:	e035e00e 	eors	lr, r5, lr

000026ac <l2349>:
    26ac:	e0180594 	muls	r8, r4, r5

000026b0 <l2350>:
    26b0:	e23846d3 	eors	r4, r8, #221249536	; 0xd300000

000026b4 <l2351>:
    26b4:	01a0ae2c 	lsreq	sl, ip, #28

000026b8 <l2352>:
    26b8:	20431004 	subcs	r1, r3, r4

000026bc <l2353>:
    26bc:	e0cc9392 	smull	r9, ip, r2, r3

000026c0 <l2354>:
    26c0:	e0090895 	mul	r9, r5, r8

000026c4 <l2355>:
    26c4:	20d26c98 	smullscs	r6, r2, r8, ip

000026c8 <l2356>:
    26c8:	e3590aab 	cmp	r9, #700416	; 0xab000

000026cc <l2357>:
    26cc:	e0fc0191 	smlals	r0, ip, r1, r1

000026d0 <l2358>:
    26d0:	a0170895 	mulsge	r7, r5, r8

000026d4 <l2359>:
    26d4:	722ee832 	eorvc	lr, lr, #3276800	; 0x320000

000026d8 <l2360>:
    26d8:	a009e008 	andge	lr, r9, r8

000026dc <l2361>:
    26dc:	e3c94abf 	bic	r4, r9, #782336	; 0xbf000

000026e0 <l2362>:
    26e0:	80a2b378 	adchi	fp, r2, r8, ror r3

000026e4 <l2363>:
    26e4:	1182ee10 	orrne	lr, r2, r0, lsl lr

000026e8 <l2364>:
    26e8:	6190300b 	orrsvs	r3, r0, fp

000026ec <l2365>:
    26ec:	0026869e 	mlaeq	r6, lr, r6, r8

000026f0 <l2366>:
    26f0:	30258b22 	eorcc	r8, r5, r2, lsr #22

000026f4 <l2367>:
    26f4:	c0034872 	andgt	r4, r3, r2, ror r8

000026f8 <l2368>:
    26f8:	e1b09004 	movs	r9, r4

000026fc <l2369>:
    26fc:	1035806f 	eorsne	r8, r5, pc, rrx

00002700 <l2370>:
    2700:	e216228e 	ands	r2, r6, #-536870904	; 0xe0000008

00002704 <l2371>:
    2704:	60fc039e 	smlalsvs	r0, ip, lr, r3

00002708 <l2372>:
    2708:	e0b11a50 	adcs	r1, r1, r0, asr sl

0000270c <l2373>:
    270c:	e0f4bc9a 	smlals	fp, r4, sl, ip

00002710 <l2374>:
    2710:	e2444e6f 	sub	r4, r4, #1776	; 0x6f0

00002714 <l2375>:
    2714:	33e0a437 	mvncc	sl, #922746880	; 0x37000000

00002718 <l2376>:
    2718:	80b79a95 	umlalshi	r9, r7, r5, sl

0000271c <l2377>:
    271c:	7048a008 	subvc	sl, r8, r8

00002720 <l2378>:
    2720:	b0aba792 	umlallt	sl, fp, r2, r7

00002724 <l2379>:
    2724:	a0460a30 	subge	r0, r6, r0, lsr sl

00002728 <l2380>:
    2728:	e0db9c92 	smulls	r9, fp, r2, ip

0000272c <l2381>:
    272c:	502fb006 	eorpl	fp, pc, r6

00002730 <l2382>:
    2730:	0039b751 	eorseq	fp, r9, r1, asr r7

00002734 <l2383>:
    2734:	40f05492 	smlalsmi	r5, r0, r2, r4

00002738 <l2384>:
    2738:	e093b497 	umulls	fp, r3, r7, r4

0000273c <l2385>:
    273c:	e1710a35 	cmn	r1, r5, lsr sl

00002740 <l2386>:
    2740:	203c6dee 	eorscs	r6, ip, lr, ror #27

00002744 <l2387>:
    2744:	339c4bbe 	orrscc	r4, ip, #194560	; 0x2f800

00002748 <l2388>:
    2748:	e1760aaa 	cmn	r6, sl, lsr #21

0000274c <l2389>:
    274c:	500e0998 	mulpl	lr, r8, r9

00002750 <l2390>:
    2750:	c385359d 	orrgt	r3, r5, #658505728	; 0x27400000

00002754 <l2391>:
    2754:	e1889578 	orr	r9, r8, r8, ror r5

00002758 <l2392>:
    2758:	d15c0009 	cmple	ip, r9

0000275c <l2393>:
    275c:	90198be5 	andsls	r8, r9, r5, ror #23

00002760 <l2394>:
    2760:	e0fb7598 	smlals	r7, fp, r8, r5

00002764 <l2395>:
    2764:	e0201bcb 	eor	r1, r0, fp, asr #23

00002768 <l2396>:
    2768:	e04b100f 	sub	r1, fp, pc

0000276c <l2397>:
    276c:	e012325e 	ands	r3, r2, lr, asr r2

00002770 <l2398>:
    2770:	e2899417 	add	r9, r9, #385875968	; 0x17000000

00002774 <l2399>:
    2774:	109ab990 	umullsne	fp, sl, r0, r9

00002778 <l2400>:
    2778:	e0314001 	eors	r4, r1, r1

0000277c <l2401>:
    277c:	e0f40e95 	smlals	r0, r4, r5, lr

00002780 <l2402>:
    2780:	e081bc90 	umull	fp, r1, r0, ip

00002784 <l2403>:
    2784:	e0fc2e17 	rscs	r2, ip, r7, lsl lr

00002788 <l2404>:
    2788:	922f3005 	eorls	r3, pc, #5

0000278c <l2405>:
    278c:	e0100498 	muls	r0, r8, r4

00002790 <l2406>:
    2790:	01c81c14 	biceq	r1, r8, r4, lsl ip

00002794 <l2407>:
    2794:	206c5006 	rsbcs	r5, ip, r6

00002798 <l2408>:
    2798:	e0120299 	muls	r2, r9, r2

0000279c <l2409>:
    279c:	40b84a99 	umlalsmi	r4, r8, r9, sl

000027a0 <l2410>:
    27a0:	509b6637 	addspl	r6, fp, r7, lsr r6

000027a4 <l2411>:
    27a4:	21b08001 	movscs	r8, r1

000027a8 <l2412>:
    27a8:	606f7002 	rsbvs	r7, pc, r2

000027ac <l2413>:
    27ac:	e0887a93 	umull	r7, r8, r3, sl

000027b0 <l2414>:
    27b0:	e012a009 	ands	sl, r2, r9

000027b4 <l2415>:
    27b4:	c039599a 	mlasgt	r9, sl, r9, r5

000027b8 <l2416>:
    27b8:	e014606f 	ands	r6, r4, pc, rrx

000027bc <l2417>:
    27bc:	e054c005 	subs	ip, r4, r5

000027c0 <l2418>:
    27c0:	70ceb691 	smullvc	fp, lr, r1, r6

000027c4 <l2419>:
    27c4:	60acb992 	umlalvs	fp, ip, r2, r9

000027c8 <l2420>:
    27c8:	10085537 	andne	r5, r8, r7, lsr r5

000027cc <l2421>:
    27cc:	60a6a89b 	umlalvs	sl, r6, fp, r8

000027d0 <l2422>:
    27d0:	e09b6c93 	umulls	r6, fp, r3, ip

000027d4 <l2423>:
    27d4:	e15f0006 	cmp	pc, r6

000027d8 <l2424>:
    27d8:	60d21993 	smullsvs	r1, r2, r3, r9

000027dc <l2425>:
    27dc:	10ae039b 	umlalne	r0, lr, fp, r3

000027e0 <l2426>:
    27e0:	e0a1ab94 	umlal	sl, r1, r4, fp

000027e4 <l2427>:
    27e4:	402b149e 	mlami	fp, lr, r4, r1

000027e8 <l2428>:
    27e8:	e2ec078a 	rsc	r0, ip, #36175872	; 0x2280000

000027ec <l2429>:
    27ec:	e00b7005 	and	r7, fp, r5

000027f0 <l2430>:
    27f0:	30b7ac95 	umlalscc	sl, r7, r5, ip

000027f4 <l2431>:
    27f4:	e000be13 	and	fp, r0, r3, lsl lr

000027f8 <l2432>:
    27f8:	e0180693 	muls	r8, r3, r6

000027fc <l2433>:
    27fc:	601c0997 	mulsvs	ip, r7, r9

00002800 <l2434>:
    2800:	9093a595 	umullsls	sl, r3, r5, r5

00002804 <l2435>:
    2804:	e3b05301 	movs	r5, #67108864	; 0x4000000

00002808 <l2436>:
    2808:	9244878e 	subls	r8, r4, #37224448	; 0x2380000

0000280c <l2437>:
    280c:	e0f50907 	rscs	r0, r5, r7, lsl #18

00002810 <l2438>:
    2810:	e035106a 	eors	r1, r5, sl, rrx

00002814 <l2439>:
    2814:	e0d56a91 	smulls	r6, r5, r1, sl

00002818 <l2440>:
    2818:	c096eb95 	umullsgt	lr, r6, r5, fp

0000281c <l2441>:
    281c:	71842005 	orrvc	r2, r4, r5

00002820 <l2442>:
    2820:	c0383a92 	mlasgt	r8, r2, sl, r3

00002824 <l2443>:
    2824:	c0d42b99 	smullsgt	r2, r4, r9, fp

00002828 <l2444>:
    2828:	0000be27 	andeq	fp, r0, r7, lsr #28

0000282c <l2445>:
    282c:	c02c2397 	mlagt	ip, r7, r3, r2

00002830 <l2446>:
    2830:	a01b0b2f 	andsge	r0, fp, pc, lsr #22

00002834 <l2447>:
    2834:	80198071 	andshi	r8, r9, r1, ror r0

00002838 <l2448>:
    2838:	119c7a10 	orrsne	r7, ip, r0, lsl sl

0000283c <l2449>:
    283c:	538e50af 	orrpl	r5, lr, #175	; 0xaf

00002840 <l2450>:
    2840:	2139092a 	teqcs	r9, sl, lsr #18

00002844 <l2451>:
    2844:	e152000b 	cmp	r2, fp

00002848 <l2452>:
    2848:	b0827001 	addlt	r7, r2, r1

0000284c <l2453>:
    284c:	51150a59 	tstpl	r5, r9, asr sl

00002850 <l2454>:
    2850:	e0d7289b 	smulls	r2, r7, fp, r8

00002854 <l2455>:
    2854:	30306095 	mlascc	r0, r5, r0, r6

00002858 <l2456>:
    2858:	308b6875 	addcc	r6, fp, r5, ror r8

0000285c <l2457>:
    285c:	e2300fc2 	eors	r0, r0, #776	; 0x308

00002860 <l2458>:
    2860:	7198706f 	orrsvc	r7, r8, pc, rrx

00002864 <l2459>:
    2864:	20f0489c 	smlalscs	r4, r0, ip, r8

00002868 <l2460>:
    2868:	e0a4b008 	adc	fp, r4, r8

0000286c <l2461>:
    286c:	b010743e 	andslt	r7, r0, lr, lsr r4

00002870 <l2462>:
    2870:	015a0007 	cmpeq	sl, r7

00002874 <l2463>:
    2874:	700ba870 	andvc	sl, fp, r0, ror r8

00002878 <l2464>:
    2878:	42075ea1 	andmi	r5, r7, #2576	; 0xa10

0000287c <l2465>:
    287c:	a006b00b 	andge	fp, r6, fp

00002880 <l2466>:
    2880:	e0dceb97 	smulls	lr, ip, r7, fp

00002884 <l2467>:
    2884:	50e71695 	smlalpl	r1, r7, r5, r6

00002888 <l2468>:
    2888:	50096fe0 	andpl	r6, r9, r0, ror #31

0000288c <l2469>:
    288c:	419a7a22 	orrsmi	r7, sl, r2, lsr #20

00002890 <l2470>:
    2890:	e0a27ec9 	adc	r7, r2, r9, asr #29

00002894 <l2471>:
    2894:	2047600a 	subcs	r6, r7, sl

00002898 <l2472>:
    2898:	e189500f 	orr	r5, r9, pc

0000289c <l2473>:
    289c:	3225117a 	eorcc	r1, r5, #-2147483618	; 0x8000001e

000028a0 <l2474>:
    28a0:	40d05592 	smullsmi	r5, r0, r2, r5

000028a4 <l2475>:
    28a4:	b0f91298 	smlalslt	r1, r9, r8, r2

000028a8 <l2476>:
    28a8:	e0f50698 	smlals	r0, r5, r8, r6

000028ac <l2477>:
    28ac:	e0e70391 	smlal	r0, r7, r1, r3

000028b0 <l2478>:
    28b0:	e18b9173 	orr	r9, fp, r3, ror r1

000028b4 <l2479>:
    28b4:	20030c9e 	mulcs	r3, lr, ip

000028b8 <l2480>:
    28b8:	62f61f63 	rscsvs	r1, r6, #396	; 0x18c

000028bc <l2481>:
    28bc:	e178000a 	cmn	r8, sl

000028c0 <l2482>:
    28c0:	10a3be34 	adcne	fp, r3, r4, lsr lr

000028c4 <l2483>:
    28c4:	e231ac07 	eors	sl, r1, #1792	; 0x700

000028c8 <l2484>:
    28c8:	83370e13 	teqhi	r7, #304	; 0x130

000028cc <l2485>:
    28cc:	e045ea00 	sub	lr, r5, r0, lsl #20

000028d0 <l2486>:
    28d0:	d0130899 	mulsle	r3, r9, r8

000028d4 <l2487>:
    28d4:	40d8ba90 	smullsmi	fp, r8, r0, sl

000028d8 <l2488>:
    28d8:	b17b0720 	cmnlt	fp, r0, lsr #14

000028dc <l2489>:
    28dc:	c2098aaa 	andgt	r8, r9, #696320	; 0xaa000

000028e0 <l2490>:
    28e0:	e23ab285 	eors	fp, sl, #1342177288	; 0x50000008

000028e4 <l2491>:
    28e4:	73986806 	orrsvc	r6, r8, #393216	; 0x60000

000028e8 <l2492>:
    28e8:	a0060493 	mulge	r6, r3, r4

000028ec <l2493>:
    28ec:	d065c068 	rsble	ip, r5, r8, rrx

000028f0 <l2494>:
    28f0:	4153017c 	cmpmi	r3, ip, ror r1

000028f4 <l2495>:
    28f4:	e0c4bb9e 	smull	fp, r4, lr, fp

000028f8 <l2496>:
    28f8:	d3f0aa6e 	mvnsle	sl, #450560	; 0x6e000

000028fc <l2497>:
    28fc:	d38be060 	orrle	lr, fp, #96	; 0x60

00002900 <l2498>:
    2900:	e0a47b9b 	umlal	r7, r4, fp, fp

00002904 <l2499>:
    2904:	505c500e 	subspl	r5, ip, lr

00002908 <l2500>:
    2908:	e01b91a7 	ands	r9, fp, r7, lsr #3

0000290c <l2501>:
    290c:	a1f04526 	mvnsge	r4, r6, lsr #10

00002910 <l2502>:
    2910:	c0cb9696 	smullgt	r9, fp, r6, r6

00002914 <l2503>:
    2914:	602bbd2a 	eorvs	fp, fp, sl, lsr #26

00002918 <l2504>:
    2918:	e091a01e 	adds	sl, r1, lr, lsl r0

0000291c <l2505>:
    291c:	42b6ca19 	adcsmi	ip, r6, #102400	; 0x19000

00002920 <l2506>:
    2920:	b3c6cd79 	biclt	ip, r6, #7744	; 0x1e40

00002924 <l2507>:
    2924:	e09cab98 	umulls	sl, ip, r8, fp

00002928 <l2508>:
    2928:	e0fe6a92 	smlals	r6, lr, r2, sl

0000292c <l2509>:
    292c:	c0ec179e 	smlalgt	r1, ip, lr, r7

00002930 <l2510>:
    2930:	339bc907 	orrscc	ip, fp, #114688	; 0x1c000

00002934 <l2511>:
    2934:	a37c041f 	cmnge	ip, #520093696	; 0x1f000000

00002938 <l2512>:
    2938:	938b88f9 	orrls	r8, fp, #16318464	; 0xf90000

0000293c <l2513>:
    293c:	01300000 	teqeq	r0, r0

00002940 <l2514>:
    2940:	10362a94 	mlasne	r6, r4, sl, r2

00002944 <l2515>:
    2944:	e26441d7 	rsb	r4, r4, #-1073741771	; 0xc0000035

00002948 <l2516>:
    2948:	13a05801 	movne	r5, #65536	; 0x10000

0000294c <l2517>:
    294c:	e1841003 	orr	r1, r4, r3

00002950 <l2518>:
    2950:	3054a069 	subscc	sl, r4, r9, rrx

00002954 <l2519>:
    2954:	b1ca3c16 	biclt	r3, sl, r6, lsl ip

00002958 <l2520>:
    2958:	20a21893 	umlalcs	r1, r2, r3, r8

0000295c <l2521>:
    295c:	40e3900b 	rscmi	r9, r3, fp

00002960 <l2522>:
    2960:	125c343a 	subsne	r3, ip, #973078528	; 0x3a000000

00002964 <l2523>:
    2964:	e0faea91 	smlals	lr, sl, r1, sl

00002968 <l2524>:
    2968:	a013e00a 	andsge	lr, r3, sl

0000296c <l2525>:
    296c:	30c52890 	smullcc	r2, r5, r0, r8

00002970 <l2526>:
    2970:	50c07006 	sbcpl	r7, r0, r6

00002974 <l2527>:
    2974:	e383aaff 	orr	sl, r3, #1044480	; 0xff000

00002978 <l2528>:
    2978:	00041069 	andeq	r1, r4, r9, rrx

0000297c <l2529>:
    297c:	e15b0068 	cmp	fp, r8, rrx

00002980 <l2530>:
    2980:	d0150675 	andsle	r0, r5, r5, ror r6

00002984 <l2531>:
    2984:	e084c495 	umull	ip, r4, r5, r4

00002988 <l2532>:
    2988:	70304005 	eorsvc	r4, r0, r5

0000298c <l2533>:
    298c:	e22b99ab 	eor	r9, fp, #2801664	; 0x2ac000

00002990 <l2534>:
    2990:	70aa1004 	adcvc	r1, sl, r4

00002994 <l2535>:
    2994:	e034e00f 	eors	lr, r4, pc

00002998 <l2536>:
    2998:	e0b15897 	umlals	r5, r1, r7, r8

0000299c <l2537>:
    299c:	40085877 	andmi	r5, r8, r7, ror r8

000029a0 <l2538>:
    29a0:	e097a003 	adds	sl, r7, r3

000029a4 <l2539>:
    29a4:	224f9053 	subcs	r9, pc, #83	; 0x53

000029a8 <l2540>:
    29a8:	e3a08e2e 	mov	r8, #736	; 0x2e0

000029ac <l2541>:
    29ac:	81dab005 	bicshi	fp, sl, r5

000029b0 <l2542>:
    29b0:	e0f71793 	smlals	r1, r7, r3, r7

000029b4 <l2543>:
    29b4:	e0373931 	eors	r3, r7, r1, lsr r9

000029b8 <l2544>:
    29b8:	83b0379a 	movshi	r3, #40370176	; 0x2680000

000029bc <l2545>:
    29bc:	508ab793 	umullpl	fp, sl, r3, r7

000029c0 <l2546>:
    29c0:	e3e02a46 	mvn	r2, #286720	; 0x46000

000029c4 <l2547>:
    29c4:	e1c50007 	bic	r0, r5, r7

000029c8 <l2548>:
    29c8:	4036b654 	eorsmi	fp, r6, r4, asr r6

000029cc <l2549>:
    29cc:	e1350005 	teq	r5, r5

000029d0 <l2550>:
    29d0:	118c5f0b 	orrne	r5, ip, fp, lsl #30

000029d4 <l2551>:
    29d4:	00a23c95 	umlaleq	r3, r2, r5, ip

000029d8 <l2552>:
    29d8:	e0218003 	eor	r8, r1, r3

000029dc <l2553>:
    29dc:	7034300a 	eorsvc	r3, r4, sl

000029e0 <l2554>:
    29e0:	5034a498 	mlaspl	r4, r8, r4, sl

000029e4 <l2555>:
    29e4:	e0b4ec9b 	umlals	lr, r4, fp, ip

000029e8 <l2556>:
    29e8:	e0fe1792 	smlals	r1, lr, r2, r7

000029ec <l2557>:
    29ec:	2225972f 	eorcs	r9, r5, #12320768	; 0xbc0000

000029f0 <l2558>:
    29f0:	9010861b 	andsls	r8, r0, fp, lsl r6

000029f4 <l2559>:
    29f4:	30d61178 	sbcscc	r1, r6, r8, ror r1

000029f8 <l2560>:
    29f8:	3172000a 	cmncc	r2, sl

000029fc <l2561>:
    29fc:	e1936375 	orrs	r6, r3, r5, ror r3

00002a00 <l2562>:
    2a00:	40043009 	andmi	r3, r4, r9

00002a04 <l2563>:
    2a04:	10d97298 	smullsne	r7, r9, r8, r2

00002a08 <l2564>:
    2a08:	e009797e 	and	r7, r9, lr, ror r9

00002a0c <l2565>:
    2a0c:	8159006f 	cmphi	r9, pc, rrx

00002a10 <l2566>:
    2a10:	4261438e 	rsbmi	r4, r1, #939524098	; 0x38000002

00002a14 <l2567>:
    2a14:	301b7e30 	andscc	r7, fp, r0, lsr lr

00002a18 <l2568>:
    2a18:	80b13a9e 	umlalshi	r3, r1, lr, sl

00002a1c <l2569>:
    2a1c:	e0809491 	umull	r9, r0, r1, r4

00002a20 <l2570>:
    2a20:	e0120293 	muls	r2, r3, r2

00002a24 <l2571>:
    2a24:	a034675c 	eorsge	r6, r4, ip, asr r7

00002a28 <l2572>:
    2a28:	e1e06ee6 	mvn	r6, r6, ror #29

00002a2c <l2573>:
    2a2c:	d02b1795 	mlale	fp, r5, r7, r1

00002a30 <l2574>:
    2a30:	e08b200b 	add	r2, fp, fp

00002a34 <l2575>:
    2a34:	e034a097 	mlas	r4, r7, r0, sl

00002a38 <l2576>:
    2a38:	e0f52009 	rscs	r2, r5, r9

00002a3c <l2577>:
    2a3c:	a262b559 	rsbge	fp, r2, #373293056	; 0x16400000

00002a40 <l2578>:
    2a40:	e027ab9e 	mla	r7, lr, fp, sl

00002a44 <l2579>:
    2a44:	e0b4e599 	umlals	lr, r4, r9, r5

00002a48 <l2580>:
    2a48:	60d6e092 	smullsvs	lr, r6, r2, r0

00002a4c <l2581>:
    2a4c:	e1d31067 	bics	r1, r3, r7, rrx

00002a50 <l2582>:
    2a50:	e0aab094 	umlal	fp, sl, r4, r0

00002a54 <l2583>:
    2a54:	3135000e 	teqcc	r5, lr

00002a58 <l2584>:
    2a58:	3033c06a 	eorscc	ip, r3, sl, rrx

00002a5c <l2585>:
    2a5c:	a1a02c7b 	rorge	r2, fp, ip

00002a60 <l2586>:
    2a60:	e0d60e95 	smulls	r0, r6, r5, lr

00002a64 <l2587>:
    2a64:	43130856 	tstmi	r3, #5636096	; 0x560000

00002a68 <l2588>:
    2a68:	42c4b6a5 	sbcmi	fp, r4, #173015040	; 0xa500000

00002a6c <l2589>:
    2a6c:	e189b004 	orr	fp, r9, r4

00002a70 <l2590>:
    2a70:	e0ab4b98 	umlal	r4, fp, r8, fp

00002a74 <l2591>:
    2a74:	2056200a 	subscs	r2, r6, sl

00002a78 <l2592>:
    2a78:	12776005 	rsbsne	r6, r7, #5

00002a7c <l2593>:
    2a7c:	e0208002 	eor	r8, r0, r2

00002a80 <l2594>:
    2a80:	33590c19 	cmpcc	r9, #6400	; 0x1900

00002a84 <l2595>:
    2a84:	e218b33d 	ands	fp, r8, #-201326592	; 0xf4000000

00002a88 <l2596>:
    2a88:	80b2200b 	adcshi	r2, r2, fp

00002a8c <l2597>:
    2a8c:	c0314790 	mlasgt	r1, r0, r7, r4

00002a90 <l2598>:
    2a90:	50393004 	eorspl	r3, r9, r4

00002a94 <l2599>:
    2a94:	e0c2759c 	smull	r7, r2, ip, r5

00002a98 <l2600>:
    2a98:	00150e98 	mulseq	r5, r8, lr

00002a9c <l2601>:
    2a9c:	80c80e9b 	smullhi	r0, r8, fp, lr

00002aa0 <l2602>:
    2aa0:	52051d52 	andpl	r1, r5, #5248	; 0x1480

00002aa4 <l2603>:
    2aa4:	b02c66a8 	eorlt	r6, ip, r8, lsr #13

00002aa8 <l2604>:
    2aa8:	a0235191 	mlage	r3, r1, r1, r5

00002aac <l2605>:
    2aac:	e1b01004 	movs	r1, r4

00002ab0 <l2606>:
    2ab0:	e0a46091 	umlal	r6, r4, r1, r0

00002ab4 <l2607>:
    2ab4:	e0969495 	umulls	r9, r6, r5, r4

00002ab8 <l2608>:
    2ab8:	01330007 	teqeq	r3, r7

00002abc <l2609>:
    2abc:	01180559 	tsteq	r8, r9, asr r5

00002ac0 <l2610>:
    2ac0:	e1858064 	orr	r8, r5, r4, rrx

00002ac4 <l2611>:
    2ac4:	6068506e 	rsbvs	r5, r8, lr, rrx

00002ac8 <l2612>:
    2ac8:	a23405fa 	eorsge	r0, r4, #1048576000	; 0x3e800000

00002acc <l2613>:
    2acc:	324e57be 	subcc	r5, lr, #49807360	; 0x2f80000

00002ad0 <l2614>:
    2ad0:	6179046e 	cmnvs	r9, lr, ror #8

00002ad4 <l2615>:
    2ad4:	9096a192 	umullsls	sl, r6, r2, r1

00002ad8 <l2616>:
    2ad8:	20eb728f 	rsccs	r7, fp, pc, lsl #5

00002adc <l2617>:
    2adc:	a00b0b92 	mulge	fp, r2, fp

00002ae0 <l2618>:
    2ae0:	e22c834e 	eor	r8, ip, #939524097	; 0x38000001

00002ae4 <l2619>:
    2ae4:	e1f0906f 	mvns	r9, pc, rrx

00002ae8 <l2620>:
    2ae8:	503a0005 	eorspl	r0, sl, r5

00002aec <l2621>:
    2aec:	906372e2 	rsbls	r7, r3, r2, ror #5

00002af0 <l2622>:
    2af0:	e0d18e92 	smulls	r8, r1, r2, lr

00002af4 <l2623>:
    2af4:	b1916065 	orrslt	r6, r1, r5, rrx

00002af8 <l2624>:
    2af8:	60968090 	umullsvs	r8, r6, r0, r0

00002afc <l2625>:
    2afc:	e37402c7 	cmn	r4, #1879048204	; 0x7000000c

00002b00 <l2626>:
    2b00:	c2409deb 	subgt	r9, r0, #15040	; 0x3ac0

00002b04 <l2627>:
    2b04:	11e05006 	mvnne	r5, r6

00002b08 <l2628>:
    2b08:	e01cb06e 	ands	fp, ip, lr, rrx

00002b0c <l2629>:
    2b0c:	e021c993 	mla	r1, r3, r9, ip

00002b10 <l2630>:
    2b10:	b0eb8795 	smlallt	r8, fp, r5, r7

00002b14 <l2631>:
    2b14:	22899731 	addcs	r9, r9, #12845056	; 0xc40000

00002b18 <l2632>:
    2b18:	318be00b 	orrcc	lr, fp, fp

00002b1c <l2633>:
    2b1c:	e040500e 	sub	r5, r0, lr

00002b20 <l2634>:
    2b20:	e06e4003 	rsb	r4, lr, r3

00002b24 <l2635>:
    2b24:	e19cb007 	orrs	fp, ip, r7

00002b28 <l2636>:
    2b28:	a0eb8e90 	smlalge	r8, fp, r0, lr

00002b2c <l2637>:
    2b2c:	00ee059a 	smlaleq	r0, lr, sl, r5

00002b30 <l2638>:
    2b30:	80195b2b 	andshi	r5, r9, fp, lsr #22

00002b34 <l2639>:
    2b34:	1042e080 	subne	lr, r2, r0, lsl #1

00002b38 <l2640>:
    2b38:	816f6f1a 	clzhi	r6, sl

00002b3c <l2641>:
    2b3c:	e1520247 	cmp	r2, r7, asr #4

00002b40 <l2642>:
    2b40:	e3e05d1f 	mvn	r5, #1984	; 0x7c0

00002b44 <l2643>:
    2b44:	e03ca879 	eors	sl, ip, r9, ror r8

00002b48 <l2644>:
    2b48:	216fef15 	clzcs	lr, r5

00002b4c <l2645>:
    2b4c:	83800a03 	orrhi	r0, r0, #12288	; 0x3000

00002b50 <l2646>:
    2b50:	a11f0009 	tstge	pc, r9

00002b54 <l2647>:
    2b54:	319aa061 	orrscc	sl, sl, r1, rrx

00002b58 <l2648>:
    2b58:	019c700e 	orrseq	r7, ip, lr

00002b5c <l2649>:
    2b5c:	202f300a 	eorcs	r3, pc, sl

00002b60 <l2650>:
    2b60:	911b09e1 	tstls	fp, r1, ror #19

00002b64 <l2651>:
    2b64:	e0eae998 	smlal	lr, sl, r8, r9

00002b68 <l2652>:
    2b68:	e0267060 	eor	r7, r6, r0, rrx

00002b6c <l2653>:
    2b6c:	00080c96 	muleq	r8, r6, ip

00002b70 <l2654>:
    2b70:	e02c7b66 	eor	r7, ip, r6, ror #22

00002b74 <l2655>:
    2b74:	80488005 	subhi	r8, r8, r5

00002b78 <l2656>:
    2b78:	e1d2a575 	bics	sl, r2, r5, ror r5

00002b7c <l2657>:
    2b7c:	e0e16797 	smlal	r6, r1, r7, r7

00002b80 <l2658>:
    2b80:	e3500c9d 	cmp	r0, #40192	; 0x9d00

00002b84 <l2659>:
    2b84:	e08a349b 	umull	r3, sl, fp, r4

00002b88 <l2660>:
    2b88:	40d1600c 	sbcsmi	r6, r1, ip

00002b8c <l2661>:
    2b8c:	e232e98f 	eors	lr, r2, #2342912	; 0x23c000

00002b90 <l2662>:
    2b90:	20e9ab94 	smlalcs	sl, r9, r4, fp

00002b94 <l2663>:
    2b94:	e1c22e74 	bic	r2, r2, r4, ror lr

00002b98 <l2664>:
    2b98:	d20410f6 	andle	r1, r4, #246	; 0xf6

00002b9c <l2665>:
    2b9c:	e38e11b9 	orr	r1, lr, #1073741870	; 0x4000002e

00002ba0 <l2666>:
    2ba0:	e35808ff 	cmp	r8, #16711680	; 0xff0000

00002ba4 <l2667>:
    2ba4:	71e0cc5e 	mvnvc	ip, lr, asr ip

00002ba8 <l2668>:
    2ba8:	e033277b 	eors	r2, r3, fp, ror r7

00002bac <l2669>:
    2bac:	20da3a91 	smullscs	r3, sl, r1, sl

00002bb0 <l2670>:
    2bb0:	e0190996 	muls	r9, r6, r9

00002bb4 <l2671>:
    2bb4:	e16f6f10 	clz	r6, r0

00002bb8 <l2672>:
    2bb8:	e2e509a7 	rsc	r0, r5, #2736128	; 0x29c000

00002bbc <l2673>:
    2bbc:	e081c993 	umull	ip, r1, r3, r9

00002bc0 <l2674>:
    2bc0:	e018039e 	muls	r8, lr, r3

00002bc4 <l2675>:
    2bc4:	7183cce5 	orrvc	ip, r3, r5, ror #25

00002bc8 <l2676>:
    2bc8:	e00c13c6 	and	r1, ip, r6, asr #7

00002bcc <l2677>:
    2bcc:	e070ee58 	rsbs	lr, r0, r8, asr lr

00002bd0 <l2678>:
    2bd0:	e0160597 	muls	r6, r7, r5

00002bd4 <l2679>:
    2bd4:	c02ccb00 	eorgt	ip, ip, r0, lsl #22

00002bd8 <l2680>:
    2bd8:	e05f7a21 	subs	r7, pc, r1, lsr #20

00002bdc <l2681>:
    2bdc:	e0c2629a 	smull	r6, r2, sl, r2

00002be0 <l2682>:
    2be0:	d3dfcd81 	bicsle	ip, pc, #8256	; 0x2040

00002be4 <l2683>:
    2be4:	e0080794 	mul	r8, r4, r7

00002be8 <l2684>:
    2be8:	b1d6152e 	bicslt	r1, r6, lr, lsr #10

00002bec <l2685>:
    2bec:	a1730002 	cmnge	r3, r2

00002bf0 <l2686>:
    2bf0:	e1f0b635 	mvns	fp, r5, lsr r6

00002bf4 <l2687>:
    2bf4:	e0290004 	eor	r0, r9, r4

00002bf8 <l2688>:
    2bf8:	d0d03991 	smullsle	r3, r0, r1, r9

00002bfc <l2689>:
    2bfc:	e0ba6899 	umlals	r6, sl, r9, r8

00002c00 <l2690>:
    2c00:	e1898181 	orr	r8, r9, r1, lsl #3

00002c04 <l2691>:
    2c04:	e0b7741e 	adcs	r7, r7, lr, lsl r4

00002c08 <l2692>:
    2c08:	e0060c92 	mul	r6, r2, ip

00002c0c <l2693>:
    2c0c:	31c79182 	biccc	r9, r7, r2, lsl #3

00002c10 <l2694>:
    2c10:	e19be51c 	orrs	lr, fp, ip, lsl r5

00002c14 <l2695>:
    2c14:	32b6378d 	adcscc	r3, r6, #36962304	; 0x2340000

00002c18 <l2696>:
    2c18:	e188a430 	orr	sl, r8, r0, lsr r4

00002c1c <l2697>:
    2c1c:	e0110695 	muls	r1, r5, r6

00002c20 <l2698>:
    2c20:	e0010b9a 	mul	r1, sl, fp

00002c24 <l2699>:
    2c24:	00aa9e93 	umlaleq	r9, sl, r3, lr

00002c28 <l2700>:
    2c28:	e09a5c9e 	umulls	r5, sl, lr, ip

00002c2c <l2701>:
    2c2c:	e15a067c 	cmp	sl, ip, ror r6

00002c30 <l2702>:
    2c30:	10418001 	subne	r8, r1, r1

00002c34 <l2703>:
    2c34:	40848c93 	umullmi	r8, r4, r3, ip

00002c38 <l2704>:
    2c38:	20552533 	subscs	r2, r5, r3, lsr r5

00002c3c <l2705>:
    2c3c:	60a8b699 	umlalvs	fp, r8, r9, r6

00002c40 <l2706>:
    2c40:	e025a859 	eor	sl, r5, r9, asr r8

00002c44 <l2707>:
    2c44:	e2294115 	eor	r4, r9, #1073741829	; 0x40000005

00002c48 <l2708>:
    2c48:	70dac993 	smullsvc	ip, sl, r3, r9

00002c4c <l2709>:
    2c4c:	d0059b3c 	andle	r9, r5, ip, lsr fp

00002c50 <l2710>:
    2c50:	e2108857 	ands	r8, r0, #5701632	; 0x570000

00002c54 <l2711>:
    2c54:	e0852e90 	umull	r2, r5, r0, lr

00002c58 <l2712>:
    2c58:	e021b795 	mla	r1, r5, r7, fp

00002c5c <l2713>:
    2c5c:	e0b52897 	umlals	r2, r5, r7, r8

00002c60 <l2714>:
    2c60:	42464dab 	submi	r4, r6, #10944	; 0x2ac0

00002c64 <l2715>:
    2c64:	e0e25898 	smlal	r5, r2, r8, r8

00002c68 <l2716>:
    2c68:	e0cb5c90 	smull	r5, fp, r0, ip

00002c6c <l2717>:
    2c6c:	10c78c9e 	smullne	r8, r7, lr, ip

00002c70 <l2718>:
    2c70:	21340c0c 	teqcs	r4, ip, lsl #24

00002c74 <l2719>:
    2c74:	c005963a 	andgt	r9, r5, sl, lsr r6

00002c78 <l2720>:
    2c78:	e0801399 	umull	r1, r0, r9, r3

00002c7c <l2721>:
    2c7c:	a1380759 	teqge	r8, r9, asr r7

00002c80 <l2722>:
    2c80:	80ea7c96 	smlalhi	r7, sl, r6, ip

00002c84 <l2723>:
    2c84:	e02560e8 	eor	r6, r5, r8, ror #1

00002c88 <l2724>:
    2c88:	e33b08c3 	teq	fp, #12779520	; 0xc30000

00002c8c <l2725>:
    2c8c:	e04e600f 	sub	r6, lr, pc

00002c90 <l2726>:
    2c90:	e16fef15 	clz	lr, r5

00002c94 <l2727>:
    2c94:	e0359933 	eors	r9, r5, r3, lsr r9

00002c98 <l2728>:
    2c98:	12232226 	eorne	r2, r3, #1610612738	; 0x60000002

00002c9c <l2729>:
    2c9c:	e2645c0b 	rsb	r5, r4, #2816	; 0xb00

00002ca0 <l2730>:
    2ca0:	e0309960 	eors	r9, r0, r0, ror #18

00002ca4 <l2731>:
    2ca4:	71b00c61 	rorsvc	r0, r1, #24

00002ca8 <l2732>:
    2ca8:	60160993 	mulsvs	r6, r3, r9

00002cac <l2733>:
    2cac:	e39524b5 	orrs	r2, r5, #-1258291200	; 0xb5000000

00002cb0 <l2734>:
    2cb0:	123022c1 	eorsne	r2, r0, #268435468	; 0x1000000c

00002cb4 <l2735>:
    2cb4:	e0fbcc97 	smlals	ip, fp, r7, ip

00002cb8 <l2736>:
    2cb8:	e0dbcc98 	smulls	ip, fp, r8, ip

00002cbc <l2737>:
    2cbc:	e18ccf05 	orr	ip, ip, r5, lsl #30

00002cc0 <l2738>:
    2cc0:	70acb291 	umlalvc	fp, ip, r1, r2

00002cc4 <l2739>:
    2cc4:	911f06e5 	tstls	pc, r5, ror #13

00002cc8 <l2740>:
    2cc8:	d00a0b90 	mulle	sl, r0, fp

00002ccc <l2741>:
    2ccc:	422cc901 	eormi	ip, ip, #16384	; 0x4000

00002cd0 <l2742>:
    2cd0:	8037713c 	eorshi	r7, r7, ip, lsr r1

00002cd4 <l2743>:
    2cd4:	028b941d 	addeq	r9, fp, #486539264	; 0x1d000000

00002cd8 <l2744>:
    2cd8:	50317394 	mlaspl	r1, r4, r3, r7

00002cdc <l2745>:
    2cdc:	e0da7a94 	smulls	r7, sl, r4, sl

00002ce0 <l2746>:
    2ce0:	00110fe6 	andseq	r0, r1, r6, ror #31

00002ce4 <l2747>:
    2ce4:	e0150996 	muls	r5, r6, r9

00002ce8 <l2748>:
    2ce8:	022bb407 	eoreq	fp, fp, #117440512	; 0x7000000

00002cec <l2749>:
    2cec:	e0276892 	mla	r7, r2, r8, r6

00002cf0 <l2750>:
    2cf0:	e0f2ae93 	smlals	sl, r2, r3, lr

00002cf4 <l2751>:
    2cf4:	a03c8aa5 	eorsge	r8, ip, r5, lsr #21

00002cf8 <l2752>:
    2cf8:	6094be92 	umullsvs	fp, r4, r2, lr

00002cfc <l2753>:
    2cfc:	e0cec095 	smull	ip, lr, r5, r0

00002d00 <l2754>:
    2d00:	e3a04040 	mov	r4, #64	; 0x40

00002d04 <l2755>:
    2d04:	e08cc00e 	add	ip, ip, lr

00002d08 <l2756>:
    2d08:	3036600e 	eorscc	r6, r6, lr

00002d0c <l2757>:
    2d0c:	40845b90 	umullmi	r5, r4, r0, fp

00002d10 <l2758>:
    2d10:	e397c3b6 	orrs	ip, r7, #-671088638	; 0xd8000002

00002d14 <l2759>:
    2d14:	e0170b9b 	muls	r7, fp, fp

00002d18 <l2760>:
    2d18:	e04b93ce 	sub	r9, fp, lr, asr #7

00002d1c <l2761>:
    2d1c:	e09c3b90 	umulls	r3, ip, r0, fp

00002d20 <l2762>:
    2d20:	50a9359e 	umlalpl	r3, r9, lr, r5

00002d24 <l2763>:
    2d24:	e0f27e7e 	rscs	r7, r2, lr, ror lr

00002d28 <l2764>:
    2d28:	d002500f 	andle	r5, r2, pc

00002d2c <l2765>:
    2d2c:	51881065 	orrpl	r1, r8, r5, rrx

00002d30 <l2766>:
    2d30:	90bc6005 	adcsls	r6, ip, r5

00002d34 <l2767>:
    2d34:	9189000a 	orrls	r0, r9, sl

00002d38 <l2768>:
    2d38:	91330d65 	teqls	r3, r5, ror #26

00002d3c <l2769>:
    2d3c:	41901064 	orrsmi	r1, r0, r4, rrx

00002d40 <l2770>:
    2d40:	e001206b 	and	r2, r1, fp, rrx

00002d44 <l2771>:
    2d44:	5014079b 	mulspl	r4, fp, r7

00002d48 <l2772>:
    2d48:	5039a001 	eorspl	sl, r9, r1

00002d4c <l2773>:
    2d4c:	d1d3eca1 	bicsle	lr, r3, r1, lsr #25

00002d50 <l2774>:
    2d50:	b0120098 	mulslt	r2, r8, r0

00002d54 <l2775>:
    2d54:	20100795 	mulscs	r0, r5, r7

00002d58 <l2776>:
    2d58:	8038e188 	eorshi	lr, r8, r8, lsl #3

00002d5c <l2777>:
    2d5c:	e20a0176 	and	r0, sl, #-2147483619	; 0x8000001d

00002d60 <l2778>:
    2d60:	e0f8e763 	rscs	lr, r8, r3, ror #14

00002d64 <l2779>:
    2d64:	60869e95 	umullvs	r9, r6, r5, lr

00002d68 <l2780>:
    2d68:	00a5849a 	umlaleq	r8, r5, sl, r4

00002d6c <l2781>:
    2d6c:	922c12be 	eorls	r1, ip, #-536870901	; 0xe000000b

00002d70 <l2782>:
    2d70:	503cc799 	mlaspl	ip, r9, r7, ip

00002d74 <l2783>:
    2d74:	10a9729e 	umlalne	r7, r9, lr, r2

00002d78 <l2784>:
    2d78:	10e0c00f 	rscne	ip, r0, pc

00002d7c <l2785>:
    2d7c:	70979d67 	addsvc	r9, r7, r7, ror #26

00002d80 <l2786>:
    2d80:	90e90998 	smlalls	r0, r9, r8, r9

00002d84 <l2787>:
    2d84:	73120d0e 	tstvc	r2, #896	; 0x380

00002d88 <l2788>:
    2d88:	c23f1131 	eorsgt	r1, pc, #1073741836	; 0x4000000c

00002d8c <l2789>:
    2d8c:	e0fa6790 	smlals	r6, sl, r0, r7

00002d90 <l2790>:
    2d90:	7189501e 	orrvc	r5, r9, lr, lsl r0

00002d94 <l2791>:
    2d94:	e05fcd81 	subs	ip, pc, r1, lsl #27

00002d98 <l2792>:
    2d98:	b397281a 	orrslt	r2, r7, #1703936	; 0x1a0000

00002d9c <l2793>:
    2d9c:	a0010a96 	mulge	r1, r6, sl

00002da0 <l2794>:
    2da0:	728143cb 	addvc	r4, r1, #738197507	; 0x2c000003

00002da4 <l2795>:
    2da4:	e027c294 	mla	r7, r4, r2, ip

00002da8 <l2796>:
    2da8:	500a0493 	mulpl	sl, r3, r4

00002dac <l2797>:
    2dac:	53550126 	cmppl	r5, #-2147483639	; 0x80000009

00002db0 <l2798>:
    2db0:	5027c003 	eorpl	ip, r7, r3

00002db4 <l2799>:
    2db4:	11f0b001 	mvnsne	fp, r1

00002db8 <l2800>:
    2db8:	b0971a98 	umullslt	r1, r7, r8, sl

00002dbc <l2801>:
    2dbc:	e08c1097 	umull	r1, ip, r7, r0

00002dc0 <l2802>:
    2dc0:	00060490 	muleq	r6, r0, r4

00002dc4 <l2803>:
    2dc4:	e1350008 	teq	r5, r8

00002dc8 <l2804>:
    2dc8:	3290b913 	addscc	fp, r0, #311296	; 0x4c000

00002dcc <l2805>:
    2dcc:	d036399c 	mlasle	r6, ip, r9, r3

00002dd0 <l2806>:
    2dd0:	e0cc3009 	sbc	r3, ip, r9

00002dd4 <l2807>:
    2dd4:	91a0b068 	rrxls	fp, r8

00002dd8 <l2808>:
    2dd8:	416fef11 	clzmi	lr, r1

00002ddc <l2809>:
    2ddc:	4013a065 	andsmi	sl, r3, r5, rrx

00002de0 <l2810>:
    2de0:	e0c74e9a 	smull	r4, r7, sl, lr

00002de4 <l2811>:
    2de4:	00083b36 	andeq	r3, r8, r6, lsr fp

00002de8 <l2812>:
    2de8:	e196e065 	orrs	lr, r6, r5, rrx

00002dec <l2813>:
    2dec:	d01b76a3 	andsle	r7, fp, r3, lsr #13

00002df0 <l2814>:
    2df0:	b0ef100c 	rsclt	r1, pc, ip

00002df4 <l2815>:
    2df4:	917f0840 	cmnls	pc, r0, asr #16

00002df8 <l2816>:
    2df8:	e174096e 	cmn	r4, lr, ror #18

00002dfc <l2817>:
    2dfc:	20ac6498 	umlalcs	r6, ip, r8, r4

00002e00 <l2818>:
    2e00:	5003059a 	mulpl	r3, sl, r5

00002e04 <l2819>:
    2e04:	b02ca62e 	eorlt	sl, ip, lr, lsr #12

00002e08 <l2820>:
    2e08:	3020121a 	eorcc	r1, r0, sl, lsl r2

00002e0c <l2821>:
    2e0c:	6096859a 	umullsvs	r8, r6, sl, r5

00002e10 <l2822>:
    2e10:	e1550809 	cmp	r5, r9, lsl #16

00002e14 <l2823>:
    2e14:	e0305fce 	eors	r5, r0, lr, asr #31

00002e18 <l2824>:
    2e18:	e0c57b92 	smull	r7, r5, r2, fp

00002e1c <l2825>:
    2e1c:	7183ae02 	orrvc	sl, r3, r2, lsl #28

00002e20 <l2826>:
    2e20:	20ce949a 	smullcs	r9, lr, sl, r4

00002e24 <l2827>:
    2e24:	e39c313f 	orrs	r3, ip, #-1073741809	; 0xc000000f

00002e28 <l2828>:
    2e28:	e1790005 	cmn	r9, r5

00002e2c <l2829>:
    2e2c:	e0071684 	and	r1, r7, r4, lsl #13

00002e30 <l2830>:
    2e30:	e1520061 	cmp	r2, r1, rrx

00002e34 <l2831>:
    2e34:	90bc100e 	adcsls	r1, ip, lr

00002e38 <l2832>:
    2e38:	e01ea000 	ands	sl, lr, r0

00002e3c <l2833>:
    2e3c:	80e04491 	smlalhi	r4, r0, r1, r4

00002e40 <l2834>:
    2e40:	13875b61 	orrne	r5, r7, #99328	; 0x18400

00002e44 <l2835>:
    2e44:	e0dcb090 	smulls	fp, ip, r0, r0

00002e48 <l2836>:
    2e48:	62886c5a 	addvs	r6, r8, #23040	; 0x5a00

00002e4c <l2837>:
    2e4c:	80965a97 	umullshi	r5, r6, r7, sl

00002e50 <l2838>:
    2e50:	80943492 	umullshi	r3, r4, r2, r4

00002e54 <l2839>:
    2e54:	e030c064 	eors	ip, r0, r4, rrx

00002e58 <l2840>:
    2e58:	600e0295 	mulvs	lr, r5, r2

00002e5c <l2841>:
    2e5c:	60fe0b9a 	smlalsvs	r0, lr, sl, fp

00002e60 <l2842>:
    2e60:	40725eee 	rsbsmi	r5, r2, lr, ror #29

00002e64 <l2843>:
    2e64:	e3866fbb 	orr	r6, r6, #748	; 0x2ec

00002e68 <l2844>:
    2e68:	21c1806e 	biccs	r8, r1, lr, rrx

00002e6c <l2845>:
    2e6c:	708ae898 	umullvc	lr, sl, r8, r8

00002e70 <l2846>:
    2e70:	402a4fa4 	eormi	r4, sl, r4, lsr #31

00002e74 <l2847>:
    2e74:	e270c6e2 	rsbs	ip, r0, #236978176	; 0xe200000

00002e78 <l2848>:
    2e78:	e0010892 	mul	r1, r2, r8

00002e7c <l2849>:
    2e7c:	e1120007 	tst	r2, r7

00002e80 <l2850>:
    2e80:	020c093d 	andeq	r0, ip, #999424	; 0xf4000

00002e84 <l2851>:
    2e84:	e0150b9a 	muls	r5, sl, fp

00002e88 <l2852>:
    2e88:	e05e0155 	subs	r0, lr, r5, asr r1

00002e8c <l2853>:
    2e8c:	e0fa029e 	smlals	r0, sl, lr, r2

00002e90 <l2854>:
    2e90:	e132000f 	teq	r2, pc

00002e94 <l2855>:
    2e94:	71929003 	orrsvc	r9, r2, r3

00002e98 <l2856>:
    2e98:	335b0232 	cmpcc	fp, #536870915	; 0x20000003

00002e9c <l2857>:
    2e9c:	d39fb7a9 	orrsle	fp, pc, #44302336	; 0x2a40000

00002ea0 <l2858>:
    2ea0:	e00e0596 	mul	lr, r6, r5

00002ea4 <l2859>:
    2ea4:	71ca8d67 	bicvc	r8, sl, r7, ror #26

00002ea8 <l2860>:
    2ea8:	81d70842 	bicshi	r0, r7, r2, asr #16

00002eac <l2861>:
    2eac:	e0150a99 	muls	r5, r9, sl

00002eb0 <l2862>:
    2eb0:	c0a7949b 	umlalgt	r9, r7, fp, r4

00002eb4 <l2863>:
    2eb4:	e0c1ca90 	smull	ip, r1, r0, sl

00002eb8 <l2864>:
    2eb8:	d0461008 	suble	r1, r6, r8

00002ebc <l2865>:
    2ebc:	e00a0a92 	mul	sl, r2, sl

00002ec0 <l2866>:
    2ec0:	e0060497 	mul	r6, r7, r4

00002ec4 <l2867>:
    2ec4:	61e02065 	mvnvs	r2, r5, rrx

00002ec8 <l2868>:
    2ec8:	d0806831 	addle	r6, r0, r1, lsr r8

00002ecc <l2869>:
    2ecc:	e1550480 	cmp	r5, r0, lsl #9

00002ed0 <l2870>:
    2ed0:	b025b69b 	mlalt	r5, fp, r6, fp

00002ed4 <l2871>:
    2ed4:	51853006 	orrpl	r3, r5, r6

00002ed8 <l2872>:
    2ed8:	e1881d68 	orr	r1, r8, r8, ror #26

00002edc <l2873>:
    2edc:	9044bf66 	subls	fp, r4, r6, ror #30

00002ee0 <l2874>:
    2ee0:	e0d70b9b 	smulls	r0, r7, fp, fp

00002ee4 <l2875>:
    2ee4:	c0d6e797 	smullsgt	lr, r6, r7, r7

00002ee8 <l2876>:
    2ee8:	c0447229 	subgt	r7, r4, r9, lsr #4

00002eec <l2877>:
    2eec:	6138057b 	teqvs	r8, fp, ror r5

00002ef0 <l2878>:
    2ef0:	600b000b 	andvs	r0, fp, fp

00002ef4 <l2879>:
    2ef4:	e11e0004 	tst	lr, r4

00002ef8 <l2880>:
    2ef8:	718b4811 	orrvc	r4, fp, r1, lsl r8

00002efc <l2881>:
    2efc:	70e03298 	smlalvc	r3, r0, r8, r2

00002f00 <l2882>:
    2f00:	e16f5f15 	clz	r5, r5

00002f04 <l2883>:
    2f04:	0041900b 	subeq	r9, r1, fp

00002f08 <l2884>:
    2f08:	e01c300b 	ands	r3, ip, fp

00002f0c <l2885>:
    2f0c:	e0f96497 	smlals	r6, r9, r7, r4

00002f10 <l2886>:
    2f10:	30be5296 	umlalscc	r5, lr, r6, r2

00002f14 <l2887>:
    2f14:	600c0393 	mulvs	ip, r3, r3

00002f18 <l2888>:
    2f18:	e086299a 	umull	r2, r6, sl, r9

00002f1c <l2889>:
    2f1c:	2087ab9e 	umullcs	sl, r7, lr, fp

00002f20 <l2890>:
    2f20:	418c200c 	orrmi	r2, ip, ip

00002f24 <l2891>:
    2f24:	e010600b 	ands	r6, r0, fp

00002f28 <l2892>:
    2f28:	c00e0995 	mulgt	lr, r5, r9

00002f2c <l2893>:
    2f2c:	e198967c 	orrs	r9, r8, ip, ror r6

00002f30 <l2894>:
    2f30:	50d3cc92 	smullspl	ip, r3, r2, ip

00002f34 <l2895>:
    2f34:	e0e1869a 	smlal	r8, r1, sl, r6

00002f38 <l2896>:
    2f38:	10321e93 	mlasne	r2, r3, lr, r1

00002f3c <l2897>:
    2f3c:	e1740000 	cmn	r4, r0

00002f40 <l2898>:
    2f40:	81340004 	teqhi	r4, r4

00002f44 <l2899>:
    2f44:	e0fe889a 	smlals	r8, lr, sl, r8

00002f48 <l2900>:
    2f48:	e027a88e 	eor	sl, r7, lr, lsl #17

00002f4c <l2901>:
    2f4c:	e05a1dc7 	subs	r1, sl, r7, asr #27

00002f50 <l2902>:
    2f50:	117e000e 	cmnne	lr, lr

00002f54 <l2903>:
    2f54:	41c54187 	bicmi	r4, r5, r7, lsl #3

00002f58 <l2904>:
    2f58:	e0205798 	mla	r0, r8, r7, r5

00002f5c <l2905>:
    2f5c:	d0da3994 	smullsle	r3, sl, r4, r9

00002f60 <l2906>:
    2f60:	e16fbf17 	clz	fp, r7

00002f64 <l2907>:
    2f64:	32398501 	eorscc	r8, r9, #4194304	; 0x400000

00002f68 <l2908>:
    2f68:	e09a1297 	umulls	r1, sl, r7, r2

00002f6c <l2909>:
    2f6c:	e1d8201c 	bics	r2, r8, ip, lsl r0

00002f70 <l2910>:
    2f70:	e2e0389d 	rsc	r3, r0, #10289152	; 0x9d0000

00002f74 <l2911>:
    2f74:	e1120ace 	tst	r2, lr, asr #21

00002f78 <l2912>:
    2f78:	c0f999a1 	rscsgt	r9, r9, r1, lsr #19

00002f7c <l2913>:
    2f7c:	20003a2f 	andcs	r3, r0, pc, lsr #20

00002f80 <l2914>:
    2f80:	e3869119 	orr	r9, r6, #1073741830	; 0x40000006

00002f84 <l2915>:
    2f84:	e0f80097 	smlals	r0, r8, r7, r0

00002f88 <l2916>:
    2f88:	e0fe8e19 	rscs	r8, lr, r9, lsl lr

00002f8c <l2917>:
    2f8c:	70c04095 	smullvc	r4, r0, r5, r0

00002f90 <l2918>:
    2f90:	e01330a3 	ands	r3, r3, r3, lsr #1

00002f94 <l2919>:
    2f94:	e00ee00e 	and	lr, lr, lr

00002f98 <l2920>:
    2f98:	513c0003 	teqpl	ip, r3

00002f9c <l2921>:
    2f9c:	501e0497 	mulspl	lr, r7, r4

00002fa0 <l2922>:
    2fa0:	21510bce 	cmpcs	r1, lr, asr #23

00002fa4 <l2923>:
    2fa4:	304b2a7c 	subcc	r2, fp, ip, ror sl

00002fa8 <l2924>:
    2fa8:	e08b0096 	umull	r0, fp, r6, r0

00002fac <l2925>:
    2fac:	00f78791 	smlalseq	r8, r7, r1, r7

00002fb0 <l2926>:
    2fb0:	b09e439a 	umullslt	r4, lr, sl, r3

00002fb4 <l2927>:
    2fb4:	d080969c 	umullle	r9, r0, ip, r6

00002fb8 <l2928>:
    2fb8:	e09a9a9b 	umulls	r9, sl, fp, sl

00002fbc <l2929>:
    2fbc:	c05a8546 	subsgt	r8, sl, r6, asr #10

00002fc0 <l2930>:
    2fc0:	a138023c 	teqge	r8, ip, lsr r2

00002fc4 <l2931>:
    2fc4:	a20a16ca 	andge	r1, sl, #211812352	; 0xca00000

00002fc8 <l2932>:
    2fc8:	d22e5066 	eorle	r5, lr, #102	; 0x66

00002fcc <l2933>:
    2fcc:	9037acc8 	eorsls	sl, r7, r8, asr #25

00002fd0 <l2934>:
    2fd0:	91f08980 	mvnsls	r8, r0, lsl #19

00002fd4 <l2935>:
    2fd4:	e0e06399 	smlal	r6, r0, r9, r3

00002fd8 <l2936>:
    2fd8:	e0e50391 	smlal	r0, r5, r1, r3

00002fdc <l2937>:
    2fdc:	e06b0758 	rsb	r0, fp, r8, asr r7

00002fe0 <l2938>:
    2fe0:	e3de0050 	bics	r0, lr, #80	; 0x50

00002fe4 <l2939>:
    2fe4:	d0912e93 	umullsle	r2, r1, r3, lr

00002fe8 <l2940>:
    2fe8:	e2db00d0 	sbcs	r0, fp, #208	; 0xd0

00002fec <l2941>:
    2fec:	119bb81b 	orrsne	fp, fp, fp, lsl r8

00002ff0 <l2942>:
    2ff0:	d0c3039e 	smullle	r0, r3, lr, r3

00002ff4 <l2943>:
    2ff4:	3028c065 	eorcc	ip, r8, r5, rrx

00002ff8 <l2944>:
    2ff8:	50b17192 	umlalspl	r7, r1, r2, r1

00002ffc <l2945>:
    2ffc:	e3cf2249 	bic	r2, pc, #-1879048188	; 0x90000004

00003000 <l2946>:
    3000:	d187a230 	orrle	sl, r7, r0, lsr r2

00003004 <l2947>:
    3004:	e0c3899e 	smull	r8, r3, lr, r9

00003008 <l2948>:
    3008:	e15b0a63 	cmp	fp, r3, ror #20

0000300c <l2949>:
    300c:	41300538 	teqmi	r0, r8, lsr r5

00003010 <l2950>:
    3010:	d1886009 	orrle	r6, r8, r9

00003014 <l2951>:
    3014:	e0174831 	ands	r4, r7, r1, lsr r8

00003018 <l2952>:
    3018:	e08ab00f 	add	fp, sl, pc

0000301c <l2953>:
    301c:	00c13090 	smulleq	r3, r1, r0, r0

00003020 <l2954>:
    3020:	e01a3000 	ands	r3, sl, r0

00003024 <l2955>:
    3024:	e0003752 	and	r3, r0, r2, asr r7

00003028 <l2956>:
    3028:	e19f7061 	orrs	r7, pc, r1, rrx

0000302c <l2957>:
    302c:	d0ab7993 	umlalle	r7, fp, r3, r9

00003030 <l2958>:
    3030:	e0d23358 	sbcs	r3, r2, r8, asr r3

00003034 <l2959>:
    3034:	a2042959 	andge	r2, r4, #1458176	; 0x164000

00003038 <l2960>:
    3038:	82201a1d 	eorhi	r1, r0, #118784	; 0x1d000

0000303c <l2961>:
    303c:	20f53096 	smlalscs	r3, r5, r6, r0

00003040 <l2962>:
    3040:	822b8c67 	eorhi	r8, fp, #26368	; 0x6700

00003044 <l2963>:
    3044:	50d7a991 	smullspl	sl, r7, r1, r9

00003048 <l2964>:
    3048:	40a32696 	umlalmi	r2, r3, r6, r6

0000304c <l2965>:
    304c:	e20604d2 	and	r0, r6, #-771751936	; 0xd2000000

00003050 <l2966>:
    3050:	e011c00f 	ands	ip, r1, pc

00003054 <l2967>:
    3054:	53b02085 	movspl	r2, #133	; 0x85

00003058 <l2968>:
    3058:	e067b065 	rsb	fp, r7, r5, rrx

0000305c <l2969>:
    305c:	103a4099 	mlasne	sl, r9, r0, r4

00003060 <l2970>:
    3060:	e1e0ea7a 	mvn	lr, sl, ror sl

00003064 <l2971>:
    3064:	1017049b 	mulsne	r7, fp, r4

00003068 <l2972>:
    3068:	40100593 	mulsmi	r0, r3, r5

0000306c <l2973>:
    306c:	60150399 	mulsvs	r5, r9, r3

00003070 <l2974>:
    3070:	e22e3d8e 	eor	r3, lr, #9088	; 0x2380

00003074 <l2975>:
    3074:	90f4c79a 	smlalsls	ip, r4, sl, r7

00003078 <l2976>:
    3078:	a191a00e 	orrsge	sl, r1, lr

0000307c <l2977>:
    307c:	b1790671 	cmnlt	r9, r1, ror r6

00003080 <l2978>:
    3080:	40d9849b 	smullsmi	r8, r9, fp, r4

00003084 <l2979>:
    3084:	40114ea0 	andsmi	r4, r1, r0, lsr #29

00003088 <l2980>:
    3088:	50219e48 	eorpl	r9, r1, r8, asr #28

0000308c <l2981>:
    308c:	82b5a916 	adcshi	sl, r5, #360448	; 0x58000

00003090 <l2982>:
    3090:	8024e625 	eorhi	lr, r4, r5, lsr #12

00003094 <l2983>:
    3094:	e171073e 	cmn	r1, lr, lsr r7

00003098 <l2984>:
    3098:	e1100577 	tst	r0, r7, ror r5

0000309c <l2985>:
    309c:	e23f5a8f 	eors	r5, pc, #585728	; 0x8f000

000030a0 <l2986>:
    30a0:	40f40a9e 	smlalsmi	r0, r4, lr, sl

000030a4 <l2987>:
    30a4:	b02c4575 	eorlt	r4, ip, r5, ror r5

000030a8 <l2988>:
    30a8:	b37e0211 	cmnlt	lr, #268435457	; 0x10000001

000030ac <l2989>:
    30ac:	e20e4e9d 	and	r4, lr, #2512	; 0x9d0

000030b0 <l2990>:
    30b0:	c0543008 	subsgt	r3, r4, r8

000030b4 <l2991>:
    30b4:	e0ab2793 	umlal	r2, fp, r3, r7

000030b8 <l2992>:
    30b8:	c0d3229b 	smullsgt	r2, r3, fp, r2

000030bc <l2993>:
    30bc:	e177031a 	cmn	r7, sl, lsl r3

000030c0 <l2994>:
    30c0:	61e02000 	mvnvs	r2, r0

000030c4 <l2995>:
    30c4:	c18a8673 	orrgt	r8, sl, r3, ror r6

000030c8 <l2996>:
    30c8:	e078a00b 	rsbs	sl, r8, fp

000030cc <l2997>:
    30cc:	e3856e89 	orr	r6, r5, #2192	; 0x890

000030d0 <l2998>:
    30d0:	70080699 	mulvc	r8, r9, r6

000030d4 <l2999>:
    30d4:	e20f0dea 	and	r0, pc, #14976	; 0x3a80

000030d8 <l3000>:
    30d8:	b0b37b96 	umlalslt	r7, r3, r6, fp

000030dc <l3001>:
    30dc:	70ae6a9c 	umlalvc	r6, lr, ip, sl

000030e0 <l3002>:
    30e0:	b037839a 	mlaslt	r7, sl, r3, r8

000030e4 <l3003>:
    30e4:	20ee2a94 	smlalcs	r2, lr, r4, sl

000030e8 <l3004>:
    30e8:	b00e8003 	andlt	r8, lr, r3

000030ec <l3005>:
    30ec:	b08235c7 	addlt	r3, r2, r7, asr #11

000030f0 <l3006>:
    30f0:	906f1004 	rsbls	r1, pc, r4

000030f4 <l3007>:
    30f4:	138bc317 	orrne	ip, fp, #1543503872	; 0x5c000000

000030f8 <l3008>:
    30f8:	a23f3747 	eorsge	r3, pc, #18612224	; 0x11c0000

000030fc <l3009>:
    30fc:	1081e003 	addne	lr, r1, r3

00003100 <l3010>:
    3100:	e0d7c794 	smulls	ip, r7, r4, r7

00003104 <l3011>:
    3104:	80398444 	eorshi	r8, r9, r4, asr #8

00003108 <l3012>:
    3108:	60c0269c 	smullvs	r2, r0, ip, r6

0000310c <l3013>:
    310c:	e16faf13 	clz	sl, r3

00003110 <l3014>:
    3110:	d004059e 	mulle	r4, lr, r5

00003114 <l3015>:
    3114:	8338030f 	teqhi	r8, #1006632960	; 0x3c000000

00003118 <l3016>:
    3118:	e058a13c 	subs	sl, r8, ip, lsr r1

0000311c <l3017>:
    311c:	e029100b 	eor	r1, r9, fp

00003120 <l3018>:
    3120:	00160797 	mulseq	r6, r7, r7

00003124 <l3019>:
    3124:	e09c4e9a 	umulls	r4, ip, sl, lr

00003128 <l3020>:
    3128:	d22055fe 	eorle	r5, r0, #1065353216	; 0x3f800000

0000312c <l3021>:
    312c:	e0b6ab98 	umlals	sl, r6, r8, fp

00003130 <l3022>:
    3130:	e03b382e 	eors	r3, fp, lr, lsr #16

00003134 <l3023>:
    3134:	10451ce6 	subne	r1, r5, r6, ror #25

00003138 <l3024>:
    3138:	20231005 	eorcs	r1, r3, r5

0000313c <l3025>:
    313c:	70129007 	andsvc	r9, r2, r7

00003140 <l3026>:
    3140:	531f0521 	tstpl	pc, #138412032	; 0x8400000

00003144 <l3027>:
    3144:	21903171 	orrscs	r3, r0, r1, ror r1

00003148 <l3028>:
    3148:	20c77579 	sbccs	r7, r7, r9, ror r5

0000314c <l3029>:
    314c:	81968066 	orrshi	r8, r6, r6, rrx

00003150 <l3030>:
    3150:	d1e0600f 	mvnle	r6, pc

00003154 <l3031>:
    3154:	e1927f2a 	orrs	r7, r2, sl, lsr #30

00003158 <l3032>:
    3158:	50d0a619 	sbcspl	sl, r0, r9, lsl r6

0000315c <l3033>:
    315c:	31f08060 	mvnscc	r8, r0, rrx

00003160 <l3034>:
    3160:	30941099 	umullscc	r1, r4, r9, r0

00003164 <l3035>:
    3164:	e198c062 	orrs	ip, r8, r2, rrx

00003168 <l3036>:
    3168:	61700c68 	cmnvs	r0, r8, ror #24

0000316c <l3037>:
    316c:	02fba733 	rscseq	sl, fp, #13369344	; 0xcc0000

00003170 <l3038>:
    3170:	900a0691 	mulls	sl, r1, r6

00003174 <l3039>:
    3174:	32761af7 	rsbscc	r1, r6, #1011712	; 0xf7000

00003178 <l3040>:
    3178:	e030a799 	mlas	r0, r9, r7, sl

0000317c <l3041>:
    317c:	e038749a 	mlas	r8, sl, r4, r7

00003180 <l3042>:
    3180:	50e13c95 	smlalpl	r3, r1, r5, ip

00003184 <l3043>:
    3184:	e191b1a2 	orrs	fp, r1, r2, lsr #3

00003188 <l3044>:
    3188:	d3a07d3d 	movle	r7, #3904	; 0xf40

0000318c <l3045>:
    318c:	e1a03268 	ror	r3, r8, #4

00003190 <l3046>:
    3190:	c1d2335b 	bicsgt	r3, r2, fp, asr r3

00003194 <l3047>:
    3194:	00e51493 	smlaleq	r1, r5, r3, r4

00003198 <l3048>:
    3198:	e07368a3 	rsbs	r6, r3, r3, lsr #17

0000319c <l3049>:
    319c:	a03a7925 	eorsge	r7, sl, r5, lsr #18

000031a0 <l3050>:
    31a0:	e0156c33 	ands	r6, r5, r3, lsr ip

000031a4 <l3051>:
    31a4:	10c48193 	smullne	r8, r4, r3, r1

000031a8 <l3052>:
    31a8:	e0a0929c 	umlal	r9, r0, ip, r2

000031ac <l3053>:
    31ac:	d015089a 	mulsle	r5, sl, r8

000031b0 <l3054>:
    31b0:	2032b00c 	eorscs	fp, r2, ip

000031b4 <l3055>:
    31b4:	10f7c463 	rscsne	ip, r7, r3, ror #8

000031b8 <l3056>:
    31b8:	d09a9091 	umullsle	r9, sl, r1, r0

000031bc <l3057>:
    31bc:	e183e225 	orr	lr, r3, r5, lsr #4

000031c0 <l3058>:
    31c0:	e055000b 	subs	r0, r5, fp

000031c4 <l3059>:
    31c4:	2386193b 	orrcs	r1, r6, #966656	; 0xec000

000031c8 <l3060>:
    31c8:	e202cf5a 	and	ip, r2, #360	; 0x168

000031cc <l3061>:
    31cc:	20a95c9b 	umlalcs	r5, r9, fp, ip

000031d0 <l3062>:
    31d0:	90e0b19a 	smlalls	fp, r0, sl, r1

000031d4 <l3063>:
    31d4:	b02a5605 	eorlt	r5, sl, r5, lsl #12

000031d8 <l3064>:
    31d8:	e0374005 	eors	r4, r7, r5

000031dc <l3065>:
    31dc:	e0282320 	eor	r2, r8, r0, lsr #6

000031e0 <l3066>:
    31e0:	e2d12ec1 	sbcs	r2, r1, #3088	; 0xc10

000031e4 <l3067>:
    31e4:	b338056e 	teqlt	r8, #461373440	; 0x1b800000

000031e8 <l3068>:
    31e8:	40ac8695 	umlalmi	r8, ip, r5, r6

000031ec <l3069>:
    31ec:	d024e252 	eorle	lr, r4, r2, asr r2

000031f0 <l3070>:
    31f0:	e038454c 	eors	r4, r8, ip, asr #10

000031f4 <l3071>:
    31f4:	41995006 	orrsmi	r5, r9, r6

000031f8 <l3072>:
    31f8:	e0040399 	mul	r4, r9, r3

000031fc <l3073>:
    31fc:	e015100a 	ands	r1, r5, sl

00003200 <l3074>:
    3200:	40c6e294 	smullmi	lr, r6, r4, r2

00003204 <l3075>:
    3204:	e03f906c 	eors	r9, pc, ip, rrx

00003208 <l3076>:
    3208:	209a719b 	umullscs	r7, sl, fp, r1

0000320c <l3077>:
    320c:	42f5ad22 	rscsmi	sl, r5, #2176	; 0x880

00003210 <l3078>:
    3210:	a0d4649a 	smullsge	r6, r4, sl, r4

00003214 <l3079>:
    3214:	e01703a5 	ands	r0, r7, r5, lsr #7

00003218 <l3080>:
    3218:	20235007 	eorcs	r5, r3, r7

0000321c <l3081>:
    321c:	739e201f 	orrsvc	r2, lr, #31

00003220 <l3082>:
    3220:	e0734060 	rsbs	r4, r3, r0, rrx

00003224 <l3083>:
    3224:	e1d44002 	bics	r4, r4, r2

00003228 <l3084>:
    3228:	123a9825 	eorsne	r9, sl, #2424832	; 0x250000

0000322c <l3085>:
    322c:	e0a4999b 	umlal	r9, r4, fp, r9

00003230 <l3086>:
    3230:	b0c3ab95 	smulllt	sl, r3, r5, fp

00003234 <l3087>:
    3234:	d1310003 	teqle	r1, r3

00003238 <l3088>:
    3238:	12560435 	subsne	r0, r6, #889192448	; 0x35000000

0000323c <l3089>:
    323c:	e047406b 	sub	r4, r7, fp, rrx

00003240 <l3090>:
    3240:	b01ca00b 	andslt	sl, ip, fp

00003244 <l3091>:
    3244:	e181331b 	orr	r3, r1, fp, lsl r3

00003248 <l3092>:
    3248:	e0020693 	mul	r2, r3, r6

0000324c <l3093>:
    324c:	409eb090 	umullsmi	fp, lr, r0, r0

00003250 <l3094>:
    3250:	9112021a 	tstls	r2, sl, lsl r2

00003254 <l3095>:
    3254:	2019099c 	mulscs	r9, ip, r9

00003258 <l3096>:
    3258:	437504bd 	cmnmi	r5, #-1124073472	; 0xbd000000

0000325c <l3097>:
    325c:	621a052a 	andsvs	r0, sl, #176160768	; 0xa800000

00003260 <l3098>:
    3260:	e034a19a 	mlas	r4, sl, r1, sl

00003264 <l3099>:
    3264:	80d61e95 	smullshi	r1, r6, r5, lr

00003268 <l3100>:
    3268:	d3e0e592 	mvnle	lr, #612368384	; 0x24800000

0000326c <l3101>:
    326c:	e21b8c9f 	ands	r8, fp, #40704	; 0x9f00

00003270 <l3102>:
    3270:	e0ea4697 	smlal	r4, sl, r7, r6

00003274 <l3103>:
    3274:	e16f9f10 	clz	r9, r0

00003278 <l3104>:
    3278:	e08be09a 	umull	lr, fp, sl, r0

0000327c <l3105>:
    327c:	32423807 	subcc	r3, r2, #458752	; 0x70000

00003280 <l3106>:
    3280:	e0242391 	mla	r4, r1, r3, r2

00003284 <l3107>:
    3284:	e0e75090 	smlal	r5, r7, r0, r0

00003288 <l3108>:
    3288:	50160000 	andspl	r0, r6, r0

0000328c <l3109>:
    328c:	e392411e 	orrs	r4, r2, #-2147483641	; 0x80000007

00003290 <l3110>:
    3290:	e1590700 	cmp	r9, r0, lsl #14

00003294 <l3111>:
    3294:	001c0395 	mulseq	ip, r5, r3

00003298 <l3112>:
    3298:	402ca005 	eormi	sl, ip, r5

0000329c <l3113>:
    329c:	e006900b 	and	r9, r6, fp

000032a0 <l3114>:
    32a0:	e1b0c008 	movs	ip, r8

000032a4 <l3115>:
    32a4:	10a96990 	umlalne	r6, r9, r0, r9

000032a8 <l3116>:
    32a8:	e1590a12 	cmp	r9, r2, lsl sl

000032ac <l3117>:
    32ac:	6193a063 	orrsvs	sl, r3, r3, rrx

000032b0 <l3118>:
    32b0:	50060591 	mulpl	r6, r1, r5

000032b4 <l3119>:
    32b4:	e0f29b97 	smlals	r9, r2, r7, fp

000032b8 <l3120>:
    32b8:	733c00cf 	teqvc	ip, #207	; 0xcf

000032bc <l3121>:
    32bc:	e1d54060 	bics	r4, r5, r0, rrx

000032c0 <l3122>:
    32c0:	e09ea896 	umulls	sl, lr, r6, r8

000032c4 <l3123>:
    32c4:	30662066 	rsbcc	r2, r6, r6, rrx

000032c8 <l3124>:
    32c8:	c0581003 	subsgt	r1, r8, r3

000032cc <l3125>:
    32cc:	6020ea47 	eorvs	lr, r0, r7, asr #20

000032d0 <l3126>:
    32d0:	e0cc200f 	sbc	r2, ip, pc

000032d4 <l3127>:
    32d4:	6053e001 	subsvs	lr, r3, r1

000032d8 <l3128>:
    32d8:	c29ecafa 	addsgt	ip, lr, #1024000	; 0xfa000

000032dc <l3129>:
    32dc:	11839063 	orrne	r9, r3, r3, rrx

000032e0 <l3130>:
    32e0:	70895998 	umullvc	r5, r9, r8, r9

000032e4 <l3131>:
    32e4:	70455c30 	subvc	r5, r5, r0, lsr ip

000032e8 <l3132>:
    32e8:	a20114a7 	andge	r1, r1, #-1493172224	; 0xa7000000

000032ec <l3133>:
    32ec:	e388b223 	orr	fp, r8, #805306370	; 0x30000002

000032f0 <l3134>:
    32f0:	924a691f 	subls	r6, sl, #507904	; 0x7c000

000032f4 <l3135>:
    32f4:	609ce89a 	umullsvs	lr, ip, sl, r8

000032f8 <l3136>:
    32f8:	e13a0335 	teq	sl, r5, lsr r3

000032fc <l3137>:
    32fc:	e0f04a96 	smlals	r4, r0, r6, sl

00003300 <l3138>:
    3300:	e1500000 	cmp	r0, r0

00003304 <l3139>:
    3304:	50e77009 	rscpl	r7, r7, r9

00003308 <l3140>:
    3308:	10273e1c 	eorne	r3, r7, ip, lsl lr

0000330c <l3141>:
    330c:	e18b2ee2 	orr	r2, fp, r2, ror #29

00003310 <l3142>:
    3310:	21560179 	cmpcs	r6, r9, ror r1

00003314 <l3143>:
    3314:	c0721068 	rsbsgt	r1, r2, r8, rrx

00003318 <l3144>:
    3318:	e3861c7e 	orr	r1, r6, #32256	; 0x7e00

0000331c <l3145>:
    331c:	40aa769b 	umlalmi	r7, sl, fp, r6

00003320 <l3146>:
    3320:	e08b6956 	add	r6, fp, r6, asr r9

00003324 <l3147>:
    3324:	301a0490 	mulscc	sl, r0, r4

00003328 <l3148>:
    3328:	a0050794 	mulge	r5, r4, r7

0000332c <l3149>:
    332c:	e0146fa1 	ands	r6, r4, r1, lsr #31

00003330 <l3150>:
    3330:	d1969d46 	orrsle	r9, r6, r6, asr #26

00003334 <l3151>:
    3334:	622c630b 	eorvs	r6, ip, #738197504	; 0x2c000000

00003338 <l3152>:
    3338:	e09a378e 	adds	r3, sl, lr, lsl #15

0000333c <l3153>:
    333c:	a0229b59 	eorge	r9, r2, r9, asr fp

00003340 <l3154>:
    3340:	e0329069 	eors	r9, r2, r9, rrx

00003344 <l3155>:
    3344:	b019cb1e 	andslt	ip, r9, lr, lsl fp

00003348 <l3156>:
    3348:	523a4606 	eorspl	r4, sl, #6291456	; 0x600000

0000334c <l3157>:
    334c:	500e1008 	andpl	r1, lr, r8

00003350 <l3158>:
    3350:	e0f1419c 	smlals	r4, r1, ip, r1

00003354 <l3159>:
    3354:	21700873 	cmncs	r0, r3, ror r8

00003358 <l3160>:
    3358:	00456068 	subeq	r6, r5, r8, rrx

0000335c <l3161>:
    335c:	e007a008 	and	sl, r7, r8

00003360 <l3162>:
    3360:	121cc18a 	andsne	ip, ip, #-2147483614	; 0x80000022

00003364 <l3163>:
    3364:	e017b236 	ands	fp, r7, r6, lsr r2

00003368 <l3164>:
    3368:	60b16454 	adcsvs	r6, r1, r4, asr r4

0000336c <l3165>:
    336c:	901233a0 	andsls	r3, r2, r0, lsr #7

00003370 <l3166>:
    3370:	229f001b 	addscs	r0, pc, #27

00003374 <l3167>:
    3374:	e193738f 	orrs	r7, r3, pc, lsl #7

00003378 <l3168>:
    3378:	41939066 	orrsmi	r9, r3, r6, rrx

0000337c <l3169>:
    337c:	e0efaae3 	rsc	sl, pc, r3, ror #21

00003380 <l3170>:
    3380:	e0cac533 	sbc	ip, sl, r3, lsr r5

00003384 <l3171>:
    3384:	7024400c 	eorvc	r4, r4, ip

00003388 <l3172>:
    3388:	e1921672 	orrs	r1, r2, r2, ror r6

0000338c <l3173>:
    338c:	83905942 	orrshi	r5, r0, #1081344	; 0x108000

00003390 <l3174>:
    3390:	10030891 	mulne	r3, r1, r8

00003394 <l3175>:
    3394:	e01b4005 	ands	r4, fp, r5

00003398 <l3176>:
    3398:	e1a0b470 	ror	fp, r0, r4

0000339c <l3177>:
    339c:	30094000 	andcc	r4, r9, r0

000033a0 <l3178>:
    33a0:	00f2500a 	rscseq	r5, r2, sl

000033a4 <l3179>:
    33a4:	e385cc32 	orr	ip, r5, #12800	; 0x3200

000033a8 <l3180>:
    33a8:	802ba793 	mlahi	fp, r3, r7, sl

000033ac <l3181>:
    33ac:	e0018067 	and	r8, r1, r7, rrx

000033b0 <l3182>:
    33b0:	71580731 	cmpvc	r8, r1, lsr r7

000033b4 <l3183>:
    33b4:	916f3f1e 	clzls	r3, lr

000033b8 <l3184>:
    33b8:	20230c4e 	eorcs	r0, r3, lr, asr #24

000033bc <l3185>:
    33bc:	e1a0096a 	ror	r0, sl, #18

000033c0 <l3186>:
    33c0:	e175022a 	cmn	r5, sl, lsr #4

000033c4 <l3187>:
    33c4:	e1b03000 	movs	r3, r0

000033c8 <l3188>:
    33c8:	b0344bea 	eorslt	r4, r4, sl, ror #23

000033cc <l3189>:
    33cc:	115f0e44 	cmpne	pc, r4, asr #28

000033d0 <l3190>:
    33d0:	20c9a698 	smullcs	sl, r9, r8, r6

000033d4 <l3191>:
    33d4:	b03fa005 	eorslt	sl, pc, r5

000033d8 <l3192>:
    33d8:	d023a594 	mlale	r3, r4, r5, sl

000033dc <l3193>:
    33dc:	e35106f9 	cmp	r1, #261095424	; 0xf900000

000033e0 <l3194>:
    33e0:	e20784f7 	and	r8, r7, #-150994944	; 0xf7000000

000033e4 <l3195>:
    33e4:	b0034aee 	andlt	r4, r3, lr, ror #21

000033e8 <l3196>:
    33e8:	70e60193 	smlalvc	r0, r6, r3, r1

000033ec <l3197>:
    33ec:	818070e0 	orrhi	r7, r0, r0, ror #1

000033f0 <l3198>:
    33f0:	20090598 	mulcs	r9, r8, r5

000033f4 <l3199>:
    33f4:	20c34b98 	smullcs	r4, r3, r8, fp

000033f8 <l3200>:
    33f8:	e0319090 	mlas	r1, r0, r0, r9

000033fc <l3201>:
    33fc:	802ca19e 	mlahi	ip, lr, r1, sl

00003400 <l3202>:
    3400:	c0e1b99a 	smlalgt	fp, r1, sl, r9

00003404 <l3203>:
    3404:	e0e18e90 	smlal	r8, r1, r0, lr

00003408 <l3204>:
    3408:	e1e0bc8b 	mvn	fp, fp, lsl #25

0000340c <l3205>:
    340c:	b1710003 	cmnlt	r1, r3

00003410 <l3206>:
    3410:	623f0952 	eorsvs	r0, pc, #1343488	; 0x148000

00003414 <l3207>:
    3414:	30132062 	andscc	r2, r3, r2, rrx

00003418 <l3208>:
    3418:	e11b000b 	tst	fp, fp

0000341c <l3209>:
    341c:	e2112709 	ands	r2, r1, #2359296	; 0x240000

00003420 <l3210>:
    3420:	e1f0b009 	mvns	fp, r9

00003424 <l3211>:
    3424:	e00593e5 	and	r9, r5, r5, ror #7

00003428 <l3212>:
    3428:	e0895193 	umull	r5, r9, r3, r1

0000342c <l3213>:
    342c:	e0c1ee31 	sbc	lr, r1, r1, lsr lr

00003430 <l3214>:
    3430:	6195700e 	orrsvs	r7, r5, lr

00003434 <l3215>:
    3434:	e1d984ac 	bics	r8, r9, ip, lsr #9

00003438 <l3216>:
    3438:	b3120ce6 	tstlt	r2, #58880	; 0xe600

0000343c <l3217>:
    343c:	a0d24998 	smullsge	r4, r2, r8, r9

00003440 <l3218>:
    3440:	e3a0ec37 	mov	lr, #14080	; 0x3700

00003444 <l3219>:
    3444:	7028ce90 	mlavc	r8, r0, lr, ip

00003448 <l3220>:
    3448:	e390e4eb 	orrs	lr, r0, #-352321536	; 0xeb000000

0000344c <l3221>:
    344c:	c3f05403 	mvnsgt	r5, #50331648	; 0x3000000

00003450 <l3222>:
    3450:	e0b80a96 	umlals	r0, r8, r6, sl

00003454 <l3223>:
    3454:	e026e993 	mla	r6, r3, r9, lr

00003458 <l3224>:
    3458:	e1848519 	orr	r8, r4, r9, lsl r5

0000345c <l3225>:
    345c:	e018373b 	ands	r3, r8, fp, lsr r7

00003460 <l3226>:
    3460:	008aec93 	umulleq	lr, sl, r3, ip

00003464 <l3227>:
    3464:	108a8191 	umullne	r8, sl, r1, r1

00003468 <l3228>:
    3468:	e09b4390 	umulls	r4, fp, r0, r3

0000346c <l3229>:
    346c:	c096b997 	umullsgt	fp, r6, r7, r9

00003470 <l3230>:
    3470:	d02a2194 	mlale	sl, r4, r1, r2

00003474 <l3231>:
    3474:	70cc986c 	sbcvc	r9, ip, ip, ror #16

00003478 <l3232>:
    3478:	e085e996 	umull	lr, r5, r6, r9

0000347c <l3233>:
    347c:	e049600f 	sub	r6, r9, pc

00003480 <l3234>:
    3480:	b0010094 	mullt	r1, r4, r0

00003484 <l3235>:
    3484:	40aeca96 	umlalmi	ip, lr, r6, sl

00003488 <l3236>:
    3488:	704c2066 	subvc	r2, ip, r6, rrx

0000348c <l3237>:
    348c:	03851503 	orreq	r1, r5, #12582912	; 0xc00000

00003490 <l3238>:
    3490:	e057e009 	subs	lr, r7, r9

00003494 <l3239>:
    3494:	e0e6e7ea 	rsc	lr, r6, sl, ror #15

00003498 <l3240>:
    3498:	e0de2a94 	smulls	r2, lr, r4, sl

0000349c <l3241>:
    349c:	5021c002 	eorpl	ip, r1, r2

000034a0 <l3242>:
    34a0:	4297e929 	addsmi	lr, r7, #671744	; 0xa4000

000034a4 <l3243>:
    34a4:	200e300c 	andcs	r3, lr, ip

000034a8 <l3244>:
    34a8:	833a036d 	teqhi	sl, #-1275068415	; 0xb4000001

000034ac <l3245>:
    34ac:	e023a698 	mla	r3, r8, r6, sl

000034b0 <l3246>:
    34b0:	b0b46a89 	adcslt	r6, r4, r9, lsl #21

000034b4 <l3247>:
    34b4:	11190f60 	tstne	r9, r0, ror #30

000034b8 <l3248>:
    34b8:	e0351573 	eors	r1, r5, r3, ror r5

000034bc <l3249>:
    34bc:	e13a066f 	teq	sl, pc, ror #12

000034c0 <l3250>:
    34c0:	e09a8895 	umulls	r8, sl, r5, r8

000034c4 <l3251>:
    34c4:	e1f0400b 	mvns	r4, fp

000034c8 <l3252>:
    34c8:	e16f9f1e 	clz	r9, lr

000034cc <l3253>:
    34cc:	e0428069 	sub	r8, r2, r9, rrx

000034d0 <l3254>:
    34d0:	e0e37226 	rsc	r7, r3, r6, lsr #4

000034d4 <l3255>:
    34d4:	40bab599 	umlalsmi	fp, sl, r9, r5

000034d8 <l3256>:
    34d8:	e0132068 	ands	r2, r3, r8, rrx

000034dc <l3257>:
    34dc:	a1906063 	orrsge	r6, r0, r3, rrx

000034e0 <l3258>:
    34e0:	e2220b3a 	eor	r0, r2, #59392	; 0xe800

000034e4 <l3259>:
    34e4:	e004200f 	and	r2, r4, pc

000034e8 <l3260>:
    34e8:	e0104b1e 	ands	r4, r0, lr, lsl fp

000034ec <l3261>:
    34ec:	7085bc9a 	umullvc	fp, r5, sl, ip

000034f0 <l3262>:
    34f0:	e0028004 	and	r8, r2, r4

000034f4 <l3263>:
    34f4:	a1c58063 	bicge	r8, r5, r3, rrx

000034f8 <l3264>:
    34f8:	e355050b 	cmp	r5, #46137344	; 0x2c00000

000034fc <l3265>:
    34fc:	d0160593 	mulsle	r6, r3, r5

00003500 <l3266>:
    3500:	b180e009 	orrlt	lr, r0, r9

00003504 <l3267>:
    3504:	e3c04593 	bic	r4, r0, #616562688	; 0x24c00000

00003508 <l3268>:
    3508:	70220991 	mlavc	r2, r1, r9, r0

0000350c <l3269>:
    350c:	a11907c7 	tstge	r9, r7, asr #15

00003510 <l3270>:
    3510:	c18a3c3e 	orrgt	r3, sl, lr, lsr ip

00003514 <l3271>:
    3514:	e3d679ce 	bics	r7, r6, #3375104	; 0x338000

00003518 <l3272>:
    3518:	90912095 	umullsls	r2, r1, r5, r0

0000351c <l3273>:
    351c:	e186e005 	orr	lr, r6, r5

00003520 <l3274>:
    3520:	00143e5c 	andseq	r3, r4, ip, asr lr

00003524 <l3275>:
    3524:	e0bb5494 	umlals	r5, fp, r4, r4

00003528 <l3276>:
    3528:	700e906e 	andvc	r9, lr, lr, rrx

0000352c <l3277>:
    352c:	e0c3300a 	sbc	r3, r3, sl

00003530 <l3278>:
    3530:	c01fe002 	andsgt	lr, pc, r2

00003534 <l3279>:
    3534:	e1790483 	cmn	r9, r3, lsl #9

00003538 <l3280>:
    3538:	01d0b273 	bicseq	fp, r0, r3, ror r2

0000353c <l3281>:
    353c:	e04a3710 	sub	r3, sl, r0, lsl r7

00003540 <l3282>:
    3540:	e0150a96 	muls	r5, r6, sl

00003544 <l3283>:
    3544:	e0898197 	umull	r8, r9, r7, r1

00003548 <l3284>:
    3548:	81f0e806 	mvnshi	lr, r6, lsl #16

0000354c <l3285>:
    354c:	00444a59 	subeq	r4, r4, r9, asr sl

00003550 <l3286>:
    3550:	e28c385a 	add	r3, ip, #5898240	; 0x5a0000

00003554 <l3287>:
    3554:	5054a06e 	subspl	sl, r4, lr, rrx

00003558 <l3288>:
    3558:	e1b0b007 	movs	fp, r7

0000355c <l3289>:
    355c:	70327e36 	eorsvc	r7, r2, r6, lsr lr

00003560 <l3290>:
    3560:	80a0c09b 	umlalhi	ip, r0, fp, r0

00003564 <l3291>:
    3564:	a00a0c98 	mulge	sl, r8, ip

00003568 <l3292>:
    3568:	e3110c72 	tst	r1, #29184	; 0x7200

0000356c <l3293>:
    356c:	e0846e9a 	umull	r6, r4, sl, lr

00003570 <l3294>:
    3570:	e234bd09 	eors	fp, r4, #576	; 0x240

00003574 <l3295>:
    3574:	e0d9c371 	sbcs	ip, r9, r1, ror r3

00003578 <l3296>:
    3578:	22c545c6 	sbccs	r4, r5, #830472192	; 0x31800000

0000357c <l3297>:
    357c:	9058700a 	subsls	r7, r8, sl

00003580 <l3298>:
    3580:	e0462008 	sub	r2, r6, r8

00003584 <l3299>:
    3584:	e2ca3019 	sbc	r3, sl, #25

00003588 <l3300>:
    3588:	e0180a99 	muls	r8, r9, sl

0000358c <l3301>:
    358c:	b194e00a 	orrslt	lr, r4, sl

00003590 <l3302>:
    3590:	e17e000a 	cmn	lr, sl

00003594 <l3303>:
    3594:	90321844 	eorsls	r1, r2, r4, asr #16

00003598 <l3304>:
    3598:	a0da070e 	sbcsge	r0, sl, lr, lsl #14

0000359c <l3305>:
    359c:	104e9006 	subne	r9, lr, r6

000035a0 <l3306>:
    35a0:	5000b669 	andpl	fp, r0, r9, ror #12

000035a4 <l3307>:
    35a4:	b031c050 	eorslt	ip, r1, r0, asr r0

000035a8 <l3308>:
    35a8:	e0e1409a 	smlal	r4, r1, sl, r0

000035ac <l3309>:
    35ac:	21d6b067 	bicscs	fp, r6, r7, rrx

000035b0 <l3310>:
    35b0:	80f6200c 	rscshi	r2, r6, ip

000035b4 <l3311>:
    35b4:	70e3a796 	smlalvc	sl, r3, r6, r7

000035b8 <l3312>:
    35b8:	e0172006 	ands	r2, r7, r6

000035bc <l3313>:
    35bc:	7234123a 	eorsvc	r1, r4, #-1610612733	; 0xa0000003

000035c0 <l3314>:
    35c0:	e0074003 	and	r4, r7, r3

000035c4 <l3315>:
    35c4:	306f6063 	rsbcc	r6, pc, r3, rrx

000035c8 <l3316>:
    35c8:	d0332080 	eorsle	r2, r3, r0, lsl #1

000035cc <l3317>:
    35cc:	40fec892 	smlalsmi	ip, lr, r2, r8

000035d0 <l3318>:
    35d0:	e16fcf19 	clz	ip, r9

000035d4 <l3319>:
    35d4:	61b03000 	movsvs	r3, r0

000035d8 <l3320>:
    35d8:	231c0671 	tstcs	ip, #118489088	; 0x7100000

000035dc <l3321>:
    35dc:	40b58004 	adcsmi	r8, r5, r4

000035e0 <l3322>:
    35e0:	e18f98a9 	orr	r9, pc, r9, lsr #17

000035e4 <l3323>:
    35e4:	e26ce6ce 	rsb	lr, ip, #216006656	; 0xce00000

000035e8 <l3324>:
    35e8:	e18c6663 	orr	r6, ip, r3, ror #12

000035ec <l3325>:
    35ec:	d0207a96 	mlale	r0, r6, sl, r7

000035f0 <l3326>:
    35f0:	50f63067 	rscspl	r3, r6, r7, rrx

000035f4 <l3327>:
    35f4:	a0fa7593 	smlalsge	r7, sl, r3, r5

000035f8 <l3328>:
    35f8:	e1966513 	orrs	r6, r6, r3, lsl r5

000035fc <l3329>:
    35fc:	b0183064 	andslt	r3, r8, r4, rrx

00003600 <l3330>:
    3600:	e3876d9b 	orr	r6, r7, #9920	; 0x26c0

00003604 <l3331>:
    3604:	c00c8000 	andgt	r8, ip, r0

00003608 <l3332>:
    3608:	41e04983 	mvnmi	r4, r3, lsl #19

0000360c <l3333>:
    360c:	616fcf18 	clzvs	ip, r8

00003610 <l3334>:
    3610:	902e7699 	mlals	lr, r9, r6, r7

00003614 <l3335>:
    3614:	e0d9e694 	smulls	lr, r9, r4, r6

00003618 <l3336>:
    3618:	e0a8c19a 	umlal	ip, r8, sl, r1

0000361c <l3337>:
    361c:	70e03196 	smlalvc	r3, r0, r6, r1

00003620 <l3338>:
    3620:	40bbb2ce 	adcsmi	fp, fp, lr, asr #5

00003624 <l3339>:
    3624:	a0f65298 	smlalsge	r5, r6, r8, r2

00003628 <l3340>:
    3628:	23c899ce 	biccs	r9, r8, #3375104	; 0x338000

0000362c <l3341>:
    362c:	c03fb246 	eorsgt	fp, pc, r6, asr #4

00003630 <l3342>:
    3630:	e0b3569e 	umlals	r5, r3, lr, r6

00003634 <l3343>:
    3634:	e16fbf1e 	clz	fp, lr

00003638 <l3344>:
    3638:	921036fa 	andsls	r3, r0, #262144000	; 0xfa00000

0000363c <l3345>:
    363c:	900430a0 	andls	r3, r4, r0, lsr #1

00003640 <l3346>:
    3640:	e33e0025 	teq	lr, #37	; 0x25

00003644 <l3347>:
    3644:	2083b990 	umullcs	fp, r3, r0, r9

00003648 <l3348>:
    3648:	50b82496 	umlalspl	r2, r8, r6, r4

0000364c <l3349>:
    364c:	e0130a97 	muls	r3, r7, sl

00003650 <l3350>:
    3650:	e0b38e9c 	umlals	r8, r3, ip, lr

00003654 <l3351>:
    3654:	22185b82 	andscs	r5, r8, #133120	; 0x20800

00003658 <l3352>:
    3658:	9380e285 	orrls	lr, r0, #1342177288	; 0x50000008

0000365c <l3353>:
    365c:	e16f7f1a 	clz	r7, sl

00003660 <l3354>:
    3660:	e05eb0af 	subs	fp, lr, pc, lsr #1

00003664 <l3355>:
    3664:	e2087319 	and	r7, r8, #1677721600	; 0x64000000

00003668 <l3356>:
    3668:	e387bec1 	orr	fp, r7, #3088	; 0xc10

0000366c <l3357>:
    366c:	01b09000 	movseq	r9, r0

00003670 <l3358>:
    3670:	c198c06e 	orrsgt	ip, r8, lr, rrx

00003674 <l3359>:
    3674:	a01e0b96 	mulsge	lr, r6, fp

00003678 <l3360>:
    3678:	e014000a 	ands	r0, r4, sl

0000367c <l3361>:
    367c:	e0a3159b 	umlal	r1, r3, fp, r5

00003680 <l3362>:
    3680:	e183c00c 	orr	ip, r3, ip

00003684 <l3363>:
    3684:	50f94693 	smlalspl	r4, r9, r3, r6

00003688 <l3364>:
    3688:	b0070690 	mullt	r7, r0, r6

0000368c <l3365>:
    368c:	42147c0d 	andsmi	r7, r4, #3328	; 0xd00

00003690 <l3366>:
    3690:	c026759e 	mlagt	r6, lr, r5, r7

00003694 <l3367>:
    3694:	301e0c9a 	mulscc	lr, sl, ip

00003698 <l3368>:
    3698:	e02f2eab 	eor	r2, pc, fp, lsr #29

0000369c <l3369>:
    369c:	92d242f3 	sbcsls	r4, r2, #805306383	; 0x3000000f

000036a0 <l3370>:
    36a0:	d2116572 	andsle	r6, r1, #478150656	; 0x1c800000

000036a4 <l3371>:
    36a4:	72418ba3 	subvc	r8, r1, #166912	; 0x28c00

000036a8 <l3372>:
    36a8:	016f5f13 	clzeq	r5, r3

000036ac <l3373>:
    36ac:	00110697 	mulseq	r1, r7, r6

000036b0 <l3374>:
    36b0:	b0a6a592 	umlallt	sl, r6, r2, r5

000036b4 <l3375>:
    36b4:	e277a20d 	rsbs	sl, r7, #-805306368	; 0xd0000000

000036b8 <l3376>:
    36b8:	9055c00c 	subsls	ip, r5, ip

000036bc <l3377>:
    36bc:	e0a36697 	umlal	r6, r3, r7, r6

000036c0 <l3378>:
    36c0:	e00a0b9c 	mul	sl, ip, fp

000036c4 <l3379>:
    36c4:	e0184005 	ands	r4, r8, r5

000036c8 <l3380>:
    36c8:	20e7a596 	smlalcs	sl, r7, r6, r5

000036cc <l3381>:
    36cc:	e19234ac 	orrs	r3, r2, ip, lsr #9

000036d0 <l3382>:
    36d0:	a0e1919b 	smlalge	r9, r1, fp, r1

000036d4 <l3383>:
    36d4:	40568e34 	subsmi	r8, r6, r4, lsr lr

000036d8 <l3384>:
    36d8:	b09a4493 	umullslt	r4, sl, r3, r4

000036dc <l3385>:
    36dc:	e0e3939a 	smlal	r9, r3, sl, r3

000036e0 <l3386>:
    36e0:	e0ae6191 	umlal	r6, lr, r1, r1

000036e4 <l3387>:
    36e4:	e2e8ad3e 	rsc	sl, r8, #3968	; 0xf80

000036e8 <l3388>:
    36e8:	3032ace1 	eorscc	sl, r2, r1, ror #25

000036ec <l3389>:
    36ec:	71908282 	orrsvc	r8, r0, r2, lsl #5

000036f0 <l3390>:
    36f0:	d23fb4bf 	eorsle	fp, pc, #-1090519040	; 0xbf000000

000036f4 <l3391>:
    36f4:	8027a006 	eorhi	sl, r7, r6

000036f8 <l3392>:
    36f8:	e21aa17e 	ands	sl, sl, #-2147483617	; 0x8000001f

000036fc <l3393>:
    36fc:	a072b069 	rsbsge	fp, r2, r9, rrx

00003700 <l3394>:
    3700:	e03e2036 	eors	r2, lr, r6, lsr r0

00003704 <l3395>:
    3704:	e3700707 	cmn	r0, #1835008	; 0x1c0000

00003708 <l3396>:
    3708:	9035543a 	eorsls	r5, r5, sl, lsr r4

0000370c <l3397>:
    370c:	b0110496 	mulslt	r1, r6, r4

00003710 <l3398>:
    3710:	d0ee8293 	smlalle	r8, lr, r3, r2

00003714 <l3399>:
    3714:	00a8b194 	umlaleq	fp, r8, r4, r1

00003718 <l3400>:
    3718:	e35f0372 	cmp	pc, #-939524095	; 0xc8000001

0000371c <l3401>:
    371c:	e08b6b07 	add	r6, fp, r7, lsl #22

00003720 <l3402>:
    3720:	90090898 	mulls	r9, r8, r8

00003724 <l3403>:
    3724:	5000069a 	mulpl	r0, sl, r6

00003728 <l3404>:
    3728:	1031c68f 	eorsne	ip, r1, pc, lsl #13

0000372c <l3405>:
    372c:	e0a2cb9a 	umlal	ip, r2, sl, fp

00003730 <l3406>:
    3730:	83180715 	tsthi	r8, #5505024	; 0x540000

00003734 <l3407>:
    3734:	e185a779 	orr	sl, r5, r9, ror r7

00003738 <l3408>:
    3738:	d22e9406 	eorle	r9, lr, #100663296	; 0x6000000

0000373c <l3409>:
    373c:	e04e806e 	sub	r8, lr, lr, rrx

00003740 <l3410>:
    3740:	e03cb002 	eors	fp, ip, r2

00003744 <l3411>:
    3744:	e0895b93 	umull	r5, r9, r3, fp

00003748 <l3412>:
    3748:	601e9009 	andsvs	r9, lr, r9

0000374c <l3413>:
    374c:	e0220808 	eor	r0, r2, r8, lsl #16

00003750 <l3414>:
    3750:	90836195 	umullls	r6, r3, r5, r1

00003754 <l3415>:
    3754:	d1130c3b 	tstle	r3, fp, lsr ip

00003758 <l3416>:
    3758:	e0987995 	umulls	r7, r8, r5, r9

0000375c <l3417>:
    375c:	e02ee455 	eor	lr, lr, r5, asr r4

00003760 <l3418>:
    3760:	e0d5e997 	smulls	lr, r5, r7, r9

00003764 <l3419>:
    3764:	40388061 	eorsmi	r8, r8, r1, rrx

00003768 <l3420>:
    3768:	70244692 	mlavc	r4, r2, r6, r4

0000376c <l3421>:
    376c:	e0d72691 	smulls	r2, r7, r1, r6

00003770 <l3422>:
    3770:	a0100a9b 	mulsge	r0, fp, sl

00003774 <l3423>:
    3774:	c1cc500b 	bicgt	r5, ip, fp

00003778 <l3424>:
    3778:	e1c1961c 	bic	r9, r1, ip, lsl r6

0000377c <l3425>:
    377c:	603e759c 	mlasvs	lr, ip, r5, r7

00003780 <l3426>:
    3780:	e03b26ef 	eors	r2, fp, pc, ror #13

00003784 <l3427>:
    3784:	20395c96 	mlascs	r9, r6, ip, r5

00003788 <l3428>:
    3788:	e2a555d2 	adc	r5, r5, #880803840	; 0x34800000

0000378c <l3429>:
    378c:	e0160063 	ands	r0, r6, r3, rrx

00003790 <l3430>:
    3790:	e0657e1c 	rsb	r7, r5, ip, lsl lr

00003794 <l3431>:
    3794:	10075171 	andne	r5, r7, r1, ror r1

00003798 <l3432>:
    3798:	d217b5bf 	andsle	fp, r7, #801112064	; 0x2fc00000

0000379c <l3433>:
    379c:	80030495 	mulhi	r3, r5, r4

000037a0 <l3434>:
    37a0:	e35403b5 	cmp	r4, #-738197502	; 0xd4000002

000037a4 <l3435>:
    37a4:	e2c98419 	sbc	r8, r9, #419430400	; 0x19000000

000037a8 <l3436>:
    37a8:	503e939b 	mlaspl	lr, fp, r3, r9

000037ac <l3437>:
    37ac:	e1150060 	tst	r5, r0, rrx

000037b0 <l3438>:
    37b0:	70aa603c 	adcvc	r6, sl, ip, lsr r0

000037b4 <l3439>:
    37b4:	e02a7673 	eor	r7, sl, r3, ror r6

000037b8 <l3440>:
    37b8:	e2c73be5 	sbc	r3, r7, #234496	; 0x39400

000037bc <l3441>:
    37bc:	40865091 	umullmi	r5, r6, r1, r0

000037c0 <l3442>:
    37c0:	838935ce 	orrhi	r3, r9, #864026624	; 0x33800000

000037c4 <l3443>:
    37c4:	e0b56e9a 	umlals	r6, r5, sl, lr

000037c8 <l3444>:
    37c8:	70b26a95 	umlalsvc	r6, r2, r5, sl

000037cc <l3445>:
    37cc:	22392e61 	eorscs	r2, r9, #1552	; 0x610

000037d0 <l3446>:
    37d0:	913e0062 	teqls	lr, r2, rrx

000037d4 <l3447>:
    37d4:	90947b9a 	umullsls	r7, r4, sl, fp

000037d8 <l3448>:
    37d8:	e019500e 	ands	r5, r9, lr

000037dc <l3449>:
    37dc:	e1913e0e 	orrs	r3, r1, lr, lsl #28

000037e0 <l3450>:
    37e0:	503fc00e 	eorspl	ip, pc, lr

000037e4 <l3451>:
    37e4:	41803a21 	orrmi	r3, r0, r1, lsr #20

000037e8 <l3452>:
    37e8:	e0998005 	adds	r8, r9, r5

000037ec <l3453>:
    37ec:	40b0999b 	umlalsmi	r9, r0, fp, r9

000037f0 <l3454>:
    37f0:	c20c705c 	andgt	r7, ip, #92	; 0x5c

000037f4 <l3455>:
    37f4:	a0095063 	andge	r5, r9, r3, rrx

000037f8 <l3456>:
    37f8:	d1740009 	cmnle	r4, r9

000037fc <l3457>:
    37fc:	000982a0 	andeq	r8, r9, r0, lsr #5

00003800 <l3458>:
    3800:	e1812c77 	orr	r2, r1, r7, ror ip

00003804 <l3459>:
    3804:	004c9457 	subeq	r9, ip, r7, asr r4

00003808 <l3460>:
    3808:	803bb799 	mlashi	fp, r9, r7, fp

0000380c <l3461>:
    380c:	102cc091 	mlane	ip, r1, r0, ip

00003810 <l3462>:
    3810:	e0f4779b 	smlals	r7, r4, fp, r7

00003814 <l3463>:
    3814:	e2afea89 	adc	lr, pc, #561152	; 0x89000

00003818 <l3464>:
    3818:	e1cac00c 	bic	ip, sl, ip

0000381c <l3465>:
    381c:	1352038f 	cmpne	r2, #1006632962	; 0x3c000002

00003820 <l3466>:
    3820:	50f14999 	smlalspl	r4, r1, r9, r9

00003824 <l3467>:
    3824:	813a0682 	teqhi	sl, r2, lsl #13

00003828 <l3468>:
    3828:	2026a291 	mlacs	r6, r1, r2, sl

0000382c <l3469>:
    382c:	e0207b33 	eor	r7, r0, r3, lsr fp

00003830 <l3470>:
    3830:	6013059a 	mulsvs	r3, sl, r5

00003834 <l3471>:
    3834:	119a3875 	orrsne	r3, sl, r5, ror r8

00003838 <l3472>:
    3838:	e0447b86 	sub	r7, r4, r6, lsl #23

0000383c <l3473>:
    383c:	e0d93094 	smulls	r3, r9, r4, r0

00003840 <l3474>:
    3840:	e0366b9a 	mlas	r6, sl, fp, r6

00003844 <l3475>:
    3844:	e0e37290 	smlal	r7, r3, r0, r2

00003848 <l3476>:
    3848:	e22c5d4a 	eor	r5, ip, #4736	; 0x1280

0000384c <l3477>:
    384c:	d0c3b49e 	smullle	fp, r3, lr, r4

00003850 <l3478>:
    3850:	e0eea06c 	rsc	sl, lr, ip, rrx

00003854 <l3479>:
    3854:	2233172a 	eorscs	r1, r3, #11010048	; 0xa80000

00003858 <l3480>:
    3858:	e0d10692 	smulls	r0, r1, r2, r6

0000385c <l3481>:
    385c:	e09a8795 	umulls	r8, sl, r5, r7

00003860 <l3482>:
    3860:	e38307df 	orr	r0, r3, #58458112	; 0x37c0000

00003864 <l3483>:
    3864:	c3e04031 	mvngt	r4, #49	; 0x31

00003868 <l3484>:
    3868:	5258653f 	subspl	r6, r8, #264241152	; 0xfc00000

0000386c <l3485>:
    386c:	e020be97 	mla	r0, r7, lr, fp

00003870 <l3486>:
    3870:	b0ca7000 	sbclt	r7, sl, r0

00003874 <l3487>:
    3874:	e1b0c008 	movs	ip, r8

00003878 <l3488>:
    3878:	c1a00005 	movgt	r0, r5

0000387c <l3489>:
    387c:	309c989a 	umullscc	r9, ip, sl, r8

00003880 <l3490>:
    3880:	e08c0b97 	umull	r0, ip, r7, fp

00003884 <l3491>:
    3884:	001e0299 	mulseq	lr, r9, r2

00003888 <l3492>:
    3888:	60213b07 	eorvs	r3, r1, r7, lsl #22

0000388c <l3493>:
    388c:	e3c3a70e 	bic	sl, r3, #3670016	; 0x380000

00003890 <l3494>:
    3890:	40249892 	mlami	r4, r2, r8, r9

00003894 <l3495>:
    3894:	90fab691 	smlalsls	fp, sl, r1, r6

00003898 <l3496>:
    3898:	e023ed28 	eor	lr, r3, r8, lsr #26

0000389c <l3497>:
    389c:	70244074 	eorvc	r4, r4, r4, ror r0

000038a0 <l3498>:
    38a0:	4012b8e9 	andsmi	fp, r2, r9, ror #17

000038a4 <l3499>:
    38a4:	71760009 	cmnvc	r6, r9

000038a8 <l3500>:
    38a8:	a1f0906e 	mvnsge	r9, lr, rrx

000038ac <l3501>:
    38ac:	20faba93 	smlalscs	fp, sl, r3, sl

000038b0 <l3502>:
    38b0:	e0219998 	mla	r1, r8, r9, r9

000038b4 <l3503>:
    38b4:	41310004 	teqmi	r1, r4

000038b8 <l3504>:
    38b8:	20ca589e 	smullcs	r5, sl, lr, r8

000038bc <l3505>:
    38bc:	50d9409e 	smullspl	r4, r9, lr, r0

000038c0 <l3506>:
    38c0:	e08a5e98 	umull	r5, sl, r8, lr

000038c4 <l3507>:
    38c4:	d0b6119e 	umlalsle	r1, r6, lr, r1

000038c8 <l3508>:
    38c8:	e0d21799 	smulls	r1, r2, r9, r7

000038cc <l3509>:
    38cc:	b18e781c 	orrlt	r7, lr, ip, lsl r8

000038d0 <l3510>:
    38d0:	e026700a 	eor	r7, r6, sl

000038d4 <l3511>:
    38d4:	10062004 	andne	r2, r6, r4

000038d8 <l3512>:
    38d8:	e2e84909 	rsc	r4, r8, #147456	; 0x24000

000038dc <l3513>:
    38dc:	32d35068 	sbcscc	r5, r3, #104	; 0x68

000038e0 <l3514>:
    38e0:	60b10a9b 	umlalsvs	r0, r1, fp, sl

000038e4 <l3515>:
    38e4:	d131063a 	teqle	r1, sl, lsr r6

000038e8 <l3516>:
    38e8:	e03a8008 	eors	r8, sl, r8

000038ec <l3517>:
    38ec:	b085b499 	umulllt	fp, r5, r9, r4

000038f0 <l3518>:
    38f0:	916f6f1c 	clzls	r6, ip

000038f4 <l3519>:
    38f4:	6006b24f 	andvs	fp, r6, pc, asr #4

000038f8 <l3520>:
    38f8:	e0f91298 	smlals	r1, r9, r8, r2

000038fc <l3521>:
    38fc:	a093bba2 	addsge	fp, r3, r2, lsr #23

00003900 <l3522>:
    3900:	e0a9a00e 	adc	sl, r9, lr

00003904 <l3523>:
    3904:	21b04008 	movscs	r4, r8

00003908 <l3524>:
    3908:	53ce660e 	bicpl	r6, lr, #14680064	; 0xe00000

0000390c <l3525>:
    390c:	e24e8b89 	sub	r8, lr, #140288	; 0x22400

00003910 <l3526>:
    3910:	e017600c 	ands	r6, r7, ip

00003914 <l3527>:
    3914:	80116237 	andshi	r6, r1, r7, lsr r2

00003918 <l3528>:
    3918:	e13e0730 	teq	lr, r0, lsr r7

0000391c <l3529>:
    391c:	5010019b 	mulspl	r0, fp, r1

00003920 <l3530>:
    3920:	60ee7098 	smlalvs	r7, lr, r8, r0

00003924 <l3531>:
    3924:	e071900c 	rsbs	r9, r1, ip

00003928 <l3532>:
    3928:	e0009388 	and	r9, r0, r8, lsl #7

0000392c <l3533>:
    392c:	e1d38661 	bics	r8, r3, r1, ror #12

00003930 <l3534>:
    3930:	e1a0b068 	rrx	fp, r8

00003934 <l3535>:
    3934:	e0a69695 	umlal	r9, r6, r5, r6

00003938 <l3536>:
    3938:	30874007 	addcc	r4, r7, r7

0000393c <l3537>:
    393c:	70eca19b 	smlalvc	sl, ip, fp, r1

00003940 <l3538>:
    3940:	2058e00b 	subscs	lr, r8, fp

00003944 <l3539>:
    3944:	e0e4c391 	smlal	ip, r4, r1, r3

00003948 <l3540>:
    3948:	10d6e890 	smullsne	lr, r6, r0, r8

0000394c <l3541>:
    394c:	e0129002 	ands	r9, r2, r2

00003950 <l3542>:
    3950:	b0ce3296 	smulllt	r3, lr, r6, r2

00003954 <l3543>:
    3954:	e092769e 	umulls	r7, r2, lr, r6

00003958 <l3544>:
    3958:	e0943095 	umulls	r3, r4, r5, r0

0000395c <l3545>:
    395c:	2082e995 	umullcs	lr, r2, r5, r9

00003960 <l3546>:
    3960:	2095e59c 	umullscs	lr, r5, ip, r5

00003964 <l3547>:
    3964:	c03b0097 	mlasgt	fp, r7, r0, r0

00003968 <l3548>:
    3968:	60b26a95 	umlalsvs	r6, r2, r5, sl

0000396c <l3549>:
    396c:	e16f1f10 	clz	r1, r0

00003970 <l3550>:
    3970:	61e09005 	mvnvs	r9, r5

00003974 <l3551>:
    3974:	e0a79a92 	umlal	r9, r7, r2, sl

00003978 <l3552>:
    3978:	e0ebc597 	smlal	ip, fp, r7, r5

0000397c <l3553>:
    397c:	d00a0c9e 	mulle	sl, lr, ip

00003980 <l3554>:
    3980:	30b0809e 	umlalscc	r8, r0, lr, r0

00003984 <l3555>:
    3984:	00fa2c90 	smlalseq	r2, sl, r0, ip

00003988 <l3556>:
    3988:	e0cae074 	sbc	lr, sl, r4, ror r0

0000398c <l3557>:
    398c:	e0e8cb97 	smlal	ip, r8, r7, fp

00003990 <l3558>:
    3990:	e35003b2 	cmp	r0, #-939524094	; 0xc8000002

00003994 <l3559>:
    3994:	e0244063 	eor	r4, r4, r3, rrx

00003998 <l3560>:
    3998:	70265b91 	mlavc	r6, r1, fp, r5

0000399c <l3561>:
    399c:	e0a12068 	adc	r2, r1, r8, rrx

000039a0 <l3562>:
    39a0:	e098385a 	adds	r3, r8, sl, asr r8

000039a4 <l3563>:
    39a4:	10c95057 	sbcne	r5, r9, r7, asr r0

000039a8 <l3564>:
    39a8:	e1814007 	orr	r4, r1, r7

000039ac <l3565>:
    39ac:	e0d2919e 	smulls	r9, r2, lr, r1

000039b0 <l3566>:
    39b0:	e0dc379b 	smulls	r3, ip, fp, r7

000039b4 <l3567>:
    39b4:	b0070990 	mullt	r7, r0, r9

000039b8 <l3568>:
    39b8:	616f2f11 	clzvs	r2, r1

000039bc <l3569>:
    39bc:	e0bcbe92 	umlals	fp, ip, r2, lr

000039c0 <l3570>:
    39c0:	60f1500e 	rscsvs	r5, r1, lr

000039c4 <l3571>:
    39c4:	60be1799 	umlalsvs	r1, lr, r9, r7

000039c8 <l3572>:
    39c8:	e3b09f8e 	movs	r9, #568	; 0x238

000039cc <l3573>:
    39cc:	800c0a92 	mulhi	ip, r2, sl

000039d0 <l3574>:
    39d0:	e137000b 	teq	r7, fp

000039d4 <l3575>:
    39d4:	6034b655 	eorsvs	fp, r4, r5, asr r6

000039d8 <l3576>:
    39d8:	7033cd68 	eorsvc	ip, r3, r8, ror #26

000039dc <l3577>:
    39dc:	315c0a71 	cmpcc	ip, r1, ror sl

000039e0 <l3578>:
    39e0:	e00f2f60 	and	r2, pc, r0, ror #30

000039e4 <l3579>:
    39e4:	3231718a 	eorscc	r7, r1, #-2147483614	; 0x80000022

000039e8 <l3580>:
    39e8:	c059c007 	subsgt	ip, r9, r7

000039ec <l3581>:
    39ec:	e2e3a30b 	rsc	sl, r3, #738197504	; 0x2c000000

000039f0 <l3582>:
    39f0:	30d28a9a 	smullscc	r8, r2, sl, sl

000039f4 <l3583>:
    39f4:	9054900a 	subsls	r9, r4, sl

000039f8 <l3584>:
    39f8:	b02a6153 	eorlt	r6, sl, r3, asr r1

000039fc <l3585>:
    39fc:	70e95296 	smlalvc	r5, r9, r6, r2

00003a00 <l3586>:
    3a00:	41c80009 	bicmi	r0, r8, r9

00003a04 <l3587>:
    3a04:	e18f106f 	orr	r1, pc, pc, rrx

00003a08 <l3588>:
    3a08:	20f2b293 	smlalscs	fp, r2, r3, r2

00003a0c <l3589>:
    3a0c:	e1a0c004 	mov	ip, r4

00003a10 <l3590>:
    3a10:	111303cb 	tstne	r3, fp, asr #7

00003a14 <l3591>:
    3a14:	10940e36 	addsne	r0, r4, r6, lsr lr

00003a18 <l3592>:
    3a18:	c20f9d6e 	andgt	r9, pc, #7040	; 0x1b80

00003a1c <l3593>:
    3a1c:	719a8060 	orrsvc	r8, sl, r0, rrx

00003a20 <l3594>:
    3a20:	e092b597 	umulls	fp, r2, r7, r5

00003a24 <l3595>:
    3a24:	c0326008 	eorsgt	r6, r2, r8

00003a28 <l3596>:
    3a28:	50c22078 	sbcpl	r2, r2, r8, ror r0

00003a2c <l3597>:
    3a2c:	d3180583 	tstle	r8, #549453824	; 0x20c00000

00003a30 <l3598>:
    3a30:	a21354a1 	andsge	r5, r3, #-1593835520	; 0xa1000000

00003a34 <l3599>:
    3a34:	a0c09695 	smullge	r9, r0, r5, r6

00003a38 <l3600>:
    3a38:	e24f2736 	sub	r2, pc, #14155776	; 0xd80000

00003a3c <l3601>:
    3a3c:	e0c1511c 	sbc	r5, r1, ip, lsl r1

00003a40 <l3602>:
    3a40:	b0f09396 	smlalslt	r9, r0, r6, r3

00003a44 <l3603>:
    3a44:	121a5811 	andsne	r5, sl, #1114112	; 0x110000

00003a48 <l3604>:
    3a48:	837c04f6 	cmnhi	ip, #-167772160	; 0xf6000000

00003a4c <l3605>:
    3a4c:	e21f221e 	ands	r2, pc, #-536870911	; 0xe0000001

00003a50 <l3606>:
    3a50:	c3981915 	orrsgt	r1, r8, #344064	; 0x54000

00003a54 <l3607>:
    3a54:	8253a166 	subshi	sl, r3, #-2147483623	; 0x80000019

00003a58 <l3608>:
    3a58:	c0170003 	andsgt	r0, r7, r3

00003a5c <l3609>:
    3a5c:	e231695a 	eors	r6, r1, #1474560	; 0x168000

00003a60 <l3610>:
    3a60:	e1857001 	orr	r7, r5, r1

00003a64 <l3611>:
    3a64:	40d1ce99 	smullsmi	ip, r1, r9, lr

00003a68 <l3612>:
    3a68:	10c0399c 	smullne	r3, r0, ip, r9

00003a6c <l3613>:
    3a6c:	201b8339 	andscs	r8, fp, r9, lsr r3

00003a70 <l3614>:
    3a70:	5223a992 	eorpl	sl, r3, #2392064	; 0x248000

00003a74 <l3615>:
    3a74:	d016ce58 	andsle	ip, r6, r8, asr lr

00003a78 <l3616>:
    3a78:	10924a97 	umullsne	r4, r2, r7, sl

00003a7c <l3617>:
    3a7c:	e0050e97 	mul	r5, r7, lr

00003a80 <l3618>:
    3a80:	619536e7 	orrsvs	r3, r5, r7, ror #13

00003a84 <l3619>:
    3a84:	e223702d 	eor	r7, r3, #45	; 0x2d

00003a88 <l3620>:
    3a88:	c22bed3d 	eorgt	lr, fp, #3904	; 0xf40

00003a8c <l3621>:
    3a8c:	e0902a9c 	umulls	r2, r0, ip, sl

00003a90 <l3622>:
    3a90:	d0110c93 	mulsle	r1, r3, ip

00003a94 <l3623>:
    3a94:	32647502 	rsbcc	r7, r4, #8388608	; 0x800000

00003a98 <l3624>:
    3a98:	b01f8005 	andslt	r8, pc, r5

00003a9c <l3625>:
    3a9c:	d24e4129 	suble	r4, lr, #1073741834	; 0x4000000a

00003aa0 <l3626>:
    3aa0:	e0ee3592 	smlal	r3, lr, r2, r5

00003aa4 <l3627>:
    3aa4:	21835571 	orrcs	r5, r3, r1, ror r5

00003aa8 <l3628>:
    3aa8:	20f5e19c 	smlalscs	lr, r5, ip, r1

00003aac <l3629>:
    3aac:	40070395 	mulmi	r7, r5, r3

00003ab0 <l3630>:
    3ab0:	a220e024 	eorge	lr, r0, #36	; 0x24

00003ab4 <l3631>:
    3ab4:	e02ee079 	eor	lr, lr, r9, ror r0

00003ab8 <l3632>:
    3ab8:	01d022a3 	bicseq	r2, r0, r3, lsr #5

00003abc <l3633>:
    3abc:	40ca8a96 	smullmi	r8, sl, r6, sl

00003ac0 <l3634>:
    3ac0:	e1859a10 	orr	r9, r5, r0, lsl sl

00003ac4 <l3635>:
    3ac4:	e19b8062 	orrs	r8, fp, r2, rrx

00003ac8 <l3636>:
    3ac8:	404c815b 	submi	r8, ip, fp, asr r1

00003acc <l3637>:
    3acc:	a0158060 	andsge	r8, r5, r0, rrx

00003ad0 <l3638>:
    3ad0:	e2330106 	eors	r0, r3, #-2147483647	; 0x80000001

00003ad4 <l3639>:
    3ad4:	e0f48004 	rscs	r8, r4, r4

00003ad8 <l3640>:
    3ad8:	e196a429 	orrs	sl, r6, r9, lsr #8

00003adc <l3641>:
    3adc:	e01c0698 	muls	ip, r8, r6

00003ae0 <l3642>:
    3ae0:	e1978b37 	orrs	r8, r7, r7, lsr fp

00003ae4 <l3643>:
    3ae4:	003e9794 	mlaseq	lr, r4, r7, r9

00003ae8 <l3644>:
    3ae8:	8194406f 	orrshi	r4, r4, pc, rrx

00003aec <l3645>:
    3aec:	80a7a89e 	umlalhi	sl, r7, lr, r8

00003af0 <l3646>:
    3af0:	90160592 	mulsls	r6, r2, r5

00003af4 <l3647>:
    3af4:	e1390007 	teq	r9, r7

00003af8 <l3648>:
    3af8:	e0c2b695 	smull	fp, r2, r5, r6

00003afc <l3649>:
    3afc:	c0177067 	andsgt	r7, r7, r7, rrx

00003b00 <l3650>:
    3b00:	e1560005 	cmp	r6, r5

00003b04 <l3651>:
    3b04:	b16f7f1a 	clzlt	r7, sl

00003b08 <l3652>:
    3b08:	11c49e6c 	bicne	r9, r4, ip, ror #28

00003b0c <l3653>:
    3b0c:	31e00712 	mvncc	r0, r2, lsl r7

00003b10 <l3654>:
    3b10:	e131008a 	teq	r1, sl, lsl #1

00003b14 <l3655>:
    3b14:	b33e0fd3 	teqlt	lr, #844	; 0x34c

00003b18 <l3656>:
    3b18:	e0c68e94 	smull	r8, r6, r4, lr

00003b1c <l3657>:
    3b1c:	e070000c 	rsbs	r0, r0, ip

00003b20 <l3658>:
    3b20:	6226e207 	eorvs	lr, r6, #1879048192	; 0x70000000

00003b24 <l3659>:
    3b24:	403ca06a 	eorsmi	sl, ip, sl, rrx

00003b28 <l3660>:
    3b28:	e00a0a91 	mul	sl, r1, sl

00003b2c <l3661>:
    3b2c:	c3d643eb 	bicsgt	r4, r6, #-1409286141	; 0xac000003

00003b30 <l3662>:
    3b30:	a0b92003 	adcsge	r2, r9, r3

00003b34 <l3663>:
    3b34:	b028906e 	eorlt	r9, r8, lr, rrx

00003b38 <l3664>:
    3b38:	92875307 	addls	r5, r7, #469762048	; 0x1c000000

00003b3c <l3665>:
    3b3c:	908b0008 	addls	r0, fp, r8

00003b40 <l3666>:
    3b40:	6099209a 	umullsvs	r2, r9, sl, r0

00003b44 <l3667>:
    3b44:	e152035b 	cmp	r2, fp, asr r3

00003b48 <l3668>:
    3b48:	60140198 	mulsvs	r4, r8, r1

00003b4c <l3669>:
    3b4c:	0214460a 	andseq	r4, r4, #10485760	; 0xa00000

00003b50 <l3670>:
    3b50:	90db1000 	sbcsls	r1, fp, r0

00003b54 <l3671>:
    3b54:	e26b2703 	rsb	r2, fp, #786432	; 0xc0000

00003b58 <l3672>:
    3b58:	d0fa7433 	rscsle	r7, sl, r3, lsr r4

00003b5c <l3673>:
    3b5c:	c3320921 	teqgt	r2, #540672	; 0x84000

00003b60 <l3674>:
    3b60:	701f2de7 	andsvc	r2, pc, r7, ror #27

00003b64 <l3675>:
    3b64:	60140c93 	mulsvs	r4, r3, ip

00003b68 <l3676>:
    3b68:	50a54319 	adcpl	r4, r5, r9, lsl r3

00003b6c <l3677>:
    3b6c:	10869091 	umullne	r9, r6, r1, r0

00003b70 <l3678>:
    3b70:	90aa539c 	umlalls	r5, sl, ip, r3

00003b74 <l3679>:
    3b74:	e0f6ab9e 	smlals	sl, r6, lr, fp

00003b78 <l3680>:
    3b78:	e0860a98 	umull	r0, r6, r8, sl

00003b7c <l3681>:
    3b7c:	b01162ec 	andslt	r6, r1, ip, ror #5

00003b80 <l3682>:
    3b80:	d1190fc0 	tstle	r9, r0, asr #31

00003b84 <l3683>:
    3b84:	e23927ef 	eors	r2, r9, #62652416	; 0x3bc0000

00003b88 <l3684>:
    3b88:	719c7750 	orrsvc	r7, ip, r0, asr r7

00003b8c <l3685>:
    3b8c:	e02b1119 	eor	r1, fp, r9, lsl r1

00003b90 <l3686>:
    3b90:	802b779e 	mlahi	fp, lr, r7, r7

00003b94 <l3687>:
    3b94:	e1966543 	orrs	r6, r6, r3, asr #10

00003b98 <l3688>:
    3b98:	e2321835 	eors	r1, r2, #3473408	; 0x350000

00003b9c <l3689>:
    3b9c:	e38b0e37 	orr	r0, fp, #880	; 0x370

00003ba0 <l3690>:
    3ba0:	70da0896 	smullsvc	r0, sl, r6, r8

00003ba4 <l3691>:
    3ba4:	417a06c8 	cmnmi	sl, r8, asr #13

00003ba8 <l3692>:
    3ba8:	e0130c90 	muls	r3, r0, ip

00003bac <l3693>:
    3bac:	50122246 	andspl	r2, r2, r6, asr #4

00003bb0 <l3694>:
    3bb0:	41d7500c 	bicsmi	r5, r7, ip

00003bb4 <l3695>:
    3bb4:	e0d1319a 	smulls	r3, r1, sl, r1

00003bb8 <l3696>:
    3bb8:	e2dbe492 	sbcs	lr, fp, #-1845493760	; 0x92000000

00003bbc <l3697>:
    3bbc:	70010c94 	mulvc	r1, r4, ip

00003bc0 <l3698>:
    3bc0:	11170000 	tstne	r7, r0

00003bc4 <l3699>:
    3bc4:	71894551 	orrvc	r4, r9, r1, asr r5

00003bc8 <l3700>:
    3bc8:	e0d84392 	smulls	r4, r8, r2, r3

00003bcc <l3701>:
    3bcc:	e191200f 	orrs	r2, r1, pc

00003bd0 <l3702>:
    3bd0:	d030cde8 	eorsle	ip, r0, r8, ror #27

00003bd4 <l3703>:
    3bd4:	e0f3e09a 	smlals	lr, r3, sl, r0

00003bd8 <l3704>:
    3bd8:	e37f0aff 	cmn	pc, #1044480	; 0xff000

00003bdc <l3705>:
    3bdc:	b15b096a 	cmplt	fp, sl, ror #18

00003be0 <l3706>:
    3be0:	e1360001 	teq	r6, r1

00003be4 <l3707>:
    3be4:	d0cc7996 	smullle	r7, ip, r6, r9

00003be8 <l3708>:
    3be8:	b17e0dec 	cmnlt	lr, ip, ror #27

00003bec <l3709>:
    3bec:	c0d93732 	sbcsgt	r3, r9, r2, lsr r7

00003bf0 <l3710>:
    3bf0:	60980499 	umullsvs	r0, r8, r9, r4

00003bf4 <l3711>:
    3bf4:	e0200c92 	mla	r0, r2, ip, r0

00003bf8 <l3712>:
    3bf8:	e04485e2 	sub	r8, r4, r2, ror #11

00003bfc <l3713>:
    3bfc:	e0344696 	mlas	r4, r6, r6, r4

00003c00 <l3714>:
    3c00:	e0150b92 	muls	r5, r2, fp

00003c04 <l3715>:
    3c04:	30854990 	umullcc	r4, r5, r0, r9

00003c08 <l3716>:
    3c08:	91350003 	teqls	r5, r3

00003c0c <l3717>:
    3c0c:	8078c060 	rsbshi	ip, r8, r0, rrx

00003c10 <l3718>:
    3c10:	e2c58146 	sbc	r8, r5, #-2147483631	; 0x80000011

00003c14 <l3719>:
    3c14:	e0fe9694 	smlals	r9, lr, r4, r6

00003c18 <l3720>:
    3c18:	7089e694 	umullvc	lr, r9, r4, r6

00003c1c <l3721>:
    3c1c:	e0697353 	rsb	r7, r9, r3, asr r3

00003c20 <l3722>:
    3c20:	b0e37061 	rsclt	r7, r3, r1, rrx

00003c24 <l3723>:
    3c24:	e03a2092 	mlas	sl, r2, r0, r2

00003c28 <l3724>:
    3c28:	d1999476 	orrsle	r9, r9, r6, ror r4

00003c2c <l3725>:
    3c2c:	3005a003 	andcc	sl, r5, r3

00003c30 <l3726>:
    3c30:	e19c2679 	orrs	r2, ip, r9, ror r6

00003c34 <l3727>:
    3c34:	a0c94003 	sbcge	r4, r9, r3

00003c38 <l3728>:
    3c38:	e18a3002 	orr	r3, sl, r2

00003c3c <l3729>:
    3c3c:	6035729c 	mlasvs	r5, ip, r2, r7

00003c40 <l3730>:
    3c40:	00eb069e 	smlaleq	r0, fp, lr, r6

00003c44 <l3731>:
    3c44:	82054595 	andhi	r4, r5, #624951296	; 0x25400000

00003c48 <l3732>:
    3c48:	c1190c39 	tstgt	r9, r9, lsr ip

00003c4c <l3733>:
    3c4c:	e1300381 	teq	r0, r1, lsl #7

00003c50 <l3734>:
    3c50:	83390e29 	teqhi	r9, #656	; 0x290

00003c54 <l3735>:
    3c54:	e13a0856 	teq	sl, r6, asr r8

00003c58 <l3736>:
    3c58:	80db2819 	sbcshi	r2, fp, r9, lsl r8

00003c5c <l3737>:
    3c5c:	e2981ef2 	adds	r1, r8, #3872	; 0xf20

00003c60 <l3738>:
    3c60:	0020ac98 	mlaeq	r0, r8, ip, sl

00003c64 <l3739>:
    3c64:	71e0c0e0 	mvnvc	ip, r0, ror #1

00003c68 <l3740>:
    3c68:	30581004 	subscc	r1, r8, r4

00003c6c <l3741>:
    3c6c:	e094a09c 	umulls	sl, r4, ip, r0

00003c70 <l3742>:
    3c70:	a02a541e 	eorge	r5, sl, lr, lsl r4

00003c74 <l3743>:
    3c74:	e18e0577 	orr	r0, lr, r7, ror r5

00003c78 <l3744>:
    3c78:	e03e06ee 	eors	r0, lr, lr, ror #13

00003c7c <l3745>:
    3c7c:	e0cbc296 	smull	ip, fp, r6, r2

00003c80 <l3746>:
    3c80:	b18633a4 	orrlt	r3, r6, r4, lsr #7

00003c84 <l3747>:
    3c84:	e022506c 	eor	r5, r2, ip, rrx

00003c88 <l3748>:
    3c88:	e22fe933 	eor	lr, pc, #835584	; 0xcc000

00003c8c <l3749>:
    3c8c:	e1d43858 	bics	r3, r4, r8, asr r8

00003c90 <l3750>:
    3c90:	e0b73c9e 	umlals	r3, r7, lr, ip

00003c94 <l3751>:
    3c94:	919e706a 	orrsls	r7, lr, sl, rrx

00003c98 <l3752>:
    3c98:	20191001 	andscs	r1, r9, r1

00003c9c <l3753>:
    3c9c:	e38a50ac 	orr	r5, sl, #172	; 0xac

00003ca0 <l3754>:
    3ca0:	e00cea55 	and	lr, ip, r5, asr sl

00003ca4 <l3755>:
    3ca4:	e0e97798 	smlal	r7, r9, r8, r7

00003ca8 <l3756>:
    3ca8:	635c043b 	cmpvs	ip, #989855744	; 0x3b000000

00003cac <l3757>:
    3cac:	216f5f18 	clzcs	r5, r8

00003cb0 <l3758>:
    3cb0:	0080415c 	addeq	r4, r0, ip, asr r1

00003cb4 <l3759>:
    3cb4:	e3949c76 	orrs	r9, r4, #30208	; 0x7600

00003cb8 <l3760>:
    3cb8:	e22b5c92 	eor	r5, fp, #37376	; 0x9200

00003cbc <l3761>:
    3cbc:	211c0e3a 	tstcs	ip, sl, lsr lr

00003cc0 <l3762>:
    3cc0:	30b31390 	umlalscc	r1, r3, r0, r3

00003cc4 <l3763>:
    3cc4:	9001e541 	andls	lr, r1, r1, asr #10

00003cc8 <l3764>:
    3cc8:	e0c39c9e 	smull	r9, r3, lr, ip

00003ccc <l3765>:
    3ccc:	e0e14c93 	smlal	r4, r1, r3, ip

00003cd0 <l3766>:
    3cd0:	e0614779 	rsb	r4, r1, r9, ror r7

00003cd4 <l3767>:
    3cd4:	41720008 	cmnmi	r2, r8

00003cd8 <l3768>:
    3cd8:	e06e400a 	rsb	r4, lr, sl

00003cdc <l3769>:
    3cdc:	e0858394 	umull	r8, r5, r4, r3

00003ce0 <l3770>:
    3ce0:	e16f4f17 	clz	r4, r7

00003ce4 <l3771>:
    3ce4:	e0794003 	rsbs	r4, r9, r3

00003ce8 <l3772>:
    3ce8:	a16f7f12 	clzge	r7, r2

00003cec <l3773>:
    3cec:	e01ee009 	ands	lr, lr, r9

00003cf0 <l3774>:
    3cf0:	10375390 	mlasne	r7, r0, r3, r5

00003cf4 <l3775>:
    3cf4:	e1e00546 	mvn	r0, r6, asr #10

00003cf8 <l3776>:
    3cf8:	803cc000 	eorshi	ip, ip, r0

00003cfc <l3777>:
    3cfc:	e02b839e 	mla	fp, lr, r3, r8

00003d00 <l3778>:
    3d00:	e1f04875 	mvns	r4, r5, ror r8

00003d04 <l3779>:
    3d04:	e0534008 	subs	r4, r3, r8

00003d08 <l3780>:
    3d08:	70cb3b92 	smullvc	r3, fp, r2, fp

00003d0c <l3781>:
    3d0c:	e039cc9a 	mlas	r9, sl, ip, ip

00003d10 <l3782>:
    3d10:	a1989937 	orrsge	r9, r8, r7, lsr r9

00003d14 <l3783>:
    3d14:	016fbf1e 	clzeq	fp, lr

00003d18 <l3784>:
    3d18:	e03b8e97 	mlas	fp, r7, lr, r8

00003d1c <l3785>:
    3d1c:	a0c1749b 	smullge	r7, r1, fp, r4

00003d20 <l3786>:
    3d20:	118ccb5b 	orrne	ip, ip, fp, asr fp

00003d24 <l3787>:
    3d24:	60296896 	mlavs	r9, r6, r8, r6

00003d28 <l3788>:
    3d28:	e28386ee 	add	r8, r3, #249561088	; 0xee00000

00003d2c <l3789>:
    3d2c:	41f06347 	mvnsmi	r6, r7, asr #6

00003d30 <l3790>:
    3d30:	b194c007 	orrslt	ip, r4, r7

00003d34 <l3791>:
    3d34:	e1e07003 	mvn	r7, r3

00003d38 <l3792>:
    3d38:	e0180292 	muls	r8, r2, r2

00003d3c <l3793>:
    3d3c:	82116ea2 	andshi	r6, r1, #2592	; 0xa20

00003d40 <l3794>:
    3d40:	e33b062e 	teq	fp, #48234496	; 0x2e00000

00003d44 <l3795>:
    3d44:	e0fa1c9c 	smlals	r1, sl, ip, ip

00003d48 <l3796>:
    3d48:	e093c29b 	umulls	ip, r3, fp, r2

00003d4c <l3797>:
    3d4c:	e0950597 	umulls	r0, r5, r7, r5

00003d50 <l3798>:
    3d50:	82441bd3 	subhi	r1, r4, #216064	; 0x34c00

00003d54 <l3799>:
    3d54:	30341004 	eorscc	r1, r4, r4

00003d58 <l3800>:
    3d58:	b0635066 	rsblt	r5, r3, r6, rrx

00003d5c <l3801>:
    3d5c:	e023000c 	eor	r0, r3, ip

00003d60 <l3802>:
    3d60:	e1832d65 	orr	r2, r3, r5, ror #26

00003d64 <l3803>:
    3d64:	70a0ae94 	umlalvc	sl, r0, r4, lr

00003d68 <l3804>:
    3d68:	239f0329 	orrscs	r0, pc, #-1543503872	; 0xa4000000

00003d6c <l3805>:
    3d6c:	e197248e 	orrs	r2, r7, lr, lsl #9

00003d70 <l3806>:
    3d70:	8187e06a 	orrhi	lr, r7, sl, rrx

00003d74 <l3807>:
    3d74:	e2f46a2e 	rscs	r6, r4, #188416	; 0x2e000

00003d78 <l3808>:
    3d78:	235e00a9 	cmpcs	lr, #169	; 0xa9

00003d7c <l3809>:
    3d7c:	017008a0 	cmneq	r0, r0, lsr #17

00003d80 <l3810>:
    3d80:	518fa005 	orrpl	sl, pc, r5

00003d84 <l3811>:
    3d84:	9049900c 	subls	r9, r9, ip

00003d88 <l3812>:
    3d88:	e0020094 	mul	r2, r4, r0

00003d8c <l3813>:
    3d8c:	e0fc8676 	rscs	r8, ip, r6, ror r6

00003d90 <l3814>:
    3d90:	603a900b 	eorsvs	r9, sl, fp

00003d94 <l3815>:
    3d94:	e0a5349c 	umlal	r3, r5, ip, r4

00003d98 <l3816>:
    3d98:	e1890004 	orr	r0, r9, r4

00003d9c <l3817>:
    3d9c:	c3852a6b 	orrgt	r2, r5, #438272	; 0x6b000

00003da0 <l3818>:
    3da0:	e08a289e 	umull	r2, sl, lr, r8

00003da4 <l3819>:
    3da4:	d11b0000 	tstle	fp, r0

00003da8 <l3820>:
    3da8:	e0ba6897 	umlals	r6, sl, r7, r8

00003dac <l3821>:
    3dac:	90f5ce9e 	smlalsls	ip, r5, lr, lr

00003db0 <l3822>:
    3db0:	30be2069 	adcscc	r2, lr, r9, rrx

00003db4 <l3823>:
    3db4:	10491008 	subne	r1, r9, r8

00003db8 <l3824>:
    3db8:	a09e9798 	umullsge	r9, lr, r8, r7

00003dbc <l3825>:
    3dbc:	6004180b 	andvs	r1, r4, fp, lsl #16

00003dc0 <l3826>:
    3dc0:	901a0497 	mulsls	sl, r7, r4

00003dc4 <l3827>:
    3dc4:	a16fcf1a 	clzge	ip, sl

00003dc8 <l3828>:
    3dc8:	e035100f 	eors	r1, r5, pc

00003dcc <l3829>:
    3dcc:	e0c8e195 	smull	lr, r8, r5, r1

00003dd0 <l3830>:
    3dd0:	e0b1889e 	umlals	r8, r1, lr, r8

00003dd4 <l3831>:
    3dd4:	e18e2b71 	orr	r2, lr, r1, ror fp

00003dd8 <l3832>:
    3dd8:	e090c060 	adds	ip, r0, r0, rrx

00003ddc <l3833>:
    3ddc:	83d61821 	bicshi	r1, r6, #2162688	; 0x210000

00003de0 <l3834>:
    3de0:	01917004 	orrseq	r7, r1, r4

00003de4 <l3835>:
    3de4:	c180e06a 	orrgt	lr, r0, sl, rrx

00003de8 <l3836>:
    3de8:	e0370007 	eors	r0, r7, r7

00003dec <l3837>:
    3dec:	a3300d23 	teqge	r0, #2240	; 0x8c0

00003df0 <l3838>:
    3df0:	e0000a9e 	mul	r0, lr, sl

00003df4 <l3839>:
    3df4:	e0e89190 	smlal	r9, r8, r0, r1

00003df8 <l3840>:
    3df8:	e0f5c499 	smlals	ip, r5, r9, r4

00003dfc <l3841>:
    3dfc:	e0d77a62 	sbcs	r7, r7, r2, ror #20

00003e00 <l3842>:
    3e00:	e05b5211 	subs	r5, fp, r1, lsl r2

00003e04 <l3843>:
    3e04:	70436001 	subvc	r6, r3, r1

00003e08 <l3844>:
    3e08:	e033bc9b 	mlas	r3, fp, ip, fp

00003e0c <l3845>:
    3e0c:	e03a8c95 	mlas	sl, r5, ip, r8

00003e10 <l3846>:
    3e10:	30e08c95 	smlalcc	r8, r0, r5, ip

00003e14 <l3847>:
    3e14:	22a17619 	adccs	r7, r1, #26214400	; 0x1900000

00003e18 <l3848>:
    3e18:	e0533065 	subs	r3, r3, r5, rrx

00003e1c <l3849>:
    3e1c:	e01b0495 	muls	fp, r5, r4

00003e20 <l3850>:
    3e20:	317907ae 	cmncc	r9, lr, lsr #15

00003e24 <l3851>:
    3e24:	0025e066 	eoreq	lr, r5, r6, rrx

00003e28 <l3852>:
    3e28:	90e03192 	smlalls	r3, r0, r2, r1

00003e2c <l3853>:
    3e2c:	90f10299 	smlalsls	r0, r1, r9, r2

00003e30 <l3854>:
    3e30:	e181900c 	orr	r9, r1, ip

00003e34 <l3855>:
    3e34:	70ea7b92 	smlalvc	r7, sl, r2, fp

00003e38 <l3856>:
    3e38:	d2256065 	eorle	r6, r5, #101	; 0x65

00003e3c <l3857>:
    3e3c:	e0bfc00c 	adcs	ip, pc, ip

00003e40 <l3858>:
    3e40:	e0988067 	adds	r8, r8, r7, rrx

00003e44 <l3859>:
    3e44:	50c22067 	sbcpl	r2, r2, r7, rrx

00003e48 <l3860>:
    3e48:	a036606c 	eorsge	r6, r6, ip, rrx

00003e4c <l3861>:
    3e4c:	e0d67c91 	smulls	r7, r6, r1, ip

00003e50 <l3862>:
    3e50:	3024e496 	mlacc	r4, r6, r4, lr

00003e54 <l3863>:
    3e54:	40526067 	subsmi	r6, r2, r7, rrx

00003e58 <l3864>:
    3e58:	c0a4c892 	umlalgt	ip, r4, r2, r8

00003e5c <l3865>:
    3e5c:	e11f0008 	tst	pc, r8

00003e60 <l3866>:
    3e60:	716f5f12 	clzvc	r5, r2

00003e64 <l3867>:
    3e64:	e0d14098 	smulls	r4, r1, r8, r0

00003e68 <l3868>:
    3e68:	50130e90 	mulspl	r3, r0, lr

00003e6c <l3869>:
    3e6c:	01f03cc9 	mvnseq	r3, r9, asr #25

00003e70 <l3870>:
    3e70:	a0f19a97 	smlalsge	r9, r1, r7, sl

00003e74 <l3871>:
    3e74:	13e04d2b 	mvnne	r4, #2752	; 0xac0

00003e78 <l3872>:
    3e78:	e0144e81 	ands	r4, r4, r1, lsl #29

00003e7c <l3873>:
    3e7c:	301ce064 	andscc	lr, ip, r4, rrx

00003e80 <l3874>:
    3e80:	e08bc09e 	umull	ip, fp, lr, r0

00003e84 <l3875>:
    3e84:	b1f00be7 	mvnslt	r0, r7, ror #23

00003e88 <l3876>:
    3e88:	e1899628 	orr	r9, r9, r8, lsr #12

00003e8c <l3877>:
    3e8c:	e00a0c97 	mul	sl, r7, ip

00003e90 <l3878>:
    3e90:	731305c2 	tstvc	r3, #813694976	; 0x30800000

00003e94 <l3879>:
    3e94:	e0080990 	mul	r8, r0, r9

00003e98 <l3880>:
    3e98:	e0d5ba97 	smulls	fp, r5, r7, sl

00003e9c <l3881>:
    3e9c:	e0040000 	and	r0, r4, r0

00003ea0 <l3882>:
    3ea0:	e087e798 	umull	lr, r7, r8, r7

00003ea4 <l3883>:
    3ea4:	e035a24a 	eors	sl, r5, sl, asr #4

00003ea8 <l3884>:
    3ea8:	12f81405 	rscsne	r1, r8, #83886080	; 0x5000000

00003eac <l3885>:
    3eac:	40515008 	subsmi	r5, r1, r8

00003eb0 <l3886>:
    3eb0:	e0ab0a96 	umlal	r0, fp, r6, sl

00003eb4 <l3887>:
    3eb4:	e00a0a95 	mul	sl, r5, sl

00003eb8 <l3888>:
    3eb8:	e029900e 	eor	r9, r9, lr

00003ebc <l3889>:
    3ebc:	e0b59e98 	umlals	r9, r5, r8, lr

00003ec0 <l3890>:
    3ec0:	93d727ef 	bicsls	r2, r7, #62652416	; 0x3bc0000

00003ec4 <l3891>:
    3ec4:	a18c700a 	orrge	r7, ip, sl

00003ec8 <l3892>:
    3ec8:	600a0995 	mulvs	sl, r5, r9

00003ecc <l3893>:
    3ecc:	e1d3c007 	bics	ip, r3, r7

00003ed0 <l3894>:
    3ed0:	e18e2ba7 	orr	r2, lr, r7, lsr #23

00003ed4 <l3895>:
    3ed4:	a02f1004 	eorge	r1, pc, r4

00003ed8 <l3896>:
    3ed8:	31e00009 	mvncc	r0, r9

00003edc <l3897>:
    3edc:	e3330342 	teq	r3, #134217729	; 0x8000001

00003ee0 <l3898>:
    3ee0:	c1985060 	orrsgt	r5, r8, r0, rrx

00003ee4 <l3899>:
    3ee4:	e1e03063 	mvn	r3, r3, rrx

00003ee8 <l3900>:
    3ee8:	409c6e92 	umullsmi	r6, ip, r2, lr

00003eec <l3901>:
    3eec:	c3b045be 	movsgt	r4, #796917760	; 0x2f800000

00003ef0 <l3902>:
    3ef0:	e0df9520 	sbcs	r9, pc, r0, lsr #10

00003ef4 <l3903>:
    3ef4:	b0bce59a 	umlalslt	lr, ip, sl, r5

00003ef8 <l3904>:
    3ef8:	e002c065 	and	ip, r2, r5, rrx

00003efc <l3905>:
    3efc:	a0ca5099 	smullge	r5, sl, r9, r0

00003f00 <l3906>:
    3f00:	e09be499 	umulls	lr, fp, r9, r4

00003f04 <l3907>:
    3f04:	a00a706f 	andge	r7, sl, pc, rrx

00003f08 <l3908>:
    3f08:	e0190596 	muls	r9, r6, r5

00003f0c <l3909>:
    3f0c:	e0880591 	umull	r0, r8, r1, r5

00003f10 <l3910>:
    3f10:	a2260064 	eorge	r0, r6, #100	; 0x64

00003f14 <l3911>:
    3f14:	70265001 	eorvc	r5, r6, r1

00003f18 <l3912>:
    3f18:	e0097528 	and	r7, r9, r8, lsr #10

00003f1c <l3913>:
    3f1c:	e0d05799 	smulls	r5, r0, r9, r7

00003f20 <l3914>:
    3f20:	51190644 	tstpl	r9, r4, asr #12

00003f24 <l3915>:
    3f24:	e0ba309e 	umlals	r3, sl, lr, r0

00003f28 <l3916>:
    3f28:	e0308001 	eors	r8, r0, r1

00003f2c <l3917>:
    3f2c:	63931165 	orrsvs	r1, r3, #1073741849	; 0x40000019

00003f30 <l3918>:
    3f30:	11140001 	tstne	r4, r1

00003f34 <l3919>:
    3f34:	01a0920b 	lsleq	r9, fp, #4

00003f38 <l3920>:
    3f38:	419f006e 	orrsmi	r0, pc, lr, rrx

00003f3c <l3921>:
    3f3c:	e38bebdb 	orr	lr, fp, #224256	; 0x36c00

00003f40 <l3922>:
    3f40:	c0180a96 	mulsgt	r8, r6, sl

00003f44 <l3923>:
    3f44:	a316010b 	tstge	r6, #-1073741822	; 0xc0000002

00003f48 <l3924>:
    3f48:	50b3900c 	adcspl	r9, r3, ip

00003f4c <l3925>:
    3f4c:	b036b068 	eorslt	fp, r6, r8, rrx

00003f50 <l3926>:
    3f50:	608c9b91 	umullvs	r9, ip, r1, fp

00003f54 <l3927>:
    3f54:	e003e2c8 	and	lr, r3, r8, asr #5

00003f58 <l3928>:
    3f58:	4047b309 	submi	fp, r7, r9, lsl #6

00003f5c <l3929>:
    3f5c:	e03b5991 	mlas	fp, r1, r9, r5

00003f60 <l3930>:
    3f60:	e0d0ec97 	smulls	lr, r0, r7, ip

00003f64 <l3931>:
    3f64:	e0647004 	rsb	r7, r4, r4

00003f68 <l3932>:
    3f68:	c005100a 	andgt	r1, r5, sl

00003f6c <l3933>:
    3f6c:	e0584ce0 	subs	r4, r8, r0, ror #25

00003f70 <l3934>:
    3f70:	50e4079b 	smlalpl	r0, r4, fp, r7

00003f74 <l3935>:
    3f74:	10cea198 	smullne	sl, lr, r8, r1

00003f78 <l3936>:
    3f78:	e0361066 	eors	r1, r6, r6, rrx

00003f7c <l3937>:
    3f7c:	e033400b 	eors	r4, r3, fp

00003f80 <l3938>:
    3f80:	42046dfa 	andmi	r6, r4, #16000	; 0x3e80

00003f84 <l3939>:
    3f84:	e0322a96 	mlas	r2, r6, sl, r2

00003f88 <l3940>:
    3f88:	a013c2c2 	andsge	ip, r3, r2, asr #5

00003f8c <l3941>:
    3f8c:	60020190 	mulvs	r2, r0, r1

00003f90 <l3942>:
    3f90:	e1c94003 	bic	r4, r9, r3

00003f94 <l3943>:
    3f94:	b15505c6 	cmplt	r5, r6, asr #11

00003f98 <l3944>:
    3f98:	e08c6768 	add	r6, ip, r8, ror #14

00003f9c <l3945>:
    3f9c:	e21848ae 	ands	r4, r8, #11403264	; 0xae0000

00003fa0 <l3946>:
    3fa0:	52321c17 	eorspl	r1, r2, #5888	; 0x1700

00003fa4 <l3947>:
    3fa4:	60504007 	subsvs	r4, r0, r7

00003fa8 <l3948>:
    3fa8:	e0587002 	subs	r7, r8, r2

00003fac <l3949>:
    3fac:	e1967061 	orrs	r7, r6, r1, rrx

00003fb0 <l3950>:
    3fb0:	e1d7c005 	bics	ip, r7, r5

00003fb4 <l3951>:
    3fb4:	e0a12062 	adc	r2, r1, r2, rrx

00003fb8 <l3952>:
    3fb8:	a0e0b595 	smlalge	fp, r0, r5, r5

00003fbc <l3953>:
    3fbc:	80c4700f 	sbchi	r7, r4, pc

00003fc0 <l3954>:
    3fc0:	43950a49 	orrsmi	r0, r5, #299008	; 0x49000

00003fc4 <l3955>:
    3fc4:	e0180497 	muls	r8, r7, r4

00003fc8 <l3956>:
    3fc8:	e0ba7296 	umlals	r7, sl, r6, r2

00003fcc <l3957>:
    3fcc:	e09a3890 	umulls	r3, sl, r0, r8

00003fd0 <l3958>:
    3fd0:	33822711 	orrcc	r2, r2, #4456448	; 0x440000

00003fd4 <l3959>:
    3fd4:	7217b769 	andsvc	fp, r7, #27525120	; 0x1a40000

00003fd8 <l3960>:
    3fd8:	e0aeb49c 	umlal	fp, lr, ip, r4

00003fdc <l3961>:
    3fdc:	01330008 	teqeq	r3, r8

00003fe0 <l3962>:
    3fe0:	b0b38a9b 	umlalslt	r8, r3, fp, sl

00003fe4 <l3963>:
    3fe4:	e0c09196 	smull	r9, r0, r6, r1

00003fe8 <l3964>:
    3fe8:	e1810009 	orr	r0, r1, r9

00003fec <l3965>:
    3fec:	6081b313 	addvs	fp, r1, r3, lsl r3

00003ff0 <l3966>:
    3ff0:	109c8793 	umullsne	r8, ip, r3, r7

00003ff4 <l3967>:
    3ff4:	e18b251a 	orr	r2, fp, sl, lsl r5

00003ff8 <l3968>:
    3ff8:	71570ec3 	cmpvc	r7, r3, asr #29

00003ffc <l3969>:
    3ffc:	e0a4c59e 	umlal	ip, r4, lr, r5

00004000 <l3970>:
