
exceptions_swi.o:     file format elf32-littlearm


Disassembly of section .text:

00000000 <vectors_start>:
       0:	ea000025 	b	9c <main>
       4:	ea000007 	b	28 <undef_handler>
       8:	ea00000a 	b	38 <swi_handler>
       c:	ea00000d 	b	48 <prefetch_handler>
      10:	ea000010 	b	58 <dataAbt_handler>
      14:	eafffffe 	b	14 <vectors_start+0x14>
      18:	ea000014 	b	70 <irq_handler>

0000001c <fiq_handler>:
      1c:	e92d13f0 	push	{r4, r5, r6, r7, r8, r9, ip}
      20:	e8dd17e0 	ldm	sp, {r5, r6, r7, r8, r9, sl, ip}^
      24:	e25ef004 	subs	pc, lr, #4

00000028 <undef_handler>:
      28:	e52d4004 	push	{r4}		; (str r4, [sp, #-4]!)
      2c:	e51e4004 	ldr	r4, [lr, #-4]
      30:	e49d4004 	pop	{r4}		; (ldr r4, [sp], #4)
      34:	e1b0f00e 	movs	pc, lr

00000038 <swi_handler>:
      38:	e92d500f 	push	{r0, r1, r2, r3, ip, lr}
      3c:	e51e0004 	ldr	r0, [lr, #-4]
      40:	e3c004ff 	bic	r0, r0, #-16777216	; 0xff000000
      44:	e8fd900f 	ldm	sp!, {r0, r1, r2, r3, ip, pc}^

00000048 <prefetch_handler>:
      48:	e52d3004 	push	{r3}		; (str r3, [sp, #-4]!)
      4c:	e51e3004 	ldr	r3, [lr, #-4]
      50:	e49d3004 	pop	{r3}		; (ldr r3, [sp], #4)
      54:	e1b0f00e 	movs	pc, lr

00000058 <dataAbt_handler>:
      58:	e52d5004 	push	{r5}		; (str r5, [sp, #-4]!)
      5c:	e51e5008 	ldr	r5, [lr, #-8]
      60:	e3a05000 	mov	r5, #0
      64:	e50e5008 	str	r5, [lr, #-8]
      68:	e49d5004 	pop	{r5}		; (ldr r5, [sp], #4)
      6c:	e25ef008 	subs	pc, lr, #8

00000070 <irq_handler>:
      70:	e52d1004 	push	{r1}		; (str r1, [sp, #-4]!)
      74:	e94d2000 	stmdb	sp, {sp}^
      78:	e59f100c 	ldr	r1, [pc, #12]	; 8c <UART_DR>
      7c:	e5811000 	str	r1, [r1]
      80:	e89d0002 	ldm	sp, {r1}
      84:	e49d1004 	pop	{r1}		; (ldr r1, [sp], #4)
      88:	e25ef004 	subs	pc, lr, #4

0000008c <UART_DR>:
      8c:	16000000 	.word	0x16000000

00000090 <PIC_IRQ_ENCLR>:
      90:	1400000c 	.word	0x1400000c

00000094 <UART0_IMSC>:
      94:	16000038 	.word	0x16000038

00000098 <PIC_IRQ_ENSET>:
      98:	14000008 	.word	0x14000008

0000009c <main>:
      9c:	e51f3014 	ldr	r3, [pc, #-20]	; 90 <PIC_IRQ_ENCLR>
      a0:	e3a02002 	mov	r2, #2
      a4:	e5832000 	str	r2, [r3]
      a8:	e51f301c 	ldr	r3, [pc, #-28]	; 94 <UART0_IMSC>
      ac:	e3a02010 	mov	r2, #16
      b0:	e5832000 	str	r2, [r3]
      b4:	e51f3024 	ldr	r3, [pc, #-36]	; 98 <PIC_IRQ_ENSET>
      b8:	e3a02002 	mov	r2, #2
      bc:	e5832000 	str	r2, [r3]
      c0:	e10f0000 	mrs	r0, CPSR
      c4:	e3c000df 	bic	r0, r0, #223	; 0xdf
      c8:	e380001f 	orr	r0, r0, #31
      cc:	e129f000 	msr	CPSR_fc, r0

000000d0 <reg_0_sys>:
      d0:	e59f0000 	ldr	r0, [pc]	; d8 <reg_0_sys_val>
      d4:	ea000000 	b	dc <reg_1_sys>

000000d8 <reg_0_sys_val>:
      d8:	62b4aaad 	.word	0x62b4aaad

000000dc <reg_1_sys>:
      dc:	e59f1000 	ldr	r1, [pc]	; e4 <reg_1_sys_val>
      e0:	ea000000 	b	e8 <reg_2_sys>

000000e4 <reg_1_sys_val>:
      e4:	b2202e2c 	.word	0xb2202e2c

000000e8 <reg_2_sys>:
      e8:	e59f2000 	ldr	r2, [pc]	; f0 <reg_2_sys_val>
      ec:	ea000000 	b	f4 <reg_3_sys>

000000f0 <reg_2_sys_val>:
      f0:	cfb1e19c 	.word	0xcfb1e19c

000000f4 <reg_3_sys>:
      f4:	e59f3000 	ldr	r3, [pc]	; fc <reg_3_sys_val>
      f8:	ea000000 	b	100 <reg_4_sys>

000000fc <reg_3_sys_val>:
      fc:	9066d344 	.word	0x9066d344

00000100 <reg_4_sys>:
     100:	e59f4000 	ldr	r4, [pc]	; 108 <reg_4_sys_val>
     104:	ea000000 	b	10c <reg_5_sys>

00000108 <reg_4_sys_val>:
     108:	545eb643 	.word	0x545eb643

0000010c <reg_5_sys>:
     10c:	e59f5000 	ldr	r5, [pc]	; 114 <reg_5_sys_val>
     110:	ea000000 	b	118 <reg_6_sys>

00000114 <reg_5_sys_val>:
     114:	d6b362e1 	.word	0xd6b362e1

00000118 <reg_6_sys>:
     118:	e59f6000 	ldr	r6, [pc]	; 120 <reg_6_sys_val>
     11c:	ea000000 	b	124 <reg_7_sys>

00000120 <reg_6_sys_val>:
     120:	29f30e1d 	.word	0x29f30e1d

00000124 <reg_7_sys>:
     124:	e59f7000 	ldr	r7, [pc]	; 12c <reg_7_sys_val>
     128:	ea000000 	b	130 <reg_8_sys>

0000012c <reg_7_sys_val>:
     12c:	34edb4f2 	.word	0x34edb4f2

00000130 <reg_8_sys>:
     130:	e59f8000 	ldr	r8, [pc]	; 138 <reg_8_sys_val>
     134:	ea000000 	b	13c <reg_9_sys>

00000138 <reg_8_sys_val>:
     138:	2dabeea2 	.word	0x2dabeea2

0000013c <reg_9_sys>:
     13c:	e59f9000 	ldr	r9, [pc]	; 144 <reg_9_sys_val>
     140:	ea000000 	b	148 <reg_10_sys>

00000144 <reg_9_sys_val>:
     144:	2396d8b2 	.word	0x2396d8b2

00000148 <reg_10_sys>:
     148:	e59fa000 	ldr	sl, [pc]	; 150 <reg_10_sys_val>
     14c:	ea000000 	b	154 <reg_11_sys>

00000150 <reg_10_sys_val>:
     150:	57122a15 	.word	0x57122a15

00000154 <reg_11_sys>:
     154:	e59fb000 	ldr	fp, [pc]	; 15c <reg_11_sys_val>
     158:	ea000000 	b	160 <reg_12_sys>

0000015c <reg_11_sys_val>:
     15c:	89b9b3ef 	.word	0x89b9b3ef

00000160 <reg_12_sys>:
     160:	e59fc000 	ldr	ip, [pc]	; 168 <reg_12_sys_val>
     164:	ea000000 	b	16c <reg_13_sys>

00000168 <reg_12_sys_val>:
     168:	df45410c 	.word	0xdf45410c

0000016c <reg_13_sys>:
     16c:	e59fd000 	ldr	sp, [pc]	; 174 <reg_13_sys_val>
     170:	ea000000 	b	178 <reg_14_sys>

00000174 <reg_13_sys_val>:
     174:	000ffff0 	.word	0x000ffff0

00000178 <reg_14_sys>:
     178:	e59fe000 	ldr	lr, [pc]	; 180 <reg_14_sys_val>
     17c:	ea000000 	b	184 <reg_14_sys_end>

00000180 <reg_14_sys_val>:
     180:	d178da2f 	.word	0xd178da2f

00000184 <reg_14_sys_end>:
     184:	e1a00000 	nop			; (mov r0, r0)
     188:	e10f0000 	mrs	r0, CPSR
     18c:	e3c000df 	bic	r0, r0, #223	; 0xdf
     190:	e38000d1 	orr	r0, r0, #209	; 0xd1
     194:	e129f000 	msr	CPSR_fc, r0

00000198 <reg_8_fiq>:
     198:	e59f8000 	ldr	r8, [pc]	; 1a0 <reg_8_fiq_val>
     19c:	ea000000 	b	1a4 <reg_9_fiq>

000001a0 <reg_8_fiq_val>:
     1a0:	15adf396 	.word	0x15adf396

000001a4 <reg_9_fiq>:
     1a4:	e59f9000 	ldr	r9, [pc]	; 1ac <reg_9_fiq_val>
     1a8:	ea000000 	b	1b0 <reg_10_fiq>

000001ac <reg_9_fiq_val>:
     1ac:	d185b7bc 	.word	0xd185b7bc

000001b0 <reg_10_fiq>:
     1b0:	e59fa000 	ldr	sl, [pc]	; 1b8 <reg_10_fiq_val>
     1b4:	ea000000 	b	1bc <reg_11_fiq>

000001b8 <reg_10_fiq_val>:
     1b8:	338b74d5 	.word	0x338b74d5

000001bc <reg_11_fiq>:
     1bc:	e59fb000 	ldr	fp, [pc]	; 1c4 <reg_11_fiq_val>
     1c0:	ea000000 	b	1c8 <reg_12_fiq>

000001c4 <reg_11_fiq_val>:
     1c4:	9d1b255e 	.word	0x9d1b255e

000001c8 <reg_12_fiq>:
     1c8:	e59fc000 	ldr	ip, [pc]	; 1d0 <reg_12_fiq_val>
     1cc:	ea000000 	b	1d4 <reg_13_fiq>

000001d0 <reg_12_fiq_val>:
     1d0:	0dac6cd8 	.word	0x0dac6cd8

000001d4 <reg_13_fiq>:
     1d4:	e59fd000 	ldr	sp, [pc]	; 1dc <reg_13_fiq_val>
     1d8:	ea000000 	b	1e0 <reg_14_fiq>

000001dc <reg_13_fiq_val>:
     1dc:	001ffff0 	.word	0x001ffff0

000001e0 <reg_14_fiq>:
     1e0:	e59fe000 	ldr	lr, [pc]	; 1e8 <reg_14_fiq_val>
     1e4:	ea000000 	b	1ec <reg_14_fiq_end>

000001e8 <reg_14_fiq_val>:
     1e8:	12298720 	.word	0x12298720

000001ec <reg_14_fiq_end>:
     1ec:	e1a00000 	nop			; (mov r0, r0)
     1f0:	e10f0000 	mrs	r0, CPSR
     1f4:	e3c000df 	bic	r0, r0, #223	; 0xdf
     1f8:	e3800092 	orr	r0, r0, #146	; 0x92
     1fc:	e129f000 	msr	CPSR_fc, r0

00000200 <reg_13_irq>:
     200:	e59fd000 	ldr	sp, [pc]	; 208 <reg_13_irq_val>
     204:	ea000000 	b	20c <reg_14_irq>

00000208 <reg_13_irq_val>:
     208:	002ffff0 	.word	0x002ffff0

0000020c <reg_14_irq>:
     20c:	e59fe000 	ldr	lr, [pc]	; 214 <reg_14_irq_val>
     210:	ea000000 	b	218 <reg_14_irq_end>

00000214 <reg_14_irq_val>:
     214:	8d568d8d 	.word	0x8d568d8d

00000218 <reg_14_irq_end>:
     218:	e1a00000 	nop			; (mov r0, r0)
     21c:	e10f0000 	mrs	r0, CPSR
     220:	e3c000df 	bic	r0, r0, #223	; 0xdf
     224:	e380001b 	orr	r0, r0, #27
     228:	e129f000 	msr	CPSR_fc, r0

0000022c <reg_13_undef>:
     22c:	e59fd000 	ldr	sp, [pc]	; 234 <reg_13_undef_val>
     230:	ea000000 	b	238 <reg_14_undef>

00000234 <reg_13_undef_val>:
     234:	003ffff0 	.word	0x003ffff0

00000238 <reg_14_undef>:
     238:	e59fe000 	ldr	lr, [pc]	; 240 <reg_14_undef_val>
     23c:	ea000000 	b	244 <reg_14_undef_end>

00000240 <reg_14_undef_val>:
     240:	11fd84ad 	.word	0x11fd84ad

00000244 <reg_14_undef_end>:
     244:	e1a00000 	nop			; (mov r0, r0)
     248:	e10f0000 	mrs	r0, CPSR
     24c:	e3c000df 	bic	r0, r0, #223	; 0xdf
     250:	e3800017 	orr	r0, r0, #23
     254:	e129f000 	msr	CPSR_fc, r0

00000258 <reg_13_abort>:
     258:	e59fd000 	ldr	sp, [pc]	; 260 <reg_13_abort_val>
     25c:	ea000000 	b	264 <reg_14_abort>

00000260 <reg_13_abort_val>:
     260:	004ffff0 	.word	0x004ffff0

00000264 <reg_14_abort>:
     264:	e59fe000 	ldr	lr, [pc]	; 26c <reg_14_abort_val>
     268:	ea000000 	b	270 <reg_14_abort_end>

0000026c <reg_14_abort_val>:
     26c:	de166390 	.word	0xde166390

00000270 <reg_14_abort_end>:
     270:	e1a00000 	nop			; (mov r0, r0)
     274:	e10f0000 	mrs	r0, CPSR
     278:	e3c000df 	bic	r0, r0, #223	; 0xdf
     27c:	e3800013 	orr	r0, r0, #19
     280:	e129f000 	msr	CPSR_fc, r0

00000284 <reg_13_svc>:
     284:	e59fd000 	ldr	sp, [pc]	; 28c <reg_13_svc_val>
     288:	ea000000 	b	290 <reg_14_svc>

0000028c <reg_13_svc_val>:
     28c:	005ffff0 	.word	0x005ffff0

00000290 <reg_14_svc>:
     290:	e59fe000 	ldr	lr, [pc]	; 298 <reg_14_svc_val>
     294:	ea000000 	b	29c <reg_14_svc_end>

00000298 <reg_14_svc_val>:
     298:	e8cbfb13 	.word	0xe8cbfb13

0000029c <reg_14_svc_end>:
     29c:	e1a00000 	nop			; (mov r0, r0)
     2a0:	e10f0000 	mrs	r0, CPSR
     2a4:	e3c000df 	bic	r0, r0, #223	; 0xdf
     2a8:	e380001f 	orr	r0, r0, #31
     2ac:	e129f000 	msr	CPSR_fc, r0
     2b0:	e59f1000 	ldr	r1, [pc]	; 2b8 <stack_0_val>
     2b4:	ea000000 	b	2bc <stack_0>

000002b8 <stack_0_val>:
     2b8:	b6b61d56 	.word	0xb6b61d56

000002bc <stack_0>:
     2bc:	e58d1000 	str	r1, [sp]
     2c0:	e59f1000 	ldr	r1, [pc]	; 2c8 <stack_1_val>
     2c4:	ea000000 	b	2cc <stack_1>

000002c8 <stack_1_val>:
     2c8:	1304c380 	.word	0x1304c380

000002cc <stack_1>:
     2cc:	e50d1004 	str	r1, [sp, #-4]
     2d0:	e59f1000 	ldr	r1, [pc]	; 2d8 <stack_2_val>
     2d4:	ea000000 	b	2dc <stack_2>

000002d8 <stack_2_val>:
     2d8:	4b381be1 	.word	0x4b381be1

000002dc <stack_2>:
     2dc:	e50d1008 	str	r1, [sp, #-8]
     2e0:	e59f1000 	ldr	r1, [pc]	; 2e8 <stack_3_val>
     2e4:	ea000000 	b	2ec <stack_3>

000002e8 <stack_3_val>:
     2e8:	5205bbd4 	.word	0x5205bbd4

000002ec <stack_3>:
     2ec:	e50d100c 	str	r1, [sp, #-12]
     2f0:	e59f1000 	ldr	r1, [pc]	; 2f8 <stack_4_val>
     2f4:	ea000000 	b	2fc <stack_4>

000002f8 <stack_4_val>:
     2f8:	c7e4beb2 	.word	0xc7e4beb2

000002fc <stack_4>:
     2fc:	e50d1010 	str	r1, [sp, #-16]
     300:	e59f1000 	ldr	r1, [pc]	; 308 <stack_5_val>
     304:	ea000000 	b	30c <stack_5>

00000308 <stack_5_val>:
     308:	f77f7e35 	.word	0xf77f7e35

0000030c <stack_5>:
     30c:	e50d1014 	str	r1, [sp, #-20]
     310:	e59f1000 	ldr	r1, [pc]	; 318 <stack_6_val>
     314:	ea000000 	b	31c <stack_6>

00000318 <stack_6_val>:
     318:	41eb48f7 	.word	0x41eb48f7

0000031c <stack_6>:
     31c:	e50d1018 	str	r1, [sp, #-24]
     320:	e59f1000 	ldr	r1, [pc]	; 328 <stack_7_val>
     324:	ea000000 	b	32c <stack_7>

00000328 <stack_7_val>:
     328:	3717586e 	.word	0x3717586e

0000032c <stack_7>:
     32c:	e50d101c 	str	r1, [sp, #-28]
     330:	e59f1000 	ldr	r1, [pc]	; 338 <stack_8_val>
     334:	ea000000 	b	33c <stack_8>

00000338 <stack_8_val>:
     338:	a6343f8a 	.word	0xa6343f8a

0000033c <stack_8>:
     33c:	e50d1020 	str	r1, [sp, #-32]
     340:	e59f1000 	ldr	r1, [pc]	; 348 <stack_9_val>
     344:	ea000000 	b	34c <stack_9>

00000348 <stack_9_val>:
     348:	a591eab8 	.word	0xa591eab8

0000034c <stack_9>:
     34c:	e50d1024 	str	r1, [sp, #-36]	; 0x24
     350:	e59f1000 	ldr	r1, [pc]	; 358 <stack_10_val>
     354:	ea000000 	b	35c <stack_10>

00000358 <stack_10_val>:
     358:	20969a99 	.word	0x20969a99

0000035c <stack_10>:
     35c:	e50d1028 	str	r1, [sp, #-40]	; 0x28
     360:	e59f1000 	ldr	r1, [pc]	; 368 <stack_11_val>
     364:	ea000000 	b	36c <stack_11>

00000368 <stack_11_val>:
     368:	6f3cf702 	.word	0x6f3cf702

0000036c <stack_11>:
     36c:	e50d102c 	str	r1, [sp, #-44]	; 0x2c
     370:	e59f1000 	ldr	r1, [pc]	; 378 <stack_12_val>
     374:	ea000000 	b	37c <stack_12>

00000378 <stack_12_val>:
     378:	6ad3f80c 	.word	0x6ad3f80c

0000037c <stack_12>:
     37c:	e50d1030 	str	r1, [sp, #-48]	; 0x30
     380:	e59f1000 	ldr	r1, [pc]	; 388 <stack_13_val>
     384:	ea000000 	b	38c <stack_13>

00000388 <stack_13_val>:
     388:	9e3d26c8 	.word	0x9e3d26c8

0000038c <stack_13>:
     38c:	e50d1034 	str	r1, [sp, #-52]	; 0x34
     390:	e59f1000 	ldr	r1, [pc]	; 398 <stack_14_val>
     394:	ea000000 	b	39c <stack_14>

00000398 <stack_14_val>:
     398:	92d186ca 	.word	0x92d186ca

0000039c <stack_14>:
     39c:	e50d1038 	str	r1, [sp, #-56]	; 0x38
     3a0:	e59f1000 	ldr	r1, [pc]	; 3a8 <stack_15_val>
     3a4:	ea000000 	b	3ac <stack_15>

000003a8 <stack_15_val>:
     3a8:	c0d6a943 	.word	0xc0d6a943

000003ac <stack_15>:
     3ac:	e50d103c 	str	r1, [sp, #-60]	; 0x3c
     3b0:	e59f1000 	ldr	r1, [pc]	; 3b8 <stack_16_val>
     3b4:	ea000000 	b	3bc <stack_16>

000003b8 <stack_16_val>:
     3b8:	c98799cc 	.word	0xc98799cc

000003bc <stack_16>:
     3bc:	e50d1040 	str	r1, [sp, #-64]	; 0x40
     3c0:	e59f1000 	ldr	r1, [pc]	; 3c8 <stack_17_val>
     3c4:	ea000000 	b	3cc <stack_17>

000003c8 <stack_17_val>:
     3c8:	0ca9925c 	.word	0x0ca9925c

000003cc <stack_17>:
     3cc:	e50d1044 	str	r1, [sp, #-68]	; 0x44
     3d0:	e59f1000 	ldr	r1, [pc]	; 3d8 <stack_18_val>
     3d4:	ea000000 	b	3dc <stack_18>

000003d8 <stack_18_val>:
     3d8:	a42b4c82 	.word	0xa42b4c82

000003dc <stack_18>:
     3dc:	e50d1048 	str	r1, [sp, #-72]	; 0x48
     3e0:	e59f1000 	ldr	r1, [pc]	; 3e8 <stack_19_val>
     3e4:	ea000000 	b	3ec <stack_19>

000003e8 <stack_19_val>:
     3e8:	981ffc81 	.word	0x981ffc81

000003ec <stack_19>:
     3ec:	e50d104c 	str	r1, [sp, #-76]	; 0x4c
     3f0:	e59f1000 	ldr	r1, [pc]	; 3f8 <stack_20_val>
     3f4:	ea000000 	b	3fc <stack_20>

000003f8 <stack_20_val>:
     3f8:	434d4a8c 	.word	0x434d4a8c

000003fc <stack_20>:
     3fc:	e50d1050 	str	r1, [sp, #-80]	; 0x50
     400:	e10f0000 	mrs	r0, CPSR
     404:	e3c000df 	bic	r0, r0, #223	; 0xdf
     408:	e3800010 	orr	r0, r0, #16
     40c:	e129f000 	msr	CPSR_fc, r0

00000410 <l1>:
     410:	e59f3000 	ldr	r3, [pc]	; 418 <interrupt_630>

00000414 <l2>:
     414:	ea000000 	b	41c <l4>

00000418 <interrupt_630>:
     418:	000fffb8 	.word	0x000fffb8

0000041c <l4>:
     41c:	7103a090 	swpvc	sl, r0, [r3]

00000420 <l5>:
     420:	e0648002 	rsb	r8, r4, r2

00000424 <l6>:
     424:	e0b9b007 	adcs	fp, r9, r7

00000428 <interrupt_952>:
     428:	e59f4000 	ldr	r4, [pc]	; 430 <l9>

0000042c <l8>:
     42c:	ea000000 	b	434 <l10>

00000430 <l9>:
     430:	000fffb8 	.word	0x000fffb8

00000434 <l10>:
     434:	e104c095 	swp	ip, r5, [r4]

00000438 <l11>:
     438:	21310531 	teqcs	r1, r1, lsr r5

0000043c <l12>:
     43c:	e59f2000 	ldr	r2, [pc]	; 444 <l14>

00000440 <l13>:
     440:	ea000000 	b	448 <l15>

00000444 <l14>:
     444:	000fffbc 	.word	0x000fffbc

00000448 <l15>:
     448:	b1020099 	swplt	r0, r9, [r2]

0000044c <l16>:
     44c:	ea000004 	b	464 <interrupt_734>

00000450 <l17>:
     450:	61d26e53 	bicsvs	r6, r2, r3, asr lr

00000454 <l18>:
     454:	c0fb0009 	rscsgt	r0, fp, r9

00000458 <l19>:
     458:	c37e0151 	cmngt	lr, #1073741844	; 0x40000014

0000045c <l20>:
     45c:	807c5b57 	rsbshi	r5, ip, r7, asr fp

00000460 <l21>:
     460:	e1d2b113 	bics	fp, r2, r3, lsl r1

00000464 <interrupt_734>:
     464:	32233054 	eorcc	r3, r3, #84	; 0x54

00000468 <interrupt_502>:
     468:	61130063 	tstvs	r3, r3, rrx

0000046c <l24>:
     46c:	e2840695 	add	r0, r4, #156237824	; 0x9500000

00000470 <l25>:
     470:	ba000007 	blt	494 <l34>

00000474 <l26>:
     474:	e2801025 	add	r1, r0, #37	; 0x25

00000478 <interrupt_72>:
     478:	01d86607 	bicseq	r6, r8, r7, lsl #12

0000047c <interrupt_367>:
     47c:	10357017 	eorsne	r7, r5, r7, lsl r0

00000480 <l29>:
     480:	61360818 	teqvs	r6, r8, lsl r8

00000484 <interrupt_176>:
     484:	206ea007 	rsbcs	sl, lr, r7

00000488 <l31>:
     488:	00ff4064 	rscseq	r4, pc, r4, rrx

0000048c <l32>:
     48c:	e23930c4 	eors	r3, r9, #196	; 0xc4

00000490 <interrupt_265>:
     490:	ea000000 	b	498 <l35>

00000494 <l34>:
     494:	eafffff7 	b	478 <interrupt_72>

00000498 <l35>:
     498:	10e1300e 	rscne	r3, r1, lr

0000049c <interrupt_142>:
     49c:	41500710 	cmpmi	r0, r0, lsl r7

000004a0 <l37>:
     4a0:	ef609e69 	svc	0x00609e69

000004a4 <l38>:
     4a4:	e93d4907 	ldmdb	sp!, {r0, r1, r2, r8, fp, lr}

000004a8 <l39>:
     4a8:	4239e60a 	eorsmi	lr, r9, #10485760	; 0xa00000

000004ac <l40>:
     4ac:	c0f47247 	rscsgt	r7, r4, r7, asr #4

000004b0 <l41>:
     4b0:	e3a0100f 	mov	r1, #15

000004b4 <interrupt_983>:
     4b4:	574d4001 	strbpl	r4, [sp, -r1]

000004b8 <l43>:
     4b8:	e3a0b010 	mov	fp, #16

000004bc <l44>:
     4bc:	e73da00b 	ldr	sl, [sp, -fp]!

000004c0 <l45>:
     4c0:	e11e0fc3 	tst	lr, r3, asr #31

000004c4 <l46>:
     4c4:	e1dd61fc 	ldrsh	r6, [sp, #28]

000004c8 <l47>:
     4c8:	a0604062 	rsbge	r4, r0, r2, rrx

000004cc <l48>:
     4cc:	e2c5ec2e 	sbc	lr, r5, #11776	; 0x2e00

000004d0 <l49>:
     4d0:	017e0000 	cmneq	lr, r0

000004d4 <l50>:
     4d4:	e17008ae 	cmn	r0, lr, lsr #17

000004d8 <l51>:
     4d8:	e0f7a00c 	rscs	sl, r7, ip

000004dc <l52>:
     4dc:	e3a0b00a 	mov	fp, #10

000004e0 <l53>:
     4e0:	d7ddc00b 	ldrble	ip, [sp, fp]

000004e4 <l54>:
     4e4:	81dde2d2 	ldrsbhi	lr, [sp, #34]	; 0x22

000004e8 <l55>:
     4e8:	e59f5000 	ldr	r5, [pc]	; 4f0 <interrupt_581>

000004ec <interrupt_906>:
     4ec:	ea000000 	b	4f4 <l58>

000004f0 <interrupt_581>:
     4f0:	000fffcc 	.word	0x000fffcc

000004f4 <l58>:
     4f4:	01051090 	swpeq	r1, r0, [r5]

000004f8 <l59>:
     4f8:	e03e7146 	eors	r7, lr, r6, asr #2

000004fc <l60>:
     4fc:	e59f6000 	ldr	r6, [pc]	; 504 <l62>

00000500 <l61>:
     500:	ea000000 	b	508 <l63>

00000504 <l62>:
     504:	000fffb0 	.word	0x000fffb0

00000508 <l63>:
     508:	01464098 	swpbeq	r4, r8, [r6]

0000050c <l64>:
     50c:	00b5b71b 	adcseq	fp, r5, fp, lsl r7

00000510 <l65>:
     510:	c01c8700 	andsgt	r8, ip, r0, lsl #14

00000514 <interrupt_487>:
     514:	389d0212 	ldmcc	sp, {r1, r4, r9}

00000518 <l67>:
     518:	e17a0000 	cmn	sl, r0

0000051c <l68>:
     51c:	e15a0003 	cmp	sl, r3

00000520 <l69>:
     520:	e17e0917 	cmn	lr, r7, lsl r9

00000524 <l70>:
     524:	931f0443 	tstls	pc, #1124073472	; 0x43000000

00000528 <l71>:
     528:	33a0409e 	movcc	r4, #158	; 0x9e

0000052c <l72>:
     52c:	e59f5000 	ldr	r5, [pc]	; 534 <l74>

00000530 <interrupt_837>:
     530:	ea000000 	b	538 <l75>

00000534 <l74>:
     534:	000fffb8 	.word	0x000fffb8

00000538 <l75>:
     538:	41054097 	swpmi	r4, r7, [r5]

0000053c <interrupt_174>:
     53c:	615d50ba 	ldrhvs	r5, [sp, #-10]

00000540 <l77>:
     540:	c54d9008 	strbgt	r9, [sp, #-8]

00000544 <l78>:
     544:	20531c5b 	subscs	r1, r3, fp, asr ip

00000548 <interrupt_189>:
     548:	4071e770 	rsbsmi	lr, r1, r0, ror r7

0000054c <interrupt_579>:
     54c:	e93d4c05 	ldmdb	sp!, {r0, r2, sl, fp, lr}

00000550 <l81>:
     550:	e0f8b002 	rscs	fp, r8, r2

00000554 <l82>:
     554:	316f8f11 	clzcc	r8, r1

00000558 <l83>:
     558:	e0095064 	and	r5, r9, r4, rrx

0000055c <l84>:
     55c:	e06c5b60 	rsb	r5, ip, r0, ror #22

00000560 <l85>:
     560:	e3a0400c 	mov	r4, #12

00000564 <l86>:
     564:	e11d50b4 	ldrh	r5, [sp, -r4]

00000568 <interrupt_477>:
     568:	efa3e5d7 	svc	0x00a3e5d7

0000056c <l88>:
     56c:	e3a0400d 	mov	r4, #13

00000570 <l89>:
     570:	97dd9004 	ldrbls	r9, [sp, r4]

00000574 <l90>:
     574:	e1dda3f2 	ldrsh	sl, [sp, #50]	; 0x32

00000578 <l91>:
     578:	e3a04015 	mov	r4, #21

0000057c <l92>:
     57c:	a19d30d4 	ldrsbge	r3, [sp, r4]

00000580 <l93>:
     580:	e1e0bd4a 	mvn	fp, sl, asr #26

00000584 <l94>:
     584:	51cd12be 	strhpl	r1, [sp, #46]	; 0x2e

00000588 <l95>:
     588:	b1c74f40 	biclt	r4, r7, r0, asr #30

0000058c <l96>:
     58c:	e59f9000 	ldr	r9, [pc]	; 594 <l98>

00000590 <interrupt_707>:
     590:	ea000000 	b	598 <l99>

00000594 <l98>:
     594:	000fffe4 	.word	0x000fffe4

00000598 <l99>:
     598:	01495090 	swpbeq	r5, r0, [r9]

0000059c <l100>:
     59c:	e3a05010 	mov	r5, #16

000005a0 <l101>:
     5a0:	b78da005 	strlt	sl, [sp, r5]

000005a4 <l102>:
     5a4:	e3a0400e 	mov	r4, #14

000005a8 <l103>:
     5a8:	e11da0d4 	ldrsb	sl, [sp, -r4]

000005ac <l104>:
     5ac:	e3a08008 	mov	r8, #8

000005b0 <interrupt_424>:
     5b0:	e19d70b8 	ldrh	r7, [sp, r8]

000005b4 <l106>:
     5b4:	13df8c0d 	bicsne	r8, pc, #3328	; 0xd00

000005b8 <l107>:
     5b8:	e119065c 	tst	r9, ip, asr r6

000005bc <l108>:
     5bc:	e1a00000 	nop			; (mov r0, r0)

000005c0 <l109>:
     5c0:	b2e0c08f 	rsclt	ip, r0, #143	; 0x8f

000005c4 <l110>:
     5c4:	b352096e 	cmplt	r2, #1802240	; 0x1b8000

000005c8 <l111>:
     5c8:	e004200f 	and	r2, r4, pc

000005cc <l112>:
     5cc:	a11c0004 	tstge	ip, r4

000005d0 <l113>:
     5d0:	7153000e 	cmpvc	r3, lr

000005d4 <l114>:
     5d4:	d2c473db 	sbcle	r7, r4, #1811939331	; 0x6c000003

000005d8 <l115>:
     5d8:	e3a0c00d 	mov	ip, #13

000005dc <l116>:
     5dc:	e19d40dc 	ldrsb	r4, [sp, ip]

000005e0 <l117>:
     5e0:	e3a0a00c 	mov	sl, #12

000005e4 <l118>:
     5e4:	019dc0fa 	ldrsheq	ip, [sp, sl]

000005e8 <interrupt_713>:
     5e8:	d16f7f1a 	clzle	r7, sl

000005ec <l120>:
     5ec:	e59f9000 	ldr	r9, [pc]	; 5f4 <l122>

000005f0 <interrupt_995>:
     5f0:	ea000000 	b	5f8 <l123>

000005f4 <l122>:
     5f4:	000fffa4 	.word	0x000fffa4

000005f8 <l123>:
     5f8:	81093091 	swphi	r3, r1, [r9]

000005fc <l124>:
     5fc:	b16f6f13 	clzlt	r6, r3

00000600 <l125>:
     600:	698d6900 	stmibvs	sp, {r8, fp, sp, lr}

00000604 <l126>:
     604:	b16fbf15 	clzlt	fp, r5

00000608 <l127>:
     608:	e17c0712 	cmn	ip, r2, lsl r7

0000060c <l128>:
     60c:	e3a0600c 	mov	r6, #12

00000610 <interrupt_534>:
     610:	e7ad8006 	str	r8, [sp, r6]!

00000614 <interrupt_381>:
     614:	61ddb1fa 	ldrshvs	fp, [sp, #26]

00000618 <l131>:
     618:	e1cdb0ba 	strh	fp, [sp, #10]

0000061c <l132>:
     61c:	e15d21b2 	ldrh	r2, [sp, #-18]	; 0xffffffee

00000620 <interrupt_92>:
     620:	e059a069 	subs	sl, r9, r9, rrx

00000624 <l134>:
     624:	81150342 	tsthi	r5, r2, asr #6

00000628 <l135>:
     628:	e0dbb94e 	sbcs	fp, fp, lr, asr #18

0000062c <interrupt_154>:
     62c:	e1dd90d9 	ldrsb	r9, [sp, #9]

00000630 <l137>:
     630:	502e4477 	eorpl	r4, lr, r7, ror r4

00000634 <l138>:
     634:	e3a0a026 	mov	sl, #38	; 0x26

00000638 <l139>:
     638:	e19d30fa 	ldrsh	r3, [sp, sl]

0000063c <l140>:
     63c:	e3a02020 	mov	r2, #32

00000640 <l141>:
     640:	e68d8002 	str	r8, [sp], r2

00000644 <l142>:
     644:	004be060 	subeq	lr, fp, r0, rrx

00000648 <l143>:
     648:	e1ddc0fa 	ldrsh	ip, [sp, #10]

0000064c <l144>:
     64c:	8a000004 	bhi	664 <l150>

00000650 <l145>:
     650:	e2801083 	add	r1, r0, #131	; 0x83

00000654 <interrupt_401>:
     654:	e3b032a5 	movs	r3, #1342177290	; 0x5000000a

00000658 <l147>:
     658:	02830c15 	addeq	r0, r3, #5376	; 0x1500

0000065c <interrupt_740>:
     65c:	e03a4933 	eors	r4, sl, r3, lsr r9

00000660 <interrupt_394>:
     660:	ea000000 	b	668 <interrupt_114>

00000664 <l150>:
     664:	eafffffa 	b	654 <interrupt_401>

00000668 <interrupt_114>:
     668:	e1a0414f 	asr	r4, pc, #2

0000066c <l152>:
     66c:	117c031e 	cmnne	ip, lr, lsl r3

00000670 <l153>:
     670:	e2383813 	eors	r3, r8, #1245184	; 0x130000

00000674 <l154>:
     674:	11b0c21a 	lslsne	ip, sl, r2

00000678 <l155>:
     678:	e055be71 	subs	fp, r5, r1, ror lr

0000067c <l156>:
     67c:	e51dc01c 	ldr	ip, [sp, #-28]

00000680 <l157>:
     680:	e3750d06 	cmn	r5, #384	; 0x180

00000684 <interrupt_739>:
     684:	e0a08066 	adc	r8, r0, r6, rrx

00000688 <l159>:
     688:	e048c913 	sub	ip, r8, r3, lsl r9

0000068c <l160>:
     68c:	e0260741 	eor	r0, r6, r1, asr #14

00000690 <l161>:
     690:	e3a01014 	mov	r1, #20

00000694 <interrupt_231>:
     694:	911d10b1 	ldrhls	r1, [sp, -r1]

00000698 <l163>:
     698:	e59f6000 	ldr	r6, [pc]	; 6a0 <l165>

0000069c <l164>:
     69c:	ea000000 	b	6a4 <l166>

000006a0 <l165>:
     6a0:	000fffbc 	.word	0x000fffbc

000006a4 <l166>:
     6a4:	e1460099 	swpb	r0, r9, [r6]

000006a8 <l167>:
     6a8:	da000005 	ble	6c4 <interrupt_765>

000006ac <l168>:
     6ac:	e0081921 	and	r1, r8, r1, lsr #18

000006b0 <interrupt_520>:
     6b0:	e0e3610b 	rsc	r6, r3, fp, lsl #2

000006b4 <l170>:
     6b4:	e1780037 	cmn	r8, r7, lsr r0

000006b8 <l171>:
     6b8:	72352bff 	eorsvc	r2, r5, #261120	; 0x3fc00

000006bc <l172>:
     6bc:	513b0de7 	teqpl	fp, r7, ror #27

000006c0 <l173>:
     6c0:	02c942c6 	sbceq	r4, r9, #1610612748	; 0x6000000c

000006c4 <interrupt_765>:
     6c4:	c11e0006 	tstgt	lr, r6

000006c8 <l175>:
     6c8:	e16fef13 	clz	lr, r3

000006cc <l176>:
     6cc:	e1700001 	cmn	r0, r1

000006d0 <l177>:
     6d0:	0056c370 	subseq	ip, r6, r0, ror r3

000006d4 <interrupt_393>:
     6d4:	409009c0 	addsmi	r0, r0, r0, asr #19

000006d8 <interrupt_853>:
     6d8:	6038411e 	eorsvs	r4, r8, lr, lsl r1

000006dc <l180>:
     6dc:	e0d27be6 	sbcs	r7, r2, r6, ror #23

000006e0 <l181>:
     6e0:	b16f7f12 	clzlt	r7, r2

000006e4 <interrupt_24>:
     6e4:	e3a03021 	mov	r3, #33	; 0x21

000006e8 <l183>:
     6e8:	274d8003 	strbcs	r8, [sp, -r3]

000006ec <l184>:
     6ec:	415d43f6 	ldrshmi	r4, [sp, #-54]	; 0xffffffca

000006f0 <l185>:
     6f0:	ef816d67 	svc	0x00816d67

000006f4 <l186>:
     6f4:	31740c12 	cmncc	r4, r2, lsl ip

000006f8 <l187>:
     6f8:	e3a06040 	mov	r6, #64	; 0x40

000006fc <interrupt_149>:
     6fc:	e10d40b6 	strh	r4, [sp, -r6]

00000700 <l189>:
     700:	e08a64c0 	add	r6, sl, r0, asr #9

00000704 <l190>:
     704:	e138006e 	teq	r8, lr, rrx

00000708 <l191>:
     708:	92dee50b 	sbcsls	lr, lr, #46137344	; 0x2c00000

0000070c <l192>:
     70c:	d17f0007 	cmnle	pc, r7

00000710 <l193>:
     710:	6057100e 	subsvs	r1, r7, lr

00000714 <interrupt_546>:
     714:	115d03d5 	ldrsbne	r0, [sp, #-53]	; 0xffffffcb

00000718 <interrupt_418>:
     718:	e5bd6000 	ldr	r6, [sp, #0]!

0000071c <l196>:
     71c:	e59fa000 	ldr	sl, [pc]	; 724 <l198>

00000720 <l197>:
     720:	ea000000 	b	728 <interrupt_121>

00000724 <l198>:
     724:	000fffc4 	.word	0x000fffc4

00000728 <interrupt_121>:
     728:	e14ac091 	swpb	ip, r1, [sl]

0000072c <l200>:
     72c:	e93d53f6 	ldmdb	sp!, {r1, r2, r4, r5, r6, r7, r8, r9, ip, lr}

00000730 <l201>:
     730:	e1cda2bc 	strh	sl, [sp, #44]	; 0x2c

00000734 <l202>:
     734:	42727907 	rsbsmi	r7, r2, #114688	; 0x1c000

00000738 <l203>:
     738:	616fbf10 	clzvs	fp, r0

0000073c <interrupt_691>:
     73c:	599d0400 	ldmibpl	sp, {sl}

00000740 <interrupt_168>:
     740:	71d082c1 	bicsvc	r8, r0, r1, asr #5

00000744 <l206>:
     744:	1affffff 	bne	748 <l207>

00000748 <l207>:
     748:	e27bb11f 	rsbs	fp, fp, #-1073741817	; 0xc0000007

0000074c <l208>:
     74c:	03d76185 	bicseq	r6, r7, #1073741857	; 0x40000021

00000750 <interrupt_988>:
     750:	e8ad4a64 	stmia	sp!, {r2, r5, r6, r9, fp, lr}

00000754 <l210>:
     754:	401a2653 	andsmi	r2, sl, r3, asr r6

00000758 <interrupt_440>:
     758:	ef6bf02f 	svc	0x006bf02f

0000075c <l212>:
     75c:	91867216 	orrls	r7, r6, r6, lsl r2

00000760 <l213>:
     760:	416f5f1b 	clzmi	r5, fp

00000764 <l214>:
     764:	e3a0202e 	mov	r2, #46	; 0x2e

00000768 <l215>:
     768:	e11d30d2 	ldrsb	r3, [sp, -r2]

0000076c <l216>:
     76c:	71ce9005 	bicvc	r9, lr, r5

00000770 <l217>:
     770:	a99d1208 	ldmibge	sp, {r3, r9, ip}

00000774 <l218>:
     774:	e2901379 	adds	r1, r0, #-469762047	; 0xe4000001

00000778 <l219>:
     778:	41b036c3 	asrsmi	r3, r3, #13

0000077c <l220>:
     77c:	eaffffff 	b	780 <l221>

00000780 <l221>:
     780:	e1530e1c 	cmp	r3, ip, lsl lr

00000784 <l222>:
     784:	e59f4000 	ldr	r4, [pc]	; 78c <l224>

00000788 <l223>:
     788:	ea000000 	b	790 <l225>

0000078c <l224>:
     78c:	000fffe8 	.word	0x000fffe8

00000790 <l225>:
     790:	31443091 	swpbcc	r3, r1, [r4]

00000794 <l226>:
     794:	a16f5f1c 	clzge	r5, ip

00000798 <l227>:
     798:	202aa066 	eorcs	sl, sl, r6, rrx

0000079c <l228>:
     79c:	efa98a05 	svc	0x00a98a05

000007a0 <l229>:
     7a0:	e25382ab 	subs	r8, r3, #-1342177270	; 0xb000000a

000007a4 <interrupt_771>:
     7a4:	e59f9000 	ldr	r9, [pc]	; 7ac <l232>

000007a8 <l231>:
     7a8:	ea000000 	b	7b0 <l233>

000007ac <l232>:
     7ac:	000fffe8 	.word	0x000fffe8

000007b0 <l233>:
     7b0:	b149a093 	swpblt	sl, r3, [r9]

000007b4 <interrupt_410>:
     7b4:	215d11fe 	ldrshcs	r1, [sp, #-30]	; 0xffffffe2

000007b8 <interrupt_86>:
     7b8:	e00a135c 	and	r1, sl, ip, asr r3

000007bc <l236>:
     7bc:	a091aa05 	addsge	sl, r1, r5, lsl #20

000007c0 <l237>:
     7c0:	e1dd81fa 	ldrsh	r8, [sp, #26]

000007c4 <l238>:
     7c4:	e41d4004 	ldr	r4, [sp], #-4

000007c8 <l239>:
     7c8:	e5bda004 	ldr	sl, [sp, #4]!

000007cc <l240>:
     7cc:	3a000004 	bcc	7e4 <l246>

000007d0 <l241>:
     7d0:	e280108e 	add	r1, r0, #142	; 0x8e

000007d4 <interrupt_267>:
     7d4:	e1d2906a 	bics	r9, r2, sl, rrx

000007d8 <interrupt_310>:
     7d8:	e0085302 	and	r5, r8, r2, lsl #6

000007dc <interrupt_283>:
     7dc:	c0e5600e 	rscgt	r6, r5, lr

000007e0 <l245>:
     7e0:	ea000000 	b	7e8 <interrupt_872>

000007e4 <l246>:
     7e4:	eafffffa 	b	7d4 <interrupt_267>

000007e8 <interrupt_872>:
     7e8:	e1c9e00c 	bic	lr, r9, ip

000007ec <l248>:
     7ec:	ca000005 	bgt	808 <l255>

000007f0 <l249>:
     7f0:	e2801013 	add	r1, r0, #19

000007f4 <l250>:
     7f4:	22104d2a 	andscs	r4, r0, #2688	; 0xa80

000007f8 <l251>:
     7f8:	91e03000 	mvnls	r3, r0

000007fc <l252>:
     7fc:	e3b010c0 	movs	r1, #192	; 0xc0

00000800 <l253>:
     800:	c1700001 	cmngt	r0, r1

00000804 <l254>:
     804:	ea000000 	b	80c <l256>

00000808 <l255>:
     808:	eafffff9 	b	7f4 <l250>

0000080c <l256>:
     80c:	e14dc2b6 	strh	ip, [sp, #-38]	; 0xffffffda

00000810 <interrupt_473>:
     810:	e82dc190 	stmda	sp!, {r4, r7, r8, lr, pc}

00000814 <l258>:
     814:	effc8854 	svc	0x00fc8854

00000818 <l259>:
     818:	ba000005 	blt	834 <interrupt_631>

0000081c <l260>:
     81c:	e280108c 	add	r1, r0, #140	; 0x8c

00000820 <l261>:
     820:	e1e08004 	mvn	r8, r4

00000824 <l262>:
     824:	5258b8b3 	subspl	fp, r8, #11730944	; 0xb30000

00000828 <l263>:
     828:	6194823c 	orrsvs	r8, r4, ip, lsr r2

0000082c <l264>:
     82c:	1069000b 	rsbne	r0, r9, fp

00000830 <l265>:
     830:	ea000000 	b	838 <l267>

00000834 <interrupt_631>:
     834:	eafffff9 	b	820 <l261>

00000838 <l267>:
     838:	e2527a2a 	subs	r7, r2, #172032	; 0x2a000

0000083c <l268>:
     83c:	822e784f 	eorhi	r7, lr, #5177344	; 0x4f0000

00000840 <interrupt_841>:
     840:	b08e0b25 	addlt	r0, lr, r5, lsr #22

00000844 <interrupt_809>:
     844:	e82d2000 	stmda	sp!, {sp}

00000848 <l271>:
     848:	efd73bd5 	svc	0x00d73bd5

0000084c <l272>:
     84c:	e9bd0044 	ldmib	sp!, {r2, r6}

00000850 <l273>:
     850:	41dd70be 	ldrhmi	r7, [sp, #14]

00000854 <l274>:
     854:	10e85067 	rscne	r5, r8, r7, rrx

00000858 <l275>:
     858:	e8bd0254 	pop	{r2, r4, r6, r9}

0000085c <l276>:
     85c:	9a000007 	bls	880 <l285>

00000860 <interrupt_974>:
     860:	e05bc35c 	subs	ip, fp, ip, asr r3

00000864 <l278>:
     864:	5130044f 	teqpl	r0, pc, asr #8

00000868 <l279>:
     868:	80dbc1a5 	sbcshi	ip, fp, r5, lsr #3

0000086c <l280>:
     86c:	e0595a0a 	subs	r5, r9, sl, lsl #20

00000870 <l281>:
     870:	e089e00b 	add	lr, r9, fp

00000874 <interrupt_461>:
     874:	e0398006 	eors	r8, r9, r6

00000878 <l283>:
     878:	e038488e 	eors	r4, r8, lr, lsl #17

0000087c <l284>:
     87c:	e021e057 	eor	lr, r1, r7, asr r0

00000880 <l285>:
     880:	e3340f82 	teq	r4, #520	; 0x208

00000884 <l286>:
     884:	e3a06015 	mov	r6, #21

00000888 <l287>:
     888:	e19d20d6 	ldrsb	r2, [sp, r6]

0000088c <l288>:
     88c:	e088e06e 	add	lr, r8, lr, rrx

00000890 <l289>:
     890:	ca000002 	bgt	8a0 <interrupt_968>

00000894 <l290>:
     894:	c2c23b2f 	sbcgt	r3, r2, #48128	; 0xbc00

00000898 <l291>:
     898:	2153006b 	cmpcs	r3, fp, rrx

0000089c <interrupt_554>:
     89c:	e16f6f13 	clz	r6, r3

000008a0 <interrupt_968>:
     8a0:	903ec374 	eorsls	ip, lr, r4, ror r3

000008a4 <l294>:
     8a4:	e3a07007 	mov	r7, #7

000008a8 <l295>:
     8a8:	e11d30d7 	ldrsb	r3, [sp, -r7]

000008ac <l296>:
     8ac:	e3a0801a 	mov	r8, #26

000008b0 <l297>:
     8b0:	e11d50b8 	ldrh	r5, [sp, -r8]

000008b4 <l298>:
     8b4:	e1790f64 	cmn	r9, r4, ror #30

000008b8 <l299>:
     8b8:	e3510831 	cmp	r1, #3211264	; 0x310000

000008bc <l300>:
     8bc:	ef9eb2a4 	svc	0x009eb2a4

000008c0 <l301>:
     8c0:	e0584060 	subs	r4, r8, r0, rrx

000008c4 <interrupt_828>:
     8c4:	91dba8ef 	bicsls	sl, fp, pc, ror #17

000008c8 <l303>:
     8c8:	e3a0a022 	mov	sl, #34	; 0x22

000008cc <interrupt_235>:
     8cc:	e74d100a 	strb	r1, [sp, -sl]

000008d0 <l305>:
     8d0:	e83d57f4 	ldmda	sp!, {r2, r4, r5, r6, r7, r8, r9, sl, ip, lr}

000008d4 <l306>:
     8d4:	a1f06001 	mvnsge	r6, r1

000008d8 <l307>:
     8d8:	ef901ff1 	svc	0x00901ff1

000008dc <l308>:
     8dc:	e1a00000 	nop			; (mov r0, r0)

000008e0 <interrupt_320>:
     8e0:	816f6f17 	clzhi	r6, r7

000008e4 <l310>:
     8e4:	e0d4b008 	sbcs	fp, r4, r8

000008e8 <interrupt_5>:
     8e8:	404f1d6e 	submi	r1, pc, lr, ror #26

000008ec <l312>:
     8ec:	e0b7a237 	adcs	sl, r7, r7, lsr r2

000008f0 <l313>:
     8f0:	30f23788 	rscscc	r3, r2, r8, lsl #15

000008f4 <l314>:
     8f4:	00d0700a 	sbcseq	r7, r0, sl

000008f8 <l315>:
     8f8:	92fb8d73 	rscsls	r8, fp, #7360	; 0x1cc0

000008fc <l316>:
     8fc:	816fef1a 	clzhi	lr, sl

00000900 <l317>:
     900:	e5bdc03c 	ldr	ip, [sp, #60]!	; 0x3c

00000904 <l318>:
     904:	e3a0a01c 	mov	sl, #28

00000908 <interrupt_626>:
     908:	e11d10da 	ldrsb	r1, [sp, -sl]

0000090c <interrupt_810>:
     90c:	b18b081e 	orrlt	r0, fp, lr, lsl r8

00000910 <l321>:
     910:	e1a00000 	nop			; (mov r0, r0)

00000914 <l322>:
     914:	e3a03035 	mov	r3, #53	; 0x35

00000918 <l323>:
     918:	611d50d3 	ldrsbvs	r5, [sp, -r3]

0000091c <l324>:
     91c:	e83d5f5f 	ldmda	sp!, {r0, r1, r2, r3, r4, r6, r8, r9, sl, fp, ip, lr}

00000920 <interrupt_483>:
     920:	e3a0b032 	mov	fp, #50	; 0x32

00000924 <l326>:
     924:	e7dd300b 	ldrb	r3, [sp, fp]

00000928 <interrupt_247>:
     928:	e49db008 	ldr	fp, [sp], #8

0000092c <l328>:
     92c:	b80d0400 	stmdalt	sp, {sl}

00000930 <l329>:
     930:	e59f1000 	ldr	r1, [pc]	; 938 <interrupt_537>

00000934 <l330>:
     934:	ea000000 	b	93c <interrupt_286>

00000938 <interrupt_537>:
     938:	000fffd4 	.word	0x000fffd4

0000093c <interrupt_286>:
     93c:	91419098 	swpbls	r9, r8, [r1]

00000940 <l333>:
     940:	e1cdb0b0 	strh	fp, [sp]

00000944 <l334>:
     944:	e9bd577c 	ldmib	sp!, {r2, r3, r4, r5, r6, r8, r9, sl, ip, lr}

00000948 <l335>:
     948:	10004001 	andne	r4, r0, r1

0000094c <l336>:
     94c:	c3760933 	cmngt	r6, #835584	; 0xcc000

00000950 <l337>:
     950:	e9ad0040 	stmib	sp!, {r6}

00000954 <interrupt_720>:
     954:	e1a00000 	nop			; (mov r0, r0)

00000958 <l339>:
     958:	e2ac6b4e 	adc	r6, ip, #79872	; 0x13800

0000095c <l340>:
     95c:	d0e84b55 	rscle	r4, r8, r5, asr fp

00000960 <l341>:
     960:	50e1c004 	rscpl	ip, r1, r4

00000964 <interrupt_294>:
     964:	950d3044 	strls	r3, [sp, #-68]	; 0x44

00000968 <l343>:
     968:	41d7200b 	bicsmi	r2, r7, fp

0000096c <l344>:
     96c:	e41d802c 	ldr	r8, [sp], #-44	; 0x2c

00000970 <interrupt_414>:
     970:	efd2b76a 	svc	0x00d2b76a

00000974 <l346>:
     974:	7a000008 	bvc	99c <l356>

00000978 <l347>:
     978:	723a7c6f 	eorsvc	r7, sl, #28416	; 0x6f00

0000097c <interrupt_129>:
     97c:	603b7007 	eorsvs	r7, fp, r7

00000980 <l349>:
     980:	a24f1421 	subge	r1, pc, #553648128	; 0x21000000

00000984 <l350>:
     984:	21d3a062 	bicscs	sl, r3, r2, rrx

00000988 <l351>:
     988:	21e0653b 	mvncs	r6, fp, lsr r5

0000098c <l352>:
     98c:	e0f9c001 	rscs	ip, r9, r1

00000990 <l353>:
     990:	02ccba2e 	sbceq	fp, ip, #188416	; 0x2e000

00000994 <l354>:
     994:	c15b03ae 	cmpgt	fp, lr, lsr #7

00000998 <l355>:
     998:	50ac5007 	adcpl	r5, ip, r7

0000099c <l356>:
     99c:	511b0355 	tstpl	fp, r5, asr r3

000009a0 <l357>:
     9a0:	e3a0e024 	mov	lr, #36	; 0x24

000009a4 <l358>:
     9a4:	e78d600e 	str	r6, [sp, lr]

000009a8 <interrupt_939>:
     9a8:	ea000003 	b	9bc <interrupt_676>

000009ac <l360>:
     9ac:	e1570068 	cmp	r7, r8, rrx

000009b0 <l361>:
     9b0:	a04b4007 	subge	r4, fp, r7

000009b4 <l362>:
     9b4:	70be187a 	adcsvc	r1, lr, sl, ror r8

000009b8 <l363>:
     9b8:	e0c79639 	sbc	r9, r7, r9, lsr r6

000009bc <interrupt_676>:
     9bc:	e1f01006 	mvns	r1, r6

000009c0 <l365>:
     9c0:	e59f9000 	ldr	r9, [pc]	; 9c8 <l367>

000009c4 <l366>:
     9c4:	ea000000 	b	9cc <l368>

000009c8 <l367>:
     9c8:	000fffa0 	.word	0x000fffa0

000009cc <l368>:
     9cc:	e1094092 	swp	r4, r2, [r9]

000009d0 <l369>:
     9d0:	81dd21b0 	ldrhhi	r2, [sp, #16]

000009d4 <l370>:
     9d4:	e0e7b55e 	rsc	fp, r7, lr, asr r5

000009d8 <interrupt_839>:
     9d8:	ef7716fb 	svc	0x007716fb

000009dc <l372>:
     9dc:	e1df206b 	bics	r2, pc, fp, rrx

000009e0 <l373>:
     9e0:	e99d4cfe 	ldmib	sp, {r1, r2, r3, r4, r5, r6, r7, sl, fp, lr}

000009e4 <l374>:
     9e4:	d3750c9a 	cmnle	r5, #39424	; 0x9a00

000009e8 <l375>:
     9e8:	911e091c 	tstls	lr, ip, lsl r9

000009ec <l376>:
     9ec:	e1a06e3e 	lsr	r6, lr, lr

000009f0 <l377>:
     9f0:	b31900ce 	tstlt	r9, #206	; 0xce

000009f4 <l378>:
     9f4:	a3f0b399 	mvnsge	fp, #1677721602	; 0x64000002

000009f8 <l379>:
     9f8:	ef495c6a 	svc	0x00495c6a

000009fc <l380>:
     9fc:	a1f05a60 	mvnsge	r5, r0, ror #20

00000a00 <l381>:
     a00:	e55d5004 	ldrb	r5, [sp, #-4]

00000a04 <interrupt_863>:
     a04:	111b006f 	tstne	fp, pc, rrx

00000a08 <interrupt_687>:
     a08:	e59fc000 	ldr	ip, [pc]	; a10 <l385>

00000a0c <interrupt_36>:
     a0c:	ea000000 	b	a14 <l386>

00000a10 <l385>:
     a10:	000fffd8 	.word	0x000fffd8

00000a14 <l386>:
     a14:	110c3090 	swpne	r3, r0, [ip]

00000a18 <l387>:
     a18:	10aa5007 	adcne	r5, sl, r7

00000a1c <l388>:
     a1c:	415d11f6 	ldrshmi	r1, [sp, #-22]	; 0xffffffea

00000a20 <l389>:
     a20:	d184a218 	orrle	sl, r4, r8, lsl r2

00000a24 <l390>:
     a24:	9236236d 	eorsls	r2, r6, #-1275068415	; 0xb4000001

00000a28 <interrupt_32>:
     a28:	3041300c 	subcc	r3, r1, ip

00000a2c <interrupt_795>:
     a2c:	9a000000 	bls	a34 <l394>

00000a30 <l393>:
     a30:	328bb846 	addcc	fp, fp, #4587520	; 0x460000

00000a34 <l394>:
     a34:	e263042b 	rsb	r0, r3, #721420288	; 0x2b000000

00000a38 <interrupt_33>:
     a38:	e3a08018 	mov	r8, #24

00000a3c <l396>:
     a3c:	011d70f8 	ldrsheq	r7, [sp, -r8]

00000a40 <l397>:
     a40:	a2d1030b 	sbcsge	r0, r1, #738197504	; 0x2c000000

00000a44 <l398>:
     a44:	c281181f 	addgt	r1, r1, #2031616	; 0x1f0000

00000a48 <l399>:
     a48:	41cc6007 	bicmi	r6, ip, r7

00000a4c <interrupt_700>:
     a4c:	e1887571 	orr	r7, r8, r1, ror r5

00000a50 <l401>:
     a50:	e55d101c 	ldrb	r1, [sp, #-28]

00000a54 <l402>:
     a54:	103c300b 	eorsne	r3, ip, fp

00000a58 <l403>:
     a58:	e90d0c80 	stmdb	sp, {r7, sl, fp}

00000a5c <l404>:
     a5c:	e93d4000 	ldmdb	sp!, {lr}

00000a60 <interrupt_512>:
     a60:	e0b55007 	adcs	r5, r5, r7

00000a64 <l406>:
     a64:	e3a0c02b 	mov	ip, #43	; 0x2b

00000a68 <l407>:
     a68:	019d20dc 	ldrsbeq	r2, [sp, ip]

00000a6c <l408>:
     a6c:	e3e0140d 	mvn	r1, #218103808	; 0xd000000

00000a70 <l409>:
     a70:	50fc6453 	rscspl	r6, ip, r3, asr r4

00000a74 <l410>:
     a74:	80e60009 	rschi	r0, r6, r9

00000a78 <l411>:
     a78:	e59f4000 	ldr	r4, [pc]	; a80 <l413>

00000a7c <l412>:
     a7c:	ea000000 	b	a84 <interrupt_458>

00000a80 <l413>:
     a80:	000fffbc 	.word	0x000fffbc

00000a84 <interrupt_458>:
     a84:	c144709c 	swpbgt	r7, ip, [r4]

00000a88 <l415>:
     a88:	e250a723 	subs	sl, r0, #9175040	; 0x8c0000

00000a8c <l416>:
     a8c:	e02b3212 	eor	r3, fp, r2, lsl r2

00000a90 <l417>:
     a90:	5047a47b 	subpl	sl, r7, fp, ror r4

00000a94 <interrupt_315>:
     a94:	0a000005 	beq	ab0 <l425>

00000a98 <l419>:
     a98:	b0dfc00a 	sbcslt	ip, pc, sl

00000a9c <interrupt_583>:
     a9c:	e18c700e 	orr	r7, ip, lr

00000aa0 <l421>:
     aa0:	00c3800a 	sbceq	r8, r3, sl

00000aa4 <l422>:
     aa4:	00975c72 	addseq	r5, r7, r2, ror ip

00000aa8 <l423>:
     aa8:	51c7e069 	bicpl	lr, r7, r9, rrx

00000aac <interrupt_423>:
     aac:	605b9311 	subsvs	r9, fp, r1, lsl r3

00000ab0 <l425>:
     ab0:	20160747 	andscs	r0, r6, r7, asr #14

00000ab4 <l426>:
     ab4:	e3a00031 	mov	r0, #49	; 0x31

00000ab8 <l427>:
     ab8:	c19db0d0 	ldrsbgt	fp, [sp, r0]

00000abc <interrupt_321>:
     abc:	e1310f62 	teq	r1, r2, ror #30

00000ac0 <l429>:
     ac0:	e22badc1 	eor	sl, fp, #12352	; 0x3040

00000ac4 <interrupt_513>:
     ac4:	73a0269a 	movvc	r2, #161480704	; 0x9a00000

00000ac8 <l431>:
     ac8:	e0494088 	sub	r4, r9, r8, lsl #1

00000acc <l432>:
     acc:	c1968007 	orrsgt	r8, r6, r7

00000ad0 <l433>:
     ad0:	e058b2e1 	subs	fp, r8, r1, ror #5

00000ad4 <l434>:
     ad4:	e3a0a01f 	mov	sl, #31

00000ad8 <l435>:
     ad8:	e7cd700a 	strb	r7, [sp, sl]

00000adc <interrupt_997>:
     adc:	e8bd14f5 	pop	{r0, r2, r4, r5, r6, r7, sl, ip}

00000ae0 <l437>:
     ae0:	0182606a 	orreq	r6, r2, sl, rrx

00000ae4 <l438>:
     ae4:	c11b0b35 	tstgt	fp, r5, lsr fp

00000ae8 <interrupt_643>:
     ae8:	51dde0dd 	ldrsbpl	lr, [sp, #13]

00000aec <interrupt_903>:
     aec:	9338014f 	teqls	r8, #-1073741805	; 0xc0000013

00000af0 <l441>:
     af0:	e92da000 	push	{sp, pc}

00000af4 <interrupt_389>:
     af4:	e3d6236b 	bics	r2, r6, #-1409286143	; 0xac000001

00000af8 <l443>:
     af8:	e16f1f15 	clz	r1, r5

00000afc <l444>:
     afc:	b1150003 	tstlt	r5, r3

00000b00 <interrupt_83>:
     b00:	b1340a68 	teqlt	r4, r8, ror #20

00000b04 <l446>:
     b04:	05cda000 	strbeq	sl, [sp]

00000b08 <interrupt_690>:
     b08:	e3a0b017 	mov	fp, #23

00000b0c <l448>:
     b0c:	811d30db 	ldrsbhi	r3, [sp, -fp]

00000b10 <interrupt_216>:
     b10:	d31f02a6 	tstle	pc, #1610612746	; 0x6000000a

00000b14 <l450>:
     b14:	e41da018 	ldr	sl, [sp], #-24

00000b18 <l451>:
     b18:	20d8e005 	sbcscs	lr, r8, r5

00000b1c <interrupt_848>:
     b1c:	b3700fbb 	cmnlt	r0, #748	; 0x2ec

00000b20 <l453>:
     b20:	e59f2000 	ldr	r2, [pc]	; b28 <l455>

00000b24 <l454>:
     b24:	ea000000 	b	b2c <l456>

00000b28 <l455>:
     b28:	000fffa8 	.word	0x000fffa8

00000b2c <l456>:
     b2c:	91424096 	swpbls	r4, r6, [r2]

00000b30 <interrupt_297>:
     b30:	e150000f 	cmp	r0, pc

00000b34 <interrupt_84>:
     b34:	b16f6f1e 	clzlt	r6, lr

00000b38 <l459>:
     b38:	42591b37 	subsmi	r1, r9, #56320	; 0xdc00

00000b3c <l460>:
     b3c:	ea000001 	b	b48 <l463>

00000b40 <l461>:
     b40:	e1f03153 	mvns	r3, r3, asr r1

00000b44 <l462>:
     b44:	e24f0803 	sub	r0, pc, #196608	; 0x30000

00000b48 <l463>:
     b48:	e0c36112 	sbc	r6, r3, r2, lsl r1

00000b4c <interrupt_878>:
     b4c:	4a000002 	bmi	b5c <interrupt_963>

00000b50 <l465>:
     b50:	0051a920 	subseq	sl, r1, r0, lsr #18

00000b54 <interrupt_52>:
     b54:	62bc2ac1 	adcsvs	r2, ip, #790528	; 0xc1000

00000b58 <l467>:
     b58:	e20c60c1 	and	r6, ip, #193	; 0xc1

00000b5c <interrupt_963>:
     b5c:	e1c170e9 	bic	r7, r1, r9, ror #1

00000b60 <interrupt_913>:
     b60:	e0a4800f 	adc	r8, r4, pc

00000b64 <l470>:
     b64:	e59f7000 	ldr	r7, [pc]	; b6c <interrupt_767>

00000b68 <interrupt_75>:
     b68:	ea000000 	b	b70 <l473>

00000b6c <interrupt_767>:
     b6c:	000fffd0 	.word	0x000fffd0

00000b70 <l473>:
     b70:	e147009a 	swpb	r0, sl, [r7]

00000b74 <l474>:
     b74:	a2174b13 	andsge	r4, r7, #19456	; 0x4c00

00000b78 <l475>:
     b78:	017f000a 	cmneq	pc, sl

00000b7c <interrupt_874>:
     b7c:	e83d0440 	ldmda	sp!, {r6, sl}

00000b80 <interrupt_408>:
     b80:	72569d8b 	subsvc	r9, r6, #8896	; 0x22c0

00000b84 <l478>:
     b84:	e3a06034 	mov	r6, #52	; 0x34

00000b88 <interrupt_509>:
     b88:	919dc0f6 	ldrshls	ip, [sp, r6]

00000b8c <l480>:
     b8c:	414d60b6 	strhmi	r6, [sp, #-6]

00000b90 <interrupt_711>:
     b90:	a17b0c35 	cmnge	fp, r5, lsr ip

00000b94 <l482>:
     b94:	e0bb8b7b 	adcs	r8, fp, fp, ror fp

00000b98 <l483>:
     b98:	4affffff 	bmi	b9c <l484>

00000b9c <l484>:
     b9c:	e079a203 	rsbs	sl, r9, r3, lsl #4

00000ba0 <l485>:
     ba0:	e03a760e 	eors	r7, sl, lr, lsl #12

00000ba4 <l486>:
     ba4:	e3d5903c 	bics	r9, r5, #60	; 0x3c

00000ba8 <l487>:
     ba8:	e1a00000 	nop			; (mov r0, r0)

00000bac <l488>:
     bac:	12719dc7 	rsbsne	r9, r1, #12736	; 0x31c0

00000bb0 <interrupt_575>:
     bb0:	e59fb000 	ldr	fp, [pc]	; bb8 <l491>

00000bb4 <l490>:
     bb4:	ea000000 	b	bbc <l492>

00000bb8 <l491>:
     bb8:	000fffcc 	.word	0x000fffcc

00000bbc <l492>:
     bbc:	b10b0090 	swplt	r0, r0, [fp]

00000bc0 <l493>:
     bc0:	116f6f15 	clzne	r6, r5

00000bc4 <l494>:
     bc4:	e0245009 	eor	r5, r4, r9

00000bc8 <interrupt_354>:
     bc8:	e3a00030 	mov	r0, #48	; 0x30

00000bcc <l496>:
     bcc:	e19d60b0 	ldrh	r6, [sp, r0]

00000bd0 <l497>:
     bd0:	81570005 	cmphi	r7, r5

00000bd4 <interrupt_620>:
     bd4:	681d0020 	ldmdavs	sp, {r5}

00000bd8 <l499>:
     bd8:	e59f7000 	ldr	r7, [pc]	; be0 <l501>

00000bdc <l500>:
     bdc:	ea000000 	b	be4 <l502>

00000be0 <l501>:
     be0:	000fffe8 	.word	0x000fffe8

00000be4 <l502>:
     be4:	0147a09a 	swpbeq	sl, sl, [r7]

00000be8 <l503>:
     be8:	619c800c 	orrsvs	r8, ip, ip

00000bec <interrupt_785>:
     bec:	0a000000 	beq	bf4 <l506>

00000bf0 <l505>:
     bf0:	e008500b 	and	r5, r8, fp

00000bf4 <l506>:
     bf4:	e0d8b00a 	sbcs	fp, r8, sl

00000bf8 <l507>:
     bf8:	e1dd03ba 	ldrh	r0, [sp, #58]	; 0x3a

00000bfc <l508>:
     bfc:	a1cd42b8 	strhge	r4, [sp, #40]	; 0x28

00000c00 <interrupt_926>:
     c00:	aa000007 	bge	c24 <l518>

00000c04 <l510>:
     c04:	e2801046 	add	r1, r0, #70	; 0x46

00000c08 <l511>:
     c08:	616f4f1c 	clzvs	r4, ip

00000c0c <l512>:
     c0c:	e130038e 	teq	r0, lr, lsl #7

00000c10 <l513>:
     c10:	d05393c9 	subsle	r9, r3, r9, asr #7

00000c14 <l514>:
     c14:	711e0f6e 	tstvc	lr, lr, ror #30

00000c18 <l515>:
     c18:	200e9001 	andcs	r9, lr, r1

00000c1c <l516>:
     c1c:	10412087 	subne	r2, r1, r7, lsl #1

00000c20 <l517>:
     c20:	ea000000 	b	c28 <interrupt_993>

00000c24 <l518>:
     c24:	eafffff7 	b	c08 <l511>

00000c28 <interrupt_993>:
     c28:	32d8a927 	sbcscc	sl, r8, #638976	; 0x9c000

00000c2c <interrupt_769>:
     c2c:	d0b30beb 	adcsle	r0, r3, fp, ror #23

00000c30 <l521>:
     c30:	0a000007 	beq	c54 <l530>

00000c34 <l522>:
     c34:	e28010a1 	add	r1, r0, #161	; 0xa1

00000c38 <l523>:
     c38:	c0e1906f 	rscgt	r9, r1, pc, rrx

00000c3c <l524>:
     c3c:	e057e413 	subs	lr, r7, r3, lsl r4

00000c40 <l525>:
     c40:	e0f67f40 	rscs	r7, r6, r0, asr #30

00000c44 <l526>:
     c44:	e16f9f1a 	clz	r9, sl

00000c48 <l527>:
     c48:	e15c0009 	cmp	ip, r9

00000c4c <l528>:
     c4c:	20869066 	addcs	r9, r6, r6, rrx

00000c50 <interrupt_290>:
     c50:	ea000000 	b	c58 <l531>

00000c54 <l530>:
     c54:	eafffff7 	b	c38 <l523>

00000c58 <l531>:
     c58:	715c0daf 	cmpvc	ip, pc, lsr #27

00000c5c <interrupt_908>:
     c5c:	e3a0701c 	mov	r7, #28

00000c60 <l533>:
     c60:	e7cd9007 	strb	r9, [sp, r7]

00000c64 <l534>:
     c64:	e15d81b0 	ldrh	r8, [sp, #-16]

00000c68 <l535>:
     c68:	91dd91d3 	ldrsbls	r9, [sp, #19]

00000c6c <l536>:
     c6c:	ba000004 	blt	c84 <l542>

00000c70 <l537>:
     c70:	913502c8 	teqls	r5, r8, asr #5

00000c74 <l538>:
     c74:	0242278f 	subeq	r2, r2, #37486592	; 0x23c0000

00000c78 <l539>:
     c78:	90f4ec52 	rscsls	lr, r4, r2, asr ip

00000c7c <l540>:
     c7c:	e077b002 	rsbs	fp, r7, r2

00000c80 <l541>:
     c80:	e1e03ca3 	mvn	r3, r3, lsr #25

00000c84 <l542>:
     c84:	e293b000 	adds	fp, r3, #0

00000c88 <interrupt_942>:
     c88:	efdf58a6 	svc	0x00df58a6

00000c8c <interrupt_684>:
     c8c:	e1dd62f2 	ldrsh	r6, [sp, #34]	; 0x22

00000c90 <l545>:
     c90:	efeb3e68 	svc	0x00eb3e68

00000c94 <l546>:
     c94:	e59fc000 	ldr	ip, [pc]	; c9c <interrupt_793>

00000c98 <l547>:
     c98:	ea000000 	b	ca0 <l549>

00000c9c <interrupt_793>:
     c9c:	000fffd0 	.word	0x000fffd0

00000ca0 <l549>:
     ca0:	a14c0095 	swpbge	r0, r5, [ip]

00000ca4 <l550>:
     ca4:	e0dfb00e 	sbcs	fp, pc, lr

00000ca8 <l551>:
     ca8:	106b3002 	rsbne	r3, fp, r2

00000cac <l552>:
     cac:	e1a00455 	asr	r0, r5, r4

00000cb0 <interrupt_199>:
     cb0:	a3d3caab 	bicsge	ip, r3, #700416	; 0xab000

00000cb4 <l554>:
     cb4:	216f2f1b 	clzcs	r2, fp

00000cb8 <l555>:
     cb8:	10ae2b19 	adcne	r2, lr, r9, lsl fp

00000cbc <interrupt_490>:
     cbc:	215e0319 	cmpcs	lr, r9, lsl r3

00000cc0 <l557>:
     cc0:	e35e0ede 	cmp	lr, #3552	; 0xde0

00000cc4 <l558>:
     cc4:	e1ddc3b8 	ldrh	ip, [sp, #56]	; 0x38

00000cc8 <l559>:
     cc8:	e59fa000 	ldr	sl, [pc]	; cd0 <l561>

00000ccc <l560>:
     ccc:	ea000000 	b	cd4 <l562>

00000cd0 <l561>:
     cd0:	000fffbc 	.word	0x000fffbc

00000cd4 <l562>:
     cd4:	d14ab090 	swpble	fp, r0, [sl]

00000cd8 <l563>:
     cd8:	eaffffff 	b	cdc <l564>

00000cdc <l564>:
     cdc:	e221110a 	eor	r1, r1, #-2147483646	; 0x80000002

00000ce0 <l565>:
     ce0:	31956008 	orrscc	r6, r5, r8

00000ce4 <l566>:
     ce4:	e16f4f17 	clz	r4, r7

00000ce8 <l567>:
     ce8:	e16f2f14 	clz	r2, r4

00000cec <l568>:
     cec:	216f0f1a 	clzcs	r0, sl

00000cf0 <interrupt_838>:
     cf0:	798dae9f 	stmibvc	sp, {r0, r1, r2, r3, r4, r7, r9, sl, fp, sp, pc}

00000cf4 <l570>:
     cf4:	e3a06004 	mov	r6, #4

00000cf8 <l571>:
     cf8:	e78d6006 	str	r6, [sp, r6]

00000cfc <interrupt_3>:
     cfc:	e1a0ec21 	lsr	lr, r1, #24

00000d00 <l573>:
     d00:	e07f6000 	rsbs	r6, pc, r0

00000d04 <l574>:
     d04:	e03f8b21 	eors	r8, pc, r1, lsr #22

00000d08 <l575>:
     d08:	e3a09025 	mov	r9, #37	; 0x25

00000d0c <l576>:
     d0c:	c7cdc009 	strbgt	ip, [sp, r9]

00000d10 <l577>:
     d10:	efe72481 	svc	0x00e72481

00000d14 <l578>:
     d14:	e0460006 	sub	r0, r6, r6

00000d18 <interrupt_307>:
     d18:	413e006f 	teqmi	lr, pc, rrx

00000d1c <interrupt_868>:
     d1c:	efbf4e2e 	svc	0x00bf4e2e

00000d20 <l581>:
     d20:	83b03df3 	movshi	r3, #15552	; 0x3cc0

00000d24 <l582>:
     d24:	716f1f14 	clzvc	r1, r4

00000d28 <interrupt_950>:
     d28:	e3a05028 	mov	r5, #40	; 0x28

00000d2c <l584>:
     d2c:	b7cdb005 	strblt	fp, [sp, r5]

00000d30 <l585>:
     d30:	e2b2cead 	adcs	ip, r2, #2768	; 0xad0

00000d34 <l586>:
     d34:	e393a607 	orrs	sl, r3, #7340032	; 0x700000

00000d38 <interrupt_898>:
     d38:	ef5c50aa 	svc	0x005c50aa

00000d3c <l588>:
     d3c:	c0f4c062 	rscsgt	ip, r4, r2, rrx

00000d40 <l589>:
     d40:	e0b05178 	adcs	r5, r0, r8, ror r1

00000d44 <l590>:
     d44:	e1740061 	cmn	r4, r1, rrx

00000d48 <interrupt_650>:
     d48:	d241e068 	suble	lr, r1, #104	; 0x68

00000d4c <interrupt_754>:
     d4c:	e3a01022 	mov	r1, #34	; 0x22

00000d50 <l593>:
     d50:	419d10b1 	ldrhmi	r1, [sp, r1]

00000d54 <l594>:
     d54:	e59f1000 	ldr	r1, [pc]	; d5c <l596>

00000d58 <l595>:
     d58:	ea000000 	b	d60 <l597>

00000d5c <l596>:
     d5c:	000fffb0 	.word	0x000fffb0

00000d60 <l597>:
     d60:	3101909b 	swpcc	r9, fp, [r1]

00000d64 <l598>:
     d64:	71e0a003 	mvnvc	sl, r3

00000d68 <l599>:
     d68:	281d0002 	ldmdacs	sp, {r1}

00000d6c <l600>:
     d6c:	e15c0001 	cmp	ip, r1

00000d70 <l601>:
     d70:	e1110051 	tst	r1, r1, asr r0

00000d74 <l602>:
     d74:	e3a03034 	mov	r3, #52	; 0x34

00000d78 <l603>:
     d78:	319de0d3 	ldrsbcc	lr, [sp, r3]

00000d7c <l604>:
     d7c:	507e2c54 	rsbspl	r2, lr, r4, asr ip

00000d80 <l605>:
     d80:	e5cd9029 	strb	r9, [sp, #41]	; 0x29

00000d84 <l606>:
     d84:	3110000e 	tstcc	r0, lr

00000d88 <l607>:
     d88:	e113006a 	tst	r3, sl, rrx

00000d8c <l608>:
     d8c:	e0c47c26 	sbc	r7, r4, r6, lsr #24

00000d90 <l609>:
     d90:	a0993068 	addsge	r3, r9, r8, rrx

00000d94 <l610>:
     d94:	8a000003 	bhi	da8 <interrupt_180>

00000d98 <interrupt_150>:
     d98:	e2801034 	add	r1, r0, #52	; 0x34

00000d9c <l612>:
     d9c:	e0217000 	eor	r7, r1, r0

00000da0 <l613>:
     da0:	e0e02de3 	rsc	r2, r0, r3, ror #27

00000da4 <l614>:
     da4:	ea000000 	b	dac <l616>

00000da8 <interrupt_180>:
     da8:	eafffffb 	b	d9c <l612>

00000dac <l616>:
     dac:	e59f7000 	ldr	r7, [pc]	; db4 <l618>

00000db0 <l617>:
     db0:	ea000000 	b	db8 <l619>

00000db4 <l618>:
     db4:	000fffe8 	.word	0x000fffe8

00000db8 <l619>:
     db8:	d147a09e 	swpble	sl, lr, [r7]

00000dbc <l620>:
     dbc:	e1f04472 	mvns	r4, r2, ror r4

00000dc0 <l621>:
     dc0:	e59f6000 	ldr	r6, [pc]	; dc8 <l623>

00000dc4 <l622>:
     dc4:	ea000000 	b	dcc <interrupt_11>

00000dc8 <l623>:
     dc8:	000fffc8 	.word	0x000fffc8

00000dcc <interrupt_11>:
     dcc:	01462097 	swpbeq	r2, r7, [r6]

00000dd0 <interrupt_222>:
     dd0:	52587671 	subspl	r7, r8, #118489088	; 0x7100000

00000dd4 <l626>:
     dd4:	e51d8004 	ldr	r8, [sp, #-4]

00000dd8 <l627>:
     dd8:	81ddc3f6 	ldrshhi	ip, [sp, #54]	; 0x36

00000ddc <interrupt_888>:
     ddc:	e9bd5b7c 	ldmib	sp!, {r2, r3, r4, r5, r6, r8, r9, fp, ip, lr}

00000de0 <l629>:
     de0:	416f5f1b 	clzmi	r5, fp

00000de4 <l630>:
     de4:	1050e00f 	subsne	lr, r0, pc

00000de8 <l631>:
     de8:	c1750160 	cmngt	r5, r0, ror #2

00000dec <interrupt_595>:
     dec:	e33006d5 	teq	r0, #223346688	; 0xd500000

00000df0 <interrupt_304>:
     df0:	efe8ab4b 	svc	0x00e8ab4b

00000df4 <l634>:
     df4:	e37e0249 	cmn	lr, #-1879048188	; 0x90000004

00000df8 <l635>:
     df8:	e198600f 	orrs	r6, r8, pc

00000dfc <l636>:
     dfc:	716f3f18 	clzvc	r3, r8

00000e00 <l637>:
     e00:	e1e04c85 	mvn	r4, r5, lsl #25

00000e04 <l638>:
     e04:	e0ce800b 	sbc	r8, lr, fp

00000e08 <l639>:
     e08:	e15d02d8 	ldrsb	r0, [sp, #-40]	; 0xffffffd8

00000e0c <interrupt_229>:
     e0c:	e1150e44 	tst	r5, r4, asr #28

00000e10 <interrupt_112>:
     e10:	e1a00000 	nop			; (mov r0, r0)

00000e14 <l642>:
     e14:	42ec99b9 	rscmi	r9, ip, #3031040	; 0x2e4000

00000e18 <l643>:
     e18:	e1f0a131 	mvns	sl, r1, lsr r1

00000e1c <l644>:
     e1c:	e236abbb 	eors	sl, r6, #191488	; 0x2ec00

00000e20 <interrupt_850>:
     e20:	713b0752 	teqvc	fp, r2, asr r7

00000e24 <interrupt_200>:
     e24:	703c3062 	eorsvc	r3, ip, r2, rrx

00000e28 <interrupt_87>:
     e28:	a1d5700b 	bicsge	r7, r5, fp

00000e2c <l648>:
     e2c:	059d1000 	ldreq	r1, [sp]

00000e30 <l649>:
     e30:	e59f8000 	ldr	r8, [pc]	; e38 <l651>

00000e34 <l650>:
     e34:	ea000000 	b	e3c <l652>

00000e38 <l651>:
     e38:	000fffc0 	.word	0x000fffc0

00000e3c <l652>:
     e3c:	e148209e 	swpb	r2, lr, [r8]

00000e40 <l653>:
     e40:	e59fb000 	ldr	fp, [pc]	; e48 <l655>

00000e44 <l654>:
     e44:	ea000000 	b	e4c <interrupt_597>

00000e48 <l655>:
     e48:	000fffac 	.word	0x000fffac

00000e4c <interrupt_597>:
     e4c:	610b4099 	swpvs	r4, r9, [fp]

00000e50 <l657>:
     e50:	d1180651 	tstle	r8, r1, asr r6

00000e54 <l658>:
     e54:	90740000 	rsbsls	r0, r4, r0

00000e58 <l659>:
     e58:	91dda0f2 	ldrshls	sl, [sp, #2]

00000e5c <interrupt_801>:
     e5c:	10734174 	rsbsne	r4, r3, r4, ror r1

00000e60 <l661>:
     e60:	efc0bd68 	svc	0x00c0bd68

00000e64 <interrupt_234>:
     e64:	e0660002 	rsb	r0, r6, r2

00000e68 <l663>:
     e68:	33ca9803 	biccc	r9, sl, #196608	; 0x30000

00000e6c <l664>:
     e6c:	e3a0000c 	mov	r0, #12

00000e70 <interrupt_552>:
     e70:	e11d40f0 	ldrsh	r4, [sp, -r0]

00000e74 <l666>:
     e74:	3181b253 	orrcc	fp, r1, r3, asr r2

00000e78 <l667>:
     e78:	e3a05011 	mov	r5, #17

00000e7c <interrupt_314>:
     e7c:	875d4005 	ldrbhi	r4, [sp, -r5]

00000e80 <l669>:
     e80:	e3a0a024 	mov	sl, #36	; 0x24

00000e84 <l670>:
     e84:	e71dc00a 	ldr	ip, [sp, -sl]

00000e88 <l671>:
     e88:	a0c6906a 	sbcge	r9, r6, sl, rrx

00000e8c <l672>:
     e8c:	c13b0065 	teqgt	fp, r5, rrx

00000e90 <l673>:
     e90:	d16f0f1a 	clzle	r0, sl

00000e94 <l674>:
     e94:	81a0c90b 	lslhi	ip, fp, #18

00000e98 <l675>:
     e98:	e3a0b032 	mov	fp, #50	; 0x32

00000e9c <l676>:
     e9c:	e74d900b 	strb	r9, [sp, -fp]

00000ea0 <l677>:
     ea0:	60bb6fa1 	adcsvs	r6, fp, r1, lsr #31

00000ea4 <l678>:
     ea4:	e14d21bc 	strh	r2, [sp, #-28]	; 0xffffffe4

00000ea8 <l679>:
     ea8:	e1925004 	orrs	r5, r2, r4

00000eac <l680>:
     eac:	e3a07006 	mov	r7, #6

00000eb0 <interrupt_429>:
     eb0:	e11d70f7 	ldrsh	r7, [sp, -r7]

00000eb4 <l682>:
     eb4:	e1ddb1f0 	ldrsh	fp, [sp, #16]

00000eb8 <interrupt_601>:
     eb8:	81d65b19 	bicshi	r5, r6, r9, lsl fp

00000ebc <l684>:
     ebc:	e59fb000 	ldr	fp, [pc]	; ec4 <l686>

00000ec0 <l685>:
     ec0:	ea000000 	b	ec8 <l687>

00000ec4 <l686>:
     ec4:	000fffd8 	.word	0x000fffd8

00000ec8 <l687>:
     ec8:	e10b3092 	swp	r3, r2, [fp]

00000ecc <l688>:
     ecc:	31f05e75 	mvnscc	r5, r5, ror lr

00000ed0 <interrupt_296>:
     ed0:	efa2f76d 	svc	0x00a2f76d

00000ed4 <l690>:
     ed4:	ef78000d 	svc	0x0078000d

00000ed8 <l691>:
     ed8:	a0309060 	eorsge	r9, r0, r0, rrx

00000edc <l692>:
     edc:	a54d700c 	strbge	r7, [sp, #-12]

00000ee0 <interrupt_715>:
     ee0:	705e806e 	subsvc	r8, lr, lr, rrx

00000ee4 <interrupt_600>:
     ee4:	e0e09336 	rsc	r9, r0, r6, lsr r3

00000ee8 <l695>:
     ee8:	e066b7cb 	rsb	fp, r6, fp, asr #15

00000eec <l696>:
     eec:	e59f8000 	ldr	r8, [pc]	; ef4 <l698>

00000ef0 <interrupt_135>:
     ef0:	ea000000 	b	ef8 <l699>

00000ef4 <l698>:
     ef4:	000fffd0 	.word	0x000fffd0

00000ef8 <l699>:
     ef8:	11484094 	swpbne	r4, r4, [r8]

00000efc <l700>:
     efc:	e3a0301b 	mov	r3, #27

00000f00 <l701>:
     f00:	e74d4003 	strb	r4, [sp, -r3]

00000f04 <l702>:
     f04:	e0d28068 	sbcs	r8, r2, r8, rrx

00000f08 <l703>:
     f08:	90a49006 	adcls	r9, r4, r6

00000f0c <l704>:
     f0c:	40a464a5 	adcmi	r6, r4, r5, lsr #9

00000f10 <l705>:
     f10:	0033475e 	eorseq	r4, r3, lr, asr r7

00000f14 <l706>:
     f14:	e93d0410 	ldmdb	sp!, {r4, sl}

00000f18 <interrupt_787>:
     f18:	21170003 	tstcs	r7, r3

00000f1c <l708>:
     f1c:	e032be57 	eors	fp, r2, r7, asr lr

00000f20 <l709>:
     f20:	95cd101b 	strbls	r1, [sp, #27]

00000f24 <l710>:
     f24:	915d81ba 	ldrhls	r8, [sp, #-26]	; 0xffffffe6

00000f28 <interrupt_89>:
     f28:	a16f6f1a 	clzge	r6, sl

00000f2c <l712>:
     f2c:	403b500f 	eorsmi	r5, fp, pc

00000f30 <l713>:
     f30:	31160068 	tstcc	r6, r8, rrx

00000f34 <l714>:
     f34:	800a148a 	andhi	r1, sl, sl, lsl #9

00000f38 <interrupt_773>:
     f38:	efd7de26 	svc	0x00d7de26

00000f3c <interrupt_391>:
     f3c:	1191e004 	orrsne	lr, r1, r4

00000f40 <interrupt_171>:
     f40:	41b01009 	movsmi	r1, r9

00000f44 <l718>:
     f44:	e17f0008 	cmn	pc, r8

00000f48 <l719>:
     f48:	e9ad0040 	stmib	sp!, {r6}

00000f4c <interrupt_370>:
     f4c:	e1b02b79 	rors	r2, r9, fp

00000f50 <l721>:
     f50:	e3d6428e 	bics	r4, r6, #-536870904	; 0xe0000008

00000f54 <l722>:
     f54:	a187e000 	orrge	lr, r7, r0

00000f58 <l723>:
     f58:	d99d1005 	ldmible	sp, {r0, r2, ip}

00000f5c <l724>:
     f5c:	c1df24e1 	bicsgt	r2, pc, r1, ror #9

00000f60 <l725>:
     f60:	32e6c82d 	rsccc	ip, r6, #2949120	; 0x2d0000

00000f64 <interrupt_531>:
     f64:	e91d0420 	ldmdb	sp, {r5, sl}

00000f68 <l727>:
     f68:	789d1009 	ldmvc	sp, {r0, r3, ip}

00000f6c <l728>:
     f6c:	e59f2000 	ldr	r2, [pc]	; f74 <l730>

00000f70 <l729>:
     f70:	ea000000 	b	f78 <l731>

00000f74 <l730>:
     f74:	000fffe4 	.word	0x000fffe4

00000f78 <l731>:
     f78:	a142c096 	swpbge	ip, r6, [r2]

00000f7c <l732>:
     f7c:	efdbb431 	svc	0x00dbb431

00000f80 <l733>:
     f80:	e59f0000 	ldr	r0, [pc]	; f88 <l735>

00000f84 <l734>:
     f84:	ea000000 	b	f8c <l736>

00000f88 <l735>:
     f88:	000fffdc 	.word	0x000fffdc

00000f8c <l736>:
     f8c:	e100709c 	swp	r7, ip, [r0]

00000f90 <l737>:
     f90:	efdeb500 	svc	0x00deb500

00000f94 <l738>:
     f94:	e0f4638f 	rscs	r6, r4, pc, lsl #7

00000f98 <l739>:
     f98:	e00b7e3a 	and	r7, fp, sl, lsr lr

00000f9c <interrupt_844>:
     f9c:	75dd100c 	ldrbvc	r1, [sp, #12]

00000fa0 <l741>:
     fa0:	e29c35d2 	adds	r3, ip, #880803840	; 0x34800000

00000fa4 <interrupt_246>:
     fa4:	e1e0cfea 	mvn	ip, sl, ror #31

00000fa8 <l743>:
     fa8:	c16f9f1e 	clzgt	r9, lr

00000fac <l744>:
     fac:	a0234b7e 	eorge	r4, r3, lr, ror fp

00000fb0 <l745>:
     fb0:	e93d1096 	ldmdb	sp!, {r1, r2, r4, r7, ip}

00000fb4 <interrupt_274>:
     fb4:	e92d0104 	push	{r2, r8}

00000fb8 <l747>:
     fb8:	416f9f16 	clzmi	r9, r6

00000fbc <interrupt_399>:
     fbc:	e1a0b00a 	mov	fp, sl

00000fc0 <l749>:
     fc0:	4a000007 	bmi	fe4 <l758>

00000fc4 <l750>:
     fc4:	e28010d4 	add	r1, r0, #212	; 0xd4

00000fc8 <l751>:
     fc8:	e0af152a 	adc	r1, pc, sl, lsr #10

00000fcc <interrupt_292>:
     fcc:	0052100a 	subseq	r1, r2, sl

00000fd0 <interrupt_37>:
     fd0:	a15909cb 	cmpge	r9, fp, asr #19

00000fd4 <interrupt_561>:
     fd4:	e29b294d 	adds	r2, fp, #1261568	; 0x134000

00000fd8 <l755>:
     fd8:	02d51a52 	sbcseq	r1, r5, #335872	; 0x52000

00000fdc <interrupt_541>:
     fdc:	e0c3e004 	sbc	lr, r3, r4

00000fe0 <l757>:
     fe0:	ea000000 	b	fe8 <l759>

00000fe4 <l758>:
     fe4:	eafffff7 	b	fc8 <l751>

00000fe8 <l759>:
     fe8:	ef9ae154 	svc	0x009ae154

00000fec <interrupt_13>:
     fec:	51560f09 	cmppl	r6, r9, lsl #30

00000ff0 <l761>:
     ff0:	61590003 	cmpvs	r9, r3

00000ff4 <l762>:
     ff4:	e1dd12dd 	ldrsb	r1, [sp, #45]	; 0x2d

00000ff8 <l763>:
     ff8:	ef26ad85 	svc	0x0026ad85

00000ffc <l764>:
     ffc:	e0ce7c48 	sbc	r7, lr, r8, asr #24

00001000 <l765>:
    1000:	e1a00000 	nop			; (mov r0, r0)

00001004 <l766>:
    1004:	e3a04016 	mov	r4, #22

00001008 <l767>:
    1008:	97dd2004 	ldrbls	r2, [sp, r4]

0000100c <interrupt_308>:
    100c:	e59f7000 	ldr	r7, [pc]	; 1014 <l770>

00001010 <l769>:
    1010:	ea000000 	b	1018 <l771>

00001014 <l770>:
    1014:	000fffac 	.word	0x000fffac

00001018 <l771>:
    1018:	e1071099 	swp	r1, r9, [r7]

0000101c <l772>:
    101c:	e3a06017 	mov	r6, #23

00001020 <l773>:
    1020:	e74db006 	strb	fp, [sp, -r6]

00001024 <interrupt_468>:
    1024:	e3a0b02c 	mov	fp, #44	; 0x2c

00001028 <l775>:
    1028:	e78d400b 	str	r4, [sp, fp]

0000102c <l776>:
    102c:	e59f6000 	ldr	r6, [pc]	; 1034 <l778>

00001030 <interrupt_192>:
    1030:	ea000000 	b	1038 <l779>

00001034 <l778>:
    1034:	000fffe8 	.word	0x000fffe8

00001038 <l779>:
    1038:	c1069095 	swpgt	r9, r5, [r6]

0000103c <interrupt_836>:
    103c:	e48d5028 	str	r5, [sp], #40	; 0x28

00001040 <l781>:
    1040:	e2458c0b 	sub	r8, r5, #2816	; 0xb00

00001044 <l782>:
    1044:	e3a07010 	mov	r7, #16

00001048 <l783>:
    1048:	e71da007 	ldr	sl, [sp, -r7]

0000104c <l784>:
    104c:	0016e036 	andseq	lr, r6, r6, lsr r0

00001050 <interrupt_999>:
    1050:	e211a546 	ands	sl, r1, #293601280	; 0x11800000

00001054 <l786>:
    1054:	ea000001 	b	1060 <l789>

00001058 <interrupt_443>:
    1058:	e09f1006 	adds	r1, pc, r6

0000105c <l788>:
    105c:	90af0008 	adcls	r0, pc, r8

00001060 <l789>:
    1060:	8020c9ae 	eorhi	ip, r0, lr, lsr #19

00001064 <l790>:
    1064:	e5cd6009 	strb	r6, [sp, #9]

00001068 <l791>:
    1068:	e198b688 	orrs	fp, r8, r8, lsl #13

0000106c <l792>:
    106c:	e59f1000 	ldr	r1, [pc]	; 1074 <interrupt_452>

00001070 <l793>:
    1070:	ea000000 	b	1078 <l795>

00001074 <interrupt_452>:
    1074:	000fffac 	.word	0x000fffac

00001078 <l795>:
    1078:	e101c093 	swp	ip, r3, [r1]

0000107c <interrupt_555>:
    107c:	13b05705 	movsne	r5, #1310720	; 0x140000

00001080 <l797>:
    1080:	a08aea7b 	addge	lr, sl, fp, ror sl

00001084 <interrupt_374>:
    1084:	225a3eef 	subscs	r3, sl, #3824	; 0xef0

00001088 <l799>:
    1088:	0a000006 	beq	10a8 <l807>

0000108c <l800>:
    108c:	e1330007 	teq	r3, r7

00001090 <l801>:
    1090:	b1760066 	cmnlt	r6, r6, rrx

00001094 <l802>:
    1094:	21560971 	cmpcs	r6, r1, ror r9

00001098 <interrupt_501>:
    1098:	a0ec1466 	rscge	r1, ip, r6, ror #8

0000109c <l804>:
    109c:	e1a00007 	mov	r0, r7

000010a0 <l805>:
    10a0:	216fef14 	clzcs	lr, r4

000010a4 <interrupt_161>:
    10a4:	e2ba9deb 	adcs	r9, sl, #15040	; 0x3ac0

000010a8 <l807>:
    10a8:	60e1700e 	rscvs	r7, r1, lr

000010ac <interrupt_883>:
    10ac:	42621c15 	rsbmi	r1, r2, #5376	; 0x1500

000010b0 <l809>:
    10b0:	71a0400a 	movvc	r4, sl

000010b4 <l810>:
    10b4:	e54d403b 	strb	r4, [sp, #-59]	; 0x3b

000010b8 <l811>:
    10b8:	1a000002 	bne	10c8 <l815>

000010bc <l812>:
    10bc:	e28010d6 	add	r1, r0, #214	; 0xd6

000010c0 <l813>:
    10c0:	e01f3063 	ands	r3, pc, r3, rrx

000010c4 <l814>:
    10c4:	ea000000 	b	10cc <l816>

000010c8 <l815>:
    10c8:	eafffffc 	b	10c0 <l813>

000010cc <l816>:
    10cc:	e3a02040 	mov	r2, #64	; 0x40

000010d0 <l817>:
    10d0:	511d40f2 	ldrshpl	r4, [sp, -r2]

000010d4 <interrupt_299>:
    10d4:	e3550c82 	cmp	r5, #33280	; 0x8200

000010d8 <l819>:
    10d8:	b31c07cd 	tstlt	ip, #53739520	; 0x3340000

000010dc <l820>:
    10dc:	21110f67 	tstcs	r1, r7, ror #30

000010e0 <l821>:
    10e0:	e08e6fc0 	add	r6, lr, r0, asr #31

000010e4 <l822>:
    10e4:	e3a03024 	mov	r3, #36	; 0x24

000010e8 <l823>:
    10e8:	111d80b3 	ldrhne	r8, [sp, -r3]

000010ec <l824>:
    10ec:	e1a00000 	nop			; (mov r0, r0)

000010f0 <l825>:
    10f0:	61dfa00c 	bicsvs	sl, pc, ip

000010f4 <l826>:
    10f4:	704ac006 	subvc	ip, sl, r6

000010f8 <l827>:
    10f8:	11700c84 	cmnne	r0, r4, lsl #25

000010fc <interrupt_115>:
    10fc:	881d03fc 	ldmdahi	sp, {r2, r3, r4, r5, r6, r7, r8, r9}

00001100 <l829>:
    1100:	e3a0900e 	mov	r9, #14

00001104 <l830>:
    1104:	e10d40b9 	strh	r4, [sp, -r9]

00001108 <l831>:
    1108:	e1170005 	tst	r7, r5

0000110c <interrupt_198>:
    110c:	60874356 	addvs	r4, r7, r6, asr r3

00001110 <l833>:
    1110:	605592ce 	subsvs	r9, r5, lr, asr #5

00001114 <l834>:
    1114:	5098300c 	addspl	r3, r8, ip

00001118 <l835>:
    1118:	61b0a00c 	movsvs	sl, ip

0000111c <l836>:
    111c:	4136000f 	teqmi	r6, pc

00001120 <l837>:
    1120:	70f6c67a 	rscsvc	ip, r6, sl, ror r6

00001124 <l838>:
    1124:	11d53773 	bicsne	r3, r5, r3, ror r7

00001128 <l839>:
    1128:	e3a0c01c 	mov	ip, #28

0000112c <l840>:
    112c:	e60d400c 	str	r4, [sp], -ip

00001130 <interrupt_138>:
    1130:	d1cd31b8 	strhle	r3, [sp, #24]

00001134 <l842>:
    1134:	e59fa000 	ldr	sl, [pc]	; 113c <interrupt_862>

00001138 <l843>:
    1138:	ea000000 	b	1140 <interrupt_969>

0000113c <interrupt_862>:
    113c:	000fffcc 	.word	0x000fffcc

00001140 <interrupt_969>:
    1140:	110a409e 	swpne	r4, lr, [sl]

00001144 <l846>:
    1144:	31a02138 	lsrcc	r2, r8, r1

00001148 <l847>:
    1148:	60417b2a 	subvs	r7, r1, sl, lsr #22

0000114c <interrupt_446>:
    114c:	20f427ab 	rscscs	r2, r4, fp, lsr #15

00001150 <l849>:
    1150:	e92d000c 	push	{r2, r3}

00001154 <interrupt_705>:
    1154:	e3a0b00a 	mov	fp, #10

00001158 <l851>:
    1158:	811d90db 	ldrsbhi	r9, [sp, -fp]

0000115c <l852>:
    115c:	e59f5000 	ldr	r5, [pc]	; 1164 <l854>

00001160 <interrupt_218>:
    1160:	ea000000 	b	1168 <l855>

00001164 <l854>:
    1164:	000fffc8 	.word	0x000fffc8

00001168 <l855>:
    1168:	8145909a 	swpbhi	r9, sl, [r5]

0000116c <l856>:
    116c:	e17f0800 	cmn	pc, r0, lsl #16

00001170 <l857>:
    1170:	51899002 	orrpl	r9, r9, r2

00001174 <interrupt_661>:
    1174:	029bce3f 	addseq	ip, fp, #1008	; 0x3f0

00001178 <l859>:
    1178:	550d801c 	strpl	r8, [sp, #-28]

0000117c <l860>:
    117c:	e59d3020 	ldr	r3, [sp, #32]

00001180 <interrupt_402>:
    1180:	ef302ec0 	svc	0x00302ec0

00001184 <l862>:
    1184:	92b9633d 	adcsls	r6, r9, #-201326592	; 0xf4000000

00001188 <l863>:
    1188:	e82d00c8 	stmda	sp!, {r3, r6, r7}

0000118c <l864>:
    118c:	3057800a 	subscc	r8, r7, sl

00001190 <l865>:
    1190:	e16f0f18 	clz	r0, r8

00001194 <l866>:
    1194:	e011606c 	ands	r6, r1, ip, rrx

00001198 <l867>:
    1198:	e3a0500a 	mov	r5, #10

0000119c <interrupt_312>:
    119c:	e11d00d5 	ldrsb	r0, [sp, -r5]

000011a0 <l869>:
    11a0:	e1f0a881 	mvns	sl, r1, lsl #17

000011a4 <l870>:
    11a4:	e07cb057 	rsbs	fp, ip, r7, asr r0

000011a8 <l871>:
    11a8:	e59f3000 	ldr	r3, [pc]	; 11b0 <interrupt_259>

000011ac <l872>:
    11ac:	ea000000 	b	11b4 <l874>

000011b0 <interrupt_259>:
    11b0:	000fffd8 	.word	0x000fffd8

000011b4 <l874>:
    11b4:	5143c091 	swpbpl	ip, r1, [r3]

000011b8 <l875>:
    11b8:	2a000007 	bcs	11dc <l884>

000011bc <l876>:
    11bc:	e28010b0 	add	r1, r0, #176	; 0xb0

000011c0 <l877>:
    11c0:	c16fbf10 	clzgt	fp, r0

000011c4 <l878>:
    11c4:	02487c39 	subeq	r7, r8, #14592	; 0x3900

000011c8 <l879>:
    11c8:	e28296d5 	add	r9, r2, #223346688	; 0xd500000

000011cc <l880>:
    11cc:	0177073a 	cmneq	r7, sl, lsr r7

000011d0 <l881>:
    11d0:	024e4617 	subeq	r4, lr, #24117248	; 0x1700000

000011d4 <l882>:
    11d4:	e07c0253 	rsbs	r0, ip, r3, asr r2

000011d8 <interrupt_593>:
    11d8:	ea000000 	b	11e0 <l885>

000011dc <l884>:
    11dc:	eafffff7 	b	11c0 <l877>

000011e0 <l885>:
    11e0:	21730005 	cmncs	r3, r5

000011e4 <l886>:
    11e4:	4042700e 	submi	r7, r2, lr

000011e8 <l887>:
    11e8:	91700d60 	cmnls	r0, r0, ror #26

000011ec <l888>:
    11ec:	81d9b005 	bicshi	fp, r9, r5

000011f0 <l889>:
    11f0:	51dd01b0 	ldrhpl	r0, [sp, #16]

000011f4 <l890>:
    11f4:	e2479c05 	sub	r9, r7, #1280	; 0x500

000011f8 <l891>:
    11f8:	e3a0900c 	mov	r9, #12

000011fc <l892>:
    11fc:	e74d3009 	strb	r3, [sp, -r9]

00001200 <l893>:
    1200:	e3a0402c 	mov	r4, #44	; 0x2c

00001204 <l894>:
    1204:	719da0f4 	ldrshvc	sl, [sp, r4]

00001208 <l895>:
    1208:	059da01c 	ldreq	sl, [sp, #28]

0000120c <l896>:
    120c:	6152000f 	cmpvs	r2, pc

00001210 <l897>:
    1210:	e59f7000 	ldr	r7, [pc]	; 1218 <l899>

00001214 <l898>:
    1214:	ea000000 	b	121c <l900>

00001218 <l899>:
    1218:	000fffcc 	.word	0x000fffcc

0000121c <l900>:
    121c:	71078095 	swpvc	r8, r5, [r7]

00001220 <l901>:
    1220:	61cd50b2 	strhvs	r5, [sp, #2]

00001224 <l902>:
    1224:	e3d307b9 	bics	r0, r3, #48496640	; 0x2e40000

00001228 <interrupt_467>:
    1228:	714d90bc 	strhvc	r9, [sp, #-12]

0000122c <l904>:
    122c:	effe76d3 	svc	0x00fe76d3

00001230 <l905>:
    1230:	31120b55 	tstcc	r2, r5, asr fp

00001234 <interrupt_945>:
    1234:	e59f3000 	ldr	r3, [pc]	; 123c <l908>

00001238 <l907>:
    1238:	ea000000 	b	1240 <l909>

0000123c <l908>:
    123c:	000fffe8 	.word	0x000fffe8

00001240 <l909>:
    1240:	e143609a 	swpb	r6, sl, [r3]

00001244 <l910>:
    1244:	e311087f 	tst	r1, #8323072	; 0x7f0000

00001248 <l911>:
    1248:	e3a0a00b 	mov	sl, #11

0000124c <l912>:
    124c:	07cd300a 	strbeq	r3, [sp, sl]

00001250 <l913>:
    1250:	ef3abff6 	svc	0x003abff6

00001254 <l914>:
    1254:	e0c1015b 	sbc	r0, r1, fp, asr r1

00001258 <interrupt_624>:
    1258:	e19aea0f 	orrs	lr, sl, pc, lsl #20

0000125c <interrupt_342>:
    125c:	e59f7000 	ldr	r7, [pc]	; 1264 <l918>

00001260 <l917>:
    1260:	ea000000 	b	1268 <l919>

00001264 <l918>:
    1264:	000fffe8 	.word	0x000fffe8

00001268 <l919>:
    1268:	e1476099 	swpb	r6, r9, [r7]

0000126c <interrupt_67>:
    126c:	9155000f 	cmpls	r5, pc

00001270 <l921>:
    1270:	e0857068 	add	r7, r5, r8, rrx

00001274 <l922>:
    1274:	e0d73005 	sbcs	r3, r7, r5

00001278 <l923>:
    1278:	733501dd 	teqvc	r5, #1073741879	; 0x40000037

0000127c <interrupt_343>:
    127c:	a067b002 	rsbge	fp, r7, r2

00001280 <interrupt_186>:
    1280:	e5bdb004 	ldr	fp, [sp, #4]!

00001284 <l926>:
    1284:	ea000003 	b	1298 <l931>

00001288 <interrupt_586>:
    1288:	e2801066 	add	r1, r0, #102	; 0x66

0000128c <l928>:
    128c:	e1500002 	cmp	r0, r2

00001290 <l929>:
    1290:	e1db6a75 	bics	r6, fp, r5, ror sl

00001294 <l930>:
    1294:	ea000000 	b	129c <l932>

00001298 <l931>:
    1298:	eafffffb 	b	128c <l928>

0000129c <l932>:
    129c:	e3a0c000 	mov	ip, #0

000012a0 <l933>:
    12a0:	419d30fc 	ldrshmi	r3, [sp, ip]

000012a4 <l934>:
    12a4:	ea000004 	b	12bc <l940>

000012a8 <l935>:
    12a8:	e28010b0 	add	r1, r0, #176	; 0xb0

000012ac <interrupt_285>:
    12ac:	e0c4281b 	sbc	r2, r4, fp, lsl r8

000012b0 <l937>:
    12b0:	c0dc8064 	sbcsgt	r8, ip, r4, rrx

000012b4 <interrupt_255>:
    12b4:	816f9f17 	clzhi	r9, r7

000012b8 <l939>:
    12b8:	ea000000 	b	12c0 <interrupt_257>

000012bc <l940>:
    12bc:	eafffffa 	b	12ac <interrupt_285>

000012c0 <interrupt_257>:
    12c0:	9a000002 	bls	12d0 <l945>

000012c4 <l942>:
    12c4:	e28010ac 	add	r1, r0, #172	; 0xac

000012c8 <l943>:
    12c8:	e02be069 	eor	lr, fp, r9, rrx

000012cc <l944>:
    12cc:	ea000000 	b	12d4 <l946>

000012d0 <l945>:
    12d0:	eafffffc 	b	12c8 <l943>

000012d4 <l946>:
    12d4:	20f7333b 	rscscs	r3, r7, fp, lsr r3

000012d8 <l947>:
    12d8:	92e9583f 	rscls	r5, r9, #4128768	; 0x3f0000

000012dc <l948>:
    12dc:	e1b090e2 	rors	r9, r2, #1

000012e0 <l949>:
    12e0:	e13c0771 	teq	ip, r1, ror r7

000012e4 <l950>:
    12e4:	d046705b 	suble	r7, r6, fp, asr r0

000012e8 <l951>:
    12e8:	31cd30b2 	strhcc	r3, [sp, #2]

000012ec <l952>:
    12ec:	e3a0b018 	mov	fp, #24

000012f0 <l953>:
    12f0:	d78d300b 	strle	r3, [sp, fp]

000012f4 <interrupt_890>:
    12f4:	e3a05027 	mov	r5, #39	; 0x27

000012f8 <l955>:
    12f8:	319d30d5 	ldrsbcc	r3, [sp, r5]

000012fc <l956>:
    12fc:	e255007c 	subs	r0, r5, #124	; 0x7c

00001300 <l957>:
    1300:	e59f1000 	ldr	r1, [pc]	; 1308 <l959>

00001304 <l958>:
    1304:	ea000000 	b	130c <l960>

00001308 <l959>:
    1308:	000fffd4 	.word	0x000fffd4

0000130c <l960>:
    130c:	3141a09e 	swpbcc	sl, lr, [r1]

00001310 <l961>:
    1310:	e1580005 	cmp	r8, r5

00001314 <l962>:
    1314:	e1d300c6 	bics	r0, r3, r6, asr #1

00001318 <l963>:
    1318:	e15c0e7a 	cmp	ip, sl, ror lr

0000131c <l964>:
    131c:	e0aa606a 	adc	r6, sl, sl, rrx

00001320 <l965>:
    1320:	707b2e6e 	rsbsvc	r2, fp, lr, ror #28

00001324 <l966>:
    1324:	e16f4f17 	clz	r4, r7

00001328 <l967>:
    1328:	e59f9000 	ldr	r9, [pc]	; 1330 <l969>

0000132c <l968>:
    132c:	ea000000 	b	1334 <l970>

00001330 <l969>:
    1330:	000fffac 	.word	0x000fffac

00001334 <l970>:
    1334:	61491091 	swpbvs	r1, r1, [r9]

00001338 <l971>:
    1338:	21b03061 	rrxscs	r3, r1

0000133c <interrupt_287>:
    133c:	525c689b 	subspl	r6, ip, #10158080	; 0x9b0000

00001340 <l973>:
    1340:	e3a0e014 	mov	lr, #20

00001344 <l974>:
    1344:	e19da0be 	ldrh	sl, [sp, lr]

00001348 <l975>:
    1348:	e3a05025 	mov	r5, #37	; 0x25

0000134c <interrupt_7>:
    134c:	e19d90d5 	ldrsb	r9, [sp, r5]

00001350 <l977>:
    1350:	e02ba009 	eor	sl, fp, r9

00001354 <interrupt_623>:
    1354:	e24b8b3a 	sub	r8, fp, #59392	; 0xe800

00001358 <l979>:
    1358:	e3a0c032 	mov	ip, #50	; 0x32

0000135c <l980>:
    135c:	d19d10fc 	ldrshle	r1, [sp, ip]

00001360 <l981>:
    1360:	e0bb700b 	adcs	r7, fp, fp

00001364 <l982>:
    1364:	e31a0fed 	tst	sl, #948	; 0x3b4

00001368 <l983>:
    1368:	eaffffff 	b	136c <interrupt_639>

0000136c <interrupt_639>:
    136c:	103fe06b 	eorsne	lr, pc, fp, rrx

00001370 <l985>:
    1370:	e0231762 	eor	r1, r3, r2, ror #14

00001374 <l986>:
    1374:	e3a0c014 	mov	ip, #20

00001378 <l987>:
    1378:	e60db00c 	str	fp, [sp], -ip

0000137c <l988>:
    137c:	c17b0355 	cmngt	fp, r5, asr r3

00001380 <l989>:
    1380:	70976060 	addsvc	r6, r7, r0, rrx

00001384 <l990>:
    1384:	e3a0a022 	mov	sl, #34	; 0x22

00001388 <interrupt_278>:
    1388:	e7dda00a 	ldrb	sl, [sp, sl]

0000138c <l992>:
    138c:	62eb9d8d 	rscvs	r9, fp, #9024	; 0x2340

00001390 <interrupt_34>:
    1390:	70161689 	andsvc	r1, r6, r9, lsl #13

00001394 <l994>:
    1394:	ea000003 	b	13a8 <l999>

00001398 <l995>:
    1398:	b1100007 	tstlt	r0, r7

0000139c <l996>:
    139c:	835e0a42 	cmphi	lr, #270336	; 0x42000

000013a0 <l997>:
    13a0:	8294bc71 	addshi	fp, r4, #28928	; 0x7100

000013a4 <l998>:
    13a4:	e16f4f1e 	clz	r4, lr

000013a8 <l999>:
    13a8:	73e085bd 	mvnvc	r8, #792723456	; 0x2f400000

000013ac <l1000>:
    13ac:	d3b06311 	movsle	r6, #1140850688	; 0x44000000

000013b0 <l1001>:
    13b0:	e111000a 	tst	r1, sl

000013b4 <l1002>:
    13b4:	e0a4b4a0 	adc	fp, r4, r0, lsr #9

000013b8 <l1003>:
    13b8:	ef17b644 	svc	0x0017b644

000013bc <l1004>:
    13bc:	ef6ac70f 	svc	0x006ac70f

000013c0 <l1005>:
    13c0:	ef3f1b54 	svc	0x003f1b54

000013c4 <l1006>:
    13c4:	e5dd9037 	ldrb	r9, [sp, #55]	; 0x37

000013c8 <l1007>:
    13c8:	e3a0700f 	mov	r7, #15

000013cc <l1008>:
    13cc:	219d20d7 	ldrsbcs	r2, [sp, r7]

000013d0 <l1009>:
    13d0:	ea000004 	b	13e8 <l1015>

000013d4 <l1010>:
    13d4:	e040e981 	sub	lr, r0, r1, lsl #19

000013d8 <l1011>:
    13d8:	4084ca14 	addmi	ip, r4, r4, lsl sl

000013dc <interrupt_859>:
    13dc:	1037806e 	eorsne	r8, r7, lr, rrx

000013e0 <interrupt_617>:
    13e0:	c16f5f1b 	clzgt	r5, fp

000013e4 <l1014>:
    13e4:	a0532003 	subsge	r2, r3, r3

000013e8 <l1015>:
    13e8:	81300735 	teqhi	r0, r5, lsr r7

000013ec <l1016>:
    13ec:	925840e4 	subsls	r4, r8, #228	; 0xe4

000013f0 <l1017>:
    13f0:	61390002 	teqvs	r9, r2

000013f4 <l1018>:
    13f4:	e59f5000 	ldr	r5, [pc]	; 13fc <l1020>

000013f8 <l1019>:
    13f8:	ea000000 	b	1400 <l1021>

000013fc <l1020>:
    13fc:	000fffa4 	.word	0x000fffa4

00001400 <l1021>:
    1400:	11451093 	swpbne	r1, r3, [r5]

00001404 <interrupt_409>:
    1404:	e59f4000 	ldr	r4, [pc]	; 140c <interrupt_64>

00001408 <l1023>:
    1408:	ea000000 	b	1410 <l1025>

0000140c <interrupt_64>:
    140c:	000fffac 	.word	0x000fffac

00001410 <l1025>:
    1410:	61448093 	swpbvs	r8, r3, [r4]

00001414 <l1026>:
    1414:	e3a09022 	mov	r9, #34	; 0x22

00001418 <interrupt_667>:
    1418:	c19d90d9 	ldrsbgt	r9, [sp, r9]

0000141c <l1028>:
    141c:	e59f6000 	ldr	r6, [pc]	; 1424 <l1030>

00001420 <interrupt_316>:
    1420:	ea000000 	b	1428 <l1031>

00001424 <l1030>:
    1424:	000fffa0 	.word	0x000fffa0

00001428 <l1031>:
    1428:	e106109a 	swp	r1, sl, [r6]

0000142c <l1032>:
    142c:	9176080b 	cmnls	r6, fp, lsl #16

00001430 <l1033>:
    1430:	8022c06a 	eorhi	ip, r2, sl, rrx

00001434 <l1034>:
    1434:	4a000002 	bmi	1444 <interrupt_496>

00001438 <l1035>:
    1438:	e28010f3 	add	r1, r0, #243	; 0xf3

0000143c <l1036>:
    143c:	61e06009 	mvnvs	r6, r9

00001440 <l1037>:
    1440:	ea000000 	b	1448 <l1039>

00001444 <interrupt_496>:
    1444:	eafffffc 	b	143c <l1036>

00001448 <l1039>:
    1448:	e3a03038 	mov	r3, #56	; 0x38

0000144c <l1040>:
    144c:	e19da0b3 	ldrh	sl, [sp, r3]

00001450 <l1041>:
    1450:	e3a0c02d 	mov	ip, #45	; 0x2d

00001454 <l1042>:
    1454:	b7cd100c 	strblt	r1, [sp, ip]

00001458 <interrupt_228>:
    1458:	e3a0402c 	mov	r4, #44	; 0x2c

0000145c <l1044>:
    145c:	e7bda004 	ldr	sl, [sp, r4]!

00001460 <l1045>:
    1460:	a16f2f16 	clzge	r2, r6

00001464 <l1046>:
    1464:	e59f1000 	ldr	r1, [pc]	; 146c <l1048>

00001468 <l1047>:
    1468:	ea000000 	b	1470 <l1049>

0000146c <l1048>:
    146c:	000fffa8 	.word	0x000fffa8

00001470 <l1049>:
    1470:	61010095 	swpvs	r0, r5, [r1]

00001474 <l1050>:
    1474:	e0f5306a 	rscs	r3, r5, sl, rrx

00001478 <l1051>:
    1478:	90901007 	addsls	r1, r0, r7

0000147c <l1052>:
    147c:	e3a06014 	mov	r6, #20

00001480 <l1053>:
    1480:	918d80b6 	strhls	r8, [sp, r6]

00001484 <l1054>:
    1484:	e06b8002 	rsb	r8, fp, r2

00001488 <l1055>:
    1488:	ef3dfc63 	svc	0x003dfc63

0000148c <l1056>:
    148c:	e8bd0214 	pop	{r2, r4, r9}

00001490 <l1057>:
    1490:	914d01b8 	strhls	r0, [sp, #-24]	; 0xffffffe8

00001494 <l1058>:
    1494:	e3a0200c 	mov	r2, #12

00001498 <l1059>:
    1498:	e69d5002 	ldr	r5, [sp], r2

0000149c <l1060>:
    149c:	e04e4a79 	sub	r4, lr, r9, ror sl

000014a0 <l1061>:
    14a0:	938f6619 	orrls	r6, pc, #26214400	; 0x1900000

000014a4 <interrupt_433>:
    14a4:	e3a0403d 	mov	r4, #61	; 0x3d

000014a8 <l1063>:
    14a8:	c74d9004 	strbgt	r9, [sp, -r4]

000014ac <interrupt_140>:
    14ac:	efe450e9 	svc	0x00e450e9

000014b0 <l1065>:
    14b0:	91dd50b6 	ldrhls	r5, [sp, #6]

000014b4 <l1066>:
    14b4:	efefe971 	svc	0x00efe971

000014b8 <l1067>:
    14b8:	554d800a 	strbpl	r8, [sp, #-10]

000014bc <l1068>:
    14bc:	e19950c4 	orrs	r5, r9, r4, asr #1

000014c0 <l1069>:
    14c0:	e27f41ed 	rsbs	r4, pc, #1073741883	; 0x4000003b

000014c4 <l1070>:
    14c4:	b16f0f10 	clzlt	r0, r0

000014c8 <l1071>:
    14c8:	211a0352 	tstcs	sl, r2, asr r3

000014cc <l1072>:
    14cc:	e3a02030 	mov	r2, #48	; 0x30

000014d0 <l1073>:
    14d0:	970de002 	strls	lr, [sp, -r2]

000014d4 <l1074>:
    14d4:	e3a0703c 	mov	r7, #60	; 0x3c

000014d8 <l1075>:
    14d8:	e73db007 	ldr	fp, [sp, -r7]!

000014dc <l1076>:
    14dc:	e9ad2000 	stmib	sp!, {sp}

000014e0 <interrupt_517>:
    14e0:	05dd5039 	ldrbeq	r5, [sp, #57]	; 0x39

000014e4 <l1078>:
    14e4:	31c0c535 	biccc	ip, r0, r5, lsr r5

000014e8 <l1079>:
    14e8:	51cd23bc 	strhpl	r2, [sp, #60]	; 0x3c

000014ec <l1080>:
    14ec:	e3a0803c 	mov	r8, #60	; 0x3c

000014f0 <l1081>:
    14f0:	e19db0b8 	ldrh	fp, [sp, r8]

000014f4 <interrupt_747>:
    14f4:	e3a09006 	mov	r9, #6

000014f8 <interrupt_478>:
    14f8:	e19de0b9 	ldrh	lr, [sp, r9]

000014fc <l1084>:
    14fc:	e0fc6008 	rscs	r6, ip, r8

00001500 <l1085>:
    1500:	e16f7f1c 	clz	r7, ip

00001504 <l1086>:
    1504:	c1580002 	cmpgt	r8, r2

00001508 <l1087>:
    1508:	e1cde1bc 	strh	lr, [sp, #28]

0000150c <l1088>:
    150c:	ea000003 	b	1520 <interrupt_566>

00001510 <l1089>:
    1510:	e054eb3e 	subs	lr, r4, lr, lsr fp

00001514 <l1090>:
    1514:	81150060 	tsthi	r5, r0, rrx

00001518 <interrupt_407>:
    1518:	61906001 	orrsvs	r6, r0, r1

0000151c <l1092>:
    151c:	e1580a13 	cmp	r8, r3, lsl sl

00001520 <interrupt_566>:
    1520:	e04b7c58 	sub	r7, fp, r8, asr ip

00001524 <l1094>:
    1524:	e3a02004 	mov	r2, #4

00001528 <l1095>:
    1528:	311d50f2 	ldrshcc	r5, [sp, -r2]

0000152c <l1096>:
    152c:	e49dc014 	ldr	ip, [sp], #20

00001530 <l1097>:
    1530:	e59f4000 	ldr	r4, [pc]	; 1538 <l1099>

00001534 <l1098>:
    1534:	ea000000 	b	153c <l1100>

00001538 <l1099>:
    1538:	000fffd8 	.word	0x000fffd8

0000153c <l1100>:
    153c:	6144a099 	swpbvs	sl, r9, [r4]

00001540 <interrupt_341>:
    1540:	c0875068 	addgt	r5, r7, r8, rrx

00001544 <l1102>:
    1544:	e0193b72 	ands	r3, r9, r2, ror fp

00001548 <l1103>:
    1548:	4a000003 	bmi	155c <l1108>

0000154c <interrupt_851>:
    154c:	c1f01054 	mvnsgt	r1, r4, asr r0

00001550 <interrupt_679>:
    1550:	e19eb008 	orrs	fp, lr, r8

00001554 <l1106>:
    1554:	c1c2b357 	bicgt	fp, r2, r7, asr r3

00001558 <l1107>:
    1558:	e3d8a0d8 	bics	sl, r8, #216	; 0xd8

0000155c <l1108>:
    155c:	e18e8003 	orr	r8, lr, r3

00001560 <l1109>:
    1560:	e3a0b014 	mov	fp, #20

00001564 <l1110>:
    1564:	e7bd000b 	ldr	r0, [sp, fp]!

00001568 <interrupt_743>:
    1568:	e17c0003 	cmn	ip, r3

0000156c <l1112>:
    156c:	e390c537 	orrs	ip, r0, #230686720	; 0xdc00000

00001570 <interrupt_884>:
    1570:	11770060 	cmnne	r7, r0, rrx

00001574 <l1114>:
    1574:	e55d500c 	ldrb	r5, [sp, #-12]

00001578 <l1115>:
    1578:	ea000002 	b	1588 <l1119>

0000157c <l1116>:
    157c:	e28010a9 	add	r1, r0, #169	; 0xa9

00001580 <l1117>:
    1580:	d0604274 	rsble	r4, r0, r4, ror r2

00001584 <l1118>:
    1584:	ea000000 	b	158c <l1120>

00001588 <l1119>:
    1588:	eafffffc 	b	1580 <l1117>

0000158c <l1120>:
    158c:	c11f0008 	tstgt	pc, r8

00001590 <l1121>:
    1590:	b2538331 	subslt	r8, r3, #-1006632960	; 0xc4000000

00001594 <l1122>:
    1594:	72f36e27 	rscsvc	r6, r3, #624	; 0x270

00001598 <interrupt_645>:
    1598:	efca8c0a 	svc	0x00ca8c0a

0000159c <l1124>:
    159c:	e113093e 	tst	r3, lr, lsr r9

000015a0 <l1125>:
    15a0:	e1100002 	tst	r0, r2

000015a4 <l1126>:
    15a4:	e1c2b182 	bic	fp, r2, r2, lsl #3

000015a8 <l1127>:
    15a8:	e1893009 	orr	r3, r9, r9

000015ac <l1128>:
    15ac:	e3a04000 	mov	r4, #0

000015b0 <l1129>:
    15b0:	e7cd7004 	strb	r7, [sp, r4]

000015b4 <l1130>:
    15b4:	e3760805 	cmn	r6, #327680	; 0x50000

000015b8 <interrupt_723>:
    15b8:	60530003 	subsvs	r0, r3, r3

000015bc <l1132>:
    15bc:	105a7008 	subsne	r7, sl, r8

000015c0 <l1133>:
    15c0:	c1b0900b 	movsgt	r9, fp

000015c4 <interrupt_153>:
    15c4:	7a000006 	bvc	15e4 <interrupt_893>

000015c8 <l1135>:
    15c8:	e28010d5 	add	r1, r0, #213	; 0xd5

000015cc <l1136>:
    15cc:	e1816068 	orr	r6, r1, r8, rrx

000015d0 <l1137>:
    15d0:	324a60ec 	subcc	r6, sl, #236	; 0xec

000015d4 <l1138>:
    15d4:	e08ba005 	add	sl, fp, r5

000015d8 <l1139>:
    15d8:	926694a9 	rsbls	r9, r6, #-1459617792	; 0xa9000000

000015dc <interrupt_680>:
    15dc:	916f9f14 	clzls	r9, r4

000015e0 <l1141>:
    15e0:	ea000000 	b	15e8 <l1143>

000015e4 <interrupt_893>:
    15e4:	eafffff8 	b	15cc <l1136>

000015e8 <l1143>:
    15e8:	e0d77663 	sbcs	r7, r7, r3, ror #12

000015ec <l1144>:
    15ec:	e59f1000 	ldr	r1, [pc]	; 15f4 <l1146>

000015f0 <l1145>:
    15f0:	ea000000 	b	15f8 <l1147>

000015f4 <l1146>:
    15f4:	000fffb0 	.word	0x000fffb0

000015f8 <l1147>:
    15f8:	e1019096 	swp	r9, r6, [r1]

000015fc <l1148>:
    15fc:	e3a0500c 	mov	r5, #12

00001600 <l1149>:
    1600:	974de005 	strbls	lr, [sp, -r5]

00001604 <l1150>:
    1604:	718f8000 	orrvc	r8, pc, r0

00001608 <interrupt_435>:
    1608:	9331070f 	teqls	r1, #3932160	; 0x3c0000

0000160c <l1152>:
    160c:	e3a0000c 	mov	r0, #12

00001610 <l1153>:
    1610:	c11d30b0 	ldrhgt	r3, [sp, -r0]

00001614 <l1154>:
    1614:	d081ed88 	addle	lr, r1, r8, lsl #27

00001618 <l1155>:
    1618:	30eeb004 	rsccc	fp, lr, r4

0000161c <l1156>:
    161c:	e1730001 	cmn	r3, r1

00001620 <l1157>:
    1620:	526900b0 	rsbpl	r0, r9, #176	; 0xb0

00001624 <l1158>:
    1624:	658d8000 	strvs	r8, [sp]

00001628 <interrupt_395>:
    1628:	731a083a 	tstvc	sl, #3801088	; 0x3a0000

0000162c <l1160>:
    162c:	4071a130 	rsbsmi	sl, r1, r0, lsr r1

00001630 <l1161>:
    1630:	e3a0e008 	mov	lr, #8

00001634 <interrupt_101>:
    1634:	111d60de 	ldrsbne	r6, [sp, -lr]

00001638 <l1163>:
    1638:	ea000003 	b	164c <l1168>

0000163c <l1164>:
    163c:	e1c0b95a 	bic	fp, r0, sl, asr r9

00001640 <l1165>:
    1640:	d23a8ef7 	eorsle	r8, sl, #3952	; 0xf70

00001644 <l1166>:
    1644:	e0b36060 	adcs	r6, r3, r0, rrx

00001648 <l1167>:
    1648:	316faf1c 	clzcc	sl, ip

0000164c <l1168>:
    164c:	a083b069 	addge	fp, r3, r9, rrx

00001650 <l1169>:
    1650:	ca000007 	bgt	1674 <interrupt_958>

00001654 <l1170>:
    1654:	e2801074 	add	r1, r0, #116	; 0x74

00001658 <l1171>:
    1658:	01720009 	cmneq	r2, r9

0000165c <l1172>:
    165c:	80af3d47 	adchi	r3, pc, r7, asr #26

00001660 <interrupt_298>:
    1660:	42f3e00e 	rscsmi	lr, r3, #14

00001664 <interrupt_441>:
    1664:	e08b6573 	add	r6, fp, r3, ror r5

00001668 <interrupt_280>:
    1668:	233105f3 	teqcs	r1, #1019215872	; 0x3cc00000

0000166c <l1176>:
    166c:	33b098b1 	movscc	r9, #11599872	; 0xb10000

00001670 <l1177>:
    1670:	ea000000 	b	1678 <l1179>

00001674 <interrupt_958>:
    1674:	eafffff7 	b	1658 <l1171>

00001678 <l1179>:
    1678:	efc01981 	svc	0x00c01981

0000167c <l1180>:
    167c:	e1dc6001 	bics	r6, ip, r1

00001680 <l1181>:
    1680:	eff33077 	svc	0x00f33077

00001684 <l1182>:
    1684:	e3a06034 	mov	r6, #52	; 0x34

00001688 <l1183>:
    1688:	e10da0b6 	strh	sl, [sp, -r6]

0000168c <l1184>:
    168c:	e51dc034 	ldr	ip, [sp, #-52]	; 0x34

00001690 <l1185>:
    1690:	d3b04a23 	movsle	r4, #143360	; 0x23000

00001694 <l1186>:
    1694:	e59f3000 	ldr	r3, [pc]	; 169c <l1188>

00001698 <l1187>:
    1698:	ea000000 	b	16a0 <l1189>

0000169c <l1188>:
    169c:	000fffe4 	.word	0x000fffe4

000016a0 <l1189>:
    16a0:	c1038091 	swpgt	r8, r1, [r3]

000016a4 <l1190>:
    16a4:	e59f4000 	ldr	r4, [pc]	; 16ac <l1192>

000016a8 <l1191>:
    16a8:	ea000000 	b	16b0 <l1193>

000016ac <l1192>:
    16ac:	000fffd8 	.word	0x000fffd8

000016b0 <l1193>:
    16b0:	e1045097 	swp	r5, r7, [r4]

000016b4 <l1194>:
    16b4:	e99d000e 	ldmib	sp, {r1, r2, r3}

000016b8 <l1195>:
    16b8:	31dd00f0 	ldrshcc	r0, [sp]

000016bc <interrupt_811>:
    16bc:	31b0a61e 	lslscc	sl, lr, r6

000016c0 <l1197>:
    16c0:	ea000007 	b	16e4 <l1206>

000016c4 <l1198>:
    16c4:	e0ce8009 	sbc	r8, lr, r9

000016c8 <interrupt_484>:
    16c8:	a0ca7472 	sbcge	r7, sl, r2, ror r4

000016cc <interrupt_79>:
    16cc:	e29fc61d 	adds	ip, pc, #30408704	; 0x1d00000

000016d0 <interrupt_454>:
    16d0:	70abe3c3 	adcvc	lr, fp, r3, asr #7

000016d4 <interrupt_830>:
    16d4:	e26f6921 	rsb	r6, pc, #540672	; 0x84000

000016d8 <l1203>:
    16d8:	e13b0004 	teq	fp, r4

000016dc <l1204>:
    16dc:	d1a0100f 	movle	r1, pc

000016e0 <l1205>:
    16e0:	e3a03ff6 	mov	r3, #984	; 0x3d8

000016e4 <l1206>:
    16e4:	e2542e66 	subs	r2, r4, #1632	; 0x660

000016e8 <l1207>:
    16e8:	e59fa000 	ldr	sl, [pc]	; 16f0 <interrupt_909>

000016ec <interrupt_123>:
    16ec:	ea000000 	b	16f4 <l1210>

000016f0 <interrupt_909>:
    16f0:	000fffcc 	.word	0x000fffcc

000016f4 <l1210>:
    16f4:	e14a0092 	swpb	r0, r2, [sl]

000016f8 <l1211>:
    16f8:	ea000006 	b	1718 <l1219>

000016fc <l1212>:
    16fc:	e28010f6 	add	r1, r0, #246	; 0xf6

00001700 <l1213>:
    1700:	b0b647e6 	adcslt	r4, r6, r6, ror #15

00001704 <l1214>:
    1704:	d16f8f1e 	clzle	r8, lr

00001708 <interrupt_652>:
    1708:	e0c8000e 	sbc	r0, r8, lr

0000170c <l1216>:
    170c:	d2f23003 	rscsle	r3, r2, #3

00001710 <l1217>:
    1710:	3287ad05 	addcc	sl, r7, #320	; 0x140

00001714 <l1218>:
    1714:	ea000000 	b	171c <l1220>

00001718 <l1219>:
    1718:	eafffff8 	b	1700 <l1213>

0000171c <l1220>:
    171c:	e3a0e005 	mov	lr, #5

00001720 <l1221>:
    1720:	c7cd300e 	strbgt	r3, [sp, lr]

00001724 <l1222>:
    1724:	31a09179 	rorcc	r9, r9, r1

00001728 <l1223>:
    1728:	e3a0002b 	mov	r0, #43	; 0x2b

0000172c <interrupt_924>:
    172c:	975d0000 	ldrbls	r0, [sp, -r0]

00001730 <l1225>:
    1730:	e3a0c018 	mov	ip, #24

00001734 <l1226>:
    1734:	e11d40fc 	ldrsh	r4, [sp, -ip]

00001738 <l1227>:
    1738:	71790e63 	cmnvc	r9, r3, ror #28

0000173c <l1228>:
    173c:	15dd6017 	ldrbne	r6, [sp, #23]

00001740 <interrupt_612>:
    1740:	b3700101 	cmnlt	r0, #1073741824	; 0x40000000

00001744 <l1230>:
    1744:	3a000007 	bcc	1768 <l1239>

00001748 <l1231>:
    1748:	e28010ac 	add	r1, r0, #172	; 0xac

0000174c <l1232>:
    174c:	11e0a003 	mvnne	sl, r3

00001750 <l1233>:
    1750:	e1730275 	cmn	r3, r5, ror r2

00001754 <l1234>:
    1754:	90370ee1 	eorsls	r0, r7, r1, ror #29

00001758 <l1235>:
    1758:	024645b6 	subeq	r4, r6, #763363328	; 0x2d800000

0000175c <l1236>:
    175c:	c16faf11 	clzgt	sl, r1

00001760 <l1237>:
    1760:	e0f1c37e 	rscs	ip, r1, lr, ror r3

00001764 <l1238>:
    1764:	ea000000 	b	176c <l1240>

00001768 <l1239>:
    1768:	eafffff7 	b	174c <l1232>

0000176c <l1240>:
    176c:	85dda015 	ldrbhi	sl, [sp, #21]

00001770 <l1241>:
    1770:	7234802c 	eorsvc	r8, r4, #44	; 0x2c

00001774 <interrupt_847>:
    1774:	e277c19a 	rsbs	ip, r7, #-2147483610	; 0x80000026

00001778 <l1243>:
    1778:	e048b472 	sub	fp, r8, r2, ror r4

0000177c <l1244>:
    177c:	e3a08008 	mov	r8, #8

00001780 <l1245>:
    1780:	e72db008 	str	fp, [sp, -r8]!

00001784 <l1246>:
    1784:	e056500b 	subs	r5, r6, fp

00001788 <l1247>:
    1788:	e59f1000 	ldr	r1, [pc]	; 1790 <l1249>

0000178c <l1248>:
    178c:	ea000000 	b	1794 <l1250>

00001790 <l1249>:
    1790:	000fffd4 	.word	0x000fffd4

00001794 <l1250>:
    1794:	41014095 	swpmi	r4, r5, [r1]

00001798 <interrupt_240>:
    1798:	ea000004 	b	17b0 <l1257>

0000179c <l1252>:
    179c:	e2801011 	add	r1, r0, #17

000017a0 <interrupt_567>:
    17a0:	824e0436 	subhi	r0, lr, #905969664	; 0x36000000

000017a4 <l1254>:
    17a4:	70f7462c 	rscsvc	r4, r7, ip, lsr #12

000017a8 <l1255>:
    17a8:	d054206c 	subsle	r2, r4, ip, rrx

000017ac <l1256>:
    17ac:	ea000000 	b	17b4 <l1258>

000017b0 <l1257>:
    17b0:	eafffffa 	b	17a0 <interrupt_567>

000017b4 <l1258>:
    17b4:	e3a0000c 	mov	r0, #12

000017b8 <l1259>:
    17b8:	519d30b0 	ldrhpl	r3, [sp, r0]

000017bc <l1260>:
    17bc:	b0f1215c 	rscslt	r2, r1, ip, asr r1

000017c0 <l1261>:
    17c0:	e55d900c 	ldrb	r9, [sp, #-12]

000017c4 <l1262>:
    17c4:	30ebbf25 	rsccc	fp, fp, r5, lsr #30

000017c8 <l1263>:
    17c8:	e3a06020 	mov	r6, #32

000017cc <l1264>:
    17cc:	e11d70f6 	ldrsh	r7, [sp, -r6]

000017d0 <l1265>:
    17d0:	e16f8f1a 	clz	r8, sl

000017d4 <l1266>:
    17d4:	51868402 	orrpl	r8, r6, r2, lsl #8

000017d8 <l1267>:
    17d8:	e2008501 	and	r8, r0, #4194304	; 0x400000

000017dc <l1268>:
    17dc:	e1dd50b4 	ldrh	r5, [sp, #4]

000017e0 <l1269>:
    17e0:	e3a04008 	mov	r4, #8

000017e4 <interrupt_622>:
    17e4:	27dd9004 	ldrbcs	r9, [sp, r4]

000017e8 <interrupt_709>:
    17e8:	41dde0db 	ldrsbmi	lr, [sp, #11]

000017ec <l1272>:
    17ec:	e82d0104 	stmda	sp!, {r2, r8}

000017f0 <l1273>:
    17f0:	92801c05 	addls	r1, r0, #1280	; 0x500

000017f4 <l1274>:
    17f4:	d24511ca 	suble	r1, r5, #-2147483598	; 0x80000032

000017f8 <l1275>:
    17f8:	e3720e8a 	cmn	r2, #2208	; 0x8a0

000017fc <l1276>:
    17fc:	e59fa000 	ldr	sl, [pc]	; 1804 <l1278>

00001800 <l1277>:
    1800:	ea000000 	b	1808 <l1279>

00001804 <l1278>:
    1804:	000fffd8 	.word	0x000fffd8

00001808 <l1279>:
    1808:	e10a4092 	swp	r4, r2, [sl]

0000180c <l1280>:
    180c:	6009500f 	andvs	r5, r9, pc

00001810 <l1281>:
    1810:	e3a0e006 	mov	lr, #6

00001814 <interrupt_472>:
    1814:	919d20be 	ldrhls	r2, [sp, lr]

00001818 <l1283>:
    1818:	718454c7 	orrvc	r5, r4, r7, asr #9

0000181c <l1284>:
    181c:	e21140bc 	ands	r4, r1, #188	; 0xbc

00001820 <l1285>:
    1820:	e0ff5000 	rscs	r5, pc, r0

00001824 <interrupt_947>:
    1824:	e0fc6e0e 	rscs	r6, ip, lr, lsl #28

00001828 <l1287>:
    1828:	e3a09018 	mov	r9, #24

0000182c <interrupt_672>:
    182c:	319dc0b9 	ldrhcc	ip, [sp, r9]

00001830 <l1289>:
    1830:	701831e0 	andsvc	r3, r8, r0, ror #3

00001834 <l1290>:
    1834:	315a0307 	cmpcc	sl, r7, lsl #6

00001838 <interrupt_845>:
    1838:	b0b6e069 	adcslt	lr, r6, r9, rrx

0000183c <interrupt_436>:
    183c:	e16f5f13 	clz	r5, r3

00001840 <l1293>:
    1840:	e225252e 	eor	r2, r5, #192937984	; 0xb800000

00001844 <l1294>:
    1844:	e3a0a01e 	mov	sl, #30

00001848 <l1295>:
    1848:	e11db0fa 	ldrsh	fp, [sp, -sl]

0000184c <interrupt_253>:
    184c:	e0891008 	add	r1, r9, r8

00001850 <interrupt_557>:
    1850:	e0641002 	rsb	r1, r4, r2

00001854 <l1298>:
    1854:	8012745e 	andshi	r7, r2, lr, asr r4

00001858 <l1299>:
    1858:	116faf14 	clzne	sl, r4

0000185c <l1300>:
    185c:	0317033a 	tsteq	r7, #-402653184	; 0xe8000000

00001860 <l1301>:
    1860:	63780bd6 	cmnvs	r8, #219136	; 0x35800

00001864 <interrupt_15>:
    1864:	ef043b4b 	svc	0x00043b4b

00001868 <l1303>:
    1868:	e82d2000 	stmda	sp!, {sp}

0000186c <l1304>:
    186c:	b05b4000 	subslt	r4, fp, r0

00001870 <interrupt_543>:
    1870:	e2456807 	sub	r6, r5, #458752	; 0x70000

00001874 <l1306>:
    1874:	c2c6648b 	sbcgt	r6, r6, #-1962934272	; 0x8b000000

00001878 <l1307>:
    1878:	e051b472 	subs	fp, r1, r2, ror r4

0000187c <l1308>:
    187c:	ea000003 	b	1890 <l1313>

00001880 <l1309>:
    1880:	e280101f 	add	r1, r0, #31

00001884 <l1310>:
    1884:	81d47758 	bicshi	r7, r4, r8, asr r7

00001888 <interrupt_328>:
    1888:	e3812741 	orr	r2, r1, #17039360	; 0x1040000

0000188c <l1312>:
    188c:	ea000000 	b	1894 <l1314>

00001890 <l1313>:
    1890:	eafffffb 	b	1884 <l1310>

00001894 <l1314>:
    1894:	a1790001 	cmnge	r9, r1

00001898 <l1315>:
    1898:	e3a06020 	mov	r6, #32

0000189c <l1316>:
    189c:	e73d1006 	ldr	r1, [sp, -r6]!

000018a0 <l1317>:
    18a0:	da000007 	ble	18c4 <l1326>

000018a4 <l1318>:
    18a4:	03853b7f 	orreq	r3, r5, #130048	; 0x1fc00

000018a8 <interrupt_35>:
    18a8:	61a08cee 	rorvs	r8, lr, #25

000018ac <l1320>:
    18ac:	e27c2179 	rsbs	r2, ip, #1073741854	; 0x4000001e

000018b0 <l1321>:
    18b0:	b0f51636 	rscslt	r1, r5, r6, lsr r6

000018b4 <l1322>:
    18b4:	2254c676 	subscs	ip, r4, #123731968	; 0x7600000

000018b8 <l1323>:
    18b8:	e0cab450 	sbc	fp, sl, r0, asr r4

000018bc <l1324>:
    18bc:	00d9b867 	sbcseq	fp, r9, r7, ror #16

000018c0 <l1325>:
    18c0:	e16f2f1e 	clz	r2, lr

000018c4 <l1326>:
    18c4:	e33206b1 	teq	r2, #185597952	; 0xb100000

000018c8 <l1327>:
    18c8:	e2d735c5 	sbcs	r3, r7, #826277888	; 0x31400000

000018cc <interrupt_124>:
    18cc:	e1a05008 	mov	r5, r8

000018d0 <l1329>:
    18d0:	e22bcb03 	eor	ip, fp, #3072	; 0xc00

000018d4 <interrupt_256>:
    18d4:	b092800b 	addslt	r8, r2, fp

000018d8 <l1331>:
    18d8:	e1c23009 	bic	r3, r2, r9

000018dc <interrupt_521>:
    18dc:	2a000007 	bcs	1900 <l1341>

000018e0 <l1333>:
    18e0:	e280101f 	add	r1, r0, #31

000018e4 <l1334>:
    18e4:	e0b9a06b 	adcs	sl, r9, fp, rrx

000018e8 <interrupt_689>:
    18e8:	e1360062 	teq	r6, r2, rrx

000018ec <interrupt_311>:
    18ec:	e378057a 	cmn	r8, #511705088	; 0x1e800000

000018f0 <l1337>:
    18f0:	e272b636 	rsbs	fp, r2, #56623104	; 0x3600000

000018f4 <l1338>:
    18f4:	e176037b 	cmn	r6, fp, ror r3

000018f8 <l1339>:
    18f8:	c3c649eb 	bicgt	r4, r6, #3850240	; 0x3ac000

000018fc <l1340>:
    18fc:	ea000000 	b	1904 <l1342>

00001900 <l1341>:
    1900:	eafffff7 	b	18e4 <l1334>

00001904 <l1342>:
    1904:	3202c239 	andcc	ip, r2, #-1879048189	; 0x90000003

00001908 <l1343>:
    1908:	ea000004 	b	1920 <l1349>

0000190c <l1344>:
    190c:	e280109c 	add	r1, r0, #156	; 0x9c

00001910 <interrupt_618>:
    1910:	416f2f1c 	clzmi	r2, ip

00001914 <l1346>:
    1914:	61b0e009 	movsvs	lr, r9

00001918 <l1347>:
    1918:	c093cdc0 	addsgt	ip, r3, r0, asr #27

0000191c <l1348>:
    191c:	ea000000 	b	1924 <l1350>

00001920 <l1349>:
    1920:	eafffffa 	b	1910 <interrupt_618>

00001924 <l1350>:
    1924:	e1819064 	orr	r9, r1, r4, rrx

00001928 <l1351>:
    1928:	e11e000e 	tst	lr, lr

0000192c <interrupt_717>:
    192c:	35cd901a 	strbcc	r9, [sp, #26]

00001930 <l1353>:
    1930:	11ddc4db 	ldrsbne	ip, [sp, #75]	; 0x4b

00001934 <l1354>:
    1934:	e59f4000 	ldr	r4, [pc]	; 193c <l1356>

00001938 <l1355>:
    1938:	ea000000 	b	1940 <interrupt_134>

0000193c <l1356>:
    193c:	000fffac 	.word	0x000fffac

00001940 <interrupt_134>:
    1940:	e104909a 	swp	r9, sl, [r4]

00001944 <l1358>:
    1944:	e26082cb 	rsb	r8, r0, #-1342177268	; 0xb000000c

00001948 <l1359>:
    1948:	e3a0a049 	mov	sl, #73	; 0x49

0000194c <l1360>:
    194c:	d7cd300a 	strble	r3, [sp, sl]

00001950 <l1361>:
    1950:	e0f93060 	rscs	r3, r9, r0, rrx

00001954 <l1362>:
    1954:	e0ec5924 	rsc	r5, ip, r4, lsr #18

00001958 <l1363>:
    1958:	e1170000 	tst	r7, r0

0000195c <l1364>:
    195c:	45cdb015 	strbmi	fp, [sp, #21]

00001960 <l1365>:
    1960:	e16fcf13 	clz	ip, r3

00001964 <interrupt_843>:
    1964:	e02e5a11 	eor	r5, lr, r1, lsl sl

00001968 <l1367>:
    1968:	e48d8014 	str	r8, [sp], #20

0000196c <l1368>:
    196c:	d17c0000 	cmnle	ip, r0

00001970 <l1369>:
    1970:	80422008 	subhi	r2, r2, r8

00001974 <interrupt_271>:
    1974:	e1b07358 	asrs	r7, r8, r3

00001978 <l1371>:
    1978:	e24b94de 	sub	r9, fp, #-570425344	; 0xde000000

0000197c <l1372>:
    197c:	e009e612 	and	lr, r9, r2, lsl r6

00001980 <l1373>:
    1980:	e3a0902b 	mov	r9, #43	; 0x2b

00001984 <l1374>:
    1984:	e19d90d9 	ldrsb	r9, [sp, r9]

00001988 <l1375>:
    1988:	b0783007 	rsbslt	r3, r8, r7

0000198c <l1376>:
    198c:	51f0e007 	mvnspl	lr, r7

00001990 <l1377>:
    1990:	e04a1004 	sub	r1, sl, r4

00001994 <l1378>:
    1994:	ef8d8ee5 	svc	0x008d8ee5

00001998 <l1379>:
    1998:	e3a0c00a 	mov	ip, #10

0000199c <l1380>:
    199c:	011d00dc 	ldrsbeq	r0, [sp, -ip]

000019a0 <interrupt_674>:
    19a0:	e3a03028 	mov	r3, #40	; 0x28

000019a4 <l1382>:
    19a4:	e7ad9003 	str	r9, [sp, r3]!

000019a8 <l1383>:
    19a8:	e22c57bb 	eor	r5, ip, #49020928	; 0x2ec0000

000019ac <l1384>:
    19ac:	433f0941 	teqmi	pc, #1064960	; 0x104000

000019b0 <l1385>:
    19b0:	e15d73d6 	ldrsb	r7, [sp, #-54]	; 0xffffffca

000019b4 <l1386>:
    19b4:	52048afd 	andpl	r8, r4, #1036288	; 0xfd000

000019b8 <interrupt_746>:
    19b8:	e15d53f8 	ldrsh	r5, [sp, #-56]	; 0xffffffc8

000019bc <l1388>:
    19bc:	e41d8034 	ldr	r8, [sp], #-52	; 0x34

000019c0 <l1389>:
    19c0:	e04ea06a 	sub	sl, lr, sl, rrx

000019c4 <interrupt_226>:
    19c4:	c1dd12be 	ldrhgt	r1, [sp, #46]	; 0x2e

000019c8 <l1391>:
    19c8:	e3370105 	teq	r7, #1073741825	; 0x40000001

000019cc <l1392>:
    19cc:	e15b0612 	cmp	fp, r2, lsl r6

000019d0 <l1393>:
    19d0:	e59f6000 	ldr	r6, [pc]	; 19d8 <interrupt_499>

000019d4 <l1394>:
    19d4:	ea000000 	b	19dc <interrupt_946>

000019d8 <interrupt_499>:
    19d8:	000fffe8 	.word	0x000fffe8

000019dc <interrupt_946>:
    19dc:	7146109b 	swpbvc	r1, fp, [r6]

000019e0 <l1397>:
    19e0:	6151022c 	cmpvs	r1, ip, lsr #4

000019e4 <l1398>:
    19e4:	e9ad58d9 	stmib	sp!, {r0, r3, r4, r6, r7, fp, ip, lr}

000019e8 <interrupt_724>:
    19e8:	eff980d8 	svc	0x00f980d8

000019ec <l1400>:
    19ec:	406a7003 	rsbmi	r7, sl, r3

000019f0 <l1401>:
    19f0:	e0fb4066 	rscs	r4, fp, r6, rrx

000019f4 <l1402>:
    19f4:	c90dc966 	stmdbgt	sp, {r1, r2, r5, r6, r8, fp, lr, pc}

000019f8 <l1403>:
    19f8:	52e24b9f 	rscpl	r4, r2, #162816	; 0x27c00

000019fc <l1404>:
    19fc:	e0401459 	sub	r1, r0, r9, asr r4

00001a00 <interrupt_515>:
    1a00:	e38f112b 	orr	r1, pc, #-1073741814	; 0xc000000a

00001a04 <l1406>:
    1a04:	e59f3000 	ldr	r3, [pc]	; 1a0c <l1408>

00001a08 <interrupt_688>:
    1a08:	ea000000 	b	1a10 <l1409>

00001a0c <l1408>:
    1a0c:	000fffdc 	.word	0x000fffdc

00001a10 <l1409>:
    1a10:	c103409c 	swpgt	r4, ip, [r3]

00001a14 <l1410>:
    1a14:	e59f4000 	ldr	r4, [pc]	; 1a1c <l1412>

00001a18 <l1411>:
    1a18:	ea000000 	b	1a20 <l1413>

00001a1c <l1412>:
    1a1c:	000fffb8 	.word	0x000fffb8

00001a20 <l1413>:
    1a20:	1104b098 	swpne	fp, r8, [r4]

00001a24 <l1414>:
    1a24:	e59fe000 	ldr	lr, [pc]	; 1a2c <l1416>

00001a28 <interrupt_392>:
    1a28:	ea000000 	b	1a30 <l1417>

00001a2c <l1416>:
    1a2c:	000fffb0 	.word	0x000fffb0

00001a30 <l1417>:
    1a30:	b14e5099 	swpblt	r5, r9, [lr]

00001a34 <interrupt_602>:
    1a34:	ef9a797c 	svc	0x009a797c

00001a38 <l1419>:
    1a38:	e41d4004 	ldr	r4, [sp], #-4

00001a3c <l1420>:
    1a3c:	e1e07915 	mvn	r7, r5, lsl r9

00001a40 <l1421>:
    1a40:	70af500a 	adcvc	r5, pc, sl

00001a44 <l1422>:
    1a44:	e314063d 	tst	r4, #63963136	; 0x3d00000

00001a48 <interrupt_181>:
    1a48:	ba000006 	blt	1a68 <l1431>

00001a4c <interrupt_74>:
    1a4c:	e28010d3 	add	r1, r0, #211	; 0xd3

00001a50 <l1425>:
    1a50:	e0d9c513 	sbcs	ip, r9, r3, lsl r5

00001a54 <l1426>:
    1a54:	e2d2532f 	sbcs	r5, r2, #-1140850688	; 0xbc000000

00001a58 <l1427>:
    1a58:	e049838a 	sub	r8, r9, sl, lsl #7

00001a5c <interrupt_899>:
    1a5c:	32564c15 	subscc	r4, r6, #5376	; 0x1500

00001a60 <l1429>:
    1a60:	10359004 	eorsne	r9, r5, r4

00001a64 <interrupt_897>:
    1a64:	ea000000 	b	1a6c <l1432>

00001a68 <l1431>:
    1a68:	eafffff8 	b	1a50 <l1425>

00001a6c <l1432>:
    1a6c:	e59f3000 	ldr	r3, [pc]	; 1a74 <l1434>

00001a70 <l1433>:
    1a70:	ea000000 	b	1a78 <l1435>

00001a74 <l1434>:
    1a74:	000fffb0 	.word	0x000fffb0

00001a78 <l1435>:
    1a78:	e143c099 	swpb	ip, r9, [r3]

00001a7c <interrupt_306>:
    1a7c:	513b000c 	teqpl	fp, ip

00001a80 <l1437>:
    1a80:	733406fa 	teqvc	r4, #262144000	; 0xfa00000

00001a84 <interrupt_426>:
    1a84:	e1b09069 	rrxs	r9, r9

00001a88 <l1439>:
    1a88:	e3a0b021 	mov	fp, #33	; 0x21

00001a8c <l1440>:
    1a8c:	e7cd600b 	strb	r6, [sp, fp]

00001a90 <l1441>:
    1a90:	7a000008 	bvc	1ab8 <interrupt_507>

00001a94 <interrupt_791>:
    1a94:	e130006a 	teq	r0, sl, rrx

00001a98 <l1443>:
    1a98:	41a0100a 	movmi	r1, sl

00001a9c <l1444>:
    1a9c:	e0806e39 	add	r6, r0, r9, lsr lr

00001aa0 <l1445>:
    1aa0:	111b0b53 	tstne	fp, r3, asr fp

00001aa4 <interrupt_397>:
    1aa4:	33370146 	teqcc	r7, #-2147483631	; 0x80000011

00001aa8 <l1447>:
    1aa8:	e046a06f 	sub	sl, r6, pc, rrx

00001aac <l1448>:
    1aac:	e3550851 	cmp	r5, #5308416	; 0x510000

00001ab0 <l1449>:
    1ab0:	c16f6f1c 	clzgt	r6, ip

00001ab4 <l1450>:
    1ab4:	c210c4ab 	andsgt	ip, r0, #-1426063360	; 0xab000000

00001ab8 <interrupt_507>:
    1ab8:	50647e43 	rsbpl	r7, r4, r3, asr #28

00001abc <l1452>:
    1abc:	00876064 	addeq	r6, r7, r4, rrx

00001ac0 <l1453>:
    1ac0:	e28287d2 	add	r8, r2, #55050240	; 0x3480000

00001ac4 <l1454>:
    1ac4:	e0c02006 	sbc	r2, r0, r6

00001ac8 <l1455>:
    1ac8:	e1dd41fe 	ldrsh	r4, [sp, #30]

00001acc <l1456>:
    1acc:	e55d5019 	ldrb	r5, [sp, #-25]

00001ad0 <l1457>:
    1ad0:	e9bd1e21 	ldmib	sp!, {r0, r5, r9, sl, fp, ip}

00001ad4 <interrupt_832>:
    1ad4:	803b8008 	eorshi	r8, fp, r8

00001ad8 <l1459>:
    1ad8:	e032c062 	eors	ip, r2, r2, rrx

00001adc <l1460>:
    1adc:	e012a004 	ands	sl, r2, r4

00001ae0 <l1461>:
    1ae0:	e1770329 	cmn	r7, r9, lsr #6

00001ae4 <l1462>:
    1ae4:	e3a0a020 	mov	sl, #32

00001ae8 <l1463>:
    1ae8:	e74d400a 	strb	r4, [sp, -sl]

00001aec <l1464>:
    1aec:	e59f7000 	ldr	r7, [pc]	; 1af4 <l1466>

00001af0 <l1465>:
    1af0:	ea000000 	b	1af8 <l1467>

00001af4 <l1466>:
    1af4:	000fffe0 	.word	0x000fffe0

00001af8 <l1467>:
    1af8:	e147a098 	swpb	sl, r8, [r7]

00001afc <interrupt_411>:
    1afc:	ef82247f 	svc	0x0082247f

00001b00 <l1469>:
    1b00:	92326b23 	eorsls	r6, r2, #35840	; 0x8c00

00001b04 <l1470>:
    1b04:	e14d92b0 	strh	r9, [sp, #-32]	; 0xffffffe0

00001b08 <l1471>:
    1b08:	e83d023f 	ldmda	sp!, {r0, r1, r2, r3, r4, r5, r9}

00001b0c <l1472>:
    1b0c:	d1110165 	tstle	r1, r5, ror #2

00001b10 <l1473>:
    1b10:	015d41b8 	ldrheq	r4, [sp, #-24]	; 0xffffffe8

00001b14 <l1474>:
    1b14:	e3a0a02a 	mov	sl, #42	; 0x2a

00001b18 <l1475>:
    1b18:	d19d10fa 	ldrshle	r1, [sp, sl]

00001b1c <l1476>:
    1b1c:	e14de0ba 	strh	lr, [sp, #-10]

00001b20 <interrupt_941>:
    1b20:	21e0400a 	mvncs	r4, sl

00001b24 <l1478>:
    1b24:	e82d1822 	stmda	sp!, {r1, r5, fp, ip}

00001b28 <l1479>:
    1b28:	e8ad0dde 	stmia	sp!, {r1, r2, r3, r4, r6, r7, r8, sl, fp}

00001b2c <l1480>:
    1b2c:	efbcea75 	svc	0x00bcea75

00001b30 <l1481>:
    1b30:	7278cf5a 	rsbsvc	ip, r8, #360	; 0x168

00001b34 <l1482>:
    1b34:	e0d0492a 	sbcs	r4, r0, sl, lsr #18

00001b38 <l1483>:
    1b38:	5a000005 	bpl	1b54 <l1490>

00001b3c <l1484>:
    1b3c:	e2801019 	add	r1, r0, #25

00001b40 <l1485>:
    1b40:	93cb0233 	bicls	r0, fp, #805306371	; 0x30000003

00001b44 <l1486>:
    1b44:	b1a06a52 	asrlt	r6, r2, sl

00001b48 <interrupt_143>:
    1b48:	e158047c 	cmp	r8, ip, ror r4

00001b4c <l1488>:
    1b4c:	e0daab6b 	sbcs	sl, sl, fp, ror #22

00001b50 <l1489>:
    1b50:	ea000000 	b	1b58 <interrupt_651>

00001b54 <l1490>:
    1b54:	eafffff9 	b	1b40 <l1485>

00001b58 <interrupt_651>:
    1b58:	e82d2000 	stmda	sp!, {sp}

00001b5c <l1492>:
    1b5c:	189d0908 	ldmne	sp, {r3, r8, fp}

00001b60 <l1493>:
    1b60:	c1b01008 	movsgt	r1, r8

00001b64 <interrupt_964>:
    1b64:	e5cd2015 	strb	r2, [sp, #21]

00001b68 <l1495>:
    1b68:	ef967f2b 	svc	0x00967f2b

00001b6c <l1496>:
    1b6c:	e3a00006 	mov	r0, #6

00001b70 <interrupt_371>:
    1b70:	e10de0b0 	strh	lr, [sp, -r0]

00001b74 <l1498>:
    1b74:	ef7d5236 	svc	0x007d5236

00001b78 <l1499>:
    1b78:	e3a06006 	mov	r6, #6

00001b7c <l1500>:
    1b7c:	d11d80b6 	ldrhle	r8, [sp, -r6]

00001b80 <l1501>:
    1b80:	61a0a004 	movvs	sl, r4

00001b84 <l1502>:
    1b84:	d1a0a009 	movle	sl, r9

00001b88 <l1503>:
    1b88:	21790003 	cmncs	r9, r3

00001b8c <interrupt_692>:
    1b8c:	e110023c 	tst	r0, ip, lsr r2

00001b90 <l1505>:
    1b90:	e50d0020 	str	r0, [sp, #-32]

00001b94 <interrupt_984>:
    1b94:	ea000004 	b	1bac <l1512>

00001b98 <interrupt_827>:
    1b98:	e28010f3 	add	r1, r0, #243	; 0xf3

00001b9c <l1508>:
    1b9c:	b33308a7 	teqlt	r3, #10944512	; 0xa70000

00001ba0 <l1509>:
    1ba0:	e15b0916 	cmp	fp, r6, lsl r9

00001ba4 <interrupt_204>:
    1ba4:	00a7600f 	adceq	r6, r7, pc

00001ba8 <interrupt_792>:
    1ba8:	ea000000 	b	1bb0 <l1513>

00001bac <l1512>:
    1bac:	eafffffa 	b	1b9c <l1508>

00001bb0 <l1513>:
    1bb0:	40a7363b 	adcmi	r3, r7, fp, lsr r6

00001bb4 <l1514>:
    1bb4:	01d4ba56 	bicseq	fp, r4, r6, asr sl

00001bb8 <interrupt_125>:
    1bb8:	e1db3009 	bics	r3, fp, r9

00001bbc <l1516>:
    1bbc:	e3a0500e 	mov	r5, #14

00001bc0 <l1517>:
    1bc0:	e11d80f5 	ldrsh	r8, [sp, -r5]

00001bc4 <l1518>:
    1bc4:	e045900a 	sub	r9, r5, sl

00001bc8 <l1519>:
    1bc8:	433b0add 	teqmi	fp, #905216	; 0xdd000

00001bcc <l1520>:
    1bcc:	e3a0c028 	mov	ip, #40	; 0x28

00001bd0 <l1521>:
    1bd0:	e73d000c 	ldr	r0, [sp, -ip]!

00001bd4 <l1522>:
    1bd4:	20a3c37b 	adccs	ip, r3, fp, ror r3

00001bd8 <l1523>:
    1bd8:	d2564e36 	subsle	r4, r6, #864	; 0x360

00001bdc <l1524>:
    1bdc:	efb23dea 	svc	0x00b23dea

00001be0 <l1525>:
    1be0:	e3a0303d 	mov	r3, #61	; 0x3d

00001be4 <l1526>:
    1be4:	e7cd6003 	strb	r6, [sp, r3]

00001be8 <interrupt_27>:
    1be8:	e1dda1bc 	ldrh	sl, [sp, #28]

00001bec <interrupt_295>:
    1bec:	e59f8000 	ldr	r8, [pc]	; 1bf4 <l1530>

00001bf0 <interrupt_933>:
    1bf0:	ea000000 	b	1bf8 <l1531>

00001bf4 <l1530>:
    1bf4:	000fffe8 	.word	0x000fffe8

00001bf8 <l1531>:
    1bf8:	41085095 	swpmi	r5, r5, [r8]

00001bfc <l1532>:
    1bfc:	e59f1000 	ldr	r1, [pc]	; 1c04 <interrupt_733>

00001c00 <l1533>:
    1c00:	ea000000 	b	1c08 <l1535>

00001c04 <interrupt_733>:
    1c04:	000fffcc 	.word	0x000fffcc

00001c08 <l1535>:
    1c08:	e1018099 	swp	r8, r9, [r1]

00001c0c <interrupt_309>:
    1c0c:	e3a0b028 	mov	fp, #40	; 0x28

00001c10 <l1537>:
    1c10:	e69d600b 	ldr	r6, [sp], fp

00001c14 <interrupt_629>:
    1c14:	10301e11 	eorsne	r1, r0, r1, lsl lr

00001c18 <l1539>:
    1c18:	e3a0701d 	mov	r7, #29

00001c1c <interrupt_276>:
    1c1c:	a75d2007 	ldrbge	r2, [sp, -r7]

00001c20 <l1541>:
    1c20:	21dd01fa 	ldrshcs	r0, [sp, #26]

00001c24 <l1542>:
    1c24:	ef7b9562 	svc	0x007b9562

00001c28 <l1543>:
    1c28:	92e5e0c0 	rscls	lr, r5, #192	; 0xc0

00001c2c <l1544>:
    1c2c:	efde5d1e 	svc	0x00de5d1e

00001c30 <interrupt_991>:
    1c30:	e3a0c00c 	mov	ip, #12

00001c34 <l1546>:
    1c34:	719d80bc 	ldrhvc	r8, [sp, ip]

00001c38 <interrupt_920>:
    1c38:	ea000008 	b	1c60 <l1557>

00001c3c <l1548>:
    1c3c:	e1160063 	tst	r6, r3, rrx

00001c40 <interrupt_822>:
    1c40:	61ce0064 	bicvs	r0, lr, r4, rrx

00001c44 <l1550>:
    1c44:	b0e4c463 	rsclt	ip, r4, r3, ror #8

00001c48 <interrupt_527>:
    1c48:	01570064 	cmpeq	r7, r4, rrx

00001c4c <l1552>:
    1c4c:	50507007 	subspl	r7, r0, r7

00001c50 <interrupt_430>:
    1c50:	d2c60879 	sbcle	r0, r6, #7929856	; 0x790000

00001c54 <l1554>:
    1c54:	61710003 	cmnvs	r1, r3

00001c58 <l1555>:
    1c58:	813e000c 	teqhi	lr, ip

00001c5c <l1556>:
    1c5c:	e16f2f1e 	clz	r2, lr

00001c60 <l1557>:
    1c60:	73310de2 	teqvc	r1, #14464	; 0x3880

00001c64 <l1558>:
    1c64:	2affffff 	bcs	1c68 <l1559>

00001c68 <l1559>:
    1c68:	a0cb906c 	sbcge	r9, fp, ip, rrx

00001c6c <l1560>:
    1c6c:	e3a04030 	mov	r4, #48	; 0x30

00001c70 <l1561>:
    1c70:	d71d8004 	ldrle	r8, [sp, -r4]

00001c74 <l1562>:
    1c74:	81a03bce 	asrhi	r3, lr, #23

00001c78 <l1563>:
    1c78:	e29c4913 	adds	r4, ip, #311296	; 0x4c000

00001c7c <l1564>:
    1c7c:	50c86755 	sbcpl	r6, r8, r5, asr r7

00001c80 <l1565>:
    1c80:	016f9f10 	clzeq	r9, r0

00001c84 <l1566>:
    1c84:	e0432fef 	sub	r2, r3, pc, ror #31

00001c88 <l1567>:
    1c88:	e40da004 	str	sl, [sp], #-4

00001c8c <l1568>:
    1c8c:	9a000007 	bls	1cb0 <l1577>

00001c90 <l1569>:
    1c90:	e2801012 	add	r1, r0, #18

00001c94 <l1570>:
    1c94:	437c064d 	cmnmi	ip, #80740352	; 0x4d00000

00001c98 <l1571>:
    1c98:	c0515559 	subsgt	r5, r1, r9, asr r5

00001c9c <l1572>:
    1c9c:	63d63422 	bicsvs	r3, r6, #570425344	; 0x22000000

00001ca0 <l1573>:
    1ca0:	e1854064 	orr	r4, r5, r4, rrx

00001ca4 <l1574>:
    1ca4:	73b076ed 	movsvc	r7, #248512512	; 0xed00000

00001ca8 <interrupt_270>:
    1ca8:	e1720a35 	cmn	r2, r5, lsr sl

00001cac <l1576>:
    1cac:	ea000000 	b	1cb4 <l1578>

00001cb0 <l1577>:
    1cb0:	eafffff7 	b	1c94 <l1570>

00001cb4 <l1578>:
    1cb4:	511701a6 	tstpl	r7, r6, lsr #3

00001cb8 <l1579>:
    1cb8:	e1e0a00e 	mvn	sl, lr

00001cbc <l1580>:
    1cbc:	c16f4f1b 	clzgt	r4, fp

00001cc0 <l1581>:
    1cc0:	81f0cdcc 	mvnshi	ip, ip, asr #27

00001cc4 <l1582>:
    1cc4:	e1720238 	cmn	r2, r8, lsr r2

00001cc8 <l1583>:
    1cc8:	915dc1d2 	ldrsbls	ip, [sp, #-18]	; 0xffffffee

00001ccc <l1584>:
    1ccc:	61760000 	cmnvs	r6, r0

00001cd0 <interrupt_130>:
    1cd0:	054dc014 	strbeq	ip, [sp, #-20]

00001cd4 <l1586>:
    1cd4:	e3a04000 	mov	r4, #0

00001cd8 <l1587>:
    1cd8:	e68d1004 	str	r1, [sp], r4

00001cdc <l1588>:
    1cdc:	e0b4c678 	adcs	ip, r4, r8, ror r6

00001ce0 <l1589>:
    1ce0:	e3a0a000 	mov	sl, #0

00001ce4 <l1590>:
    1ce4:	179d800a 	ldrne	r8, [sp, sl]

00001ce8 <l1591>:
    1ce8:	e3c943d7 	bic	r4, r9, #1543503875	; 0x5c000003

00001cec <l1592>:
    1cec:	e1e08007 	mvn	r8, r7

00001cf0 <l1593>:
    1cf0:	e3a0701b 	mov	r7, #27

00001cf4 <l1594>:
    1cf4:	e74dc007 	strb	ip, [sp, -r7]

00001cf8 <l1595>:
    1cf8:	efca3d19 	svc	0x00ca3d19

00001cfc <l1596>:
    1cfc:	e8ad2000 	stmia	sp!, {sp}

00001d00 <l1597>:
    1d00:	e55d4001 	ldrb	r4, [sp, #-1]

00001d04 <l1598>:
    1d04:	115a0039 	cmpne	sl, r9, lsr r0

00001d08 <l1599>:
    1d08:	e3a0c00c 	mov	ip, #12

00001d0c <l1600>:
    1d0c:	e18d70bc 	strh	r7, [sp, ip]

00001d10 <l1601>:
    1d10:	e54da029 	strb	sl, [sp, #-41]	; 0x29

00001d14 <l1602>:
    1d14:	53120fbd 	tstpl	r2, #756	; 0x2f4

00001d18 <l1603>:
    1d18:	00baeb68 	adcseq	lr, sl, r8, ror #22

00001d1c <l1604>:
    1d1c:	e3a0201a 	mov	r2, #26

00001d20 <l1605>:
    1d20:	b75db002 	ldrblt	fp, [sp, -r2]

00001d24 <l1606>:
    1d24:	e0385007 	eors	r5, r8, r7

00001d28 <l1607>:
    1d28:	e1a00000 	nop			; (mov r0, r0)

00001d2c <l1608>:
    1d2c:	416f9f1c 	clzmi	r9, ip

00001d30 <l1609>:
    1d30:	e1e06006 	mvn	r6, r6

00001d34 <l1610>:
    1d34:	c1340235 	teqgt	r4, r5, lsr r2

00001d38 <l1611>:
    1d38:	e59f0000 	ldr	r0, [pc]	; 1d40 <l1613>

00001d3c <l1612>:
    1d3c:	ea000000 	b	1d44 <interrupt_777>

00001d40 <l1613>:
    1d40:	000fffc8 	.word	0x000fffc8

00001d44 <interrupt_777>:
    1d44:	41006091 	swpmi	r6, r1, [r0]

00001d48 <l1615>:
    1d48:	e1a04002 	mov	r4, r2

00001d4c <l1616>:
    1d4c:	b008100e 	andlt	r1, r8, lr

00001d50 <l1617>:
    1d50:	e060200e 	rsb	r2, r0, lr

00001d54 <l1618>:
    1d54:	e04cc00f 	sub	ip, ip, pc

00001d58 <interrupt_683>:
    1d58:	1a000004 	bne	1d70 <l1625>

00001d5c <l1620>:
    1d5c:	90b6a007 	adcsls	sl, r6, r7

00001d60 <interrupt_54>:
    1d60:	e178024c 	cmn	r8, ip, asr #4

00001d64 <l1622>:
    1d64:	a05f2006 	subsge	r2, pc, r6

00001d68 <l1623>:
    1d68:	e094000a 	adds	r0, r4, sl

00001d6c <l1624>:
    1d6c:	22d3b789 	sbcscs	fp, r3, #35913728	; 0x2240000

00001d70 <l1625>:
    1d70:	e0f89066 	rscs	r9, r8, r6, rrx

00001d74 <l1626>:
    1d74:	e3a04019 	mov	r4, #25

00001d78 <l1627>:
    1d78:	e7cdc004 	strb	ip, [sp, r4]

00001d7c <l1628>:
    1d7c:	2a000004 	bcs	1d94 <l1634>

00001d80 <l1629>:
    1d80:	70171478 	andsvc	r1, r7, r8, ror r4

00001d84 <l1630>:
    1d84:	e1f06066 	mvns	r6, r6, rrx

00001d88 <l1631>:
    1d88:	83d3e0d4 	bicshi	lr, r3, #212	; 0xd4

00001d8c <l1632>:
    1d8c:	e0d7500f 	sbcs	r5, r7, pc

00001d90 <l1633>:
    1d90:	6199e335 	orrsvs	lr, r9, r5, lsr r3

00001d94 <l1634>:
    1d94:	925a6d1a 	subsls	r6, sl, #1664	; 0x680

00001d98 <l1635>:
    1d98:	491d5e8e 	ldmdbmi	sp, {r1, r2, r3, r7, r9, sl, fp, ip, lr}

00001d9c <l1636>:
    1d9c:	71879b59 	orrvc	r9, r7, r9, asr fp

00001da0 <l1637>:
    1da0:	d2999769 	addsle	r9, r9, #27525120	; 0x1a40000

00001da4 <l1638>:
    1da4:	2a000006 	bcs	1dc4 <l1646>

00001da8 <l1639>:
    1da8:	e2aecc0b 	adc	ip, lr, #2816	; 0xb00

00001dac <l1640>:
    1dac:	60516004 	subsvs	r6, r1, r4

00001db0 <l1641>:
    1db0:	115a0001 	cmpne	sl, r1

00001db4 <l1642>:
    1db4:	e1a0e773 	ror	lr, r3, r7

00001db8 <l1643>:
    1db8:	40cc1672 	sbcmi	r1, ip, r2, ror r6

00001dbc <l1644>:
    1dbc:	e0c8464c 	sbc	r4, r8, ip, asr #12

00001dc0 <l1645>:
    1dc0:	d062ed4c 	rsble	lr, r2, ip, asr #26

00001dc4 <l1646>:
    1dc4:	516f0f10 	clzpl	r0, r0

00001dc8 <interrupt_542>:
    1dc8:	e3a0c01a 	mov	ip, #26

00001dcc <l1648>:
    1dcc:	b10d30bc 	strhlt	r3, [sp, -ip]

00001dd0 <l1649>:
    1dd0:	e15b006f 	cmp	fp, pc, rrx

00001dd4 <l1650>:
    1dd4:	e37a0bab 	cmn	sl, #175104	; 0x2ac00

00001dd8 <l1651>:
    1dd8:	e0f80005 	rscs	r0, r8, r5

00001ddc <interrupt_179>:
    1ddc:	5a000007 	bpl	1e00 <l1661>

00001de0 <l1653>:
    1de0:	e004787a 	and	r7, r4, sl, ror r8

00001de4 <interrupt_625>:
    1de4:	2090400b 	addscs	r4, r0, fp

00001de8 <l1655>:
    1de8:	e182a76f 	orr	sl, r2, pc, ror #14

00001dec <interrupt_735>:
    1dec:	e1a04e56 	asr	r4, r6, lr

00001df0 <interrupt_657>:
    1df0:	7178006e 	cmnvc	r8, lr, rrx

00001df4 <l1658>:
    1df4:	d16f0f12 	clzle	r0, r2

00001df8 <interrupt_971>:
    1df8:	b08c5d66 	addlt	r5, ip, r6, ror #26

00001dfc <l1660>:
    1dfc:	e1a0325c 	asr	r3, ip, r2

00001e00 <l1661>:
    1e00:	e16f1f19 	clz	r1, r9

00001e04 <l1662>:
    1e04:	41f0806f 	mvnsmi	r8, pc, rrx

00001e08 <l1663>:
    1e08:	e90d2008 	stmdb	sp, {r3, sp}

00001e0c <l1664>:
    1e0c:	e15db1b0 	ldrh	fp, [sp, #-16]

00001e10 <l1665>:
    1e10:	e08a0069 	add	r0, sl, r9, rrx

00001e14 <l1666>:
    1e14:	e0e00233 	rsc	r0, r0, r3, lsr r2

00001e18 <l1667>:
    1e18:	e3a02014 	mov	r2, #20

00001e1c <l1668>:
    1e1c:	e19d00b2 	ldrh	r0, [sp, r2]

00001e20 <l1669>:
    1e20:	619cc138 	orrsvs	ip, ip, r8, lsr r1

00001e24 <l1670>:
    1e24:	d176083a 	cmnle	r6, sl, lsr r8

00001e28 <l1671>:
    1e28:	e15d10dc 	ldrsb	r1, [sp, #-12]

00001e2c <l1672>:
    1e2c:	e137043c 	teq	r7, ip, lsr r4

00001e30 <l1673>:
    1e30:	235800ca 	cmpcs	r8, #202	; 0xca

00001e34 <l1674>:
    1e34:	155d0002 	ldrbne	r0, [sp, #-2]

00001e38 <interrupt_960>:
    1e38:	438ce0c1 	orrmi	lr, ip, #193	; 0xc1

00001e3c <l1676>:
    1e3c:	e16faf16 	clz	sl, r6

00001e40 <l1677>:
    1e40:	4a000002 	bmi	1e50 <interrupt_510>

00001e44 <l1678>:
    1e44:	e280105e 	add	r1, r0, #94	; 0x5e

00001e48 <l1679>:
    1e48:	313f0008 	teqcc	pc, r8

00001e4c <l1680>:
    1e4c:	ea000000 	b	1e54 <l1682>

00001e50 <interrupt_510>:
    1e50:	eafffffc 	b	1e48 <l1679>

00001e54 <l1682>:
    1e54:	e11b08c2 	tst	fp, r2, asr #17

00001e58 <l1683>:
    1e58:	e0cb7003 	sbc	r7, fp, r3

00001e5c <interrupt_910>:
    1e5c:	4affffff 	bmi	1e60 <l1685>

00001e60 <l1685>:
    1e60:	e35f0fce 	cmp	pc, #824	; 0x338

00001e64 <l1686>:
    1e64:	0a000002 	beq	1e74 <l1690>

00001e68 <l1687>:
    1e68:	e28010e4 	add	r1, r0, #228	; 0xe4

00001e6c <l1688>:
    1e6c:	30185419 	andscc	r5, r8, r9, lsl r4

00001e70 <l1689>:
    1e70:	ea000000 	b	1e78 <l1691>

00001e74 <l1690>:
    1e74:	eafffffc 	b	1e6c <l1688>

00001e78 <l1691>:
    1e78:	20499637 	subcs	r9, r9, r7, lsr r6

00001e7c <interrupt_759>:
    1e7c:	7a000007 	bvc	1ea0 <l1701>

00001e80 <l1693>:
    1e80:	e28010a0 	add	r1, r0, #160	; 0xa0

00001e84 <l1694>:
    1e84:	8019ae73 	andshi	sl, r9, r3, ror lr

00001e88 <interrupt_936>:
    1e88:	11b06017 	lslsne	r6, r7, r0

00001e8c <interrupt_660>:
    1e8c:	e0626061 	rsb	r6, r2, r1, rrx

00001e90 <interrupt_336>:
    1e90:	d2f56376 	rscsle	r6, r5, #-671088639	; 0xd8000001

00001e94 <l1698>:
    1e94:	2037be71 	eorscs	fp, r7, r1, ror lr

00001e98 <l1699>:
    1e98:	e195c002 	orrs	ip, r5, r2

00001e9c <l1700>:
    1e9c:	ea000000 	b	1ea4 <l1702>

00001ea0 <l1701>:
    1ea0:	eafffff7 	b	1e84 <l1694>

00001ea4 <l1702>:
    1ea4:	e1760eac 	cmn	r6, ip, lsr #29

00001ea8 <interrupt_992>:
    1ea8:	e9bd0081 	ldmib	sp!, {r0, r7}

00001eac <l1704>:
    1eac:	e59f1000 	ldr	r1, [pc]	; 1eb4 <l1706>

00001eb0 <l1705>:
    1eb0:	ea000000 	b	1eb8 <l1707>

00001eb4 <l1706>:
    1eb4:	000fffa8 	.word	0x000fffa8

00001eb8 <l1707>:
    1eb8:	91416099 	swpbls	r6, r9, [r1]

00001ebc <l1708>:
    1ebc:	70302357 	eorsvc	r2, r0, r7, asr r3

00001ec0 <l1709>:
    1ec0:	2a000004 	bcs	1ed8 <l1715>

00001ec4 <l1710>:
    1ec4:	e2801040 	add	r1, r0, #64	; 0x40

00001ec8 <interrupt_145>:
    1ec8:	e246b209 	sub	fp, r6, #-1879048192	; 0x90000000

00001ecc <interrupt_849>:
    1ecc:	e180b062 	orr	fp, r0, r2, rrx

00001ed0 <interrupt_481>:
    1ed0:	e1700072 	cmn	r0, r2, ror r0

00001ed4 <l1714>:
    1ed4:	ea000000 	b	1edc <l1716>

00001ed8 <l1715>:
    1ed8:	eafffffa 	b	1ec8 <interrupt_145>

00001edc <l1716>:
    1edc:	11150002 	tstne	r5, r2

00001ee0 <l1717>:
    1ee0:	e0ebb00b 	rsc	fp, fp, fp

00001ee4 <interrupt_589>:
    1ee4:	916f3f1e 	clzls	r3, lr

00001ee8 <l1719>:
    1ee8:	6220e4fe 	eorvs	lr, r0, #-33554432	; 0xfe000000

00001eec <l1720>:
    1eec:	7045831a 	subvc	r8, r5, sl, lsl r3

00001ef0 <l1721>:
    1ef0:	efce5c17 	svc	0x00ce5c17

00001ef4 <l1722>:
    1ef4:	5a000004 	bpl	1f0c <l1728>

00001ef8 <l1723>:
    1ef8:	e280107a 	add	r1, r0, #122	; 0x7a

00001efc <l1724>:
    1efc:	80289009 	eorhi	r9, r8, r9

00001f00 <l1725>:
    1f00:	82501b03 	subshi	r1, r0, #3072	; 0xc00

00001f04 <interrupt_44>:
    1f04:	e16f7f13 	clz	r7, r3

00001f08 <l1727>:
    1f08:	ea000000 	b	1f10 <l1729>

00001f0c <l1728>:
    1f0c:	eafffffa 	b	1efc <l1724>

00001f10 <l1729>:
    1f10:	e3a05034 	mov	r5, #52	; 0x34

00001f14 <l1730>:
    1f14:	e11db0b5 	ldrh	fp, [sp, -r5]

00001f18 <l1731>:
    1f18:	e16f9f11 	clz	r9, r1

00001f1c <interrupt_675>:
    1f1c:	ef707271 	svc	0x00707271

00001f20 <interrupt_944>:
    1f20:	ef41182d 	svc	0x0041182d

00001f24 <l1734>:
    1f24:	104a800f 	subne	r8, sl, pc

00001f28 <l1735>:
    1f28:	3398536f 	orrscc	r5, r8, #-1140850687	; 0xbc000001

00001f2c <l1736>:
    1f2c:	e16f8f11 	clz	r8, r1

00001f30 <l1737>:
    1f30:	b2381004 	eorslt	r1, r8, #4

00001f34 <l1738>:
    1f34:	e88d400c 	stm	sp, {r2, r3, lr}

00001f38 <l1739>:
    1f38:	2a000005 	bcs	1f54 <l1746>

00001f3c <l1740>:
    1f3c:	e28010ad 	add	r1, r0, #173	; 0xad

00001f40 <interrupt_578>:
    1f40:	92d1aa2f 	sbcsls	sl, r1, #192512	; 0x2f000

00001f44 <l1742>:
    1f44:	a1e0655e 	mvnge	r6, lr, asr r5

00001f48 <l1743>:
    1f48:	e0b6500b 	adcs	r5, r6, fp

00001f4c <l1744>:
    1f4c:	2276ab2e 	rsbscs	sl, r6, #47104	; 0xb800

00001f50 <interrupt_526>:
    1f50:	ea000000 	b	1f58 <l1747>

00001f54 <l1746>:
    1f54:	eafffff9 	b	1f40 <interrupt_578>

00001f58 <l1747>:
    1f58:	5a000005 	bpl	1f74 <l1754>

00001f5c <interrupt_912>:
    1f5c:	e280107b 	add	r1, r0, #123	; 0x7b

00001f60 <l1749>:
    1f60:	c2565606 	subsgt	r5, r6, #6291456	; 0x600000

00001f64 <l1750>:
    1f64:	0224abe6 	eoreq	sl, r4, #235520	; 0x39800

00001f68 <l1751>:
    1f68:	a1180009 	tstge	r8, r9

00001f6c <interrupt_108>:
    1f6c:	a04c26e5 	subge	r2, ip, r5, ror #13

00001f70 <l1753>:
    1f70:	ea000000 	b	1f78 <interrupt_205>

00001f74 <l1754>:
    1f74:	eafffff9 	b	1f60 <l1749>

00001f78 <interrupt_205>:
    1f78:	e3a0500a 	mov	r5, #10

00001f7c <l1756>:
    1f7c:	c10d70b5 	strhgt	r7, [sp, -r5]

00001f80 <interrupt_710>:
    1f80:	e1720003 	cmn	r2, r3

00001f84 <l1758>:
    1f84:	e23e84f3 	eors	r8, lr, #-218103808	; 0xf3000000

00001f88 <l1759>:
    1f88:	500eaa74 	andpl	sl, lr, r4, ror sl

00001f8c <l1760>:
    1f8c:	b056ee54 	subslt	lr, r6, r4, asr lr

00001f90 <interrupt_642>:
    1f90:	017a0008 	cmneq	sl, r8

00001f94 <l1762>:
    1f94:	b1e0300a 	mvnlt	r3, sl

00001f98 <l1763>:
    1f98:	ea000005 	b	1fb4 <l1770>

00001f9c <l1764>:
    1f9c:	e280107e 	add	r1, r0, #126	; 0x7e

00001fa0 <l1765>:
    1fa0:	10e59651 	rscne	r9, r5, r1, asr r6

00001fa4 <interrupt_475>:
    1fa4:	51700062 	cmnpl	r0, r2, rrx

00001fa8 <l1767>:
    1fa8:	81150059 	tsthi	r5, r9, asr r0

00001fac <interrupt_332>:
    1fac:	71f0347c 	mvnsvc	r3, ip, ror r4

00001fb0 <l1769>:
    1fb0:	ea000000 	b	1fb8 <l1771>

00001fb4 <l1770>:
    1fb4:	eafffff9 	b	1fa0 <l1765>

00001fb8 <l1771>:
    1fb8:	d188ba66 	orrle	fp, r8, r6, ror #20

00001fbc <l1772>:
    1fbc:	e92d4603 	push	{r0, r1, r9, sl, lr}

00001fc0 <l1773>:
    1fc0:	e0e18007 	rsc	r8, r1, r7

00001fc4 <interrupt_351>:
    1fc4:	41d6271a 	bicsmi	r2, r6, sl, lsl r7

00001fc8 <interrupt_213>:
    1fc8:	e5dd2008 	ldrb	r2, [sp, #8]

00001fcc <l1776>:
    1fcc:	71390ea4 	teqvc	r9, r4, lsr #29

00001fd0 <interrupt_790>:
    1fd0:	e07b3002 	rsbs	r3, fp, r2

00001fd4 <l1778>:
    1fd4:	63cea3f9 	bicvs	sl, lr, #-469762045	; 0xe4000003

00001fd8 <l1779>:
    1fd8:	2014601c 	andscs	r6, r4, ip, lsl r0

00001fdc <l1780>:
    1fdc:	3a000006 	bcc	1ffc <interrupt_165>

00001fe0 <l1781>:
    1fe0:	e08b800b 	add	r8, fp, fp

00001fe4 <interrupt_701>:
    1fe4:	b05e0000 	subslt	r0, lr, r0

00001fe8 <interrupt_613>:
    1fe8:	e37e0202 	cmn	lr, #536870912	; 0x20000000

00001fec <l1784>:
    1fec:	51570064 	cmppl	r7, r4, rrx

00001ff0 <l1785>:
    1ff0:	2332078d 	teqcs	r2, #36962304	; 0x2340000

00001ff4 <interrupt_976>:
    1ff4:	40ba6182 	adcsmi	r6, sl, r2, lsl #3

00001ff8 <l1787>:
    1ff8:	e1c91000 	bic	r1, r9, r0

00001ffc <interrupt_165>:
    1ffc:	1180306e 	orrne	r3, r0, lr, rrx

00002000 <l1789>:
    2000:	50f6906b 	rscspl	r9, r6, fp, rrx

00002004 <l1790>:
    2004:	31cd11bc 	strhcc	r1, [sp, #28]

00002008 <l1791>:
    2008:	ca000006 	bgt	2028 <l1799>

0000200c <l1792>:
    200c:	e1cca00a 	bic	sl, ip, sl

00002010 <l1793>:
    2010:	e3a0e66b 	mov	lr, #112197632	; 0x6b00000

00002014 <l1794>:
    2014:	41ccc06a 	bicmi	ip, ip, sl, rrx

00002018 <l1795>:
    2018:	03140bcf 	tsteq	r4, #211968	; 0x33c00

0000201c <l1796>:
    201c:	d03f3007 	eorsle	r3, pc, r7

00002020 <l1797>:
    2020:	e1884e47 	orr	r4, r8, r7, asr #28

00002024 <l1798>:
    2024:	e1e09062 	mvn	r9, r2, rrx

00002028 <l1799>:
    2028:	03160dc7 	tsteq	r6, #12736	; 0x31c0

0000202c <interrupt_232>:
    202c:	e3a08007 	mov	r8, #7

00002030 <interrupt_338>:
    2030:	711d90d8 	ldrsbvc	r9, [sp, -r8]

00002034 <l1802>:
    2034:	e13b0004 	teq	fp, r4

00002038 <l1803>:
    2038:	a1a00007 	movge	r0, r7

0000203c <l1804>:
    203c:	e15de1d8 	ldrsb	lr, [sp, #-24]	; 0xffffffe8

00002040 <l1805>:
    2040:	e0ee106e 	rsc	r1, lr, lr, rrx

00002044 <l1806>:
    2044:	a1c5c00b 	bicge	ip, r5, fp

00002048 <l1807>:
    2048:	0a000005 	beq	2064 <l1814>

0000204c <l1808>:
    204c:	c15b0007 	cmpgt	fp, r7

00002050 <l1809>:
    2050:	e097618a 	adds	r6, r7, sl, lsl #3

00002054 <l1810>:
    2054:	e1590066 	cmp	r9, r6, rrx

00002058 <l1811>:
    2058:	e1f05311 	mvns	r5, r1, lsl r3

0000205c <l1812>:
    205c:	e16f7f12 	clz	r7, r2

00002060 <l1813>:
    2060:	51e0c06b 	mvnpl	ip, fp, rrx

00002064 <l1814>:
    2064:	e0404063 	sub	r4, r0, r3, rrx

00002068 <l1815>:
    2068:	40e4100f 	rscmi	r1, r4, pc

0000206c <interrupt_80>:
    206c:	e33f0a3b 	teq	pc, #241664	; 0x3b000

00002070 <l1817>:
    2070:	e064200b 	rsb	r2, r4, fp

00002074 <l1818>:
    2074:	d1700754 	cmnle	r0, r4, asr r7

00002078 <l1819>:
    2078:	e82d020c 	stmda	sp!, {r2, r3, r9}

0000207c <l1820>:
    207c:	e15d50da 	ldrsb	r5, [sp, #-10]

00002080 <l1821>:
    2080:	325c7c2f 	subscc	r7, ip, #12032	; 0x2f00

00002084 <l1822>:
    2084:	a1f0e000 	mvnsge	lr, r0

00002088 <l1823>:
    2088:	52471885 	subpl	r1, r7, #8716288	; 0x850000

0000208c <l1824>:
    208c:	b1f0006b 	mvnslt	r0, fp, rrx

00002090 <l1825>:
    2090:	e3a0200c 	mov	r2, #12

00002094 <l1826>:
    2094:	878d9002 	strhi	r9, [sp, r2]

00002098 <interrupt_916>:
    2098:	a04ab650 	subge	fp, sl, r0, asr r6

0000209c <l1828>:
    209c:	b1e01e23 	mvnlt	r1, r3, lsr #28

000020a0 <l1829>:
    20a0:	e59fb000 	ldr	fp, [pc]	; 20a8 <l1831>

000020a4 <l1830>:
    20a4:	ea000000 	b	20ac <interrupt_766>

000020a8 <l1831>:
    20a8:	000fffd8 	.word	0x000fffd8

000020ac <interrupt_766>:
    20ac:	814be09e 	swpbhi	lr, lr, [fp]

000020b0 <l1833>:
    20b0:	e184300a 	orr	r3, r4, sl

000020b4 <l1834>:
    20b4:	e03ce000 	eors	lr, ip, r0

000020b8 <l1835>:
    20b8:	35dd802b 	ldrbcc	r8, [sp, #43]	; 0x2b

000020bc <l1836>:
    20bc:	e0a3c000 	adc	ip, r3, r0

000020c0 <l1837>:
    20c0:	e3a01030 	mov	r1, #48	; 0x30

000020c4 <interrupt_156>:
    20c4:	e19de0d1 	ldrsb	lr, [sp, r1]

000020c8 <l1839>:
    20c8:	71cd00b0 	strhvc	r0, [sp]

000020cc <l1840>:
    20cc:	1035883e 	eorsne	r8, r5, lr, lsr r8

000020d0 <l1841>:
    20d0:	008b991c 	addeq	r9, fp, ip, lsl r9

000020d4 <l1842>:
    20d4:	e2e3834f 	rsc	r8, r3, #1006632961	; 0x3c000001

000020d8 <l1843>:
    20d8:	e90d8844 	stmdb	sp, {r2, r6, fp, pc}

000020dc <l1844>:
    20dc:	e3a00001 	mov	r0, #1

000020e0 <l1845>:
    20e0:	97dd7000 	ldrbls	r7, [sp, r0]

000020e4 <l1846>:
    20e4:	e00e5002 	and	r5, lr, r2

000020e8 <l1847>:
    20e8:	e59fb000 	ldr	fp, [pc]	; 20f0 <l1849>

000020ec <l1848>:
    20ec:	ea000000 	b	20f4 <l1850>

000020f0 <l1849>:
    20f0:	000fffcc 	.word	0x000fffcc

000020f4 <l1850>:
    20f4:	314b3099 	swpbcc	r3, r9, [fp]

000020f8 <l1851>:
    20f8:	03e02a12 	mvneq	r2, #73728	; 0x12000

000020fc <l1852>:
    20fc:	516f1f13 	clzpl	r1, r3

00002100 <l1853>:
    2100:	e59fe000 	ldr	lr, [pc]	; 2108 <l1855>

00002104 <l1854>:
    2104:	ea000000 	b	210c <l1856>

00002108 <l1855>:
    2108:	000fffa0 	.word	0x000fffa0

0000210c <l1856>:
    210c:	e10e0097 	swp	r0, r7, [lr]

00002110 <interrupt_61>:
    2110:	ef16510b 	svc	0x0016510b

00002114 <l1858>:
    2114:	1013a066 	andsne	sl, r3, r6, rrx

00002118 <interrupt_459>:
    2118:	e0725cc6 	rsbs	r5, r2, r6, asr #25

0000211c <l1860>:
    211c:	6048100b 	subvs	r1, r8, fp

00002120 <interrupt_644>:
    2120:	e252792b 	subs	r7, r2, #704512	; 0xac000

00002124 <l1862>:
    2124:	1177000f 	cmnne	r7, pc

00002128 <l1863>:
    2128:	e59f7000 	ldr	r7, [pc]	; 2130 <l1865>

0000212c <l1864>:
    212c:	ea000000 	b	2134 <l1866>

00002130 <l1865>:
    2130:	000fffd4 	.word	0x000fffd4

00002134 <l1866>:
    2134:	e147e09a 	swpb	lr, sl, [r7]

00002138 <l1867>:
    2138:	d09fa924 	addsle	sl, pc, r4, lsr #18

0000213c <l1868>:
    213c:	e35b0d5b 	cmp	fp, #5824	; 0x16c0

00002140 <l1869>:
    2140:	efe91bf3 	svc	0x00e91bf3

00002144 <l1870>:
    2144:	e1520952 	cmp	r2, r2, asr r9

00002148 <l1871>:
    2148:	e51d5010 	ldr	r5, [sp, #-16]

0000214c <l1872>:
    214c:	e0cc0955 	sbc	r0, ip, r5, asr r9

00002150 <l1873>:
    2150:	e8adddaf 	stmia	sp!, {r0, r1, r2, r3, r5, r7, r8, sl, fp, ip, lr, pc}

00002154 <l1874>:
    2154:	ef1449fa 	svc	0x001449fa

00002158 <l1875>:
    2158:	055d1046 	ldrbeq	r1, [sp, #-70]	; 0x46

0000215c <l1876>:
    215c:	e3a03034 	mov	r3, #52	; 0x34

00002160 <l1877>:
    2160:	e11d30f3 	ldrsh	r3, [sp, -r3]

00002164 <l1878>:
    2164:	e3a0203c 	mov	r2, #60	; 0x3c

00002168 <interrupt_151>:
    2168:	e72db002 	str	fp, [sp, -r2]!

0000216c <l1880>:
    216c:	e59fc000 	ldr	ip, [pc]	; 2174 <l1882>

00002170 <l1881>:
    2170:	ea000000 	b	2178 <interrupt_450>

00002174 <l1882>:
    2174:	000fffc4 	.word	0x000fffc4

00002178 <interrupt_450>:
    2178:	210c6098 	swpcs	r6, r8, [ip]

0000217c <l1884>:
    217c:	e1dd70f6 	ldrsh	r7, [sp, #6]

00002180 <l1885>:
    2180:	e1390984 	teq	r9, r4, lsl #19

00002184 <l1886>:
    2184:	1a000006 	bne	21a4 <l1894>

00002188 <interrupt_911>:
    2188:	e28010d5 	add	r1, r0, #213	; 0xd5

0000218c <l1888>:
    218c:	e04b0060 	sub	r0, fp, r0, rrx

00002190 <l1889>:
    2190:	e23b329a 	eors	r3, fp, #-1610612727	; 0xa0000009

00002194 <l1890>:
    2194:	409cc107 	addsmi	ip, ip, r7, lsl #2

00002198 <l1891>:
    2198:	90257002 	eorls	r7, r5, r2

0000219c <l1892>:
    219c:	e1700563 	cmn	r0, r3, ror #10

000021a0 <l1893>:
    21a0:	ea000000 	b	21a8 <l1895>

000021a4 <l1894>:
    21a4:	eafffff8 	b	218c <l1888>

000021a8 <l1895>:
    21a8:	d15b000f 	cmple	fp, pc

000021ac <l1896>:
    21ac:	42546561 	subsmi	r6, r4, #406847488	; 0x18400000

000021b0 <interrupt_762>:
    21b0:	611a000c 	tstvs	sl, ip

000021b4 <l1898>:
    21b4:	a80d4000 	stmdage	sp, {lr}

000021b8 <l1899>:
    21b8:	ef17e24e 	svc	0x0017e24e

000021bc <l1900>:
    21bc:	e05c8006 	subs	r8, ip, r6

000021c0 <l1901>:
    21c0:	e190b067 	orrs	fp, r0, r7, rrx

000021c4 <l1902>:
    21c4:	e59fe000 	ldr	lr, [pc]	; 21cc <l1904>

000021c8 <l1903>:
    21c8:	ea000000 	b	21d0 <l1905>

000021cc <l1904>:
    21cc:	000fffb0 	.word	0x000fffb0

000021d0 <l1905>:
    21d0:	214e6092 	swpbcs	r6, r2, [lr]

000021d4 <l1906>:
    21d4:	e0186c08 	ands	r6, r8, r8, lsl #24

000021d8 <l1907>:
    21d8:	e9bd0082 	ldmib	sp!, {r1, r7}

000021dc <interrupt_346>:
    21dc:	91dd62db 	ldrsbls	r6, [sp, #43]	; 0x2b

000021e0 <l1909>:
    21e0:	e58db004 	str	fp, [sp, #4]

000021e4 <l1910>:
    21e4:	e5cd5028 	strb	r5, [sp, #40]	; 0x28

000021e8 <l1911>:
    21e8:	c1b08119 	lslsgt	r8, r9, r1

000021ec <l1912>:
    21ec:	e13e0009 	teq	lr, r9

000021f0 <l1913>:
    21f0:	8044930f 	subhi	r9, r4, pc, lsl #6

000021f4 <l1914>:
    21f4:	e18ae921 	orr	lr, sl, r1, lsr #18

000021f8 <l1915>:
    21f8:	e37e0e67 	cmn	lr, #1648	; 0x670

000021fc <l1916>:
    21fc:	e1d58006 	bics	r8, r5, r6

00002200 <l1917>:
    2200:	e3a0602c 	mov	r6, #44	; 0x2c

00002204 <l1918>:
    2204:	e7ad5006 	str	r5, [sp, r6]!

00002208 <l1919>:
    2208:	61a0a108 	lslvs	sl, r8, #2

0000220c <l1920>:
    220c:	b0705b57 	rsbslt	r5, r0, r7, asr fp

00002210 <l1921>:
    2210:	ef5da6a0 	svc	0x005da6a0

00002214 <l1922>:
    2214:	71100aab 	tstvc	r0, fp, lsr #21

00002218 <l1923>:
    2218:	1278733d 	rsbsne	r7, r8, #-201326592	; 0xf4000000

0000221c <interrupt_846>:
    221c:	401f6060 	andsmi	r6, pc, r0, rrx

00002220 <interrupt_653>:
    2220:	e175000b 	cmn	r5, fp

00002224 <interrupt_282>:
    2224:	333f039e 	teqcc	pc, #2013265922	; 0x78000002

00002228 <l1927>:
    2228:	2a000006 	bcs	2248 <l1935>

0000222c <l1928>:
    222c:	e280101e 	add	r1, r0, #30

00002230 <l1929>:
    2230:	e1330966 	teq	r3, r6, ror #18

00002234 <l1930>:
    2234:	61370000 	teqvs	r7, r0

00002238 <l1931>:
    2238:	71110be2 	tstvc	r1, r2, ror #23

0000223c <l1932>:
    223c:	e20c3d05 	and	r3, ip, #320	; 0x140

00002240 <l1933>:
    2240:	908ce06a 	addls	lr, ip, sl, rrx

00002244 <l1934>:
    2244:	ea000000 	b	224c <interrupt_866>

00002248 <l1935>:
    2248:	eafffff8 	b	2230 <l1929>

0000224c <interrupt_866>:
    224c:	e25bc0ac 	subs	ip, fp, #172	; 0xac

00002250 <l1937>:
    2250:	ea000005 	b	226c <interrupt_885>

00002254 <l1938>:
    2254:	e28010f2 	add	r1, r0, #242	; 0xf2

00002258 <l1939>:
    2258:	e33e0016 	teq	lr, #22

0000225c <l1940>:
    225c:	e1ce6003 	bic	r6, lr, r3

00002260 <l1941>:
    2260:	70462000 	subvc	r2, r6, r0

00002264 <interrupt_662>:
    2264:	e0bebd2c 	adcs	fp, lr, ip, lsr #26

00002268 <l1943>:
    2268:	ea000000 	b	2270 <l1945>

0000226c <interrupt_885>:
    226c:	eafffff9 	b	2258 <l1939>

00002270 <l1945>:
    2270:	ef639fca 	svc	0x00639fca

00002274 <l1946>:
    2274:	efbe3e4a 	svc	0x00be3e4a

00002278 <l1947>:
    2278:	c19b1008 	orrsgt	r1, fp, r8

0000227c <l1948>:
    227c:	e004b008 	and	fp, r4, r8

00002280 <l1949>:
    2280:	c16f9f18 	clzgt	r9, r8

00002284 <l1950>:
    2284:	efe68a61 	svc	0x00e68a61

00002288 <interrupt_126>:
    2288:	e1d7e177 	bics	lr, r7, r7, ror r1

0000228c <l1952>:
    228c:	e3a00004 	mov	r0, #4

00002290 <l1953>:
    2290:	e11db0b0 	ldrh	fp, [sp, -r0]

00002294 <l1954>:
    2294:	e0e49077 	rsc	r9, r4, r7, ror r0

00002298 <l1955>:
    2298:	d15d12f6 	ldrshle	r1, [sp, #-38]	; 0xffffffda

0000229c <interrupt_471>:
    229c:	a37b0689 	cmnge	fp, #143654912	; 0x8900000

000022a0 <l1957>:
    22a0:	e0e8b06c 	rsc	fp, r8, ip, rrx

000022a4 <l1958>:
    22a4:	e3a03009 	mov	r3, #9

000022a8 <l1959>:
    22a8:	e74d9003 	strb	r9, [sp, -r3]

000022ac <interrupt_373>:
    22ac:	e3a0701c 	mov	r7, #28

000022b0 <l1961>:
    22b0:	e11d30b7 	ldrh	r3, [sp, -r7]

000022b4 <interrupt_281>:
    22b4:	e89d0040 	ldm	sp, {r6}

000022b8 <l1963>:
    22b8:	da000000 	ble	22c0 <l1965>

000022bc <l1964>:
    22bc:	e35b030f 	cmp	fp, #1006632960	; 0x3c000000

000022c0 <l1965>:
    22c0:	e1b03008 	movs	r3, r8

000022c4 <l1966>:
    22c4:	12b918c1 	adcsne	r1, r9, #12648448	; 0xc10000

000022c8 <l1967>:
    22c8:	60f98004 	rscsvs	r8, r9, r4

000022cc <l1968>:
    22cc:	008abdef 	addeq	fp, sl, pc, ror #27

000022d0 <l1969>:
    22d0:	ef6ecc4d 	svc	0x006ecc4d

000022d4 <interrupt_584>:
    22d4:	e3b0453f 	movs	r4, #264241152	; 0xfc00000

000022d8 <interrupt_131>:
    22d8:	e55d300c 	ldrb	r3, [sp, #-12]

000022dc <l1972>:
    22dc:	b04e0672 	sublt	r0, lr, r2, ror r6

000022e0 <l1973>:
    22e0:	e1b0200f 	movs	r2, pc

000022e4 <l1974>:
    22e4:	d1d7200a 	bicsle	r2, r7, sl

000022e8 <l1975>:
    22e8:	e59f9000 	ldr	r9, [pc]	; 22f0 <l1977>

000022ec <l1976>:
    22ec:	ea000000 	b	22f4 <l1978>

000022f0 <l1977>:
    22f0:	000fffd0 	.word	0x000fffd0

000022f4 <l1978>:
    22f4:	c149009b 	swpbgt	r0, fp, [r9]

000022f8 <l1979>:
    22f8:	e1dd20ba 	ldrh	r2, [sp, #10]

000022fc <l1980>:
    22fc:	ea000001 	b	2308 <l1983>

00002300 <l1981>:
    2300:	2020b00b 	eorcs	fp, r0, fp

00002304 <l1982>:
    2304:	e19be00b 	orrs	lr, fp, fp

00002308 <l1983>:
    2308:	e03c1ae0 	eors	r1, ip, r0, ror #21

0000230c <interrupt_361>:
    230c:	455d502c 	ldrbmi	r5, [sp, #-44]	; 0x2c

00002310 <interrupt_380>:
    2310:	e0c6e009 	sbc	lr, r6, r9

00002314 <l1986>:
    2314:	015db1fa 	ldrsheq	fp, [sp, #-26]	; 0xffffffe6

00002318 <interrupt_760>:
    2318:	50a6b050 	adcpl	fp, r6, r0, asr r0

0000231c <interrupt_678>:
    231c:	d0d1b068 	sbcsle	fp, r1, r8, rrx

00002320 <l1989>:
    2320:	e1e04008 	mvn	r4, r8

00002324 <l1990>:
    2324:	efee4ef9 	svc	0x00ee4ef9

00002328 <l1991>:
    2328:	60a04068 	adcvs	r4, r0, r8, rrx

0000232c <l1992>:
    232c:	ef5357e0 	svc	0x005357e0

00002330 <l1993>:
    2330:	e176000a 	cmn	r6, sl

00002334 <l1994>:
    2334:	a2414a11 	subge	r4, r1, #69632	; 0x11000

00002338 <interrupt_25>:
    2338:	c2f8a6a9 	rscsgt	sl, r8, #177209344	; 0xa900000

0000233c <interrupt_731>:
    233c:	e59f6000 	ldr	r6, [pc]	; 2344 <l1998>

00002340 <l1997>:
    2340:	ea000000 	b	2348 <l1999>

00002344 <l1998>:
    2344:	000fffbc 	.word	0x000fffbc

00002348 <l1999>:
    2348:	7146e095 	swpbvc	lr, r5, [r6]

0000234c <interrupt_175>:
    234c:	b032411a 	eorslt	r4, r2, sl, lsl r1

00002350 <l2001>:
    2350:	ea000005 	b	236c <l2008>

00002354 <l2002>:
    2354:	e28010ab 	add	r1, r0, #171	; 0xab

00002358 <interrupt_97>:
    2358:	e2b83535 	adcs	r3, r8, #222298112	; 0xd400000

0000235c <interrupt_780>:
    235c:	0029b002 	eoreq	fp, r9, r2

00002360 <l2005>:
    2360:	e1e045c5 	mvn	r4, r5, asr #11

00002364 <l2006>:
    2364:	21860009 	orrcs	r0, r6, r9

00002368 <l2007>:
    2368:	ea000000 	b	2370 <l2009>

0000236c <l2008>:
    236c:	eafffff9 	b	2358 <interrupt_97>

00002370 <l2009>:
    2370:	30b8a005 	adcscc	sl, r8, r5

00002374 <l2010>:
    2374:	723e2aa5 	eorsvc	r2, lr, #675840	; 0xa5000

00002378 <interrupt_627>:
    2378:	e0466e78 	sub	r6, r6, r8, ror lr

0000237c <l2012>:
    237c:	70085315 	andvc	r5, r8, r5, lsl r3

00002380 <l2013>:
    2380:	016f2f17 	clzeq	r2, r7

00002384 <l2014>:
    2384:	435b0771 	cmpmi	fp, #29622272	; 0x1c40000

00002388 <l2015>:
    2388:	e16f5f1e 	clz	r5, lr

0000238c <l2016>:
    238c:	e1360774 	teq	r6, r4, ror r7

00002390 <l2017>:
    2390:	85dd7008 	ldrbhi	r7, [sp, #8]

00002394 <l2018>:
    2394:	e1130013 	tst	r3, r3, lsl r0

00002398 <l2019>:
    2398:	516f9f14 	clzpl	r9, r4

0000239c <l2020>:
    239c:	ea000004 	b	23b4 <l2026>

000023a0 <l2021>:
    23a0:	e2801090 	add	r1, r0, #144	; 0x90

000023a4 <l2022>:
    23a4:	d1e00e35 	mvnle	r0, r5, lsr lr

000023a8 <l2023>:
    23a8:	e04205a2 	sub	r0, r2, r2, lsr #11

000023ac <l2024>:
    23ac:	a1a04f07 	lslge	r4, r7, #30

000023b0 <l2025>:
    23b0:	ea000000 	b	23b8 <interrupt_317>

000023b4 <l2026>:
    23b4:	eafffffa 	b	23a4 <l2022>

000023b8 <interrupt_317>:
    23b8:	da000003 	ble	23cc <l2032>

000023bc <l2028>:
    23bc:	e28010e0 	add	r1, r0, #224	; 0xe0

000023c0 <l2029>:
    23c0:	b03ee682 	eorslt	lr, lr, r2, lsl #13

000023c4 <l2030>:
    23c4:	e19c001c 	orrs	r0, ip, ip, lsl r0

000023c8 <l2031>:
    23c8:	ea000000 	b	23d0 <l2033>

000023cc <l2032>:
    23cc:	eafffffb 	b	23c0 <l2029>

000023d0 <l2033>:
    23d0:	820928b3 	andhi	r2, r9, #11730944	; 0xb30000

000023d4 <l2034>:
    23d4:	e06a9061 	rsb	r9, sl, r1, rrx

000023d8 <l2035>:
    23d8:	e119006a 	tst	r9, sl, rrx

000023dc <l2036>:
    23dc:	ef53121d 	svc	0x0053121d

000023e0 <l2037>:
    23e0:	10a29717 	adcne	r9, r2, r7, lsl r7

000023e4 <interrupt_833>:
    23e4:	e3a0b038 	mov	fp, #56	; 0x38

000023e8 <l2039>:
    23e8:	e61da00b 	ldr	sl, [sp], -fp

000023ec <interrupt_40>:
    23ec:	75cd2043 	strbvc	r2, [sp, #67]	; 0x43

000023f0 <l2041>:
    23f0:	d37200ec 	cmnle	r2, #236	; 0xec

000023f4 <interrupt_334>:
    23f4:	e1a00000 	nop			; (mov r0, r0)

000023f8 <l2043>:
    23f8:	e253741d 	subs	r7, r3, #486539264	; 0x1d000000

000023fc <l2044>:
    23fc:	e3a09030 	mov	r9, #48	; 0x30

00002400 <l2045>:
    2400:	118de0b9 	strhne	lr, [sp, r9]

00002404 <l2046>:
    2404:	e5ad102c 	str	r1, [sp, #44]!	; 0x2c

00002408 <l2047>:
    2408:	e3a00024 	mov	r0, #36	; 0x24

0000240c <l2048>:
    240c:	e70d9000 	str	r9, [sp, -r0]

00002410 <l2049>:
    2410:	519a4c6a 	orrspl	r4, sl, sl, ror #24

00002414 <l2050>:
    2414:	ea000004 	b	242c <l2056>

00002418 <l2051>:
    2418:	c3cf59ab 	bicgt	r5, pc, #2801664	; 0x2ac000

0000241c <l2052>:
    241c:	a1f09b89 	mvnsge	r9, r9, lsl #23

00002420 <interrupt_559>:
    2420:	239a7bd1 	orrscs	r7, sl, #214016	; 0x34400

00002424 <interrupt_970>:
    2424:	711e0006 	tstvc	lr, r6

00002428 <l2055>:
    2428:	03760b13 	cmneq	r6, #19456	; 0x4c00

0000242c <l2056>:
    242c:	e1b0be5a 	asrs	fp, sl, lr

00002430 <l2057>:
    2430:	efa9f059 	svc	0x00a9f059

00002434 <interrupt_109>:
    2434:	e3a00008 	mov	r0, #8

00002438 <l2059>:
    2438:	e69d1000 	ldr	r1, [sp], r0

0000243c <l2060>:
    243c:	e59fb000 	ldr	fp, [pc]	; 2444 <l2062>

00002440 <l2061>:
    2440:	ea000000 	b	2448 <l2063>

00002444 <l2062>:
    2444:	000fffb4 	.word	0x000fffb4

00002448 <l2063>:
    2448:	a14b4099 	swpbge	r4, r9, [fp]

0000244c <l2064>:
    244c:	e3a03028 	mov	r3, #40	; 0x28

00002450 <l2065>:
    2450:	e11d60d3 	ldrsb	r6, [sp, -r3]

00002454 <l2066>:
    2454:	e59f5000 	ldr	r5, [pc]	; 245c <interrupt_816>

00002458 <interrupt_782>:
    2458:	ea000000 	b	2460 <l2069>

0000245c <interrupt_816>:
    245c:	000fffb0 	.word	0x000fffb0

00002460 <l2069>:
    2460:	e105609a 	swp	r6, sl, [r5]

00002464 <l2070>:
    2464:	c29c3c63 	addsgt	r3, ip, #25344	; 0x6300

00002468 <l2071>:
    2468:	e3a0001c 	mov	r0, #28

0000246c <l2072>:
    246c:	e10d10b0 	strh	r1, [sp, -r0]

00002470 <l2073>:
    2470:	e3a0400c 	mov	r4, #12

00002474 <interrupt_523>:
    2474:	718de0b4 	strhvc	lr, [sp, r4]

00002478 <l2075>:
    2478:	e16f8f1a 	clz	r8, sl

0000247c <l2076>:
    247c:	e3a09030 	mov	r9, #48	; 0x30

00002480 <interrupt_385>:
    2480:	e60d0009 	str	r0, [sp], -r9

00002484 <l2078>:
    2484:	a1350272 	teqge	r5, r2, ror r2

00002488 <l2079>:
    2488:	931e0ec9 	tstls	lr, #3216	; 0xc90

0000248c <l2080>:
    248c:	e1dd91f0 	ldrsh	r9, [sp, #16]

00002490 <l2081>:
    2490:	e0d2a062 	sbcs	sl, r2, r2, rrx

00002494 <l2082>:
    2494:	e5cd5018 	strb	r5, [sp, #24]

00002498 <l2083>:
    2498:	e8bd5104 	pop	{r2, r8, ip, lr}

0000249c <l2084>:
    249c:	e04fe00b 	sub	lr, pc, fp

000024a0 <interrupt_914>:
    24a0:	ea000004 	b	24b8 <interrupt_904>

000024a4 <l2086>:
    24a4:	a0141e50 	andsge	r1, r4, r0, asr lr

000024a8 <l2087>:
    24a8:	90c0b006 	sbcls	fp, r0, r6

000024ac <l2088>:
    24ac:	e0f90a72 	rscs	r0, r9, r2, ror sl

000024b0 <l2089>:
    24b0:	30452ec6 	subcc	r2, r5, r6, asr #29

000024b4 <interrupt_750>:
    24b4:	3179000f 	cmncc	r9, pc

000024b8 <interrupt_904>:
    24b8:	e0f2ab3a 	rscs	sl, r2, sl, lsr fp

000024bc <l2092>:
    24bc:	ef91b2af 	svc	0x0091b2af

000024c0 <l2093>:
    24c0:	11b02005 	movsne	r2, r5

000024c4 <l2094>:
    24c4:	c0d3e00f 	sbcsgt	lr, r3, pc

000024c8 <l2095>:
    24c8:	e81d4031 	ldmda	sp, {r0, r4, r5, lr}

000024cc <l2096>:
    24cc:	e1dd00b6 	ldrh	r0, [sp, #6]

000024d0 <l2097>:
    24d0:	9027906c 	eorls	r9, r7, ip, rrx

000024d4 <interrupt_934>:
    24d4:	ea000007 	b	24f8 <l2107>

000024d8 <l2099>:
    24d8:	e28010be 	add	r1, r0, #190	; 0xbe

000024dc <interrupt_886>:
    24dc:	e1120056 	tst	r2, r6, asr r0

000024e0 <l2101>:
    24e0:	e1b0c063 	rrxs	ip, r3

000024e4 <l2102>:
    24e4:	e0b1600c 	adcs	r6, r1, ip

000024e8 <interrupt_147>:
    24e8:	e113000b 	tst	r3, fp

000024ec <l2104>:
    24ec:	e09f1064 	adds	r1, pc, r4, rrx

000024f0 <interrupt_818>:
    24f0:	a3730031 	cmnge	r3, #49	; 0x31

000024f4 <interrupt_302>:
    24f4:	ea000000 	b	24fc <l2108>

000024f8 <l2107>:
    24f8:	eafffff7 	b	24dc <interrupt_886>

000024fc <l2108>:
    24fc:	e3a02000 	mov	r2, #0

00002500 <interrupt_372>:
    2500:	e7bde002 	ldr	lr, [sp, r2]!

00002504 <l2110>:
    2504:	e1dd22d2 	ldrsb	r2, [sp, #34]	; 0x22

00002508 <l2111>:
    2508:	e0443422 	sub	r3, r4, r2, lsr #8

0000250c <l2112>:
    250c:	937c029d 	cmnls	ip, #-805306359	; 0xd0000009

00002510 <l2113>:
    2510:	2a000008 	bcs	2538 <l2123>

00002514 <interrupt_778>:
    2514:	e3a0308d 	mov	r3, #141	; 0x8d

00002518 <l2115>:
    2518:	737401b1 	cmnvc	r4, #1073741868	; 0x4000002c

0000251c <l2116>:
    251c:	c1ca400f 	bicgt	r4, sl, pc

00002520 <l2117>:
    2520:	31b0a00a 	movscc	sl, sl

00002524 <interrupt_638>:
    2524:	b2bf3dfa 	adcslt	r3, pc, #16000	; 0x3e80

00002528 <l2119>:
    2528:	e37009d3 	cmn	r0, #3457024	; 0x34c000

0000252c <interrupt_103>:
    252c:	e0f8b000 	rscs	fp, r8, r0

00002530 <interrupt_840>:
    2530:	013c0b09 	teqeq	ip, r9, lsl #22

00002534 <l2122>:
    2534:	316f4f11 	clzcc	r4, r1

00002538 <l2123>:
    2538:	313e0dac 	teqcc	lr, ip, lsr #27

0000253c <interrupt_880>:
    253c:	e92d0072 	push	{r1, r4, r5, r6}

00002540 <interrupt_576>:
    2540:	e1a01007 	mov	r1, r7

00002544 <l2126>:
    2544:	21cd00b8 	strhcs	r0, [sp, #8]

00002548 <l2127>:
    2548:	e89d0bdc 	ldm	sp, {r2, r3, r4, r6, r7, r8, r9, fp}

0000254c <l2128>:
    254c:	e3a0e008 	mov	lr, #8

00002550 <interrupt_462>:
    2550:	119d40be 	ldrhne	r4, [sp, lr]

00002554 <l2130>:
    2554:	013502a6 	teqeq	r5, r6, lsr #5

00002558 <l2131>:
    2558:	580d0004 	stmdapl	sp, {r2}

0000255c <interrupt_648>:
    255c:	e0f1200c 	rscs	r2, r1, ip

00002560 <l2133>:
    2560:	a99d0280 	ldmibge	sp, {r7, r9}

00002564 <l2134>:
    2564:	d050ca6b 	subsle	ip, r0, fp, ror #20

00002568 <l2135>:
    2568:	e190a00b 	orrs	sl, r0, fp

0000256c <l2136>:
    256c:	efddafe8 	svc	0x00ddafe8

00002570 <l2137>:
    2570:	efc24cce 	svc	0x00c24cce

00002574 <l2138>:
    2574:	11a02161 	rorne	r2, r1, #2

00002578 <interrupt_337>:
    2578:	e49d8034 	ldr	r8, [sp], #52	; 0x34

0000257c <l2140>:
    257c:	e59f3000 	ldr	r3, [pc]	; 2584 <l2142>

00002580 <interrupt_434>:
    2580:	ea000000 	b	2588 <l2143>

00002584 <l2142>:
    2584:	000fffac 	.word	0x000fffac

00002588 <l2143>:
    2588:	d143e091 	swpble	lr, r1, [r3]

0000258c <interrupt_319>:
    258c:	ef3497a7 	svc	0x003497a7

00002590 <l2145>:
    2590:	83730207 	cmnhi	r3, #1879048192	; 0x70000000

00002594 <l2146>:
    2594:	e3770fcd 	cmn	r7, #820	; 0x334

00002598 <l2147>:
    2598:	e3a0b005 	mov	fp, #5

0000259c <l2148>:
    259c:	a11d20db 	ldrsbge	r2, [sp, -fp]

000025a0 <l2149>:
    25a0:	e18a2a81 	orr	r2, sl, r1, lsl #21

000025a4 <l2150>:
    25a4:	e59f7000 	ldr	r7, [pc]	; 25ac <interrupt_834>

000025a8 <l2151>:
    25a8:	ea000000 	b	25b0 <l2153>

000025ac <interrupt_834>:
    25ac:	000fffc8 	.word	0x000fffc8

000025b0 <l2153>:
    25b0:	e1475092 	swpb	r5, r2, [r7]

000025b4 <l2154>:
    25b4:	a132046a 	teqge	r2, sl, ror #8

000025b8 <l2155>:
    25b8:	ea000002 	b	25c8 <l2159>

000025bc <l2156>:
    25bc:	e28010ce 	add	r1, r0, #206	; 0xce

000025c0 <interrupt_979>:
    25c0:	e29250cf 	adds	r5, r2, #207	; 0xcf

000025c4 <l2158>:
    25c4:	ea000000 	b	25cc <l2160>

000025c8 <l2159>:
    25c8:	eafffffc 	b	25c0 <interrupt_979>

000025cc <l2160>:
    25cc:	254db00a 	strbcs	fp, [sp, #-10]

000025d0 <l2161>:
    25d0:	ef59545f 	svc	0x0059545f

000025d4 <interrupt_119>:
    25d4:	e3a0501a 	mov	r5, #26

000025d8 <l2163>:
    25d8:	e74d8005 	strb	r8, [sp, -r5]

000025dc <l2164>:
    25dc:	e0ab637a 	adc	r6, fp, sl, ror r3

000025e0 <l2165>:
    25e0:	e3a0400c 	mov	r4, #12

000025e4 <l2166>:
    25e4:	e11d70d4 	ldrsb	r7, [sp, -r4]

000025e8 <l2167>:
    25e8:	e15db3fe 	ldrsh	fp, [sp, #-62]	; 0xffffffc2

000025ec <l2168>:
    25ec:	e3a0e01e 	mov	lr, #30

000025f0 <interrupt_989>:
    25f0:	710dc0be 	strhvc	ip, [sp, -lr]

000025f4 <l2170>:
    25f4:	52d56501 	sbcspl	r6, r5, #4194304	; 0x400000

000025f8 <l2171>:
    25f8:	c0f7c069 	rscsgt	ip, r7, r9, rrx

000025fc <l2172>:
    25fc:	e59f7000 	ldr	r7, [pc]	; 2604 <l2174>

00002600 <interrupt_864>:
    2600:	ea000000 	b	2608 <l2175>

00002604 <l2174>:
    2604:	000fffd4 	.word	0x000fffd4

00002608 <l2175>:
    2608:	31076093 	swpcc	r6, r3, [r7]

0000260c <l2176>:
    260c:	e1a0aeeb 	ror	sl, fp, #29

00002610 <l2177>:
    2610:	015d03f4 	ldrsheq	r0, [sp, #-52]	; 0xffffffcc

00002614 <l2178>:
    2614:	e3a0600c 	mov	r6, #12

00002618 <l2179>:
    2618:	074da006 	strbeq	sl, [sp, -r6]

0000261c <l2180>:
    261c:	ea000006 	b	263c <l2188>

00002620 <l2181>:
    2620:	e28010cc 	add	r1, r0, #204	; 0xcc

00002624 <l2182>:
    2624:	a241603a 	subge	r6, r1, #58	; 0x3a

00002628 <l2183>:
    2628:	c03abb71 	eorsgt	fp, sl, r1, ror fp

0000262c <l2184>:
    262c:	71d1077c 	bicsvc	r0, r1, ip, ror r7

00002630 <l2185>:
    2630:	507c4003 	rsbspl	r4, ip, r3

00002634 <interrupt_415>:
    2634:	e0405003 	sub	r5, r0, r3

00002638 <l2187>:
    2638:	ea000000 	b	2640 <interrupt_122>

0000263c <l2188>:
    263c:	eafffff8 	b	2624 <l2182>

00002640 <interrupt_122>:
    2640:	115de2f2 	ldrshne	lr, [sp, #-34]	; 0xffffffde

00002644 <interrupt_636>:
    2644:	e0264061 	eor	r4, r6, r1, rrx

00002648 <l2191>:
    2648:	e2e9a326 	rsc	sl, r9, #-1744830464	; 0x98000000

0000264c <l2192>:
    264c:	e2848e9d 	add	r8, r4, #2512	; 0x9d0

00002650 <l2193>:
    2650:	e59f0000 	ldr	r0, [pc]	; 2658 <l2195>

00002654 <interrupt_327>:
    2654:	ea000000 	b	265c <l2196>

00002658 <l2195>:
    2658:	000fffa4 	.word	0x000fffa4

0000265c <l2196>:
    265c:	b140909a 	swpblt	r9, sl, [r0]

00002660 <l2197>:
    2660:	e8ad0002 	stmia	sp!, {r1}

00002664 <l2198>:
    2664:	e90df7ff 	stmdb	sp, {r0, r1, r2, r3, r4, r5, r6, r7, r8, r9, sl, ip, sp, lr, pc}

00002668 <l2199>:
    2668:	81700c5a 	cmnhi	r0, sl, asr ip

0000266c <l2200>:
    266c:	e3a0100a 	mov	r1, #10

00002670 <l2201>:
    2670:	e10d90b1 	strh	r9, [sp, -r1]

00002674 <interrupt_331>:
    2674:	e3a05030 	mov	r5, #48	; 0x30

00002678 <interrupt_895>:
    2678:	e11d60b5 	ldrh	r6, [sp, -r5]

0000267c <interrupt_668>:
    267c:	e1a00000 	nop			; (mov r0, r0)

00002680 <l2205>:
    2680:	e92d9101 	push	{r0, r8, ip, pc}

00002684 <l2206>:
    2684:	e190a006 	orrs	sl, r0, r6

00002688 <l2207>:
    2688:	21750779 	cmncs	r5, r9, ror r7

0000268c <l2208>:
    268c:	efb9fd31 	svc	0x00b9fd31

00002690 <l2209>:
    2690:	d16f7f1b 	clzle	r7, fp

00002694 <l2210>:
    2694:	73380886 	teqvc	r8, #8781824	; 0x860000

00002698 <l2211>:
    2698:	2031b062 	eorscs	fp, r1, r2, rrx

0000269c <l2212>:
    269c:	01510004 	cmpeq	r1, r4

000026a0 <l2213>:
    26a0:	e3a03012 	mov	r3, #18

000026a4 <l2214>:
    26a4:	775da003 	ldrbvc	sl, [sp, -r3]

000026a8 <l2215>:
    26a8:	efffacc1 	svc	0x00ffacc1

000026ac <l2216>:
    26ac:	e3370965 	teq	r7, #1654784	; 0x194000

000026b0 <l2217>:
    26b0:	31150423 	tstcc	r5, r3, lsr #8

000026b4 <l2218>:
    26b4:	e3a06014 	mov	r6, #20

000026b8 <l2219>:
    26b8:	e79d7006 	ldr	r7, [sp, r6]

000026bc <interrupt_209>:
    26bc:	e1340008 	teq	r4, r8

000026c0 <interrupt_448>:
    26c0:	e3a0c004 	mov	ip, #4

000026c4 <l2222>:
    26c4:	e11d10fc 	ldrsh	r1, [sp, -ip]

000026c8 <l2223>:
    26c8:	309a2344 	addscc	r2, sl, r4, asr #6

000026cc <l2224>:
    26cc:	e48df004 	str	pc, [sp], #4

000026d0 <l2225>:
    26d0:	e1f0000b 	mvns	r0, fp

000026d4 <l2226>:
    26d4:	d03f1007 	eorsle	r1, pc, r7

000026d8 <l2227>:
    26d8:	e257c939 	subs	ip, r7, #933888	; 0xe4000

000026dc <interrupt_348>:
    26dc:	e59f7000 	ldr	r7, [pc]	; 26e4 <l2230>

000026e0 <l2229>:
    26e0:	ea000000 	b	26e8 <l2231>

000026e4 <l2230>:
    26e4:	000fffb4 	.word	0x000fffb4

000026e8 <l2231>:
    26e8:	e1074095 	swp	r4, r5, [r7]

000026ec <l2232>:
    26ec:	ef882881 	svc	0x00882881

000026f0 <interrupt_621>:
    26f0:	e3a06026 	mov	r6, #38	; 0x26

000026f4 <l2234>:
    26f4:	774d0006 	strbvc	r0, [sp, -r6]

000026f8 <l2235>:
    26f8:	e53d9024 	ldr	r9, [sp, #-36]!	; 0x24

000026fc <l2236>:
    26fc:	e15d20dc 	ldrsb	r2, [sp, #-12]

00002700 <l2237>:
    2700:	e1cd51b4 	strh	r5, [sp, #20]

00002704 <l2238>:
    2704:	e59fa000 	ldr	sl, [pc]	; 270c <l2240>

00002708 <l2239>:
    2708:	ea000000 	b	2710 <l2241>

0000270c <l2240>:
    270c:	000fffc8 	.word	0x000fffc8

00002710 <l2241>:
    2710:	714a5091 	swpbvc	r5, r1, [sl]

00002714 <l2242>:
    2714:	e0157061 	ands	r7, r5, r1, rrx

00002718 <l2243>:
    2718:	027ba979 	rsbseq	sl, fp, #1982464	; 0x1e4000

0000271c <l2244>:
    271c:	d0eae066 	rscle	lr, sl, r6, rrx

00002720 <l2245>:
    2720:	ba000003 	blt	2734 <l2250>

00002724 <l2246>:
    2724:	60f05068 	rscsvs	r5, r0, r8, rrx

00002728 <l2247>:
    2728:	e00bcc0c 	and	ip, fp, ip, lsl #24

0000272c <l2248>:
    272c:	e178000e 	cmn	r8, lr

00002730 <l2249>:
    2730:	e3f0bc96 	mvns	fp, #38400	; 0x9600

00002734 <l2250>:
    2734:	b1f0c454 	mvnslt	ip, r4, asr r4

00002738 <l2251>:
    2738:	ef47207a 	svc	0x0047207a

0000273c <l2252>:
    273c:	01cd20bc 	strheq	r2, [sp, #12]

00002740 <l2253>:
    2740:	2207c623 	andcs	ip, r7, #36700160	; 0x2300000

00002744 <l2254>:
    2744:	e1ceb006 	bic	fp, lr, r6

00002748 <l2255>:
    2748:	107c8cc6 	rsbsne	r8, ip, r6, asr #25

0000274c <l2256>:
    274c:	c1330b0b 	teqgt	r3, fp, lsl #22

00002750 <l2257>:
    2750:	20520384 	subscs	r0, r2, r4, lsl #7

00002754 <interrupt_990>:
    2754:	c0403aee 	subgt	r3, r0, lr, ror #21

00002758 <interrupt_564>:
    2758:	e59d4010 	ldr	r4, [sp, #16]

0000275c <l2260>:
    275c:	508e8230 	addpl	r8, lr, r0, lsr r2

00002760 <l2261>:
    2760:	e59f3000 	ldr	r3, [pc]	; 2768 <l2263>

00002764 <l2262>:
    2764:	ea000000 	b	276c <l2264>

00002768 <l2263>:
    2768:	000fffb0 	.word	0x000fffb0

0000276c <l2264>:
    276c:	61435097 	swpbvs	r5, r7, [r3]

00002770 <l2265>:
    2770:	e1a00000 	nop			; (mov r0, r0)

00002774 <l2266>:
    2774:	e1a00000 	nop			; (mov r0, r0)

00002778 <l2267>:
    2778:	60c0272e 	sbcvs	r2, r0, lr, lsr #14

0000277c <l2268>:
    277c:	0a000004 	beq	2794 <l2274>

00002780 <l2269>:
    2780:	d18c18a7 	orrle	r1, ip, r7, lsr #17

00002784 <l2270>:
    2784:	8032e37c 	eorshi	lr, r2, ip, ror r3

00002788 <l2271>:
    2788:	71b0b005 	movsvc	fp, r5

0000278c <l2272>:
    278c:	215f000e 	cmpcs	pc, lr

00002790 <l2273>:
    2790:	d1ce6678 	bicle	r6, lr, r8, ror r6

00002794 <l2274>:
    2794:	e0852654 	add	r2, r5, r4, asr r6

00002798 <l2275>:
    2798:	e060a00a 	rsb	sl, r0, sl

0000279c <l2276>:
    279c:	e3a00028 	mov	r0, #40	; 0x28

000027a0 <interrupt_726>:
    27a0:	e7ade000 	str	lr, [sp, r0]!

000027a4 <l2278>:
    27a4:	a050c00e 	subsge	ip, r0, lr

000027a8 <l2279>:
    27a8:	e3a0e01f 	mov	lr, #31

000027ac <l2280>:
    27ac:	e11d70de 	ldrsb	r7, [sp, -lr]

000027b0 <l2281>:
    27b0:	da000005 	ble	27cc <l2288>

000027b4 <l2282>:
    27b4:	70223b1e 	eorvc	r3, r2, lr, lsl fp

000027b8 <interrupt_825>:
    27b8:	90c49da3 	sbcls	r9, r4, r3, lsr #27

000027bc <interrupt_712>:
    27bc:	b02e70a6 	eorlt	r7, lr, r6, lsr #1

000027c0 <l2285>:
    27c0:	611f0003 	tstvs	pc, r3

000027c4 <l2286>:
    27c4:	b2b9ee1b 	adcslt	lr, r9, #432	; 0x1b0

000027c8 <interrupt_535>:
    27c8:	e2a72c2f 	adc	r2, r7, #12032	; 0x2f00

000027cc <l2288>:
    27cc:	e2fb9d5e 	rscs	r9, fp, #6016	; 0x1780

000027d0 <l2289>:
    27d0:	e52d5020 	str	r5, [sp, #-32]!

000027d4 <l2290>:
    27d4:	e3a09008 	mov	r9, #8

000027d8 <l2291>:
    27d8:	e11d60d9 	ldrsb	r6, [sp, -r9]

000027dc <interrupt_596>:
    27dc:	e59f9000 	ldr	r9, [pc]	; 27e4 <l2294>

000027e0 <interrupt_505>:
    27e0:	ea000000 	b	27e8 <l2295>

000027e4 <l2294>:
    27e4:	000fffd4 	.word	0x000fffd4

000027e8 <l2295>:
    27e8:	e149c096 	swpb	ip, r6, [r9]

000027ec <l2296>:
    27ec:	01d06ccb 	bicseq	r6, r0, fp, asr #25

000027f0 <interrupt_398>:
    27f0:	21340f4b 	teqcs	r4, fp, asr #30

000027f4 <l2298>:
    27f4:	e59f0000 	ldr	r0, [pc]	; 27fc <l2300>

000027f8 <l2299>:
    27f8:	ea000000 	b	2800 <l2301>

000027fc <l2300>:
    27fc:	000fffc4 	.word	0x000fffc4

00002800 <l2301>:
    2800:	61408095 	swpbvs	r8, r5, [r0]

00002804 <l2302>:
    2804:	e3a0a010 	mov	sl, #16

00002808 <l2303>:
    2808:	218dc0ba 	strhcs	ip, [sp, sl]

0000280c <l2304>:
    280c:	41a05008 	movmi	r5, r8

00002810 <l2305>:
    2810:	90c71008 	sbcls	r1, r7, r8

00002814 <l2306>:
    2814:	024640b5 	subeq	r4, r6, #181	; 0xb5

00002818 <l2307>:
    2818:	e59fe000 	ldr	lr, [pc]	; 2820 <l2309>

0000281c <l2308>:
    281c:	ea000000 	b	2824 <l2310>

00002820 <l2309>:
    2820:	000fffb0 	.word	0x000fffb0

00002824 <l2310>:
    2824:	c14e3091 	swpbgt	r3, r1, [lr]

00002828 <l2311>:
    2828:	51100c58 	tstpl	r0, r8, asr ip

0000282c <l2312>:
    282c:	9a000008 	bls	2854 <l2322>

00002830 <l2313>:
    2830:	d1190008 	tstle	r9, r8

00002834 <l2314>:
    2834:	31100130 	tstcc	r0, r0, lsr r1

00002838 <l2315>:
    2838:	e3150048 	tst	r5, #72	; 0x48

0000283c <l2316>:
    283c:	e192e005 	orrs	lr, r2, r5

00002840 <interrupt_6>:
    2840:	73500cad 	cmpvc	r0, #44288	; 0xad00

00002844 <l2318>:
    2844:	43caac13 	bicmi	sl, sl, #4864	; 0x1300

00002848 <l2319>:
    2848:	e05800e8 	subs	r0, r8, r8, ror #1

0000284c <l2320>:
    284c:	e1b00631 	lsrs	r0, r1, r6

00002850 <l2321>:
    2850:	e0f6b075 	rscs	fp, r6, r5, ror r0

00002854 <l2322>:
    2854:	a0707063 	rsbsge	r7, r0, r3, rrx

00002858 <l2323>:
    2858:	efbd6c5f 	svc	0x00bd6c5f

0000285c <l2324>:
    285c:	e0069004 	and	r9, r6, r4

00002860 <interrupt_262>:
    2860:	a1550c1e 	cmpge	r5, lr, lsl ip

00002864 <interrupt_647>:
    2864:	b16f5f15 	clzlt	r5, r5

00002868 <l2327>:
    2868:	e001211a 	and	r2, r1, sl, lsl r1

0000286c <l2328>:
    286c:	e3a0e010 	mov	lr, #16

00002870 <l2329>:
    2870:	e75dc00e 	ldrb	ip, [sp, -lr]

00002874 <l2330>:
    2874:	4394cad9 	orrsmi	ip, r4, #888832	; 0xd9000

00002878 <l2331>:
    2878:	e82d1068 	stmda	sp!, {r3, r5, r6, ip}

0000287c <l2332>:
    287c:	e3a01024 	mov	r1, #36	; 0x24

00002880 <interrupt_208>:
    2880:	e18d30b1 	strh	r3, [sp, r1]

00002884 <interrupt_439>:
    2884:	aa000002 	bge	2894 <interrupt_610>

00002888 <l2335>:
    2888:	20506006 	subscs	r6, r0, r6

0000288c <l2336>:
    288c:	304f400e 	subcc	r4, pc, lr

00002890 <l2337>:
    2890:	e0668c2b 	rsb	r8, r6, fp, lsr #24

00002894 <interrupt_610>:
    2894:	e25c530a 	subs	r5, ip, #671088640	; 0x28000000

00002898 <l2339>:
    2898:	6a000005 	bvs	28b4 <l2346>

0000289c <interrupt_896>:
    289c:	e28010e0 	add	r1, r0, #224	; 0xe0

000028a0 <l2341>:
    28a0:	e0d19e1e 	sbcs	r9, r1, lr, lsl lr

000028a4 <l2342>:
    28a4:	e1b0ec4f 	asrs	lr, pc, #24

000028a8 <l2343>:
    28a8:	41e0b77e 	mvnmi	fp, lr, ror r7

000028ac <l2344>:
    28ac:	0139000b 	teqeq	r9, fp

000028b0 <l2345>:
    28b0:	ea000000 	b	28b8 <l2347>

000028b4 <l2346>:
    28b4:	eafffff9 	b	28a0 <l2341>

000028b8 <l2347>:
    28b8:	e5cd001e 	strb	r0, [sp, #30]

000028bc <interrupt_322>:
    28bc:	e59f8000 	ldr	r8, [pc]	; 28c4 <l2350>

000028c0 <l2349>:
    28c0:	ea000000 	b	28c8 <l2351>

000028c4 <l2350>:
    28c4:	000fffa8 	.word	0x000fffa8

000028c8 <l2351>:
    28c8:	1148c097 	swpbne	ip, r7, [r8]

000028cc <interrupt_614>:
    28cc:	20715e60 	rsbscs	r5, r1, r0, ror #28

000028d0 <l2353>:
    28d0:	e3a0301c 	mov	r3, #28

000028d4 <interrupt_202>:
    28d4:	e18de0b3 	strh	lr, [sp, r3]

000028d8 <l2355>:
    28d8:	937f0aab 	cmnls	pc, #700416	; 0xab000

000028dc <l2356>:
    28dc:	e066bbcc 	rsb	fp, r6, ip, asr #23

000028e0 <l2357>:
    28e0:	75ddc00f 	ldrbvc	ip, [sp, #15]

000028e4 <l2358>:
    28e4:	a1310607 	teqge	r1, r7, lsl #12

000028e8 <l2359>:
    28e8:	e83d0008 	ldmda	sp!, {r3}

000028ec <interrupt_485>:
    28ec:	e16fef17 	clz	lr, r7

000028f0 <l2361>:
    28f0:	a1dda2f6 	ldrshge	sl, [sp, #38]	; 0x26

000028f4 <l2362>:
    28f4:	e1130066 	tst	r3, r6, rrx

000028f8 <l2363>:
    28f8:	43590e4a 	cmpmi	r9, #1184	; 0x4a0

000028fc <l2364>:
    28fc:	216f2f13 	clzcs	r2, r3

00002900 <l2365>:
    2900:	358d5010 	strcc	r5, [sp, #16]

00002904 <l2366>:
    2904:	e0a0c5e2 	adc	ip, r0, r2, ror #11

00002908 <l2367>:
    2908:	e11b0578 	tst	fp, r8, ror r5

0000290c <l2368>:
    290c:	e59fb000 	ldr	fp, [pc]	; 2914 <l2370>

00002910 <l2369>:
    2910:	ea000000 	b	2918 <l2371>

00002914 <l2370>:
    2914:	000fffc0 	.word	0x000fffc0

00002918 <l2371>:
    2918:	310b209c 	swpcc	r2, ip, [fp]

0000291c <l2372>:
    291c:	c073b064 	rsbsgt	fp, r3, r4, rrx

00002920 <interrupt_813>:
    2920:	e21a7419 	ands	r7, sl, #419430400	; 0x19000000

00002924 <interrupt_95>:
    2924:	e3a0702c 	mov	r7, #44	; 0x2c

00002928 <l2375>:
    2928:	e68d5007 	str	r5, [sp], r7

0000292c <l2376>:
    292c:	50272233 	eorpl	r2, r7, r3, lsr r2

00002930 <l2377>:
    2930:	81b0200c 	movshi	r2, ip

00002934 <l2378>:
    2934:	e07cae21 	rsbs	sl, ip, r1, lsr #28

00002938 <l2379>:
    2938:	815c0433 	cmphi	ip, r3, lsr r4

0000293c <l2380>:
    293c:	41300001 	teqmi	r0, r1

00002940 <l2381>:
    2940:	3195500b 	orrscc	r5, r5, fp

00002944 <l2382>:
    2944:	ea000006 	b	2964 <l2390>

00002948 <interrupt_173>:
    2948:	60941732 	addsvs	r1, r4, r2, lsr r7

0000294c <l2384>:
    294c:	e09705a7 	adds	r0, r7, r7, lsr #11

00002950 <l2385>:
    2950:	e03b1009 	eors	r1, fp, r9

00002954 <l2386>:
    2954:	e1180539 	tst	r8, r9, lsr r5

00002958 <interrupt_788>:
    2958:	6096a000 	addsvs	sl, r6, r0

0000295c <l2388>:
    295c:	e132000e 	teq	r2, lr

00002960 <l2389>:
    2960:	0150000c 	cmpeq	r0, ip

00002964 <l2390>:
    2964:	61150006 	tstvs	r5, r6

00002968 <l2391>:
    2968:	7247135e 	subvc	r1, r7, #2013265921	; 0x78000001

0000296c <l2392>:
    296c:	200b4002 	andcs	r4, fp, r2

00002970 <l2393>:
    2970:	e0567625 	subs	r7, r6, r5, lsr #12

00002974 <l2394>:
    2974:	e08f300e 	add	r3, pc, lr

00002978 <l2395>:
    2978:	e16f5f16 	clz	r5, r6

0000297c <l2396>:
    297c:	e1e0b00e 	mvn	fp, lr

00002980 <l2397>:
    2980:	e3a09018 	mov	r9, #24

00002984 <l2398>:
    2984:	e10d70b9 	strh	r7, [sp, -r9]

00002988 <l2399>:
    2988:	e5bde014 	ldr	lr, [sp, #20]!

0000298c <l2400>:
    298c:	e82d6000 	stmda	sp!, {sp, lr}

00002990 <l2401>:
    2990:	e15d13d2 	ldrsb	r1, [sp, #-50]	; 0xffffffce

00002994 <l2402>:
    2994:	ef14a42a 	svc	0x0014a42a

00002998 <l2403>:
    2998:	3292bd7a 	addscc	fp, r2, #7808	; 0x1e80

0000299c <l2404>:
    299c:	a16f8f17 	clzge	r8, r7

000029a0 <l2405>:
    29a0:	4062877c 	rsbmi	r8, r2, ip, ror r7

000029a4 <l2406>:
    29a4:	e3a0301e 	mov	r3, #30

000029a8 <l2407>:
    29a8:	211da0d3 	ldrsbcs	sl, [sp, -r3]

000029ac <interrupt_347>:
    29ac:	ea000006 	b	29cc <interrupt_714>

000029b0 <l2409>:
    29b0:	502aa538 	eorpl	sl, sl, r8, lsr r5

000029b4 <l2410>:
    29b4:	21dbe57e 	bicscs	lr, fp, lr, ror r5

000029b8 <l2411>:
    29b8:	80f2ba16 	rscshi	fp, r2, r6, lsl sl

000029bc <l2412>:
    29bc:	2139007c 	teqcs	r9, ip, ror r0

000029c0 <l2413>:
    29c0:	e38c36f3 	orr	r3, ip, #254803968	; 0xf300000

000029c4 <l2414>:
    29c4:	50e7e00b 	rscpl	lr, r7, fp

000029c8 <l2415>:
    29c8:	e1e0e566 	mvn	lr, r6, ror #10

000029cc <interrupt_714>:
    29cc:	e0b87061 	adcs	r7, r8, r1, rrx

000029d0 <l2417>:
    29d0:	e15e0603 	cmp	lr, r3, lsl #12

000029d4 <l2418>:
    29d4:	e59f5000 	ldr	r5, [pc]	; 29dc <interrupt_529>

000029d8 <l2419>:
    29d8:	ea000000 	b	29e0 <l2421>

000029dc <interrupt_529>:
    29dc:	000fffc8 	.word	0x000fffc8

000029e0 <l2421>:
    29e0:	81451093 	swpbhi	r1, r3, [r5]

000029e4 <l2422>:
    29e4:	e3a0503a 	mov	r5, #58	; 0x3a

000029e8 <l2423>:
    29e8:	e11d30b5 	ldrh	r3, [sp, -r5]

000029ec <interrupt_456>:
    29ec:	b16f1f1a 	clzlt	r1, sl

000029f0 <l2425>:
    29f0:	e1770057 	cmn	r7, r7, asr r0

000029f4 <l2426>:
    29f4:	e59f4000 	ldr	r4, [pc]	; 29fc <l2428>

000029f8 <l2427>:
    29f8:	ea000000 	b	2a00 <l2429>

000029fc <l2428>:
    29fc:	000fffcc 	.word	0x000fffcc

00002a00 <l2429>:
    2a00:	e1446099 	swpb	r6, r9, [r4]

00002a04 <l2430>:
    2a04:	53e005d5 	mvnpl	r0, #893386752	; 0x35400000

00002a08 <l2431>:
    2a08:	e59f1000 	ldr	r1, [pc]	; 2a10 <l2433>

00002a0c <l2432>:
    2a0c:	ea000000 	b	2a14 <interrupt_703>

00002a10 <l2433>:
    2a10:	000fffdc 	.word	0x000fffdc

00002a14 <interrupt_703>:
    2a14:	e141a092 	swpb	sl, r2, [r1]

00002a18 <l2435>:
    2a18:	e5dd9005 	ldrb	r9, [sp, #5]

00002a1c <l2436>:
    2a1c:	e15d40d2 	ldrsb	r4, [sp, #-2]

00002a20 <l2437>:
    2a20:	e3a0e022 	mov	lr, #34	; 0x22

00002a24 <l2438>:
    2a24:	e75dc00e 	ldrb	ip, [sp, -lr]

00002a28 <interrupt_978>:
    2a28:	10d93003 	sbcsne	r3, r9, r3

00002a2c <l2440>:
    2a2c:	a16fef18 	clzge	lr, r8

00002a30 <l2441>:
    2a30:	81350006 	teqhi	r5, r6

00002a34 <l2442>:
    2a34:	e0614983 	rsb	r4, r1, r3, lsl #19

00002a38 <l2443>:
    2a38:	e0844807 	add	r4, r4, r7, lsl #16

00002a3c <l2444>:
    2a3c:	e1de1004 	bics	r1, lr, r4

00002a40 <l2445>:
    2a40:	ef50df48 	svc	0x0050df48

00002a44 <l2446>:
    2a44:	ba000007 	blt	2a68 <l2455>

00002a48 <l2447>:
    2a48:	e280102b 	add	r1, r0, #43	; 0x2b

00002a4c <interrupt_98>:
    2a4c:	71580065 	cmpvc	r8, r5, rrx

00002a50 <l2449>:
    2a50:	11720060 	cmnne	r2, r0, rrx

00002a54 <l2450>:
    2a54:	e0d9e062 	sbcs	lr, r9, r2, rrx

00002a58 <l2451>:
    2a58:	e1e0b305 	mvn	fp, r5, lsl #6

00002a5c <l2452>:
    2a5c:	e3f07a62 	mvns	r7, #401408	; 0x62000

00002a60 <interrupt_889>:
    2a60:	81b0293e 	lsrshi	r2, lr, r9

00002a64 <interrupt_386>:
    2a64:	ea000000 	b	2a6c <interrupt_206>

00002a68 <l2455>:
    2a68:	eafffff7 	b	2a4c <interrupt_98>

00002a6c <interrupt_206>:
    2a6c:	717c098e 	cmnvc	ip, lr, lsl #19

00002a70 <interrupt_4>:
    2a70:	40a54331 	adcmi	r4, r5, r1, lsr r3

00002a74 <l2458>:
    2a74:	41a02b5e 	asrmi	r2, lr, fp

00002a78 <l2459>:
    2a78:	b0001069 	andlt	r1, r0, r9, rrx

00002a7c <l2460>:
    2a7c:	c15d12d0 	ldrsbgt	r1, [sp, #-32]	; 0xffffffe0

00002a80 <interrupt_858>:
    2a80:	e3a0e038 	mov	lr, #56	; 0x38

00002a84 <l2462>:
    2a84:	e61da00e 	ldr	sl, [sp], -lr

00002a88 <l2463>:
    2a88:	ef9d3276 	svc	0x009d3276

00002a8c <l2464>:
    2a8c:	e2362907 	eors	r2, r6, #114688	; 0x1c000

00002a90 <l2465>:
    2a90:	e3a0a023 	mov	sl, #35	; 0x23

00002a94 <l2466>:
    2a94:	e7cd000a 	strb	r0, [sp, sl]

00002a98 <l2467>:
    2a98:	81c49009 	bichi	r9, r4, r9

00002a9c <l2468>:
    2a9c:	e89d5d2e 	ldm	sp, {r1, r2, r3, r5, r8, sl, fp, ip, lr}

00002aa0 <l2469>:
    2aa0:	e48dc018 	str	ip, [sp], #24

00002aa4 <l2470>:
    2aa4:	e3a0a00c 	mov	sl, #12

00002aa8 <l2471>:
    2aa8:	e70d800a 	str	r8, [sp, -sl]

00002aac <l2472>:
    2aac:	efb34cc3 	svc	0x00b34cc3

00002ab0 <interrupt_53>:
    2ab0:	e59fb000 	ldr	fp, [pc]	; 2ab8 <interrupt_716>

00002ab4 <l2474>:
    2ab4:	ea000000 	b	2abc <l2476>

00002ab8 <interrupt_716>:
    2ab8:	000fffa8 	.word	0x000fffa8

00002abc <l2476>:
    2abc:	c14b0093 	swpbgt	r0, r3, [fp]

00002ac0 <l2477>:
    2ac0:	307a487c 	rsbscc	r4, sl, ip, ror r8

00002ac4 <l2478>:
    2ac4:	eaffffff 	b	2ac8 <l2479>

00002ac8 <l2479>:
    2ac8:	9174006a 	cmnls	r4, sl, rrx

00002acc <l2480>:
    2acc:	e59f7000 	ldr	r7, [pc]	; 2ad4 <l2482>

00002ad0 <l2481>:
    2ad0:	ea000000 	b	2ad8 <l2483>

00002ad4 <l2482>:
    2ad4:	000fffc8 	.word	0x000fffc8

00002ad8 <l2483>:
    2ad8:	71472093 	swpbvc	r2, r3, [r7]

00002adc <l2484>:
    2adc:	9049c416 	subls	ip, r9, r6, lsl r4

00002ae0 <l2485>:
    2ae0:	e3790102 	cmn	r9, #-2147483648	; 0x80000000

00002ae4 <l2486>:
    2ae4:	e59f5000 	ldr	r5, [pc]	; 2aec <l2488>

00002ae8 <l2487>:
    2ae8:	ea000000 	b	2af0 <l2489>

00002aec <l2488>:
    2aec:	000fffd0 	.word	0x000fffd0

00002af0 <l2489>:
    2af0:	e105a094 	swp	sl, r4, [r5]

00002af4 <l2490>:
    2af4:	efafb78a 	svc	0x00afb78a

00002af8 <interrupt_725>:
    2af8:	e09b8aef 	adds	r8, fp, pc, ror #21

00002afc <l2492>:
    2afc:	70c6125a 	sbcvc	r1, r6, sl, asr r2

00002b00 <l2493>:
    2b00:	e59f6000 	ldr	r6, [pc]	; 2b08 <l2495>

00002b04 <l2494>:
    2b04:	ea000000 	b	2b0c <interrupt_291>

00002b08 <l2495>:
    2b08:	000fffb8 	.word	0x000fffb8

00002b0c <interrupt_291>:
    2b0c:	31460099 	swpbcc	r0, r9, [r6]

00002b10 <l2497>:
    2b10:	e3d19616 	bics	r9, r1, #23068672	; 0x1600000

00002b14 <l2498>:
    2b14:	ef200882 	svc	0x00200882

00002b18 <l2499>:
    2b18:	35ddc003 	ldrbcc	ip, [sp, #3]

00002b1c <l2500>:
    2b1c:	013b0679 	teqeq	fp, r9, ror r6

00002b20 <l2501>:
    2b20:	e377043a 	cmn	r7, #973078528	; 0x3a000000

00002b24 <l2502>:
    2b24:	e19c4002 	orrs	r4, ip, r2

00002b28 <l2503>:
    2b28:	e1dd00df 	ldrsb	r0, [sp, #15]

00002b2c <l2504>:
    2b2c:	680d0482 	stmdavs	sp, {r1, r7, sl}

00002b30 <l2505>:
    2b30:	e0e2ea1b 	rsc	lr, r2, fp, lsl sl

00002b34 <l2506>:
    2b34:	206c482f 	rsbcs	r4, ip, pc, lsr #16

00002b38 <l2507>:
    2b38:	82561632 	subshi	r1, r6, #52428800	; 0x3200000

00002b3c <l2508>:
    2b3c:	a1dd91d4 	ldrsbge	r9, [sp, #20]

00002b40 <interrupt_925>:
    2b40:	019be002 	orrseq	lr, fp, r2

00002b44 <l2510>:
    2b44:	e35b03a9 	cmp	fp, #-1543503870	; 0xa4000002

00002b48 <l2511>:
    2b48:	50c6473c 	sbcpl	r4, r6, ip, lsr r7

00002b4c <interrupt_719>:
    2b4c:	e1a00000 	nop			; (mov r0, r0)

00002b50 <interrupt_41>:
    2b50:	90813007 	addls	r3, r1, r7

00002b54 <l2514>:
    2b54:	013f0005 	teqeq	pc, r5

00002b58 <interrupt_609>:
    2b58:	e9ad8411 	stmib	sp!, {r0, r4, sl, pc}

00002b5c <l2516>:
    2b5c:	e15dc2d6 	ldrsb	ip, [sp, #-38]	; 0xffffffda

00002b60 <l2517>:
    2b60:	e99d0142 	ldmib	sp, {r1, r6, r8}

00002b64 <l2518>:
    2b64:	e82d8090 	stmda	sp!, {r4, r7, pc}

00002b68 <l2519>:
    2b68:	125f00a4 	subsne	r0, pc, #164	; 0xa4

00002b6c <l2520>:
    2b6c:	e0cc1006 	sbc	r1, ip, r6

00002b70 <l2521>:
    2b70:	e2da08b2 	sbcs	r0, sl, #11665408	; 0xb20000

00002b74 <l2522>:
    2b74:	5a000008 	bpl	2b9c <interrupt_959>

00002b78 <l2523>:
    2b78:	0037700f 	eorseq	r7, r7, pc

00002b7c <l2524>:
    2b7c:	01e02325 	mvneq	r2, r5, lsr #6

00002b80 <l2525>:
    2b80:	001740a1 	andseq	r4, r7, r1, lsr #1

00002b84 <interrupt_980>:
    2b84:	e1e0c062 	mvn	ip, r2, rrx

00002b88 <interrupt_985>:
    2b88:	a215412d 	andsge	r4, r5, #1073741835	; 0x4000000b

00002b8c <l2528>:
    2b8c:	70dc100b 	sbcsvc	r1, ip, fp

00002b90 <l2529>:
    2b90:	e2d8444f 	sbcs	r4, r8, #1325400064	; 0x4f000000

00002b94 <l2530>:
    2b94:	e058b001 	subs	fp, r8, r1

00002b98 <l2531>:
    2b98:	716f6f13 	clzvc	r6, r3

00002b9c <interrupt_959>:
    2b9c:	c1f03ee9 	mvnsgt	r3, r9, ror #29

00002ba0 <l2533>:
    2ba0:	e3a0e00a 	mov	lr, #10

00002ba4 <l2534>:
    2ba4:	e18da0be 	strh	sl, [sp, lr]

00002ba8 <l2535>:
    2ba8:	b88d4005 	stmlt	sp, {r0, r2, lr}

00002bac <l2536>:
    2bac:	10c59010 	sbcne	r9, r5, r0, lsl r0

00002bb0 <interrupt_738>:
    2bb0:	60f91008 	rscsvs	r1, r9, r8

00002bb4 <l2538>:
    2bb4:	90d1c00b 	sbcsls	ip, r1, fp

00002bb8 <interrupt_73>:
    2bb8:	ef6885d4 	svc	0x006885d4

00002bbc <l2540>:
    2bbc:	e83d01ac 	ldmda	sp!, {r2, r3, r5, r7, r8}

00002bc0 <l2541>:
    2bc0:	d17b0061 	cmnle	fp, r1, rrx

00002bc4 <interrupt_882>:
    2bc4:	816f5f1a 	clzhi	r5, sl

00002bc8 <l2543>:
    2bc8:	e3a0501a 	mov	r5, #26

00002bcc <l2544>:
    2bcc:	a7dd8005 	ldrbge	r8, [sp, r5]

00002bd0 <interrupt_303>:
    2bd0:	e0414007 	sub	r4, r1, r7

00002bd4 <l2546>:
    2bd4:	e3a0a03a 	mov	sl, #58	; 0x3a

00002bd8 <interrupt_447>:
    2bd8:	e19d70da 	ldrsb	r7, [sp, sl]

00002bdc <l2548>:
    2bdc:	e59fe000 	ldr	lr, [pc]	; 2be4 <l2550>

00002be0 <interrupt_548>:
    2be0:	ea000000 	b	2be8 <l2551>

00002be4 <l2550>:
    2be4:	000fffc4 	.word	0x000fffc4

00002be8 <l2551>:
    2be8:	e14ec096 	swpb	ip, r6, [lr]

00002bec <l2552>:
    2bec:	e3a09010 	mov	r9, #16

00002bf0 <l2553>:
    2bf0:	e19d50f9 	ldrsh	r5, [sp, r9]

00002bf4 <l2554>:
    2bf4:	e0c1c656 	sbc	ip, r1, r6, asr r6

00002bf8 <interrupt_873>:
    2bf8:	e1dd21d6 	ldrsb	r2, [sp, #22]

00002bfc <l2556>:
    2bfc:	e25c99e6 	subs	r9, ip, #3768320	; 0x398000

00002c00 <l2557>:
    2c00:	e1dde3f2 	ldrsh	lr, [sp, #50]	; 0x32

00002c04 <interrupt_736>:
    2c04:	efed9bf2 	svc	0x00ed9bf2

00002c08 <l2559>:
    2c08:	e88d2109 	stm	sp, {r0, r3, r8, sp}

00002c0c <l2560>:
    2c0c:	715d40d8 	ldrsbvc	r4, [sp, #-8]

00002c10 <l2561>:
    2c10:	11e0700b 	mvnne	r7, fp

00002c14 <l2562>:
    2c14:	d1f06062 	mvnsle	r6, r2, rrx

00002c18 <l2563>:
    2c18:	e3a0a010 	mov	sl, #16

00002c1c <l2564>:
    2c1c:	e11d10fa 	ldrsh	r1, [sp, -sl]

00002c20 <interrupt_405>:
    2c20:	929c6327 	addsls	r6, ip, #-1677721600	; 0x9c000000

00002c24 <l2566>:
    2c24:	b5dd6017 	ldrblt	r6, [sp, #23]

00002c28 <l2567>:
    2c28:	20ec446c 	rsccs	r4, ip, ip, ror #8

00002c2c <l2568>:
    2c2c:	e3a0e030 	mov	lr, #48	; 0x30

00002c30 <l2569>:
    2c30:	e68d100e 	str	r1, [sp], lr

00002c34 <l2570>:
    2c34:	215e0005 	cmpcs	lr, r5

00002c38 <l2571>:
    2c38:	e2501d16 	subs	r1, r0, #1408	; 0x580

00002c3c <l2572>:
    2c3c:	e15d41fc 	ldrsh	r4, [sp, #-28]	; 0xffffffe4

00002c40 <l2573>:
    2c40:	80479138 	subhi	r9, r7, r8, lsr r1

00002c44 <l2574>:
    2c44:	e15d52f6 	ldrsh	r5, [sp, #-38]	; 0xffffffda

00002c48 <l2575>:
    2c48:	ef76cba3 	svc	0x0076cba3

00002c4c <interrupt_571>:
    2c4c:	b2f13602 	rscslt	r3, r1, #2097152	; 0x200000

00002c50 <l2577>:
    2c50:	539f363e 	orrspl	r3, pc, #65011712	; 0x3e00000

00002c54 <l2578>:
    2c54:	10ae81ae 	adcne	r8, lr, lr, lsr #3

00002c58 <interrupt_829>:
    2c58:	b08c606b 	addlt	r6, ip, fp, rrx

00002c5c <l2580>:
    2c5c:	e1844005 	orr	r4, r4, r5

00002c60 <l2581>:
    2c60:	e3740a26 	cmn	r4, #155648	; 0x26000

00002c64 <l2582>:
    2c64:	a15d51bc 	ldrhge	r5, [sp, #-28]	; 0xffffffe4

00002c68 <l2583>:
    2c68:	e014b14a 	ands	fp, r4, sl, asr #2

00002c6c <l2584>:
    2c6c:	e3a0700c 	mov	r7, #12

00002c70 <interrupt_876>:
    2c70:	e70df007 	str	pc, [sp, -r7]

00002c74 <l2586>:
    2c74:	000a2e33 	andeq	r2, sl, r3, lsr lr

00002c78 <l2587>:
    2c78:	7a000008 	bvc	2ca0 <l2597>

00002c7c <l2588>:
    2c7c:	91770004 	cmnls	r7, r4

00002c80 <l2589>:
    2c80:	e0d7ca85 	sbcs	ip, r7, r5, lsl #21

00002c84 <l2590>:
    2c84:	e2cf33fe 	sbc	r3, pc, #-134217725	; 0xf8000003

00002c88 <interrupt_50>:
    2c88:	e1510009 	cmp	r1, r9

00002c8c <l2592>:
    2c8c:	e024be72 	eor	fp, r4, r2, ror lr

00002c90 <interrupt_183>:
    2c90:	41530008 	cmpmi	r3, r8

00002c94 <l2594>:
    2c94:	01f07c32 	mvnseq	r7, r2, lsr ip

00002c98 <l2595>:
    2c98:	12acba0d 	adcne	fp, ip, #53248	; 0xd000

00002c9c <l2596>:
    2c9c:	72d3babf 	sbcsvc	fp, r3, #782336	; 0xbf000

00002ca0 <l2597>:
    2ca0:	81de5e19 	bicshi	r5, lr, r9, lsl lr

00002ca4 <l2598>:
    2ca4:	014d13bc 	strheq	r1, [sp, #-60]	; 0xffffffc4

00002ca8 <l2599>:
    2ca8:	c0eb400f 	rscgt	r4, fp, pc

00002cac <interrupt_565>:
    2cac:	ea000001 	b	2cb8 <l2603>

00002cb0 <l2601>:
    2cb0:	00f6cb7c 	rscseq	ip, r6, ip, ror fp

00002cb4 <l2602>:
    2cb4:	e2d6a028 	sbcs	sl, r6, #40	; 0x28

00002cb8 <l2603>:
    2cb8:	c0648004 	rsbgt	r8, r4, r4

00002cbc <l2604>:
    2cbc:	b0540002 	subslt	r0, r4, r2

00002cc0 <l2605>:
    2cc0:	316f9f17 	clzcc	r9, r7

00002cc4 <interrupt_563>:
    2cc4:	ef0a38de 	svc	0x000a38de

00002cc8 <l2607>:
    2cc8:	554db006 	strbpl	fp, [sp, #-6]

00002ccc <l2608>:
    2ccc:	e3b0e0c0 	movs	lr, #192	; 0xc0

00002cd0 <l2609>:
    2cd0:	e3a01028 	mov	r1, #40	; 0x28

00002cd4 <l2610>:
    2cd4:	e60d5001 	str	r5, [sp], -r1

00002cd8 <l2611>:
    2cd8:	380d0004 	stmdacc	sp, {r2}

00002cdc <l2612>:
    2cdc:	01a0b060 	rrxeq	fp, r0

00002ce0 <l2613>:
    2ce0:	e18e1007 	orr	r1, lr, r7

00002ce4 <l2614>:
    2ce4:	1098e712 	addsne	lr, r8, r2, lsl r7

00002ce8 <l2615>:
    2ce8:	11c9300a 	bicne	r3, r9, sl

00002cec <l2616>:
    2cec:	e1530009 	cmp	r3, r9

00002cf0 <l2617>:
    2cf0:	e59f1000 	ldr	r1, [pc]	; 2cf8 <l2619>

00002cf4 <interrupt_353>:
    2cf4:	ea000000 	b	2cfc <interrupt_604>

00002cf8 <l2619>:
    2cf8:	000fffa4 	.word	0x000fffa4

00002cfc <interrupt_604>:
    2cfc:	e1017093 	swp	r7, r3, [r1]

00002d00 <l2621>:
    2d00:	ef807d3c 	svc	0x00807d3c

00002d04 <l2622>:
    2d04:	90db2c6e 	sbcsls	r2, fp, lr, ror #24

00002d08 <interrupt_133>:
    2d08:	c19bb35c 	orrsgt	fp, fp, ip, asr r3

00002d0c <l2624>:
    2d0c:	e82d2000 	stmda	sp!, {sp}

00002d10 <l2625>:
    2d10:	a3530f61 	cmpge	r3, #388	; 0x184

00002d14 <l2626>:
    2d14:	e2dc7c82 	sbcs	r7, ip, #33280	; 0x8200

00002d18 <l2627>:
    2d18:	8a000002 	bhi	2d28 <l2631>

00002d1c <l2628>:
    2d1c:	b16f6f13 	clzlt	r6, r3

00002d20 <l2629>:
    2d20:	e13a0631 	teq	sl, r1, lsr r6

00002d24 <l2630>:
    2d24:	d385ab1d 	orrle	sl, r5, #29696	; 0x7400

00002d28 <l2631>:
    2d28:	62532609 	subsvs	r2, r3, #9437184	; 0x900000

00002d2c <interrupt_900>:
    2d2c:	ef5b8d23 	svc	0x005b8d23

00002d30 <l2633>:
    2d30:	e0d9a9e7 	sbcs	sl, r9, r7, ror #19

00002d34 <l2634>:
    2d34:	e59fa000 	ldr	sl, [pc]	; 2d3c <l2636>

00002d38 <l2635>:
    2d38:	ea000000 	b	2d40 <interrupt_413>

00002d3c <l2636>:
    2d3c:	000fffd8 	.word	0x000fffd8

00002d40 <interrupt_413>:
    2d40:	e10ac097 	swp	ip, r7, [sl]

00002d44 <l2638>:
    2d44:	e16f3f16 	clz	r3, r6

00002d48 <l2639>:
    2d48:	e1885006 	orr	r5, r8, r6

00002d4c <interrupt_802>:
    2d4c:	01f0c005 	mvnseq	ip, r5

00002d50 <interrupt_857>:
    2d50:	d1db7ecf 	bicsle	r7, fp, pc, asr #29

00002d54 <l2642>:
    2d54:	e3a03025 	mov	r3, #37	; 0x25

00002d58 <l2643>:
    2d58:	e19d40d3 	ldrsb	r4, [sp, r3]

00002d5c <l2644>:
    2d5c:	e59f3000 	ldr	r3, [pc]	; 2d64 <l2646>

00002d60 <interrupt_203>:
    2d60:	ea000000 	b	2d68 <l2647>

00002d64 <l2646>:
    2d64:	000fffc4 	.word	0x000fffc4

00002d68 <l2647>:
    2d68:	e143e092 	swpb	lr, r2, [r3]

00002d6c <l2648>:
    2d6c:	efbb3f56 	svc	0x00bb3f56

00002d70 <l2649>:
    2d70:	e16f0f14 	clz	r0, r4

00002d74 <l2650>:
    2d74:	6062b482 	rsbvs	fp, r2, r2, lsl #9

00002d78 <l2651>:
    2d78:	ef041e15 	svc	0x00041e15

00002d7c <l2652>:
    2d7c:	e3f04c93 	mvns	r4, #37632	; 0x9300

00002d80 <l2653>:
    2d80:	50f74987 	rscspl	r4, r7, r7, lsl #19

00002d84 <interrupt_63>:
    2d84:	e1cd32b6 	strh	r3, [sp, #38]	; 0x26

00002d88 <interrupt_486>:
    2d88:	e0fc196e 	rscs	r1, ip, lr, ror #18

00002d8c <l2656>:
    2d8c:	e33a0a73 	teq	sl, #471040	; 0x73000

00002d90 <l2657>:
    2d90:	d1dd40f4 	ldrshle	r4, [sp, #4]

00002d94 <l2658>:
    2d94:	e3a0702f 	mov	r7, #47	; 0x2f

00002d98 <l2659>:
    2d98:	07dd5007 	ldrbeq	r5, [sp, r7]

00002d9c <l2660>:
    2d9c:	e82d0020 	stmda	sp!, {r5}

00002da0 <l2661>:
    2da0:	e3e01902 	mvn	r1, #32768	; 0x8000

00002da4 <l2662>:
    2da4:	20cb7231 	sbccs	r7, fp, r1, lsr r2

00002da8 <interrupt_786>:
    2da8:	e3a08004 	mov	r8, #4

00002dac <l2664>:
    2dac:	e72d0008 	str	r0, [sp, -r8]!

00002db0 <l2665>:
    2db0:	d045b743 	suble	fp, r5, r3, asr #14

00002db4 <l2666>:
    2db4:	a15f0068 	cmpge	pc, r8, rrx

00002db8 <l2667>:
    2db8:	e41d200c 	ldr	r2, [sp], #-12

00002dbc <l2668>:
    2dbc:	ea000006 	b	2ddc <l2676>

00002dc0 <l2669>:
    2dc0:	e2801034 	add	r1, r0, #52	; 0x34

00002dc4 <l2670>:
    2dc4:	e009837e 	and	r8, r9, lr, ror r3

00002dc8 <l2671>:
    2dc8:	93f02c02 	mvnsls	r2, #512	; 0x200

00002dcc <interrupt_474>:
    2dcc:	e31c01dd 	tst	ip, #1073741879	; 0x40000037

00002dd0 <l2673>:
    2dd0:	4153096c 	cmpmi	r3, ip, ror #18

00002dd4 <l2674>:
    2dd4:	e206441e 	and	r4, r6, #503316480	; 0x1e000000

00002dd8 <l2675>:
    2dd8:	ea000000 	b	2de0 <l2677>

00002ddc <l2676>:
    2ddc:	eafffff8 	b	2dc4 <l2670>

00002de0 <l2677>:
    2de0:	e3a01028 	mov	r1, #40	; 0x28

00002de4 <l2678>:
    2de4:	179d8001 	ldrne	r8, [sp, r1]

00002de8 <l2679>:
    2de8:	eaffffff 	b	2dec <l2680>

00002dec <l2680>:
    2dec:	e06b1717 	rsb	r1, fp, r7, lsl r7

00002df0 <l2681>:
    2df0:	effc795d 	svc	0x00fc795d

00002df4 <l2682>:
    2df4:	e3a0604a 	mov	r6, #74	; 0x4a

00002df8 <l2683>:
    2df8:	e19d90f6 	ldrsh	r9, [sp, r6]

00002dfc <interrupt_239>:
    2dfc:	efa5546b 	svc	0x00a5546b

00002e00 <l2685>:
    2e00:	e3a09028 	mov	r9, #40	; 0x28

00002e04 <interrupt_887>:
    2e04:	e79d0009 	ldr	r0, [sp, r9]

00002e08 <interrupt_982>:
    2e08:	e1dd22f8 	ldrsh	r2, [sp, #40]	; 0x28

00002e0c <l2688>:
    2e0c:	e316024e 	tst	r6, #-536870908	; 0xe0000004

00002e10 <l2689>:
    2e10:	81f01660 	mvnshi	r1, r0, ror #12

00002e14 <l2690>:
    2e14:	4150000b 	cmpmi	r0, fp

00002e18 <l2691>:
    2e18:	efb2f2e5 	svc	0x00b2f2e5

00002e1c <interrupt_329>:
    2e1c:	61f0e004 	mvnsvs	lr, r4

00002e20 <l2693>:
    2e20:	e9ade000 	stmib	sp!, {sp, lr, pc}

00002e24 <interrupt_954>:
    2e24:	3a000007 	bcc	2e48 <l2703>

00002e28 <l2695>:
    2e28:	318abf27 	orrcc	fp, sl, r7, lsr #30

00002e2c <l2696>:
    2e2c:	e1790a56 	cmn	r9, r6, asr sl

00002e30 <l2697>:
    2e30:	31ceba49 	biccc	fp, lr, r9, asr #20

00002e34 <l2698>:
    2e34:	e3e05377 	mvn	r5, #-603979775	; 0xdc000001

00002e38 <interrupt_451>:
    2e38:	e0c6778a 	sbc	r7, r6, sl, lsl #15

00002e3c <l2700>:
    2e3c:	e08f3000 	add	r3, pc, r0

00002e40 <l2701>:
    2e40:	90478004 	subls	r8, r7, r4

00002e44 <l2702>:
    2e44:	e04c1009 	sub	r1, ip, r9

00002e48 <l2703>:
    2e48:	e1590064 	cmp	r9, r4, rrx

00002e4c <interrupt_815>:
    2e4c:	da000005 	ble	2e68 <l2711>

00002e50 <interrupt_553>:
    2e50:	e2801074 	add	r1, r0, #116	; 0x74

00002e54 <l2706>:
    2e54:	1046be18 	subne	fp, r6, r8, lsl lr

00002e58 <l2707>:
    2e58:	21520064 	cmpcs	r2, r4, rrx

00002e5c <l2708>:
    2e5c:	60477433 	subvs	r7, r7, r3, lsr r4

00002e60 <l2709>:
    2e60:	916f2f1b 	clzls	r2, fp

00002e64 <l2710>:
    2e64:	ea000000 	b	2e6c <l2712>

00002e68 <l2711>:
    2e68:	eafffff9 	b	2e54 <l2706>

00002e6c <l2712>:
    2e6c:	e5cd7035 	strb	r7, [sp, #53]	; 0x35

00002e70 <l2713>:
    2e70:	e1dd00f6 	ldrsh	r0, [sp, #6]

00002e74 <l2714>:
    2e74:	e9ade000 	stmib	sp!, {sp, lr, pc}

00002e78 <l2715>:
    2e78:	e217573e 	ands	r5, r7, #16252928	; 0xf80000

00002e7c <l2716>:
    2e7c:	eff51f19 	svc	0x00f51f19

00002e80 <l2717>:
    2e80:	ef60d690 	svc	0x0060d690

00002e84 <interrupt_82>:
    2e84:	415b006f 	cmpmi	fp, pc, rrx

00002e88 <l2719>:
    2e88:	e8ad2000 	stmia	sp!, {sp}

00002e8c <l2720>:
    2e8c:	e3a0b00e 	mov	fp, #14

00002e90 <l2721>:
    2e90:	b10d00bb 	strhlt	r0, [sp, -fp]

00002e94 <l2722>:
    2e94:	e138083b 	teq	r8, fp, lsr r8

00002e98 <interrupt_665>:
    2e98:	e3a0a028 	mov	sl, #40	; 0x28

00002e9c <l2724>:
    2e9c:	e19da0fa 	ldrsh	sl, [sp, sl]

00002ea0 <l2725>:
    2ea0:	41a07717 	lslmi	r7, r7, r7

00002ea4 <interrupt_368>:
    2ea4:	ef33bfff 	svc	0x0033bfff

00002ea8 <l2727>:
    2ea8:	e1720434 	cmn	r2, r4, lsr r4

00002eac <interrupt_587>:
    2eac:	e0259061 	eor	r9, r5, r1, rrx

00002eb0 <l2729>:
    2eb0:	91c5bb7b 	bicls	fp, r5, fp, ror fp

00002eb4 <l2730>:
    2eb4:	e59f0000 	ldr	r0, [pc]	; 2ebc <interrupt_261>

00002eb8 <l2731>:
    2eb8:	ea000000 	b	2ec0 <interrupt_524>

00002ebc <interrupt_261>:
    2ebc:	000fffc8 	.word	0x000fffc8

00002ec0 <interrupt_524>:
    2ec0:	e140a097 	swpb	sl, r7, [r0]

00002ec4 <l2734>:
    2ec4:	c1a08573 	rorgt	r8, r3, r5

00002ec8 <l2735>:
    2ec8:	ef8438ca 	svc	0x008438ca

00002ecc <interrupt_803>:
    2ecc:	e3a08010 	mov	r8, #16

00002ed0 <l2737>:
    2ed0:	211db0b8 	ldrhcs	fp, [sp, -r8]

00002ed4 <l2738>:
    2ed4:	efbbabfe 	svc	0x00bbabfe

00002ed8 <l2739>:
    2ed8:	e5cd5012 	strb	r5, [sp, #18]

00002edc <l2740>:
    2edc:	e37e051d 	cmn	lr, #121634816	; 0x7400000

00002ee0 <l2741>:
    2ee0:	e1110a1a 	tst	r1, sl, lsl sl

00002ee4 <l2742>:
    2ee4:	8070e008 	rsbshi	lr, r0, r8

00002ee8 <l2743>:
    2ee8:	716f4f1a 	clzvc	r4, sl

00002eec <interrupt_807>:
    2eec:	e0d71c4c 	sbcs	r1, r7, ip, asr #24

00002ef0 <l2745>:
    2ef0:	a159006f 	cmpge	r9, pc, rrx

00002ef4 <l2746>:
    2ef4:	500017ee 	andpl	r1, r0, lr, ror #15

00002ef8 <l2747>:
    2ef8:	e06a57c3 	rsb	r5, sl, r3, asr #15

00002efc <l2748>:
    2efc:	e3a0701a 	mov	r7, #26

00002f00 <l2749>:
    2f00:	e11d20b7 	ldrh	r2, [sp, -r7]

00002f04 <l2750>:
    2f04:	61cd61b0 	strhvs	r6, [sp, #16]

00002f08 <l2751>:
    2f08:	e3a09010 	mov	r9, #16

00002f0c <l2752>:
    2f0c:	e69d3009 	ldr	r3, [sp], r9

00002f10 <l2753>:
    2f10:	e59fb000 	ldr	fp, [pc]	; 2f18 <l2755>

00002f14 <l2754>:
    2f14:	ea000000 	b	2f1c <l2756>

00002f18 <l2755>:
    2f18:	000fffe0 	.word	0x000fffe0

00002f1c <l2756>:
    2f1c:	e14b709e 	swpb	r7, lr, [fp]

00002f20 <l2757>:
    2f20:	20338e1a 	eorscs	r8, r3, sl, lsl lr

00002f24 <l2758>:
    2f24:	a21fac09 	andsge	sl, pc, #2304	; 0x900

00002f28 <l2759>:
    2f28:	02a3338d 	adceq	r3, r3, #872415234	; 0x34000002

00002f2c <l2760>:
    2f2c:	e00fe000 	and	lr, pc, r0

00002f30 <l2761>:
    2f30:	e24ce2d2 	sub	lr, ip, #536870925	; 0x2000000d

00002f34 <l2762>:
    2f34:	e41dc02c 	ldr	ip, [sp], #-44	; 0x2c

00002f38 <l2763>:
    2f38:	e2bfbe89 	adcs	fp, pc, #2192	; 0x890

00002f3c <l2764>:
    2f3c:	e9bd44d6 	ldmib	sp!, {r1, r2, r4, r6, r7, sl, lr}

00002f40 <interrupt_254>:
    2f40:	e1510406 	cmp	r1, r6, lsl #8

00002f44 <l2766>:
    2f44:	e59f2000 	ldr	r2, [pc]	; 2f4c <l2768>

00002f48 <l2767>:
    2f48:	ea000000 	b	2f50 <l2769>

00002f4c <l2768>:
    2f4c:	000fffbc 	.word	0x000fffbc

00002f50 <l2769>:
    2f50:	c1021090 	swpgt	r1, r0, [r2]

00002f54 <interrupt_210>:
    2f54:	e5bd301c 	ldr	r3, [sp, #28]!

00002f58 <l2771>:
    2f58:	614d60be 	strhvs	r6, [sp, #-14]

00002f5c <l2772>:
    2f5c:	e59f0000 	ldr	r0, [pc]	; 2f64 <l2774>

00002f60 <l2773>:
    2f60:	ea000000 	b	2f68 <l2775>

00002f64 <l2774>:
    2f64:	000fffd8 	.word	0x000fffd8

00002f68 <l2775>:
    2f68:	4140b097 	swpbmi	fp, r7, [r0]

00002f6c <l2776>:
    2f6c:	e59f7000 	ldr	r7, [pc]	; 2f74 <interrupt_549>

00002f70 <l2777>:
    2f70:	ea000000 	b	2f78 <l2779>

00002f74 <interrupt_549>:
    2f74:	000fffc4 	.word	0x000fffc4

00002f78 <l2779>:
    2f78:	31479090 	swpbcc	r9, r0, [r7]

00002f7c <l2780>:
    2f7c:	e54d2006 	strb	r2, [sp, #-6]

00002f80 <l2781>:
    2f80:	e3a09010 	mov	r9, #16

00002f84 <l2782>:
    2f84:	e73d9009 	ldr	r9, [sp, -r9]!

00002f88 <l2783>:
    2f88:	e3a0301c 	mov	r3, #28

00002f8c <l2784>:
    2f8c:	e73d2003 	ldr	r2, [sp, -r3]!

00002f90 <l2785>:
    2f90:	716faf10 	clzvc	sl, r0

00002f94 <l2786>:
    2f94:	e3a0700b 	mov	r7, #11

00002f98 <l2787>:
    2f98:	17ddc007 	ldrbne	ip, [sp, r7]

00002f9c <l2788>:
    2f9c:	815a0065 	cmphi	sl, r5, rrx

00002fa0 <interrupt_905>:
    2fa0:	d1dc0066 	bicsle	r0, ip, r6, rrx

00002fa4 <l2790>:
    2fa4:	d1b0eca8 	lsrsle	lr, r8, #25

00002fa8 <l2791>:
    2fa8:	e16f5f13 	clz	r5, r3

00002fac <l2792>:
    2fac:	e3a06022 	mov	r6, #34	; 0x22

00002fb0 <l2793>:
    2fb0:	019d10d6 	ldrsbeq	r1, [sp, r6]

00002fb4 <l2794>:
    2fb4:	a023c777 	eorge	ip, r3, r7, ror r7

00002fb8 <l2795>:
    2fb8:	e59fb000 	ldr	fp, [pc]	; 2fc0 <l2797>

00002fbc <l2796>:
    2fbc:	ea000000 	b	2fc4 <l2798>

00002fc0 <l2797>:
    2fc0:	000fffd4 	.word	0x000fffd4

00002fc4 <l2798>:
    2fc4:	e10bc092 	swp	ip, r2, [fp]

00002fc8 <l2799>:
    2fc8:	254d2007 	strbcs	r2, [sp, #-7]

00002fcc <l2800>:
    2fcc:	e9ad0c02 	stmib	sp!, {r1, sl, fp}

00002fd0 <l2801>:
    2fd0:	10047005 	andne	r7, r4, r5

00002fd4 <l2802>:
    2fd4:	11510818 	cmpne	r1, r8, lsl r8

00002fd8 <l2803>:
    2fd8:	a54d1002 	strbge	r1, [sp, #-2]

00002fdc <l2804>:
    2fdc:	e5cd5028 	strb	r5, [sp, #40]	; 0x28

00002fe0 <l2805>:
    2fe0:	31190d0f 	tstcc	r9, pc, lsl #26

00002fe4 <interrupt_917>:
    2fe4:	51310923 	teqpl	r1, r3, lsr #18

00002fe8 <l2807>:
    2fe8:	71a04715 	lslvc	r4, r5, r7

00002fec <l2808>:
    2fec:	8a000002 	bhi	2ffc <l2812>

00002ff0 <l2809>:
    2ff0:	e2801063 	add	r1, r0, #99	; 0x63

00002ff4 <l2810>:
    2ff4:	71c39006 	bicvc	r9, r3, r6

00002ff8 <interrupt_28>:
    2ff8:	ea000000 	b	3000 <l2813>

00002ffc <l2812>:
    2ffc:	eafffffc 	b	2ff4 <l2810>

00003000 <l2813>:
    3000:	70c18006 	sbcvc	r8, r1, r6

00003004 <l2814>:
    3004:	efc00f03 	svc	0x00c00f03

00003008 <l2815>:
    3008:	006a9064 	rsbeq	r9, sl, r4, rrx

0000300c <l2816>:
    300c:	e3a0a004 	mov	sl, #4

00003010 <l2817>:
    3010:	e60d000a 	str	r0, [sp], -sl

00003014 <interrupt_695>:
    3014:	e9bd5dff 	ldmib	sp!, {r0, r1, r2, r3, r4, r5, r6, r7, r8, sl, fp, ip, lr}

00003018 <l2819>:
    3018:	81110063 	tsthi	r1, r3, rrx

0000301c <l2820>:
    301c:	e3a0b02a 	mov	fp, #42	; 0x2a

00003020 <l2821>:
    3020:	e10d60bb 	strh	r6, [sp, -fp]

00003024 <l2822>:
    3024:	e137000f 	teq	r7, pc

00003028 <l2823>:
    3028:	016fef19 	clzeq	lr, r9

0000302c <l2824>:
    302c:	41a00063 	rrxmi	r0, r3

00003030 <l2825>:
    3030:	e01f4002 	ands	r4, pc, r2

00003034 <l2826>:
    3034:	e1a00000 	nop			; (mov r0, r0)

00003038 <l2827>:
    3038:	e50d302c 	str	r3, [sp, #-44]	; 0x2c

0000303c <l2828>:
    303c:	e1a00000 	nop			; (mov r0, r0)

00003040 <interrupt_749>:
    3040:	ea000000 	b	3048 <l2831>

00003044 <interrupt_673>:
    3044:	e16f1f16 	clz	r1, r6

00003048 <l2831>:
    3048:	e16f0f16 	clz	r0, r6

0000304c <l2832>:
    304c:	e0cebc0f 	sbc	fp, lr, pc, lsl #24

00003050 <interrupt_497>:
    3050:	e51d6040 	ldr	r6, [sp, #-64]	; 0x40

00003054 <l2834>:
    3054:	815d62bc 	ldrhhi	r6, [sp, #-44]	; 0xffffffd4

00003058 <l2835>:
    3058:	ef7f572c 	svc	0x007f572c

0000305c <l2836>:
    305c:	ea000002 	b	306c <l2840>

00003060 <interrupt_632>:
    3060:	e2801004 	add	r1, r0, #4

00003064 <l2838>:
    3064:	a3b07479 	movsge	r7, #2030043136	; 0x79000000

00003068 <l2839>:
    3068:	ea000000 	b	3070 <l2841>

0000306c <l2840>:
    306c:	eafffffc 	b	3064 <l2838>

00003070 <l2841>:
    3070:	e060c759 	rsb	ip, r0, r9, asr r7

00003074 <l2842>:
    3074:	ef5659c3 	svc	0x005659c3

00003078 <interrupt_449>:
    3078:	ef8f5c86 	svc	0x008f5c86

0000307c <l2844>:
    307c:	215c0282 	cmpcs	ip, r2, lsl #5

00003080 <l2845>:
    3080:	e59f4000 	ldr	r4, [pc]	; 3088 <l2847>

00003084 <l2846>:
    3084:	ea000000 	b	308c <l2848>

00003088 <l2847>:
    3088:	000fffc8 	.word	0x000fffc8

0000308c <l2848>:
    308c:	e104909e 	swp	r9, lr, [r4]

00003090 <l2849>:
    3090:	e1857480 	orr	r7, r5, r0, lsl #9

00003094 <l2850>:
    3094:	e3a04046 	mov	r4, #70	; 0x46

00003098 <l2851>:
    3098:	375db004 	ldrbcc	fp, [sp, -r4]

0000309c <l2852>:
    309c:	91f0c060 	mvnsls	ip, r0, rrx

000030a0 <l2853>:
    30a0:	e13a000f 	teq	sl, pc

000030a4 <interrupt_58>:
    30a4:	e04ae009 	sub	lr, sl, r9

000030a8 <l2855>:
    30a8:	e59f0000 	ldr	r0, [pc]	; 30b0 <l2857>

000030ac <l2856>:
    30ac:	ea000000 	b	30b4 <interrupt_400>

000030b0 <l2857>:
    30b0:	000fffdc 	.word	0x000fffdc

000030b4 <interrupt_400>:
    30b4:	01403092 	swpbeq	r3, r2, [r0]

000030b8 <l2859>:
    30b8:	01350777 	teqeq	r5, r7, ror r7

000030bc <l2860>:
    30bc:	e1f0b06a 	mvns	fp, sl, rrx

000030c0 <l2861>:
    30c0:	205035ee 	subscs	r3, r0, lr, ror #11

000030c4 <l2862>:
    30c4:	61d9b001 	bicsvs	fp, r9, r1

000030c8 <l2863>:
    30c8:	e40dc024 	str	ip, [sp], #-36	; 0x24

000030cc <l2864>:
    30cc:	ef62775a 	svc	0x0062775a

000030d0 <l2865>:
    30d0:	e59fc000 	ldr	ip, [pc]	; 30d8 <l2867>

000030d4 <l2866>:
    30d4:	ea000000 	b	30dc <l2868>

000030d8 <l2867>:
    30d8:	000fffbc 	.word	0x000fffbc

000030dc <l2868>:
    30dc:	b10c8097 	swplt	r8, r7, [ip]

000030e0 <l2869>:
    30e0:	e82d2000 	stmda	sp!, {sp}

000030e4 <interrupt_891>:
    30e4:	e3a0b010 	mov	fp, #16

000030e8 <l2871>:
    30e8:	e7bd400b 	ldr	r4, [sp, fp]!

000030ec <interrupt_23>:
    30ec:	e3a0cd19 	mov	ip, #1600	; 0x640

000030f0 <interrupt_166>:
    30f0:	e3a06030 	mov	r6, #48	; 0x30

000030f4 <l2874>:
    30f4:	011d00d6 	ldrsbeq	r0, [sp, -r6]

000030f8 <l2875>:
    30f8:	e59f1000 	ldr	r1, [pc]	; 3100 <interrupt_18>

000030fc <l2876>:
    30fc:	ea000000 	b	3104 <l2878>

00003100 <interrupt_18>:
    3100:	000fffcc 	.word	0x000fffcc

00003104 <l2878>:
    3104:	e1013090 	swp	r3, r0, [r1]

00003108 <l2879>:
    3108:	e1e07c59 	mvn	r7, r9, asr ip

0000310c <interrupt_789>:
    310c:	b176032b 	cmnlt	r6, fp, lsr #6

00003110 <l2881>:
    3110:	e3a01010 	mov	r1, #16

00003114 <interrupt_856>:
    3114:	b70d9001 	strlt	r9, [sp, -r1]

00003118 <l2883>:
    3118:	e049e35e 	sub	lr, r9, lr, asr r3

0000311c <l2884>:
    311c:	e2b88107 	adcs	r8, r8, #-1073741823	; 0xc0000001

00003120 <l2885>:
    3120:	a03f7005 	eorsge	r7, pc, r5

00003124 <l2886>:
    3124:	e15d22fe 	ldrsh	r2, [sp, #-46]	; 0xffffffd2

00003128 <l2887>:
    3128:	3a000007 	bcc	314c <l2896>

0000312c <l2888>:
    312c:	e22994a7 	eor	r9, r9, #-1493172224	; 0xa7000000

00003130 <l2889>:
    3130:	30a31005 	adccc	r1, r3, r5

00003134 <l2890>:
    3134:	5077106a 	rsbspl	r1, r7, sl, rrx

00003138 <l2891>:
    3138:	b17207c9 	cmnlt	r2, r9, asr #15

0000313c <interrupt_470>:
    313c:	a071506b 	rsbsge	r5, r1, fp, rrx

00003140 <l2893>:
    3140:	81580ac1 	cmphi	r8, r1, asr #21

00003144 <l2894>:
    3144:	a2743a29 	rsbsge	r3, r4, #167936	; 0x29000

00003148 <interrupt_961>:
    3148:	a1550005 	cmpge	r5, r5

0000314c <l2896>:
    314c:	8099b009 	addshi	fp, r9, r9

00003150 <l2897>:
    3150:	30bf6067 	adcscc	r6, pc, r7, rrx

00003154 <l2898>:
    3154:	016f3f1e 	clzeq	r3, lr

00003158 <l2899>:
    3158:	707a0456 	rsbsvc	r0, sl, r6, asr r4

0000315c <interrupt_339>:
    315c:	e59f4000 	ldr	r4, [pc]	; 3164 <l2902>

00003160 <l2901>:
    3160:	ea000000 	b	3168 <l2903>

00003164 <l2902>:
    3164:	000fffdc 	.word	0x000fffdc

00003168 <l2903>:
    3168:	21040098 	swpcs	r0, r8, [r4]

0000316c <l2904>:
    316c:	e3a02018 	mov	r2, #24

00003170 <interrupt_251>:
    3170:	719d10d2 	ldrsbvc	r1, [sp, r2]

00003174 <l2906>:
    3174:	e3a04010 	mov	r4, #16

00003178 <l2907>:
    3178:	e7adb004 	str	fp, [sp, r4]!

0000317c <l2908>:
    317c:	00440572 	subeq	r0, r4, r2, ror r5

00003180 <interrupt_732>:
    3180:	e3a0a022 	mov	sl, #34	; 0x22

00003184 <l2910>:
    3184:	e11db0ba 	ldrh	fp, [sp, -sl]

00003188 <l2911>:
    3188:	12b25032 	adcsne	r5, r2, #50	; 0x32

0000318c <l2912>:
    318c:	e1750314 	cmn	r5, r4, lsl r3

00003190 <l2913>:
    3190:	e15d90d2 	ldrsb	r9, [sp, #-2]

00003194 <l2914>:
    3194:	e0854559 	add	r4, r5, r9, asr r5

00003198 <l2915>:
    3198:	83380091 	teqhi	r8, #145	; 0x91

0000319c <interrupt_986>:
    319c:	215d63d6 	ldrsbcs	r6, [sp, #-54]	; 0xffffffca

000031a0 <l2917>:
    31a0:	efdba7aa 	svc	0x00dba7aa

000031a4 <l2918>:
    31a4:	30379012 	eorscc	r9, r7, r2, lsl r0

000031a8 <l2919>:
    31a8:	015b0008 	cmpeq	fp, r8

000031ac <l2920>:
    31ac:	b15f0000 	cmplt	pc, r0

000031b0 <interrupt_998>:
    31b0:	e59f9000 	ldr	r9, [pc]	; 31b8 <interrupt_268>

000031b4 <interrupt_238>:
    31b4:	ea000000 	b	31bc <interrupt_369>

000031b8 <interrupt_268>:
    31b8:	000fffe4 	.word	0x000fffe4

000031bc <interrupt_369>:
    31bc:	e149a09e 	swpb	sl, lr, [r9]

000031c0 <l2925>:
    31c0:	523e16ab 	eorspl	r1, lr, #179306496	; 0xab00000

000031c4 <l2926>:
    31c4:	e59fa000 	ldr	sl, [pc]	; 31cc <l2928>

000031c8 <interrupt_357>:
    31c8:	ea000000 	b	31d0 <l2929>

000031cc <l2928>:
    31cc:	000fffa4 	.word	0x000fffa4

000031d0 <l2929>:
    31d0:	e14a0093 	swpb	r0, r3, [sl]

000031d4 <l2930>:
    31d4:	e093906b 	adds	r9, r3, fp, rrx

000031d8 <l2931>:
    31d8:	e0771001 	rsbs	r1, r7, r1

000031dc <l2932>:
    31dc:	ca000002 	bgt	31ec <l2936>

000031e0 <l2933>:
    31e0:	e28010cd 	add	r1, r0, #205	; 0xcd

000031e4 <l2934>:
    31e4:	b2417621 	sublt	r7, r1, #34603008	; 0x2100000

000031e8 <l2935>:
    31e8:	ea000000 	b	31f0 <l2937>

000031ec <l2936>:
    31ec:	eafffffc 	b	31e4 <l2934>

000031f0 <l2937>:
    31f0:	e2c6852a 	sbc	r8, r6, #176160768	; 0xa800000

000031f4 <l2938>:
    31f4:	015d91f2 	ldrsheq	r9, [sp, #-18]	; 0xffffffee

000031f8 <l2939>:
    31f8:	da000005 	ble	3214 <l2946>

000031fc <l2940>:
    31fc:	e2801012 	add	r1, r0, #18

00003200 <l2941>:
    3200:	e1993ca6 	orrs	r3, r9, r6, lsr #25

00003204 <l2942>:
    3204:	e0c0ab03 	sbc	sl, r0, r3, lsl #22

00003208 <l2943>:
    3208:	e2fe31b7 	rscs	r3, lr, #-1073741779	; 0xc000002d

0000320c <l2944>:
    320c:	303b000a 	eorscc	r0, fp, sl

00003210 <l2945>:
    3210:	ea000000 	b	3218 <l2947>

00003214 <l2946>:
    3214:	eafffff9 	b	3200 <l2941>

00003218 <l2947>:
    3218:	e91d0e00 	ldmdb	sp, {r9, sl, fp}

0000321c <l2948>:
    321c:	31f06000 	mvnscc	r6, r0

00003220 <l2949>:
    3220:	31140006 	tstcc	r4, r6

00003224 <l2950>:
    3224:	aa000007 	bge	3248 <l2959>

00003228 <l2951>:
    3228:	d11a000c 	tstle	sl, ip

0000322c <l2952>:
    322c:	d11c0de4 	tstle	ip, r4, ror #27

00003230 <l2953>:
    3230:	e150011c 	cmp	r0, ip, lsl r1

00003234 <interrupt_184>:
    3234:	e0496008 	sub	r6, r9, r8

00003238 <l2955>:
    3238:	31590067 	cmpcc	r9, r7, rrx

0000323c <l2956>:
    323c:	d1b0500f 	movsle	r5, pc

00003240 <l2957>:
    3240:	c04cb00a 	subgt	fp, ip, sl

00003244 <l2958>:
    3244:	e0b9813c 	adcs	r8, r9, ip, lsr r1

00003248 <l2959>:
    3248:	11100c18 	tstne	r0, r8, lsl ip

0000324c <interrupt_442>:
    324c:	ef2aafae 	svc	0x002aafae

00003250 <l2961>:
    3250:	e1f03066 	mvns	r3, r6, rrx

00003254 <l2962>:
    3254:	e0ef486f 	rsc	r4, pc, pc, ror #16

00003258 <l2963>:
    3258:	e1730e05 	cmn	r3, r5, lsl #28

0000325c <interrupt_144>:
    325c:	e0012039 	and	r2, r1, r9, lsr r0

00003260 <l2965>:
    3260:	30893c71 	addcc	r3, r9, r1, ror ip

00003264 <interrupt_19>:
    3264:	e17e0938 	cmn	lr, r8, lsr r9

00003268 <l2967>:
    3268:	554da03a 	strbpl	sl, [sp, #-58]	; 0x3a

0000326c <l2968>:
    326c:	204c1002 	subcs	r1, ip, r2

00003270 <l2969>:
    3270:	913e0057 	teqls	lr, r7, asr r0

00003274 <l2970>:
    3274:	91330063 	teqls	r3, r3, rrx

00003278 <interrupt_556>:
    3278:	11540830 	cmpne	r4, r0, lsr r8

0000327c <l2972>:
    327c:	61b0e003 	movsvs	lr, r3

00003280 <l2973>:
    3280:	ea000006 	b	32a0 <l2981>

00003284 <l2974>:
    3284:	e280105f 	add	r1, r0, #95	; 0x5f

00003288 <interrupt_550>:
    3288:	e18a4307 	orr	r4, sl, r7, lsl #6

0000328c <l2976>:
    328c:	e1d5b854 	bics	fp, r5, r4, asr r8

00003290 <l2977>:
    3290:	71d57d2e 	bicsvc	r7, r5, lr, lsr #26

00003294 <interrupt_677>:
    3294:	d04aac4b 	suble	sl, sl, fp, asr #24

00003298 <l2979>:
    3298:	43b026e6 	movsmi	r2, #241172480	; 0xe600000

0000329c <l2980>:
    329c:	ea000000 	b	32a4 <l2982>

000032a0 <l2981>:
    32a0:	eafffff8 	b	3288 <interrupt_550>

000032a4 <l2982>:
    32a4:	ef5f7b7e 	svc	0x005f7b7e

000032a8 <l2983>:
    32a8:	e1a07ca3 	lsr	r7, r3, #25

000032ac <l2984>:
    32ac:	e24490c2 	sub	r9, r4, #194	; 0xc2

000032b0 <l2985>:
    32b0:	e16f1f17 	clz	r1, r7

000032b4 <interrupt_744>:
    32b4:	e49d7004 	pop	{r7}		; (ldr r7, [sp], #4)

000032b8 <interrupt_500>:
    32b8:	e41db040 	ldr	fp, [sp], #-64	; 0x40

000032bc <l2988>:
    32bc:	711c0062 	tstvc	ip, r2, rrx

000032c0 <l2989>:
    32c0:	11cd41be 	strhne	r4, [sp, #30]

000032c4 <interrupt_774>:
    32c4:	41100068 	tstmi	r0, r8, rrx

000032c8 <l2991>:
    32c8:	b213a835 	andslt	sl, r3, #3473408	; 0x350000

000032cc <l2992>:
    32cc:	e3a07008 	mov	r7, #8

000032d0 <l2993>:
    32d0:	b19d30f7 	ldrshlt	r3, [sp, r7]

000032d4 <l2994>:
    32d4:	e3a0b03a 	mov	fp, #58	; 0x3a

000032d8 <interrupt_921>:
    32d8:	819d40fb 	ldrshhi	r4, [sp, fp]

000032dc <l2996>:
    32dc:	e2466dae 	sub	r6, r6, #11136	; 0x2b80

000032e0 <l2997>:
    32e0:	e3a06000 	mov	r6, #0

000032e4 <l2998>:
    32e4:	318d00b6 	strhcc	r0, [sp, r6]

000032e8 <interrupt_39>:
    32e8:	ea000002 	b	32f8 <l3003>

000032ec <interrupt_250>:
    32ec:	e280103c 	add	r1, r0, #60	; 0x3c

000032f0 <l3001>:
    32f0:	73d0b156 	bicsvc	fp, r0, #-2147483627	; 0x80000015

000032f4 <l3002>:
    32f4:	ea000000 	b	32fc <interrupt_962>

000032f8 <l3003>:
    32f8:	eafffffc 	b	32f0 <l3001>

000032fc <interrupt_962>:
    32fc:	51b0b006 	movspl	fp, r6

00003300 <l3005>:
    3300:	e3a07004 	mov	r7, #4

00003304 <l3006>:
    3304:	019d50d7 	ldrsbeq	r5, [sp, r7]

00003308 <l3007>:
    3308:	03da1803 	bicseq	r1, sl, #196608	; 0x30000

0000330c <l3008>:
    330c:	80432243 	subhi	r2, r3, r3, asr #4

00003310 <l3009>:
    3310:	e3a04028 	mov	r4, #40	; 0x28

00003314 <l3010>:
    3314:	919d20b4 	ldrhls	r2, [sp, r4]

00003318 <interrupt_966>:
    3318:	e3a05020 	mov	r5, #32

0000331c <l3012>:
    331c:	419d90f5 	ldrshmi	r9, [sp, r5]

00003320 <l3013>:
    3320:	e8bd1fa1 	pop	{r0, r5, r7, r8, r9, sl, fp, ip}

00003324 <l3014>:
    3324:	13995d11 	orrsne	r5, r9, #1088	; 0x440

00003328 <l3015>:
    3328:	ef1d37bb 	svc	0x001d37bb

0000332c <l3016>:
    332c:	8a000001 	bhi	3338 <l3019>

00003330 <interrupt_671>:
    3330:	e05ab067 	subs	fp, sl, r7, rrx

00003334 <l3018>:
    3334:	e1f0b70c 	mvns	fp, ip, lsl #14

00003338 <l3019>:
    3338:	e1b00741 	asrs	r0, r1, #14

0000333c <l3020>:
    333c:	7112000f 	tstvc	r2, pc

00003340 <l3021>:
    3340:	e1d0a06f 	bics	sl, r0, pc, rrx

00003344 <l3022>:
    3344:	e59f6000 	ldr	r6, [pc]	; 334c <l3024>

00003348 <l3023>:
    3348:	ea000000 	b	3350 <l3025>

0000334c <l3024>:
    334c:	000fffe8 	.word	0x000fffe8

00003350 <l3025>:
    3350:	e146e09a 	swpb	lr, sl, [r6]

00003354 <l3026>:
    3354:	e5ad7018 	str	r7, [sp, #24]!

00003358 <l3027>:
    3358:	e59f5000 	ldr	r5, [pc]	; 3360 <l3029>

0000335c <l3028>:
    335c:	ea000000 	b	3364 <interrupt_457>

00003360 <l3029>:
    3360:	000fffcc 	.word	0x000fffcc

00003364 <interrupt_457>:
    3364:	61459098 	swpbvs	r9, r8, [r5]

00003368 <l3031>:
    3368:	efac0650 	svc	0x00ac0650

0000336c <l3032>:
    336c:	e0514b38 	subs	r4, r1, r8, lsr fp

00003370 <l3033>:
    3370:	e0351f01 	eors	r1, r5, r1, lsl #30

00003374 <l3034>:
    3374:	e3c689e6 	bic	r8, r6, #3768320	; 0x398000

00003378 <l3035>:
    3378:	e1180834 	tst	r8, r4, lsr r8

0000337c <l3036>:
    337c:	616f8f18 	clzvs	r8, r8

00003380 <l3037>:
    3380:	71340851 	teqvc	r4, r1, asr r8

00003384 <l3038>:
    3384:	e8ad0100 	stmia	sp!, {r8}

00003388 <l3039>:
    3388:	e0d79b74 	sbcs	r9, r7, r4, ror fp

0000338c <l3040>:
    338c:	e15d20d7 	ldrsb	r2, [sp, #-7]

00003390 <l3041>:
    3390:	e13c0f4c 	teq	ip, ip, asr #30

00003394 <interrupt_949>:
    3394:	b3370a1d 	teqlt	r7, #118784	; 0x1d000

00003398 <interrupt_162>:
    3398:	ef858c54 	svc	0x00858c54

0000339c <l3044>:
    339c:	502f158c 	eorpl	r1, pc, ip, lsl #11

000033a0 <l3045>:
    33a0:	439b8e23 	orrsmi	r8, fp, #560	; 0x230

000033a4 <l3046>:
    33a4:	41140007 	tstmi	r4, r7

000033a8 <l3047>:
    33a8:	4072b004 	rsbsmi	fp, r2, r4

000033ac <l3048>:
    33ac:	814dc0be 	strhhi	ip, [sp, #-14]

000033b0 <interrupt_508>:
    33b0:	4244061a 	submi	r0, r4, #27262976	; 0x1a00000

000033b4 <l3050>:
    33b4:	efccf67c 	svc	0x00ccf67c

000033b8 <l3051>:
    33b8:	efc04d6a 	svc	0x00c04d6a

000033bc <l3052>:
    33bc:	aa000004 	bge	33d4 <l3058>

000033c0 <interrupt_427>:
    33c0:	e088233e 	add	r2, r8, lr, lsr r3

000033c4 <l3054>:
    33c4:	b262e63e 	rsblt	lr, r2, #65011712	; 0x3e00000

000033c8 <l3055>:
    33c8:	c09b0c77 	addsgt	r0, fp, r7, ror ip

000033cc <interrupt_696>:
    33cc:	e289843a 	add	r8, r9, #973078528	; 0x3a000000

000033d0 <l3057>:
    33d0:	a16f7f1e 	clzge	r7, lr

000033d4 <l3058>:
    33d4:	e1a09009 	mov	r9, r9

000033d8 <l3059>:
    33d8:	e3a0303a 	mov	r3, #58	; 0x3a

000033dc <interrupt_699>:
    33dc:	a11dc0f3 	ldrshge	ip, [sp, -r3]

000033e0 <l3061>:
    33e0:	e83d4295 	ldmda	sp!, {r0, r2, r4, r7, r9, lr}

000033e4 <l3062>:
    33e4:	e05ce060 	subs	lr, ip, r0, rrx

000033e8 <l3063>:
    33e8:	e0cb258b 	sbc	r2, fp, fp, lsl #11

000033ec <l3064>:
    33ec:	53e02712 	mvnpl	r2, #4718592	; 0x480000

000033f0 <l3065>:
    33f0:	e16fef10 	clz	lr, r0

000033f4 <l3066>:
    33f4:	e1c1c1aa 	bic	ip, r1, sl, lsr #3

000033f8 <l3067>:
    33f8:	00b41065 	adcseq	r1, r4, r5, rrx

000033fc <interrupt_277>:
    33fc:	50d89060 	sbcspl	r9, r8, r0, rrx

00003400 <l3069>:
    3400:	ef366833 	svc	0x00366833

00003404 <l3070>:
    3404:	e59fc000 	ldr	ip, [pc]	; 340c <l3072>

00003408 <l3071>:
    3408:	ea000000 	b	3410 <interrupt_506>

0000340c <l3072>:
    340c:	000fffc0 	.word	0x000fffc0

00003410 <interrupt_506>:
    3410:	e14c5096 	swpb	r5, r6, [ip]

00003414 <l3074>:
    3414:	e05a5004 	subs	r5, sl, r4

00003418 <l3075>:
    3418:	e1790631 	cmn	r9, r1, lsr r6

0000341c <l3076>:
    341c:	e35a0046 	cmp	sl, #70	; 0x46

00003420 <l3077>:
    3420:	e3a00016 	mov	r0, #22

00003424 <l3078>:
    3424:	519d10b0 	ldrhpl	r1, [sp, r0]

00003428 <l3079>:
    3428:	ef1db507 	svc	0x001db507

0000342c <l3080>:
    342c:	e59fe000 	ldr	lr, [pc]	; 3434 <l3082>

00003430 <interrupt_197>:
    3430:	ea000000 	b	3438 <interrupt_619>

00003434 <l3082>:
    3434:	000fffbc 	.word	0x000fffbc

00003438 <interrupt_619>:
    3438:	814e9098 	swpbhi	r9, r8, [lr]

0000343c <l3084>:
    343c:	e059a06a 	subs	sl, r9, sl, rrx

00003440 <l3085>:
    3440:	125b8c21 	subsne	r8, fp, #8448	; 0x2100

00003444 <interrupt_111>:
    3444:	e59f2000 	ldr	r2, [pc]	; 344c <l3088>

00003448 <l3087>:
    3448:	ea000000 	b	3450 <l3089>

0000344c <l3088>:
    344c:	000fffe4 	.word	0x000fffe4

00003450 <l3089>:
    3450:	61023091 	swpvs	r3, r1, [r2]

00003454 <l3090>:
    3454:	e59f2000 	ldr	r2, [pc]	; 345c <interrupt_569>

00003458 <l3091>:
    3458:	ea000000 	b	3460 <l3093>

0000345c <interrupt_569>:
    345c:	000fffcc 	.word	0x000fffcc

00003460 <l3093>:
    3460:	d1423091 	swpble	r3, r1, [r2]

00003464 <l3094>:
    3464:	e3a0000c 	mov	r0, #12

00003468 <l3095>:
    3468:	e60d6000 	str	r6, [sp], -r0

0000346c <interrupt_382>:
    346c:	11cde2b2 	strhne	lr, [sp, #34]	; 0x22

00003470 <interrupt_326>:
    3470:	e033a4cc 	eors	sl, r3, ip, asr #9

00003474 <l3098>:
    3474:	e01eb202 	ands	fp, lr, r2, lsl #4

00003478 <interrupt_340>:
    3478:	ef26f7ea 	svc	0x0026f7ea

0000347c <l3100>:
    347c:	a25e943b 	subsge	r9, lr, #989855744	; 0x3b000000

00003480 <interrupt_390>:
    3480:	e3a0600e 	mov	r6, #14

00003484 <l3102>:
    3484:	d19d00f6 	ldrshle	r0, [sp, r6]

00003488 <l3103>:
    3488:	3115006a 	tstcc	r5, sl, rrx

0000348c <l3104>:
    348c:	90e9306a 	rscls	r3, r9, sl, rrx

00003490 <interrupt_26>:
    3490:	ef8dd4c1 	svc	0x008dd4c1

00003494 <interrupt_953>:
    3494:	93da53c7 	bicsls	r5, sl, #469762051	; 0x1c000003

00003498 <l3107>:
    3498:	1a000003 	bne	34ac <l3112>

0000349c <l3108>:
    349c:	e2801084 	add	r1, r0, #132	; 0x84

000034a0 <interrupt_59>:
    34a0:	e02b9069 	eor	r9, fp, r9, rrx

000034a4 <l3110>:
    34a4:	500a2956 	andpl	r2, sl, r6, asr r9

000034a8 <l3111>:
    34a8:	ea000000 	b	34b0 <interrupt_494>

000034ac <l3112>:
    34ac:	eafffffb 	b	34a0 <interrupt_59>

000034b0 <interrupt_494>:
    34b0:	e0bc2133 	adcs	r2, ip, r3, lsr r1

000034b4 <l3114>:
    34b4:	a13b000f 	teqge	fp, pc

000034b8 <l3115>:
    34b8:	71dd20da 	ldrsbvc	r2, [sp, #10]

000034bc <l3116>:
    34bc:	ea000004 	b	34d4 <l3122>

000034c0 <interrupt_987>:
    34c0:	e28010ca 	add	r1, r0, #202	; 0xca

000034c4 <l3118>:
    34c4:	e0cc500f 	sbc	r5, ip, pc

000034c8 <interrupt_217>:
    34c8:	d2d805b1 	sbcsle	r0, r8, #742391808	; 0x2c400000

000034cc <interrupt_207>:
    34cc:	d044881e 	suble	r8, r4, lr, lsl r8

000034d0 <l3121>:
    34d0:	ea000000 	b	34d8 <interrupt_820>

000034d4 <l3122>:
    34d4:	eafffffa 	b	34c4 <l3118>

000034d8 <interrupt_820>:
    34d8:	b1530ba6 	cmplt	r3, r6, lsr #23

000034dc <l3124>:
    34dc:	e59f5000 	ldr	r5, [pc]	; 34e4 <l3126>

000034e0 <l3125>:
    34e0:	ea000000 	b	34e8 <l3127>

000034e4 <l3126>:
    34e4:	000fffb8 	.word	0x000fffb8

000034e8 <l3127>:
    34e8:	01450094 	swpbeq	r0, r4, [r5]

000034ec <l3128>:
    34ec:	61dd12d5 	ldrsbvs	r1, [sp, #37]	; 0x25

000034f0 <l3129>:
    34f0:	51848004 	orrpl	r8, r4, r4

000034f4 <l3130>:
    34f4:	e5dd001f 	ldrb	r0, [sp, #31]

000034f8 <interrupt_237>:
    34f8:	e3a0c00f 	mov	ip, #15

000034fc <interrupt_325>:
    34fc:	e19da0dc 	ldrsb	sl, [sp, ip]

00003500 <l3133>:
    3500:	e59fe000 	ldr	lr, [pc]	; 3508 <l3135>

00003504 <l3134>:
    3504:	ea000000 	b	350c <l3136>

00003508 <l3135>:
    3508:	000fffe0 	.word	0x000fffe0

0000350c <l3136>:
    350c:	010e4096 	swpeq	r4, r6, [lr]

00003510 <l3137>:
    3510:	e1d18b42 	bics	r8, r1, r2, asr #22

00003514 <l3138>:
    3514:	81dc4ec1 	bicshi	r4, ip, r1, asr #29

00003518 <l3139>:
    3518:	e3a08014 	mov	r8, #20

0000351c <l3140>:
    351c:	574de008 	strbpl	lr, [sp, -r8]

00003520 <l3141>:
    3520:	e59f9000 	ldr	r9, [pc]	; 3528 <l3143>

00003524 <l3142>:
    3524:	ea000000 	b	352c <l3144>

00003528 <l3143>:
    3528:	000fffa8 	.word	0x000fffa8

0000352c <l3144>:
    352c:	b109a096 	swplt	sl, r6, [r9]

00003530 <l3145>:
    3530:	033a02f5 	teqeq	sl, #1342177295	; 0x5000000f

00003534 <interrupt_823>:
    3534:	e3a01028 	mov	r1, #40	; 0x28

00003538 <l3147>:
    3538:	719da0f1 	ldrshvc	sl, [sp, r1]

0000353c <l3148>:
    353c:	e1a03b3c 	lsr	r3, ip, fp

00003540 <l3149>:
    3540:	e92d1002 	push	{r1, ip}

00003544 <interrupt_973>:
    3544:	e8ad9f7b 	stmia	sp!, {r0, r1, r3, r4, r5, r6, r8, r9, sl, fp, ip, pc}

00003548 <l3151>:
    3548:	680d4b0d 	stmdavs	sp, {r0, r2, r3, r8, r9, fp, lr}

0000354c <l3152>:
    354c:	108a60ce 	addne	r6, sl, lr, asr #1

00003550 <l3153>:
    3550:	e3a09029 	mov	r9, #41	; 0x29

00003554 <l3154>:
    3554:	c11d70d9 	ldrsbgt	r7, [sp, -r9]

00003558 <l3155>:
    3558:	e53dc034 	ldr	ip, [sp, #-52]!	; 0x34

0000355c <interrupt_591>:
    355c:	90a2100b 	adcls	r1, r2, fp

00003560 <l3157>:
    3560:	917c0004 	cmnls	ip, r4

00003564 <l3158>:
    3564:	e8ad0081 	stmia	sp!, {r0, r7}

00003568 <l3159>:
    3568:	e3150f73 	tst	r5, #460	; 0x1cc

0000356c <l3160>:
    356c:	e89d5bfe 	ldm	sp, {r1, r2, r3, r4, r5, r6, r7, r8, r9, fp, ip, lr}

00003570 <l3161>:
    3570:	d04c7004 	suble	r7, ip, r4

00003574 <l3162>:
    3574:	efcb80a4 	svc	0x00cb80a4

00003578 <l3163>:
    3578:	e3a0b018 	mov	fp, #24

0000357c <l3164>:
    357c:	811d70bb 	ldrhhi	r7, [sp, -fp]

00003580 <interrupt_193>:
    3580:	ea000007 	b	35a4 <l3174>

00003584 <l3166>:
    3584:	10aeb3e9 	adcne	fp, lr, r9, ror #7

00003588 <l3167>:
    3588:	e1150e45 	tst	r5, r5, asr #28

0000358c <l3168>:
    358c:	e1b04002 	movs	r4, r2

00003590 <l3169>:
    3590:	e1580008 	cmp	r8, r8

00003594 <l3170>:
    3594:	920a6813 	andls	r6, sl, #1245184	; 0x130000

00003598 <l3171>:
    3598:	e06207e7 	rsb	r0, r2, r7, ror #15

0000359c <l3172>:
    359c:	e0b569c2 	adcs	r6, r5, r2, asr #19

000035a0 <l3173>:
    35a0:	e2267417 	eor	r7, r6, #385875968	; 0x17000000

000035a4 <l3174>:
    35a4:	901b0009 	andsls	r0, fp, r9

000035a8 <interrupt_377>:
    35a8:	ef3f36e9 	svc	0x003f36e9

000035ac <l3176>:
    35ac:	50856c4c 	addpl	r6, r5, ip, asr #24

000035b0 <l3177>:
    35b0:	e2be2091 	adcs	r2, lr, #145	; 0x91

000035b4 <l3178>:
    35b4:	e3a04010 	mov	r4, #16

000035b8 <l3179>:
    35b8:	e11d70f4 	ldrsh	r7, [sp, -r4]

000035bc <l3180>:
    35bc:	e3a0200c 	mov	r2, #12

000035c0 <interrupt_279>:
    35c0:	e19d30f2 	ldrsh	r3, [sp, r2]

000035c4 <l3182>:
    35c4:	e2b02032 	adcs	r2, r0, #50	; 0x32

000035c8 <l3183>:
    35c8:	e16f9f1b 	clz	r9, fp

000035cc <interrupt_463>:
    35cc:	c0953d0c 	addsgt	r3, r5, ip, lsl #26

000035d0 <l3185>:
    35d0:	e1390004 	teq	r9, r4

000035d4 <l3186>:
    35d4:	e3a0a024 	mov	sl, #36	; 0x24

000035d8 <l3187>:
    35d8:	e19da0ba 	ldrh	sl, [sp, sl]

000035dc <interrupt_196>:
    35dc:	735f02b5 	cmpvc	pc, #1342177291	; 0x5000000b

000035e0 <l3189>:
    35e0:	e15de0b8 	ldrh	lr, [sp, #-8]

000035e4 <l3190>:
    35e4:	ef794ace 	svc	0x00794ace

000035e8 <l3191>:
    35e8:	a151025e 	cmpge	r1, lr, asr r2

000035ec <l3192>:
    35ec:	c072400a 	rsbsgt	r4, r2, sl

000035f0 <l3193>:
    35f0:	e3a07007 	mov	r7, #7

000035f4 <l3194>:
    35f4:	37cd7007 	strbcc	r7, [sp, r7]

000035f8 <interrupt_177>:
    35f8:	21750436 	cmncs	r5, r6, lsr r4

000035fc <interrupt_404>:
    35fc:	e15d00b8 	ldrh	r0, [sp, #-8]

00003600 <l3197>:
    3600:	ea000005 	b	361c <l3204>

00003604 <l3198>:
    3604:	e28010b4 	add	r1, r0, #180	; 0xb4

00003608 <l3199>:
    3608:	e0665062 	rsb	r5, r6, r2, rrx

0000360c <interrupt_48>:
    360c:	00051101 	andeq	r1, r5, r1, lsl #2

00003610 <interrupt_860>:
    3610:	43740a23 	cmnmi	r4, #143360	; 0x23000

00003614 <l3202>:
    3614:	c1b06258 	asrsgt	r6, r8, r2

00003618 <l3203>:
    3618:	ea000000 	b	3620 <l3205>

0000361c <l3204>:
    361c:	eafffff9 	b	3608 <l3199>

00003620 <l3205>:
    3620:	91f05363 	mvnsls	r5, r3, ror #6

00003624 <interrupt_215>:
    3624:	ef0227af 	svc	0x000227af

00003628 <l3207>:
    3628:	c075a006 	rsbsgt	sl, r5, r6

0000362c <interrupt_1>:
    362c:	135301d5 	cmpne	r3, #1073741877	; 0x40000035

00003630 <l3209>:
    3630:	b3f06a66 	mvnslt	r6, #417792	; 0x66000

00003634 <l3210>:
    3634:	e1876f27 	orr	r6, r7, r7, lsr #30

00003638 <l3211>:
    3638:	e1dd11f6 	ldrsh	r1, [sp, #22]

0000363c <interrupt_804>:
    363c:	81740ba3 	cmnhi	r4, r3, lsr #23

00003640 <l3213>:
    3640:	189d5004 	ldmne	sp, {r2, ip, lr}

00003644 <l3214>:
    3644:	a075c370 	rsbsge	ip, r5, r0, ror r3

00003648 <l3215>:
    3648:	a15de0fc 	ldrshge	lr, [sp, #-12]

0000364c <l3216>:
    364c:	e59fa000 	ldr	sl, [pc]	; 3654 <l3218>

00003650 <interrupt_783>:
    3650:	ea000000 	b	3658 <l3219>

00003654 <l3218>:
    3654:	000fffac 	.word	0x000fffac

00003658 <l3219>:
    3658:	e14a4096 	swpb	r4, r6, [sl]

0000365c <l3220>:
    365c:	81ce000b 	bichi	r0, lr, fp

00003660 <l3221>:
    3660:	5000475a 	andpl	r4, r0, sl, asr r7

00003664 <l3222>:
    3664:	e3a0802c 	mov	r8, #44	; 0x2c

00003668 <l3223>:
    3668:	e19d60f8 	ldrsh	r6, [sp, r8]

0000366c <l3224>:
    366c:	80007000 	andhi	r7, r0, r0

00003670 <l3225>:
    3670:	533a0b1a 	teqpl	sl, #26624	; 0x6800

00003674 <l3226>:
    3674:	e3a09014 	mov	r9, #20

00003678 <l3227>:
    3678:	e79dc009 	ldr	ip, [sp, r9]

0000367c <l3228>:
    367c:	e9ad926e 	stmib	sp!, {r1, r2, r3, r5, r6, r9, ip, pc}

00003680 <l3229>:
    3680:	4a000004 	bmi	3698 <l3235>

00003684 <l3230>:
    3684:	e28010d2 	add	r1, r0, #210	; 0xd2

00003688 <l3231>:
    3688:	e1ca7001 	bic	r7, sl, r1

0000368c <l3232>:
    368c:	e0c00064 	sbc	r0, r0, r4, rrx

00003690 <l3233>:
    3690:	11170005 	tstne	r7, r5

00003694 <l3234>:
    3694:	ea000000 	b	369c <l3236>

00003698 <l3235>:
    3698:	eafffffa 	b	3688 <l3231>

0000369c <l3236>:
    369c:	e3a0301c 	mov	r3, #28

000036a0 <l3237>:
    36a0:	110d10b3 	strhne	r1, [sp, -r3]

000036a4 <l3238>:
    36a4:	e9bd0140 	ldmib	sp!, {r6, r8}

000036a8 <l3239>:
    36a8:	e1e0825b 	mvn	r8, fp, asr r2

000036ac <l3240>:
    36ac:	e0e75a58 	rsc	r5, r7, r8, asr sl

000036b0 <interrupt_230>:
    36b0:	efb5c720 	svc	0x00b5c720

000036b4 <l3242>:
    36b4:	e2b226ab 	adcs	r2, r2, #179306496	; 0xab00000

000036b8 <l3243>:
    36b8:	31a0990a 	lslcc	r9, sl, #18

000036bc <l3244>:
    36bc:	7a000000 	bvc	36c4 <l3246>

000036c0 <l3245>:
    36c0:	803f3065 	eorshi	r3, pc, r5, rrx

000036c4 <l3246>:
    36c4:	80165005 	andshi	r5, r6, r5

000036c8 <l3247>:
    36c8:	e59f1000 	ldr	r1, [pc]	; 36d0 <l3249>

000036cc <l3248>:
    36cc:	ea000000 	b	36d4 <l3250>

000036d0 <l3249>:
    36d0:	000fffc0 	.word	0x000fffc0

000036d4 <l3250>:
    36d4:	21014098 	swpcs	r4, r8, [r1]

000036d8 <l3251>:
    36d8:	90496000 	subls	r6, r9, r0

000036dc <l3252>:
    36dc:	eff823c7 	svc	0x00f823c7

000036e0 <interrupt_223>:
    36e0:	e15d71d7 	ldrsb	r7, [sp, #-23]	; 0xffffffe9

000036e4 <l3254>:
    36e4:	e59f1000 	ldr	r1, [pc]	; 36ec <l3256>

000036e8 <interrupt_77>:
    36e8:	ea000000 	b	36f0 <l3257>

000036ec <l3256>:
    36ec:	000fffc0 	.word	0x000fffc0

000036f0 <l3257>:
    36f0:	e1014098 	swp	r4, r8, [r1]

000036f4 <l3258>:
    36f4:	e3a0a038 	mov	sl, #56	; 0x38

000036f8 <l3259>:
    36f8:	e70dc00a 	str	ip, [sp, -sl]

000036fc <l3260>:
    36fc:	ea000002 	b	370c <l3264>

00003700 <l3261>:
    3700:	e2801080 	add	r1, r0, #128	; 0x80

00003704 <interrupt_245>:
    3704:	617308a1 	cmnvs	r3, r1, lsr #17

00003708 <l3263>:
    3708:	ea000000 	b	3710 <l3265>

0000370c <l3264>:
    370c:	eafffffc 	b	3704 <interrupt_245>

00003710 <l3265>:
    3710:	e1999005 	orrs	r9, r9, r5

00003714 <l3266>:
    3714:	e59f1000 	ldr	r1, [pc]	; 371c <l3268>

00003718 <l3267>:
    3718:	ea000000 	b	3720 <interrupt_854>

0000371c <l3268>:
    371c:	000fffcc 	.word	0x000fffcc

00003720 <interrupt_854>:
    3720:	e141c097 	swpb	ip, r7, [r1]

00003724 <l3270>:
    3724:	d2742b03 	rsbsle	r2, r4, #3072	; 0xc00

00003728 <l3271>:
    3728:	208e765e 	addcs	r7, lr, lr, asr r6

0000372c <l3272>:
    372c:	e047506b 	sub	r5, r7, fp, rrx

00003730 <l3273>:
    3730:	e82d4212 	stmda	sp!, {r1, r4, r9, lr}

00003734 <l3274>:
    3734:	53a07206 	movpl	r7, #1610612736	; 0x60000000

00003738 <l3275>:
    3738:	202e7ccc 	eorcs	r7, lr, ip, asr #25

0000373c <l3276>:
    373c:	e3330c9a 	teq	r3, #39424	; 0x9a00

00003740 <l3277>:
    3740:	e17f0920 	cmn	pc, r0, lsr #18

00003744 <l3278>:
    3744:	e1b00334 	lsrs	r0, r4, r3

00003748 <l3279>:
    3748:	e3a08009 	mov	r8, #9

0000374c <interrupt_919>:
    374c:	37dd0008 	ldrbcc	r0, [sp, r8]

00003750 <l3281>:
    3750:	b2563846 	subslt	r3, r6, #4587520	; 0x460000

00003754 <l3282>:
    3754:	e1a05c5c 	asr	r5, ip, ip

00003758 <interrupt_152>:
    3758:	12c66d27 	sbcne	r6, r6, #2496	; 0x9c0

0000375c <l3284>:
    375c:	b55d5025 	ldrblt	r5, [sp, #-37]	; 0x25

00003760 <l3285>:
    3760:	e3a0802c 	mov	r8, #44	; 0x2c

00003764 <l3286>:
    3764:	e75d8008 	ldrb	r8, [sp, -r8]

00003768 <l3287>:
    3768:	e0999136 	adds	r9, r9, r6, lsr r1

0000376c <l3288>:
    376c:	e3a04006 	mov	r4, #6

00003770 <l3289>:
    3770:	e11dc0f4 	ldrsh	ip, [sp, -r4]

00003774 <l3290>:
    3774:	e16f0f1e 	clz	r0, lr

00003778 <l3291>:
    3778:	e061300e 	rsb	r3, r1, lr

0000377c <interrupt_594>:
    377c:	61c7341e 	bicvs	r3, r7, lr, lsl r4

00003780 <l3293>:
    3780:	6219a0e2 	andsvs	sl, r9, #226	; 0xe2

00003784 <l3294>:
    3784:	e3a0502c 	mov	r5, #44	; 0x2c

00003788 <l3295>:
    3788:	610d20b5 	strhvs	r2, [sp, -r5]

0000378c <l3296>:
    378c:	ea000004 	b	37a4 <interrupt_996>

00003790 <l3297>:
    3790:	e280100e 	add	r1, r0, #14

00003794 <l3298>:
    3794:	40cfeb45 	sbcmi	lr, pc, r5, asr #22

00003798 <l3299>:
    3798:	531a03b2 	tstpl	sl, #-939524094	; 0xc8000002

0000379c <l3300>:
    379c:	e1906bc6 	orrs	r6, r0, r6, asr #23

000037a0 <l3301>:
    37a0:	ea000000 	b	37a8 <l3303>

000037a4 <interrupt_996>:
    37a4:	eafffffa 	b	3794 <l3298>

000037a8 <l3303>:
    37a8:	31b02004 	movscc	r2, r4

000037ac <interrupt_938>:
    37ac:	21b0557a 	rorscs	r5, sl, r5

000037b0 <interrupt_219>:
    37b0:	92087403 	andls	r7, r8, #50331648	; 0x3000000

000037b4 <interrupt_869>:
    37b4:	e3a0e00f 	mov	lr, #15

000037b8 <l3307>:
    37b8:	a74da00e 	strbge	sl, [sp, -lr]

000037bc <l3308>:
    37bc:	b28e8d2a 	addlt	r8, lr, #2688	; 0xa80

000037c0 <l3309>:
    37c0:	e15d70b2 	ldrh	r7, [sp, #-2]

000037c4 <l3310>:
    37c4:	a17a000c 	cmnge	sl, ip

000037c8 <l3311>:
    37c8:	e15d30fe 	ldrsh	r3, [sp, #-14]

000037cc <l3312>:
    37cc:	2224cdee 	eorcs	ip, r4, #15232	; 0x3b80

000037d0 <l3313>:
    37d0:	480dabe8 	stmdami	sp, {r3, r5, r6, r7, r8, r9, fp, sp, pc}

000037d4 <l3314>:
    37d4:	e2411050 	sub	r1, r1, #80	; 0x50

000037d8 <interrupt_387>:
    37d8:	e3a01012 	mov	r1, #18

000037dc <interrupt_49>:
    37dc:	e19d60f1 	ldrsh	r6, [sp, r1]

000037e0 <interrupt_772>:
    37e0:	60068aa2 	andvs	r8, r6, r2, lsr #21

000037e4 <l3318>:
    37e4:	e82d9481 	stmda	sp!, {r0, r7, sl, ip, pc}

000037e8 <l3319>:
    37e8:	e3a08014 	mov	r8, #20

000037ec <l3320>:
    37ec:	97dd5008 	ldrbls	r5, [sp, r8]

000037f0 <interrupt_242>:
    37f0:	188d33cb 	stmne	sp, {r0, r1, r3, r6, r7, r8, r9, ip, sp}

000037f4 <l3322>:
    37f4:	e59f2000 	ldr	r2, [pc]	; 37fc <l3324>

000037f8 <l3323>:
    37f8:	ea000000 	b	3800 <l3325>

000037fc <l3324>:
    37fc:	000fffdc 	.word	0x000fffdc

00003800 <l3325>:
    3800:	01027096 	swpeq	r7, r6, [r2]

00003804 <l3326>:
    3804:	333e0aca 	teqcc	lr, #827392	; 0xca000

00003808 <interrupt_96>:
    3808:	e3a02011 	mov	r2, #17

0000380c <interrupt_697>:
    380c:	974da002 	strbls	sl, [sp, -r2]

00003810 <l3329>:
    3810:	80703836 	rsbshi	r3, r0, r6, lsr r8

00003814 <l3330>:
    3814:	e9bd4935 	ldmib	sp!, {r0, r2, r4, r5, r8, fp, lr}

00003818 <l3331>:
    3818:	00ec076a 	rsceq	r0, ip, sl, ror #14

0000381c <interrupt_384>:
    381c:	0036a009 	eorseq	sl, r6, r9

00003820 <l3333>:
    3820:	ef622a39 	svc	0x00622a39

00003824 <l3334>:
    3824:	e55d5019 	ldrb	r5, [sp, #-25]

00003828 <l3335>:
    3828:	e3a0e024 	mov	lr, #36	; 0x24

0000382c <l3336>:
    382c:	e61d100e 	ldr	r1, [sp], -lr

00003830 <l3337>:
    3830:	e3a06029 	mov	r6, #41	; 0x29

00003834 <l3338>:
    3834:	219d20d6 	ldrsbcs	r2, [sp, r6]

00003838 <l3339>:
    3838:	e3a09007 	mov	r9, #7

0000383c <interrupt_635>:
    383c:	211d30d9 	ldrsbcs	r3, [sp, -r9]

00003840 <interrupt_248>:
    3840:	e035bc79 	eors	fp, r5, r9, ror ip

00003844 <l3342>:
    3844:	e3a0b002 	mov	fp, #2

00003848 <l3343>:
    3848:	b7cd900b 	strblt	r9, [sp, fp]

0000384c <l3344>:
    384c:	e3a08004 	mov	r8, #4

00003850 <l3345>:
    3850:	e10d80b8 	strh	r8, [sp, -r8]

00003854 <l3346>:
    3854:	e16f1f15 	clz	r1, r5

00003858 <l3347>:
    3858:	50d8012b 	sbcspl	r0, r8, fp, lsr #2

0000385c <interrupt_118>:
    385c:	10c83f09 	sbcne	r3, r8, r9, lsl #30

00003860 <l3349>:
    3860:	e1cd42b8 	strh	r4, [sp, #40]	; 0x28

00003864 <l3350>:
    3864:	01dcc006 	bicseq	ip, ip, r6

00003868 <l3351>:
    3868:	0043c06a 	subeq	ip, r3, sl, rrx

0000386c <l3352>:
    386c:	e3a02028 	mov	r2, #40	; 0x28

00003870 <l3353>:
    3870:	e69dc002 	ldr	ip, [sp], r2

00003874 <l3354>:
    3874:	e1f0cfe7 	mvns	ip, r7, ror #31

00003878 <l3355>:
    3878:	e1e09b05 	mvn	r9, r5, lsl #22

0000387c <l3356>:
    387c:	e016ce79 	ands	ip, r6, r9, ror lr

00003880 <l3357>:
    3880:	e051700e 	subs	r7, r1, lr

00003884 <l3358>:
    3884:	e3a06039 	mov	r6, #57	; 0x39

00003888 <l3359>:
    3888:	e11d70d6 	ldrsb	r7, [sp, -r6]

0000388c <l3360>:
    388c:	d80d7595 	stmdale	sp, {r0, r2, r4, r7, r8, sl, ip, sp, lr}

00003890 <interrupt_300>:
    3890:	e0413068 	sub	r3, r1, r8, rrx

00003894 <interrupt_113>:
    3894:	e8ad4140 	stmia	sp!, {r6, r8, lr}

00003898 <interrupt_406>:
    3898:	c1e05de4 	mvngt	r5, r4, ror #27

0000389c <l3364>:
    389c:	c1c6ab0c 	bicgt	sl, r6, ip, lsl #22

000038a0 <l3365>:
    38a0:	e07c800c 	rsbs	r8, ip, ip

000038a4 <l3366>:
    38a4:	e13e0064 	teq	lr, r4, rrx

000038a8 <l3367>:
    38a8:	e20230c2 	and	r3, r2, #194	; 0xc2

000038ac <interrupt_628>:
    38ac:	e59f6000 	ldr	r6, [pc]	; 38b4 <l3370>

000038b0 <interrupt_170>:
    38b0:	ea000000 	b	38b8 <interrupt_284>

000038b4 <l3370>:
    38b4:	000fffd8 	.word	0x000fffd8

000038b8 <interrupt_284>:
    38b8:	d106a090 	swple	sl, r0, [r6]

000038bc <l3372>:
    38bc:	e184052c 	orr	r0, r4, ip, lsr #10

000038c0 <interrupt_764>:
    38c0:	e19b1009 	orrs	r1, fp, r9

000038c4 <l3374>:
    38c4:	e59f1000 	ldr	r1, [pc]	; 38cc <l3376>

000038c8 <l3375>:
    38c8:	ea000000 	b	38d0 <l3377>

000038cc <l3376>:
    38cc:	000fffc4 	.word	0x000fffc4

000038d0 <l3377>:
    38d0:	9141a09c 	swpbls	sl, ip, [r1]

000038d4 <l3378>:
    38d4:	e1e0464e 	mvn	r4, lr, asr #12

000038d8 <l3379>:
    38d8:	716f1f15 	clzvc	r1, r5

000038dc <l3380>:
    38dc:	e15d90da 	ldrsb	r9, [sp, #-10]

000038e0 <l3381>:
    38e0:	c0254062 	eorgt	r4, r5, r2, rrx

000038e4 <interrupt_915>:
    38e4:	e59f7000 	ldr	r7, [pc]	; 38ec <l3384>

000038e8 <l3383>:
    38e8:	ea000000 	b	38f0 <l3385>

000038ec <l3384>:
    38ec:	000fffb4 	.word	0x000fffb4

000038f0 <l3385>:
    38f0:	8147a094 	swpbhi	sl, r4, [r7]

000038f4 <l3386>:
    38f4:	e59f4000 	ldr	r4, [pc]	; 38fc <l3388>

000038f8 <l3387>:
    38f8:	ea000000 	b	3900 <l3389>

000038fc <l3388>:
    38fc:	000fffa4 	.word	0x000fffa4

00003900 <l3389>:
    3900:	a1449090 	swpbge	r9, r0, [r4]

00003904 <l3390>:
    3904:	115dc1f4 	ldrshne	ip, [sp, #-20]	; 0xffffffec

00003908 <l3391>:
    3908:	e54d4018 	strb	r4, [sp, #-24]

0000390c <l3392>:
    390c:	115dc1b0 	ldrhne	ip, [sp, #-16]

00003910 <l3393>:
    3910:	e3a0e040 	mov	lr, #64	; 0x40

00003914 <l3394>:
    3914:	010d10be 	strheq	r1, [sp, -lr]

00003918 <l3395>:
    3918:	802ce5ee 	eorhi	lr, ip, lr, ror #11

0000391c <l3396>:
    391c:	c2884462 	addgt	r4, r8, #1644167168	; 0x62000000

00003920 <l3397>:
    3920:	e52d1028 	str	r1, [sp, #-40]!	; 0x28

00003924 <l3398>:
    3924:	eaffffff 	b	3928 <interrupt_482>

00003928 <interrupt_482>:
    3928:	116f6f17 	clzne	r6, r7

0000392c <l3400>:
    392c:	0046b006 	subeq	fp, r6, r6

00003930 <l3401>:
    3930:	e1150616 	tst	r5, r6, lsl r6

00003934 <l3402>:
    3934:	a13f00e4 	teqge	pc, r4, ror #1

00003938 <l3403>:
    3938:	e0b2cb73 	adcs	ip, r2, r3, ror fp

0000393c <l3404>:
    393c:	e1b0206b 	rrxs	r2, fp

00003940 <l3405>:
    3940:	aa000006 	bge	3960 <l3413>

00003944 <l3406>:
    3944:	e28010eb 	add	r1, r0, #235	; 0xeb

00003948 <l3407>:
    3948:	c16fef13 	clzgt	lr, r3

0000394c <l3408>:
    394c:	e055a830 	subs	sl, r5, r0, lsr r8

00003950 <interrupt_378>:
    3950:	a0cb06a9 	sbcge	r0, fp, r9, lsr #13

00003954 <l3410>:
    3954:	71b0b516 	lslsvc	fp, r6, r5

00003958 <l3411>:
    3958:	e39aea03 	orrs	lr, sl, #12288	; 0x3000

0000395c <l3412>:
    395c:	ea000000 	b	3964 <l3414>

00003960 <l3413>:
    3960:	eafffff8 	b	3948 <l3407>

00003964 <l3414>:
    3964:	e1dd12b2 	ldrh	r1, [sp, #34]	; 0x22

00003968 <l3415>:
    3968:	e3a08015 	mov	r8, #21

0000396c <l3416>:
    396c:	e7cd9008 	strb	r9, [sp, r8]

00003970 <l3417>:
    3970:	e09e8000 	adds	r8, lr, r0

00003974 <l3418>:
    3974:	e8bd1324 	pop	{r2, r5, r8, r9, ip}

00003978 <l3419>:
    3978:	616f1f1c 	clzvs	r1, ip

0000397c <l3420>:
    397c:	e388bfd6 	orr	fp, r8, #856	; 0x358

00003980 <l3421>:
    3980:	e3a08012 	mov	r8, #18

00003984 <l3422>:
    3984:	e75d0008 	ldrb	r0, [sp, -r8]

00003988 <l3423>:
    3988:	e3a08026 	mov	r8, #38	; 0x26

0000398c <l3424>:
    398c:	b74da008 	strblt	sl, [sp, -r8]

00003990 <l3425>:
    3990:	e8bd0010 	ldmfd	sp!, {r4}

00003994 <l3426>:
    3994:	e59fb000 	ldr	fp, [pc]	; 399c <l3428>

00003998 <l3427>:
    3998:	ea000000 	b	39a0 <interrupt_606>

0000399c <l3428>:
    399c:	000fffb4 	.word	0x000fffb4

000039a0 <interrupt_606>:
    39a0:	e14b4098 	swpb	r4, r8, [fp]

000039a4 <l3430>:
    39a4:	93c789a6 	bicls	r8, r7, #2719744	; 0x298000

000039a8 <l3431>:
    39a8:	50189062 	andspl	r9, r8, r2, rrx

000039ac <l3432>:
    39ac:	e59fa000 	ldr	sl, [pc]	; 39b4 <l3434>

000039b0 <l3433>:
    39b0:	ea000000 	b	39b8 <l3435>

000039b4 <l3434>:
    39b4:	000fffa4 	.word	0x000fffa4

000039b8 <l3435>:
    39b8:	510a009e 	swppl	r0, lr, [sl]

000039bc <interrupt_66>:
    39bc:	e16f5f1a 	clz	r5, sl

000039c0 <l3437>:
    39c0:	e15d43b4 	ldrh	r4, [sp, #-52]	; 0xffffffcc

000039c4 <l3438>:
    39c4:	ea000005 	b	39e0 <l3445>

000039c8 <l3439>:
    39c8:	804f89c2 	subhi	r8, pc, r2, asr #19

000039cc <l3440>:
    39cc:	e0f2125b 	rscs	r1, r2, fp, asr r2

000039d0 <l3441>:
    39d0:	e04b2069 	sub	r2, fp, r9, rrx

000039d4 <l3442>:
    39d4:	d04b3007 	suble	r3, fp, r7

000039d8 <interrupt_275>:
    39d8:	813a0062 	teqhi	sl, r2, rrx

000039dc <l3444>:
    39dc:	b0b9741c 	adcslt	r7, r9, ip, lsl r4

000039e0 <l3445>:
    39e0:	e086613e 	add	r6, r6, lr, lsr r1

000039e4 <l3446>:
    39e4:	41f04839 	mvnsmi	r4, r9, lsr r8

000039e8 <l3447>:
    39e8:	e3a09004 	mov	r9, #4

000039ec <l3448>:
    39ec:	b71de009 	ldrlt	lr, [sp, -r9]

000039f0 <interrupt_14>:
    39f0:	e59f4000 	ldr	r4, [pc]	; 39f8 <l3451>

000039f4 <l3450>:
    39f4:	ea000000 	b	39fc <l3452>

000039f8 <l3451>:
    39f8:	000fffbc 	.word	0x000fffbc

000039fc <l3452>:
    39fc:	e104709c 	swp	r7, ip, [r4]

00003a00 <interrupt_376>:
    3a00:	30bb063a 	adcscc	r0, fp, sl, lsr r6

00003a04 <l3454>:
    3a04:	e59f6000 	ldr	r6, [pc]	; 3a0c <l3456>

00003a08 <interrupt_951>:
    3a08:	ea000000 	b	3a10 <l3457>

00003a0c <l3456>:
    3a0c:	000fffb4 	.word	0x000fffb4

00003a10 <l3457>:
    3a10:	7106009a 	swpvc	r0, sl, [r6]

00003a14 <l3458>:
    3a14:	206ba002 	rsbcs	sl, fp, r2

00003a18 <l3459>:
    3a18:	51e05006 	mvnpl	r5, r6

00003a1c <l3460>:
    3a1c:	95dd3013 	ldrbls	r3, [sp, #19]

00003a20 <l3461>:
    3a20:	e15d01fe 	ldrsh	r0, [sp, #-30]	; 0xffffffe2

00003a24 <l3462>:
    3a24:	42ebb701 	rscmi	fp, fp, #262144	; 0x40000

00003a28 <l3463>:
    3a28:	e070c3cc 	rsbs	ip, r0, ip, asr #7

00003a2c <l3464>:
    3a2c:	4030aa33 	eorsmi	sl, r0, r3, lsr sl

00003a30 <l3465>:
    3a30:	52be098f 	adcspl	r0, lr, #2342912	; 0x23c000

00003a34 <l3466>:
    3a34:	e99d1083 	ldmib	sp, {r0, r1, r7, ip}

00003a38 <interrupt_585>:
    3a38:	ef104172 	svc	0x00104172

00003a3c <interrupt_164>:
    3a3c:	e1f09257 	mvns	r9, r7, asr r2

00003a40 <l3469>:
    3a40:	ef0e72ea 	svc	0x000e72ea

00003a44 <l3470>:
    3a44:	1a000003 	bne	3a58 <interrupt_558>

00003a48 <l3471>:
    3a48:	502a131c 	eorpl	r1, sl, ip, lsl r3

00003a4c <l3472>:
    3a4c:	e11c0e24 	tst	ip, r4, lsr #28

00003a50 <l3473>:
    3a50:	b280ab37 	addlt	sl, r0, #56320	; 0xdc00

00003a54 <l3474>:
    3a54:	e2759102 	rsbs	r9, r5, #-2147483648	; 0x80000000

00003a58 <interrupt_558>:
    3a58:	835a02aa 	cmphi	sl, #-1610612726	; 0xa000000a

00003a5c <l3476>:
    3a5c:	7a000005 	bvc	3a78 <l3483>

00003a60 <l3477>:
    3a60:	e16f7f14 	clz	r7, r4

00003a64 <l3478>:
    3a64:	30b1126e 	adcscc	r1, r1, lr, ror #4

00003a68 <l3479>:
    3a68:	b13e0006 	teqlt	lr, r6

00003a6c <l3480>:
    3a6c:	30a7900b 	adccc	r9, r7, fp

00003a70 <interrupt_646>:
    3a70:	e079b81b 	rsbs	fp, r9, fp, lsl r8

00003a74 <l3482>:
    3a74:	e1d83001 	bics	r3, r8, r1

00003a78 <l3483>:
    3a78:	c2e2c3ef 	rscgt	ip, r2, #-1140850685	; 0xbc000003

00003a7c <l3484>:
    3a7c:	e53de008 	ldr	lr, [sp, #-8]!

00003a80 <l3485>:
    3a80:	e0ef600b 	rsc	r6, pc, fp

00003a84 <l3486>:
    3a84:	516f6f11 	clzpl	r6, r1

00003a88 <l3487>:
    3a88:	102b8960 	eorne	r8, fp, r0, ror #18

00003a8c <l3488>:
    3a8c:	e05b6556 	subs	r6, fp, r6, asr r5

00003a90 <l3489>:
    3a90:	d04b3004 	suble	r3, fp, r4

00003a94 <interrupt_706>:
    3a94:	e0547fac 	subs	r7, r4, ip, lsr #31

00003a98 <l3491>:
    3a98:	e3a0e012 	mov	lr, #18

00003a9c <l3492>:
    3a9c:	511d30fe 	ldrshpl	r3, [sp, -lr]

00003aa0 <l3493>:
    3aa0:	e59fa000 	ldr	sl, [pc]	; 3aa8 <l3495>

00003aa4 <l3494>:
    3aa4:	ea000000 	b	3aac <l3496>

00003aa8 <l3495>:
    3aa8:	000fffa4 	.word	0x000fffa4

00003aac <l3496>:
    3aac:	214a109c 	swpbcs	r1, ip, [sl]

00003ab0 <l3497>:
    3ab0:	e3a09014 	mov	r9, #20

00003ab4 <l3498>:
    3ab4:	371d5009 	ldrcc	r5, [sp, -r9]

00003ab8 <l3499>:
    3ab8:	e3a03026 	mov	r3, #38	; 0x26

00003abc <l3500>:
    3abc:	d74da003 	strble	sl, [sp, -r3]

00003ac0 <l3501>:
    3ac0:	c0579064 	subsgt	r9, r7, r4, rrx

00003ac4 <l3502>:
    3ac4:	e3a05008 	mov	r5, #8

00003ac8 <l3503>:
    3ac8:	419db0b5 	ldrhmi	fp, [sp, r5]

00003acc <l3504>:
    3acc:	e01f400f 	ands	r4, pc, pc

00003ad0 <l3505>:
    3ad0:	e0ce000f 	sbc	r0, lr, pc

00003ad4 <l3506>:
    3ad4:	c04cc062 	subgt	ip, ip, r2, rrx

00003ad8 <l3507>:
    3ad8:	a14db0b8 	strhge	fp, [sp, #-8]

00003adc <l3508>:
    3adc:	e3a02014 	mov	r2, #20

00003ae0 <l3509>:
    3ae0:	e75d5002 	ldrb	r5, [sp, -r2]

00003ae4 <l3510>:
    3ae4:	e15db2fe 	ldrsh	fp, [sp, #-46]	; 0xffffffd2

00003ae8 <l3511>:
    3ae8:	e3a0900a 	mov	r9, #10

00003aec <l3512>:
    3aec:	218dc0b9 	strhcs	ip, [sp, r9]

00003af0 <l3513>:
    3af0:	e59f1000 	ldr	r1, [pc]	; 3af8 <l3515>

00003af4 <l3514>:
    3af4:	ea000000 	b	3afc <l3516>

00003af8 <l3515>:
    3af8:	000fffa4 	.word	0x000fffa4

00003afc <l3516>:
    3afc:	e101209c 	swp	r2, ip, [r1]

00003b00 <l3517>:
    3b00:	e16f2f18 	clz	r2, r8

00003b04 <l3518>:
    3b04:	e3a08005 	mov	r8, #5

00003b08 <l3519>:
    3b08:	374d9008 	strbcc	r9, [sp, -r8]

00003b0c <l3520>:
    3b0c:	00d62771 	sbcseq	r2, r6, r1, ror r7

00003b10 <l3521>:
    3b10:	e11f006f 	tst	pc, pc, rrx

00003b14 <l3522>:
    3b14:	ef174572 	svc	0x00174572

00003b18 <l3523>:
    3b18:	ea000003 	b	3b2c <l3528>

00003b1c <interrupt_522>:
    3b1c:	e2801079 	add	r1, r0, #121	; 0x79

00003b20 <l3525>:
    3b20:	d0711007 	rsbsle	r1, r1, r7

00003b24 <interrupt_532>:
    3b24:	e0c54b80 	sbc	r4, r5, r0, lsl #23

00003b28 <l3527>:
    3b28:	ea000000 	b	3b30 <l3529>

00003b2c <l3528>:
    3b2c:	eafffffb 	b	3b20 <l3525>

00003b30 <l3529>:
    3b30:	e1ca0005 	bic	r0, sl, r5

00003b34 <l3530>:
    3b34:	e15de0fe 	ldrsh	lr, [sp, #-14]

00003b38 <interrupt_805>:
    3b38:	e15de2b8 	ldrh	lr, [sp, #-40]	; 0xffffffd8

00003b3c <interrupt_871>:
    3b3c:	e59f0000 	ldr	r0, [pc]	; 3b44 <l3534>

00003b40 <l3533>:
    3b40:	ea000000 	b	3b48 <l3535>

00003b44 <l3534>:
    3b44:	000fffac 	.word	0x000fffac

00003b48 <l3535>:
    3b48:	01405098 	swpbeq	r5, r8, [r0]

00003b4c <interrupt_65>:
    3b4c:	e1cd90bc 	strh	r9, [sp, #12]

00003b50 <l3537>:
    3b50:	e83d1d3c 	ldmda	sp!, {r2, r3, r4, r5, r8, sl, fp, ip}

00003b54 <l3538>:
    3b54:	d0f0200e 	rscsle	r2, r0, lr

00003b58 <l3539>:
    3b58:	e3a0b038 	mov	fp, #56	; 0x38

00003b5c <l3540>:
    3b5c:	e7ad700b 	str	r7, [sp, fp]!

00003b60 <l3541>:
    3b60:	efbbc858 	svc	0x00bbc858

00003b64 <interrupt_17>:
    3b64:	e04b800a 	sub	r8, fp, sl

00003b68 <interrupt_318>:
    3b68:	e1c45007 	bic	r5, r4, r7

00003b6c <interrupt_289>:
    3b6c:	e41de01c 	ldr	lr, [sp], #-28

00003b70 <l3545>:
    3b70:	e2a4bbbb 	adc	fp, r4, #191488	; 0x2ec00

00003b74 <l3546>:
    3b74:	61f0e001 	mvnsvs	lr, r1

00003b78 <l3547>:
    3b78:	aa000007 	bge	3b9c <l3556>

00003b7c <interrupt_244>:
    3b7c:	61790003 	cmnvs	r9, r3

00003b80 <l3549>:
    3b80:	e0626004 	rsb	r6, r2, r4

00003b84 <l3550>:
    3b84:	e1540066 	cmp	r4, r6, rrx

00003b88 <l3551>:
    3b88:	11750227 	cmnne	r5, r7, lsr #4

00003b8c <l3552>:
    3b8c:	d13e0063 	teqle	lr, r3, rrx

00003b90 <l3553>:
    3b90:	e068b008 	rsb	fp, r8, r8

00003b94 <interrupt_85>:
    3b94:	e0732334 	rsbs	r2, r3, r4, lsr r3

00003b98 <l3555>:
    3b98:	30c2aaae 	sbccc	sl, r2, lr, lsr #21

00003b9c <l3556>:
    3b9c:	e0e7c006 	rsc	ip, r7, r6

00003ba0 <l3557>:
    3ba0:	e19f300f 	orrs	r3, pc, pc

00003ba4 <l3558>:
    3ba4:	ef1292e0 	svc	0x001292e0

00003ba8 <l3559>:
    3ba8:	a04ca009 	subge	sl, ip, r9

00003bac <l3560>:
    3bac:	eaffffff 	b	3bb0 <l3561>

00003bb0 <l3561>:
    3bb0:	e0d66e12 	sbcs	r6, r6, r2, lsl lr

00003bb4 <l3562>:
    3bb4:	e18cb864 	orr	fp, ip, r4, ror #16

00003bb8 <interrupt_544>:
    3bb8:	e1330aa5 	teq	r3, r5, lsr #21

00003bbc <l3564>:
    3bbc:	316f8f19 	clzcc	r8, r9

00003bc0 <l3565>:
    3bc0:	0009e000 	andeq	lr, r9, r0

00003bc4 <l3566>:
    3bc4:	10502002 	subsne	r2, r0, r2

00003bc8 <l3567>:
    3bc8:	d5dd501c 	ldrble	r5, [sp, #28]

00003bcc <l3568>:
    3bcc:	e219b9fb 	ands	fp, r9, #4112384	; 0x3ec000

00003bd0 <l3569>:
    3bd0:	e1b06000 	movs	r6, r0

00003bd4 <l3570>:
    3bd4:	e256c315 	subs	ip, r6, #1409286144	; 0x54000000

00003bd8 <l3571>:
    3bd8:	efae6aa4 	svc	0x00ae6aa4

00003bdc <l3572>:
    3bdc:	a1f07470 	mvnsge	r7, r0, ror r4

00003be0 <l3573>:
    3be0:	e5cdb00c 	strb	fp, [sp, #12]

00003be4 <l3574>:
    3be4:	503bb00b 	eorspl	fp, fp, fp

00003be8 <l3575>:
    3be8:	60247004 	eorvs	r7, r4, r4

00003bec <interrupt_479>:
    3bec:	ef62671e 	svc	0x0062671e

00003bf0 <l3577>:
    3bf0:	eaffffff 	b	3bf4 <interrupt_530>

00003bf4 <interrupt_530>:
    3bf4:	e3c59492 	bic	r9, r5, #-1845493760	; 0x92000000

00003bf8 <l3579>:
    3bf8:	e3a0000f 	mov	r0, #15

00003bfc <l3580>:
    3bfc:	47dd6000 	ldrbmi	r6, [sp, r0]

00003c00 <l3581>:
    3c00:	30465626 	subcc	r5, r6, r6, lsr #12

00003c04 <l3582>:
    3c04:	eaffffff 	b	3c08 <l3583>

00003c08 <l3583>:
    3c08:	118c73eb 	orrne	r7, ip, fp, ror #7

00003c0c <l3584>:
    3c0c:	ef559cac 	svc	0x00559cac

00003c10 <l3585>:
    3c10:	e3a0c018 	mov	ip, #24

00003c14 <l3586>:
    3c14:	e19d90fc 	ldrsh	r9, [sp, ip]

00003c18 <l3587>:
    3c18:	e1190229 	tst	r9, r9, lsr #4

00003c1c <l3588>:
    3c1c:	615d42da 	ldrsbvs	r4, [sp, #-42]	; 0xffffffd6

00003c20 <interrupt_588>:
    3c20:	917e073b 	cmnls	lr, fp, lsr r7

00003c24 <l3590>:
    3c24:	e3a0401c 	mov	r4, #28

00003c28 <l3591>:
    3c28:	e69d4004 	ldr	r4, [sp], r4

00003c2c <l3592>:
    3c2c:	ca000002 	bgt	3c3c <l3596>

00003c30 <l3593>:
    3c30:	a1830531 	orrge	r0, r3, r1, lsr r5

00003c34 <interrupt_928>:
    3c34:	826025ed 	rsbhi	r2, r0, #994050048	; 0x3b400000

00003c38 <l3595>:
    3c38:	e0c25ae2 	sbc	r5, r2, r2, ror #21

00003c3c <l3596>:
    3c3c:	01a0ba19 	lsleq	fp, r9, sl

00003c40 <l3597>:
    3c40:	e0867179 	add	r7, r6, r9, ror r1

00003c44 <l3598>:
    3c44:	ef8d7011 	svc	0x008d7011

00003c48 <interrupt_728>:
    3c48:	e3a0002c 	mov	r0, #44	; 0x2c

00003c4c <l3600>:
    3c4c:	771d7000 	ldrvc	r7, [sp, -r0]

00003c50 <l3601>:
    3c50:	d55db02a 	ldrble	fp, [sp, #-42]	; 0x2a

00003c54 <l3602>:
    3c54:	e59f8000 	ldr	r8, [pc]	; 3c5c <l3604>

00003c58 <l3603>:
    3c58:	ea000000 	b	3c60 <l3605>

00003c5c <l3604>:
    3c5c:	000fffb0 	.word	0x000fffb0

00003c60 <l3605>:
    3c60:	61480095 	swpbvs	r0, r5, [r8]

00003c64 <l3606>:
    3c64:	e3a0101c 	mov	r1, #28

00003c68 <l3607>:
    3c68:	e10d30b1 	strh	r3, [sp, -r1]

00003c6c <l3608>:
    3c6c:	33922707 	orrscc	r2, r2, #1835008	; 0x1c0000

00003c70 <interrupt_611>:
    3c70:	701ac95a 	andsvc	ip, sl, sl, asr r9

00003c74 <l3610>:
    3c74:	e3a0c02b 	mov	ip, #43	; 0x2b

00003c78 <l3611>:
    3c78:	e11d40dc 	ldrsb	r4, [sp, -ip]

00003c7c <l3612>:
    3c7c:	816f8f1b 	clzhi	r8, fp

00003c80 <l3613>:
    3c80:	81740002 	cmnhi	r4, r2

00003c84 <l3614>:
    3c84:	e1b01004 	movs	r1, r4

00003c88 <l3615>:
    3c88:	c51d0020 	ldrgt	r0, [sp, #-32]

00003c8c <l3616>:
    3c8c:	e3a0e01a 	mov	lr, #26

00003c90 <l3617>:
    3c90:	375d600e 	ldrbcc	r6, [sp, -lr]

00003c94 <interrupt_350>:
    3c94:	804f7007 	subhi	r7, pc, r7

00003c98 <interrupt_797>:
    3c98:	e1a00000 	nop			; (mov r0, r0)

00003c9c <l3620>:
    3c9c:	104c4060 	subne	r4, ip, r0, rrx

00003ca0 <l3621>:
    3ca0:	e24a9401 	sub	r9, sl, #16777216	; 0x1000000

00003ca4 <interrupt_590>:
    3ca4:	e2259c3a 	eor	r9, r5, #14848	; 0x3a00

00003ca8 <interrupt_694>:
    3ca8:	e40d8004 	str	r8, [sp], #-4

00003cac <l3624>:
    3cac:	e3a07002 	mov	r7, #2

00003cb0 <interrupt_236>:
    3cb0:	719da0f7 	ldrshvc	sl, [sp, r7]

00003cb4 <l3626>:
    3cb4:	d21e350d 	andsle	r3, lr, #54525952	; 0x3400000

00003cb8 <l3627>:
    3cb8:	b3190ba7 	tstlt	r9, #171008	; 0x29c00

00003cbc <interrupt_547>:
    3cbc:	e59f7000 	ldr	r7, [pc]	; 3cc4 <l3630>

00003cc0 <l3629>:
    3cc0:	ea000000 	b	3cc8 <l3631>

00003cc4 <l3630>:
    3cc4:	000fffb4 	.word	0x000fffb4

00003cc8 <l3631>:
    3cc8:	8147e094 	swpbhi	lr, r4, [r7]

00003ccc <interrupt_93>:
    3ccc:	efe2717e 	svc	0x00e2717e

00003cd0 <interrupt_918>:
    3cd0:	e0980006 	adds	r0, r8, r6

00003cd4 <interrupt_227>:
    3cd4:	71350673 	teqvc	r5, r3, ror r6

00003cd8 <l3635>:
    3cd8:	e0560001 	subs	r0, r6, r1

00003cdc <interrupt_107>:
    3cdc:	e33a03b5 	teq	sl, #-738197502	; 0xd4000002

00003ce0 <l3637>:
    3ce0:	d173057e 	cmnle	r3, lr, ror r5

00003ce4 <interrupt_516>:
    3ce4:	e11c078f 	tst	ip, pc, lsl #15

00003ce8 <l3639>:
    3ce8:	a0612a61 	rsbge	r2, r1, r1, ror #20

00003cec <l3640>:
    3cec:	ea000006 	b	3d0c <l3648>

00003cf0 <l3641>:
    3cf0:	e280103e 	add	r1, r0, #62	; 0x3e

00003cf4 <l3642>:
    3cf4:	30aaa6cb 	adccc	sl, sl, fp, asr #13

00003cf8 <l3643>:
    3cf8:	e1a03004 	mov	r3, r4

00003cfc <l3644>:
    3cfc:	e1a0e002 	mov	lr, r2

00003d00 <interrupt_366>:
    3d00:	306eb003 	rsbcc	fp, lr, r3

00003d04 <l3646>:
    3d04:	e1c0c068 	bic	ip, r0, r8, rrx

00003d08 <l3647>:
    3d08:	ea000000 	b	3d10 <l3649>

00003d0c <l3648>:
    3d0c:	eafffff8 	b	3cf4 <l3642>

00003d10 <l3649>:
    3d10:	a3b070d4 	movsge	r7, #212	; 0xd4

00003d14 <l3650>:
    3d14:	ef880780 	svc	0x00880780

00003d18 <l3651>:
    3d18:	30a4400a 	adccc	r4, r4, sl

00003d1c <l3652>:
    3d1c:	e59f3000 	ldr	r3, [pc]	; 3d24 <l3654>

00003d20 <l3653>:
    3d20:	ea000000 	b	3d28 <l3655>

00003d24 <l3654>:
    3d24:	000fffe0 	.word	0x000fffe0

00003d28 <l3655>:
    3d28:	81434090 	swpbhi	r4, r0, [r3]

00003d2c <l3656>:
    3d2c:	e3a0002b 	mov	r0, #43	; 0x2b

00003d30 <l3657>:
    3d30:	e74d6000 	strb	r6, [sp, -r0]

00003d34 <l3658>:
    3d34:	e3a0c00c 	mov	ip, #12

00003d38 <l3659>:
    3d38:	e61d600c 	ldr	r6, [sp], -ip

00003d3c <l3660>:
    3d3c:	e3a01004 	mov	r1, #4

00003d40 <l3661>:
    3d40:	b71d6001 	ldrlt	r6, [sp, -r1]

00003d44 <l3662>:
    3d44:	21710009 	cmncs	r1, r9

00003d48 <l3663>:
    3d48:	efce2a75 	svc	0x00ce2a75

00003d4c <l3664>:
    3d4c:	e16f9f17 	clz	r9, r7

00003d50 <l3665>:
    3d50:	ef15a84f 	svc	0x0015a84f

00003d54 <l3666>:
    3d54:	e2c34109 	sbc	r4, r3, #1073741826	; 0x40000002

00003d58 <l3667>:
    3d58:	e3a03003 	mov	r3, #3

00003d5c <l3668>:
    3d5c:	711d00d3 	ldrsbvc	r0, [sp, -r3]

00003d60 <interrupt_159>:
    3d60:	688d0001 	stmvs	sp, {r0}

00003d64 <l3670>:
    3d64:	e1a00000 	nop			; (mov r0, r0)

00003d68 <l3671>:
    3d68:	31510009 	cmpcc	r1, r9

00003d6c <l3672>:
    3d6c:	ef0ca071 	svc	0x000ca071

00003d70 <l3673>:
    3d70:	e59f1000 	ldr	r1, [pc]	; 3d78 <interrupt_90>

00003d74 <l3674>:
    3d74:	ea000000 	b	3d7c <l3676>

00003d78 <interrupt_90>:
    3d78:	000fffbc 	.word	0x000fffbc

00003d7c <l3676>:
    3d7c:	e1410094 	swpb	r0, r4, [r1]

00003d80 <l3677>:
    3d80:	317c0e69 	cmncc	ip, r9, ror #28

00003d84 <l3678>:
    3d84:	e3a0b00c 	mov	fp, #12

00003d88 <l3679>:
    3d88:	511dc0fb 	ldrshpl	ip, [sp, -fp]

00003d8c <l3680>:
    3d8c:	e52d6038 	str	r6, [sp, #-56]!	; 0x38

00003d90 <l3681>:
    3d90:	e1780e13 	cmn	r8, r3, lsl lr

00003d94 <l3682>:
    3d94:	7225210b 	eorvc	r2, r5, #-1073741822	; 0xc0000002

00003d98 <interrupt_641>:
    3d98:	e5bd002c 	ldr	r0, [sp, #44]!	; 0x2c

00003d9c <l3684>:
    3d9c:	e003500e 	and	r5, r3, lr

00003da0 <interrupt_388>:
    3da0:	33e07732 	mvncc	r7, #13107200	; 0xc80000

00003da4 <l3686>:
    3da4:	e00ea007 	and	sl, lr, r7

00003da8 <l3687>:
    3da8:	e060c00c 	rsb	ip, r0, ip

00003dac <l3688>:
    3dac:	60a2a006 	adcvs	sl, r2, r6

00003db0 <l3689>:
    3db0:	c13c048f 	teqgt	ip, pc, lsl #9

00003db4 <l3690>:
    3db4:	e27c4522 	rsbs	r4, ip, #142606336	; 0x8800000

00003db8 <interrupt_492>:
    3db8:	12bea20d 	adcsne	sl, lr, #-805306368	; 0xd0000000

00003dbc <l3692>:
    3dbc:	ef7c0972 	svc	0x007c0972

00003dc0 <l3693>:
    3dc0:	d26fea5b 	rsble	lr, pc, #372736	; 0x5b000

00003dc4 <l3694>:
    3dc4:	916f9f12 	clzls	r9, r2

00003dc8 <l3695>:
    3dc8:	e59f7000 	ldr	r7, [pc]	; 3dd0 <l3697>

00003dcc <l3696>:
    3dcc:	ea000000 	b	3dd4 <l3698>

00003dd0 <l3697>:
    3dd0:	000fffc0 	.word	0x000fffc0

00003dd4 <l3698>:
    3dd4:	3107209a 	swpcc	r2, sl, [r7]

00003dd8 <interrupt_599>:
    3dd8:	e52d900c 	str	r9, [sp, #-12]!

00003ddc <l3700>:
    3ddc:	e083bdca 	add	fp, r3, sl, asr #27

00003de0 <l3701>:
    3de0:	208c3867 	addcs	r3, ip, r7, ror #16

00003de4 <l3702>:
    3de4:	e5bd9024 	ldr	r9, [sp, #36]!	; 0x24

00003de8 <l3703>:
    3de8:	e15d71fc 	ldrsh	r7, [sp, #-28]	; 0xffffffe4

00003dec <interrupt_948>:
    3dec:	e04aa502 	sub	sl, sl, r2, lsl #10

00003df0 <interrupt_178>:
    3df0:	e59fe000 	ldr	lr, [pc]	; 3df8 <interrupt_100>

00003df4 <l3706>:
    3df4:	ea000000 	b	3dfc <l3708>

00003df8 <interrupt_100>:
    3df8:	000fffc8 	.word	0x000fffc8

00003dfc <l3708>:
    3dfc:	910e609b 	swpls	r6, fp, [lr]

00003e00 <l3709>:
    3e00:	250d2044 	strcs	r2, [sp, #-68]	; 0x44

00003e04 <l3710>:
    3e04:	e3a0801a 	mov	r8, #26

00003e08 <l3711>:
    3e08:	e11da0f8 	ldrsh	sl, [sp, -r8]

00003e0c <l3712>:
    3e0c:	811800c1 	tsthi	r8, r1, asr #1

00003e10 <l3713>:
    3e10:	a2ce179f 	sbcge	r1, lr, #41680896	; 0x27c0000

00003e14 <l3714>:
    3e14:	e93d0440 	ldmdb	sp!, {r6, sl}

00003e18 <interrupt_22>:
    3e18:	0a000004 	beq	3e30 <l3721>

00003e1c <interrupt_775>:
    3e1c:	e28b8d6d 	add	r8, fp, #6976	; 0x1b40

00003e20 <l3717>:
    3e20:	531e0c0b 	tstpl	lr, #2816	; 0xb00

00003e24 <l3718>:
    3e24:	e211320d 	ands	r3, r1, #-805306368	; 0xd0000000

00003e28 <interrupt_349>:
    3e28:	e150056b 	cmp	r0, fp, ror #10

00003e2c <l3720>:
    3e2c:	33b01f9f 	movscc	r1, #636	; 0x27c

00003e30 <l3721>:
    3e30:	1022e23e 	eorne	lr, r2, lr, lsr r2

00003e34 <l3722>:
    3e34:	e5dd100f 	ldrb	r1, [sp, #15]

00003e38 <interrupt_682>:
    3e38:	da000006 	ble	3e58 <l3731>

00003e3c <interrupt_480>:
    3e3c:	016fcf10 	clzeq	ip, r0

00003e40 <l3725>:
    3e40:	40913004 	addsmi	r3, r1, r4

00003e44 <l3726>:
    3e44:	4051633c 	subsmi	r6, r1, ip, lsr r3

00003e48 <l3727>:
    3e48:	e04a206c 	sub	r2, sl, ip, rrx

00003e4c <l3728>:
    3e4c:	e3b0e609 	movs	lr, #9437184	; 0x900000

00003e50 <l3729>:
    3e50:	e0772839 	rsbs	r2, r7, r9, lsr r8

00003e54 <l3730>:
    3e54:	117c0004 	cmnne	ip, r4

00003e58 <l3731>:
    3e58:	51f0006c 	mvnspl	r0, ip, rrx

00003e5c <l3732>:
    3e5c:	0a000008 	beq	3e84 <l3742>

00003e60 <l3733>:
    3e60:	6056700e 	subsvs	r7, r6, lr

00003e64 <interrupt_269>:
    3e64:	e2316cc5 	eors	r6, r1, #50432	; 0xc500

00003e68 <l3735>:
    3e68:	713e0273 	teqvc	lr, r3, ror r2

00003e6c <l3736>:
    3e6c:	e017b003 	ands	fp, r7, r3

00003e70 <l3737>:
    3e70:	637b0ca2 	cmnvs	fp, #41472	; 0xa200

00003e74 <l3738>:
    3e74:	e2de163e 	sbcs	r1, lr, #65011712	; 0x3e00000

00003e78 <interrupt_301>:
    3e78:	016fef1b 	clzeq	lr, fp

00003e7c <l3740>:
    3e7c:	4089c3a0 	addmi	ip, r9, r0, lsr #7

00003e80 <l3741>:
    3e80:	e0296000 	eor	r6, r9, r0

00003e84 <l3742>:
    3e84:	c1310009 	teqgt	r1, r9

00003e88 <interrupt_637>:
    3e88:	e088315a 	add	r3, r8, sl, asr r1

00003e8c <interrupt_666>:
    3e8c:	035003b5 	cmpeq	r0, #-738197502	; 0xd4000002

00003e90 <interrupt_345>:
    3e90:	d55d7005 	ldrble	r7, [sp, #-5]

00003e94 <l3746>:
    3e94:	ef4ad3d8 	svc	0x004ad3d8

00003e98 <interrupt_525>:
    3e98:	e1170765 	tst	r7, r5, ror #14

00003e9c <interrupt_438>:
    3e9c:	ef5f88cb 	svc	0x005f88cb

00003ea0 <l3749>:
    3ea0:	d04758aa 	suble	r5, r7, sl, lsr #17

00003ea4 <interrupt_38>:
    3ea4:	20b62560 	adcscs	r2, r6, r0, ror #10

00003ea8 <l3751>:
    3ea8:	e3a01022 	mov	r1, #34	; 0x22

00003eac <interrupt_937>:
    3eac:	e74d5001 	strb	r5, [sp, -r1]

00003eb0 <interrupt_702>:
    3eb0:	e8bd1810 	pop	{r4, fp, ip}

00003eb4 <l3754>:
    3eb4:	e14d11b4 	strh	r1, [sp, #-20]	; 0xffffffec

00003eb8 <l3755>:
    3eb8:	ef4eb227 	svc	0x004eb227

00003ebc <interrupt_681>:
    3ebc:	e0e3b254 	rsc	fp, r3, r4, asr r2

00003ec0 <l3757>:
    3ec0:	effcbd9f 	svc	0x00fcbd9f

00003ec4 <l3758>:
    3ec4:	854d3018 	strbhi	r3, [sp, #-24]

00003ec8 <interrupt_768>:
    3ec8:	e3a0802c 	mov	r8, #44	; 0x2c

00003ecc <l3760>:
    3ecc:	e11d70d8 	ldrsb	r7, [sp, -r8]

00003ed0 <l3761>:
    3ed0:	e0979ec4 	adds	r9, r7, r4, asr #29

00003ed4 <l3762>:
    3ed4:	6002c34a 	andvs	ip, r2, sl, asr #6

00003ed8 <interrupt_781>:
    3ed8:	808441c4 	addhi	r4, r4, r4, asr #3

00003edc <interrupt_194>:
    3edc:	ef5ab166 	svc	0x005ab166

00003ee0 <l3765>:
    3ee0:	1060a004 	rsbne	sl, r0, r4

00003ee4 <l3766>:
    3ee4:	b05c1631 	subslt	r1, ip, r1, lsr r6

00003ee8 <l3767>:
    3ee8:	214d20b6 	strhcs	r2, [sp, #-6]

00003eec <interrupt_649>:
    3eec:	01e02002 	mvneq	r2, r2

00003ef0 <interrupt_465>:
    3ef0:	9a000000 	bls	3ef8 <interrupt_56>

00003ef4 <l3770>:
    3ef4:	a0214351 	eorge	r4, r1, r1, asr r3

00003ef8 <interrupt_56>:
    3ef8:	007c4008 	rsbseq	r4, ip, r8

00003efc <l3772>:
    3efc:	e3a05020 	mov	r5, #32

00003f00 <l3773>:
    3f00:	e11d90d5 	ldrsb	r9, [sp, -r5]

00003f04 <l3774>:
    3f04:	805647e5 	subshi	r4, r6, r5, ror #15

00003f08 <l3775>:
    3f08:	e3a0c020 	mov	ip, #32

00003f0c <l3776>:
    3f0c:	e73d200c 	ldr	r2, [sp, -ip]!

00003f10 <l3777>:
    3f10:	e59f9000 	ldr	r9, [pc]	; 3f18 <interrupt_362>

00003f14 <l3778>:
    3f14:	ea000000 	b	3f1c <l3780>

00003f18 <interrupt_362>:
    3f18:	000fffe0 	.word	0x000fffe0

00003f1c <l3780>:
    3f1c:	81496095 	swpbhi	r6, r5, [r9]

00003f20 <l3781>:
    3f20:	537f04a2 	cmnpl	pc, #-1577058304	; 0xa2000000

00003f24 <l3782>:
    3f24:	e3a04016 	mov	r4, #22

00003f28 <interrupt_718>:
    3f28:	e19db0b4 	ldrh	fp, [sp, r4]

00003f2c <l3784>:
    3f2c:	e0215062 	eor	r5, r1, r2, rrx

00003f30 <l3785>:
    3f30:	e55d4021 	ldrb	r4, [sp, #-33]	; 0x21

00003f34 <l3786>:
    3f34:	e3a0a016 	mov	sl, #22

00003f38 <l3787>:
    3f38:	a18db0ba 	strhge	fp, [sp, sl]

00003f3c <l3788>:
    3f3c:	9029044c 	eorls	r0, r9, ip, asr #8

00003f40 <l3789>:
    3f40:	e3a04016 	mov	r4, #22

00003f44 <l3790>:
    3f44:	319d00f4 	ldrshcc	r0, [sp, r4]

00003f48 <l3791>:
    3f48:	e59f5000 	ldr	r5, [pc]	; 3f50 <l3793>

00003f4c <interrupt_453>:
    3f4c:	ea000000 	b	3f54 <l3794>

00003f50 <l3793>:
    3f50:	000fffbc 	.word	0x000fffbc

00003f54 <l3794>:
    3f54:	1145b09e 	swpbne	fp, lr, [r5]

00003f58 <l3795>:
    3f58:	6187906a 	orrvs	r9, r7, sl, rrx

00003f5c <l3796>:
    3f5c:	e59fb000 	ldr	fp, [pc]	; 3f64 <l3798>

00003f60 <interrupt_634>:
    3f60:	ea000000 	b	3f68 <interrupt_225>

00003f64 <l3798>:
    3f64:	000fffe4 	.word	0x000fffe4

00003f68 <interrupt_225>:
    3f68:	810b7094 	swphi	r7, r4, [fp]

00003f6c <l3800>:
    3f6c:	e39f6ab3 	orrs	r6, pc, #733184	; 0xb3000

00003f70 <l3801>:
    3f70:	e37a0b8a 	cmn	sl, #141312	; 0x22800

00003f74 <l3802>:
    3f74:	e1370061 	teq	r7, r1, rrx

00003f78 <interrupt_539>:
    3f78:	e1dd80b2 	ldrh	r8, [sp, #2]

00003f7c <l3804>:
    3f7c:	e3a0900d 	mov	r9, #13

00003f80 <l3805>:
    3f80:	e7dd2009 	ldrb	r2, [sp, r9]

00003f84 <l3806>:
    3f84:	2063a006 	rsbcs	sl, r3, r6

00003f88 <l3807>:
    3f88:	301a0978 	andscc	r0, sl, r8, ror r9

00003f8c <l3808>:
    3f8c:	e16f8f14 	clz	r8, r4

00003f90 <l3809>:
    3f90:	e59f3000 	ldr	r3, [pc]	; 3f98 <l3811>

00003f94 <l3810>:
    3f94:	ea000000 	b	3f9c <l3812>

00003f98 <l3811>:
    3f98:	000fffe0 	.word	0x000fffe0

00003f9c <l3812>:
    3f9c:	9143a091 	swpbls	sl, r1, [r3]

00003fa0 <l3813>:
    3fa0:	efc6b2d0 	svc	0x00c6b2d0

00003fa4 <interrupt_658>:
    3fa4:	e59f8000 	ldr	r8, [pc]	; 3fac <l3816>

00003fa8 <l3815>:
    3fa8:	ea000000 	b	3fb0 <l3817>

00003fac <l3816>:
    3fac:	000fffac 	.word	0x000fffac

00003fb0 <l3817>:
    3fb0:	5108a09c 	swppl	sl, ip, [r8]

00003fb4 <l3818>:
    3fb4:	080d4c0c 	stmdaeq	sp, {r2, r3, sl, fp, lr}

00003fb8 <interrupt_693>:
    3fb8:	01f0900e 	mvnseq	r9, lr

00003fbc <l3820>:
    3fbc:	e2e6cd36 	rsc	ip, r6, #3456	; 0xd80

00003fc0 <l3821>:
    3fc0:	31f02a19 	mvnscc	r2, r9, lsl sl

00003fc4 <l3822>:
    3fc4:	e04fe7e7 	sub	lr, pc, r7, ror #15

00003fc8 <l3823>:
    3fc8:	71730a8e 	cmnvc	r3, lr, lsl #21

00003fcc <l3824>:
    3fcc:	63812905 	orrvs	r2, r1, #81920	; 0x14000

00003fd0 <l3825>:
    3fd0:	a1560006 	cmpge	r6, r6

00003fd4 <l3826>:
    3fd4:	e1170002 	tst	r7, r2

00003fd8 <l3827>:
    3fd8:	d1ddb1d3 	ldrsble	fp, [sp, #19]

00003fdc <l3828>:
    3fdc:	e59f2000 	ldr	r2, [pc]	; 3fe4 <interrupt_9>

00003fe0 <l3829>:
    3fe0:	ea000000 	b	3fe8 <l3831>

00003fe4 <interrupt_9>:
    3fe4:	000fffcc 	.word	0x000fffcc

00003fe8 <l3831>:
    3fe8:	b142509c 	swpblt	r5, ip, [r2]

00003fec <l3832>:
    3fec:	813a0004 	teqhi	sl, r4

00003ff0 <l3833>:
    3ff0:	e3a06008 	mov	r6, #8

00003ff4 <interrupt_489>:
    3ff4:	b75d8006 	ldrblt	r8, [sp, -r6]

00003ff8 <interrupt_975>:
    3ff8:	d0f82067 	rscsle	r2, r8, r7, rrx

00003ffc <l3836>:
    3ffc:	c133006f 	teqgt	r3, pc, rrx

00004000 <interrupt_817>:
    4000:	e3a0b010 	mov	fp, #16

00004004 <l3838>:
    4004:	775d600b 	ldrbvc	r6, [sp, -fp]

00004008 <l3839>:
    4008:	151dc00c 	ldrne	ip, [sp, #-12]

0000400c <l3840>:
    400c:	e0430211 	sub	r0, r3, r1, lsl r2

00004010 <l3841>:
    4010:	b0584e3b 	subslt	r4, r8, fp, lsr lr

00004014 <interrupt_21>:
    4014:	e37401e7 	cmn	r4, #-1073741767	; 0xc0000039

00004018 <l3843>:
    4018:	e3a0b005 	mov	fp, #5

0000401c <l3844>:
    401c:	37dd600b 	ldrbcc	r6, [sp, fp]

00004020 <interrupt_536>:
    4020:	21d1e65a 	bicscs	lr, r1, sl, asr r6

00004024 <l3846>:
    4024:	e59f2000 	ldr	r2, [pc]	; 402c <l3848>

00004028 <interrupt_57>:
    4028:	ea000000 	b	4030 <l3849>

0000402c <l3848>:
    402c:	000fffd8 	.word	0x000fffd8

00004030 <l3849>:
    4030:	e1425098 	swpb	r5, r8, [r2]

00004034 <l3850>:
    4034:	289d0042 	ldmcs	sp, {r1, r6}

00004038 <l3851>:
    4038:	e2eb9020 	rsc	r9, fp, #32

0000403c <l3852>:
    403c:	017b0060 	cmneq	fp, r0, rrx

00004040 <l3853>:
    4040:	3359000a 	cmpcc	r9, #10

00004044 <interrupt_30>:
    4044:	e0953510 	adds	r3, r5, r0, lsl r5

00004048 <l3855>:
    4048:	e91d1403 	ldmdb	sp, {r0, r1, sl, ip}

0000404c <l3856>:
    404c:	e1c3bb19 	bic	fp, r3, r9, lsl fp

00004050 <l3857>:
    4050:	e1b04444 	asrs	r4, r4, #8

00004054 <interrupt_330>:
    4054:	12cbe0da 	sbcne	lr, fp, #218	; 0xda

00004058 <l3859>:
    4058:	e3a0200c 	mov	r2, #12

0000405c <l3860>:
    405c:	510d10b2 	strhpl	r1, [sp, -r2]

00004060 <l3861>:
    4060:	916f1f1c 	clzls	r1, ip

00004064 <interrupt_323>:
