
exceptions.o:     file format elf32-littlearm


Disassembly of section .text:

00000000 <vectors_start>:
       0:	ea000026 	b	a0 <main>
       4:	ea000007 	b	28 <undef_handler>
       8:	ea00000a 	b	38 <swi_handler>
       c:	ea00000e 	b	4c <prefetch_handler>
      10:	ea000011 	b	5c <dataAbt_handler>
      14:	eafffffe 	b	14 <vectors_start+0x14>
      18:	ea000015 	b	74 <irq_handler>

0000001c <fiq_handler>:
      1c:	e92d13f0 	push	{r4, r5, r6, r7, r8, r9, ip}
      20:	e8dd17e0 	ldm	sp, {r5, r6, r7, r8, r9, sl, ip}^
      24:	e25ef004 	subs	pc, lr, #4

00000028 <undef_handler>:
      28:	e52d4004 	push	{r4}		; (str r4, [sp, #-4]!)
      2c:	e51e4004 	ldr	r4, [lr, #-4]
      30:	e49d4004 	pop	{r4}		; (ldr r4, [sp], #4)
      34:	e1b0f00e 	movs	pc, lr

00000038 <swi_handler>:
      38:	e92d500f 	push	{r0, r1, r2, r3, ip, lr}
      3c:	e51e0004 	ldr	r0, [lr, #-4]
      40:	e3c004ff 	bic	r0, r0, #-16777216	; 0xff000000

00000044 <l0>:
      44:	27d2cc14 	.word	0x27d2cc14
      48:	e8fd900f 	ldm	sp!, {r0, r1, r2, r3, ip, pc}^

0000004c <prefetch_handler>:
      4c:	e52d3004 	push	{r3}		; (str r3, [sp, #-4]!)
      50:	e51e3004 	ldr	r3, [lr, #-4]
      54:	e49d3004 	pop	{r3}		; (ldr r3, [sp], #4)
      58:	e1b0f00e 	movs	pc, lr

0000005c <dataAbt_handler>:
      5c:	e52d5004 	push	{r5}		; (str r5, [sp, #-4]!)
      60:	e51e5008 	ldr	r5, [lr, #-8]
      64:	e3a05000 	mov	r5, #0
      68:	e50e5008 	str	r5, [lr, #-8]
      6c:	e49d5004 	pop	{r5}		; (ldr r5, [sp], #4)
      70:	e25ef008 	subs	pc, lr, #8

00000074 <irq_handler>:
      74:	e52d1004 	push	{r1}		; (str r1, [sp, #-4]!)
      78:	e94d2000 	stmdb	sp, {sp}^
      7c:	e59f100c 	ldr	r1, [pc, #12]	; 90 <UART_DR>
      80:	e5811000 	str	r1, [r1]
      84:	e89d0002 	ldm	sp, {r1}
      88:	e49d1004 	pop	{r1}		; (ldr r1, [sp], #4)
      8c:	e25ef004 	subs	pc, lr, #4

00000090 <UART_DR>:
      90:	16000000 	.word	0x16000000

00000094 <PIC_IRQ_ENCLR>:
      94:	1400000c 	.word	0x1400000c

00000098 <UART0_IMSC>:
      98:	16000038 	.word	0x16000038

0000009c <PIC_IRQ_ENSET>:
      9c:	14000008 	.word	0x14000008

000000a0 <main>:
      a0:	e51f3014 	ldr	r3, [pc, #-20]	; 94 <PIC_IRQ_ENCLR>
      a4:	e3a02002 	mov	r2, #2
      a8:	e5832000 	str	r2, [r3]
      ac:	e51f301c 	ldr	r3, [pc, #-28]	; 98 <UART0_IMSC>
      b0:	e3a02010 	mov	r2, #16
      b4:	e5832000 	str	r2, [r3]
      b8:	e51f3024 	ldr	r3, [pc, #-36]	; 9c <PIC_IRQ_ENSET>
      bc:	e3a02002 	mov	r2, #2
      c0:	e5832000 	str	r2, [r3]
      c4:	e10f0000 	mrs	r0, CPSR
      c8:	e3c000df 	bic	r0, r0, #223	; 0xdf
      cc:	e380001f 	orr	r0, r0, #31
      d0:	e129f000 	msr	CPSR_fc, r0

000000d4 <reg_0_sys>:
      d4:	e59f0000 	ldr	r0, [pc]	; dc <reg_0_sys_val>
      d8:	ea000000 	b	e0 <reg_1_sys>

000000dc <reg_0_sys_val>:
      dc:	bae7cc9d 	.word	0xbae7cc9d

000000e0 <reg_1_sys>:
      e0:	e59f1000 	ldr	r1, [pc]	; e8 <reg_1_sys_val>
      e4:	ea000000 	b	ec <reg_2_sys>

000000e8 <reg_1_sys_val>:
      e8:	eb8c0700 	.word	0xeb8c0700

000000ec <reg_2_sys>:
      ec:	e59f2000 	ldr	r2, [pc]	; f4 <reg_2_sys_val>
      f0:	ea000000 	b	f8 <reg_3_sys>

000000f4 <reg_2_sys_val>:
      f4:	10c83ee1 	.word	0x10c83ee1

000000f8 <reg_3_sys>:
      f8:	e59f3000 	ldr	r3, [pc]	; 100 <reg_3_sys_val>
      fc:	ea000000 	b	104 <reg_4_sys>

00000100 <reg_3_sys_val>:
     100:	5bbda0fe 	.word	0x5bbda0fe

00000104 <reg_4_sys>:
     104:	e59f4000 	ldr	r4, [pc]	; 10c <reg_4_sys_val>
     108:	ea000000 	b	110 <reg_5_sys>

0000010c <reg_4_sys_val>:
     10c:	fc4536a1 	.word	0xfc4536a1

00000110 <reg_5_sys>:
     110:	e59f5000 	ldr	r5, [pc]	; 118 <reg_5_sys_val>
     114:	ea000000 	b	11c <reg_6_sys>

00000118 <reg_5_sys_val>:
     118:	e6e5932b 	.word	0xe6e5932b

0000011c <reg_6_sys>:
     11c:	e59f6000 	ldr	r6, [pc]	; 124 <reg_6_sys_val>
     120:	ea000000 	b	128 <reg_7_sys>

00000124 <reg_6_sys_val>:
     124:	e082c776 	.word	0xe082c776

00000128 <reg_7_sys>:
     128:	e59f7000 	ldr	r7, [pc]	; 130 <reg_7_sys_val>
     12c:	ea000000 	b	134 <reg_8_sys>

00000130 <reg_7_sys_val>:
     130:	c8d1c159 	.word	0xc8d1c159

00000134 <reg_8_sys>:
     134:	e59f8000 	ldr	r8, [pc]	; 13c <reg_8_sys_val>
     138:	ea000000 	b	140 <reg_9_sys>

0000013c <reg_8_sys_val>:
     13c:	e21b64ef 	.word	0xe21b64ef

00000140 <reg_9_sys>:
     140:	e59f9000 	ldr	r9, [pc]	; 148 <reg_9_sys_val>
     144:	ea000000 	b	14c <reg_10_sys>

00000148 <reg_9_sys_val>:
     148:	e44985f6 	.word	0xe44985f6

0000014c <reg_10_sys>:
     14c:	e59fa000 	ldr	sl, [pc]	; 154 <reg_10_sys_val>
     150:	ea000000 	b	158 <reg_11_sys>

00000154 <reg_10_sys_val>:
     154:	4aade1cc 	.word	0x4aade1cc

00000158 <reg_11_sys>:
     158:	e59fb000 	ldr	fp, [pc]	; 160 <reg_11_sys_val>
     15c:	ea000000 	b	164 <reg_12_sys>

00000160 <reg_11_sys_val>:
     160:	79461354 	.word	0x79461354

00000164 <reg_12_sys>:
     164:	e59fc000 	ldr	ip, [pc]	; 16c <reg_12_sys_val>
     168:	ea000000 	b	170 <reg_13_sys>

0000016c <reg_12_sys_val>:
     16c:	05017b61 	.word	0x05017b61

00000170 <reg_13_sys>:
     170:	e59fd000 	ldr	sp, [pc]	; 178 <reg_13_sys_val>
     174:	ea000000 	b	17c <reg_14_sys>

00000178 <reg_13_sys_val>:
     178:	000ffff0 	.word	0x000ffff0

0000017c <reg_14_sys>:
     17c:	e59fe000 	ldr	lr, [pc]	; 184 <reg_14_sys_val>
     180:	ea000000 	b	188 <reg_14_sys_end>

00000184 <reg_14_sys_val>:
     184:	fe1662cf 	.word	0xfe1662cf

00000188 <reg_14_sys_end>:
     188:	e1a00000 	nop			; (mov r0, r0)
     18c:	e10f0000 	mrs	r0, CPSR
     190:	e3c000df 	bic	r0, r0, #223	; 0xdf
     194:	e38000d1 	orr	r0, r0, #209	; 0xd1
     198:	e129f000 	msr	CPSR_fc, r0

0000019c <reg_8_fiq>:
     19c:	e59f8000 	ldr	r8, [pc]	; 1a4 <reg_8_fiq_val>
     1a0:	ea000000 	b	1a8 <reg_9_fiq>

000001a4 <reg_8_fiq_val>:
     1a4:	9e9767bc 	.word	0x9e9767bc

000001a8 <reg_9_fiq>:
     1a8:	e59f9000 	ldr	r9, [pc]	; 1b0 <reg_9_fiq_val>
     1ac:	ea000000 	b	1b4 <reg_10_fiq>

000001b0 <reg_9_fiq_val>:
     1b0:	0a937430 	.word	0x0a937430

000001b4 <reg_10_fiq>:
     1b4:	e59fa000 	ldr	sl, [pc]	; 1bc <reg_10_fiq_val>
     1b8:	ea000000 	b	1c0 <reg_11_fiq>

000001bc <reg_10_fiq_val>:
     1bc:	b8fa679a 	.word	0xb8fa679a

000001c0 <reg_11_fiq>:
     1c0:	e59fb000 	ldr	fp, [pc]	; 1c8 <reg_11_fiq_val>
     1c4:	ea000000 	b	1cc <reg_12_fiq>

000001c8 <reg_11_fiq_val>:
     1c8:	db477410 	.word	0xdb477410

000001cc <reg_12_fiq>:
     1cc:	e59fc000 	ldr	ip, [pc]	; 1d4 <reg_12_fiq_val>
     1d0:	ea000000 	b	1d8 <reg_13_fiq>

000001d4 <reg_12_fiq_val>:
     1d4:	d52a7ad7 	.word	0xd52a7ad7

000001d8 <reg_13_fiq>:
     1d8:	e59fd000 	ldr	sp, [pc]	; 1e0 <reg_13_fiq_val>
     1dc:	ea000000 	b	1e4 <reg_14_fiq>

000001e0 <reg_13_fiq_val>:
     1e0:	001ffff0 	.word	0x001ffff0

000001e4 <reg_14_fiq>:
     1e4:	e59fe000 	ldr	lr, [pc]	; 1ec <reg_14_fiq_val>
     1e8:	ea000000 	b	1f0 <reg_14_fiq_end>

000001ec <reg_14_fiq_val>:
     1ec:	c7d77571 	.word	0xc7d77571

000001f0 <reg_14_fiq_end>:
     1f0:	e1a00000 	nop			; (mov r0, r0)
     1f4:	e10f0000 	mrs	r0, CPSR
     1f8:	e3c000df 	bic	r0, r0, #223	; 0xdf
     1fc:	e3800092 	orr	r0, r0, #146	; 0x92
     200:	e129f000 	msr	CPSR_fc, r0

00000204 <reg_13_irq>:
     204:	e59fd000 	ldr	sp, [pc]	; 20c <reg_13_irq_val>
     208:	ea000000 	b	210 <reg_14_irq>

0000020c <reg_13_irq_val>:
     20c:	002ffff0 	.word	0x002ffff0

00000210 <reg_14_irq>:
     210:	e59fe000 	ldr	lr, [pc]	; 218 <reg_14_irq_val>
     214:	ea000000 	b	21c <reg_14_irq_end>

00000218 <reg_14_irq_val>:
     218:	7666d40c 	.word	0x7666d40c

0000021c <reg_14_irq_end>:
     21c:	e1a00000 	nop			; (mov r0, r0)
     220:	e10f0000 	mrs	r0, CPSR
     224:	e3c000df 	bic	r0, r0, #223	; 0xdf
     228:	e380001b 	orr	r0, r0, #27
     22c:	e129f000 	msr	CPSR_fc, r0

00000230 <reg_13_undef>:
     230:	e59fd000 	ldr	sp, [pc]	; 238 <reg_13_undef_val>
     234:	ea000000 	b	23c <reg_14_undef>

00000238 <reg_13_undef_val>:
     238:	003ffff0 	.word	0x003ffff0

0000023c <reg_14_undef>:
     23c:	e59fe000 	ldr	lr, [pc]	; 244 <reg_14_undef_val>
     240:	ea000000 	b	248 <reg_14_undef_end>

00000244 <reg_14_undef_val>:
     244:	15f90db5 	.word	0x15f90db5

00000248 <reg_14_undef_end>:
     248:	e1a00000 	nop			; (mov r0, r0)
     24c:	e10f0000 	mrs	r0, CPSR
     250:	e3c000df 	bic	r0, r0, #223	; 0xdf
     254:	e3800017 	orr	r0, r0, #23
     258:	e129f000 	msr	CPSR_fc, r0

0000025c <reg_13_abort>:
     25c:	e59fd000 	ldr	sp, [pc]	; 264 <reg_13_abort_val>
     260:	ea000000 	b	268 <reg_14_abort>

00000264 <reg_13_abort_val>:
     264:	004ffff0 	.word	0x004ffff0

00000268 <reg_14_abort>:
     268:	e59fe000 	ldr	lr, [pc]	; 270 <reg_14_abort_val>
     26c:	ea000000 	b	274 <reg_14_abort_end>

00000270 <reg_14_abort_val>:
     270:	991fb1dc 	.word	0x991fb1dc

00000274 <reg_14_abort_end>:
     274:	e1a00000 	nop			; (mov r0, r0)
     278:	e10f0000 	mrs	r0, CPSR
     27c:	e3c000df 	bic	r0, r0, #223	; 0xdf
     280:	e3800013 	orr	r0, r0, #19
     284:	e129f000 	msr	CPSR_fc, r0

00000288 <reg_13_svc>:
     288:	e59fd000 	ldr	sp, [pc]	; 290 <reg_13_svc_val>
     28c:	ea000000 	b	294 <reg_14_svc>

00000290 <reg_13_svc_val>:
     290:	005ffff0 	.word	0x005ffff0

00000294 <reg_14_svc>:
     294:	e59fe000 	ldr	lr, [pc]	; 29c <reg_14_svc_val>
     298:	ea000000 	b	2a0 <reg_14_svc_end>

0000029c <reg_14_svc_val>:
     29c:	a5d961ad 	.word	0xa5d961ad

000002a0 <reg_14_svc_end>:
     2a0:	e1a00000 	nop			; (mov r0, r0)
     2a4:	e10f0000 	mrs	r0, CPSR
     2a8:	e3c000df 	bic	r0, r0, #223	; 0xdf
     2ac:	e380001f 	orr	r0, r0, #31
     2b0:	e129f000 	msr	CPSR_fc, r0
     2b4:	e59f1000 	ldr	r1, [pc]	; 2bc <stack_0_val>
     2b8:	ea000000 	b	2c0 <stack_0>

000002bc <stack_0_val>:
     2bc:	8de8c9cc 	.word	0x8de8c9cc

000002c0 <stack_0>:
     2c0:	e58d1000 	str	r1, [sp]
     2c4:	e59f1000 	ldr	r1, [pc]	; 2cc <stack_1_val>
     2c8:	ea000000 	b	2d0 <stack_1>

000002cc <stack_1_val>:
     2cc:	37a91f9b 	.word	0x37a91f9b

000002d0 <stack_1>:
     2d0:	e50d1004 	str	r1, [sp, #-4]
     2d4:	e59f1000 	ldr	r1, [pc]	; 2dc <stack_2_val>
     2d8:	ea000000 	b	2e0 <stack_2>

000002dc <stack_2_val>:
     2dc:	9d16fea4 	.word	0x9d16fea4

000002e0 <stack_2>:
     2e0:	e50d1008 	str	r1, [sp, #-8]
     2e4:	e59f1000 	ldr	r1, [pc]	; 2ec <stack_3_val>
     2e8:	ea000000 	b	2f0 <stack_3>

000002ec <stack_3_val>:
     2ec:	8210f472 	.word	0x8210f472

000002f0 <stack_3>:
     2f0:	e50d100c 	str	r1, [sp, #-12]
     2f4:	e59f1000 	ldr	r1, [pc]	; 2fc <stack_4_val>
     2f8:	ea000000 	b	300 <stack_4>

000002fc <stack_4_val>:
     2fc:	caee0e0f 	.word	0xcaee0e0f

00000300 <stack_4>:
     300:	e50d1010 	str	r1, [sp, #-16]
     304:	e59f1000 	ldr	r1, [pc]	; 30c <stack_5_val>
     308:	ea000000 	b	310 <stack_5>

0000030c <stack_5_val>:
     30c:	62f6dc94 	.word	0x62f6dc94

00000310 <stack_5>:
     310:	e50d1014 	str	r1, [sp, #-20]
     314:	e59f1000 	ldr	r1, [pc]	; 31c <stack_6_val>
     318:	ea000000 	b	320 <stack_6>

0000031c <stack_6_val>:
     31c:	37049117 	.word	0x37049117

00000320 <stack_6>:
     320:	e50d1018 	str	r1, [sp, #-24]
     324:	e59f1000 	ldr	r1, [pc]	; 32c <stack_7_val>
     328:	ea000000 	b	330 <stack_7>

0000032c <stack_7_val>:
     32c:	10873d0e 	.word	0x10873d0e

00000330 <stack_7>:
     330:	e50d101c 	str	r1, [sp, #-28]
     334:	e59f1000 	ldr	r1, [pc]	; 33c <stack_8_val>
     338:	ea000000 	b	340 <stack_8>

0000033c <stack_8_val>:
     33c:	48304a25 	.word	0x48304a25

00000340 <stack_8>:
     340:	e50d1020 	str	r1, [sp, #-32]
     344:	e59f1000 	ldr	r1, [pc]	; 34c <stack_9_val>
     348:	ea000000 	b	350 <stack_9>

0000034c <stack_9_val>:
     34c:	ae3e079b 	.word	0xae3e079b

00000350 <stack_9>:
     350:	e50d1024 	str	r1, [sp, #-36]	; 0x24
     354:	e59f1000 	ldr	r1, [pc]	; 35c <stack_10_val>
     358:	ea000000 	b	360 <stack_10>

0000035c <stack_10_val>:
     35c:	50e2261e 	.word	0x50e2261e

00000360 <stack_10>:
     360:	e50d1028 	str	r1, [sp, #-40]	; 0x28
     364:	e59f1000 	ldr	r1, [pc]	; 36c <stack_11_val>
     368:	ea000000 	b	370 <stack_11>

0000036c <stack_11_val>:
     36c:	c096d13b 	.word	0xc096d13b

00000370 <stack_11>:
     370:	e50d102c 	str	r1, [sp, #-44]	; 0x2c
     374:	e59f1000 	ldr	r1, [pc]	; 37c <stack_12_val>
     378:	ea000000 	b	380 <stack_12>

0000037c <stack_12_val>:
     37c:	b4c87b7c 	.word	0xb4c87b7c

00000380 <stack_12>:
     380:	e50d1030 	str	r1, [sp, #-48]	; 0x30
     384:	e59f1000 	ldr	r1, [pc]	; 38c <stack_13_val>
     388:	ea000000 	b	390 <stack_13>

0000038c <stack_13_val>:
     38c:	fd643fde 	.word	0xfd643fde

00000390 <stack_13>:
     390:	e50d1034 	str	r1, [sp, #-52]	; 0x34
     394:	e59f1000 	ldr	r1, [pc]	; 39c <stack_14_val>
     398:	ea000000 	b	3a0 <stack_14>

0000039c <stack_14_val>:
     39c:	7da97699 	.word	0x7da97699

000003a0 <stack_14>:
     3a0:	e50d1038 	str	r1, [sp, #-56]	; 0x38
     3a4:	e59f1000 	ldr	r1, [pc]	; 3ac <stack_15_val>
     3a8:	ea000000 	b	3b0 <stack_15>

000003ac <stack_15_val>:
     3ac:	1a58756c 	.word	0x1a58756c

000003b0 <stack_15>:
     3b0:	e50d103c 	str	r1, [sp, #-60]	; 0x3c
     3b4:	e59f1000 	ldr	r1, [pc]	; 3bc <stack_16_val>
     3b8:	ea000000 	b	3c0 <stack_16>

000003bc <stack_16_val>:
     3bc:	1d0f908d 	.word	0x1d0f908d

000003c0 <stack_16>:
     3c0:	e50d1040 	str	r1, [sp, #-64]	; 0x40
     3c4:	e59f1000 	ldr	r1, [pc]	; 3cc <stack_17_val>
     3c8:	ea000000 	b	3d0 <stack_17>

000003cc <stack_17_val>:
     3cc:	122c3a38 	.word	0x122c3a38

000003d0 <stack_17>:
     3d0:	e50d1044 	str	r1, [sp, #-68]	; 0x44
     3d4:	e59f1000 	ldr	r1, [pc]	; 3dc <stack_18_val>
     3d8:	ea000000 	b	3e0 <stack_18>

000003dc <stack_18_val>:
     3dc:	fc9a69fc 	.word	0xfc9a69fc

000003e0 <stack_18>:
     3e0:	e50d1048 	str	r1, [sp, #-72]	; 0x48
     3e4:	e59f1000 	ldr	r1, [pc]	; 3ec <stack_19_val>
     3e8:	ea000000 	b	3f0 <stack_19>

000003ec <stack_19_val>:
     3ec:	dbfbada0 	.word	0xdbfbada0

000003f0 <stack_19>:
     3f0:	e50d104c 	str	r1, [sp, #-76]	; 0x4c
     3f4:	e59f1000 	ldr	r1, [pc]	; 3fc <stack_20_val>
     3f8:	ea000000 	b	400 <stack_20>

000003fc <stack_20_val>:
     3fc:	f4c32021 	.word	0xf4c32021

00000400 <stack_20>:
     400:	e50d1050 	str	r1, [sp, #-80]	; 0x50
     404:	e10f0000 	mrs	r0, CPSR
     408:	e3c000df 	bic	r0, r0, #223	; 0xdf
     40c:	e3800010 	orr	r0, r0, #16
     410:	e129f000 	msr	CPSR_fc, r0

00000414 <interrupt_767>:
     414:	22b80e56 	adcscs	r0, r8, #1376	; 0x560

00000418 <l2>:
     418:	515d64b4 	ldrhpl	r6, [sp, #-68]	; 0xffffffbc

0000041c <l3>:
     41c:	60f4a005 	rscsvs	sl, r4, r5

00000420 <l4>:
     420:	ef7f685e 	svc	0x007f685e

00000424 <l5>:
     424:	e50da014 	str	sl, [sp, #-20]

00000428 <l6>:
     428:	355d6033 	ldrbcc	r6, [sp, #-51]	; 0x33

0000042c <l7>:
     42c:	e14d52b6 	strh	r5, [sp, #-38]	; 0xffffffda

00000430 <l8>:
     430:	727e1ef5 	rsbsvc	r1, lr, #3920	; 0xf50

00000434 <l9>:
     434:	650db028 	strvs	fp, [sp, #-40]	; 0x28

00000438 <l10>:
     438:	e3a0a04e 	mov	sl, #78	; 0x4e

0000043c <interrupt_933>:
     43c:	e11dc0fa 	ldrsh	ip, [sp, -sl]

00000440 <l12>:
     440:	62e04622 	rscvs	r4, r0, #35651584	; 0x2200000

00000444 <l13>:
     444:	e3a00010 	mov	r0, #16

00000448 <interrupt_323>:
     448:	e10d20b0 	strh	r2, [sp, -r0]

0000044c <interrupt_833>:
     44c:	e92d2000 	stmfd	sp!, {sp}

00000450 <l16>:
     450:	e3a0702a 	mov	r7, #42	; 0x2a

00000454 <l17>:
     454:	711d50f7 	ldrshvc	r5, [sp, -r7]

00000458 <l18>:
     458:	e1130589 	tst	r3, r9, lsl #11

0000045c <l19>:
     45c:	4131063c 	teqmi	r1, ip, lsr r6

00000460 <l20>:
     460:	ea000007 	b	484 <l29>

00000464 <l21>:
     464:	e13a0001 	teq	sl, r1

00000468 <interrupt_918>:
     468:	60b0a065 	adcsvs	sl, r0, r5, rrx

0000046c <l23>:
     46c:	e1c0b005 	bic	fp, r0, r5

00000470 <l24>:
     470:	e16f3f12 	clz	r3, r2

00000474 <l25>:
     474:	e1780b69 	cmn	r8, r9, ror #22

00000478 <l26>:
     478:	20fa15aa 	rscscs	r1, sl, sl, lsr #11

0000047c <l27>:
     47c:	e1540001 	cmp	r4, r1

00000480 <l28>:
     480:	b24a3cab 	sublt	r3, sl, #43776	; 0xab00

00000484 <l29>:
     484:	61b03067 	rrxsvs	r3, r7

00000488 <interrupt_681>:
     488:	e83d5bff 	ldmda	sp!, {r0, r1, r2, r3, r4, r5, r6, r7, r8, r9, fp, ip, lr}

0000048c <l31>:
     48c:	c0130b74 	andsgt	r0, r3, r4, ror fp

00000490 <l32>:
     490:	42c93d27 	sbcmi	r3, r9, #2496	; 0x9c0

00000494 <l33>:
     494:	7a000005 	bvc	4b0 <l40>

00000498 <l34>:
     498:	e280107c 	add	r1, r0, #124	; 0x7c

0000049c <l35>:
     49c:	51e05704 	mvnpl	r5, r4, lsl #14

000004a0 <interrupt_795>:
     4a0:	e116000f 	tst	r6, pc

000004a4 <l37>:
     4a4:	61120031 	tstvs	r2, r1, lsr r0

000004a8 <l38>:
     4a8:	a0858007 	addge	r8, r5, r7

000004ac <l39>:
     4ac:	ea000000 	b	4b4 <l41>

000004b0 <l40>:
     4b0:	eafffff9 	b	49c <l35>

000004b4 <l41>:
     4b4:	d5cd500f 	strble	r5, [sp, #15]

000004b8 <l42>:
     4b8:	62c4ecf2 	sbcvs	lr, r4, #61952	; 0xf200

000004bc <l43>:
     4bc:	e59fb000 	ldr	fp, [pc]	; 4c4 <l45>

000004c0 <l44>:
     4c0:	ea000000 	b	4c8 <l46>

000004c4 <l45>:
     4c4:	000fffa0 	.word	0x000fffa0

000004c8 <l46>:
     4c8:	e10ba097 	swp	sl, r7, [fp]

000004cc <l47>:
     4cc:	b049400c 	sublt	r4, r9, ip

000004d0 <l48>:
     4d0:	efa5659d 	svc	0x00a5659d

000004d4 <l49>:
     4d4:	33f09c72 	mvnscc	r9, #29184	; 0x7200

000004d8 <l50>:
     4d8:	ff141d5e 	.word	0xff141d5e

000004dc <l51>:
     4dc:	e59f8000 	ldr	r8, [pc]	; 4e4 <interrupt_516>

000004e0 <l52>:
     4e0:	ea000000 	b	4e8 <l54>

000004e4 <interrupt_516>:
     4e4:	000fffa0 	.word	0x000fffa0

000004e8 <l54>:
     4e8:	e148109e 	swpb	r1, lr, [r8]

000004ec <interrupt_545>:
     4ec:	516f0f15 	clzpl	r0, r5

000004f0 <l56>:
     4f0:	ea000002 	b	500 <l60>

000004f4 <l57>:
     4f4:	e28010c5 	add	r1, r0, #197	; 0xc5

000004f8 <l58>:
     4f8:	416f2f13 	clzmi	r2, r3

000004fc <l59>:
     4fc:	ea000000 	b	504 <l61>

00000500 <l60>:
     500:	eafffffc 	b	4f8 <l58>

00000504 <l61>:
     504:	ea000000 	b	50c <l63>

00000508 <interrupt_557>:
     508:	31e0800e 	mvncc	r8, lr

0000050c <l63>:
     50c:	e197400b 	orrs	r4, r7, fp

00000510 <l64>:
     510:	11120005 	tstne	r2, r5

00000514 <l65>:
     514:	21a09000 	movcs	r9, r0

00000518 <l66>:
     518:	55ddc012 	ldrbpl	ip, [sp, #18]

0000051c <l67>:
     51c:	e1dd00d4 	ldrsb	r0, [sp, #4]

00000520 <l68>:
     520:	61db400e 	bicsvs	r4, fp, lr

00000524 <l69>:
     524:	717e0062 	cmnvc	lr, r2, rrx

00000528 <l70>:
     528:	b51d8004 	ldrlt	r8, [sp, #-4]

0000052c <l71>:
     52c:	d1f0400b 	mvnsle	r4, fp

00000530 <l72>:
     530:	e55db00e 	ldrb	fp, [sp, #-14]

00000534 <l73>:
     534:	b33b0b0a 	teqlt	fp, #10240	; 0x2800

00000538 <l74>:
     538:	e3a06029 	mov	r6, #41	; 0x29

0000053c <l75>:
     53c:	d19d30d6 	ldrsble	r3, [sp, r6]

00000540 <l76>:
     540:	e1a00000 	nop			; (mov r0, r0)

00000544 <l77>:
     544:	d2a9241e 	adcle	r2, r9, #503316480	; 0x1e000000

00000548 <interrupt_231>:
     548:	e59f6000 	ldr	r6, [pc]	; 550 <l80>

0000054c <l79>:
     54c:	ea000000 	b	554 <l81>

00000550 <l80>:
     550:	000fffe8 	.word	0x000fffe8

00000554 <l81>:
     554:	e146c092 	swpb	ip, r2, [r6]

00000558 <l82>:
     558:	e93d400a 	ldmdb	sp!, {r1, r3, lr}

0000055c <l83>:
     55c:	e1908a70 	orrs	r8, r0, r0, ror sl

00000560 <l84>:
     560:	4134006a 	teqmi	r4, sl, rrx

00000564 <l85>:
     564:	90432006 	subls	r2, r3, r6

00000568 <interrupt_360>:
     568:	91e09004 	mvnls	r9, r4

0000056c <l87>:
     56c:	ea000006 	b	58c <l95>

00000570 <l88>:
     570:	e280106b 	add	r1, r0, #107	; 0x6b

00000574 <l89>:
     574:	72fce412 	rscsvc	lr, ip, #301989888	; 0x12000000

00000578 <interrupt_259>:
     578:	a0c18066 	sbcge	r8, r1, r6, rrx

0000057c <l91>:
     57c:	b3da10c0 	bicslt	r1, sl, #192	; 0xc0

00000580 <l92>:
     580:	e2c0553a 	sbc	r5, r0, #243269632	; 0xe800000

00000584 <l93>:
     584:	c1130006 	tstgt	r3, r6

00000588 <l94>:
     588:	ea000000 	b	590 <l96>

0000058c <l95>:
     58c:	eafffff8 	b	574 <l89>

00000590 <l96>:
     590:	774d6f55 	.word	0x774d6f55

00000594 <l97>:
     594:	e5cd1028 	strb	r1, [sp, #40]	; 0x28

00000598 <l98>:
     598:	e3a0b008 	mov	fp, #8

0000059c <l99>:
     59c:	e19d10fb 	ldrsh	r1, [sp, fp]

000005a0 <l100>:
     5a0:	ef6ad7ea 	svc	0x006ad7ea

000005a4 <l101>:
     5a4:	e3b0e36b 	movs	lr, #-1409286143	; 0xac000001

000005a8 <interrupt_276>:
     5a8:	e381eebe 	orr	lr, r1, #3040	; 0xbe0

000005ac <l103>:
     5ac:	f8a1c655 	.word	0xf8a1c655

000005b0 <l104>:
     5b0:	d33c003c 	teqle	ip, #60	; 0x3c

000005b4 <interrupt_92>:
     5b4:	e48d4020 	str	r4, [sp], #32

000005b8 <interrupt_143>:
     5b8:	71700070 	cmnvc	r0, r0, ror r0

000005bc <l107>:
     5bc:	c15dc2f0 	ldrshgt	ip, [sp, #-32]	; 0xffffffe0

000005c0 <l108>:
     5c0:	e045a719 	sub	sl, r5, r9, lsl r7

000005c4 <interrupt_819>:
     5c4:	e3e072f3 	mvn	r7, #805306383	; 0x3000000f

000005c8 <l110>:
     5c8:	e59fe000 	ldr	lr, [pc]	; 5d0 <l112>

000005cc <interrupt_74>:
     5cc:	ea000000 	b	5d4 <l113>

000005d0 <l112>:
     5d0:	000fffe4 	.word	0x000fffe4

000005d4 <l113>:
     5d4:	e14e009b 	swpb	r0, fp, [lr]

000005d8 <l114>:
     5d8:	50575002 	subspl	r5, r7, r2

000005dc <interrupt_530>:
     5dc:	efbccdc5 	svc	0x00bccdc5

000005e0 <l116>:
     5e0:	ef675edf 	svc	0x00675edf

000005e4 <interrupt_505>:
     5e4:	e3a0c010 	mov	ip, #16

000005e8 <l118>:
     5e8:	e73d000c 	ldr	r0, [sp, -ip]!

000005ec <l119>:
     5ec:	91e0e063 	mvnls	lr, r3, rrx

000005f0 <l120>:
     5f0:	b0a53002 	adclt	r3, r5, r2

000005f4 <l121>:
     5f4:	e1a07a2e 	lsr	r7, lr, #20

000005f8 <l122>:
     5f8:	f9c6fed5 	.word	0xf9c6fed5

000005fc <l123>:
     5fc:	ef2ea53d 	svc	0x002ea53d

00000600 <l124>:
     600:	11120065 	tstne	r2, r5, rrx

00000604 <l125>:
     604:	e1f037ef 	mvns	r3, pc, ror #15

00000608 <l126>:
     608:	e59f0000 	ldr	r0, [pc]	; 610 <l128>

0000060c <interrupt_571>:
     60c:	ea000000 	b	614 <l129>

00000610 <l128>:
     610:	000fffd8 	.word	0x000fffd8

00000614 <l129>:
     614:	e100c09b 	swp	ip, fp, [r0]

00000618 <l130>:
     618:	e53d000c 	ldr	r0, [sp, #-12]!

0000061c <interrupt_15>:
     61c:	d1d62f41 	bicsle	r2, r6, r1, asr #30

00000620 <l132>:
     620:	05cdb01c 	strbeq	fp, [sp, #28]

00000624 <l133>:
     624:	efe87ed7 	svc	0x00e87ed7

00000628 <l134>:
     628:	016faf11 	clzeq	sl, r1

0000062c <l135>:
     62c:	e59f2000 	ldr	r2, [pc]	; 634 <l137>

00000630 <l136>:
     630:	ea000000 	b	638 <l138>

00000634 <l137>:
     634:	000fffe0 	.word	0x000fffe0

00000638 <l138>:
     638:	41429093 	swpbmi	r9, r3, [r2]

0000063c <l139>:
     63c:	e05f26c6 	subs	r2, pc, r6, asr #13

00000640 <l140>:
     640:	c0907570 	addsgt	r7, r0, r0, ror r5

00000644 <interrupt_559>:
     644:	e3a00024 	mov	r0, #36	; 0x24

00000648 <l142>:
     648:	e69d1000 	ldr	r1, [sp], r0

0000064c <l143>:
     64c:	e3a0c01c 	mov	ip, #28

00000650 <l144>:
     650:	775d200c 	ldrbvc	r2, [sp, -ip]

00000654 <l145>:
     654:	fffecc7f 	.word	0xfffecc7f

00000658 <l146>:
     658:	881d0964 	ldmdahi	sp, {r2, r5, r6, r8, fp}

0000065c <interrupt_225>:
     65c:	f34799f0 	.word	0xf34799f0

00000660 <l148>:
     660:	e50d701c 	str	r7, [sp, #-28]

00000664 <interrupt_223>:
     664:	e0d8b6e7 	sbcs	fp, r8, r7, ror #13

00000668 <l150>:
     668:	b2e976eb 	rsclt	r7, r9, #246415360	; 0xeb00000

0000066c <l151>:
     66c:	e28a2a05 	add	r2, sl, #20480	; 0x5000

00000670 <l152>:
     670:	62c7c101 	sbcvs	ip, r7, #1073741824	; 0x40000000

00000674 <l153>:
     674:	7a000003 	bvc	688 <l158>

00000678 <l154>:
     678:	e28010bc 	add	r1, r0, #188	; 0xbc

0000067c <interrupt_267>:
     67c:	417e0feb 	cmnmi	lr, fp, ror #31

00000680 <interrupt_615>:
     680:	416f6f17 	clzmi	r6, r7

00000684 <l157>:
     684:	ea000000 	b	68c <interrupt_947>

00000688 <l158>:
     688:	eafffffb 	b	67c <interrupt_267>

0000068c <interrupt_947>:
     68c:	e229e491 	eor	lr, r9, #-1862270976	; 0x91000000

00000690 <l160>:
     690:	e5dd3001 	ldrb	r3, [sp, #1]

00000694 <l161>:
     694:	421e1d45 	andsmi	r1, lr, #4416	; 0x1140

00000698 <l162>:
     698:	308b9b1a 	addcc	r9, fp, sl, lsl fp

0000069c <l163>:
     69c:	e15d80be 	ldrh	r8, [sp, #-14]

000006a0 <l164>:
     6a0:	e3a01004 	mov	r1, #4

000006a4 <l165>:
     6a4:	e68d3001 	str	r3, [sp], r1

000006a8 <l166>:
     6a8:	c16f1f17 	clzgt	r1, r7

000006ac <l167>:
     6ac:	e59f9000 	ldr	r9, [pc]	; 6b4 <l169>

000006b0 <l168>:
     6b0:	ea000000 	b	6b8 <l170>

000006b4 <l169>:
     6b4:	000fffb8 	.word	0x000fffb8

000006b8 <l170>:
     6b8:	e109509e 	swp	r5, lr, [r9]

000006bc <l171>:
     6bc:	e3a0400e 	mov	r4, #14

000006c0 <l172>:
     6c0:	618d50b4 	strhvs	r5, [sp, r4]

000006c4 <interrupt_232>:
     6c4:	e350008e 	cmp	r0, #142	; 0x8e

000006c8 <interrupt_788>:
     6c8:	e16fbf1c 	clz	fp, ip

000006cc <l175>:
     6cc:	ea000005 	b	6e8 <l182>

000006d0 <l176>:
     6d0:	e280101e 	add	r1, r0, #30

000006d4 <l177>:
     6d4:	e16f1f17 	clz	r1, r7

000006d8 <l178>:
     6d8:	c16fcf10 	clzgt	ip, r0

000006dc <l179>:
     6dc:	e234ac1d 	eors	sl, r4, #7424	; 0x1d00

000006e0 <l180>:
     6e0:	b1170006 	tstlt	r7, r6

000006e4 <l181>:
     6e4:	ea000000 	b	6ec <interrupt_852>

000006e8 <l182>:
     6e8:	eafffff9 	b	6d4 <l177>

000006ec <interrupt_852>:
     6ec:	e54d201f 	strb	r2, [sp, #-31]

000006f0 <l184>:
     6f0:	96b0d593 	.word	0x96b0d593

000006f4 <l185>:
     6f4:	f84b096d 	.word	0xf84b096d

000006f8 <l186>:
     6f8:	e0503b73 	subs	r3, r0, r3, ror fp

000006fc <l187>:
     6fc:	e18cb004 	orr	fp, ip, r4

00000700 <interrupt_185>:
     700:	e3a00026 	mov	r0, #38	; 0x26

00000704 <l189>:
     704:	911d00f0 	ldrshls	r0, [sp, -r0]

00000708 <l190>:
     708:	60fa2579 	rscsvs	r2, sl, r9, ror r5

0000070c <l191>:
     70c:	ca000003 	bgt	720 <l196>

00000710 <interrupt_869>:
     710:	4050ca5c 	subsmi	ip, r0, ip, asr sl

00000714 <l193>:
     714:	e05b4006 	subs	r4, fp, r6

00000718 <l194>:
     718:	d0442005 	suble	r2, r4, r5

0000071c <interrupt_288>:
     71c:	e0e01b15 	rsc	r1, r0, r5, lsl fp

00000720 <l196>:
     720:	22a67b2d 	adccs	r7, r6, #46080	; 0xb400

00000724 <l197>:
     724:	0026c784 	eoreq	ip, r6, r4, lsl #15

00000728 <interrupt_718>:
     728:	e21458a5 	ands	r5, r4, #10813440	; 0xa50000

0000072c <l199>:
     72c:	efad317c 	svc	0x00ad317c

00000730 <l200>:
     730:	f806134e 	.word	0xf806134e

00000734 <l201>:
     734:	71cdb0b2 	strhvc	fp, [sp, #2]

00000738 <l202>:
     738:	e16f3f19 	clz	r3, r9

0000073c <l203>:
     73c:	b1100001 	tstlt	r0, r1

00000740 <l204>:
     740:	e063a00e 	rsb	sl, r3, lr

00000744 <interrupt_102>:
     744:	615d01d9 	ldrsbvs	r0, [sp, #-25]	; 0xffffffe7

00000748 <interrupt_888>:
     748:	e89d0246 	ldm	sp, {r1, r2, r6, r9}

0000074c <l207>:
     74c:	e3a0a00c 	mov	sl, #12

00000750 <l208>:
     750:	e60d900a 	str	r9, [sp], -sl

00000754 <l209>:
     754:	e82d2000 	stmda	sp!, {sp}

00000758 <l210>:
     758:	e0fa0158 	rscs	r0, sl, r8, asr r1

0000075c <l211>:
     75c:	e1800006 	orr	r0, r0, r6

00000760 <l212>:
     760:	e3a0300a 	mov	r3, #10

00000764 <interrupt_227>:
     764:	a10d20b3 	strhge	r2, [sp, -r3]

00000768 <l214>:
     768:	e59fe000 	ldr	lr, [pc]	; 770 <l216>

0000076c <l215>:
     76c:	ea000000 	b	774 <l217>

00000770 <l216>:
     770:	000fffe4 	.word	0x000fffe4

00000774 <l217>:
     774:	e10e7098 	swp	r7, r8, [lr]

00000778 <l218>:
     778:	e3a04012 	mov	r4, #18

0000077c <l219>:
     77c:	c74d1004 	strbgt	r1, [sp, -r4]

00000780 <l220>:
     780:	f1a50348 	.word	0xf1a50348

00000784 <l221>:
     784:	e3a0701c 	mov	r7, #28

00000788 <l222>:
     788:	e19d50d7 	ldrsb	r5, [sp, r7]

0000078c <l223>:
     78c:	a3f00b1e 	mvnsge	r0, #30720	; 0x7800

00000790 <l224>:
     790:	80186008 	andshi	r6, r8, r8

00000794 <l225>:
     794:	33439a0e 	.word	0x33439a0e

00000798 <l226>:
     798:	efe4e89e 	svc	0x00e4e89e

0000079c <l227>:
     79c:	800ec005 	andhi	ip, lr, r5

000007a0 <l228>:
     7a0:	e9ad884e 	stmib	sp!, {r1, r2, r3, r6, fp, pc}

000007a4 <l229>:
     7a4:	5678f5fe 	.word	0x5678f5fe

000007a8 <l230>:
     7a8:	3343171d 	.word	0x3343171d

000007ac <interrupt_24>:
     7ac:	e0688c28 	rsb	r8, r8, r8, lsr #24

000007b0 <l232>:
     7b0:	e027e00b 	eor	lr, r7, fp

000007b4 <l233>:
     7b4:	316faf1b 	clzcc	sl, fp

000007b8 <interrupt_657>:
     7b8:	c1590ce7 	cmpgt	r9, r7, ror #25

000007bc <l235>:
     7bc:	60e7cba5 	rscvs	ip, r7, r5, lsr #23

000007c0 <l236>:
     7c0:	e1dda0ba 	ldrh	sl, [sp, #10]

000007c4 <l237>:
     7c4:	31f0935e 	mvnscc	r9, lr, asr r3

000007c8 <l238>:
     7c8:	c16faf17 	clzgt	sl, r7

000007cc <l239>:
     7cc:	81925006 	orrshi	r5, r2, r6

000007d0 <l240>:
     7d0:	e59f7000 	ldr	r7, [pc]	; 7d8 <l242>

000007d4 <l241>:
     7d4:	ea000000 	b	7dc <l243>

000007d8 <l242>:
     7d8:	000fffb8 	.word	0x000fffb8

000007dc <l243>:
     7dc:	41070094 	swpmi	r0, r4, [r7]

000007e0 <interrupt_949>:
     7e0:	e3980449 	orrs	r0, r8, #1224736768	; 0x49000000

000007e4 <l245>:
     7e4:	e1a00000 	nop			; (mov r0, r0)

000007e8 <interrupt_780>:
     7e8:	e8ad0200 	stmia	sp!, {r9}

000007ec <l247>:
     7ec:	b0fc2276 	rscslt	r2, ip, r6, ror r2

000007f0 <l248>:
     7f0:	918f6001 	orrls	r6, pc, r1

000007f4 <interrupt_273>:
     7f4:	e16fcf18 	clz	ip, r8

000007f8 <l250>:
     7f8:	e0800ee6 	add	r0, r0, r6, ror #29

000007fc <l251>:
     7fc:	eff04c8b 	svc	0x00f04c8b

00000800 <l252>:
     800:	e16fef1e 	clz	lr, lr

00000804 <l253>:
     804:	9056706c 	subsls	r7, r6, ip, rrx

00000808 <l254>:
     808:	e55dc03e 	ldrb	ip, [sp, #-62]	; 0x3e

0000080c <l255>:
     80c:	e1801068 	orr	r1, r0, r8, rrx

00000810 <l256>:
     810:	e59fc000 	ldr	ip, [pc]	; 818 <interrupt_203>

00000814 <l257>:
     814:	ea000000 	b	81c <interrupt_260>

00000818 <interrupt_203>:
     818:	000fffa8 	.word	0x000fffa8

0000081c <interrupt_260>:
     81c:	414c4099 	swpbmi	r4, r9, [ip]

00000820 <l260>:
     820:	e54db030 	strb	fp, [sp, #-48]	; 0x30

00000824 <l261>:
     824:	e3a0902d 	mov	r9, #45	; 0x2d

00000828 <l262>:
     828:	e75d6009 	ldrb	r6, [sp, -r9]

0000082c <l263>:
     82c:	80871008 	addhi	r1, r7, r8

00000830 <l264>:
     830:	705ac069 	subsvc	ip, sl, r9, rrx

00000834 <l265>:
     834:	ea000004 	b	84c <l271>

00000838 <l266>:
     838:	e2801003 	add	r1, r0, #3

0000083c <l267>:
     83c:	e0a3a943 	adc	sl, r3, r3, asr #18

00000840 <l268>:
     840:	32ba1237 	adcscc	r1, sl, #1879048195	; 0x70000003

00000844 <l269>:
     844:	403272ca 	eorsmi	r7, r2, sl, asr #5

00000848 <interrupt_157>:
     848:	ea000000 	b	850 <interrupt_744>

0000084c <l271>:
     84c:	eafffffa 	b	83c <l267>

00000850 <interrupt_744>:
     850:	e3a0903a 	mov	r9, #58	; 0x3a

00000854 <interrupt_920>:
     854:	511d60f9 	ldrshpl	r6, [sp, -r9]

00000858 <l274>:
     858:	e044ca58 	sub	ip, r4, r8, asr sl

0000085c <l275>:
     85c:	a2a53c95 	adcge	r3, r5, #38144	; 0x9500

00000860 <l276>:
     860:	d16faf16 	clzle	sl, r6

00000864 <interrupt_520>:
     864:	e82d9ac1 	stmda	sp!, {r0, r6, r7, r9, fp, ip, pc}

00000868 <l278>:
     868:	d17c000a 	cmnle	ip, sl

0000086c <l279>:
     86c:	e0eac005 	rsc	ip, sl, r5

00000870 <l280>:
     870:	b98d07b4 	stmiblt	sp, {r2, r4, r5, r7, r8, r9, sl}

00000874 <interrupt_21>:
     874:	e11b0006 	tst	fp, r6

00000878 <l282>:
     878:	53e037fa 	mvnpl	r3, #65536000	; 0x3e80000

0000087c <l283>:
     87c:	e1e0c000 	mvn	ip, r0

00000880 <l284>:
     880:	e41d4004 	ldr	r4, [sp], #-4

00000884 <l285>:
     884:	3003a809 	andcc	sl, r3, r9, lsl #16

00000888 <l286>:
     888:	e8bd5381 	pop	{r0, r7, r8, r9, ip, lr}

0000088c <l287>:
     88c:	e82d1031 	stmda	sp!, {r0, r4, r5, ip}

00000890 <l288>:
     890:	e3a04010 	mov	r4, #16

00000894 <l289>:
     894:	e10d60b4 	strh	r6, [sp, -r4]

00000898 <l290>:
     898:	015900a2 	cmpeq	r9, r2, lsr #1

0000089c <l291>:
     89c:	e1cd51b4 	strh	r5, [sp, #20]

000008a0 <l292>:
     8a0:	ef5f3df6 	svc	0x005f3df6

000008a4 <interrupt_155>:
     8a4:	b0dba002 	sbcslt	sl, fp, r2

000008a8 <interrupt_320>:
     8a8:	87204ef3 	.word	0x87204ef3

000008ac <l295>:
     8ac:	e82d0600 	stmda	sp!, {r9, sl}

000008b0 <l296>:
     8b0:	e15d61d2 	ldrsb	r6, [sp, #-18]	; 0xffffffee

000008b4 <l297>:
     8b4:	e59f2000 	ldr	r2, [pc]	; 8bc <l299>

000008b8 <l298>:
     8b8:	ea000000 	b	8c0 <l300>

000008bc <l299>:
     8bc:	000fffe4 	.word	0x000fffe4

000008c0 <l300>:
     8c0:	1102e090 	swpne	lr, r0, [r2]

000008c4 <l301>:
     8c4:	e8bd49e2 	pop	{r1, r5, r6, r7, r8, fp, lr}

000008c8 <l302>:
     8c8:	151db010 	ldrne	fp, [sp, #-16]

000008cc <interrupt_879>:
     8cc:	b17a0004 	cmnlt	sl, r4

000008d0 <l304>:
     8d0:	ea000005 	b	8ec <l311>

000008d4 <l305>:
     8d4:	e0d8441e 	sbcs	r4, r8, lr, lsl r4

000008d8 <l306>:
     8d8:	b1790e36 	cmnlt	r9, r6, lsr lr

000008dc <l307>:
     8dc:	3068b00e 	rsbcc	fp, r8, lr

000008e0 <l308>:
     8e0:	e1b01061 	rrxs	r1, r1

000008e4 <l309>:
     8e4:	900e1a12 	andls	r1, lr, r2, lsl sl

000008e8 <l310>:
     8e8:	e16f2f18 	clz	r2, r8

000008ec <l311>:
     8ec:	d0360e39 	eorsle	r0, r6, r9, lsr lr

000008f0 <l312>:
     8f0:	211c0f2e 	tstcs	ip, lr, lsr #30

000008f4 <l313>:
     8f4:	e3a0702a 	mov	r7, #42	; 0x2a

000008f8 <l314>:
     8f8:	d11db0d7 	ldrsble	fp, [sp, -r7]

000008fc <l315>:
     8fc:	c15d42fa 	ldrshgt	r4, [sp, #-42]	; 0xffffffd6

00000900 <interrupt_112>:
     900:	91c2b061 	bicls	fp, r2, r1, rrx

00000904 <l317>:
     904:	ef36b8fe 	svc	0x0036b8fe

00000908 <l318>:
     908:	e0f2b610 	rscs	fp, r2, r0, lsl r6

0000090c <l319>:
     90c:	ca000004 	bgt	924 <l325>

00000910 <interrupt_377>:
     910:	e1a08962 	ror	r8, r2, #18

00000914 <l321>:
     914:	20e98b3c 	rsccs	r8, r9, ip, lsr fp

00000918 <l322>:
     918:	90a9063b 	adcls	r0, r9, fp, lsr r6

0000091c <l323>:
     91c:	80e76009 	rschi	r6, r7, r9

00000920 <l324>:
     920:	922852ad 	eorls	r5, r8, #-805306358	; 0xd000000a

00000924 <l325>:
     924:	20d20aaa 	sbcscs	r0, r2, sl, lsr #21

00000928 <l326>:
     928:	e1510dc4 	cmp	r1, r4, asr #27

0000092c <interrupt_492>:
     92c:	2a000001 	bcs	938 <l330>

00000930 <l328>:
     930:	d18ee414 	orrle	lr, lr, r4, lsl r4

00000934 <l329>:
     934:	e0be8039 	adcs	r8, lr, r9, lsr r0

00000938 <l330>:
     938:	e0055a14 	and	r5, r5, r4, lsl sl

0000093c <l331>:
     93c:	2382a522 	orrcs	sl, r2, #142606336	; 0x8800000

00000940 <l332>:
     940:	2096cc5e 	addscs	ip, r6, lr, asr ip

00000944 <l333>:
     944:	515d70fc 	ldrshpl	r7, [sp, #-12]

00000948 <interrupt_67>:
     948:	0176000e 	cmneq	r6, lr

0000094c <interrupt_124>:
     94c:	e27aa038 	rsbs	sl, sl, #56	; 0x38

00000950 <l336>:
     950:	e1cc706f 	bic	r7, ip, pc, rrx

00000954 <l337>:
     954:	e3a09009 	mov	r9, #9

00000958 <interrupt_418>:
     958:	27dd1009 	ldrbcs	r1, [sp, r9]

0000095c <l339>:
     95c:	f9645f2b 	.word	0xf9645f2b

00000960 <l340>:
     960:	e40d9028 	str	r9, [sp], #-40	; 0x28

00000964 <interrupt_148>:
     964:	b05fc6ce 	subslt	ip, pc, lr, asr #13

00000968 <l342>:
     968:	e15d50b2 	ldrh	r5, [sp, #-2]

0000096c <l343>:
     96c:	41cde1b6 	strhmi	lr, [sp, #22]

00000970 <l344>:
     970:	90df1006 	sbcsls	r1, pc, r6

00000974 <l345>:
     974:	f06b6c4d 	.word	0xf06b6c4d

00000978 <l346>:
     978:	ef85580f 	svc	0x0085580f

0000097c <l347>:
     97c:	e59f2000 	ldr	r2, [pc]	; 984 <l349>

00000980 <l348>:
     980:	ea000000 	b	988 <interrupt_152>

00000984 <l349>:
     984:	000fffc0 	.word	0x000fffc0

00000988 <interrupt_152>:
     988:	81028095 	swphi	r8, r5, [r2]

0000098c <l351>:
     98c:	e2013bfe 	and	r3, r1, #260096	; 0x3f800

00000990 <l352>:
     990:	d07019c7 	rsbsle	r1, r0, r7, asr #19

00000994 <interrupt_964>:
     994:	e3a0b00a 	mov	fp, #10

00000998 <interrupt_581>:
     998:	e19d40fb 	ldrsh	r4, [sp, fp]

0000099c <l355>:
     99c:	e90d1102 	stmdb	sp, {r1, r8, ip}

000009a0 <l356>:
     9a0:	e59f6000 	ldr	r6, [pc]	; 9a8 <l358>

000009a4 <l357>:
     9a4:	ea000000 	b	9ac <l359>

000009a8 <l358>:
     9a8:	000fffa4 	.word	0x000fffa4

000009ac <l359>:
     9ac:	8106809a 	swphi	r8, sl, [r6]

000009b0 <l360>:
     9b0:	e59f5000 	ldr	r5, [pc]	; 9b8 <l362>

000009b4 <l361>:
     9b4:	ea000000 	b	9bc <l363>

000009b8 <l362>:
     9b8:	000fffb4 	.word	0x000fffb4

000009bc <l363>:
     9bc:	9105a09b 	swpls	sl, fp, [r5]

000009c0 <l364>:
     9c0:	121e6695 	andsne	r6, lr, #156237824	; 0x9500000

000009c4 <l365>:
     9c4:	e02ead25 	eor	sl, lr, r5, lsr #26

000009c8 <interrupt_161>:
     9c8:	758dc02c 	strvc	ip, [sp, #44]	; 0x2c

000009cc <interrupt_453>:
     9cc:	ea000005 	b	9e8 <interrupt_436>

000009d0 <l368>:
     9d0:	e28010c6 	add	r1, r0, #198	; 0xc6

000009d4 <l369>:
     9d4:	31d75006 	bicscc	r5, r7, r6

000009d8 <l370>:
     9d8:	60488972 	subvs	r8, r8, r2, ror r9

000009dc <l371>:
     9dc:	016f9f17 	clzeq	r9, r7

000009e0 <l372>:
     9e0:	e01e141c 	ands	r1, lr, ip, lsl r4

000009e4 <l373>:
     9e4:	ea000000 	b	9ec <l375>

000009e8 <interrupt_436>:
     9e8:	eafffff9 	b	9d4 <l369>

000009ec <l375>:
     9ec:	137b0a39 	cmnne	fp, #233472	; 0x39000

000009f0 <interrupt_84>:
     9f0:	e06c0000 	rsb	r0, ip, r0

000009f4 <l377>:
     9f4:	00889038 	addeq	r9, r8, r8, lsr r0

000009f8 <l378>:
     9f8:	f8038717 	.word	0xf8038717

000009fc <l379>:
     9fc:	2390bce7 	orrscs	fp, r0, #59136	; 0xe700

00000a00 <interrupt_158>:
     a00:	d1dd90de 	ldrsble	r9, [sp, #14]

00000a04 <l381>:
     a04:	e24a873a 	sub	r8, sl, #15204352	; 0xe80000

00000a08 <l382>:
     a08:	e59f4000 	ldr	r4, [pc]	; a10 <interrupt_470>

00000a0c <interrupt_14>:
     a0c:	ea000000 	b	a14 <l385>

00000a10 <interrupt_470>:
     a10:	000fffc0 	.word	0x000fffc0

00000a14 <l385>:
     a14:	e144c099 	swpb	ip, r9, [r4]

00000a18 <l386>:
     a18:	e0686315 	rsb	r6, r8, r5, lsl r3

00000a1c <l387>:
     a1c:	ffbf567d 	.word	0xffbf567d

00000a20 <l388>:
     a20:	e82d8004 	stmda	sp!, {r2, pc}

00000a24 <l389>:
     a24:	e3a0602c 	mov	r6, #44	; 0x2c

00000a28 <l390>:
     a28:	e7cd3006 	strb	r3, [sp, r6]

00000a2c <l391>:
     a2c:	e3300b0b 	teq	r0, #11264	; 0x2c00

00000a30 <l392>:
     a30:	e195a237 	orrs	sl, r5, r7, lsr r2

00000a34 <interrupt_265>:
     a34:	efa949be 	svc	0x00a949be

00000a38 <l394>:
     a38:	e0a8c00a 	adc	ip, r8, sl

00000a3c <l395>:
     a3c:	e59f6000 	ldr	r6, [pc]	; a44 <l397>

00000a40 <l396>:
     a40:	ea000000 	b	a48 <l398>

00000a44 <l397>:
     a44:	000fffe4 	.word	0x000fffe4

00000a48 <l398>:
     a48:	11060099 	swpne	r0, r9, [r6]

00000a4c <interrupt_582>:
     a4c:	91a04da8 	lsrls	r4, r8, #27

00000a50 <l400>:
     a50:	e25c9b0b 	subs	r9, ip, #11264	; 0x2c00

00000a54 <interrupt_500>:
     a54:	e59f5000 	ldr	r5, [pc]	; a5c <l403>

00000a58 <interrupt_685>:
     a58:	ea000000 	b	a60 <l404>

00000a5c <l403>:
     a5c:	000fffc8 	.word	0x000fffc8

00000a60 <l404>:
     a60:	e1057093 	swp	r7, r3, [r5]

00000a64 <l405>:
     a64:	e3a0b00c 	mov	fp, #12

00000a68 <interrupt_601>:
     a68:	e61d700b 	ldr	r7, [sp], -fp

00000a6c <interrupt_12>:
     a6c:	76d0a39c 	.word	0x76d0a39c

00000a70 <l408>:
     a70:	920ba0a8 	andls	sl, fp, #168	; 0xa8

00000a74 <interrupt_742>:
     a74:	d11605ef 	tstle	r6, pc, ror #11

00000a78 <l410>:
     a78:	7a000002 	bvc	a88 <l414>

00000a7c <l411>:
     a7c:	e28010c8 	add	r1, r0, #200	; 0xc8

00000a80 <interrupt_810>:
     a80:	e2380f83 	eors	r0, r8, #524	; 0x20c

00000a84 <interrupt_343>:
     a84:	ea000000 	b	a8c <l415>

00000a88 <l414>:
     a88:	eafffffc 	b	a80 <interrupt_810>

00000a8c <l415>:
     a8c:	518e0000 	orrpl	r0, lr, r0

00000a90 <l416>:
     a90:	ef5ead1f 	svc	0x005ead1f

00000a94 <l417>:
     a94:	f77ca2b8 	.word	0xf77ca2b8

00000a98 <l418>:
     a98:	ef4f2846 	svc	0x004f2846

00000a9c <interrupt_460>:
     a9c:	734be615 	.word	0x734be615

00000aa0 <l420>:
     aa0:	e59fc000 	ldr	ip, [pc]	; aa8 <l422>

00000aa4 <l421>:
     aa4:	ea000000 	b	aac <interrupt_859>

00000aa8 <l422>:
     aa8:	000fffb4 	.word	0x000fffb4

00000aac <interrupt_859>:
     aac:	e10c2098 	swp	r2, r8, [ip]

00000ab0 <l424>:
     ab0:	e1b0806c 	rrxs	r8, ip

00000ab4 <l425>:
     ab4:	e59f0000 	ldr	r0, [pc]	; abc <l427>

00000ab8 <l426>:
     ab8:	ea000000 	b	ac0 <l428>

00000abc <l427>:
     abc:	000fffc4 	.word	0x000fffc4

00000ac0 <l428>:
     ac0:	e100a092 	swp	sl, r2, [r0]

00000ac4 <interrupt_367>:
     ac4:	816fef11 	clzhi	lr, r1

00000ac8 <interrupt_293>:
     ac8:	e1d9b006 	bics	fp, r9, r6

00000acc <l431>:
     acc:	b1dd34b6 	ldrhlt	r3, [sp, #70]	; 0x46

00000ad0 <l432>:
     ad0:	e1730656 	cmn	r3, r6, asr r6

00000ad4 <l433>:
     ad4:	30e6b314 	rsccc	fp, r6, r4, lsl r3

00000ad8 <l434>:
     ad8:	e3a02040 	mov	r2, #64	; 0x40

00000adc <l435>:
     adc:	e7ad3002 	str	r3, [sp, r2]!

00000ae0 <l436>:
     ae0:	e3a0a03c 	mov	sl, #60	; 0x3c

00000ae4 <interrupt_445>:
     ae4:	e61d500a 	ldr	r5, [sp], -sl

00000ae8 <interrupt_602>:
     ae8:	e9bd4d7e 	ldmib	sp!, {r1, r2, r3, r4, r5, r6, r8, sl, fp, lr}

00000aec <l439>:
     aec:	b3b02d32 	movslt	r2, #3200	; 0xc80

00000af0 <l440>:
     af0:	b3300a12 	teqlt	r0, #73728	; 0x12000

00000af4 <interrupt_419>:
     af4:	716fcf19 	clzvc	ip, r9

00000af8 <l442>:
     af8:	e1d7c08c 	bics	ip, r7, ip, lsl #1

00000afc <l443>:
     afc:	a2fa218e 	rscsge	r2, sl, #-2147483613	; 0x80000023

00000b00 <l444>:
     b00:	ef4e2fac 	svc	0x004e2fac

00000b04 <l445>:
     b04:	e3a0b002 	mov	fp, #2

00000b08 <l446>:
     b08:	b11d70fb 	ldrshlt	r7, [sp, -fp]

00000b0c <l447>:
     b0c:	c55d0027 	ldrbgt	r0, [sp, #-39]	; 0x27

00000b10 <l448>:
     b10:	913f0062 	teqls	pc, r2, rrx

00000b14 <l449>:
     b14:	e9bd0140 	ldmib	sp!, {r6, r8}

00000b18 <l450>:
     b18:	714d73b8 	strhvc	r7, [sp, #-56]	; 0xffffffc8

00000b1c <interrupt_832>:
     b1c:	e0a8c004 	adc	ip, r8, r4

00000b20 <l452>:
     b20:	c0a24006 	adcgt	r4, r2, r6

00000b24 <l453>:
     b24:	ea000001 	b	b30 <l456>

00000b28 <l454>:
     b28:	a09ba00f 	addsge	sl, fp, pc

00000b2c <l455>:
     b2c:	d3df6e7a 	bicsle	r6, pc, #1952	; 0x7a0

00000b30 <l456>:
     b30:	e08e4759 	add	r4, lr, r9, asr r7

00000b34 <interrupt_612>:
     b34:	e3a01009 	mov	r1, #9

00000b38 <l458>:
     b38:	775db001 	ldrbvc	fp, [sp, -r1]

00000b3c <interrupt_922>:
     b3c:	d1a04e53 	asrle	r4, r3, lr

00000b40 <l460>:
     b40:	154da013 	strbne	sl, [sp, #-19]

00000b44 <l461>:
     b44:	70a93c37 	adcvc	r3, r9, r7, lsr ip

00000b48 <l462>:
     b48:	e28365f3 	add	r6, r3, #1019215872	; 0x3cc00000

00000b4c <l463>:
     b4c:	e3a0c01b 	mov	ip, #27

00000b50 <interrupt_619>:
     b50:	374d800c 	strbcc	r8, [sp, -ip]

00000b54 <interrupt_635>:
     b54:	90763000 	rsbsls	r3, r6, r0

00000b58 <l466>:
     b58:	e11a0001 	tst	sl, r1

00000b5c <l467>:
     b5c:	e3951feb 	orrs	r1, r5, #940	; 0x3ac

00000b60 <interrupt_428>:
     b60:	ea000000 	b	b68 <l470>

00000b64 <interrupt_707>:
     b64:	01a0e001 	moveq	lr, r1

00000b68 <l470>:
     b68:	523e709c 	eorspl	r7, lr, #156	; 0x9c

00000b6c <interrupt_420>:
     b6c:	019c000a 	orrseq	r0, ip, sl

00000b70 <l472>:
     b70:	e063ca50 	rsb	ip, r3, r0, asr sl

00000b74 <l473>:
     b74:	8255741d 	subshi	r7, r5, #486539264	; 0x1d000000

00000b78 <l474>:
     b78:	e11a0079 	tst	sl, r9, ror r0

00000b7c <l475>:
     b7c:	e3a0e01a 	mov	lr, #26

00000b80 <l476>:
     b80:	075db00e 	ldrbeq	fp, [sp, -lr]

00000b84 <l477>:
     b84:	e3a00028 	mov	r0, #40	; 0x28

00000b88 <l478>:
     b88:	e73d0000 	ldr	r0, [sp, -r0]!

00000b8c <interrupt_472>:
     b8c:	e3a0b01e 	mov	fp, #30

00000b90 <l480>:
     b90:	e7cdb00b 	strb	fp, [sp, fp]

00000b94 <interrupt_600>:
     b94:	ef0c9407 	svc	0x000c9407

00000b98 <l482>:
     b98:	ef2d2cf9 	svc	0x002d2cf9

00000b9c <interrupt_690>:
     b9c:	e0183006 	ands	r3, r8, r6

00000ba0 <l484>:
     ba0:	ff69ef7b 	.word	0xff69ef7b

00000ba4 <l485>:
     ba4:	20bc44a7 	adcscs	r4, ip, r7, lsr #9

00000ba8 <l486>:
     ba8:	71e0e11e 	mvnvc	lr, lr, lsl r1

00000bac <l487>:
     bac:	b1dd91d6 	ldrsblt	r9, [sp, #22]

00000bb0 <interrupt_891>:
     bb0:	ef8d772d 	svc	0x008d772d

00000bb4 <l489>:
     bb4:	e16f8f15 	clz	r8, r5

00000bb8 <l490>:
     bb8:	e3a0b033 	mov	fp, #51	; 0x33

00000bbc <l491>:
     bbc:	a19dc0db 	ldrsbge	ip, [sp, fp]

00000bc0 <l492>:
     bc0:	e1a00000 	nop			; (mov r0, r0)

00000bc4 <l493>:
     bc4:	71e03008 	mvnvc	r3, r8

00000bc8 <l494>:
     bc8:	ea000005 	b	be4 <l501>

00000bcc <interrupt_945>:
     bcc:	4387741a 	orrmi	r7, r7, #436207616	; 0x1a000000

00000bd0 <interrupt_253>:
     bd0:	e16f3f15 	clz	r3, r5

00000bd4 <l497>:
     bd4:	e1180ba4 	tst	r8, r4, lsr #23

00000bd8 <l498>:
     bd8:	31c0b002 	biccc	fp, r0, r2

00000bdc <l499>:
     bdc:	c1150005 	tstgt	r5, r5

00000be0 <l500>:
     be0:	e1a0331b 	lsl	r3, fp, r3

00000be4 <l501>:
     be4:	e16fef17 	clz	lr, r7

00000be8 <l502>:
     be8:	e3a06008 	mov	r6, #8

00000bec <l503>:
     bec:	e60d8006 	str	r8, [sp], -r6

00000bf0 <interrupt_247>:
     bf0:	a1f05005 	mvnsge	r5, r5

00000bf4 <l505>:
     bf4:	61dd23d6 	ldrsbvs	r2, [sp, #54]	; 0x36

00000bf8 <l506>:
     bf8:	eff2b43c 	svc	0x00f2b43c

00000bfc <l507>:
     bfc:	e3760186 	cmn	r6, #-2147483615	; 0x80000021

00000c00 <l508>:
     c00:	e16f2f1c 	clz	r2, ip

00000c04 <l509>:
     c04:	80a1c060 	adchi	ip, r1, r0, rrx

00000c08 <l510>:
     c08:	e3160ce6 	tst	r6, #58880	; 0xe600

00000c0c <interrupt_623>:
     c0c:	f8785b19 	.word	0xf8785b19

00000c10 <l512>:
     c10:	e3a0e01c 	mov	lr, #28

00000c14 <l513>:
     c14:	e68d200e 	str	r2, [sp], lr

00000c18 <l514>:
     c18:	e357053b 	cmp	r7, #247463936	; 0xec00000

00000c1c <l515>:
     c1c:	aa000005 	bge	c38 <interrupt_426>

00000c20 <l516>:
     c20:	e28010e2 	add	r1, r0, #226	; 0xe2

00000c24 <l517>:
     c24:	90e42c12 	rscls	r2, r4, r2, lsl ip

00000c28 <l518>:
     c28:	e0647060 	rsb	r7, r4, r0, rrx

00000c2c <l519>:
     c2c:	e230ee45 	eors	lr, r0, #1104	; 0x450

00000c30 <l520>:
     c30:	40e77e3e 	rscmi	r7, r7, lr, lsr lr

00000c34 <l521>:
     c34:	ea000000 	b	c3c <l523>

00000c38 <interrupt_426>:
     c38:	eafffff9 	b	c24 <l517>

00000c3c <l523>:
     c3c:	d15d81d0 	ldrsble	r8, [sp, #-16]

00000c40 <l524>:
     c40:	ca000004 	bgt	c58 <l530>

00000c44 <l525>:
     c44:	e28010b7 	add	r1, r0, #183	; 0xb7

00000c48 <interrupt_526>:
     c48:	716f3f1a 	clzvc	r3, sl

00000c4c <interrupt_903>:
     c4c:	c1970c5a 	orrsgt	r0, r7, sl, asr ip

00000c50 <l528>:
     c50:	e17f0005 	cmn	pc, r5

00000c54 <l529>:
     c54:	ea000000 	b	c5c <l531>

00000c58 <l530>:
     c58:	eafffffa 	b	c48 <interrupt_526>

00000c5c <l531>:
     c5c:	d05a8d45 	subsle	r8, sl, r5, asr #26

00000c60 <l532>:
     c60:	e15d01fa 	ldrsh	r0, [sp, #-26]	; 0xffffffe6

00000c64 <l533>:
     c64:	ffba0a33 	.word	0xffba0a33

00000c68 <l534>:
     c68:	b99d1819 	ldmiblt	sp, {r0, r3, r4, fp, ip}

00000c6c <interrupt_562>:
     c6c:	e3a01013 	mov	r1, #19

00000c70 <l536>:
     c70:	b7dd4001 	ldrblt	r4, [sp, r1]

00000c74 <l537>:
     c74:	e0f35008 	rscs	r5, r3, r8

00000c78 <l538>:
     c78:	e05a0d45 	subs	r0, sl, r5, asr #26

00000c7c <l539>:
     c7c:	50459b0e 	subpl	r9, r5, lr, lsl #22

00000c80 <l540>:
     c80:	d067300a 	rsble	r3, r7, sl

00000c84 <l541>:
     c84:	e3a0c012 	mov	ip, #18

00000c88 <l542>:
     c88:	974d300c 	strbls	r3, [sp, -ip]

00000c8c <l543>:
     c8c:	e08c2066 	add	r2, ip, r6, rrx

00000c90 <l544>:
     c90:	62103c35 	andsvs	r3, r0, #13568	; 0x3500

00000c94 <l545>:
     c94:	216fbf18 	clzcs	fp, r8

00000c98 <l546>:
     c98:	8a000001 	bhi	ca4 <l549>

00000c9c <l547>:
     c9c:	a0550064 	subsge	r0, r5, r4, rrx

00000ca0 <l548>:
     ca0:	5074c449 	rsbspl	ip, r4, r9, asr #8

00000ca4 <l549>:
     ca4:	7071e061 	rsbsvc	lr, r1, r1, rrx

00000ca8 <l550>:
     ca8:	42cb5b06 	sbcmi	r5, fp, #6144	; 0x1800

00000cac <interrupt_686>:
     cac:	40825060 	addmi	r5, r2, r0, rrx

00000cb0 <l552>:
     cb0:	1a000005 	bne	ccc <l559>

00000cb4 <l553>:
     cb4:	e280105a 	add	r1, r0, #90	; 0x5a

00000cb8 <l554>:
     cb8:	e2322b2b 	eors	r2, r2, #44032	; 0xac00

00000cbc <l555>:
     cbc:	115f0064 	cmpne	pc, r4, rrx

00000cc0 <l556>:
     cc0:	e1180c67 	tst	r8, r7, ror #24

00000cc4 <l557>:
     cc4:	616fcf17 	clzvs	ip, r7

00000cc8 <l558>:
     cc8:	ea000000 	b	cd0 <l560>

00000ccc <l559>:
     ccc:	eafffff9 	b	cb8 <l554>

00000cd0 <l560>:
     cd0:	50f7b003 	rscspl	fp, r7, r3

00000cd4 <interrupt_275>:
     cd4:	e22531db 	eor	r3, r5, #-1073741770	; 0xc0000036

00000cd8 <l562>:
     cd8:	3303cd45 	.word	0x3303cd45

00000cdc <l563>:
     cdc:	f994c49a 	.word	0xf994c49a

00000ce0 <interrupt_760>:
     ce0:	e3a0b008 	mov	fp, #8

00000ce4 <interrupt_457>:
     ce4:	d19db0db 	ldrsble	fp, [sp, fp]

00000ce8 <l566>:
     ce8:	e35308a3 	cmp	r3, #10682368	; 0xa30000

00000cec <l567>:
     cec:	1154062b 	cmpne	r4, fp, lsr #12

00000cf0 <l568>:
     cf0:	e3a06008 	mov	r6, #8

00000cf4 <l569>:
     cf4:	411de0b6 	ldrhmi	lr, [sp, -r6]

00000cf8 <l570>:
     cf8:	5a000002 	bpl	d08 <l574>

00000cfc <l571>:
     cfc:	b0430066 	sublt	r0, r3, r6, rrx

00000d00 <l572>:
     d00:	11350474 	teqne	r5, r4, ror r4

00000d04 <l573>:
     d04:	a1e09539 	mvnge	r9, r9, lsr r5

00000d08 <l574>:
     d08:	c0341009 	eorsgt	r1, r4, r9

00000d0c <l575>:
     d0c:	e3710eee 	cmn	r1, #3808	; 0xee0

00000d10 <l576>:
     d10:	3014e007 	andscc	lr, r4, r7

00000d14 <l577>:
     d14:	30020550 	andcc	r0, r2, r0, asr r5

00000d18 <l578>:
     d18:	e16f9f13 	clz	r9, r3

00000d1c <l579>:
     d1c:	e3a06000 	mov	r6, #0

00000d20 <l580>:
     d20:	e78d0006 	str	r0, [sp, r6]

00000d24 <interrupt_525>:
     d24:	c16f6f13 	clzgt	r6, r3

00000d28 <l582>:
     d28:	c0b31008 	adcsgt	r1, r3, r8

00000d2c <l583>:
     d2c:	e02b9005 	eor	r9, fp, r5

00000d30 <l584>:
     d30:	8046600e 	subhi	r6, r6, lr

00000d34 <l585>:
     d34:	c3e0cd41 	mvngt	ip, #4160	; 0x1040

00000d38 <interrupt_628>:
     d38:	40a67c64 	adcmi	r7, r6, r4, ror #24

00000d3c <l587>:
     d3c:	efa1efa1 	svc	0x00a1efa1

00000d40 <l588>:
     d40:	e3a02001 	mov	r2, #1

00000d44 <l589>:
     d44:	e7dd6002 	ldrb	r6, [sp, r2]

00000d48 <l590>:
     d48:	e13e0001 	teq	lr, r1

00000d4c <interrupt_996>:
     d4c:	e2ab403a 	adc	r4, fp, #58	; 0x3a

00000d50 <l592>:
     d50:	e3a0400a 	mov	r4, #10

00000d54 <l593>:
     d54:	e11da0d4 	ldrsb	sl, [sp, -r4]

00000d58 <l594>:
     d58:	905fa3ee 	subsls	sl, pc, lr, ror #7

00000d5c <l595>:
     d5c:	f5dd87a6 	.word	0xf5dd87a6

00000d60 <l596>:
     d60:	a1e0e00e 	mvnge	lr, lr

00000d64 <l597>:
     d64:	e1dd60bc 	ldrh	r6, [sp, #12]

00000d68 <l598>:
     d68:	a15de1fa 	ldrshge	lr, [sp, #-26]	; 0xffffffe6

00000d6c <interrupt_893>:
     d6c:	e052b00f 	subs	fp, r2, pc

00000d70 <l600>:
     d70:	5389b5b5 	orrpl	fp, r9, #759169024	; 0x2d400000

00000d74 <interrupt_106>:
     d74:	e59fc000 	ldr	ip, [pc]	; d7c <l603>

00000d78 <l602>:
     d78:	ea000000 	b	d80 <l604>

00000d7c <l603>:
     d7c:	000fffb4 	.word	0x000fffb4

00000d80 <l604>:
     d80:	d14c8096 	swpble	r8, r6, [ip]

00000d84 <l605>:
     d84:	216f1f15 	clzcs	r1, r5

00000d88 <l606>:
     d88:	e54d1012 	strb	r1, [sp, #-18]

00000d8c <l607>:
     d8c:	090d1415 	stmdbeq	sp, {r0, r2, r4, sl, ip}

00000d90 <l608>:
     d90:	f9201249 	.word	0xf9201249

00000d94 <l609>:
     d94:	d1a00005 	movle	r0, r5

00000d98 <l610>:
     d98:	01150458 	tsteq	r5, r8, asr r4

00000d9c <l611>:
     d9c:	e3a0a00c 	mov	sl, #12

00000da0 <l612>:
     da0:	e19d00ba 	ldrh	r0, [sp, sl]

00000da4 <l613>:
     da4:	e3560d87 	cmp	r6, #8640	; 0x21c0

00000da8 <l614>:
     da8:	e5ad500c 	str	r5, [sp, #12]!

00000dac <l615>:
     dac:	30b10736 	adcscc	r0, r1, r6, lsr r7

00000db0 <l616>:
     db0:	e00c4567 	and	r4, ip, r7, ror #10

00000db4 <l617>:
     db4:	e3a0e003 	mov	lr, #3

00000db8 <l618>:
     db8:	e19d10de 	ldrsb	r1, [sp, lr]

00000dbc <l619>:
     dbc:	61dd81d4 	ldrsbvs	r8, [sp, #20]

00000dc0 <interrupt_349>:
     dc0:	e9bd0a84 	ldmib	sp!, {r2, r7, r9, fp}

00000dc4 <l621>:
     dc4:	e0046004 	and	r6, r4, r4

00000dc8 <l622>:
     dc8:	a1c912e5 	bicge	r1, r9, r5, ror #5

00000dcc <l623>:
     dcc:	e16f8f12 	clz	r8, r2

00000dd0 <l624>:
     dd0:	316f6f1e 	clzcc	r6, lr

00000dd4 <l625>:
     dd4:	e14d72b4 	strh	r7, [sp, #-36]	; 0xffffffdc

00000dd8 <interrupt_503>:
     dd8:	e0289553 	eor	r9, r8, r3, asr r5

00000ddc <l627>:
     ddc:	e1f01e55 	mvns	r1, r5, asr lr

00000de0 <interrupt_925>:
     de0:	eaffffff 	b	de4 <l629>

00000de4 <l629>:
     de4:	e157000a 	cmp	r7, sl

00000de8 <l630>:
     de8:	c15d31b2 	ldrhgt	r3, [sp, #-18]	; 0xffffffee

00000dec <l631>:
     dec:	e3a0e006 	mov	lr, #6

00000df0 <l632>:
     df0:	e19d00de 	ldrsb	r0, [sp, lr]

00000df4 <l633>:
     df4:	efc77ddf 	svc	0x00c77ddf

00000df8 <l634>:
     df8:	efaa855a 	svc	0x00aa855a

00000dfc <l635>:
     dfc:	e3a0c027 	mov	ip, #39	; 0x27

00000e00 <l636>:
     e00:	e11de0dc 	ldrsb	lr, [sp, -ip]

00000e04 <l637>:
     e04:	f0ac10d7 	.word	0xf0ac10d7

00000e08 <l638>:
     e08:	33f02a75 	mvnscc	r2, #479232	; 0x75000

00000e0c <l639>:
     e0c:	207b200e 	rsbscs	r2, fp, lr

00000e10 <l640>:
     e10:	e0071005 	and	r1, r7, r5

00000e14 <interrupt_222>:
     e14:	ef905e09 	svc	0x00905e09

00000e18 <l642>:
     e18:	40e05005 	rscmi	r5, r0, r5

00000e1c <l643>:
     e1c:	054d800d 	strbeq	r8, [sp, #-13]

00000e20 <l644>:
     e20:	60fca007 	rscsvs	sl, ip, r7

00000e24 <l645>:
     e24:	02a60691 	adceq	r0, r6, #152043520	; 0x9100000

00000e28 <l646>:
     e28:	115d52f4 	ldrshne	r5, [sp, #-36]	; 0xffffffdc

00000e2c <l647>:
     e2c:	71e05d2f 	mvnvc	r5, pc, lsr #26

00000e30 <l648>:
     e30:	e59f2000 	ldr	r2, [pc]	; e38 <l650>

00000e34 <l649>:
     e34:	ea000000 	b	e3c <l651>

00000e38 <l650>:
     e38:	000fffbc 	.word	0x000fffbc

00000e3c <l651>:
     e3c:	81421095 	swpbhi	r1, r5, [r2]

00000e40 <l652>:
     e40:	ffb0edfb 	.word	0xffb0edfb

00000e44 <interrupt_224>:
     e44:	3a000006 	bcc	e64 <l661>

00000e48 <interrupt_840>:
     e48:	e1940069 	orrs	r0, r4, r9, rrx

00000e4c <l655>:
     e4c:	700fa00e 	andvc	sl, pc, lr

00000e50 <interrupt_125>:
     e50:	e11f0007 	tst	pc, r7

00000e54 <interrupt_585>:
     e54:	e025200f 	eor	r2, r5, pc

00000e58 <l658>:
     e58:	8051a9a3 	subshi	sl, r1, r3, lsr #19

00000e5c <l659>:
     e5c:	e2b4ec0e 	adcs	lr, r4, #3584	; 0xe00

00000e60 <l660>:
     e60:	118f9062 	orrne	r9, pc, r2, rrx

00000e64 <l661>:
     e64:	c1d8b06e 	bicsgt	fp, r8, lr, rrx

00000e68 <l662>:
     e68:	e59fb000 	ldr	fp, [pc]	; e70 <interrupt_350>

00000e6c <l663>:
     e6c:	ea000000 	b	e74 <l665>

00000e70 <interrupt_350>:
     e70:	000fffac 	.word	0x000fffac

00000e74 <l665>:
     e74:	810b6093 	swphi	r6, r3, [fp]

00000e78 <interrupt_121>:
     e78:	ef360a5e 	svc	0x00360a5e

00000e7c <l667>:
     e7c:	615a08e4 	cmpvs	sl, r4, ror #17

00000e80 <l668>:
     e80:	e0ba9538 	adcs	r9, sl, r8, lsr r5

00000e84 <l669>:
     e84:	c03ec073 	eorsgt	ip, lr, r3, ror r0

00000e88 <l670>:
     e88:	c0b9c009 	adcsgt	ip, r9, r9

00000e8c <l671>:
     e8c:	e018c61b 	ands	ip, r8, fp, lsl r6

00000e90 <l672>:
     e90:	01c15069 	biceq	r5, r1, r9, rrx

00000e94 <interrupt_370>:
     e94:	e82de000 	stmda	sp!, {sp, lr, pc}

00000e98 <l674>:
     e98:	e3a05034 	mov	r5, #52	; 0x34

00000e9c <interrupt_549>:
     e9c:	511d30d5 	ldrsbpl	r3, [sp, -r5]

00000ea0 <l676>:
     ea0:	da000000 	ble	ea8 <l678>

00000ea4 <l677>:
     ea4:	c16faf16 	clzgt	sl, r6

00000ea8 <l678>:
     ea8:	31a08005 	movcc	r8, r5

00000eac <l679>:
     eac:	205017a8 	subscs	r1, r0, r8, lsr #15

00000eb0 <l680>:
     eb0:	508ec8c8 	addpl	ip, lr, r8, asr #17

00000eb4 <l681>:
     eb4:	616f0f1c 	clzvs	r0, ip

00000eb8 <interrupt_773>:
     eb8:	e3a09014 	mov	r9, #20

00000ebc <l683>:
     ebc:	519d00f9 	ldrshpl	r0, [sp, r9]

00000ec0 <l684>:
     ec0:	e03b1033 	eors	r1, fp, r3, lsr r0

00000ec4 <l685>:
     ec4:	e3a08015 	mov	r8, #21

00000ec8 <l686>:
     ec8:	e19d50d8 	ldrsb	r5, [sp, r8]

00000ecc <l687>:
     ecc:	d16f1f12 	clzle	r1, r2

00000ed0 <l688>:
     ed0:	e3a06000 	mov	r6, #0

00000ed4 <l689>:
     ed4:	e7ad1006 	str	r1, [sp, r6]!

00000ed8 <l690>:
     ed8:	03120a71 	tsteq	r2, #462848	; 0x71000

00000edc <interrupt_396>:
     edc:	c16f0f1c 	clzgt	r0, ip

00000ee0 <l692>:
     ee0:	e8ad8542 	stmia	sp!, {r1, r6, r8, sl, pc}

00000ee4 <interrupt_423>:
     ee4:	e09a8003 	adds	r8, sl, r3

00000ee8 <l694>:
     ee8:	83e0cad1 	mvnhi	ip, #856064	; 0xd1000

00000eec <l695>:
     eec:	e3a04035 	mov	r4, #53	; 0x35

00000ef0 <l696>:
     ef0:	111d80d4 	ldrsbne	r8, [sp, -r4]

00000ef4 <l697>:
     ef4:	e3a0b038 	mov	fp, #56	; 0x38

00000ef8 <interrupt_319>:
     ef8:	e73d700b 	ldr	r7, [sp, -fp]!

00000efc <interrupt_515>:
     efc:	605fc066 	subsvs	ip, pc, r6, rrx

00000f00 <interrupt_837>:
     f00:	5242733e 	subpl	r7, r2, #-134217728	; 0xf8000000

00000f04 <l701>:
     f04:	e2cb98cd 	sbc	r9, fp, #13434880	; 0xcd0000

00000f08 <interrupt_486>:
     f08:	ea000004 	b	f20 <l708>

00000f0c <interrupt_826>:
     f0c:	002b0b0a 	eoreq	r0, fp, sl, lsl #22

00000f10 <l704>:
     f10:	e1c4cb72 	bic	ip, r4, r2, ror fp

00000f14 <l705>:
     f14:	91f04a59 	mvnsls	r4, r9, asr sl

00000f18 <l706>:
     f18:	e1750b73 	cmn	r5, r3, ror fp

00000f1c <interrupt_697>:
     f1c:	e082700c 	add	r7, r2, ip

00000f20 <l708>:
     f20:	01a0783b 	lsreq	r7, fp, r8

00000f24 <l709>:
     f24:	e00ac83e 	and	ip, sl, lr, lsr r8

00000f28 <l710>:
     f28:	b0831eeb 	addlt	r1, r3, fp, ror #29

00000f2c <interrupt_567>:
     f2c:	11cd10be 	strhne	r1, [sp, #14]

00000f30 <interrupt_916>:
     f30:	00553c16 	subseq	r3, r5, r6, lsl ip

00000f34 <l713>:
     f34:	70b92dc8 	adcsvc	r2, r9, r8, asr #27

00000f38 <interrupt_531>:
     f38:	40cc3fc9 	sbcmi	r3, ip, r9, asr #31

00000f3c <l715>:
     f3c:	ef947168 	svc	0x00947168

00000f40 <l716>:
     f40:	e188b006 	orr	fp, r8, r6

00000f44 <l717>:
     f44:	e07a23ae 	rsbs	r2, sl, lr, lsr #7

00000f48 <l718>:
     f48:	60967006 	addsvs	r7, r6, r6

00000f4c <l719>:
     f4c:	e055ea84 	subs	lr, r5, r4, lsl #21

00000f50 <interrupt_108>:
     f50:	e9ad00f8 	stmib	sp!, {r3, r4, r5, r6, r7}

00000f54 <l721>:
     f54:	c15d61fa 	ldrshgt	r6, [sp, #-26]	; 0xffffffe6

00000f58 <l722>:
     f58:	90d0e06f 	sbcsls	lr, r0, pc, rrx

00000f5c <l723>:
     f5c:	ef1d4c23 	svc	0x001d4c23

00000f60 <interrupt_315>:
     f60:	e19eb00f 	orrs	fp, lr, pc

00000f64 <l725>:
     f64:	efbdf1ad 	svc	0x00bdf1ad

00000f68 <interrupt_105>:
     f68:	a54d301c 	strbge	r3, [sp, #-28]

00000f6c <l727>:
     f6c:	31dd40b6 	ldrhcc	r4, [sp, #6]

00000f70 <l728>:
     f70:	e59f0000 	ldr	r0, [pc]	; f78 <l730>

00000f74 <interrupt_123>:
     f74:	ea000000 	b	f7c <interrupt_650>

00000f78 <l730>:
     f78:	000fffbc 	.word	0x000fffbc

00000f7c <interrupt_650>:
     f7c:	e100c095 	swp	ip, r5, [r0]

00000f80 <l732>:
     f80:	e207957e 	and	r9, r7, #528482304	; 0x1f800000

00000f84 <l733>:
     f84:	31dda2f4 	ldrshcc	sl, [sp, #36]	; 0x24

00000f88 <l734>:
     f88:	435f0d06 	cmpmi	pc, #384	; 0x180

00000f8c <l735>:
     f8c:	713f0003 	teqvc	pc, r3

00000f90 <l736>:
     f90:	411803c8 	tstmi	r8, r8, asr #7

00000f94 <interrupt_648>:
     f94:	e0ee2951 	rsc	r2, lr, r1, asr r9

00000f98 <interrupt_865>:
     f98:	0082653e 	addeq	r6, r2, lr, lsr r5

00000f9c <interrupt_266>:
     f9c:	617e0008 	cmnvs	lr, r8

00000fa0 <l740>:
     fa0:	e082a560 	add	sl, r2, r0, ror #10

00000fa4 <l741>:
     fa4:	e92da000 	push	{sp, pc}

00000fa8 <interrupt_943>:
     fa8:	e0427acc 	sub	r7, r2, ip, asr #21

00000fac <l743>:
     fac:	80748841 	rsbshi	r8, r4, r1, asr #16

00000fb0 <l744>:
     fb0:	80a29a46 	adchi	r9, r2, r6, asr #20

00000fb4 <l745>:
     fb4:	e9bd5be4 	ldmib	sp!, {r2, r5, r6, r7, r8, r9, fp, ip, lr}

00000fb8 <l746>:
     fb8:	e59fc000 	ldr	ip, [pc]	; fc0 <l748>

00000fbc <l747>:
     fbc:	ea000000 	b	fc4 <l749>

00000fc0 <l748>:
     fc0:	000fffa0 	.word	0x000fffa0

00000fc4 <l749>:
     fc4:	b14ce09a 	swpblt	lr, sl, [ip]

00000fc8 <l750>:
     fc8:	ea000006 	b	fe8 <interrupt_75>

00000fcc <interrupt_363>:
     fcc:	e28010f8 	add	r1, r0, #248	; 0xf8

00000fd0 <interrupt_137>:
     fd0:	e1d63559 	bics	r3, r6, r9, asr r5

00000fd4 <l753>:
     fd4:	716f5f15 	clzvc	r5, r5

00000fd8 <l754>:
     fd8:	716fcf15 	clzvc	ip, r5

00000fdc <l755>:
     fdc:	90216031 	eorls	r6, r1, r1, lsr r0

00000fe0 <l756>:
     fe0:	c0fa6006 	rscsgt	r6, sl, r6

00000fe4 <l757>:
     fe4:	ea000000 	b	fec <l759>

00000fe8 <interrupt_75>:
     fe8:	eafffff8 	b	fd0 <interrupt_137>

00000fec <l759>:
     fec:	e59f3000 	ldr	r3, [pc]	; ff4 <interrupt_407>

00000ff0 <l760>:
     ff0:	ea000000 	b	ff8 <l762>

00000ff4 <interrupt_407>:
     ff4:	000fffbc 	.word	0x000fffbc

00000ff8 <l762>:
     ff8:	e143409b 	swpb	r4, fp, [r3]

00000ffc <l763>:
     ffc:	e076e536 	rsbs	lr, r6, r6, lsr r5

00001000 <l764>:
    1000:	e15c0e52 	cmp	ip, r2, asr lr

00001004 <interrupt_527>:
    1004:	904c366a 	subls	r3, ip, sl, ror #12

00001008 <l766>:
    1008:	ef478e6a 	svc	0x00478e6a

0000100c <l767>:
    100c:	c15d21d3 	ldrsbgt	r2, [sp, #-19]	; 0xffffffed

00001010 <l768>:
    1010:	ef8b79f1 	svc	0x008b79f1

00001014 <l769>:
    1014:	92d2b75f 	sbcsls	fp, r2, #24903680	; 0x17c0000

00001018 <interrupt_610>:
    1018:	e17e0b66 	cmn	lr, r6, ror #22

0000101c <l771>:
    101c:	420a3443 	andmi	r3, sl, #1124073472	; 0x43000000

00001020 <interrupt_331>:
    1020:	054dc003 	strbeq	ip, [sp, #-3]

00001024 <l773>:
    1024:	51a0b73e 	lsrpl	fp, lr, r7

00001028 <l774>:
    1028:	e3760b27 	cmn	r6, #39936	; 0x9c00

0000102c <interrupt_400>:
    102c:	b0547178 	subslt	r7, r4, r8, ror r1

00001030 <l776>:
    1030:	f64fddff 	.word	0xf64fddff

00001034 <l777>:
    1034:	b14d10ba 	strhlt	r1, [sp, #-10]

00001038 <l778>:
    1038:	a3a06057 	movge	r6, #87	; 0x57

0000103c <l779>:
    103c:	effeab21 	svc	0x00feab21

00001040 <l780>:
    1040:	e0ce455e 	sbc	r4, lr, lr, asr r5

00001044 <l781>:
    1044:	ea000006 	b	1064 <l789>

00001048 <l782>:
    1048:	e28010ea 	add	r1, r0, #234	; 0xea

0000104c <l783>:
    104c:	91780066 	cmnls	r8, r6, rrx

00001050 <l784>:
    1050:	6235c66a 	eorsvs	ip, r5, #111149056	; 0x6a00000

00001054 <l785>:
    1054:	716f9f10 	clzvc	r9, r0

00001058 <l786>:
    1058:	116f0f1c 	clzne	r0, ip

0000105c <l787>:
    105c:	b1530a7e 	cmplt	r3, lr, ror sl

00001060 <l788>:
    1060:	ea000000 	b	1068 <l790>

00001064 <l789>:
    1064:	eafffff8 	b	104c <l783>

00001068 <l790>:
    1068:	81120b74 	tsthi	r2, r4, ror fp

0000106c <l791>:
    106c:	c54d0010 	strbgt	r0, [sp, #-16]

00001070 <l792>:
    1070:	e3a0c002 	mov	ip, #2

00001074 <interrupt_194>:
    1074:	410d80bc 	strhmi	r8, [sp, -ip]

00001078 <l794>:
    1078:	815d02f0 	ldrshhi	r0, [sp, #-32]	; 0xffffffe0

0000107c <l795>:
    107c:	455d8010 	ldrbmi	r8, [sp, #-16]

00001080 <interrupt_860>:
    1080:	ef1436af 	svc	0x001436af

00001084 <l797>:
    1084:	b15d41b8 	ldrhlt	r4, [sp, #-24]	; 0xffffffe8

00001088 <interrupt_468>:
    1088:	c29b115e 	addsgt	r1, fp, #-2147483625	; 0x80000017

0000108c <interrupt_261>:
    108c:	754d103d 	strbvc	r1, [sp, #-61]	; 0x3d

00001090 <l800>:
    1090:	e11a011c 	tst	sl, ip, lsl r1

00001094 <l801>:
    1094:	e22f1546 	eor	r1, pc, #293601280	; 0x11800000

00001098 <interrupt_842>:
    1098:	d06ee613 	rsble	lr, lr, r3, lsl r6

0000109c <l803>:
    109c:	e59f4000 	ldr	r4, [pc]	; 10a4 <l805>

000010a0 <l804>:
    10a0:	ea000000 	b	10a8 <l806>

000010a4 <l805>:
    10a4:	000fffa0 	.word	0x000fffa0

000010a8 <l806>:
    10a8:	71046099 	swpvc	r6, r9, [r4]

000010ac <l807>:
    10ac:	83110d9e 	tsthi	r1, #10112	; 0x2780

000010b0 <l808>:
    10b0:	40e61065 	rscmi	r1, r6, r5, rrx

000010b4 <l809>:
    10b4:	b08f9589 	addlt	r9, pc, r9, lsl #11

000010b8 <l810>:
    10b8:	51dd90b6 	ldrhpl	r9, [sp, #6]

000010bc <l811>:
    10bc:	efd01ad9 	svc	0x00d01ad9

000010c0 <l812>:
    10c0:	83580b23 	cmphi	r8, #35840	; 0x8c00

000010c4 <interrupt_880>:
    10c4:	37fa82f4 	.word	0x37fa82f4

000010c8 <interrupt_912>:
    10c8:	e93d5336 	ldmdb	sp!, {r1, r2, r4, r5, r8, r9, ip, lr}

000010cc <l815>:
    10cc:	218eea80 	orrcs	lr, lr, r0, lsl #21

000010d0 <l816>:
    10d0:	015d70f4 	ldrsheq	r7, [sp, #-4]

000010d4 <l817>:
    10d4:	e2aa0915 	adc	r0, sl, #344064	; 0x54000

000010d8 <l818>:
    10d8:	e11e000e 	tst	lr, lr

000010dc <l819>:
    10dc:	c2be010d 	adcsgt	r0, lr, #1073741827	; 0x40000003

000010e0 <l820>:
    10e0:	c289657a 	addgt	r6, r9, #511705088	; 0x1e800000

000010e4 <l821>:
    10e4:	e16f6f1b 	clz	r6, fp

000010e8 <l822>:
    10e8:	e2b621ce 	adcs	r2, r6, #-2147483597	; 0x80000033

000010ec <l823>:
    10ec:	e3a05008 	mov	r5, #8

000010f0 <interrupt_618>:
    10f0:	e11d40b5 	ldrh	r4, [sp, -r5]

000010f4 <l825>:
    10f4:	e5cd9010 	strb	r9, [sp, #16]

000010f8 <interrupt_871>:
    10f8:	e3390291 	teq	r9, #268435465	; 0x10000009

000010fc <l827>:
    10fc:	e1380005 	teq	r8, r5

00001100 <interrupt_488>:
    1100:	d16f8f14 	clzle	r8, r4

00001104 <l829>:
    1104:	e59f6000 	ldr	r6, [pc]	; 110c <l831>

00001108 <l830>:
    1108:	ea000000 	b	1110 <l832>

0000110c <l831>:
    110c:	000fffc0 	.word	0x000fffc0

00001110 <l832>:
    1110:	b1065092 	swplt	r5, r2, [r6]

00001114 <interrupt_915>:
    1114:	41836e1e 	orrmi	r6, r3, lr, lsl lr

00001118 <l834>:
    1118:	016f3f18 	clzeq	r3, r8

0000111c <l835>:
    111c:	ef1626ce 	svc	0x001626ce

00001120 <l836>:
    1120:	e59f4000 	ldr	r4, [pc]	; 1128 <l838>

00001124 <l837>:
    1124:	ea000000 	b	112c <l839>

00001128 <l838>:
    1128:	000fffe0 	.word	0x000fffe0

0000112c <l839>:
    112c:	e1449093 	swpb	r9, r3, [r4]

00001130 <l840>:
    1130:	b2a9e3b9 	adclt	lr, r9, #-469762046	; 0xe4000002

00001134 <l841>:
    1134:	80493ca2 	subhi	r3, r9, r2, lsr #25

00001138 <interrupt_726>:
    1138:	e16f8f14 	clz	r8, r4

0000113c <interrupt_250>:
    113c:	ea000004 	b	1154 <interrupt_518>

00001140 <interrupt_178>:
    1140:	e2801010 	add	r1, r0, #16

00001144 <l845>:
    1144:	e27567da 	rsbs	r6, r5, #57147392	; 0x3680000

00001148 <interrupt_671>:
    1148:	e0e1c9c9 	rsc	ip, r1, r9, asr #19

0000114c <interrupt_589>:
    114c:	1153006c 	cmpne	r3, ip, rrx

00001150 <l848>:
    1150:	ea000000 	b	1158 <l850>

00001154 <interrupt_518>:
    1154:	eafffffa 	b	1144 <l845>

00001158 <l850>:
    1158:	e3a0002b 	mov	r0, #43	; 0x2b

0000115c <l851>:
    115c:	d7dd6000 	ldrble	r6, [sp, r0]

00001160 <l852>:
    1160:	e9addc5b 	stmib	sp!, {r0, r1, r3, r4, r6, sl, fp, ip, lr, pc}

00001164 <l853>:
    1164:	00c0c007 	sbceq	ip, r0, r7

00001168 <interrupt_212>:
    1168:	e16f2f13 	clz	r2, r3

0000116c <l855>:
    116c:	e3a0a011 	mov	sl, #17

00001170 <l856>:
    1170:	a75db00a 	ldrbge	fp, [sp, -sl]

00001174 <l857>:
    1174:	e41d3014 	ldr	r3, [sp], #-20

00001178 <l858>:
    1178:	f8526e23 	.word	0xf8526e23

0000117c <l859>:
    117c:	b14d20b8 	strhlt	r2, [sp, #-8]

00001180 <l860>:
    1180:	e3a0b017 	mov	fp, #23

00001184 <l861>:
    1184:	e75d000b 	ldrb	r0, [sp, -fp]

00001188 <l862>:
    1188:	efc450b5 	svc	0x00c450b5

0000118c <l863>:
    118c:	e41d601c 	ldr	r6, [sp], #-28

00001190 <l864>:
    1190:	f8b9252a 	.word	0xf8b9252a

00001194 <l865>:
    1194:	ef1911d6 	svc	0x001911d6

00001198 <l866>:
    1198:	61dde1b4 	ldrhvs	lr, [sp, #20]

0000119c <l867>:
    119c:	e064c06e 	rsb	ip, r4, lr, rrx

000011a0 <l868>:
    11a0:	e3a06016 	mov	r6, #22

000011a4 <interrupt_1>:
    11a4:	d74d0006 	strble	r0, [sp, -r6]

000011a8 <l870>:
    11a8:	91f0c003 	mvnsls	ip, r3

000011ac <interrupt_804>:
    11ac:	effd8cef 	svc	0x00fd8cef

000011b0 <l872>:
    11b0:	e3a09002 	mov	r9, #2

000011b4 <l873>:
    11b4:	319db0b9 	ldrhcc	fp, [sp, r9]

000011b8 <l874>:
    11b8:	6a000007 	bvs	11dc <l883>

000011bc <l875>:
    11bc:	e352020b 	cmp	r2, #-1342177280	; 0xb0000000

000011c0 <interrupt_895>:
    11c0:	e3180511 	tst	r8, #71303168	; 0x4400000

000011c4 <l877>:
    11c4:	e0d2c00a 	sbcs	ip, r2, sl

000011c8 <l878>:
    11c8:	21b0100b 	movscs	r1, fp

000011cc <interrupt_179>:
    11cc:	a2504101 	subsge	r4, r0, #1073741824	; 0x40000000

000011d0 <l880>:
    11d0:	528747da 	addpl	r4, r7, #57147392	; 0x3680000

000011d4 <l881>:
    11d4:	a1520005 	cmpge	r2, r5

000011d8 <l882>:
    11d8:	e029b857 	eor	fp, r9, r7, asr r8

000011dc <l883>:
    11dc:	e1d29066 	bics	r9, r2, r6, rrx

000011e0 <l884>:
    11e0:	e13f000e 	teq	pc, lr

000011e4 <l885>:
    11e4:	40dac534 	sbcsmi	ip, sl, r4, lsr r5

000011e8 <interrupt_3>:
    11e8:	e3a0c010 	mov	ip, #16

000011ec <l887>:
    11ec:	e7dd400c 	ldrb	r4, [sp, ip]

000011f0 <l888>:
    11f0:	00e4bfa1 	rsceq	fp, r4, r1, lsr #31

000011f4 <l889>:
    11f4:	e3a0c032 	mov	ip, #50	; 0x32

000011f8 <l890>:
    11f8:	27dd500c 	ldrbcs	r5, [sp, ip]

000011fc <interrupt_739>:
    11fc:	e59f2000 	ldr	r2, [pc]	; 1204 <l893>

00001200 <interrupt_645>:
    1200:	ea000000 	b	1208 <l894>

00001204 <l893>:
    1204:	000fffd4 	.word	0x000fffd4

00001208 <l894>:
    1208:	e1027093 	swp	r7, r3, [r2]

0000120c <l895>:
    120c:	e88d0f00 	stm	sp, {r8, r9, sl, fp}

00001210 <l896>:
    1210:	e5dd0023 	ldrb	r0, [sp, #35]	; 0x23

00001214 <interrupt_101>:
    1214:	e8bd0364 	pop	{r2, r5, r6, r8, r9}

00001218 <l898>:
    1218:	41740063 	cmnmi	r4, r3, rrx

0000121c <l899>:
    121c:	71f09004 	mvnsvc	r9, r4

00001220 <l900>:
    1220:	02b90b66 	adcseq	r0, r9, #104448	; 0x19800

00001224 <l901>:
    1224:	e14d11b4 	strh	r1, [sp, #-20]	; 0xffffffec

00001228 <l902>:
    1228:	e8ad8040 	stmia	sp!, {r6, pc}

0000122c <l903>:
    122c:	efbce8a3 	svc	0x00bce8a3

00001230 <l904>:
    1230:	e82dcee8 	stmda	sp!, {r3, r5, r6, r7, r9, sl, fp, lr, pc}

00001234 <l905>:
    1234:	317e0a30 	cmncc	lr, r0, lsr sl

00001238 <l906>:
    1238:	e3e01149 	mvn	r1, #1073741842	; 0x40000012

0000123c <l907>:
    123c:	e3a08010 	mov	r8, #16

00001240 <l908>:
    1240:	e61de008 	ldr	lr, [sp], -r8

00001244 <l909>:
    1244:	4a000005 	bmi	1260 <l916>

00001248 <l910>:
    1248:	e28010e1 	add	r1, r0, #225	; 0xe1

0000124c <interrupt_892>:
    124c:	e1160009 	tst	r6, r9

00001250 <l912>:
    1250:	e293c5cd 	adds	ip, r3, #859832320	; 0x33400000

00001254 <interrupt_828>:
    1254:	e045e00f 	sub	lr, r5, pc

00001258 <l914>:
    1258:	111c0e47 	tstne	ip, r7, asr #28

0000125c <interrupt_776>:
    125c:	ea000000 	b	1264 <l917>

00001260 <l916>:
    1260:	eafffff9 	b	124c <interrupt_892>

00001264 <l917>:
    1264:	e0026713 	and	r6, r2, r3, lsl r7

00001268 <l918>:
    1268:	a0d5a4c3 	sbcsge	sl, r5, r3, asr #9

0000126c <l919>:
    126c:	e1d2100b 	bics	r1, r2, fp

00001270 <l920>:
    1270:	57d849d5 	.word	0x57d849d5

00001274 <interrupt_758>:
    1274:	03f050b1 	mvnseq	r5, #177	; 0xb1

00001278 <l922>:
    1278:	81550e11 	cmphi	r5, r1, lsl lr

0000127c <interrupt_576>:
    127c:	b1ddb1f0 	ldrshlt	fp, [sp, #16]

00001280 <interrupt_183>:
    1280:	922aabb7 	eorls	sl, sl, #187392	; 0x2dc00

00001284 <l925>:
    1284:	e1dda2b0 	ldrh	sl, [sp, #32]

00001288 <l926>:
    1288:	e5cda043 	strb	sl, [sp, #67]	; 0x43

0000128c <l927>:
    128c:	e0ff3f0f 	rscs	r3, pc, pc, lsl #30

00001290 <l928>:
    1290:	e59fb000 	ldr	fp, [pc]	; 1298 <l930>

00001294 <l929>:
    1294:	ea000000 	b	129c <interrupt_167>

00001298 <l930>:
    1298:	000fffd4 	.word	0x000fffd4

0000129c <interrupt_167>:
    129c:	414b2097 	swpbmi	r2, r7, [fp]

000012a0 <l932>:
    12a0:	6060900e 	rsbvs	r9, r0, lr

000012a4 <interrupt_877>:
    12a4:	e48d4000 	str	r4, [sp], #0

000012a8 <l934>:
    12a8:	e59f3000 	ldr	r3, [pc]	; 12b0 <l936>

000012ac <l935>:
    12ac:	ea000000 	b	12b4 <l937>

000012b0 <l936>:
    12b0:	000fffc0 	.word	0x000fffc0

000012b4 <l937>:
    12b4:	61034095 	swpvs	r4, r5, [r3]

000012b8 <l938>:
    12b8:	e0d38009 	sbcs	r8, r3, r9

000012bc <l939>:
    12bc:	41740000 	cmnmi	r4, r0

000012c0 <l940>:
    12c0:	7a000004 	bvc	12d8 <l946>

000012c4 <l941>:
    12c4:	e28010d1 	add	r1, r0, #209	; 0xd1

000012c8 <l942>:
    12c8:	e11b0219 	tst	fp, r9, lsl r2

000012cc <l943>:
    12cc:	e1f0200c 	mvns	r2, ip

000012d0 <l944>:
    12d0:	e13a0e19 	teq	sl, r9, lsl lr

000012d4 <l945>:
    12d4:	ea000000 	b	12dc <l947>

000012d8 <l946>:
    12d8:	eafffffa 	b	12c8 <l942>

000012dc <l947>:
    12dc:	e8bd0180 	pop	{r7, r8}

000012e0 <l948>:
    12e0:	213a000c 	teqcs	sl, ip

000012e4 <interrupt_873>:
    12e4:	91dd01db 	ldrsbls	r0, [sp, #27]

000012e8 <l950>:
    12e8:	e098012b 	adds	r0, r8, fp, lsr #2

000012ec <interrupt_475>:
    12ec:	e0d08376 	sbcs	r8, r0, r6, ror r3

000012f0 <interrupt_521>:
    12f0:	801b4002 	andshi	r4, fp, r2

000012f4 <l953>:
    12f4:	e07bb5ce 	rsbs	fp, fp, lr, asr #11

000012f8 <l954>:
    12f8:	489d18bb 	ldmmi	sp, {r0, r1, r3, r4, r5, r7, fp, ip}

000012fc <l955>:
    12fc:	e59f8000 	ldr	r8, [pc]	; 1304 <l957>

00001300 <interrupt_956>:
    1300:	ea000000 	b	1308 <l958>

00001304 <l957>:
    1304:	000fffe8 	.word	0x000fffe8

00001308 <l958>:
    1308:	a1081096 	swpge	r1, r6, [r8]

0000130c <l959>:
    130c:	e3a05000 	mov	r5, #0

00001310 <interrupt_409>:
    1310:	878d6005 	strhi	r6, [sp, r5]

00001314 <l961>:
    1314:	e59fc000 	ldr	ip, [pc]	; 131c <l963>

00001318 <l962>:
    1318:	ea000000 	b	1320 <interrupt_87>

0000131c <l963>:
    131c:	000fffa0 	.word	0x000fffa0

00001320 <interrupt_87>:
    1320:	e10c3092 	swp	r3, r2, [ip]

00001324 <interrupt_422>:
    1324:	61dde3bc 	ldrhvs	lr, [sp, #60]	; 0x3c

00001328 <l966>:
    1328:	e3a05024 	mov	r5, #36	; 0x24

0000132c <l967>:
    132c:	e19d10f5 	ldrsh	r1, [sp, r5]

00001330 <l968>:
    1330:	e3a0c005 	mov	ip, #5

00001334 <l969>:
    1334:	e75db00c 	ldrb	fp, [sp, -ip]

00001338 <l970>:
    1338:	e06ea06f 	rsb	sl, lr, pc, rrx

0000133c <interrupt_49>:
    133c:	e07fb006 	rsbs	fp, pc, r6

00001340 <l972>:
    1340:	efcd69ae 	svc	0x00cd69ae

00001344 <l973>:
    1344:	63c402e2 	bicvs	r0, r4, #536870926	; 0x2000000e

00001348 <interrupt_181>:
    1348:	e59f4000 	ldr	r4, [pc]	; 1350 <interrupt_782>

0000134c <l975>:
    134c:	ea000000 	b	1354 <interrupt_854>

00001350 <interrupt_782>:
    1350:	000fffdc 	.word	0x000fffdc

00001354 <interrupt_854>:
    1354:	d1446092 	swpble	r6, r2, [r4]

00001358 <l978>:
    1358:	ca000008 	bgt	1380 <l988>

0000135c <l979>:
    135c:	e0c59e02 	sbc	r9, r5, r2, lsl #28

00001360 <l980>:
    1360:	b31405e9 	tstlt	r4, #977272832	; 0x3a400000

00001364 <l981>:
    1364:	7197c005 	orrsvc	ip, r7, r5

00001368 <l982>:
    1368:	21e01b1a 	mvncs	r1, sl, lsl fp

0000136c <interrupt_62>:
    136c:	e051b567 	subs	fp, r1, r7, ror #10

00001370 <l984>:
    1370:	23330043 	teqcs	r3, #67	; 0x43

00001374 <l985>:
    1374:	e0f17ea6 	rscs	r7, r1, r6, lsr #29

00001378 <l986>:
    1378:	e16f8f1b 	clz	r8, fp

0000137c <interrupt_728>:
    137c:	b3b0e54d 	movslt	lr, #322961408	; 0x13400000

00001380 <l988>:
    1380:	e1710060 	cmn	r1, r0, rrx

00001384 <l989>:
    1384:	d19ecc69 	orrsle	ip, lr, r9, ror #24

00001388 <l990>:
    1388:	e48d2020 	str	r2, [sp], #32

0000138c <l991>:
    138c:	e3a0e010 	mov	lr, #16

00001390 <l992>:
    1390:	971d600e 	ldrls	r6, [sp, -lr]

00001394 <interrupt_662>:
    1394:	90a0c314 	adcls	ip, r0, r4, lsl r3

00001398 <l994>:
    1398:	eff17424 	svc	0x00f17424

0000139c <l995>:
    139c:	e3a05027 	mov	r5, #39	; 0x27

000013a0 <l996>:
    13a0:	375d2005 	ldrbcc	r2, [sp, -r5]

000013a4 <l997>:
    13a4:	a3e0e8e7 	mvnge	lr, #15138816	; 0xe70000

000013a8 <interrupt_214>:
    13a8:	e59f7000 	ldr	r7, [pc]	; 13b0 <l1000>

000013ac <l999>:
    13ac:	ea000000 	b	13b4 <l1001>

000013b0 <l1000>:
    13b0:	000fffd4 	.word	0x000fffd4

000013b4 <l1001>:
    13b4:	e107e093 	swp	lr, r3, [r7]

000013b8 <l1002>:
    13b8:	6a000008 	bvs	13e0 <l1012>

000013bc <l1003>:
    13bc:	41b03009 	movsmi	r3, r9

000013c0 <l1004>:
    13c0:	61b0af6e 	rorsvs	sl, lr, #30

000013c4 <l1005>:
    13c4:	e003513e 	and	r5, r3, lr, lsr r1

000013c8 <l1006>:
    13c8:	3029c068 	eorcc	ip, r9, r8, rrx

000013cc <interrupt_149>:
    13cc:	e0538952 	subs	r8, r3, r2, asr r9

000013d0 <l1008>:
    13d0:	e0610f07 	rsb	r0, r1, r7, lsl #30

000013d4 <l1009>:
    13d4:	816f5f16 	clzhi	r5, r6

000013d8 <l1010>:
    13d8:	c2ee3727 	rscgt	r3, lr, #10223616	; 0x9c0000

000013dc <interrupt_448>:
    13dc:	10468068 	subne	r8, r6, r8, rrx

000013e0 <l1012>:
    13e0:	e11b0a24 	tst	fp, r4, lsr #20

000013e4 <l1013>:
    13e4:	c04ba06f 	subgt	sl, fp, pc, rrx

000013e8 <l1014>:
    13e8:	12124b0b 	andsne	r4, r2, #11264	; 0x2c00

000013ec <l1015>:
    13ec:	40593777 	subsmi	r3, r9, r7, ror r7

000013f0 <l1016>:
    13f0:	b268e602 	rsblt	lr, r8, #2097152	; 0x200000

000013f4 <l1017>:
    13f4:	e3a0c004 	mov	ip, #4

000013f8 <l1018>:
    13f8:	575de00c 	ldrbpl	lr, [sp, -ip]

000013fc <l1019>:
    13fc:	989d0390 	ldmls	sp, {r4, r7, r8, r9}

00001400 <l1020>:
    1400:	e3a0e020 	mov	lr, #32

00001404 <l1021>:
    1404:	c18d70be 	strhgt	r7, [sp, lr]

00001408 <l1022>:
    1408:	e16fbf11 	clz	fp, r1

0000140c <interrupt_759>:
    140c:	e3f09088 	mvns	r9, #136	; 0x88

00001410 <l1024>:
    1410:	ea000002 	b	1420 <l1028>

00001414 <interrupt_824>:
    1414:	e280103e 	add	r1, r0, #62	; 0x3e

00001418 <l1026>:
    1418:	e005a315 	and	sl, r5, r5, lsl r3

0000141c <l1027>:
    141c:	ea000000 	b	1424 <l1029>

00001420 <l1028>:
    1420:	eafffffc 	b	1418 <l1026>

00001424 <l1029>:
    1424:	e3a07019 	mov	r7, #25

00001428 <l1030>:
    1428:	e19d60d7 	ldrsb	r6, [sp, r7]

0000142c <interrupt_414>:
    142c:	915d40fc 	ldrshls	r4, [sp, #-12]

00001430 <l1032>:
    1430:	c3df2a32 	bicsgt	r2, pc, #204800	; 0x32000

00001434 <l1033>:
    1434:	e1f0400c 	mvns	r4, ip

00001438 <l1034>:
    1438:	e3a09020 	mov	r9, #32

0000143c <l1035>:
    143c:	e60d9009 	str	r9, [sp], -r9

00001440 <l1036>:
    1440:	e49d3004 	pop	{r3}		; (ldr r3, [sp], #4)

00001444 <l1037>:
    1444:	e1a04889 	lsl	r4, r9, #17

00001448 <l1038>:
    1448:	e0c60009 	sbc	r0, r6, r9

0000144c <l1039>:
    144c:	80e04633 	rschi	r4, r0, r3, lsr r6

00001450 <l1040>:
    1450:	e3a09030 	mov	r9, #48	; 0x30

00001454 <interrupt_539>:
    1454:	e69d9009 	ldr	r9, [sp], r9

00001458 <l1042>:
    1458:	60e5e003 	rscvs	lr, r5, r3

0000145c <l1043>:
    145c:	ef07f8db 	svc	0x0007f8db

00001460 <l1044>:
    1460:	e0571004 	subs	r1, r7, r4

00001464 <interrupt_625>:
    1464:	e3a03000 	mov	r3, #0

00001468 <l1046>:
    1468:	07cd9003 	strbeq	r9, [sp, r3]

0000146c <l1047>:
    146c:	e15da0ba 	ldrh	sl, [sp, #-10]

00001470 <l1048>:
    1470:	e3a0a02c 	mov	sl, #44	; 0x2c

00001474 <l1049>:
    1474:	e10da0ba 	strh	sl, [sp, -sl]

00001478 <interrupt_388>:
    1478:	4a000004 	bmi	1490 <l1056>

0000147c <interrupt_975>:
    147c:	71a03b54 	asrvc	r3, r4, fp

00001480 <l1052>:
    1480:	a02556e4 	eorge	r5, r5, r4, ror #13

00001484 <l1053>:
    1484:	10cb4b79 	sbcne	r4, fp, r9, ror fp

00001488 <l1054>:
    1488:	816f1f14 	clzhi	r1, r4

0000148c <l1055>:
    148c:	818e9079 	orrhi	r9, lr, r9, ror r0

00001490 <l1056>:
    1490:	e0596071 	subs	r6, r9, r1, ror r0

00001494 <l1057>:
    1494:	ef47476c 	svc	0x0047476c

00001498 <interrupt_93>:
    1498:	e1760051 	cmn	r6, r1, asr r0

0000149c <l1059>:
    149c:	80de5011 	sbcshi	r5, lr, r1, lsl r0

000014a0 <l1060>:
    14a0:	e16f8f11 	clz	r8, r1

000014a4 <l1061>:
    14a4:	e0484a57 	sub	r4, r8, r7, asr sl

000014a8 <l1062>:
    14a8:	e3a06000 	mov	r6, #0

000014ac <l1063>:
    14ac:	57cde006 	strbpl	lr, [sp, r6]

000014b0 <interrupt_73>:
    14b0:	e59f4000 	ldr	r4, [pc]	; 14b8 <l1066>

000014b4 <l1065>:
    14b4:	ea000000 	b	14bc <l1067>

000014b8 <l1066>:
    14b8:	000fffd4 	.word	0x000fffd4

000014bc <l1067>:
    14bc:	e144c091 	swpb	ip, r1, [r4]

000014c0 <l1068>:
    14c0:	e93d5aee 	ldmdb	sp!, {r1, r2, r3, r5, r6, r7, r9, fp, ip, lr}

000014c4 <l1069>:
    14c4:	30ff0007 	rscscc	r0, pc, r7

000014c8 <interrupt_485>:
    14c8:	81ca3007 	bichi	r3, sl, r7

000014cc <interrupt_196>:
    14cc:	d1f0151e 	mvnsle	r1, lr, lsl r5

000014d0 <l1072>:
    14d0:	e16fcf12 	clz	ip, r2

000014d4 <l1073>:
    14d4:	06496139 	.word	0x06496139

000014d8 <l1074>:
    14d8:	b16f5f14 	clzlt	r5, r4

000014dc <l1075>:
    14dc:	f85ba1d1 	.word	0xf85ba1d1

000014e0 <l1076>:
    14e0:	e0f01064 	rscs	r1, r0, r4, rrx

000014e4 <l1077>:
    14e4:	e1b0706c 	rrxs	r7, ip

000014e8 <l1078>:
    14e8:	11a02f6c 	rorne	r2, ip, #30

000014ec <l1079>:
    14ec:	11750063 	cmnne	r5, r3, rrx

000014f0 <l1080>:
    14f0:	ef6fbc5c 	svc	0x006fbc5c

000014f4 <interrupt_583>:
    14f4:	e1740357 	cmn	r4, r7, asr r3

000014f8 <interrupt_433>:
    14f8:	b2a8179a 	adclt	r1, r8, #40370176	; 0x2680000

000014fc <l1083>:
    14fc:	e02ca068 	eor	sl, ip, r8, rrx

00001500 <l1084>:
    1500:	02557c1a 	subseq	r7, r5, #6656	; 0x1a00

00001504 <interrupt_997>:
    1504:	e33a012b 	teq	sl, #-1073741814	; 0xc000000a

00001508 <l1086>:
    1508:	40936d09 	addsmi	r6, r3, r9, lsl #26

0000150c <interrupt_346>:
    150c:	e16f6f1b 	clz	r6, fp

00001510 <l1088>:
    1510:	107a43af 	rsbsne	r4, sl, pc, lsr #7

00001514 <l1089>:
    1514:	b0505120 	subslt	r5, r0, r0, lsr #2

00001518 <l1090>:
    1518:	429f4409 	addsmi	r4, pc, #150994944	; 0x9000000

0000151c <l1091>:
    151c:	158d002c 	strne	r0, [sp, #44]	; 0x2c

00001520 <interrupt_34>:
    1520:	e3a08034 	mov	r8, #52	; 0x34

00001524 <l1093>:
    1524:	e19d60b8 	ldrh	r6, [sp, r8]

00001528 <l1094>:
    1528:	efd476b4 	svc	0x00d476b4

0000152c <l1095>:
    152c:	e3a0200c 	mov	r2, #12

00001530 <l1096>:
    1530:	711db0f2 	ldrshvc	fp, [sp, -r2]

00001534 <l1097>:
    1534:	0a000002 	beq	1544 <l1101>

00001538 <l1098>:
    1538:	e2801001 	add	r1, r0, #1

0000153c <l1099>:
    153c:	a1c7c003 	bicge	ip, r7, r3

00001540 <l1100>:
    1540:	ea000000 	b	1548 <l1102>

00001544 <l1101>:
    1544:	eafffffc 	b	153c <l1099>

00001548 <l1102>:
    1548:	30d95526 	sbcscc	r5, r9, r6, lsr #10

0000154c <l1103>:
    154c:	514db0b6 	strhpl	fp, [sp, #-6]

00001550 <interrupt_452>:
    1550:	13e0aeb9 	mvnne	sl, #2960	; 0xb90

00001554 <l1105>:
    1554:	4094698c 	addsmi	r6, r4, ip, lsl #19

00001558 <l1106>:
    1558:	c58d1008 	strgt	r1, [sp, #8]

0000155c <interrupt_139>:
    155c:	e3a02010 	mov	r2, #16

00001560 <interrupt_127>:
    1560:	074da002 	strbeq	sl, [sp, -r2]

00001564 <l1109>:
    1564:	e3a00032 	mov	r0, #50	; 0x32

00001568 <l1110>:
    1568:	e7cd3000 	strb	r3, [sp, r0]

0000156c <l1111>:
    156c:	30687153 	rsbcc	r7, r8, r3, asr r1

00001570 <l1112>:
    1570:	4027e3e0 	eormi	lr, r7, r0, ror #7

00001574 <l1113>:
    1574:	e1a00000 	nop			; (mov r0, r0)

00001578 <interrupt_42>:
    1578:	e5dd3016 	ldrb	r3, [sp, #22]

0000157c <l1115>:
    157c:	b16f4f18 	clzlt	r4, r8

00001580 <l1116>:
    1580:	e3370227 	teq	r7, #1879048194	; 0x70000002

00001584 <l1117>:
    1584:	73d9b70f 	bicsvc	fp, r9, #3932160	; 0x3c0000

00001588 <l1118>:
    1588:	60a1e9cf 	adcvs	lr, r1, pc, asr #19

0000158c <l1119>:
    158c:	51d26472 	bicspl	r6, r2, r2, ror r4

00001590 <l1120>:
    1590:	e59f2000 	ldr	r2, [pc]	; 1598 <l1122>

00001594 <l1121>:
    1594:	ea000000 	b	159c <l1123>

00001598 <l1122>:
    1598:	000fffe0 	.word	0x000fffe0

0000159c <l1123>:
    159c:	41024091 	swpmi	r4, r1, [r2]

000015a0 <l1124>:
    15a0:	ef92dd07 	svc	0x0092dd07

000015a4 <l1125>:
    15a4:	6a000008 	bvs	15cc <l1135>

000015a8 <l1126>:
    15a8:	30584d87 	subscc	r4, r8, r7, lsl #27

000015ac <interrupt_8>:
    15ac:	e186400c 	orr	r4, r6, ip

000015b0 <l1128>:
    15b0:	91750001 	cmnls	r5, r1

000015b4 <l1129>:
    15b4:	81110439 	tsthi	r1, r9, lsr r4

000015b8 <interrupt_630>:
    15b8:	e37a0d9b 	cmn	sl, #9920	; 0x26c0

000015bc <l1131>:
    15bc:	00118004 	andseq	r8, r1, r4

000015c0 <l1132>:
    15c0:	21510003 	cmpcs	r1, r3

000015c4 <l1133>:
    15c4:	e1380849 	teq	r8, r9, asr #16

000015c8 <l1134>:
    15c8:	e0e3c459 	rsc	ip, r3, r9, asr r4

000015cc <l1135>:
    15cc:	e1cec00c 	bic	ip, lr, ip

000015d0 <l1136>:
    15d0:	c15d70ba 	ldrhgt	r7, [sp, #-10]

000015d4 <l1137>:
    15d4:	a0f3b003 	rscsge	fp, r3, r3

000015d8 <l1138>:
    15d8:	e16fef16 	clz	lr, r6

000015dc <l1139>:
    15dc:	4a000006 	bmi	15fc <l1147>

000015e0 <l1140>:
    15e0:	e28010be 	add	r1, r0, #190	; 0xbe

000015e4 <l1141>:
    15e4:	e2248db1 	eor	r8, r4, #11328	; 0x2c40

000015e8 <l1142>:
    15e8:	b0756065 	rsbslt	r6, r5, r5, rrx

000015ec <l1143>:
    15ec:	e01c5008 	ands	r5, ip, r8

000015f0 <l1144>:
    15f0:	51cf1003 	bicpl	r1, pc, r3

000015f4 <l1145>:
    15f4:	d35a0be1 	cmple	sl, #230400	; 0x38400

000015f8 <l1146>:
    15f8:	ea000000 	b	1600 <l1148>

000015fc <l1147>:
    15fc:	eafffff8 	b	15e4 <l1141>

00001600 <l1148>:
    1600:	e050500b 	subs	r5, r0, fp

00001604 <l1149>:
    1604:	e33c0679 	teq	ip, #126877696	; 0x7900000

00001608 <interrupt_928>:
    1608:	b88d000c 	stmlt	sp, {r2, r3}

0000160c <interrupt_940>:
    160c:	f0834587 	.word	0xf0834587

00001610 <l1152>:
    1610:	039e5686 	orrseq	r5, lr, #140509184	; 0x8600000

00001614 <l1153>:
    1614:	efde8e6a 	svc	0x00de8e6a

00001618 <l1154>:
    1618:	efe84717 	svc	0x00e84717

0000161c <l1155>:
    161c:	c38e1be6 	orrgt	r1, lr, #235520	; 0x39800

00001620 <l1156>:
    1620:	e0f24332 	rscs	r4, r2, r2, lsr r3

00001624 <l1157>:
    1624:	e2623de2 	rsb	r3, r2, #14464	; 0x3880

00001628 <l1158>:
    1628:	629771fa 	addsvs	r7, r7, #-2147483586	; 0x8000003e

0000162c <l1159>:
    162c:	01180643 	tsteq	r8, r3, asr #12

00001630 <l1160>:
    1630:	e3a06037 	mov	r6, #55	; 0x37

00001634 <l1161>:
    1634:	a7cd6006 	strbge	r6, [sp, r6]

00001638 <interrupt_499>:
    1638:	e0443a8a 	sub	r3, r4, sl, lsl #21

0000163c <interrupt_406>:
    163c:	e59f4000 	ldr	r4, [pc]	; 1644 <interrupt_314>

00001640 <l1164>:
    1640:	ea000000 	b	1648 <l1166>

00001644 <interrupt_314>:
    1644:	000fffd0 	.word	0x000fffd0

00001648 <l1166>:
    1648:	e144c091 	swpb	ip, r1, [r4]

0000164c <l1167>:
    164c:	b013b06f 	andslt	fp, r3, pc, rrx

00001650 <l1168>:
    1650:	c16f0f18 	clzgt	r0, r8

00001654 <interrupt_230>:
    1654:	e3a06012 	mov	r6, #18

00001658 <l1170>:
    1658:	319d40b6 	ldrhcc	r4, [sp, r6]

0000165c <l1171>:
    165c:	11320611 	teqne	r2, r1, lsl r6

00001660 <interrupt_191>:
    1660:	e15d81d4 	ldrsb	r8, [sp, #-20]	; 0xffffffec

00001664 <l1173>:
    1664:	a13c02c2 	teqge	ip, r2, asr #5

00001668 <l1174>:
    1668:	e1b0a002 	movs	sl, r2

0000166c <l1175>:
    166c:	10904168 	addsne	r4, r0, r8, ror #2

00001670 <l1176>:
    1670:	e298bb01 	adds	fp, r8, #1024	; 0x400

00001674 <interrupt_46>:
    1674:	e98d0004 	stmib	sp, {r2}

00001678 <l1178>:
    1678:	c0ccc006 	sbcgt	ip, ip, r6

0000167c <l1179>:
    167c:	e1dd01b6 	ldrh	r0, [sp, #22]

00001680 <interrupt_544>:
    1680:	13e0c5c5 	mvnne	ip, #826277888	; 0x31400000

00001684 <l1181>:
    1684:	7a000001 	bvc	1690 <interrupt_787>

00001688 <l1182>:
    1688:	c0a2b91e 	adcgt	fp, r2, lr, lsl r9

0000168c <l1183>:
    168c:	e1e06001 	mvn	r6, r1

00001690 <interrupt_787>:
    1690:	e0033d67 	and	r3, r3, r7, ror #26

00001694 <l1185>:
    1694:	ba000000 	blt	169c <interrupt_70>

00001698 <l1186>:
    1698:	e056e066 	subs	lr, r6, r6, rrx

0000169c <interrupt_70>:
    169c:	a2f39833 	rscsge	r9, r3, #3342336	; 0x330000

000016a0 <l1188>:
    16a0:	e0b8c061 	adcs	ip, r8, r1, rrx

000016a4 <interrupt_477>:
    16a4:	50ecacc7 	rscpl	sl, ip, r7, asr #25

000016a8 <l1190>:
    16a8:	016f5f1e 	clzeq	r5, lr

000016ac <l1191>:
    16ac:	d1e06633 	mvnle	r6, r3, lsr r6

000016b0 <l1192>:
    16b0:	c154006f 	cmpgt	r4, pc, rrx

000016b4 <interrupt_244>:
    16b4:	e16fef1a 	clz	lr, sl

000016b8 <l1194>:
    16b8:	73b0c2de 	movsvc	ip, #-536870899	; 0xe000000d

000016bc <interrupt_454>:
    16bc:	e276afca 	rsbs	sl, r6, #808	; 0x328

000016c0 <l1196>:
    16c0:	e82d8801 	stmda	sp!, {r0, fp, pc}

000016c4 <l1197>:
    16c4:	ba000007 	blt	16e8 <l1206>

000016c8 <l1198>:
    16c8:	e2801018 	add	r1, r0, #24

000016cc <l1199>:
    16cc:	d16fcf14 	clzle	ip, r4

000016d0 <l1200>:
    16d0:	d375023a 	cmnle	r5, #-1610612733	; 0xa0000003

000016d4 <l1201>:
    16d4:	e25e3fbf 	subs	r3, lr, #764	; 0x2fc

000016d8 <l1202>:
    16d8:	23f07e12 	mvnscs	r7, #288	; 0x120

000016dc <l1203>:
    16dc:	10423004 	subne	r3, r2, r4

000016e0 <l1204>:
    16e0:	105e1c2b 	subsne	r1, lr, fp, lsr #24

000016e4 <interrupt_18>:
    16e4:	ea000000 	b	16ec <l1207>

000016e8 <l1206>:
    16e8:	eafffff7 	b	16cc <l1199>

000016ec <l1207>:
    16ec:	e006e007 	and	lr, r6, r7

000016f0 <interrupt_801>:
    16f0:	7a000007 	bvc	1714 <l1217>

000016f4 <interrupt_356>:
    16f4:	e16fcf12 	clz	ip, r2

000016f8 <l1210>:
    16f8:	70deb067 	sbcsvc	fp, lr, r7, rrx

000016fc <l1211>:
    16fc:	41f06004 	mvnsmi	r6, r4

00001700 <l1212>:
    1700:	216fbf11 	clzcs	fp, r1

00001704 <interrupt_660>:
    1704:	e3c7a7b6 	bic	sl, r7, #47710208	; 0x2d80000

00001708 <l1214>:
    1708:	825a63f5 	subshi	r6, sl, #-738197501	; 0xd4000003

0000170c <l1215>:
    170c:	70489457 	subvc	r9, r8, r7, asr r4

00001710 <l1216>:
    1710:	30f44d82 	rscscc	r4, r4, r2, lsl #27

00001714 <l1217>:
    1714:	01b03002 	movseq	r3, r2

00001718 <l1218>:
    1718:	a1cda2b8 	strhge	sl, [sp, #40]	; 0x28

0000171c <interrupt_206>:
    171c:	e5cd001a 	strb	r0, [sp, #26]

00001720 <l1220>:
    1720:	ef679a18 	svc	0x00679a18

00001724 <interrupt_980>:
    1724:	109f5062 	addsne	r5, pc, r2, rrx

00001728 <interrupt_775>:
    1728:	9a000006 	bls	1748 <l1230>

0000172c <l1223>:
    172c:	e2801034 	add	r1, r0, #52	; 0x34

00001730 <interrupt_861>:
    1730:	639185eb 	orrsvs	r8, r1, #985661440	; 0x3ac00000

00001734 <l1225>:
    1734:	829231aa 	addshi	r3, r2, #-2147483606	; 0x8000002a

00001738 <l1226>:
    1738:	7156000b 	cmpvc	r6, fp

0000173c <l1227>:
    173c:	e3e0133a 	mvn	r1, #-402653184	; 0xe8000000

00001740 <l1228>:
    1740:	026f0757 	rsbeq	r0, pc, #22806528	; 0x15c0000

00001744 <interrupt_528>:
    1744:	ea000000 	b	174c <l1231>

00001748 <l1230>:
    1748:	eafffff8 	b	1730 <interrupt_861>

0000174c <l1231>:
    174c:	e16f3f16 	clz	r3, r6

00001750 <l1232>:
    1750:	017e000c 	cmneq	lr, ip

00001754 <interrupt_570>:
    1754:	e8ad0008 	stmia	sp!, {r3}

00001758 <l1234>:
    1758:	e16f2f10 	clz	r2, r0

0000175c <interrupt_43>:
    175c:	e3a0a033 	mov	sl, #51	; 0x33

00001760 <l1236>:
    1760:	e7dd500a 	ldrb	r5, [sp, sl]

00001764 <l1237>:
    1764:	933b023b 	teqls	fp, #-1342177277	; 0xb0000003

00001768 <l1238>:
    1768:	e8ad2000 	stmia	sp!, {sp}

0000176c <l1239>:
    176c:	0a000007 	beq	1790 <l1248>

00001770 <l1240>:
    1770:	e28010eb 	add	r1, r0, #235	; 0xeb

00001774 <l1241>:
    1774:	e280401e 	add	r4, r0, #30

00001778 <interrupt_264>:
    1778:	b0342005 	eorslt	r2, r4, r5

0000177c <l1243>:
    177c:	6034600f 	eorsvs	r6, r4, pc

00001780 <l1244>:
    1780:	716f0f19 	clzvc	r0, r9

00001784 <l1245>:
    1784:	e3874831 	orr	r4, r7, #3211264	; 0x310000

00001788 <interrupt_708>:
    1788:	8000500e 	andhi	r5, r0, lr

0000178c <l1247>:
    178c:	ea000000 	b	1794 <interrupt_565>

00001790 <l1248>:
    1790:	eafffff7 	b	1774 <l1241>

00001794 <interrupt_565>:
    1794:	72d7b003 	sbcsvc	fp, r7, #3

00001798 <l1250>:
    1798:	a347d394 	.word	0xa347d394

0000179c <l1251>:
    179c:	e3a09022 	mov	r9, #34	; 0x22

000017a0 <l1252>:
    17a0:	e19d40f9 	ldrsh	r4, [sp, r9]

000017a4 <l1253>:
    17a4:	e15a000c 	cmp	sl, ip

000017a8 <interrupt_195>:
    17a8:	91e00717 	mvnls	r0, r7, lsl r7

000017ac <l1255>:
    17ac:	e0016d8c 	and	r6, r1, ip, lsl #27

000017b0 <l1256>:
    17b0:	21dd02d8 	ldrsbcs	r0, [sp, #40]	; 0x28

000017b4 <l1257>:
    17b4:	e0c87060 	sbc	r7, r8, r0, rrx

000017b8 <interrupt_144>:
    17b8:	e3a0200d 	mov	r2, #13

000017bc <l1259>:
    17bc:	47dd0002 	ldrbmi	r0, [sp, r2]

000017c0 <l1260>:
    17c0:	e1f022c8 	mvns	r2, r8, asr #5

000017c4 <interrupt_812>:
    17c4:	a0b19068 	adcsge	r9, r1, r8, rrx

000017c8 <l1262>:
    17c8:	d28b55f6 	addle	r5, fp, #1031798784	; 0x3d800000

000017cc <l1263>:
    17cc:	e3a09030 	mov	r9, #48	; 0x30

000017d0 <l1264>:
    17d0:	619d80b9 	ldrhvs	r8, [sp, r9]

000017d4 <l1265>:
    17d4:	ffec0f00 	.word	0xffec0f00

000017d8 <l1266>:
    17d8:	222e01e1 	eorcs	r0, lr, #1073741880	; 0x40000038

000017dc <l1267>:
    17dc:	51dd81b6 	ldrhpl	r8, [sp, #22]

000017e0 <l1268>:
    17e0:	917e006b 	cmnls	lr, fp, rrx

000017e4 <l1269>:
    17e4:	e016b06c 	ands	fp, r6, ip, rrx

000017e8 <l1270>:
    17e8:	e59f7000 	ldr	r7, [pc]	; 17f0 <l1272>

000017ec <l1271>:
    17ec:	ea000000 	b	17f4 <l1273>

000017f0 <l1272>:
    17f0:	000fffcc 	.word	0x000fffcc

000017f4 <l1273>:
    17f4:	e147109a 	swpb	r1, sl, [r7]

000017f8 <interrupt_54>:
    17f8:	e3a0300a 	mov	r3, #10

000017fc <l1275>:
    17fc:	e19de0d3 	ldrsb	lr, [sp, r3]

00001800 <l1276>:
    1800:	b02aa656 	eorlt	sl, sl, r6, asr r6

00001804 <l1277>:
    1804:	c16f0f1c 	clzgt	r0, ip

00001808 <l1278>:
    1808:	e5dd102a 	ldrb	r1, [sp, #42]	; 0x2a

0000180c <l1279>:
    180c:	50ea7068 	rscpl	r7, sl, r8, rrx

00001810 <l1280>:
    1810:	e48df020 	str	pc, [sp], #32

00001814 <l1281>:
    1814:	f27129d0 	.word	0xf27129d0

00001818 <interrupt_667>:
    1818:	f89010d2 	.word	0xf89010d2

0000181c <l1283>:
    181c:	e1170e57 	tst	r7, r7, asr lr

00001820 <l1284>:
    1820:	e029700f 	eor	r7, r9, pc

00001824 <l1285>:
    1824:	516fcf17 	clzpl	ip, r7

00001828 <l1286>:
    1828:	96f4fdd4 	.word	0x96f4fdd4

0000182c <l1287>:
    182c:	e55d500b 	ldrb	r5, [sp, #-11]

00001830 <l1288>:
    1830:	e3a0401e 	mov	r4, #30

00001834 <l1289>:
    1834:	711d90f4 	ldrshvc	r9, [sp, -r4]

00001838 <l1290>:
    1838:	f9aa316a 	.word	0xf9aa316a

0000183c <l1291>:
    183c:	e1c0a675 	bic	sl, r0, r5, ror r6

00001840 <l1292>:
    1840:	3a000003 	bcc	1854 <l1297>

00001844 <l1293>:
    1844:	5194c77b 	orrspl	ip, r4, fp, ror r7

00001848 <l1294>:
    1848:	e1a01804 	lsl	r1, r4, #16

0000184c <l1295>:
    184c:	61590068 	cmpvs	r9, r8, rrx

00001850 <l1296>:
    1850:	e33200cc 	teq	r2, #204	; 0xcc

00001854 <l1297>:
    1854:	21a03004 	movcs	r3, r4

00001858 <interrupt_417>:
    1858:	e54d6002 	strb	r6, [sp, #-2]

0000185c <l1299>:
    185c:	e3a01014 	mov	r1, #20

00001860 <interrupt_751>:
    1860:	e61d2001 	ldr	r2, [sp], -r1

00001864 <interrupt_51>:
    1864:	e15e006e 	cmp	lr, lr, rrx

00001868 <l1302>:
    1868:	91f09072 	mvnsls	r9, r2, ror r0

0000186c <l1303>:
    186c:	e5dd5003 	ldrb	r5, [sp, #3]

00001870 <interrupt_679>:
    1870:	a04c5f65 	subge	r5, ip, r5, ror #30

00001874 <l1305>:
    1874:	e0a83a1c 	adc	r3, r8, ip, lsl sl

00001878 <l1306>:
    1878:	e59f7000 	ldr	r7, [pc]	; 1880 <l1308>

0000187c <l1307>:
    187c:	ea000000 	b	1884 <interrupt_910>

00001880 <l1308>:
    1880:	000fffd0 	.word	0x000fffd0

00001884 <interrupt_910>:
    1884:	11076095 	swpne	r6, r5, [r7]

00001888 <interrupt_901>:
    1888:	e0142003 	ands	r2, r4, r3

0000188c <l1311>:
    188c:	ef7e0be5 	svc	0x007e0be5

00001890 <l1312>:
    1890:	61f00002 	mvnsvs	r0, r2

00001894 <interrupt_235>:
    1894:	e2ce5097 	sbc	r5, lr, #151	; 0x97

00001898 <l1314>:
    1898:	e53d5010 	ldr	r5, [sp, #-16]!

0000189c <l1315>:
    189c:	e1750678 	cmn	r5, r8, ror r6

000018a0 <l1316>:
    18a0:	61580765 	cmpvs	r8, r5, ror #14

000018a4 <l1317>:
    18a4:	efbb9dd7 	svc	0x00bb9dd7

000018a8 <l1318>:
    18a8:	3064ab07 	rsbcc	sl, r4, r7, lsl #22

000018ac <interrupt_803>:
    18ac:	e3a0602e 	mov	r6, #46	; 0x2e

000018b0 <l1320>:
    18b0:	e7cdb006 	strb	fp, [sp, r6]

000018b4 <l1321>:
    18b4:	e59fa000 	ldr	sl, [pc]	; 18bc <interrupt_913>

000018b8 <l1322>:
    18b8:	ea000000 	b	18c0 <interrupt_597>

000018bc <interrupt_913>:
    18bc:	000fffc0 	.word	0x000fffc0

000018c0 <interrupt_597>:
    18c0:	a14ae092 	swpbge	lr, r2, [sl]

000018c4 <interrupt_817>:
    18c4:	717b0e20 	cmnvc	fp, r0, lsr #28

000018c8 <l1326>:
    18c8:	ba000004 	blt	18e0 <interrupt_180>

000018cc <l1327>:
    18cc:	e2801017 	add	r1, r0, #23

000018d0 <l1328>:
    18d0:	e03f700f 	eors	r7, pc, pc

000018d4 <l1329>:
    18d4:	00c31b40 	sbceq	r1, r3, r0, asr #22

000018d8 <l1330>:
    18d8:	e17b000f 	cmn	fp, pc

000018dc <interrupt_811>:
    18dc:	ea000000 	b	18e4 <interrupt_41>

000018e0 <interrupt_180>:
    18e0:	eafffffa 	b	18d0 <l1328>

000018e4 <interrupt_41>:
    18e4:	007ba8c0 	rsbseq	sl, fp, r0, asr #17

000018e8 <l1334>:
    18e8:	e1cde0be 	strh	lr, [sp, #14]

000018ec <l1335>:
    18ec:	e3a00018 	mov	r0, #24

000018f0 <interrupt_274>:
    18f0:	e68dc000 	str	ip, [sp], r0

000018f4 <interrupt_838>:
    18f4:	e1150222 	tst	r5, r2, lsr #4

000018f8 <l1338>:
    18f8:	e0233120 	eor	r3, r3, r0, lsr #2

000018fc <l1339>:
    18fc:	f84a342f 	.word	0xf84a342f

00001900 <l1340>:
    1900:	e59fb000 	ldr	fp, [pc]	; 1908 <l1342>

00001904 <interrupt_154>:
    1904:	ea000000 	b	190c <l1343>

00001908 <l1342>:
    1908:	000fffe4 	.word	0x000fffe4

0000190c <l1343>:
    190c:	414b109a 	swpbmi	r1, sl, [fp]

00001910 <l1344>:
    1910:	124e431d 	subne	r4, lr, #1946157056	; 0x74000000

00001914 <interrupt_799>:
    1914:	e41d4018 	ldr	r4, [sp], #-24

00001918 <l1346>:
    1918:	e0c6a005 	sbc	sl, r6, r5

0000191c <l1347>:
    191c:	611b07e5 	tstvs	fp, r5, ror #15

00001920 <l1348>:
    1920:	e59f9000 	ldr	r9, [pc]	; 1928 <l1350>

00001924 <l1349>:
    1924:	ea000000 	b	192c <l1351>

00001928 <l1350>:
    1928:	000fffcc 	.word	0x000fffcc

0000192c <l1351>:
    192c:	e109009c 	swp	r0, ip, [r9]

00001930 <l1352>:
    1930:	e59d5028 	ldr	r5, [sp, #40]	; 0x28

00001934 <l1353>:
    1934:	e0523151 	subs	r3, r2, r1, asr r1

00001938 <interrupt_890>:
    1938:	e052c034 	subs	ip, r2, r4, lsr r0

0000193c <interrupt_548>:
    193c:	f99e7e35 	.word	0xf99e7e35

00001940 <l1356>:
    1940:	e82d4000 	stmda	sp!, {lr}

00001944 <l1357>:
    1944:	63e0a0b8 	mvnvs	sl, #184	; 0xb8

00001948 <interrupt_512>:
    1948:	e1a00000 	nop			; (mov r0, r0)

0000194c <interrupt_514>:
    194c:	e3a0a02c 	mov	sl, #44	; 0x2c

00001950 <l1360>:
    1950:	e79d900a 	ldr	r9, [sp, sl]

00001954 <l1361>:
    1954:	e59f4000 	ldr	r4, [pc]	; 195c <l1363>

00001958 <interrupt_741>:
    1958:	ea000000 	b	1960 <l1364>

0000195c <l1363>:
    195c:	000fffbc 	.word	0x000fffbc

00001960 <l1364>:
    1960:	e144009e 	swpb	r0, lr, [r4]

00001964 <interrupt_304>:
    1964:	05dd5022 	ldrbeq	r5, [sp, #34]	; 0x22

00001968 <l1366>:
    1968:	a54d8003 	strbge	r8, [sp, #-3]

0000196c <l1367>:
    196c:	e98db7fb 	stmib	sp, {r0, r1, r3, r4, r5, r6, r7, r8, r9, sl, ip, sp, pc}

00001970 <l1368>:
    1970:	e0a2700f 	adc	r7, r2, pc

00001974 <l1369>:
    1974:	e1ddc2f6 	ldrsh	ip, [sp, #38]	; 0x26

00001978 <l1370>:
    1978:	e59fb000 	ldr	fp, [pc]	; 1980 <l1372>

0000197c <l1371>:
    197c:	ea000000 	b	1984 <l1373>

00001980 <l1372>:
    1980:	000fffcc 	.word	0x000fffcc

00001984 <l1373>:
    1984:	514ba09e 	swpbpl	sl, lr, [fp]

00001988 <interrupt_489>:
    1988:	e1a00000 	nop			; (mov r0, r0)

0000198c <l1375>:
    198c:	e1a00000 	nop			; (mov r0, r0)

00001990 <l1376>:
    1990:	f529b4af 	.word	0xf529b4af

00001994 <l1377>:
    1994:	516f1f10 	clzpl	r1, r0

00001998 <l1378>:
    1998:	e3a00010 	mov	r0, #16

0000199c <l1379>:
    199c:	d18d80b0 	strhle	r8, [sp, r0]

000019a0 <l1380>:
    19a0:	7036a001 	eorsvc	sl, r6, r1

000019a4 <l1381>:
    19a4:	e2525027 	subs	r5, r2, #39	; 0x27

000019a8 <l1382>:
    19a8:	1a000005 	bne	19c4 <l1389>

000019ac <interrupt_684>:
    19ac:	e2801076 	add	r1, r0, #118	; 0x76

000019b0 <interrupt_845>:
    19b0:	51dc3119 	bicspl	r3, ip, r9, lsl r1

000019b4 <interrupt_986>:
    19b4:	805b1138 	subshi	r1, fp, r8, lsr r1

000019b8 <l1386>:
    19b8:	e0f9cc59 	rscs	ip, r9, r9, asr ip

000019bc <interrupt_480>:
    19bc:	e1350004 	teq	r5, r4

000019c0 <l1388>:
    19c0:	ea000000 	b	19c8 <l1390>

000019c4 <l1389>:
    19c4:	eafffff9 	b	19b0 <interrupt_845>

000019c8 <l1390>:
    19c8:	e3a02020 	mov	r2, #32

000019cc <l1391>:
    19cc:	e7dd6002 	ldrb	r6, [sp, r2]

000019d0 <l1392>:
    19d0:	611a0061 	tstvs	sl, r1, rrx

000019d4 <l1393>:
    19d4:	e3a0a016 	mov	sl, #22

000019d8 <l1394>:
    19d8:	e18dc0ba 	strh	ip, [sp, sl]

000019dc <l1395>:
    19dc:	e59f2000 	ldr	r2, [pc]	; 19e4 <interrupt_291>

000019e0 <l1396>:
    19e0:	ea000000 	b	19e8 <interrupt_338>

000019e4 <interrupt_291>:
    19e4:	000fffc4 	.word	0x000fffc4

000019e8 <interrupt_338>:
    19e8:	6102809a 	swpvs	r8, sl, [r2]

000019ec <l1399>:
    19ec:	e52d9004 	push	{r9}		; (str r9, [sp, #-4]!)

000019f0 <l1400>:
    19f0:	e15de0d2 	ldrsb	lr, [sp, #-2]

000019f4 <l1401>:
    19f4:	efb892a5 	svc	0x00b892a5

000019f8 <interrupt_668>:
    19f8:	c3590106 	cmpgt	r9, #-2147483647	; 0x80000001

000019fc <interrupt_65>:
    19fc:	90a03064 	adcls	r3, r0, r4, rrx

00001a00 <l1404>:
    1a00:	ea000004 	b	1a18 <interrupt_126>

00001a04 <l1405>:
    1a04:	e28010c2 	add	r1, r0, #194	; 0xc2

00001a08 <l1406>:
    1a08:	209183ec 	addscs	r8, r1, ip, ror #7

00001a0c <l1407>:
    1a0c:	d131000b 	teqle	r1, fp

00001a10 <l1408>:
    1a10:	605a3331 	subsvs	r3, sl, r1, lsr r3

00001a14 <l1409>:
    1a14:	ea000000 	b	1a1c <l1411>

00001a18 <interrupt_126>:
    1a18:	eafffffa 	b	1a08 <l1406>

00001a1c <l1411>:
    1a1c:	ef55e9cb 	svc	0x0055e9cb

00001a20 <l1412>:
    1a20:	e3a03020 	mov	r3, #32

00001a24 <interrupt_59>:
    1a24:	e19d80f3 	ldrsh	r8, [sp, r3]

00001a28 <l1414>:
    1a28:	a3c70b06 	bicge	r0, r7, #6144	; 0x1800

00001a2c <interrupt_863>:
    1a2c:	300fc008 	andcc	ip, pc, r8

00001a30 <l1416>:
    1a30:	e59fa000 	ldr	sl, [pc]	; 1a38 <l1418>

00001a34 <l1417>:
    1a34:	ea000000 	b	1a3c <l1419>

00001a38 <l1418>:
    1a38:	000fffd0 	.word	0x000fffd0

00001a3c <l1419>:
    1a3c:	e14a7096 	swpb	r7, r6, [sl]

00001a40 <l1420>:
    1a40:	616f3f13 	clzvs	r3, r3

00001a44 <interrupt_205>:
    1a44:	506ca00a 	rsbpl	sl, ip, sl

00001a48 <l1422>:
    1a48:	f800f129 	.word	0xf800f129

00001a4c <l1423>:
    1a4c:	b0295d2c 	eorlt	r5, r9, ip, lsr #26

00001a50 <l1424>:
    1a50:	a0b8b006 	adcsge	fp, r8, r6

00001a54 <l1425>:
    1a54:	ef933525 	svc	0x00933525

00001a58 <interrupt_560>:
    1a58:	10d7c1cb 	sbcsne	ip, r7, fp, asr #3

00001a5c <l1427>:
    1a5c:	a3320902 	teqge	r2, #32768	; 0x8000

00001a60 <l1428>:
    1a60:	e59f5000 	ldr	r5, [pc]	; 1a68 <l1430>

00001a64 <l1429>:
    1a64:	ea000000 	b	1a6c <l1431>

00001a68 <l1430>:
    1a68:	000fffa0 	.word	0x000fffa0

00001a6c <l1431>:
    1a6c:	3105709a 	swpcc	r7, sl, [r5]

00001a70 <l1432>:
    1a70:	559db03c 	ldrpl	fp, [sp, #60]	; 0x3c

00001a74 <l1433>:
    1a74:	e3a0e02c 	mov	lr, #44	; 0x2c

00001a78 <l1434>:
    1a78:	778da00e 	strvc	sl, [sp, lr]

00001a7c <l1435>:
    1a7c:	e59f9000 	ldr	r9, [pc]	; 1a84 <l1437>

00001a80 <l1436>:
    1a80:	ea000000 	b	1a88 <interrupt_151>

00001a84 <l1437>:
    1a84:	000fffcc 	.word	0x000fffcc

00001a88 <interrupt_151>:
    1a88:	e109609e 	swp	r6, lr, [r9]

00001a8c <l1439>:
    1a8c:	e0d07689 	sbcs	r7, r0, r9, lsl #13

00001a90 <l1440>:
    1a90:	71dd20ba 	ldrhvc	r2, [sp, #10]

00001a94 <l1441>:
    1a94:	e067b917 	rsb	fp, r7, r7, lsl r9

00001a98 <interrupt_465>:
    1a98:	024730f7 	subeq	r3, r7, #247	; 0xf7

00001a9c <l1443>:
    1a9c:	616f9f11 	clzvs	r9, r1

00001aa0 <l1444>:
    1aa0:	ea000004 	b	1ab8 <l1450>

00001aa4 <l1445>:
    1aa4:	e280101f 	add	r1, r0, #31

00001aa8 <l1446>:
    1aa8:	e02bb7c9 	eor	fp, fp, r9, asr #15

00001aac <l1447>:
    1aac:	904f164a 	subls	r1, pc, sl, asr #12

00001ab0 <interrupt_337>:
    1ab0:	e11b000e 	tst	fp, lr

00001ab4 <l1449>:
    1ab4:	ea000000 	b	1abc <interrupt_937>

00001ab8 <l1450>:
    1ab8:	eafffffa 	b	1aa8 <l1446>

00001abc <interrupt_937>:
    1abc:	e3a0a024 	mov	sl, #36	; 0x24

00001ac0 <interrupt_958>:
    1ac0:	e7dd700a 	ldrb	r7, [sp, sl]

00001ac4 <l1453>:
    1ac4:	a89d0080 	ldmge	sp, {r7}

00001ac8 <interrupt_427>:
    1ac8:	088d0a00 	stmeq	sp, {r9, fp}

00001acc <interrupt_408>:
    1acc:	91dd74f4 	ldrshls	r7, [sp, #68]	; 0x44

00001ad0 <l1456>:
    1ad0:	205a1969 	subscs	r1, sl, r9, ror #18

00001ad4 <l1457>:
    1ad4:	e266e0c0 	rsb	lr, r6, #192	; 0xc0

00001ad8 <l1458>:
    1ad8:	826c1c46 	rsbhi	r1, ip, #17920	; 0x4600

00001adc <l1459>:
    1adc:	e48d9044 	str	r9, [sp], #68	; 0x44

00001ae0 <l1460>:
    1ae0:	e59f5000 	ldr	r5, [pc]	; 1ae8 <interrupt_960>

00001ae4 <l1461>:
    1ae4:	ea000000 	b	1aec <l1463>

00001ae8 <interrupt_960>:
    1ae8:	000fffe4 	.word	0x000fffe4

00001aec <l1463>:
    1aec:	3105c094 	swpcc	ip, r4, [r5]

00001af0 <interrupt_836>:
    1af0:	20049a56 	andcs	r9, r4, r6, asr sl

00001af4 <l1465>:
    1af4:	e0df1008 	sbcs	r1, pc, r8

00001af8 <l1466>:
    1af8:	e53de044 	ldr	lr, [sp, #-68]!	; 0x44

00001afc <l1467>:
    1afc:	d3f0055e 	mvnsle	r0, #394264576	; 0x17800000

00001b00 <l1468>:
    1b00:	7119006a 	tstvc	r9, sl, rrx

00001b04 <interrupt_290>:
    1b04:	60cea067 	sbcvs	sl, lr, r7, rrx

00001b08 <l1470>:
    1b08:	e9ad4040 	stmib	sp!, {r6, lr}

00001b0c <interrupt_91>:
    1b0c:	72ea5a1e 	rscvc	r5, sl, #122880	; 0x1e000

00001b10 <l1472>:
    1b10:	e005a53a 	and	sl, r5, sl, lsr r5

00001b14 <l1473>:
    1b14:	c1120764 	tstgt	r2, r4, ror #14

00001b18 <l1474>:
    1b18:	e59fe000 	ldr	lr, [pc]	; 1b20 <l1476>

00001b1c <l1475>:
    1b1c:	ea000000 	b	1b24 <l1477>

00001b20 <l1476>:
    1b20:	000fffc8 	.word	0x000fffc8

00001b24 <l1477>:
    1b24:	e14e1097 	swpb	r1, r7, [lr]

00001b28 <interrupt_950>:
    1b28:	e04c1007 	sub	r1, ip, r7

00001b2c <l1479>:
    1b2c:	b0a5a002 	adclt	sl, r5, r2

00001b30 <interrupt_676>:
    1b30:	e15db0b2 	ldrh	fp, [sp, #-2]

00001b34 <l1481>:
    1b34:	e59fc000 	ldr	ip, [pc]	; 1b3c <l1483>

00001b38 <l1482>:
    1b38:	ea000000 	b	1b40 <l1484>

00001b3c <l1483>:
    1b3c:	000fffa8 	.word	0x000fffa8

00001b40 <l1484>:
    1b40:	e10c2096 	swp	r2, r6, [ip]

00001b44 <l1485>:
    1b44:	e13c000f 	teq	ip, pc

00001b48 <l1486>:
    1b48:	e2a81074 	adc	r1, r8, #116	; 0x74

00001b4c <l1487>:
    1b4c:	e0462cc9 	sub	r2, r6, r9, asr #25

00001b50 <interrupt_133>:
    1b50:	e2a4ee7f 	adc	lr, r4, #2032	; 0x7f0

00001b54 <l1489>:
    1b54:	e1c99634 	bic	r9, r9, r4, lsr r6

00001b58 <l1490>:
    1b58:	a06b6beb 	rsbge	r6, fp, fp, ror #23

00001b5c <l1491>:
    1b5c:	10ac0719 	adcne	r0, ip, r9, lsl r7

00001b60 <l1492>:
    1b60:	617e0316 	cmnvs	lr, r6, lsl r3

00001b64 <l1493>:
    1b64:	e2f57171 	rscs	r7, r5, #1073741852	; 0x4000001c

00001b68 <l1494>:
    1b68:	e5cd7003 	strb	r7, [sp, #3]

00001b6c <l1495>:
    1b6c:	104e003c 	subne	r0, lr, ip, lsr r0

00001b70 <l1496>:
    1b70:	e17b006f 	cmn	fp, pc, rrx

00001b74 <l1497>:
    1b74:	ef5a5866 	svc	0x005a5866

00001b78 <l1498>:
    1b78:	e5cdb015 	strb	fp, [sp, #21]

00001b7c <l1499>:
    1b7c:	e59f8000 	ldr	r8, [pc]	; 1b84 <l1501>

00001b80 <l1500>:
    1b80:	ea000000 	b	1b88 <l1502>

00001b84 <l1501>:
    1b84:	000fffa0 	.word	0x000fffa0

00001b88 <l1502>:
    1b88:	e108a090 	swp	sl, r0, [r8]

00001b8c <l1503>:
    1b8c:	51dd42fc 	ldrshpl	r4, [sp, #44]	; 0x2c

00001b90 <l1504>:
    1b90:	f203b32d 	.word	0xf203b32d

00001b94 <l1505>:
    1b94:	ea000005 	b	1bb0 <l1512>

00001b98 <l1506>:
    1b98:	50740973 	rsbspl	r0, r4, r3, ror r9

00001b9c <l1507>:
    1b9c:	e33c081e 	teq	ip, #1966080	; 0x1e0000

00001ba0 <l1508>:
    1ba0:	e18196e6 	orr	r9, r1, r6, ror #13

00001ba4 <l1509>:
    1ba4:	d1f02000 	mvnsle	r2, r0

00001ba8 <l1510>:
    1ba8:	500e8e85 	andpl	r8, lr, r5, lsl #29

00001bac <l1511>:
    1bac:	b01e0009 	andslt	r0, lr, r9

00001bb0 <l1512>:
    1bb0:	93d833bf 	bicsls	r3, r8, #-67108862	; 0xfc000002

00001bb4 <l1513>:
    1bb4:	e3a0001c 	mov	r0, #28

00001bb8 <interrupt_249>:
    1bb8:	e7ad6000 	str	r6, [sp, r0]!

00001bbc <l1515>:
    1bbc:	ef3befd2 	svc	0x003befd2

00001bc0 <interrupt_699>:
    1bc0:	ea000003 	b	1bd4 <l1521>

00001bc4 <l1517>:
    1bc4:	411a0b14 	tstmi	sl, r4, lsl fp

00001bc8 <l1518>:
    1bc8:	e1140003 	tst	r4, r3

00001bcc <l1519>:
    1bcc:	316f6f12 	clzcc	r6, r2

00001bd0 <l1520>:
    1bd0:	b16f4f17 	clzlt	r4, r7

00001bd4 <l1521>:
    1bd4:	e1730555 	cmn	r3, r5, asr r5

00001bd8 <l1522>:
    1bd8:	e1e0c177 	mvn	ip, r7, ror r1

00001bdc <l1523>:
    1bdc:	016faf1c 	clzeq	sl, ip

00001be0 <l1524>:
    1be0:	7196e005 	orrsvc	lr, r6, r5

00001be4 <l1525>:
    1be4:	e0659274 	rsb	r9, r5, r4, ror r2

00001be8 <l1526>:
    1be8:	e9ad4135 	stmib	sp!, {r0, r2, r4, r5, r8, lr}

00001bec <l1527>:
    1bec:	e3a02014 	mov	r2, #20

00001bf0 <l1528>:
    1bf0:	e61d5002 	ldr	r5, [sp], -r2

00001bf4 <interrupt_672>:
    1bf4:	616fbf1a 	clzvs	fp, sl

00001bf8 <l1530>:
    1bf8:	e1120001 	tst	r2, r1

00001bfc <l1531>:
    1bfc:	526c0a1f 	rsbpl	r0, ip, #126976	; 0x1f000

00001c00 <l1532>:
    1c00:	a89d0300 	ldmge	sp, {r8, r9}

00001c04 <l1533>:
    1c04:	e59f9000 	ldr	r9, [pc]	; 1c0c <l1535>

00001c08 <l1534>:
    1c08:	ea000000 	b	1c10 <l1536>

00001c0c <l1535>:
    1c0c:	000fffd0 	.word	0x000fffd0

00001c10 <l1536>:
    1c10:	e1093096 	swp	r3, r6, [r9]

00001c14 <l1537>:
    1c14:	82b3b901 	adcshi	fp, r3, #16384	; 0x4000

00001c18 <l1538>:
    1c18:	e2e68331 	rsc	r8, r6, #-1006632960	; 0xc4000000

00001c1c <l1539>:
    1c1c:	e3150bcb 	tst	r5, #207872	; 0x32c00

00001c20 <l1540>:
    1c20:	60c7bec4 	sbcvs	fp, r7, r4, asr #29

00001c24 <l1541>:
    1c24:	b14d81b8 	strhlt	r8, [sp, #-24]	; 0xffffffe8

00001c28 <l1542>:
    1c28:	a03cb914 	eorsge	fp, ip, r4, lsl r9

00001c2c <l1543>:
    1c2c:	ea000005 	b	1c48 <l1550>

00001c30 <l1544>:
    1c30:	20936008 	addscs	r6, r3, r8

00001c34 <l1545>:
    1c34:	e061300e 	rsb	r3, r1, lr

00001c38 <l1546>:
    1c38:	01a0b03b 	lsreq	fp, fp, r0

00001c3c <l1547>:
    1c3c:	e046600f 	sub	r6, r6, pc

00001c40 <l1548>:
    1c40:	e1a0c516 	lsl	ip, r6, r5

00001c44 <interrupt_990>:
    1c44:	40d2e002 	sbcsmi	lr, r2, r2

00001c48 <l1550>:
    1c48:	90e0c724 	rscls	ip, r0, r4, lsr #14

00001c4c <l1551>:
    1c4c:	e40da01c 	str	sl, [sp], #-28

00001c50 <l1552>:
    1c50:	e3f0534d 	mvns	r5, #872415233	; 0x34000001

00001c54 <l1553>:
    1c54:	e199406b 	orrs	r4, r9, fp, rrx

00001c58 <l1554>:
    1c58:	e59fb000 	ldr	fp, [pc]	; 1c60 <l1556>

00001c5c <l1555>:
    1c5c:	ea000000 	b	1c64 <l1557>

00001c60 <l1556>:
    1c60:	000fffc4 	.word	0x000fffc4

00001c64 <l1557>:
    1c64:	c14b6096 	swpbgt	r6, r6, [fp]

00001c68 <interrupt_129>:
    1c68:	e1a00000 	nop			; (mov r0, r0)

00001c6c <interrupt_78>:
    1c6c:	61770008 	cmnvs	r7, r8

00001c70 <l1560>:
    1c70:	86b7589a 	.word	0x86b7589a

00001c74 <interrupt_300>:
    1c74:	ef5f671f 	svc	0x005f671f

00001c78 <l1562>:
    1c78:	316f2f13 	clzcc	r2, r3

00001c7c <l1563>:
    1c7c:	51c92837 	bicpl	r2, r9, r7, lsr r8

00001c80 <l1564>:
    1c80:	b3570c7d 	cmplt	r7, #32000	; 0x7d00

00001c84 <l1565>:
    1c84:	e1caa00b 	bic	sl, sl, fp

00001c88 <interrupt_644>:
    1c88:	31899727 	orrcc	r9, r9, r7, lsr #14

00001c8c <interrupt_677>:
    1c8c:	13b01316 	movsne	r1, #1476395008	; 0x58000000

00001c90 <l1568>:
    1c90:	21b0aa58 	asrscs	sl, r8, sl

00001c94 <l1569>:
    1c94:	e59f6000 	ldr	r6, [pc]	; 1c9c <interrupt_77>

00001c98 <l1570>:
    1c98:	ea000000 	b	1ca0 <l1572>

00001c9c <interrupt_77>:
    1c9c:	000fffac 	.word	0x000fffac

00001ca0 <l1572>:
    1ca0:	e1463091 	swpb	r3, r1, [r6]

00001ca4 <l1573>:
    1ca4:	22a466cb 	adccs	r6, r4, #212860928	; 0xcb00000

00001ca8 <l1574>:
    1ca8:	505a5ae6 	subspl	r5, sl, r6, ror #21

00001cac <l1575>:
    1cac:	d33b05b2 	teqle	fp, #746586112	; 0x2c800000

00001cb0 <l1576>:
    1cb0:	e31b05dd 	tst	fp, #926941184	; 0x37400000

00001cb4 <l1577>:
    1cb4:	e1740e2f 	cmn	r4, pc, lsr #28

00001cb8 <l1578>:
    1cb8:	c25abe5b 	subsgt	fp, sl, #1456	; 0x5b0

00001cbc <l1579>:
    1cbc:	e2b6bb92 	adcs	fp, r6, #149504	; 0x24800

00001cc0 <interrupt_876>:
    1cc0:	e1150063 	tst	r5, r3, rrx

00001cc4 <l1581>:
    1cc4:	41a05b21 	lsrmi	r5, r1, #22

00001cc8 <l1582>:
    1cc8:	e0a676ea 	adc	r7, r6, sl, ror #13

00001ccc <l1583>:
    1ccc:	a003500c 	andge	r5, r3, ip

00001cd0 <l1584>:
    1cd0:	e1dd31f2 	ldrsh	r3, [sp, #18]

00001cd4 <l1585>:
    1cd4:	916f0f18 	clzls	r0, r8

00001cd8 <l1586>:
    1cd8:	f35451b9 	.word	0xf35451b9

00001cdc <l1587>:
    1cdc:	d13b0949 	teqle	fp, r9, asr #18

00001ce0 <l1588>:
    1ce0:	e3a06010 	mov	r6, #16

00001ce4 <interrupt_351>:
    1ce4:	d19da0b6 	ldrhle	sl, [sp, r6]

00001ce8 <l1590>:
    1ce8:	e3a0a035 	mov	sl, #53	; 0x35

00001cec <l1591>:
    1cec:	619d00da 	ldrsbvs	r0, [sp, sl]

00001cf0 <l1592>:
    1cf0:	805544e1 	subshi	r4, r5, r1, ror #9

00001cf4 <l1593>:
    1cf4:	e59f9000 	ldr	r9, [pc]	; 1cfc <l1595>

00001cf8 <l1594>:
    1cf8:	ea000000 	b	1d00 <l1596>

00001cfc <l1595>:
    1cfc:	000fffe0 	.word	0x000fffe0

00001d00 <l1596>:
    1d00:	a149c097 	swpbge	ip, r7, [r9]

00001d04 <l1597>:
    1d04:	1032eeaf 	eorsne	lr, r2, pc, lsr #29

00001d08 <l1598>:
    1d08:	21330003 	teqcs	r3, r3

00001d0c <l1599>:
    1d0c:	e3a07004 	mov	r7, #4

00001d10 <l1600>:
    1d10:	e19de0b7 	ldrh	lr, [sp, r7]

00001d14 <l1601>:
    1d14:	20452033 	subcs	r2, r5, r3, lsr r0

00001d18 <l1602>:
    1d18:	d1340733 	teqle	r4, r3, lsr r7

00001d1c <l1603>:
    1d1c:	e59fb000 	ldr	fp, [pc]	; 1d24 <l1605>

00001d20 <interrupt_493>:
    1d20:	ea000000 	b	1d28 <interrupt_28>

00001d24 <l1605>:
    1d24:	000fffa4 	.word	0x000fffa4

00001d28 <interrupt_28>:
    1d28:	e10b309a 	swp	r3, sl, [fp]

00001d2c <interrupt_53>:
    1d2c:	e1a00000 	nop			; (mov r0, r0)

00001d30 <l1608>:
    1d30:	e3f0487e 	mvns	r4, #8257536	; 0x7e0000

00001d34 <l1609>:
    1d34:	51720000 	cmnpl	r2, r0

00001d38 <l1610>:
    1d38:	703247e9 	eorsvc	r4, r2, r9, ror #15

00001d3c <l1611>:
    1d3c:	12171499 	andsne	r1, r7, #-1728053248	; 0x99000000

00001d40 <l1612>:
    1d40:	2a000004 	bcs	1d58 <interrupt_373>

00001d44 <l1613>:
    1d44:	e2801047 	add	r1, r0, #71	; 0x47

00001d48 <l1614>:
    1d48:	20e02620 	rsccs	r2, r0, r0, lsr #12

00001d4c <l1615>:
    1d4c:	00e0a068 	rsceq	sl, r0, r8, rrx

00001d50 <interrupt_976>:
    1d50:	e05683e4 	subs	r8, r6, r4, ror #7

00001d54 <l1617>:
    1d54:	ea000000 	b	1d5c <interrupt_695>

00001d58 <interrupt_373>:
    1d58:	eafffffa 	b	1d48 <l1614>

00001d5c <interrupt_695>:
    1d5c:	60d06008 	sbcsvs	r6, r0, r8

00001d60 <interrupt_798>:
    1d60:	e3a0202c 	mov	r2, #44	; 0x2c

00001d64 <l1621>:
    1d64:	e19dc0f2 	ldrsh	ip, [sp, r2]

00001d68 <l1622>:
    1d68:	103e2069 	eorsne	r2, lr, r9, rrx

00001d6c <l1623>:
    1d6c:	ba000004 	blt	1d84 <l1629>

00001d70 <l1624>:
    1d70:	e2801069 	add	r1, r0, #105	; 0x69

00001d74 <l1625>:
    1d74:	e02eb00b 	eor	fp, lr, fp

00001d78 <l1626>:
    1d78:	115a000a 	cmpne	sl, sl

00001d7c <l1627>:
    1d7c:	e1160873 	tst	r6, r3, ror r8

00001d80 <l1628>:
    1d80:	ea000000 	b	1d88 <l1630>

00001d84 <l1629>:
    1d84:	eafffffa 	b	1d74 <l1625>

00001d88 <l1630>:
    1d88:	659dc018 	ldrvs	ip, [sp, #24]

00001d8c <l1631>:
    1d8c:	e99d0618 	ldmib	sp, {r3, r4, r9, sl}

00001d90 <l1632>:
    1d90:	e5ad4028 	str	r4, [sp, #40]!	; 0x28

00001d94 <l1633>:
    1d94:	e59fc000 	ldr	ip, [pc]	; 1d9c <l1635>

00001d98 <l1634>:
    1d98:	ea000000 	b	1da0 <l1636>

00001d9c <l1635>:
    1d9c:	000fffd4 	.word	0x000fffd4

00001da0 <l1636>:
    1da0:	a10c2099 	swpge	r2, r9, [ip]

00001da4 <l1637>:
    1da4:	115e0d26 	cmpne	lr, r6, lsr #26

00001da8 <l1638>:
    1da8:	5185c112 	orrpl	ip, r5, r2, lsl r1

00001dac <l1639>:
    1dac:	e248b29e 	sub	fp, r8, #-536870903	; 0xe0000009

00001db0 <l1640>:
    1db0:	effa7f63 	svc	0x00fa7f63

00001db4 <l1641>:
    1db4:	93cf40e4 	bicls	r4, pc, #228	; 0xe4

00001db8 <l1642>:
    1db8:	216fef15 	clzcs	lr, r5

00001dbc <l1643>:
    1dbc:	23b045a2 	movscs	r4, #679477248	; 0x28800000

00001dc0 <l1644>:
    1dc0:	11b05285 	lslsne	r5, r5, #5

00001dc4 <interrupt_951>:
    1dc4:	615db2b8 	ldrhvs	fp, [sp, #-40]	; 0xffffffd8

00001dc8 <interrupt_134>:
    1dc8:	e2903dca 	adds	r3, r0, #12928	; 0x3280

00001dcc <l1647>:
    1dcc:	e3a0c008 	mov	ip, #8

00001dd0 <l1648>:
    1dd0:	47cd000c 	strbmi	r0, [sp, ip]

00001dd4 <l1649>:
    1dd4:	e09a3de6 	adds	r3, sl, r6, ror #27

00001dd8 <l1650>:
    1dd8:	e1a00000 	nop			; (mov r0, r0)

00001ddc <l1651>:
    1ddc:	a0c2c003 	sbcge	ip, r2, r3

00001de0 <l1652>:
    1de0:	e1b0c007 	movs	ip, r7

00001de4 <l1653>:
    1de4:	ea000007 	b	1e08 <l1662>

00001de8 <l1654>:
    1de8:	e280104f 	add	r1, r0, #79	; 0x4f

00001dec <l1655>:
    1dec:	71d5a7e4 	bicsvc	sl, r5, r4, ror #15

00001df0 <l1656>:
    1df0:	e04ccc00 	sub	ip, ip, r0, lsl #24

00001df4 <l1657>:
    1df4:	10743063 	rsbsne	r3, r4, r3, rrx

00001df8 <l1658>:
    1df8:	116f9f16 	clzne	r9, r6

00001dfc <l1659>:
    1dfc:	20c15066 	sbccs	r5, r1, r6, rrx

00001e00 <l1660>:
    1e00:	30cf300e 	sbccc	r3, pc, lr

00001e04 <l1661>:
    1e04:	ea000000 	b	1e0c <l1663>

00001e08 <l1662>:
    1e08:	eafffff7 	b	1dec <l1655>

00001e0c <l1663>:
    1e0c:	414d23b4 	strhmi	r2, [sp, #-52]	; 0xffffffcc

00001e10 <l1664>:
    1e10:	5382c0c7 	orrpl	ip, r2, #199	; 0xc7

00001e14 <l1665>:
    1e14:	ef8f0688 	svc	0x008f0688

00001e18 <interrupt_184>:
    1e18:	e3a01038 	mov	r1, #56	; 0x38

00001e1c <l1667>:
    1e1c:	e73de001 	ldr	lr, [sp, -r1]!

00001e20 <l1668>:
    1e20:	e023751b 	eor	r7, r3, fp, lsl r5

00001e24 <interrupt_413>:
    1e24:	c99d57ff 	ldmibgt	sp, {r0, r1, r2, r3, r4, r5, r6, r7, r8, r9, sl, ip, lr}

00001e28 <l1670>:
    1e28:	ef050f86 	svc	0x00050f86

00001e2c <l1671>:
    1e2c:	e59f4000 	ldr	r4, [pc]	; 1e34 <l1673>

00001e30 <l1672>:
    1e30:	ea000000 	b	1e38 <l1674>

00001e34 <l1673>:
    1e34:	000fffe8 	.word	0x000fffe8

00001e38 <l1674>:
    1e38:	e1440091 	swpb	r0, r1, [r4]

00001e3c <l1675>:
    1e3c:	d1dd63f8 	ldrshle	r6, [sp, #56]	; 0x38

00001e40 <interrupt_593>:
    1e40:	e59d8034 	ldr	r8, [sp, #52]	; 0x34

00001e44 <l1677>:
    1e44:	e0f50742 	rscs	r0, r5, r2, asr #14

00001e48 <l1678>:
    1e48:	32e15719 	rsccc	r5, r1, #6553600	; 0x640000

00001e4c <l1679>:
    1e4c:	11f0360c 	mvnsne	r3, ip, lsl #12

00001e50 <l1680>:
    1e50:	ba000001 	blt	1e5c <l1683>

00001e54 <l1681>:
    1e54:	c1f0e006 	mvnsgt	lr, r6

00001e58 <interrupt_886>:
    1e58:	92acb35f 	adcls	fp, ip, #2080374785	; 0x7c000001

00001e5c <l1683>:
    1e5c:	531504b5 	tstpl	r5, #-1258291200	; 0xb5000000

00001e60 <l1684>:
    1e60:	c3770a0a 	cmngt	r7, #40960	; 0xa000

00001e64 <l1685>:
    1e64:	ea000005 	b	1e80 <l1692>

00001e68 <l1686>:
    1e68:	e280109f 	add	r1, r0, #159	; 0x9f

00001e6c <l1687>:
    1e6c:	416f9f11 	clzmi	r9, r1

00001e70 <l1688>:
    1e70:	11b03037 	lsrsne	r3, r7, r0

00001e74 <l1689>:
    1e74:	e1e0c00b 	mvn	ip, fp

00001e78 <l1690>:
    1e78:	d041a2ce 	suble	sl, r1, lr, asr #5

00001e7c <interrupt_774>:
    1e7c:	ea000000 	b	1e84 <l1693>

00001e80 <l1692>:
    1e80:	eafffff9 	b	1e6c <l1687>

00001e84 <l1693>:
    1e84:	e1b06062 	rrxs	r6, r2

00001e88 <l1694>:
    1e88:	b3dc91e3 	bicslt	r9, ip, #-1073741768	; 0xc0000038

00001e8c <l1695>:
    1e8c:	e13c0a59 	teq	ip, r9, asr sl

00001e90 <l1696>:
    1e90:	e3a0a040 	mov	sl, #64	; 0x40

00001e94 <l1697>:
    1e94:	c79d200a 	ldrgt	r2, [sp, sl]

00001e98 <l1698>:
    1e98:	10cf27ab 	sbcne	r2, pc, fp, lsr #15

00001e9c <l1699>:
    1e9c:	ef9809d3 	svc	0x009809d3

00001ea0 <l1700>:
    1ea0:	e59f0000 	ldr	r0, [pc]	; 1ea8 <l1702>

00001ea4 <interrupt_911>:
    1ea4:	ea000000 	b	1eac <l1703>

00001ea8 <l1702>:
    1ea8:	000fffd4 	.word	0x000fffd4

00001eac <l1703>:
    1eac:	61003094 	swpvs	r3, r4, [r0]

00001eb0 <l1704>:
    1eb0:	ef12efb3 	svc	0x0012efb3

00001eb4 <l1705>:
    1eb4:	e5cd802f 	strb	r8, [sp, #47]	; 0x2f

00001eb8 <interrupt_973>:
    1eb8:	ef117215 	svc	0x00117215

00001ebc <l1707>:
    1ebc:	31c43008 	biccc	r3, r4, r8

00001ec0 <l1708>:
    1ec0:	e3a0b02c 	mov	fp, #44	; 0x2c

00001ec4 <l1709>:
    1ec4:	e68df00b 	str	pc, [sp], fp

00001ec8 <l1710>:
    1ec8:	e0e83ee4 	rsc	r3, r8, r4, ror #29

00001ecc <l1711>:
    1ecc:	e296bf4d 	adds	fp, r6, #308	; 0x134

00001ed0 <l1712>:
    1ed0:	ef6df46d 	svc	0x006df46d

00001ed4 <l1713>:
    1ed4:	e182c061 	orr	ip, r2, r1, rrx

00001ed8 <l1714>:
    1ed8:	c15d50d8 	ldrsbgt	r5, [sp, #-8]

00001edc <l1715>:
    1edc:	215e0959 	cmpcs	lr, r9, asr r9

00001ee0 <interrupt_675>:
    1ee0:	e0347ac4 	eors	r7, r4, r4, asr #21

00001ee4 <interrupt_136>:
    1ee4:	903fa004 	eorsls	sl, pc, r4

00001ee8 <l1718>:
    1ee8:	a0a80064 	adcge	r0, r8, r4, rrx

00001eec <l1719>:
    1eec:	e20ab335 	and	fp, sl, #-738197504	; 0xd4000000

00001ef0 <l1720>:
    1ef0:	e1140068 	tst	r4, r8, rrx

00001ef4 <l1721>:
    1ef4:	30e453a3 	rsccc	r5, r4, r3, lsr #7

00001ef8 <l1722>:
    1ef8:	e0fb7317 	rscs	r7, fp, r7, lsl r3

00001efc <l1723>:
    1efc:	e3a0a00a 	mov	sl, #10

00001f00 <l1724>:
    1f00:	a18d90ba 	strhge	r9, [sp, sl]

00001f04 <l1725>:
    1f04:	e1cdc1b4 	strh	ip, [sp, #20]

00001f08 <l1726>:
    1f08:	954d701f 	strbls	r7, [sp, #-31]

00001f0c <l1727>:
    1f0c:	e014a757 	ands	sl, r4, r7, asr r7

00001f10 <l1728>:
    1f10:	701fa008 	andsvc	sl, pc, r8

00001f14 <l1729>:
    1f14:	e26e73ba 	rsb	r7, lr, #-402653182	; 0xe8000002

00001f18 <l1730>:
    1f18:	e098c00b 	adds	ip, r8, fp

00001f1c <l1731>:
    1f1c:	e1985067 	orrs	r5, r8, r7, rrx

00001f20 <l1732>:
    1f20:	b1570b52 	cmplt	r7, r2, asr fp

00001f24 <l1733>:
    1f24:	a50d2008 	strge	r2, [sp, #-8]

00001f28 <l1734>:
    1f28:	e05ac00b 	subs	ip, sl, fp

00001f2c <l1735>:
    1f2c:	e59f5000 	ldr	r5, [pc]	; 1f34 <l1737>

00001f30 <l1736>:
    1f30:	ea000000 	b	1f38 <l1738>

00001f34 <l1737>:
    1f34:	000fffe8 	.word	0x000fffe8

00001f38 <l1738>:
    1f38:	71457098 	swpbvc	r7, r8, [r5]

00001f3c <l1739>:
    1f3c:	e3a09010 	mov	r9, #16

00001f40 <l1740>:
    1f40:	478d7009 	strmi	r7, [sp, r9]

00001f44 <interrupt_835>:
    1f44:	e50d902c 	str	r9, [sp, #-44]	; 0x2c

00001f48 <l1742>:
    1f48:	824c2079 	subhi	r2, ip, #121	; 0x79

00001f4c <l1743>:
    1f4c:	e3a0a01b 	mov	sl, #27

00001f50 <interrupt_279>:
    1f50:	a75d500a 	ldrbge	r5, [sp, -sl]

00001f54 <l1745>:
    1f54:	a241152a 	subge	r1, r1, #176160768	; 0xa800000

00001f58 <l1746>:
    1f58:	c0293d6b 	eorgt	r3, r9, fp, ror #26

00001f5c <l1747>:
    1f5c:	41150682 	tstmi	r5, r2, lsl #13

00001f60 <l1748>:
    1f60:	1a000004 	bne	1f78 <l1754>

00001f64 <interrupt_329>:
    1f64:	718ccf03 	orrvc	ip, ip, r3, lsl #30

00001f68 <interrupt_299>:
    1f68:	d35a06cf 	cmple	sl, #217055232	; 0xcf00000

00001f6c <interrupt_629>:
    1f6c:	716f4f12 	clzvc	r4, r2

00001f70 <l1752>:
    1f70:	b16f9f13 	clzlt	r9, r3

00001f74 <l1753>:
    1f74:	a3320c36 	teqge	r2, #13824	; 0x3600

00001f78 <l1754>:
    1f78:	e0f0a06f 	rscs	sl, r0, pc, rrx

00001f7c <l1755>:
    1f7c:	e3a08000 	mov	r8, #0

00001f80 <l1756>:
    1f80:	e68d9008 	str	r9, [sp], r8

00001f84 <interrupt_536>:
    1f84:	e3a07004 	mov	r7, #4

00001f88 <l1758>:
    1f88:	e60d4007 	str	r4, [sp], -r7

00001f8c <l1759>:
    1f8c:	b04f4000 	sublt	r4, pc, r0

00001f90 <interrupt_754>:
    1f90:	6113000e 	tstvs	r3, lr

00001f94 <l1761>:
    1f94:	e0964061 	adds	r4, r6, r1, rrx

00001f98 <interrupt_311>:
    1f98:	e04c2136 	sub	r2, ip, r6, lsr r1

00001f9c <interrupt_507>:
    1f9c:	a0118875 	andsge	r8, r1, r5, ror r8

00001fa0 <interrupt_932>:
    1fa0:	e31c0f7e 	tst	ip, #504	; 0x1f8

00001fa4 <l1765>:
    1fa4:	e16fef10 	clz	lr, r0

00001fa8 <l1766>:
    1fa8:	e89d48ad 	ldm	sp, {r0, r2, r3, r5, r7, fp, lr}

00001fac <l1767>:
    1fac:	e1380d2a 	teq	r8, sl, lsr #26

00001fb0 <l1768>:
    1fb0:	c98dc200 	stmibgt	sp, {r9, lr, pc}

00001fb4 <l1769>:
    1fb4:	e59f7000 	ldr	r7, [pc]	; 1fbc <interrupt_627>

00001fb8 <l1770>:
    1fb8:	ea000000 	b	1fc0 <l1772>

00001fbc <interrupt_627>:
    1fbc:	000fffa0 	.word	0x000fffa0

00001fc0 <l1772>:
    1fc0:	c1471091 	swpbgt	r1, r1, [r7]

00001fc4 <l1773>:
    1fc4:	e1dd11fa 	ldrsh	r1, [sp, #26]

00001fc8 <l1774>:
    1fc8:	ef4833c9 	svc	0x004833c9

00001fcc <l1775>:
    1fcc:	e017e06f 	ands	lr, r7, pc, rrx

00001fd0 <l1776>:
    1fd0:	e0beacc7 	adcs	sl, lr, r7, asr #25

00001fd4 <interrupt_805>:
    1fd4:	ca000007 	bgt	1ff8 <l1786>

00001fd8 <l1778>:
    1fd8:	e28010f1 	add	r1, r0, #241	; 0xf1

00001fdc <l1779>:
    1fdc:	e16f1f17 	clz	r1, r7

00001fe0 <interrupt_236>:
    1fe0:	10446576 	subne	r6, r4, r6, ror r5

00001fe4 <l1781>:
    1fe4:	e0cb8000 	sbc	r8, fp, r0

00001fe8 <interrupt_30>:
    1fe8:	816f0f1b 	clzhi	r0, fp

00001fec <l1783>:
    1fec:	e0be895e 	adcs	r8, lr, lr, asr r9

00001ff0 <l1784>:
    1ff0:	200e6005 	andcs	r6, lr, r5

00001ff4 <l1785>:
    1ff4:	ea000000 	b	1ffc <interrupt_970>

00001ff8 <l1786>:
    1ff8:	eafffff7 	b	1fdc <l1779>

00001ffc <interrupt_970>:
    1ffc:	ef4f8d52 	svc	0x004f8d52

00002000 <l1788>:
    2000:	30877157 	addcc	r7, r7, r7, asr r1

00002004 <interrupt_64>:
    2004:	e83d0aa2 	ldmda	sp!, {r1, r5, r7, r9, fp}

00002008 <l1790>:
    2008:	efe1d23a 	svc	0x00e1d23a

0000200c <l1791>:
    200c:	313f09c6 	teqcc	pc, r6, asr #19

00002010 <interrupt_793>:
    2010:	00445d61 	subeq	r5, r4, r1, ror #26

00002014 <interrupt_830>:
    2014:	e49d202c 	ldr	r2, [sp], #44	; 0x2c

00002018 <l1794>:
    2018:	e50d6028 	str	r6, [sp, #-40]	; 0x28

0000201c <l1795>:
    201c:	ef7dfefc 	svc	0x007dfefc

00002020 <interrupt_666>:
    2020:	e0711d4f 	rsbs	r1, r1, pc, asr #26

00002024 <l1797>:
    2024:	e214be32 	ands	fp, r4, #800	; 0x320

00002028 <l1798>:
    2028:	30762009 	rsbscc	r2, r6, r9

0000202c <l1799>:
    202c:	e0682002 	rsb	r2, r8, r2

00002030 <interrupt_608>:
    2030:	10451731 	subne	r1, r5, r1, lsr r7

00002034 <interrupt_421>:
    2034:	704e2060 	subvc	r2, lr, r0, rrx

00002038 <l1802>:
    2038:	614d50ba 	strhvs	r5, [sp, #-10]

0000203c <l1803>:
    203c:	e0092005 	and	r2, r9, r5

00002040 <l1804>:
    2040:	e0c93003 	sbc	r3, r9, r3

00002044 <l1805>:
    2044:	e051941c 	subs	r9, r1, ip, lsl r4

00002048 <l1806>:
    2048:	e59fc000 	ldr	ip, [pc]	; 2050 <interrupt_504>

0000204c <l1807>:
    204c:	ea000000 	b	2054 <l1809>

00002050 <interrupt_504>:
    2050:	000fffd4 	.word	0x000fffd4

00002054 <l1809>:
    2054:	d14c6095 	swpble	r6, r5, [ip]

00002058 <l1810>:
    2058:	e03c7068 	eors	r7, ip, r8, rrx

0000205c <l1811>:
    205c:	e251e2f1 	subs	lr, r1, #268435471	; 0x1000000f

00002060 <l1812>:
    2060:	6253ca1f 	subsvs	ip, r3, #126976	; 0x1f000

00002064 <l1813>:
    2064:	474a76f8 	.word	0x474a76f8

00002068 <l1814>:
    2068:	e0dae145 	sbcs	lr, sl, r5, asr #2

0000206c <interrupt_345>:
    206c:	c15d54b0 	ldrhgt	r5, [sp, #-64]	; 0xffffffc0

00002070 <interrupt_831>:
    2070:	e1110003 	tst	r1, r3

00002074 <l1817>:
    2074:	e0163dcf 	ands	r3, r6, pc, asr #27

00002078 <l1818>:
    2078:	21db805b 	bicscs	r8, fp, fp, asr r0

0000207c <l1819>:
    207c:	90be56ae 	adcsls	r5, lr, lr, lsr #13

00002080 <l1820>:
    2080:	e15c0f04 	cmp	ip, r4, lsl #30

00002084 <interrupt_724>:
    2084:	e55dc028 	ldrb	ip, [sp, #-40]	; 0x28

00002088 <l1822>:
    2088:	6014030e 	andsvs	r0, r4, lr, lsl #6

0000208c <l1823>:
    208c:	41750e8c 	cmnmi	r5, ip, lsl #29

00002090 <l1824>:
    2090:	e83d5dbf 	ldmda	sp!, {r0, r1, r2, r3, r4, r5, r7, r8, sl, fp, ip, lr}

00002094 <interrupt_284>:
    2094:	2212c1c7 	andscs	ip, r2, #-1073741775	; 0xc0000031

00002098 <l1826>:
    2098:	e1300e87 	teq	r0, r7, lsl #29

0000209c <l1827>:
    209c:	11330537 	teqne	r3, r7, lsr r5

000020a0 <l1828>:
    20a0:	e59fc000 	ldr	ip, [pc]	; 20a8 <l1830>

000020a4 <l1829>:
    20a4:	ea000000 	b	20ac <interrupt_762>

000020a8 <l1830>:
    20a8:	000fffd4 	.word	0x000fffd4

000020ac <interrupt_762>:
    20ac:	414ca091 	swpbmi	sl, r1, [ip]

000020b0 <interrupt_378>:
    20b0:	404ca00b 	submi	sl, ip, fp

000020b4 <interrupt_285>:
    20b4:	e59f8000 	ldr	r8, [pc]	; 20bc <l1835>

000020b8 <interrupt_749>:
    20b8:	ea000000 	b	20c0 <l1836>

000020bc <l1835>:
    20bc:	000fffc4 	.word	0x000fffc4

000020c0 <l1836>:
    20c0:	11489096 	swpbne	r9, r6, [r8]

000020c4 <l1837>:
    20c4:	e1360be7 	teq	r6, r7, ror #23

000020c8 <l1838>:
    20c8:	e3170050 	tst	r7, #80	; 0x50

000020cc <l1839>:
    20cc:	90be7ce1 	adcsls	r7, lr, r1, ror #25

000020d0 <interrupt_318>:
    20d0:	e59de028 	ldr	lr, [sp, #40]	; 0x28

000020d4 <l1841>:
    20d4:	90177643 	andsls	r7, r7, r3, asr #12

000020d8 <l1842>:
    20d8:	e0108003 	ands	r8, r0, r3

000020dc <l1843>:
    20dc:	e194e239 	orrs	lr, r4, r9, lsr r2

000020e0 <l1844>:
    20e0:	e017a7c7 	ands	sl, r7, r7, asr #15

000020e4 <l1845>:
    20e4:	e3a07038 	mov	r7, #56	; 0x38

000020e8 <l1846>:
    20e8:	e68db007 	str	fp, [sp], r7

000020ec <l1847>:
    20ec:	e3a0601c 	mov	r6, #28

000020f0 <l1848>:
    20f0:	e11d20f6 	ldrsh	r2, [sp, -r6]

000020f4 <l1849>:
    20f4:	e59fe000 	ldr	lr, [pc]	; 20fc <l1851>

000020f8 <l1850>:
    20f8:	ea000000 	b	2100 <l1852>

000020fc <l1851>:
    20fc:	000fffd8 	.word	0x000fffd8

00002100 <l1852>:
    2100:	214ea090 	swpbcs	sl, r0, [lr]

00002104 <interrupt_372>:
    2104:	d0e6006b 	rscle	r0, r6, fp, rrx

00002108 <l1854>:
    2108:	e3a08018 	mov	r8, #24

0000210c <l1855>:
    210c:	e11d90b8 	ldrh	r9, [sp, -r8]

00002110 <interrupt_829>:
    2110:	e3a08048 	mov	r8, #72	; 0x48

00002114 <l1857>:
    2114:	e10d60b8 	strh	r6, [sp, -r8]

00002118 <interrupt_731>:
    2118:	e05ae00f 	subs	lr, sl, pc

0000211c <interrupt_169>:
    211c:	911f000b 	tstls	pc, fp

00002120 <l1860>:
    2120:	e3a0402a 	mov	r4, #42	; 0x2a

00002124 <interrupt_295>:
    2124:	411d20d4 	ldrsbmi	r2, [sp, -r4]

00002128 <l1862>:
    2128:	615d64f6 	ldrshvs	r6, [sp, #-70]	; 0xffffffba

0000212c <l1863>:
    212c:	23530aaa 	cmpcs	r3, #696320	; 0xaa000

00002130 <interrupt_692>:
    2130:	091d4b86 	ldmdbeq	sp, {r1, r2, r7, r8, r9, fp, lr}

00002134 <l1865>:
    2134:	e59fb000 	ldr	fp, [pc]	; 213c <l1867>

00002138 <interrupt_523>:
    2138:	ea000000 	b	2140 <l1868>

0000213c <l1867>:
    213c:	000fffb8 	.word	0x000fffb8

00002140 <l1868>:
    2140:	b14b9097 	swpblt	r9, r7, [fp]

00002144 <l1869>:
    2144:	954da005 	strbls	sl, [sp, #-5]

00002148 <l1870>:
    2148:	e3a09030 	mov	r9, #48	; 0x30

0000214c <interrupt_981>:
    214c:	671d3009 	ldrvs	r3, [sp, -r9]

00002150 <l1872>:
    2150:	e3a09024 	mov	r9, #36	; 0x24

00002154 <l1873>:
    2154:	511d60b9 	ldrhpl	r6, [sp, -r9]

00002158 <l1874>:
    2158:	efd9615a 	svc	0x00d9615a

0000215c <l1875>:
    215c:	c16f5f15 	clzgt	r5, r5

00002160 <l1876>:
    2160:	f1d3d8ea 	.word	0xf1d3d8ea

00002164 <interrupt_944>:
    2164:	d11b0c6a 	tstle	fp, sl, ror #24

00002168 <l1878>:
    2168:	ef07319f 	svc	0x0007319f

0000216c <l1879>:
    216c:	411e000c 	tstmi	lr, ip

00002170 <l1880>:
    2170:	d1100007 	tstle	r0, r7

00002174 <interrupt_541>:
    2174:	873abb39 	.word	0x873abb39

00002178 <interrupt_621>:
    2178:	d11a00c2 	tstle	sl, r2, asr #1

0000217c <l1883>:
    217c:	81da5e79 	bicshi	r5, sl, r9, ror lr

00002180 <l1884>:
    2180:	f9591982 	.word	0xf9591982

00002184 <interrupt_251>:
    2184:	e3a00003 	mov	r0, #3

00002188 <l1886>:
    2188:	b7cd1000 	strblt	r1, [sp, r0]

0000218c <l1887>:
    218c:	e1550064 	cmp	r5, r4, rrx

00002190 <interrupt_382>:
    2190:	4affffff 	bmi	2194 <l1889>

00002194 <l1889>:
    2194:	60687004 	rsbvs	r7, r8, r4

00002198 <l1890>:
    2198:	e1e02009 	mvn	r2, r9

0000219c <interrupt_634>:
    219c:	52160531 	andspl	r0, r6, #205520896	; 0xc400000

000021a0 <l1892>:
    21a0:	e59f3000 	ldr	r3, [pc]	; 21a8 <l1894>

000021a4 <l1893>:
    21a4:	ea000000 	b	21ac <l1895>

000021a8 <l1894>:
    21a8:	000fffd8 	.word	0x000fffd8

000021ac <l1895>:
    21ac:	e143609c 	swpb	r6, ip, [r3]

000021b0 <l1896>:
    21b0:	e3a0100c 	mov	r1, #12

000021b4 <l1897>:
    21b4:	e60dc001 	str	ip, [sp], -r1

000021b8 <interrupt_868>:
    21b8:	5a000001 	bpl	21c4 <l1901>

000021bc <l1899>:
    21bc:	e270b562 	rsbs	fp, r0, #411041792	; 0x18800000

000021c0 <l1900>:
    21c0:	e1b0ca36 	lsrs	ip, r6, sl

000021c4 <l1901>:
    21c4:	22e37bdf 	rsccs	r7, r3, #228352	; 0x37c00

000021c8 <l1902>:
    21c8:	e118006c 	tst	r8, ip, rrx

000021cc <l1903>:
    21cc:	2a000004 	bcs	21e4 <l1909>

000021d0 <l1904>:
    21d0:	e0474005 	sub	r4, r7, r5

000021d4 <l1905>:
    21d4:	41530fc2 	cmpmi	r3, r2, asr #31

000021d8 <interrupt_451>:
    21d8:	1011baa1 	andsne	fp, r1, r1, lsr #21

000021dc <l1907>:
    21dc:	d1951003 	orrsle	r1, r5, r3

000021e0 <l1908>:
    21e0:	e3873028 	orr	r3, r7, #40	; 0x28

000021e4 <l1909>:
    21e4:	d15c0112 	cmple	ip, r2, lsl r1

000021e8 <interrupt_497>:
    21e8:	efa8242e 	svc	0x00a8242e

000021ec <l1911>:
    21ec:	e3a0402a 	mov	r4, #42	; 0x2a

000021f0 <l1912>:
    21f0:	e11d30b4 	ldrh	r3, [sp, -r4]

000021f4 <l1913>:
    21f4:	e075e00b 	rsbs	lr, r5, fp

000021f8 <l1914>:
    21f8:	e3a07022 	mov	r7, #34	; 0x22

000021fc <l1915>:
    21fc:	210d20b7 	strhcs	r2, [sp, -r7]

00002200 <l1916>:
    2200:	e3b05bc9 	movs	r5, #205824	; 0x32400

00002204 <l1917>:
    2204:	319feec9 	orrscc	lr, pc, r9, asr #29

00002208 <l1918>:
    2208:	b31509dd 	tstlt	r5, #3620864	; 0x374000

0000220c <l1919>:
    220c:	e1940003 	orrs	r0, r4, r3

00002210 <l1920>:
    2210:	e3a06008 	mov	r6, #8

00002214 <l1921>:
    2214:	e11d90f6 	ldrsh	r9, [sp, -r6]

00002218 <l1922>:
    2218:	e0aa300f 	adc	r3, sl, pc

0000221c <l1923>:
    221c:	e5cd8003 	strb	r8, [sp, #3]

00002220 <l1924>:
    2220:	9a000001 	bls	222c <l1927>

00002224 <l1925>:
    2224:	e184700e 	orr	r7, r4, lr

00002228 <l1926>:
    2228:	531404fb 	tstpl	r4, #-83886080	; 0xfb000000

0000222c <l1927>:
    222c:	e2f00002 	rscs	r0, r0, #2

00002230 <interrupt_704>:
    2230:	1030e066 	eorsne	lr, r0, r6, rrx

00002234 <l1929>:
    2234:	e3a0103c 	mov	r1, #60	; 0x3c

00002238 <l1930>:
    2238:	611de0f1 	ldrshvs	lr, [sp, -r1]

0000223c <l1931>:
    223c:	efb236a7 	svc	0x00b236a7

00002240 <interrupt_979>:
    2240:	d2403bfd 	suble	r3, r0, #259072	; 0x3f400

00002244 <l1933>:
    2244:	efc6c2af 	svc	0x00c6c2af

00002248 <l1934>:
    2248:	e59f9000 	ldr	r9, [pc]	; 2250 <l1936>

0000224c <l1935>:
    224c:	ea000000 	b	2254 <l1937>

00002250 <l1936>:
    2250:	000fffdc 	.word	0x000fffdc

00002254 <l1937>:
    2254:	e109a091 	swp	sl, r1, [r9]

00002258 <l1938>:
    2258:	d16f3f10 	clzle	r3, r0

0000225c <l1939>:
    225c:	20724001 	rsbscs	r4, r2, r1

00002260 <interrupt_743>:
    2260:	32df9166 	sbcscc	r9, pc, #-2147483623	; 0x80000019

00002264 <l1941>:
    2264:	f96f06a0 	.word	0xf96f06a0

00002268 <l1942>:
    2268:	e3a07004 	mov	r7, #4

0000226c <l1943>:
    226c:	e79d7007 	ldr	r7, [sp, r7]

00002270 <l1944>:
    2270:	e1e0800a 	mvn	r8, sl

00002274 <l1945>:
    2274:	e0dbe06c 	sbcs	lr, fp, ip, rrx

00002278 <l1946>:
    2278:	e82d2000 	stmda	sp!, {sp}

0000227c <l1947>:
    227c:	c0586c33 	subsgt	r6, r8, r3, lsr ip

00002280 <l1948>:
    2280:	417b017b 	cmnmi	fp, fp, ror r1

00002284 <interrupt_649>:
    2284:	e8bd4280 	pop	{r7, r9, lr}

00002288 <interrupt_269>:
    2288:	1011b0e1 	andsne	fp, r1, r1, ror #1

0000228c <l1951>:
    228c:	e14de1b2 	strh	lr, [sp, #-18]	; 0xffffffee

00002290 <l1952>:
    2290:	e1500a60 	cmp	r0, r0, ror #20

00002294 <l1953>:
    2294:	e15d60d9 	ldrsb	r6, [sp, #-9]

00002298 <interrupt_959>:
    2298:	916f6f17 	clzls	r6, r7

0000229c <l1955>:
    229c:	d312058a 	tstle	r2, #578813952	; 0x22800000

000022a0 <l1956>:
    22a0:	e245a53e 	sub	sl, r5, #260046848	; 0xf800000

000022a4 <l1957>:
    22a4:	016f6f17 	clzeq	r6, r7

000022a8 <l1958>:
    22a8:	d280a867 	addle	sl, r0, #6750208	; 0x670000

000022ac <l1959>:
    22ac:	e17e0006 	cmn	lr, r6

000022b0 <l1960>:
    22b0:	b1500068 	cmplt	r0, r8, rrx

000022b4 <l1961>:
    22b4:	b0f4e063 	rscslt	lr, r4, r3, rrx

000022b8 <l1962>:
    22b8:	e3d06a3d 	bics	r6, r0, #249856	; 0x3d000

000022bc <l1963>:
    22bc:	e35404dd 	cmp	r4, #-587202560	; 0xdd000000

000022c0 <l1964>:
    22c0:	e04e1752 	sub	r1, lr, r2, asr r7

000022c4 <interrupt_843>:
    22c4:	e83d563b 	ldmda	sp!, {r0, r1, r3, r4, r5, r9, sl, ip, lr}

000022c8 <l1966>:
    22c8:	e3a01029 	mov	r1, #41	; 0x29

000022cc <l1967>:
    22cc:	e7dd1001 	ldrb	r1, [sp, r1]

000022d0 <l1968>:
    22d0:	35cd000a 	strbcc	r0, [sp, #10]

000022d4 <l1969>:
    22d4:	e49d4000 	ldr	r4, [sp], #0

000022d8 <l1970>:
    22d8:	e3a0400a 	mov	r4, #10

000022dc <l1971>:
    22dc:	a18d10b4 	strhge	r1, [sp, r4]

000022e0 <l1972>:
    22e0:	a1dd30b8 	ldrhge	r3, [sp, #8]

000022e4 <l1973>:
    22e4:	11dcb2ef 	bicsne	fp, ip, pc, ror #5

000022e8 <interrupt_140>:
    22e8:	e1720519 	cmn	r2, r9, lsl r5

000022ec <l1975>:
    22ec:	ef3cf990 	svc	0x003cf990

000022f0 <l1976>:
    22f0:	ff850802 	.word	0xff850802

000022f4 <l1977>:
    22f4:	217c0a51 	cmncs	ip, r1, asr sl

000022f8 <l1978>:
    22f8:	c29b682a 	addsgt	r6, fp, #2752512	; 0x2a0000

000022fc <l1979>:
    22fc:	b0778004 	rsbslt	r8, r7, r4

00002300 <interrupt_715>:
    2300:	efbf5c72 	svc	0x00bf5c72

00002304 <interrupt_594>:
    2304:	b1b0c002 	movslt	ip, r2

00002308 <l1982>:
    2308:	e59fb000 	ldr	fp, [pc]	; 2310 <l1984>

0000230c <l1983>:
    230c:	ea000000 	b	2314 <l1985>

00002310 <l1984>:
    2310:	000fffd4 	.word	0x000fffd4

00002314 <l1985>:
    2314:	110b2092 	swpne	r2, r2, [fp]

00002318 <l1986>:
    2318:	e05a406f 	subs	r4, sl, pc, rrx

0000231c <l1987>:
    231c:	b6a4ec13 	.word	0xb6a4ec13

00002320 <l1988>:
    2320:	e83d00a0 	ldmda	sp!, {r5, r7}

00002324 <l1989>:
    2324:	b0f1b851 	rscslt	fp, r1, r1, asr r8

00002328 <l1990>:
    2328:	efbb67d7 	svc	0x00bb67d7

0000232c <interrupt_202>:
    232c:	f9eefc6e 	.word	0xf9eefc6e

00002330 <l1992>:
    2330:	11c6706a 	bicne	r7, r6, sl, rrx

00002334 <l1993>:
    2334:	515e0ace 	cmppl	lr, lr, asr #21

00002338 <l1994>:
    2338:	80573885 	subshi	r3, r7, r5, lsl #17

0000233c <l1995>:
    233c:	33f08000 	mvnscc	r8, #0

00002340 <interrupt_210>:
    2340:	016f4f12 	clzeq	r4, r2

00002344 <l1997>:
    2344:	e9ade000 	stmib	sp!, {sp, lr, pc}

00002348 <l1998>:
    2348:	efd33411 	svc	0x00d33411

0000234c <l1999>:
    234c:	e51d6008 	ldr	r6, [sp, #-8]

00002350 <interrupt_721>:
    2350:	a14d90b8 	strhge	r9, [sp, #-8]

00002354 <l2001>:
    2354:	e11c0438 	tst	ip, r8, lsr r4

00002358 <l2002>:
    2358:	6a000003 	bvs	236c <interrupt_821>

0000235c <l2003>:
    235c:	307465e5 	rsbscc	r6, r4, r5, ror #11

00002360 <l2004>:
    2360:	e24594db 	sub	r9, r5, #-620756992	; 0xdb000000

00002364 <interrupt_221>:
    2364:	e0066918 	and	r6, r6, r8, lsl r9

00002368 <l2006>:
    2368:	211e006e 	tstcs	lr, lr, rrx

0000236c <interrupt_821>:
    236c:	11390001 	teqne	r9, r1

00002370 <l2008>:
    2370:	e59f0000 	ldr	r0, [pc]	; 2378 <l2010>

00002374 <l2009>:
    2374:	ea000000 	b	237c <l2011>

00002378 <l2010>:
    2378:	000fffe8 	.word	0x000fffe8

0000237c <l2011>:
    237c:	b100609a 	swplt	r6, sl, [r0]

00002380 <l2012>:
    2380:	e16f7f13 	clz	r7, r3

00002384 <l2013>:
    2384:	ef306a6d 	svc	0x00306a6d

00002388 <l2014>:
    2388:	e1a00000 	nop			; (mov r0, r0)

0000238c <l2015>:
    238c:	e180a172 	orr	sl, r0, r2, ror r1

00002390 <interrupt_19>:
    2390:	80702ccb 	rsbshi	r2, r0, fp, asr #25

00002394 <interrupt_935>:
    2394:	b1859069 	orrlt	r9, r5, r9, rrx

00002398 <l2018>:
    2398:	71310261 	teqvc	r1, r1, ror #4

0000239c <l2019>:
    239c:	91cdb1be 	strhls	fp, [sp, #30]

000023a0 <l2020>:
    23a0:	e59f3000 	ldr	r3, [pc]	; 23a8 <l2022>

000023a4 <l2021>:
    23a4:	ea000000 	b	23ac <l2023>

000023a8 <l2022>:
    23a8:	000fffc8 	.word	0x000fffc8

000023ac <l2023>:
    23ac:	e143e094 	swpb	lr, r4, [r3]

000023b0 <l2024>:
    23b0:	e04a3003 	sub	r3, sl, r3

000023b4 <l2025>:
    23b4:	e2e74c9e 	rsc	r4, r7, #40448	; 0x9e00

000023b8 <l2026>:
    23b8:	e0599859 	subs	r9, r9, r9, asr r8

000023bc <l2027>:
    23bc:	e98df358 	stmib	sp, {r3, r4, r6, r8, r9, ip, sp, lr, pc}

000023c0 <l2028>:
    23c0:	e3a07024 	mov	r7, #36	; 0x24

000023c4 <l2029>:
    23c4:	e7bd2007 	ldr	r2, [sp, r7]!

000023c8 <l2030>:
    23c8:	e30f96c2 	.word	0xe30f96c2

000023cc <l2031>:
    23cc:	b0eb00ea 	rsclt	r0, fp, sl, ror #1

000023d0 <interrupt_325>:
    23d0:	f5889ecb 	.word	0xf5889ecb

000023d4 <interrupt_867>:
    23d4:	e04b641c 	sub	r6, fp, ip, lsl r4

000023d8 <l2034>:
    23d8:	e3a0aae9 	mov	sl, #954368	; 0xe9000

000023dc <l2035>:
    23dc:	e3a0a014 	mov	sl, #20

000023e0 <interrupt_458>:
    23e0:	e11d60ba 	ldrh	r6, [sp, -sl]

000023e4 <l2037>:
    23e4:	e1a00000 	nop			; (mov r0, r0)

000023e8 <l2038>:
    23e8:	e000b066 	and	fp, r0, r6, rrx

000023ec <l2039>:
    23ec:	e3a0c024 	mov	ip, #36	; 0x24

000023f0 <l2040>:
    23f0:	310da0bc 	strhcc	sl, [sp, -ip]

000023f4 <l2041>:
    23f4:	e1a00000 	nop			; (mov r0, r0)

000023f8 <interrupt_558>:
    23f8:	e59f9000 	ldr	r9, [pc]	; 2400 <l2044>

000023fc <l2043>:
    23fc:	ea000000 	b	2404 <l2045>

00002400 <l2044>:
    2400:	000fffb8 	.word	0x000fffb8

00002404 <l2045>:
    2404:	a1493096 	swpbge	r3, r6, [r9]

00002408 <l2046>:
    2408:	8242a111 	subhi	sl, r2, #1073741828	; 0x40000004

0000240c <l2047>:
    240c:	615d64d1 	ldrsbvs	r6, [sp, #-65]	; 0xffffffbf

00002410 <l2048>:
    2410:	e3a0700a 	mov	r7, #10

00002414 <l2049>:
    2414:	174d1007 	strbne	r1, [sp, -r7]

00002418 <interrupt_182>:
    2418:	615d12d8 	ldrsbvs	r1, [sp, #-40]	; 0xffffffd8

0000241c <l2051>:
    241c:	81a06000 	movhi	r6, r0

00002420 <l2052>:
    2420:	11390001 	teqne	r9, r1

00002424 <l2053>:
    2424:	c3058ee5 	.word	0xc3058ee5

00002428 <interrupt_522>:
    2428:	ff8fafff 	.word	0xff8fafff

0000242c <interrupt_700>:
    242c:	915e0002 	cmpls	lr, r2

00002430 <l2056>:
    2430:	315da0ba 	ldrhcc	sl, [sp, #-10]

00002434 <l2057>:
    2434:	e82d009c 	stmda	sp!, {r2, r3, r4, r7}

00002438 <l2058>:
    2438:	efc1ca4e 	svc	0x00c1ca4e

0000243c <l2059>:
    243c:	f7cae901 	.word	0xf7cae901

00002440 <l2060>:
    2440:	e3a07004 	mov	r7, #4

00002444 <l2061>:
    2444:	e61d4007 	ldr	r4, [sp], -r7

00002448 <l2062>:
    2448:	10d73278 	sbcsne	r3, r7, r8, ror r2

0000244c <l2063>:
    244c:	0015c663 	andseq	ip, r5, r3, ror #12

00002450 <l2064>:
    2450:	e59f5000 	ldr	r5, [pc]	; 2458 <l2066>

00002454 <interrupt_263>:
    2454:	ea000000 	b	245c <l2067>

00002458 <l2066>:
    2458:	000fffcc 	.word	0x000fffcc

0000245c <l2067>:
    245c:	91459094 	swpbls	r9, r4, [r5]

00002460 <l2068>:
    2460:	ca000000 	bgt	2468 <l2070>

00002464 <l2069>:
    2464:	d1f0700b 	mvnsle	r7, fp

00002468 <l2070>:
    2468:	e0326258 	eors	r6, r2, r8, asr r2

0000246c <l2071>:
    246c:	e3180b6d 	tst	r8, #111616	; 0x1b400

00002470 <l2072>:
    2470:	81530001 	cmphi	r3, r1

00002474 <l2073>:
    2474:	e15de2de 	ldrsb	lr, [sp, #-46]	; 0xffffffd2

00002478 <l2074>:
    2478:	e35c0339 	cmp	ip, #-469762048	; 0xe4000000

0000247c <l2075>:
    247c:	e33a02ad 	teq	sl, #-805306358	; 0xd000000a

00002480 <l2076>:
    2480:	93cb541f 	bicls	r5, fp, #520093696	; 0x1f000000

00002484 <interrupt_939>:
    2484:	e3c03925 	bic	r3, r0, #606208	; 0x94000

00002488 <l2078>:
    2488:	216f0f1e 	clzcs	r0, lr

0000248c <interrupt_849>:
    248c:	e15a0a63 	cmp	sl, r3, ror #20

00002490 <l2080>:
    2490:	215d11b6 	ldrhcs	r1, [sp, #-22]	; 0xffffffea

00002494 <interrupt_94>:
    2494:	31b0c6cf 	asrscc	ip, pc, #13

00002498 <interrupt_736>:
    2498:	0052e00a 	subseq	lr, r2, sl

0000249c <l2083>:
    249c:	e40d3010 	str	r3, [sp], #-16

000024a0 <l2084>:
    24a0:	e05c1b86 	subs	r1, ip, r6, lsl #23

000024a4 <l2085>:
    24a4:	654d7020 	strbvs	r7, [sp, #-32]

000024a8 <l2086>:
    24a8:	b2056d16 	andlt	r6, r5, #1408	; 0x580

000024ac <interrupt_770>:
    24ac:	e59fe000 	ldr	lr, [pc]	; 24b4 <interrupt_752>

000024b0 <interrupt_954>:
    24b0:	ea000000 	b	24b8 <l2090>

000024b4 <interrupt_752>:
    24b4:	000fffe4 	.word	0x000fffe4

000024b8 <l2090>:
    24b8:	214e7096 	swpbcs	r7, r6, [lr]

000024bc <l2091>:
    24bc:	e59fb000 	ldr	fp, [pc]	; 24c4 <l2093>

000024c0 <l2092>:
    24c0:	ea000000 	b	24c8 <interrupt_146>

000024c4 <l2093>:
    24c4:	000fffc4 	.word	0x000fffc4

000024c8 <interrupt_146>:
    24c8:	e14b3098 	swpb	r3, r8, [fp]

000024cc <l2095>:
    24cc:	316f9f14 	clzcc	r9, r4

000024d0 <interrupt_98>:
    24d0:	e59f2000 	ldr	r2, [pc]	; 24d8 <l2098>

000024d4 <l2097>:
    24d4:	ea000000 	b	24dc <l2099>

000024d8 <l2098>:
    24d8:	000fffac 	.word	0x000fffac

000024dc <l2099>:
    24dc:	c1028097 	swpgt	r8, r7, [r2]

000024e0 <l2100>:
    24e0:	90eb2652 	rscls	r2, fp, r2, asr r6

000024e4 <l2101>:
    24e4:	e3a08024 	mov	r8, #36	; 0x24

000024e8 <interrupt_546>:
    24e8:	119d20f8 	ldrshne	r2, [sp, r8]

000024ec <l2103>:
    24ec:	c097c756 	addsgt	ip, r7, r6, asr r7

000024f0 <l2104>:
    24f0:	ef63548b 	svc	0x0063548b

000024f4 <l2105>:
    24f4:	c0dfc8a7 	sbcsgt	ip, pc, r7, lsr #17

000024f8 <l2106>:
    24f8:	516faf1e 	clzpl	sl, lr

000024fc <l2107>:
    24fc:	e182a08e 	orr	sl, r2, lr, lsl #1

00002500 <l2108>:
    2500:	85cd0006 	strbhi	r0, [sp, #6]

00002504 <l2109>:
    2504:	e3a07012 	mov	r7, #18

00002508 <interrupt_696>:
    2508:	511d90b7 	ldrhpl	r9, [sp, -r7]

0000250c <l2111>:
    250c:	efab5942 	svc	0x00ab5942

00002510 <l2112>:
    2510:	e1370060 	teq	r7, r0, rrx

00002514 <l2113>:
    2514:	5064e069 	rsbpl	lr, r4, r9, rrx

00002518 <l2114>:
    2518:	404a1711 	submi	r1, sl, r1, lsl r7

0000251c <l2115>:
    251c:	c301f4c3 	.word	0xc301f4c3

00002520 <l2116>:
    2520:	ea000002 	b	2530 <l2120>

00002524 <l2117>:
    2524:	21f00959 	mvnscs	r0, r9, asr r9

00002528 <l2118>:
    2528:	41dcb821 	bicsmi	fp, ip, r1, lsr #16

0000252c <l2119>:
    252c:	9170000e 	cmnls	r0, lr

00002530 <l2120>:
    2530:	2172038f 	cmncs	r2, pc, lsl #7

00002534 <l2121>:
    2534:	e1ddc2d6 	ldrsb	ip, [sp, #38]	; 0x26

00002538 <l2122>:
    2538:	e11a0e09 	tst	sl, r9, lsl #28

0000253c <l2123>:
    253c:	e066a21c 	rsb	sl, r6, ip, lsl r2

00002540 <l2124>:
    2540:	01c71004 	biceq	r1, r7, r4

00002544 <l2125>:
    2544:	e3a07008 	mov	r7, #8

00002548 <l2126>:
    2548:	e19de0f7 	ldrsh	lr, [sp, r7]

0000254c <l2127>:
    254c:	e13c0851 	teq	ip, r1, asr r8

00002550 <l2128>:
    2550:	23580c63 	cmpcs	r8, #25344	; 0x6300

00002554 <l2129>:
    2554:	c13a047e 	teqgt	sl, lr, ror r4

00002558 <l2130>:
    2558:	21b06ee0 	rorscs	r6, r0, #29

0000255c <interrupt_595>:
    255c:	efa5e17e 	svc	0x00a5e17e

00002560 <l2132>:
    2560:	e010a004 	ands	sl, r0, r4

00002564 <l2133>:
    2564:	efc28582 	svc	0x00c28582

00002568 <l2134>:
    2568:	21120064 	tstcs	r2, r4, rrx

0000256c <l2135>:
    256c:	e3a08010 	mov	r8, #16

00002570 <l2136>:
    2570:	d71d0008 	ldrle	r0, [sp, -r8]

00002574 <l2137>:
    2574:	e3e0c8b2 	mvn	ip, #11665408	; 0xb20000

00002578 <l2138>:
    2578:	e59fe000 	ldr	lr, [pc]	; 2580 <l2140>

0000257c <l2139>:
    257c:	ea000000 	b	2584 <l2141>

00002580 <l2140>:
    2580:	000fffc4 	.word	0x000fffc4

00002584 <l2141>:
    2584:	914e5098 	swpbls	r5, r8, [lr]

00002588 <l2142>:
    2588:	e1520a13 	cmp	r2, r3, lsl sl

0000258c <l2143>:
    258c:	00d91a72 	sbcseq	r1, r9, r2, ror sl

00002590 <l2144>:
    2590:	e59f5000 	ldr	r5, [pc]	; 2598 <l2146>

00002594 <l2145>:
    2594:	ea000000 	b	259c <l2147>

00002598 <l2146>:
    2598:	000fffd0 	.word	0x000fffd0

0000259c <l2147>:
    259c:	e1053097 	swp	r3, r7, [r5]

000025a0 <l2148>:
    25a0:	420b052e 	andmi	r0, fp, #192937984	; 0xb800000

000025a4 <interrupt_641>:
    25a4:	e3f0402e 	mvns	r4, #46	; 0x2e

000025a8 <l2150>:
    25a8:	aa000006 	bge	25c8 <l2158>

000025ac <l2151>:
    25ac:	e2801020 	add	r1, r0, #32

000025b0 <l2152>:
    25b0:	e2652024 	rsb	r2, r5, #36	; 0x24

000025b4 <l2153>:
    25b4:	e1750010 	cmn	r5, r0, lsl r0

000025b8 <interrupt_26>:
    25b8:	90c69063 	sbcls	r9, r6, r3, rrx

000025bc <l2155>:
    25bc:	7053c5ca 	subsvc	ip, r3, sl, asr #11

000025c0 <l2156>:
    25c0:	93a01da6 	movls	r1, #10624	; 0x2980

000025c4 <l2157>:
    25c4:	ea000000 	b	25cc <l2159>

000025c8 <l2158>:
    25c8:	eafffff8 	b	25b0 <l2152>

000025cc <l2159>:
    25cc:	85dd200c 	ldrbhi	r2, [sp, #12]

000025d0 <l2160>:
    25d0:	ffc0f51e 	.word	0xffc0f51e

000025d4 <l2161>:
    25d4:	e3a0e002 	mov	lr, #2

000025d8 <l2162>:
    25d8:	e19db0fe 	ldrsh	fp, [sp, lr]

000025dc <l2163>:
    25dc:	e59f1000 	ldr	r1, [pc]	; 25e4 <l2165>

000025e0 <l2164>:
    25e0:	ea000000 	b	25e8 <l2166>

000025e4 <l2165>:
    25e4:	000fffe0 	.word	0x000fffe0

000025e8 <l2166>:
    25e8:	01412096 	swpbeq	r2, r6, [r1]

000025ec <l2167>:
    25ec:	e3a0100e 	mov	r1, #14

000025f0 <l2168>:
    25f0:	07cd5001 	strbeq	r5, [sp, r1]

000025f4 <l2169>:
    25f4:	70a21069 	adcvc	r1, r2, r9, rrx

000025f8 <interrupt_498>:
    25f8:	efbac48e 	svc	0x00bac48e

000025fc <l2171>:
    25fc:	e3a00012 	mov	r0, #18

00002600 <l2172>:
    2600:	27dd3000 	ldrbcs	r3, [sp, r0]

00002604 <l2173>:
    2604:	413205ee 	teqmi	r2, lr, ror #11

00002608 <l2174>:
    2608:	31530c7c 	cmpcc	r3, ip, ror ip

0000260c <l2175>:
    260c:	513e0060 	teqpl	lr, r0, rrx

00002610 <l2176>:
    2610:	e59f8000 	ldr	r8, [pc]	; 2618 <l2178>

00002614 <interrupt_153>:
    2614:	ea000000 	b	261c <l2179>

00002618 <l2178>:
    2618:	000fffb8 	.word	0x000fffb8

0000261c <l2179>:
    261c:	2108509b 	swpcs	r5, fp, [r8]

00002620 <l2180>:
    2620:	c11a000a 	tstgt	sl, sl

00002624 <l2181>:
    2624:	9300336d 	.word	0x9300336d

00002628 <l2182>:
    2628:	92e33e27 	rscls	r3, r3, #624	; 0x270

0000262c <l2183>:
    262c:	e3a0b014 	mov	fp, #20

00002630 <l2184>:
    2630:	e79d700b 	ldr	r7, [sp, fp]

00002634 <l2185>:
    2634:	01cd00b8 	strheq	r0, [sp, #8]

00002638 <interrupt_513>:
    2638:	4350048f 	cmpmi	r0, #-1895825408	; 0x8f000000

0000263c <l2187>:
    263c:	9185a958 	orrls	sl, r5, r8, asr r9

00002640 <interrupt_354>:
    2640:	ef838e23 	svc	0x00838e23

00002644 <l2189>:
    2644:	e392061a 	orrs	r0, r2, #27262976	; 0x1a00000

00002648 <l2190>:
    2648:	e3b0e03a 	movs	lr, #58	; 0x3a

0000264c <l2191>:
    264c:	625140c2 	subsvs	r4, r1, #194	; 0xc2

00002650 <l2192>:
    2650:	e06b9478 	rsb	r9, fp, r8, ror r4

00002654 <l2193>:
    2654:	ff7d2b92 	.word	0xff7d2b92

00002658 <l2194>:
    2658:	e1e00419 	mvn	r0, r9, lsl r4

0000265c <interrupt_425>:
    265c:	00dc5004 	sbcseq	r5, ip, r4

00002660 <l2196>:
    2660:	e1a00000 	nop			; (mov r0, r0)

00002664 <l2197>:
    2664:	53340246 	teqpl	r4, #1610612740	; 0x60000004

00002668 <l2198>:
    2668:	d688b471 	.word	0xd688b471

0000266c <l2199>:
    266c:	ef2460dd 	svc	0x002460dd

00002670 <l2200>:
    2670:	903b700e 	eorsls	r7, fp, lr

00002674 <l2201>:
    2674:	e59fe000 	ldr	lr, [pc]	; 267c <interrupt_607>

00002678 <l2202>:
    2678:	ea000000 	b	2680 <interrupt_362>

0000267c <interrupt_607>:
    267c:	000fffc0 	.word	0x000fffc0

00002680 <interrupt_362>:
    2680:	e10e4096 	swp	r4, r6, [lr]

00002684 <l2205>:
    2684:	d25f72bb 	subsle	r7, pc, #-1342177269	; 0xb000000b

00002688 <l2206>:
    2688:	e0913157 	adds	r3, r1, r7, asr r1

0000268c <l2207>:
    268c:	c3e06133 	mvngt	r6, #-1073741812	; 0xc000000c

00002690 <l2208>:
    2690:	aa000004 	bge	26a8 <interrupt_298>

00002694 <l2209>:
    2694:	e28010bc 	add	r1, r0, #188	; 0xbc

00002698 <l2210>:
    2698:	e1a01b3b 	lsr	r1, fp, fp

0000269c <l2211>:
    269c:	91f00001 	mvnsls	r0, r1

000026a0 <l2212>:
    26a0:	401b0062 	andsmi	r0, fp, r2, rrx

000026a4 <l2213>:
    26a4:	ea000000 	b	26ac <l2215>

000026a8 <interrupt_298>:
    26a8:	eafffffa 	b	2698 <l2210>

000026ac <l2215>:
    26ac:	111a035b 	tstne	sl, fp, asr r3

000026b0 <l2216>:
    26b0:	e25c9209 	subs	r9, ip, #-1879048192	; 0x90000000

000026b4 <l2217>:
    26b4:	e8ad0048 	stmia	sp!, {r3, r6}

000026b8 <l2218>:
    26b8:	e1a00000 	nop			; (mov r0, r0)

000026bc <l2219>:
    26bc:	9a000004 	bls	26d4 <l2225>

000026c0 <interrupt_533>:
    26c0:	e2801021 	add	r1, r0, #33	; 0x21

000026c4 <interrupt_440>:
    26c4:	717a0a10 	cmnvc	sl, r0, lsl sl

000026c8 <l2222>:
    26c8:	31740002 	cmncc	r4, r2

000026cc <interrupt_13>:
    26cc:	33f0313b 	mvnscc	r3, #-1073741810	; 0xc000000e

000026d0 <l2224>:
    26d0:	ea000000 	b	26d8 <l2226>

000026d4 <l2225>:
    26d4:	eafffffa 	b	26c4 <interrupt_440>

000026d8 <l2226>:
    26d8:	e3a0b008 	mov	fp, #8

000026dc <l2227>:
    26dc:	175da00b 	ldrbne	sl, [sp, -fp]

000026e0 <l2228>:
    26e0:	1a000006 	bne	2700 <l2236>

000026e4 <interrupt_678>:
    26e4:	e2801096 	add	r1, r0, #150	; 0x96

000026e8 <l2230>:
    26e8:	500f53af 	andpl	r5, pc, pc, lsr #7

000026ec <l2231>:
    26ec:	500e8c77 	andpl	r8, lr, r7, ror ip

000026f0 <l2232>:
    26f0:	80ae640a 	adchi	r6, lr, sl, lsl #8

000026f4 <l2233>:
    26f4:	029e2c6b 	addseq	r2, lr, #27392	; 0x6b00

000026f8 <interrupt_272>:
    26f8:	a1e05117 	mvnge	r5, r7, lsl r1

000026fc <l2235>:
    26fc:	ea000000 	b	2704 <l2237>

00002700 <l2236>:
    2700:	eafffff8 	b	26e8 <l2230>

00002704 <l2237>:
    2704:	e59f6000 	ldr	r6, [pc]	; 270c <l2239>

00002708 <l2238>:
    2708:	ea000000 	b	2710 <l2240>

0000270c <l2239>:
    270c:	000fffb8 	.word	0x000fffb8

00002710 <l2240>:
    2710:	91469098 	swpbls	r9, r8, [r6]

00002714 <interrupt_165>:
    2714:	6226e09f 	eorvs	lr, r6, #159	; 0x9f

00002718 <l2242>:
    2718:	60f5b002 	rscsvs	fp, r5, r2

0000271c <l2243>:
    271c:	e89d007c 	ldm	sp, {r2, r3, r4, r5, r6}

00002720 <l2244>:
    2720:	e9bd4613 	ldmib	sp!, {r0, r1, r4, r9, sl, lr}

00002724 <interrupt_233>:
    2724:	515d00d3 	ldrsbpl	r0, [sp, #-3]

00002728 <l2246>:
    2728:	e59f8000 	ldr	r8, [pc]	; 2730 <l2248>

0000272c <l2247>:
    272c:	ea000000 	b	2734 <l2249>

00002730 <l2248>:
    2730:	000fffa4 	.word	0x000fffa4

00002734 <l2249>:
    2734:	61086094 	swpvs	r6, r4, [r8]

00002738 <interrupt_626>:
    2738:	e1a01000 	mov	r1, r0

0000273c <l2251>:
    273c:	e59f0000 	ldr	r0, [pc]	; 2744 <l2253>

00002740 <interrupt_122>:
    2740:	ea000000 	b	2748 <l2254>

00002744 <l2253>:
    2744:	000fffa8 	.word	0x000fffa8

00002748 <l2254>:
    2748:	b1007096 	swplt	r7, r6, [r0]

0000274c <l2255>:
    274c:	0723fa12 	.word	0x0723fa12

00002750 <interrupt_278>:
    2750:	e05e8065 	subs	r8, lr, r5, rrx

00002754 <l2257>:
    2754:	61140009 	tstvs	r4, r9

00002758 <l2258>:
    2758:	efd77fae 	svc	0x00d77fae

0000275c <interrupt_946>:
    275c:	55cd1004 	strbpl	r1, [sp, #4]

00002760 <l2260>:
    2760:	e1330831 	teq	r3, r1, lsr r8

00002764 <interrupt_587>:
    2764:	f86350c9 	.word	0xf86350c9

00002768 <l2262>:
    2768:	e91d4f94 	ldmdb	sp, {r2, r4, r7, r8, r9, sl, fp, lr}

0000276c <l2263>:
    276c:	20eeee3a 	rsccs	lr, lr, sl, lsr lr

00002770 <l2264>:
    2770:	e3b0e90b 	movs	lr, #180224	; 0x2c000

00002774 <l2265>:
    2774:	e3a0003a 	mov	r0, #58	; 0x3a

00002778 <l2266>:
    2778:	d74d9000 	strble	r9, [sp, -r0]

0000277c <l2267>:
    277c:	41b04452 	asrsmi	r4, r2, r4

00002780 <l2268>:
    2780:	d14de1ba 	strhle	lr, [sp, #-26]	; 0xffffffe6

00002784 <interrupt_306>:
    2784:	e59f2000 	ldr	r2, [pc]	; 278c <interrupt_99>

00002788 <l2270>:
    2788:	ea000000 	b	2790 <l2272>

0000278c <interrupt_99>:
    278c:	000fffa4 	.word	0x000fffa4

00002790 <l2272>:
    2790:	d102009a 	swple	r0, sl, [r2]

00002794 <l2273>:
    2794:	71a0b001 	movvc	fp, r1

00002798 <l2274>:
    2798:	718b3816 	orrvc	r3, fp, r6, lsl r8

0000279c <l2275>:
    279c:	31df1105 	bicscc	r1, pc, r5, lsl #2

000027a0 <l2276>:
    27a0:	72b97b39 	adcsvc	r7, r9, #58368	; 0xe400

000027a4 <l2277>:
    27a4:	e40d902c 	str	r9, [sp], #-44	; 0x2c

000027a8 <l2278>:
    27a8:	e93d0c0a 	ldmdb	sp!, {r1, r3, sl, fp}

000027ac <interrupt_189>:
    27ac:	92be5f97 	adcsls	r5, lr, #604	; 0x25c

000027b0 <interrupt_564>:
    27b0:	40429001 	submi	r9, r2, r1

000027b4 <l2281>:
    27b4:	8a000004 	bhi	27cc <l2287>

000027b8 <interrupt_717>:
    27b8:	e280108e 	add	r1, r0, #142	; 0x8e

000027bc <interrupt_71>:
    27bc:	e09e5000 	adds	r5, lr, r0

000027c0 <l2284>:
    27c0:	81c10c44 	bichi	r0, r1, r4, asr #24

000027c4 <l2285>:
    27c4:	4099706f 	addsmi	r7, r9, pc, rrx

000027c8 <l2286>:
    27c8:	ea000000 	b	27d0 <l2288>

000027cc <l2287>:
    27cc:	eafffffa 	b	27bc <interrupt_71>

000027d0 <l2288>:
    27d0:	e55d3006 	ldrb	r3, [sp, #-6]

000027d4 <l2289>:
    27d4:	71dd32b2 	ldrhvc	r3, [sp, #34]	; 0x22

000027d8 <l2290>:
    27d8:	c0cb2978 	sbcgt	r2, fp, r8, ror r9

000027dc <interrupt_114>:
    27dc:	f59b4b2d 	.word	0xf59b4b2d

000027e0 <l2292>:
    27e0:	e3a00004 	mov	r0, #4

000027e4 <l2293>:
    27e4:	170d6000 	strne	r6, [sp, -r0]

000027e8 <interrupt_572>:
    27e8:	e1dd40b0 	ldrh	r4, [sp]

000027ec <l2295>:
    27ec:	f922cb82 	.word	0xf922cb82

000027f0 <l2296>:
    27f0:	e59f3000 	ldr	r3, [pc]	; 27f8 <l2298>

000027f4 <l2297>:
    27f4:	ea000000 	b	27fc <l2299>

000027f8 <l2298>:
    27f8:	000fffd8 	.word	0x000fffd8

000027fc <l2299>:
    27fc:	5143e097 	swpbpl	lr, r7, [r3]

00002800 <l2300>:
    2800:	e1f0b003 	mvns	fp, r3

00002804 <interrupt_164>:
    2804:	e5bd0004 	ldr	r0, [sp, #4]!

00002808 <l2302>:
    2808:	11dd63d3 	ldrsbne	r6, [sp, #51]	; 0x33

0000280c <interrupt_579>:
    280c:	e3b030b5 	movs	r3, #181	; 0xb5

00002810 <l2304>:
    2810:	03560166 	cmpeq	r6, #-2147483623	; 0x80000019

00002814 <l2305>:
    2814:	462e6d95 	.word	0x462e6d95

00002818 <l2306>:
    2818:	e59f2000 	ldr	r2, [pc]	; 2820 <interrupt_705>

0000281c <l2307>:
    281c:	ea000000 	b	2824 <l2309>

00002820 <interrupt_705>:
    2820:	000fffc8 	.word	0x000fffc8

00002824 <l2309>:
    2824:	2142a091 	swpbcs	sl, r1, [r2]

00002828 <interrupt_61>:
    2828:	efde4576 	svc	0x00de4576

0000282c <l2311>:
    282c:	d044706e 	suble	r7, r4, lr, rrx

00002830 <l2312>:
    2830:	e1b05001 	movs	r5, r1

00002834 <l2313>:
    2834:	e3a04030 	mov	r4, #48	; 0x30

00002838 <l2314>:
    2838:	c7dde004 	ldrbgt	lr, [sp, r4]

0000283c <l2315>:
    283c:	efd03d4c 	svc	0x00d03d4c

00002840 <l2316>:
    2840:	e3a0203c 	mov	r2, #60	; 0x3c

00002844 <l2317>:
    2844:	779d0002 	ldrvc	r0, [sp, r2]

00002848 <l2318>:
    2848:	e3a00028 	mov	r0, #40	; 0x28

0000284c <l2319>:
    284c:	e7bd9000 	ldr	r9, [sp, r0]!

00002850 <l2320>:
    2850:	71780008 	cmnvc	r8, r8

00002854 <l2321>:
    2854:	60ef4008 	rscvs	r4, pc, r8

00002858 <l2322>:
    2858:	e59d1014 	ldr	r1, [sp, #20]

0000285c <l2323>:
    285c:	916fcf19 	clzls	ip, r9

00002860 <l2324>:
    2860:	10695be4 	rsbne	r5, r9, r4, ror #23

00002864 <l2325>:
    2864:	e1350e1a 	teq	r5, sl, lsl lr

00002868 <l2326>:
    2868:	f96e17c4 	.word	0xf96e17c4

0000286c <interrupt_168>:
    286c:	e24aaaa2 	sub	sl, sl, #663552	; 0xa2000

00002870 <l2328>:
    2870:	716fef16 	clzvc	lr, r6

00002874 <l2329>:
    2874:	e3a0502c 	mov	r5, #44	; 0x2c

00002878 <interrupt_481>:
    2878:	e60d5005 	str	r5, [sp], -r5

0000287c <l2331>:
    287c:	a0a29065 	adcge	r9, r2, r5, rrx

00002880 <l2332>:
    2880:	507852ab 	rsbspl	r5, r8, fp, lsr #5

00002884 <l2333>:
    2884:	e2b22741 	adcs	r2, r2, #17039360	; 0x1040000

00002888 <l2334>:
    2888:	90991069 	addsls	r1, r9, r9, rrx

0000288c <l2335>:
    288c:	e3a0102c 	mov	r1, #44	; 0x2c

00002890 <interrupt_765>:
    2890:	e19d50f1 	ldrsh	r5, [sp, r1]

00002894 <l2337>:
    2894:	e03a0007 	eors	r0, sl, r7

00002898 <l2338>:
    2898:	efca5d3b 	svc	0x00ca5d3b

0000289c <l2339>:
    289c:	e59fe000 	ldr	lr, [pc]	; 28a4 <l2341>

000028a0 <l2340>:
    28a0:	ea000000 	b	28a8 <interrupt_324>

000028a4 <l2341>:
    28a4:	000fffac 	.word	0x000fffac

000028a8 <interrupt_324>:
    28a8:	e10e609c 	swp	r6, ip, [lr]

000028ac <l2343>:
    28ac:	e0146e19 	ands	r6, r4, r9, lsl lr

000028b0 <interrupt_737>:
    28b0:	e315030d 	tst	r5, #872415232	; 0x34000000

000028b4 <l2345>:
    28b4:	e8ad83e0 	stmia	sp!, {r5, r6, r7, r8, r9, pc}

000028b8 <l2346>:
    28b8:	c18a8000 	orrgt	r8, sl, r0

000028bc <l2347>:
    28bc:	7a000002 	bvc	28cc <interrupt_875>

000028c0 <l2348>:
    28c0:	e280106a 	add	r1, r0, #106	; 0x6a

000028c4 <l2349>:
    28c4:	c07a2008 	rsbsgt	r2, sl, r8

000028c8 <l2350>:
    28c8:	ea000000 	b	28d0 <l2352>

000028cc <interrupt_875>:
    28cc:	eafffffc 	b	28c4 <l2349>

000028d0 <l2352>:
    28d0:	c98d8a20 	stmibgt	sp, {r5, r9, fp, pc}

000028d4 <l2353>:
    28d4:	e82d2000 	stmda	sp!, {sp}

000028d8 <l2354>:
    28d8:	ea000002 	b	28e8 <l2358>

000028dc <l2355>:
    28dc:	83500000 	cmphi	r0, #0

000028e0 <l2356>:
    28e0:	a1d4ec05 	bicsge	lr, r4, r5, lsl #24

000028e4 <l2357>:
    28e4:	011c0a49 	tsteq	ip, r9, asr #20

000028e8 <l2358>:
    28e8:	70cab23a 	sbcvc	fp, sl, sl, lsr r2

000028ec <l2359>:
    28ec:	e3a02016 	mov	r2, #22

000028f0 <l2360>:
    28f0:	b19d70b2 	ldrhlt	r7, [sp, r2]

000028f4 <l2361>:
    28f4:	315d90b8 	ldrhcc	r9, [sp, #-8]

000028f8 <l2362>:
    28f8:	e3a0e026 	mov	lr, #38	; 0x26

000028fc <l2363>:
    28fc:	618dc0be 	strhvs	ip, [sp, lr]

00002900 <l2364>:
    2900:	935c0a06 	cmpls	ip, #24576	; 0x6000

00002904 <interrupt_578>:
    2904:	70833067 	addvc	r3, r3, r7, rrx

00002908 <l2366>:
    2908:	42580701 	subsmi	r0, r8, #262144	; 0x40000

0000290c <l2367>:
    290c:	e0135002 	ands	r5, r3, r2

00002910 <l2368>:
    2910:	b3b08e49 	movslt	r8, #1168	; 0x490

00002914 <l2369>:
    2914:	2051e929 	subscs	lr, r1, r9, lsr #18

00002918 <interrupt_72>:
    2918:	f814da5a 	.word	0xf814da5a

0000291c <l2371>:
    291c:	111e0a36 	tstne	lr, r6, lsr sl

00002920 <l2372>:
    2920:	015d11fa 	ldrsheq	r1, [sp, #-26]	; 0xffffffe6

00002924 <l2373>:
    2924:	8a000004 	bhi	293c <interrupt_655>

00002928 <l2374>:
    2928:	c35f0207 	cmpgt	pc, #1879048192	; 0x70000000

0000292c <interrupt_642>:
    292c:	20c66b69 	sbccs	r6, r6, r9, ror #22

00002930 <l2376>:
    2930:	e1e06685 	mvn	r6, r5, lsl #13

00002934 <l2377>:
    2934:	71320d2f 	teqvc	r2, pc, lsr #26

00002938 <l2378>:
    2938:	c2fa4ac3 	rscsgt	r4, sl, #798720	; 0xc3000

0000293c <interrupt_655>:
    293c:	e1590d8f 	cmp	r9, pc, lsl #27

00002940 <l2380>:
    2940:	e40da008 	str	sl, [sp], #-8

00002944 <interrupt_982>:
    2944:	e3a0a02e 	mov	sl, #46	; 0x2e

00002948 <l2382>:
    2948:	c19dc0fa 	ldrshgt	ip, [sp, sl]

0000294c <l2383>:
    294c:	40c6500e 	sbcmi	r5, r6, lr

00002950 <l2384>:
    2950:	81cd82b0 	strhhi	r8, [sp, #32]

00002954 <l2385>:
    2954:	efc55a3f 	svc	0x00c55a3f

00002958 <interrupt_733>:
    2958:	155d8002 	ldrbne	r8, [sp, #-2]

0000295c <l2387>:
    295c:	90000c71 	andls	r0, r0, r1, ror ip

00002960 <l2388>:
    2960:	e04b7008 	sub	r7, fp, r8

00002964 <interrupt_850>:
    2964:	e22fb812 	eor	fp, pc, #1179648	; 0x120000

00002968 <l2390>:
    2968:	428b6e4d 	addmi	r6, fp, #1232	; 0x4d0

0000296c <l2391>:
    296c:	30c0a006 	sbccc	sl, r0, r6

00002970 <l2392>:
    2970:	d0ce4e16 	sbcle	r4, lr, r6, lsl lr

00002974 <l2393>:
    2974:	05cd7029 	strbeq	r7, [sp, #41]	; 0x29

00002978 <l2394>:
    2978:	1304534d 	.word	0x1304534d

0000297c <l2395>:
    297c:	b1330485 	teqlt	r3, r5, lsl #9

00002980 <l2396>:
    2980:	e1a00067 	rrx	r0, r7

00002984 <l2397>:
    2984:	ea000007 	b	29a8 <l2406>

00002988 <interrupt_577>:
    2988:	e1c00677 	bic	r0, r0, r7, ror r6

0000298c <l2399>:
    298c:	e0ae900b 	adc	r9, lr, fp

00002990 <l2400>:
    2990:	a2d48545 	sbcsge	r8, r4, #289406976	; 0x11400000

00002994 <l2401>:
    2994:	e2796fcf 	rsbs	r6, r9, #828	; 0x33c

00002998 <interrupt_738>:
    2998:	a1e0806e 	mvnge	r8, lr, rrx

0000299c <l2403>:
    299c:	3200c222 	andcc	ip, r0, #536870914	; 0x20000002

000029a0 <l2404>:
    29a0:	22f17609 	rscscs	r7, r1, #9437184	; 0x900000

000029a4 <l2405>:
    29a4:	001351a9 	andseq	r5, r3, r9, lsr #3

000029a8 <l2406>:
    29a8:	e18b3709 	orr	r3, fp, r9, lsl #14

000029ac <l2407>:
    29ac:	e50d9010 	str	r9, [sp, #-16]

000029b0 <l2408>:
    29b0:	e0444003 	sub	r4, r4, r3

000029b4 <l2409>:
    29b4:	c3e0af91 	mvngt	sl, #580	; 0x244

000029b8 <interrupt_188>:
    29b8:	e0737739 	rsbs	r7, r3, r9, lsr r7

000029bc <interrupt_802>:
    29bc:	a16fef1a 	clzge	lr, sl

000029c0 <l2412>:
    29c0:	a04fe00a 	subge	lr, pc, sl

000029c4 <l2413>:
    29c4:	01947009 	orrseq	r7, r4, r9

000029c8 <l2414>:
    29c8:	e59f6000 	ldr	r6, [pc]	; 29d0 <l2416>

000029cc <l2415>:
    29cc:	ea000000 	b	29d4 <interrupt_510>

000029d0 <l2416>:
    29d0:	000fffb0 	.word	0x000fffb0

000029d4 <interrupt_510>:
    29d4:	0106309c 	swpeq	r3, ip, [r6]

000029d8 <interrupt_907>:
    29d8:	81dde0d4 	ldrsbhi	lr, [sp, #4]

000029dc <l2419>:
    29dc:	12e3065f 	rscne	r0, r3, #99614720	; 0x5f00000

000029e0 <interrupt_283>:
    29e0:	eff47188 	svc	0x00f47188

000029e4 <l2421>:
    29e4:	01cdb2b4 	strheq	fp, [sp, #36]	; 0x24

000029e8 <l2422>:
    29e8:	e1b0e00c 	movs	lr, ip

000029ec <interrupt_469>:
    29ec:	e3a01014 	mov	r1, #20

000029f0 <l2424>:
    29f0:	379d0001 	ldrcc	r0, [sp, r1]

000029f4 <l2425>:
    29f4:	e1dfa066 	bics	sl, pc, r6, rrx

000029f8 <l2426>:
    29f8:	e16f2f10 	clz	r2, r0

000029fc <l2427>:
    29fc:	e1dd20da 	ldrsb	r2, [sp, #10]

00002a00 <l2428>:
    2a00:	40c7b00a 	sbcmi	fp, r7, sl

00002a04 <interrupt_333>:
    2a04:	e2040716 	and	r0, r4, #5767168	; 0x580000

00002a08 <interrupt_147>:
    2a08:	f975f0e1 	.word	0xf975f0e1

00002a0c <l2431>:
    2a0c:	333f0a12 	teqcc	pc, #73728	; 0x12000

00002a10 <interrupt_606>:
    2a10:	e3a03014 	mov	r3, #20

00002a14 <l2433>:
    2a14:	e79de003 	ldr	lr, [sp, r3]

00002a18 <l2434>:
    2a18:	efd94609 	svc	0x00d94609

00002a1c <l2435>:
    2a1c:	e1e08009 	mvn	r8, r9

00002a20 <l2436>:
    2a20:	014d10b8 	strheq	r1, [sp, #-8]

00002a24 <interrupt_543>:
    2a24:	607ca00a 	rsbsvs	sl, ip, sl

00002a28 <l2438>:
    2a28:	e1de4a3b 	bics	r4, lr, fp, lsr sl

00002a2c <l2439>:
    2a2c:	51834009 	orrpl	r4, r3, r9

00002a30 <l2440>:
    2a30:	316f9f18 	clzcc	r9, r8

00002a34 <l2441>:
    2a34:	c063b845 	rsbgt	fp, r3, r5, asr #16

00002a38 <l2442>:
    2a38:	ff974ea0 	.word	0xff974ea0

00002a3c <interrupt_532>:
    2a3c:	e1dc000b 	bics	r0, ip, fp

00002a40 <l2444>:
    2a40:	e3a04014 	mov	r4, #20

00002a44 <l2445>:
    2a44:	e61d6004 	ldr	r6, [sp], -r4

00002a48 <l2446>:
    2a48:	c0495786 	subgt	r5, r9, r6, lsl #15

00002a4c <l2447>:
    2a4c:	e2eee05d 	rsc	lr, lr, #93	; 0x5d

00002a50 <l2448>:
    2a50:	e59f0000 	ldr	r0, [pc]	; 2a58 <l2450>

00002a54 <l2449>:
    2a54:	ea000000 	b	2a5c <l2451>

00002a58 <l2450>:
    2a58:	000fffb8 	.word	0x000fffb8

00002a5c <l2451>:
    2a5c:	91005096 	swpls	r5, r6, [r0]

00002a60 <l2452>:
    2a60:	e8bd478f 	pop	{r0, r1, r2, r3, r7, r8, r9, sl, lr}

00002a64 <l2453>:
    2a64:	7a000002 	bvc	2a74 <l2457>

00002a68 <l2454>:
    2a68:	e28010e0 	add	r1, r0, #224	; 0xe0

00002a6c <interrupt_592>:
    2a6c:	e057e917 	subs	lr, r7, r7, lsl r9

00002a70 <interrupt_822>:
    2a70:	ea000000 	b	2a78 <interrupt_624>

00002a74 <l2457>:
    2a74:	eafffffc 	b	2a6c <interrupt_592>

00002a78 <interrupt_624>:
    2a78:	605f906e 	subsvs	r9, pc, lr, rrx

00002a7c <l2459>:
    2a7c:	e3a0b024 	mov	fp, #36	; 0x24

00002a80 <l2460>:
    2a80:	e11d10fb 	ldrsh	r1, [sp, -fp]

00002a84 <l2461>:
    2a84:	e3a0401c 	mov	r4, #28

00002a88 <l2462>:
    2a88:	418db0b4 	strhmi	fp, [sp, r4]

00002a8c <l2463>:
    2a8c:	e83d0c04 	ldmda	sp!, {r2, sl, fp}

00002a90 <l2464>:
    2a90:	415d51f4 	ldrshmi	r5, [sp, #-20]	; 0xffffffec

00002a94 <l2465>:
    2a94:	b51d4014 	ldrlt	r4, [sp, #-20]

00002a98 <l2466>:
    2a98:	efc070b1 	svc	0x00c070b1

00002a9c <l2467>:
    2a9c:	a16fcf19 	clzge	ip, r9

00002aa0 <l2468>:
    2aa0:	904f400e 	subls	r4, pc, lr

00002aa4 <l2469>:
    2aa4:	e24666ad 	sub	r6, r6, #181403648	; 0xad00000

00002aa8 <interrupt_994>:
    2aa8:	ea000003 	b	2abc <interrupt_550>

00002aac <l2471>:
    2aac:	e156006a 	cmp	r6, sl, rrx

00002ab0 <interrupt_814>:
    2ab0:	216f9f18 	clzcs	r9, r8

00002ab4 <interrupt_611>:
    2ab4:	813b0a52 	teqhi	fp, r2, asr sl

00002ab8 <l2474>:
    2ab8:	9376053f 	cmnls	r6, #264241152	; 0xfc00000

00002abc <interrupt_550>:
    2abc:	e09e3004 	adds	r3, lr, r4

00002ac0 <interrupt_462>:
    2ac0:	d1881e07 	orrle	r1, r8, r7, lsl #28

00002ac4 <interrupt_357>:
    2ac4:	efd06340 	svc	0x00d06340

00002ac8 <interrupt_58>:
    2ac8:	417f0061 	cmnmi	pc, r1, rrx

00002acc <l2479>:
    2acc:	71a08d66 	rorvc	r8, r6, #26

00002ad0 <l2480>:
    2ad0:	e59f7000 	ldr	r7, [pc]	; 2ad8 <l2482>

00002ad4 <l2481>:
    2ad4:	ea000000 	b	2adc <l2483>

00002ad8 <l2482>:
    2ad8:	000fffd4 	.word	0x000fffd4

00002adc <l2483>:
    2adc:	e1075092 	swp	r5, r2, [r7]

00002ae0 <interrupt_622>:
    2ae0:	216f7f1b 	clzcs	r7, fp

00002ae4 <l2485>:
    2ae4:	e1a00000 	nop			; (mov r0, r0)

00002ae8 <l2486>:
    2ae8:	e047a6e7 	sub	sl, r7, r7, ror #13

00002aec <l2487>:
    2aec:	e3a01023 	mov	r1, #35	; 0x23

00002af0 <l2488>:
    2af0:	e7cdb001 	strb	fp, [sp, r1]

00002af4 <l2489>:
    2af4:	e5dd501e 	ldrb	r5, [sp, #30]

00002af8 <l2490>:
    2af8:	914d31b6 	strhls	r3, [sp, #-22]	; 0xffffffea

00002afc <l2491>:
    2afc:	e1a00000 	nop			; (mov r0, r0)

00002b00 <l2492>:
    2b00:	e5cd6012 	strb	r6, [sp, #18]

00002b04 <l2493>:
    2b04:	e3a02014 	mov	r2, #20

00002b08 <l2494>:
    2b08:	d18d20b2 	strhle	r2, [sp, r2]

00002b0c <interrupt_86>:
    2b0c:	e0205a55 	eor	r5, r0, r5, asr sl

00002b10 <l2496>:
    2b10:	e0039002 	and	r9, r3, r2

00002b14 <l2497>:
    2b14:	e1e07b7c 	mvn	r7, ip, ror fp

00002b18 <l2498>:
    2b18:	e1a00000 	nop			; (mov r0, r0)

00002b1c <interrupt_931>:
    2b1c:	3137008f 	teqcc	r7, pc, lsl #1

00002b20 <l2500>:
    2b20:	e59f4000 	ldr	r4, [pc]	; 2b28 <l2502>

00002b24 <l2501>:
    2b24:	ea000000 	b	2b2c <l2503>

00002b28 <l2502>:
    2b28:	000fffe4 	.word	0x000fffe4

00002b2c <l2503>:
    2b2c:	3144509b 	swpbcc	r5, fp, [r4]

00002b30 <interrupt_116>:
    2b30:	d1c2b334 	bicle	fp, r2, r4, lsr r3

00002b34 <l2505>:
    2b34:	e59f2000 	ldr	r2, [pc]	; 2b3c <l2507>

00002b38 <l2506>:
    2b38:	ea000000 	b	2b40 <l2508>

00002b3c <l2507>:
    2b3c:	000fffb4 	.word	0x000fffb4

00002b40 <l2508>:
    2b40:	8142a099 	swpbhi	sl, r9, [r2]

00002b44 <l2509>:
    2b44:	e1dd32d0 	ldrsb	r3, [sp, #32]

00002b48 <l2510>:
    2b48:	e0eb3060 	rsc	r3, fp, r0, rrx

00002b4c <l2511>:
    2b4c:	e35006cb 	cmp	r0, #212860928	; 0xcb00000

00002b50 <interrupt_383>:
    2b50:	e158070e 	cmp	r8, lr, lsl #14

00002b54 <l2513>:
    2b54:	e3a02018 	mov	r2, #24

00002b58 <l2514>:
    2b58:	e7adb002 	str	fp, [sp, r2]!

00002b5c <l2515>:
    2b5c:	e150073a 	cmp	r0, sl, lsr r7

00002b60 <l2516>:
    2b60:	e59f9000 	ldr	r9, [pc]	; 2b68 <l2518>

00002b64 <l2517>:
    2b64:	ea000000 	b	2b6c <l2519>

00002b68 <l2518>:
    2b68:	000fffa8 	.word	0x000fffa8

00002b6c <l2519>:
    2b6c:	e1093093 	swp	r3, r3, [r9]

00002b70 <l2520>:
    2b70:	e3a09027 	mov	r9, #39	; 0x27

00002b74 <l2521>:
    2b74:	e74d2009 	strb	r2, [sp, -r9]

00002b78 <l2522>:
    2b78:	e2b58f93 	adcs	r8, r5, #588	; 0x24c

00002b7c <l2523>:
    2b7c:	e8ad1004 	stmia	sp!, {r2, ip}

00002b80 <l2524>:
    2b80:	01f00004 	mvnseq	r0, r4

00002b84 <l2525>:
    2b84:	109c3002 	addsne	r3, ip, r2

00002b88 <l2526>:
    2b88:	e59fe000 	ldr	lr, [pc]	; 2b90 <l2528>

00002b8c <l2527>:
    2b8c:	ea000000 	b	2b94 <l2529>

00002b90 <l2528>:
    2b90:	000fffc8 	.word	0x000fffc8

00002b94 <l2529>:
    2b94:	310e0090 	swpcc	r0, r0, [lr]

00002b98 <l2530>:
    2b98:	ef9082b7 	svc	0x009082b7

00002b9c <l2531>:
    2b9c:	515d50b6 	ldrhpl	r5, [sp, #-6]

00002ba0 <l2532>:
    2ba0:	016fef16 	clzeq	lr, r6

00002ba4 <l2533>:
    2ba4:	f9d99625 	.word	0xf9d99625

00002ba8 <l2534>:
    2ba8:	f6655a1a 	.word	0xf6655a1a

00002bac <l2535>:
    2bac:	efafb44a 	svc	0x00afb44a

00002bb0 <l2536>:
    2bb0:	ea000005 	b	2bcc <l2543>

00002bb4 <l2537>:
    2bb4:	e28010c5 	add	r1, r0, #197	; 0xc5

00002bb8 <l2538>:
    2bb8:	e316020d 	tst	r6, #-805306368	; 0xd0000000

00002bbc <l2539>:
    2bbc:	e08f206a 	add	r2, pc, sl, rrx

00002bc0 <l2540>:
    2bc0:	c0334f01 	eorsgt	r4, r3, r1, lsl #30

00002bc4 <l2541>:
    2bc4:	20ce9c04 	sbccs	r9, lr, r4, lsl #24

00002bc8 <l2542>:
    2bc8:	ea000000 	b	2bd0 <l2544>

00002bcc <l2543>:
    2bcc:	eafffff9 	b	2bb8 <l2538>

00002bd0 <l2544>:
    2bd0:	eff95162 	svc	0x00f95162

00002bd4 <l2545>:
    2bd4:	e66f9fd9 	.word	0xe66f9fd9

00002bd8 <interrupt_998>:
    2bd8:	e3110bea 	tst	r1, #239616	; 0x3a800

00002bdc <l2547>:
    2bdc:	e82dc1e1 	stmda	sp!, {r0, r5, r6, r7, r8, lr, pc}

00002be0 <interrupt_60>:
    2be0:	e3a01021 	mov	r1, #33	; 0x21

00002be4 <l2549>:
    2be4:	17ddb001 	ldrbne	fp, [sp, r1]

00002be8 <l2550>:
    2be8:	51a0a00e 	movpl	sl, lr

00002bec <l2551>:
    2bec:	204f800a 	subcs	r8, pc, sl

00002bf0 <l2552>:
    2bf0:	31e0453b 	mvncc	r4, fp, lsr r5

00002bf4 <l2553>:
    2bf4:	90218009 	eorls	r8, r1, r9

00002bf8 <l2554>:
    2bf8:	e5dde00b 	ldrb	lr, [sp, #11]

00002bfc <l2555>:
    2bfc:	e1a00000 	nop			; (mov r0, r0)

00002c00 <l2556>:
    2c00:	e41d7014 	ldr	r7, [sp], #-20

00002c04 <l2557>:
    2c04:	e3a07e95 	mov	r7, #2384	; 0x950

00002c08 <l2558>:
    2c08:	e3a0b022 	mov	fp, #34	; 0x22

00002c0c <interrupt_159>:
    2c0c:	e7cde00b 	strb	lr, [sp, fp]

00002c10 <l2560>:
    2c10:	ea000002 	b	2c20 <l2564>

00002c14 <l2561>:
    2c14:	71870003 	orrvc	r0, r7, r3

00002c18 <l2562>:
    2c18:	003c5002 	eorseq	r5, ip, r2

00002c1c <l2563>:
    2c1c:	93c48c2d 	bicls	r8, r4, #11520	; 0x2d00

00002c20 <l2564>:
    2c20:	b2475f6b 	sublt	r5, r7, #428	; 0x1ac

00002c24 <l2565>:
    2c24:	e3a0b007 	mov	fp, #7

00002c28 <l2566>:
    2c28:	e74d000b 	strb	r0, [sp, -fp]

00002c2c <interrupt_756>:
    2c2c:	81dd33da 	ldrsbhi	r3, [sp, #58]	; 0x3a

00002c30 <interrupt_172>:
    2c30:	e3a06038 	mov	r6, #56	; 0x38

00002c34 <l2569>:
    2c34:	e19d20b6 	ldrh	r2, [sp, r6]

00002c38 <l2570>:
    2c38:	e1130005 	tst	r3, r5

00002c3c <interrupt_882>:
    2c3c:	e3a01032 	mov	r1, #50	; 0x32

00002c40 <l2572>:
    2c40:	219d80b1 	ldrhcs	r8, [sp, r1]

00002c44 <l2573>:
    2c44:	e1140007 	tst	r4, r7

00002c48 <l2574>:
    2c48:	03b0b5b3 	movseq	fp, #750780416	; 0x2cc00000

00002c4c <interrupt_575>:
    2c4c:	e3a08016 	mov	r8, #22

00002c50 <l2576>:
    2c50:	d19d60f8 	ldrshle	r6, [sp, r8]

00002c54 <l2577>:
    2c54:	e59fc000 	ldr	ip, [pc]	; 2c5c <l2579>

00002c58 <l2578>:
    2c58:	ea000000 	b	2c60 <l2580>

00002c5c <l2579>:
    2c5c:	000fffc0 	.word	0x000fffc0

00002c60 <l2580>:
    2c60:	814c0093 	swpbhi	r0, r3, [ip]

00002c64 <l2581>:
    2c64:	e39e380d 	orrs	r3, lr, #851968	; 0xd0000

00002c68 <interrupt_380>:
    2c68:	81dd71b0 	ldrhhi	r7, [sp, #16]

00002c6c <l2583>:
    2c6c:	21580936 	cmpcs	r8, r6, lsr r9

00002c70 <l2584>:
    2c70:	ef6585a0 	svc	0x006585a0

00002c74 <l2585>:
    2c74:	10d3aae2 	sbcsne	sl, r3, r2, ror #21

00002c78 <l2586>:
    2c78:	e3a04008 	mov	r4, #8

00002c7c <l2587>:
    2c7c:	411d20f4 	ldrshmi	r2, [sp, -r4]

00002c80 <l2588>:
    2c80:	e59f7000 	ldr	r7, [pc]	; 2c88 <interrupt_118>

00002c84 <l2589>:
    2c84:	ea000000 	b	2c8c <l2591>

00002c88 <interrupt_118>:
    2c88:	000fffe0 	.word	0x000fffe0

00002c8c <l2591>:
    2c8c:	91473092 	swpbls	r3, r2, [r7]

00002c90 <l2592>:
    2c90:	e3f03c16 	mvns	r3, #5632	; 0x1600

00002c94 <l2593>:
    2c94:	d019a003 	andsle	sl, r9, r3

00002c98 <l2594>:
    2c98:	ea000006 	b	2cb8 <l2602>

00002c9c <l2595>:
    2c9c:	e28010eb 	add	r1, r0, #235	; 0xeb

00002ca0 <l2596>:
    2ca0:	e0735546 	rsbs	r5, r3, r6, asr #10

00002ca4 <interrupt_942>:
    2ca4:	42c48a75 	sbcmi	r8, r4, #479232	; 0x75000

00002ca8 <l2598>:
    2ca8:	e3e0c79a 	mvn	ip, #40370176	; 0x2680000

00002cac <l2599>:
    2cac:	10726000 	rsbsne	r6, r2, r0

00002cb0 <l2600>:
    2cb0:	c0516069 	subsgt	r6, r1, r9, rrx

00002cb4 <interrupt_992>:
    2cb4:	ea000000 	b	2cbc <l2603>

00002cb8 <l2602>:
    2cb8:	eafffff8 	b	2ca0 <l2596>

00002cbc <l2603>:
    2cbc:	e59fe000 	ldr	lr, [pc]	; 2cc4 <l2605>

00002cc0 <interrupt_827>:
    2cc0:	ea000000 	b	2cc8 <interrupt_825>

00002cc4 <l2605>:
    2cc4:	000fffe8 	.word	0x000fffe8

00002cc8 <interrupt_825>:
    2cc8:	d10e2090 	swple	r2, r0, [lr]

00002ccc <l2607>:
    2ccc:	e02ce936 	eor	lr, ip, r6, lsr r9

00002cd0 <l2608>:
    2cd0:	51110006 	tstpl	r1, r6

00002cd4 <l2609>:
    2cd4:	ffb6ab63 	.word	0xffb6ab63

00002cd8 <interrupt_2>:
    2cd8:	809aef4c 	addshi	lr, sl, ip, asr #30

00002cdc <l2611>:
    2cdc:	e3a0e00c 	mov	lr, #12

00002ce0 <l2612>:
    2ce0:	e7bd600e 	ldr	r6, [sp, lr]!

00002ce4 <interrupt_431>:
    2ce4:	00729000 	rsbseq	r9, r2, r0

00002ce8 <l2614>:
    2ce8:	10277002 	eorne	r7, r7, r2

00002cec <interrupt_941>:
    2cec:	d2a21d85 	adcle	r1, r2, #8512	; 0x2140

00002cf0 <l2616>:
    2cf0:	e1dde1bc 	ldrh	lr, [sp, #28]

00002cf4 <l2617>:
    2cf4:	e13a006a 	teq	sl, sl, rrx

00002cf8 <l2618>:
    2cf8:	713c0008 	teqvc	ip, r8

00002cfc <interrupt_853>:
    2cfc:	22244c4d 	eorcs	r4, r4, #19712	; 0x4d00

00002d00 <l2620>:
    2d00:	e3a08012 	mov	r8, #18

00002d04 <l2621>:
    2d04:	e19db0b8 	ldrh	fp, [sp, r8]

00002d08 <l2622>:
    2d08:	ef62d86f 	svc	0x0062d86f

00002d0c <l2623>:
    2d0c:	30af1260 	adccc	r1, pc, r0, ror #4

00002d10 <l2624>:
    2d10:	63390b7b 	teqvs	r9, #125952	; 0x1ec00

00002d14 <l2625>:
    2d14:	615a0000 	cmpvs	sl, r0

00002d18 <l2626>:
    2d18:	01750bc1 	cmneq	r5, r1, asr #23

00002d1c <l2627>:
    2d1c:	efbf9ece 	svc	0x00bf9ece

00002d20 <l2628>:
    2d20:	51ce742a 	bicpl	r7, lr, sl, lsr #8

00002d24 <interrupt_896>:
    2d24:	e3a0c016 	mov	ip, #22

00002d28 <interrupt_219>:
    2d28:	c19d10fc 	ldrshgt	r1, [sp, ip]

00002d2c <l2631>:
    2d2c:	016f0f1b 	clzeq	r0, fp

00002d30 <l2632>:
    2d30:	104a0005 	subne	r0, sl, r5

00002d34 <l2633>:
    2d34:	92a92462 	adcls	r2, r9, #1644167168	; 0x62000000

00002d38 <l2634>:
    2d38:	b003b067 	andlt	fp, r3, r7, rrx

00002d3c <l2635>:
    2d3c:	e59f1000 	ldr	r1, [pc]	; 2d44 <l2637>

00002d40 <interrupt_574>:
    2d40:	ea000000 	b	2d48 <l2638>

00002d44 <l2637>:
    2d44:	000fffb4 	.word	0x000fffb4

00002d48 <l2638>:
    2d48:	0141a098 	swpbeq	sl, r8, [r1]

00002d4c <interrupt_355>:
    2d4c:	e15e0901 	cmp	lr, r1, lsl #18

00002d50 <l2640>:
    2d50:	e2757b23 	rsbs	r7, r5, #35840	; 0x8c00

00002d54 <interrupt_670>:
    2d54:	617c0001 	cmnvs	ip, r1

00002d58 <interrupt_399>:
    2d58:	e59f7000 	ldr	r7, [pc]	; 2d60 <l2644>

00002d5c <l2643>:
    2d5c:	ea000000 	b	2d64 <l2645>

00002d60 <l2644>:
    2d60:	000fffc8 	.word	0x000fffc8

00002d64 <l2645>:
    2d64:	51470092 	swpbpl	r0, r2, [r7]

00002d68 <l2646>:
    2d68:	41360241 	teqmi	r6, r1, asr #4

00002d6c <l2647>:
    2d6c:	ff064091 	.word	0xff064091

00002d70 <interrupt_540>:
    2d70:	e3a00014 	mov	r0, #20

00002d74 <l2649>:
    2d74:	619d80f0 	ldrshvs	r8, [sp, r0]

00002d78 <l2650>:
    2d78:	e04ae2a5 	sub	lr, sl, r5, lsr #5

00002d7c <l2651>:
    2d7c:	e59fb000 	ldr	fp, [pc]	; 2d84 <interrupt_204>

00002d80 <l2652>:
    2d80:	ea000000 	b	2d88 <l2654>

00002d84 <interrupt_204>:
    2d84:	000fffe0 	.word	0x000fffe0

00002d88 <l2654>:
    2d88:	b10b6091 	swplt	r6, r1, [fp]

00002d8c <l2655>:
    2d8c:	e3a01001 	mov	r1, #1

00002d90 <l2656>:
    2d90:	c74db001 	strbgt	fp, [sp, -r1]

00002d94 <l2657>:
    2d94:	eaffffff 	b	2d98 <l2658>

00002d98 <l2658>:
    2d98:	e3390602 	teq	r9, #2097152	; 0x200000

00002d9c <l2659>:
    2d9c:	71dd81fe 	ldrshvc	r8, [sp, #30]

00002da0 <l2660>:
    2da0:	a04b9002 	subge	r9, fp, r2

00002da4 <l2661>:
    2da4:	e3a0902a 	mov	r9, #42	; 0x2a

00002da8 <l2662>:
    2da8:	e19d20b9 	ldrh	r2, [sp, r9]

00002dac <l2663>:
    2dac:	ef1fb20b 	svc	0x001fb20b

00002db0 <l2664>:
    2db0:	62f60c99 	rscsvs	r0, r6, #39168	; 0x9900

00002db4 <l2665>:
    2db4:	805b0007 	subshi	r0, fp, r7

00002db8 <l2666>:
    2db8:	e3a06030 	mov	r6, #48	; 0x30

00002dbc <l2667>:
    2dbc:	e7bde006 	ldr	lr, [sp, r6]!

00002dc0 <l2668>:
    2dc0:	e13b0066 	teq	fp, r6, rrx

00002dc4 <l2669>:
    2dc4:	e019406a 	ands	r4, r9, sl, rrx

00002dc8 <l2670>:
    2dc8:	e3a0b043 	mov	fp, #67	; 0x43

00002dcc <l2671>:
    2dcc:	e75d400b 	ldrb	r4, [sp, -fp]

00002dd0 <interrupt_971>:
    2dd0:	da000007 	ble	2df4 <interrupt_95>

00002dd4 <l2673>:
    2dd4:	61550003 	cmpvs	r5, r3

00002dd8 <interrupt_192>:
    2dd8:	62c55927 	sbcvs	r5, r5, #638976	; 0x9c000

00002ddc <l2675>:
    2ddc:	e1a0700c 	mov	r7, ip

00002de0 <l2676>:
    2de0:	a041c53b 	subge	ip, r1, fp, lsr r5

00002de4 <interrupt_82>:
    2de4:	607c723e 	rsbsvs	r7, ip, lr, lsr r2

00002de8 <interrupt_322>:
    2de8:	e06ee002 	rsb	lr, lr, r2

00002dec <l2679>:
    2dec:	0155074a 	cmpeq	r5, sl, asr #14

00002df0 <l2680>:
    2df0:	d11c0006 	tstle	ip, r6

00002df4 <interrupt_95>:
    2df4:	60801217 	addvs	r1, r0, r7, lsl r2

00002df8 <interrupt_848>:
    2df8:	30f1b730 	rscscc	fp, r1, r0, lsr r7

00002dfc <interrupt_455>:
    2dfc:	e8ad2000 	stmia	sp!, {sp}

00002e00 <l2684>:
    2e00:	e16f5f17 	clz	r5, r7

00002e04 <l2685>:
    2e04:	e3a03026 	mov	r3, #38	; 0x26

00002e08 <l2686>:
    2e08:	c11d90f3 	ldrshgt	r9, [sp, -r3]

00002e0c <l2687>:
    2e0c:	e3f03635 	mvns	r3, #55574528	; 0x3500000

00002e10 <interrupt_580>:
    2e10:	e049513c 	sub	r5, r9, ip, lsr r1

00002e14 <l2689>:
    2e14:	e81d5fbf 	ldmda	sp, {r0, r1, r2, r3, r4, r5, r7, r8, r9, sl, fp, ip, lr}

00002e18 <l2690>:
    2e18:	d80debf6 	stmdale	sp, {r1, r2, r4, r5, r6, r7, r8, r9, fp, sp, lr, pc}

00002e1c <interrupt_820>:
    2e1c:	e238e007 	eors	lr, r8, #7

00002e20 <l2692>:
    2e20:	e3a00038 	mov	r0, #56	; 0x38

00002e24 <l2693>:
    2e24:	d71de000 	ldrle	lr, [sp, -r0]

00002e28 <l2694>:
    2e28:	e3a04046 	mov	r4, #70	; 0x46

00002e2c <l2695>:
    2e2c:	c11d60f4 	ldrshgt	r6, [sp, -r4]

00002e30 <interrupt_800>:
    2e30:	e1a00000 	nop			; (mov r0, r0)

00002e34 <l2697>:
    2e34:	e3b01991 	movs	r1, #2375680	; 0x244000

00002e38 <l2698>:
    2e38:	d70a3117 	.word	0xd70a3117

00002e3c <l2699>:
    2e3c:	e199acca 	orrs	sl, r9, sl, asr #25

00002e40 <interrupt_553>:
    2e40:	e20482d9 	and	r8, r4, #-1879048179	; 0x9000000d

00002e44 <interrupt_379>:
    2e44:	ca000005 	bgt	2e60 <l2708>

00002e48 <l2702>:
    2e48:	00723b50 	rsbseq	r3, r2, r0, asr fp

00002e4c <l2703>:
    2e4c:	e0195754 	ands	r5, r9, r4, asr r7

00002e50 <interrupt_823>:
    2e50:	e221067b 	eor	r0, r1, #128974848	; 0x7b00000

00002e54 <l2705>:
    2e54:	c1720005 	cmngt	r2, r5

00002e58 <l2706>:
    2e58:	61f0be77 	mvnsvs	fp, r7, ror lr

00002e5c <l2707>:
    2e5c:	e2781ec1 	rsbs	r1, r8, #3088	; 0xc10

00002e60 <l2708>:
    2e60:	e039824f 	eors	r8, r9, pc, asr #4

00002e64 <l2709>:
    2e64:	e13106ea 	teq	r1, sl, ror #13

00002e68 <l2710>:
    2e68:	e2d82b2e 	sbcs	r2, r8, #47104	; 0xb800

00002e6c <l2711>:
    2e6c:	e0cac524 	sbc	ip, sl, r4, lsr #10

00002e70 <l2712>:
    2e70:	e249320e 	sub	r3, r9, #-536870912	; 0xe0000000

00002e74 <l2713>:
    2e74:	906aba11 	rsbls	fp, sl, r1, lsl sl

00002e78 <l2714>:
    2e78:	115dc1d6 	ldrsbne	ip, [sp, #-22]	; 0xffffffea

00002e7c <interrupt_703>:
    2e7c:	a1f03a8f 	mvnsge	r3, pc, lsl #21

00002e80 <l2716>:
    2e80:	f88bf0e0 	.word	0xf88bf0e0

00002e84 <interrupt_430>:
    2e84:	e1f0b6cb 	mvns	fp, fp, asr #13

00002e88 <l2718>:
    2e88:	e3a06042 	mov	r6, #66	; 0x42

00002e8c <interrupt_220>:
    2e8c:	711d30f6 	ldrshvc	r3, [sp, -r6]

00002e90 <l2720>:
    2e90:	e015e951 	ands	lr, r5, r1, asr r9

00002e94 <l2721>:
    2e94:	50b282a0 	adcspl	r8, r2, r0, lsr #5

00002e98 <l2722>:
    2e98:	e0aab438 	adc	fp, sl, r8, lsr r4

00002e9c <l2723>:
    2e9c:	3a000006 	bcc	2ebc <l2731>

00002ea0 <l2724>:
    2ea0:	e28010f1 	add	r1, r0, #241	; 0xf1

00002ea4 <l2725>:
    2ea4:	e04a700e 	sub	r7, sl, lr

00002ea8 <l2726>:
    2ea8:	5192b001 	orrspl	fp, r2, r1

00002eac <l2727>:
    2eac:	e199a53b 	orrs	sl, r9, fp, lsr r5

00002eb0 <l2728>:
    2eb0:	c1835004 	orrgt	r5, r3, r4

00002eb4 <l2729>:
    2eb4:	7017aacc 	andsvc	sl, r7, ip, asr #21

00002eb8 <l2730>:
    2eb8:	ea000000 	b	2ec0 <l2732>

00002ebc <l2731>:
    2ebc:	eafffff8 	b	2ea4 <l2725>

00002ec0 <l2732>:
    2ec0:	a31c064e 	tstge	ip, #81788928	; 0x4e00000

00002ec4 <l2733>:
    2ec4:	a089106f 	addge	r1, r9, pc, rrx

00002ec8 <l2734>:
    2ec8:	41d46060 	bicsmi	r6, r4, r0, rrx

00002ecc <interrupt_885>:
    2ecc:	e54d803f 	strb	r8, [sp, #-63]	; 0x3f

00002ed0 <l2736>:
    2ed0:	e002b063 	and	fp, r2, r3, rrx

00002ed4 <l2737>:
    2ed4:	e92ddba3 	push	{r0, r1, r5, r7, r8, r9, fp, ip, lr, pc}

00002ed8 <l2738>:
    2ed8:	20913680 	addscs	r3, r1, r0, lsl #13

00002edc <l2739>:
    2edc:	e3a05cc6 	mov	r5, #50688	; 0xc600

00002ee0 <l2740>:
    2ee0:	63817163 	orrvs	r7, r1, #-1073741800	; 0xc0000018

00002ee4 <l2741>:
    2ee4:	e3a06012 	mov	r6, #18

00002ee8 <l2742>:
    2ee8:	c10d80b6 	strhgt	r8, [sp, -r6]

00002eec <l2743>:
    2eec:	f82c8ce7 	.word	0xf82c8ce7

00002ef0 <l2744>:
    2ef0:	e92d0204 	push	{r2, r9}

00002ef4 <interrupt_914>:
    2ef4:	e3a0500d 	mov	r5, #13

00002ef8 <l2746>:
    2ef8:	e74da005 	strb	sl, [sp, -r5]

00002efc <l2747>:
    2efc:	21370000 	teqcs	r7, r0

00002f00 <interrupt_117>:
    2f00:	e042b877 	sub	fp, r2, r7, ror r8

00002f04 <interrupt_335>:
    2f04:	a1f09009 	mvnsge	r9, r9

00002f08 <interrupt_727>:
    2f08:	8027900c 	eorhi	r9, r7, ip

00002f0c <l2751>:
    2f0c:	e3a0800e 	mov	r8, #14

00002f10 <l2752>:
    2f10:	b11de0d8 	ldrsblt	lr, [sp, -r8]

00002f14 <interrupt_790>:
    2f14:	e3a0100a 	mov	r1, #10

00002f18 <l2754>:
    2f18:	d19d70b1 	ldrhle	r7, [sp, r1]

00002f1c <l2755>:
    2f1c:	e59f8000 	ldr	r8, [pc]	; 2f24 <l2757>

00002f20 <l2756>:
    2f20:	ea000000 	b	2f28 <l2758>

00002f24 <l2757>:
    2f24:	000fffac 	.word	0x000fffac

00002f28 <l2758>:
    2f28:	8108709b 	swphi	r7, fp, [r8]

00002f2c <l2759>:
    2f2c:	881d0030 	ldmdahi	sp, {r4, r5}

00002f30 <interrupt_9>:
    2f30:	e14d41b6 	strh	r4, [sp, #-22]	; 0xffffffea

00002f34 <l2761>:
    2f34:	e3a0b022 	mov	fp, #34	; 0x22

00002f38 <l2762>:
    2f38:	c18d50bb 	strhgt	r5, [sp, fp]

00002f3c <l2763>:
    2f3c:	e59fa000 	ldr	sl, [pc]	; 2f44 <l2765>

00002f40 <l2764>:
    2f40:	ea000000 	b	2f48 <l2766>

00002f44 <l2765>:
    2f44:	000fffc8 	.word	0x000fffc8

00002f48 <l2766>:
    2f48:	e10ac096 	swp	ip, r6, [sl]

00002f4c <l2767>:
    2f4c:	e0e31063 	rsc	r1, r3, r3, rrx

00002f50 <l2768>:
    2f50:	ef9e2422 	svc	0x009e2422

00002f54 <l2769>:
    2f54:	e1300d46 	teq	r0, r6, asr #26

00002f58 <l2770>:
    2f58:	e3a0501c 	mov	r5, #28

00002f5c <interrupt_476>:
    2f5c:	e68d8005 	str	r8, [sp], r5

00002f60 <l2772>:
    2f60:	e93d513c 	ldmdb	sp!, {r2, r3, r4, r5, r8, ip, lr}

00002f64 <interrupt_270>:
    2f64:	e3a08004 	mov	r8, #4

00002f68 <interrupt_995>:
    2f68:	e7bd7008 	ldr	r7, [sp, r8]!

00002f6c <l2775>:
    2f6c:	e1340003 	teq	r4, r3

00002f70 <l2776>:
    2f70:	85dd5016 	ldrbhi	r5, [sp, #22]

00002f74 <l2777>:
    2f74:	e1dd40d8 	ldrsb	r4, [sp, #8]

00002f78 <l2778>:
    2f78:	e59f6000 	ldr	r6, [pc]	; 2f80 <interrupt_647>

00002f7c <l2779>:
    2f7c:	ea000000 	b	2f84 <l2781>

00002f80 <interrupt_647>:
    2f80:	000fffb8 	.word	0x000fffb8

00002f84 <l2781>:
    2f84:	21067097 	swpcs	r7, r7, [r6]

00002f88 <l2782>:
    2f88:	e16fef1a 	clz	lr, sl

00002f8c <l2783>:
    2f8c:	711c035c 	tstvc	ip, ip, asr r3

00002f90 <interrupt_239>:
    2f90:	12a4a539 	adcne	sl, r4, #239075328	; 0xe400000

00002f94 <interrupt_855>:
    2f94:	e0136914 	ands	r6, r3, r4, lsl r9

00002f98 <interrupt_85>:
    2f98:	e3770032 	cmn	r7, #50	; 0x32

00002f9c <l2787>:
    2f9c:	90ec1003 	rscls	r1, ip, r3

00002fa0 <l2788>:
    2fa0:	e0999009 	adds	r9, r9, r9

00002fa4 <l2789>:
    2fa4:	e3130033 	tst	r3, #51	; 0x33

00002fa8 <l2790>:
    2fa8:	ff64e829 	.word	0xff64e829

00002fac <l2791>:
    2fac:	90a21742 	adcls	r1, r2, r2, asr #14

00002fb0 <l2792>:
    2fb0:	e15d60b6 	ldrh	r6, [sp, #-6]

00002fb4 <l2793>:
    2fb4:	e0ec1006 	rsc	r1, ip, r6

00002fb8 <l2794>:
    2fb8:	e3a0502c 	mov	r5, #44	; 0x2c

00002fbc <l2795>:
    2fbc:	279db005 	ldrcs	fp, [sp, r5]

00002fc0 <l2796>:
    2fc0:	d02ee004 	eorle	lr, lr, r4

00002fc4 <l2797>:
    2fc4:	8066600e 	rsbhi	r6, r6, lr

00002fc8 <l2798>:
    2fc8:	e19b100e 	orrs	r1, fp, lr

00002fcc <l2799>:
    2fcc:	3156031e 	cmpcc	r6, lr, lsl r3

00002fd0 <interrupt_815>:
    2fd0:	61dd11d9 	ldrsbvs	r1, [sp, #25]

00002fd4 <interrupt_484>:
    2fd4:	e5cd301e 	strb	r3, [sp, #30]

00002fd8 <l2802>:
    2fd8:	e3a05016 	mov	r5, #22

00002fdc <l2803>:
    2fdc:	e10d00b5 	strh	r0, [sp, -r5]

00002fe0 <l2804>:
    2fe0:	016fef1a 	clzeq	lr, sl

00002fe4 <l2805>:
    2fe4:	ef6a1e6d 	svc	0x006a1e6d

00002fe8 <interrupt_794>:
    2fe8:	280d9804 	stmdacs	sp, {r2, fp, ip, pc}

00002fec <interrupt_902>:
    2fec:	e14de0b2 	strh	lr, [sp, #-2]

00002ff0 <interrupt_691>:
    2ff0:	e3886fe3 	orr	r6, r8, #908	; 0x38c

00002ff4 <l2809>:
    2ff4:	a1b01255 	asrsge	r1, r5, r2

00002ff8 <l2810>:
    2ff8:	e3a05010 	mov	r5, #16

00002ffc <l2811>:
    2ffc:	111d30f5 	ldrshne	r3, [sp, -r5]

00003000 <l2812>:
    3000:	e1730576 	cmn	r3, r6, ror r5

00003004 <l2813>:
    3004:	e3360ba1 	teq	r6, #164864	; 0x28400

00003008 <l2814>:
    3008:	e29e65a1 	adds	r6, lr, #675282944	; 0x28400000

0000300c <l2815>:
    300c:	d060c00e 	rsble	ip, r0, lr

00003010 <interrupt_851>:
    3010:	754d800b 	strbvc	r8, [sp, #-11]

00003014 <l2817>:
    3014:	811501e9 	tsthi	r5, r9, ror #3

00003018 <l2818>:
    3018:	effe843f 	svc	0x00fe843f

0000301c <interrupt_938>:
    301c:	b03e8003 	eorslt	r8, lr, r3

00003020 <l2820>:
    3020:	e3510b2b 	cmp	r1, #44032	; 0xac00

00003024 <l2821>:
    3024:	e49d7024 	ldr	r7, [sp], #36	; 0x24

00003028 <l2822>:
    3028:	e3a0a00c 	mov	sl, #12

0000302c <l2823>:
    302c:	811da0fa 	ldrshhi	sl, [sp, -sl]

00003030 <interrupt_242>:
    3030:	e0627063 	rsb	r7, r2, r3, rrx

00003034 <l2825>:
    3034:	9112007a 	tstls	r2, sl, ror r0

00003038 <interrupt_779>:
    3038:	015f0cc7 	cmpeq	pc, r7, asr #25

0000303c <l2827>:
    303c:	e3a04009 	mov	r4, #9

00003040 <l2828>:
    3040:	e75d6004 	ldrb	r6, [sp, -r4]

00003044 <l2829>:
    3044:	a1a0a008 	movge	sl, r8

00003048 <l2830>:
    3048:	11100061 	tstne	r0, r1, rrx

0000304c <l2831>:
    304c:	815d83b8 	ldrhhi	r8, [sp, #-56]	; 0xffffffc8

00003050 <l2832>:
    3050:	e058400b 	subs	r4, r8, fp

00003054 <l2833>:
    3054:	aa000001 	bge	3060 <l2836>

00003058 <interrupt_176>:
    3058:	a11f0001 	tstge	pc, r1

0000305c <l2835>:
    305c:	e1780e1b 	cmn	r8, fp, lsl lr

00003060 <l2836>:
    3060:	62c51e3b 	sbcvs	r1, r5, #944	; 0x3b0

00003064 <l2837>:
    3064:	e3a0c028 	mov	ip, #40	; 0x28

00003068 <interrupt_584>:
    3068:	e72dc00c 	str	ip, [sp, -ip]!

0000306c <l2839>:
    306c:	efd07e25 	svc	0x00d07e25

00003070 <l2840>:
    3070:	e59f1000 	ldr	r1, [pc]	; 3078 <l2842>

00003074 <l2841>:
    3074:	ea000000 	b	307c <l2843>

00003078 <l2842>:
    3078:	000fffe8 	.word	0x000fffe8

0000307c <l2843>:
    307c:	e101e098 	swp	lr, r8, [r1]

00003080 <l2844>:
    3080:	00c56f60 	sbceq	r6, r5, r0, ror #30

00003084 <interrupt_16>:
    3084:	1118000e 	tstne	r8, lr

00003088 <l2846>:
    3088:	3191a005 	orrscc	sl, r1, r5

0000308c <l2847>:
    308c:	c0979001 	addsgt	r9, r7, r1

00003090 <l2848>:
    3090:	e3a07022 	mov	r7, #34	; 0x22

00003094 <l2849>:
    3094:	e19d90b7 	ldrh	r9, [sp, r7]

00003098 <l2850>:
    3098:	01510b73 	cmpeq	r1, r3, ror fp

0000309c <l2851>:
    309c:	e80d8000 	stmda	sp, {pc}

000030a0 <interrupt_474>:
    30a0:	81cd20b4 	strhhi	r2, [sp, #4]

000030a4 <l2853>:
    30a4:	d13b0c2c 	teqle	fp, ip, lsr #24

000030a8 <interrupt_44>:
    30a8:	e1dd51d8 	ldrsb	r5, [sp, #24]

000030ac <l2855>:
    30ac:	e0698b12 	rsb	r8, r9, r2, lsl fp

000030b0 <l2856>:
    30b0:	30507e11 	subscc	r7, r0, r1, lsl lr

000030b4 <l2857>:
    30b4:	2180b8ee 	orrcs	fp, r0, lr, ror #17

000030b8 <l2858>:
    30b8:	e59f2000 	ldr	r2, [pc]	; 30c0 <l2860>

000030bc <l2859>:
    30bc:	ea000000 	b	30c4 <l2861>

000030c0 <l2860>:
    30c0:	000fffa0 	.word	0x000fffa0

000030c4 <l2861>:
    30c4:	e1428096 	swpb	r8, r6, [r2]

000030c8 <l2862>:
    30c8:	e21a9717 	ands	r9, sl, #6029312	; 0x5c0000

000030cc <l2863>:
    30cc:	e043b706 	sub	fp, r3, r6, lsl #14

000030d0 <interrupt_190>:
    30d0:	e1700a31 	cmn	r0, r1, lsr sl

000030d4 <l2865>:
    30d4:	9a000002 	bls	30e4 <l2869>

000030d8 <l2866>:
    30d8:	e280100e 	add	r1, r0, #14

000030dc <l2867>:
    30dc:	e0a2c442 	adc	ip, r2, r2, asr #8

000030e0 <l2868>:
    30e0:	ea000000 	b	30e8 <l2870>

000030e4 <l2869>:
    30e4:	eafffffc 	b	30dc <l2867>

000030e8 <l2870>:
    30e8:	e0bc0374 	adcs	r0, ip, r4, ror r3

000030ec <l2871>:
    30ec:	e3a04004 	mov	r4, #4

000030f0 <l2872>:
    30f0:	d70d2004 	strle	r2, [sp, -r4]

000030f4 <l2873>:
    30f4:	e59fc000 	ldr	ip, [pc]	; 30fc <l2875>

000030f8 <l2874>:
    30f8:	ea000000 	b	3100 <l2876>

000030fc <l2875>:
    30fc:	000fffd8 	.word	0x000fffd8

00003100 <l2876>:
    3100:	710ce093 	swpvc	lr, r3, [ip]

00003104 <interrupt_948>:
    3104:	e0ea6007 	rsc	r6, sl, r7

00003108 <l2878>:
    3108:	e5cd4003 	strb	r4, [sp, #3]

0000310c <l2879>:
    310c:	e15d61b4 	ldrh	r6, [sp, #-20]	; 0xffffffec

00003110 <interrupt_456>:
    3110:	e3130a03 	tst	r3, #12288	; 0x3000

00003114 <interrupt_899>:
    3114:	75cdc02e 	strbvc	ip, [sp, #46]	; 0x2e

00003118 <interrupt_674>:
    3118:	d30d1a4e 	.word	0xd30d1a4e

0000311c <l2883>:
    311c:	e59f3000 	ldr	r3, [pc]	; 3124 <interrupt_616>

00003120 <l2884>:
    3120:	ea000000 	b	3128 <l2886>

00003124 <interrupt_616>:
    3124:	000fffd0 	.word	0x000fffd0

00003128 <l2886>:
    3128:	6103c09c 	swpvs	ip, ip, [r3]

0000312c <l2887>:
    312c:	d15d61b4 	ldrhle	r6, [sp, #-20]	; 0xffffffec

00003130 <l2888>:
    3130:	e0989062 	adds	r9, r8, r2, rrx

00003134 <l2889>:
    3134:	c1d4b005 	bicsgt	fp, r4, r5

00003138 <l2890>:
    3138:	c2442605 	subgt	r2, r4, #5242880	; 0x500000

0000313c <l2891>:
    313c:	e1750002 	cmn	r5, r2

00003140 <l2892>:
    3140:	2009700c 	andcs	r7, r9, ip

00003144 <interrupt_317>:
    3144:	e3a02010 	mov	r2, #16

00003148 <interrupt_993>:
    3148:	e73d7002 	ldr	r7, [sp, -r2]!

0000314c <l2895>:
    314c:	4059200b 	subsmi	r2, r9, fp

00003150 <interrupt_862>:
    3150:	e3a04005 	mov	r4, #5

00003154 <l2897>:
    3154:	e7dd7004 	ldrb	r7, [sp, r4]

00003158 <l2898>:
    3158:	e191a00b 	orrs	sl, r1, fp

0000315c <l2899>:
    315c:	11f07a50 	mvnsne	r7, r0, asr sl

00003160 <l2900>:
    3160:	42841ba6 	addmi	r1, r4, #169984	; 0x29800

00003164 <l2901>:
    3164:	e59f5000 	ldr	r5, [pc]	; 316c <l2903>

00003168 <l2902>:
    3168:	ea000000 	b	3170 <l2904>

0000316c <l2903>:
    316c:	000fffc0 	.word	0x000fffc0

00003170 <l2904>:
    3170:	71454094 	swpbvc	r4, r4, [r5]

00003174 <l2905>:
    3174:	205c4a79 	subscs	r4, ip, r9, ror sl

00003178 <interrupt_282>:
    3178:	e1cd10b4 	strh	r1, [sp, #4]

0000317c <interrupt_390>:
    317c:	211c000e 	tstcs	ip, lr

00003180 <l2908>:
    3180:	916f4f12 	clzls	r4, r2

00003184 <l2909>:
    3184:	e59fc000 	ldr	ip, [pc]	; 318c <l2911>

00003188 <l2910>:
    3188:	ea000000 	b	3190 <l2912>

0000318c <l2911>:
    318c:	000fffe8 	.word	0x000fffe8

00003190 <l2912>:
    3190:	a14c1098 	swpbge	r1, r8, [ip]

00003194 <interrupt_366>:
    3194:	e59fc000 	ldr	ip, [pc]	; 319c <l2915>

00003198 <l2914>:
    3198:	ea000000 	b	31a0 <l2916>

0000319c <l2915>:
    319c:	000fffac 	.word	0x000fffac

000031a0 <l2916>:
    31a0:	610c8096 	swpvs	r8, r6, [ip]

000031a4 <l2917>:
    31a4:	e3a02038 	mov	r2, #56	; 0x38

000031a8 <interrupt_766>:
    31a8:	578d7002 	strpl	r7, [sp, r2]

000031ac <l2919>:
    31ac:	e1a00000 	nop			; (mov r0, r0)

000031b0 <l2920>:
    31b0:	23f0e519 	mvnscs	lr, #104857600	; 0x6400000

000031b4 <interrupt_110>:
    31b4:	ef54bcfa 	svc	0x0054bcfa

000031b8 <l2922>:
    31b8:	17a094d4 	.word	0x17a094d4

000031bc <l2923>:
    31bc:	e3a0b002 	mov	fp, #2

000031c0 <l2924>:
    31c0:	e11da0fb 	ldrsh	sl, [sp, -fp]

000031c4 <l2925>:
    31c4:	23a0a716 	movcs	sl, #5767168	; 0x580000

000031c8 <l2926>:
    31c8:	d5ddb02c 	ldrble	fp, [sp, #44]	; 0x2c

000031cc <l2927>:
    31cc:	e1370000 	teq	r7, r0

000031d0 <l2928>:
    31d0:	20a8c007 	adccs	ip, r8, r7

000031d4 <l2929>:
    31d4:	e37c03a9 	cmn	ip, #-1543503870	; 0xa4000002

000031d8 <l2930>:
    31d8:	51520835 	cmppl	r2, r5, lsr r8

000031dc <l2931>:
    31dc:	a012300e 	andsge	r3, r2, lr

000031e0 <l2932>:
    31e0:	e0ce8a5c 	sbc	r8, lr, ip, asr sl

000031e4 <l2933>:
    31e4:	e16f5f13 	clz	r5, r3

000031e8 <interrupt_109>:
    31e8:	e59f2000 	ldr	r2, [pc]	; 31f0 <l2936>

000031ec <l2935>:
    31ec:	ea000000 	b	31f4 <l2937>

000031f0 <l2936>:
    31f0:	000fffa8 	.word	0x000fffa8

000031f4 <l2937>:
    31f4:	61421098 	swpbvs	r1, r8, [r2]

000031f8 <interrupt_381>:
    31f8:	e3e012ed 	mvn	r1, #-805306354	; 0xd000000e

000031fc <interrupt_442>:
    31fc:	e3a02019 	mov	r2, #25

00003200 <l2940>:
    3200:	a19d10d2 	ldrsbge	r1, [sp, r2]

00003204 <l2941>:
    3204:	e59f8000 	ldr	r8, [pc]	; 320c <l2943>

00003208 <interrupt_603>:
    3208:	ea000000 	b	3210 <l2944>

0000320c <l2943>:
    320c:	000fffc8 	.word	0x000fffc8

00003210 <l2944>:
    3210:	e1081096 	swp	r1, r6, [r8]

00003214 <l2945>:
    3214:	e3a06020 	mov	r6, #32

00003218 <interrupt_926>:
    3218:	e7ddc006 	ldrb	ip, [sp, r6]

0000321c <interrupt_79>:
    321c:	01310ea9 	teqeq	r1, r9, lsr #29

00003220 <l2948>:
    3220:	e2506113 	subs	r6, r0, #-1073741820	; 0xc0000004

00003224 <l2949>:
    3224:	ea000007 	b	3248 <l2958>

00003228 <interrupt_883>:
    3228:	8153000b 	cmphi	r3, fp

0000322c <interrupt_506>:
    322c:	435c0e2b 	cmpmi	ip, #688	; 0x2b0

00003230 <l2952>:
    3230:	01b00008 	movseq	r0, r8

00003234 <l2953>:
    3234:	e13406e3 	teq	r4, r3, ror #13

00003238 <l2954>:
    3238:	50d3a06f 	sbcspl	sl, r3, pc, rrx

0000323c <l2955>:
    323c:	3021bc51 	eorcc	fp, r1, r1, asr ip

00003240 <l2956>:
    3240:	727e5b66 	rsbsvc	r5, lr, #104448	; 0x19800

00003244 <l2957>:
    3244:	70c91008 	sbcvc	r1, r9, r8

00003248 <l2958>:
    3248:	00366d20 	eorseq	r6, r6, r0, lsr #26

0000324c <l2959>:
    324c:	e38958e2 	orr	r5, r9, #14811136	; 0xe20000

00003250 <l2960>:
    3250:	e1dd83f2 	ldrsh	r8, [sp, #50]	; 0x32

00003254 <l2961>:
    3254:	e16f5f19 	clz	r5, r9

00003258 <l2962>:
    3258:	baffffff 	blt	325c <l2963>

0000325c <l2963>:
    325c:	419a3064 	orrsmi	r3, sl, r4, rrx

00003260 <l2964>:
    3260:	e59f5000 	ldr	r5, [pc]	; 3268 <l2966>

00003264 <l2965>:
    3264:	ea000000 	b	326c <l2967>

00003268 <l2966>:
    3268:	000fffcc 	.word	0x000fffcc

0000326c <l2967>:
    326c:	1105009b 	swpne	r0, fp, [r5]

00003270 <l2968>:
    3270:	ef99f9d6 	svc	0x0099f9d6

00003274 <l2969>:
    3274:	e1a00000 	nop			; (mov r0, r0)

00003278 <l2970>:
    3278:	e076081c 	rsbs	r0, r6, ip, lsl r8

0000327c <l2971>:
    327c:	e3a0902a 	mov	r9, #42	; 0x2a

00003280 <interrupt_605>:
    3280:	b18de0b9 	strhlt	lr, [sp, r9]

00003284 <l2973>:
    3284:	e3a08020 	mov	r8, #32

00003288 <l2974>:
    3288:	97dd6008 	ldrbls	r6, [sp, r8]

0000328c <l2975>:
    328c:	e3a00012 	mov	r0, #18

00003290 <l2976>:
    3290:	e7dd0000 	ldrb	r0, [sp, r0]

00003294 <l2977>:
    3294:	81d8b109 	bicshi	fp, r8, r9, lsl #2

00003298 <interrupt_450>:
    3298:	efda6d0e 	svc	0x00da6d0e

0000329c <l2979>:
    329c:	e3a0103e 	mov	r1, #62	; 0x3e

000032a0 <l2980>:
    32a0:	a19d40b1 	ldrhge	r4, [sp, r1]

000032a4 <l2981>:
    32a4:	c37803bd 	cmngt	r8, #-201326590	; 0xf4000002

000032a8 <l2982>:
    32a8:	10a859ea 	adcne	r5, r8, sl, ror #19

000032ac <l2983>:
    32ac:	e16f9f10 	clz	r9, r0

000032b0 <l2984>:
    32b0:	e59f7000 	ldr	r7, [pc]	; 32b8 <interrupt_517>

000032b4 <l2985>:
    32b4:	ea000000 	b	32bc <l2987>

000032b8 <interrupt_517>:
    32b8:	000fffc8 	.word	0x000fffc8

000032bc <l2987>:
    32bc:	a1475099 	swpbge	r5, r9, [r7]

000032c0 <l2988>:
    32c0:	e2ab0b79 	adc	r0, fp, #123904	; 0x1e400

000032c4 <l2989>:
    32c4:	8089a3c7 	addhi	sl, r9, r7, asr #7

000032c8 <l2990>:
    32c8:	f2771735 	.word	0xf2771735

000032cc <l2991>:
    32cc:	e3a0a00a 	mov	sl, #10

000032d0 <l2992>:
    32d0:	c19d20fa 	ldrshgt	r2, [sp, sl]

000032d4 <interrupt_166>:
    32d4:	f5a76e44 	.word	0xf5a76e44

000032d8 <l2994>:
    32d8:	f3447df9 	.word	0xf3447df9

000032dc <l2995>:
    32dc:	e59fe000 	ldr	lr, [pc]	; 32e4 <interrupt_237>

000032e0 <l2996>:
    32e0:	ea000000 	b	32e8 <l2998>

000032e4 <interrupt_237>:
    32e4:	000fffd0 	.word	0x000fffd0

000032e8 <l2998>:
    32e8:	510e5092 	swppl	r5, r2, [lr]

000032ec <l2999>:
    32ec:	d1dd33f2 	ldrshle	r3, [sp, #50]	; 0x32

000032f0 <interrupt_905>:
    32f0:	e3a0c03c 	mov	ip, #60	; 0x3c

000032f4 <l3001>:
    32f4:	e19d60fc 	ldrsh	r6, [sp, ip]

000032f8 <l3002>:
    32f8:	c3950cd7 	orrsgt	r0, r5, #55040	; 0xd700

000032fc <l3003>:
    32fc:	ef5eb808 	svc	0x005eb808

00003300 <l3004>:
    3300:	43958ac2 	orrsmi	r8, r5, #794624	; 0xc2000

00003304 <l3005>:
    3304:	b5dd9002 	ldrblt	r9, [sp, #2]

00003308 <l3006>:
    3308:	e153006b 	cmp	r3, fp, rrx

0000330c <interrupt_479>:
    330c:	e5bd8030 	ldr	r8, [sp, #48]!	; 0x30

00003310 <interrupt_467>:
    3310:	e0a15003 	adc	r5, r1, r3

00003314 <interrupt_330>:
    3314:	e3a0b018 	mov	fp, #24

00003318 <l3010>:
    3318:	b11d70bb 	ldrhlt	r7, [sp, -fp]

0000331c <l3011>:
    331c:	e3a0702c 	mov	r7, #44	; 0x2c

00003320 <l3012>:
    3320:	871de007 	ldrhi	lr, [sp, -r7]

00003324 <l3013>:
    3324:	da000008 	ble	334c <l3023>

00003328 <interrupt_730>:
    3328:	116f8f15 	clzne	r8, r5

0000332c <l3015>:
    332c:	c3cb540e 	bicgt	r5, fp, #234881024	; 0xe000000

00003330 <interrupt_45>:
    3330:	e1320009 	teq	r2, r9

00003334 <interrupt_519>:
    3334:	5067e00b 	rsbpl	lr, r7, fp

00003338 <interrupt_719>:
    3338:	303cbaa3 	eorscc	fp, ip, r3, lsr #21

0000333c <l3019>:
    333c:	e1ce5009 	bic	r5, lr, r9

00003340 <l3020>:
    3340:	61570ea4 	cmpvs	r7, r4, lsr #29

00003344 <l3021>:
    3344:	81e0e6a4 	mvnhi	lr, r4, lsr #13

00003348 <l3022>:
    3348:	a0e72009 	rscge	r2, r7, r9

0000334c <l3023>:
    334c:	e0e11005 	rsc	r1, r1, r5

00003350 <l3024>:
    3350:	e59f2000 	ldr	r2, [pc]	; 3358 <l3026>

00003354 <interrupt_857>:
    3354:	ea000000 	b	335c <l3027>

00003358 <l3026>:
    3358:	000fffdc 	.word	0x000fffdc

0000335c <l3027>:
    335c:	e1424098 	swpb	r4, r8, [r2]

00003360 <interrupt_17>:
    3360:	f9e8a3f4 	.word	0xf9e8a3f4

00003364 <interrupt_103>:
    3364:	ea000007 	b	3388 <l3038>

00003368 <l3030>:
    3368:	c0628064 	rsbgt	r8, r2, r4, rrx

0000336c <l3031>:
    336c:	e0d331e5 	sbcs	r3, r3, r5, ror #3

00003370 <l3032>:
    3370:	a1f00936 	mvnsge	r0, r6, lsr r9

00003374 <interrupt_120>:
    3374:	d1e0b954 	mvnle	fp, r4, asr r9

00003378 <l3034>:
    3378:	d19193e9 	orrsle	r9, r1, r9, ror #7

0000337c <l3035>:
    337c:	016fcf15 	clzeq	ip, r5

00003380 <l3036>:
    3380:	11570de2 	cmpne	r7, r2, ror #27

00003384 <l3037>:
    3384:	e19f7f22 	orrs	r7, pc, r2, lsr #30

00003388 <l3038>:
    3388:	00e58e4a 	rsceq	r8, r5, sl, asr #28

0000338c <interrupt_415>:
    338c:	e3a0e019 	mov	lr, #25

00003390 <l3040>:
    3390:	011d30de 	ldrsbeq	r3, [sp, -lr]

00003394 <l3041>:
    3394:	ba000002 	blt	33a4 <l3045>

00003398 <l3042>:
    3398:	21710551 	cmncs	r1, r1, asr r5

0000339c <l3043>:
    339c:	90511acb 	subsls	r1, r1, fp, asr #21

000033a0 <interrupt_437>:
    33a0:	e3a096ae 	mov	r9, #182452224	; 0xae00000

000033a4 <l3045>:
    33a4:	226f7b33 	rsbcs	r7, pc, #52224	; 0xcc00

000033a8 <l3046>:
    33a8:	90d15936 	sbcsls	r5, r1, r6, lsr r9

000033ac <l3047>:
    33ac:	e2744769 	rsbs	r4, r4, #27525120	; 0x1a40000

000033b0 <interrupt_866>:
    33b0:	e3a0300c 	mov	r3, #12

000033b4 <l3049>:
    33b4:	819d00b3 	ldrhhi	r0, [sp, r3]

000033b8 <interrupt_368>:
    33b8:	e2dbb34f 	sbcs	fp, fp, #1006632961	; 0x3c000001

000033bc <l3051>:
    33bc:	e3770d8f 	cmn	r7, #9152	; 0x23c0

000033c0 <l3052>:
    33c0:	e3a0800a 	mov	r8, #10

000033c4 <l3053>:
    33c4:	e11d70f8 	ldrsh	r7, [sp, -r8]

000033c8 <l3054>:
    33c8:	e004c42b 	and	ip, r4, fp, lsr #8

000033cc <l3055>:
    33cc:	e13b0005 	teq	fp, r5

000033d0 <l3056>:
    33d0:	e3a0b02c 	mov	fp, #44	; 0x2c

000033d4 <l3057>:
    33d4:	e11d80fb 	ldrsh	r8, [sp, -fp]

000033d8 <l3058>:
    33d8:	e132087b 	teq	r2, fp, ror r8

000033dc <l3059>:
    33dc:	c0f3bca4 	rscsgt	fp, r3, r4, lsr #25

000033e0 <l3060>:
    33e0:	01f06002 	mvnseq	r6, r2

000033e4 <l3061>:
    33e4:	e88d0201 	stm	sp, {r0, r9}

000033e8 <interrupt_792>:
    33e8:	b3580787 	cmplt	r8, #35389440	; 0x21c0000

000033ec <l3063>:
    33ec:	e93d5bfe 	ldmdb	sp!, {r1, r2, r3, r4, r5, r6, r7, r8, r9, fp, ip, lr}

000033f0 <l3064>:
    33f0:	615d50d5 	ldrsbvs	r5, [sp, #-5]

000033f4 <l3065>:
    33f4:	e273655f 	rsbs	r6, r3, #398458880	; 0x17c00000

000033f8 <l3066>:
    33f8:	e59f7000 	ldr	r7, [pc]	; 3400 <l3068>

000033fc <l3067>:
    33fc:	ea000000 	b	3404 <l3069>

00003400 <l3068>:
    3400:	000fffb4 	.word	0x000fffb4

00003404 <l3069>:
    3404:	d1078092 	swple	r8, r2, [r7]

00003408 <l3070>:
    3408:	e59f3000 	ldr	r3, [pc]	; 3410 <l3072>

0000340c <interrupt_656>:
    340c:	ea000000 	b	3414 <l3073>

00003410 <l3072>:
    3410:	000fffa4 	.word	0x000fffa4

00003414 <l3073>:
    3414:	e1431096 	swpb	r1, r6, [r3]

00003418 <interrupt_591>:
    3418:	e16f4f1a 	clz	r4, sl

0000341c <l3075>:
    341c:	e19c4004 	orrs	r4, ip, r4

00003420 <l3076>:
    3420:	e3a0801c 	mov	r8, #28

00003424 <interrupt_160>:
    3424:	e19dc0b8 	ldrh	ip, [sp, r8]

00003428 <l3078>:
    3428:	e1190003 	tst	r9, r3

0000342c <l3079>:
    342c:	e1770232 	cmn	r7, r2, lsr r2

00003430 <interrupt_186>:
    3430:	30b65004 	adcscc	r5, r6, r4

00003434 <l3081>:
    3434:	e1b0b06a 	rrxs	fp, sl

00003438 <interrupt_156>:
    3438:	b1cdc2b8 	strhlt	ip, [sp, #40]	; 0x28

0000343c <l3083>:
    343c:	e0be606f 	adcs	r6, lr, pc, rrx

00003440 <l3084>:
    3440:	c3975e4f 	orrsgt	r5, r7, #1264	; 0x4f0

00003444 <interrupt_963>:
    3444:	f822ee90 	.word	0xf822ee90

00003448 <l3086>:
    3448:	ef2c833d 	svc	0x002c833d

0000344c <l3087>:
    344c:	f39c5eff 	.word	0xf39c5eff

00003450 <l3088>:
    3450:	e1560167 	cmp	r6, r7, ror #2

00003454 <l3089>:
    3454:	a03e5a73 	eorsge	r5, lr, r3, ror sl

00003458 <interrupt_663>:
    3458:	131e0c0d 	tstne	lr, #3328	; 0xd00

0000345c <l3091>:
    345c:	d5dd8043 	ldrble	r8, [sp, #67]	; 0x43

00003460 <l3092>:
    3460:	116f6f15 	clzne	r6, r5

00003464 <l3093>:
    3464:	e2049b1b 	and	r9, r4, #27648	; 0x6c00

00003468 <l3094>:
    3468:	3003b504 	andcc	fp, r3, r4, lsl #10

0000346c <l3095>:
    346c:	511c006f 	tstpl	ip, pc, rrx

00003470 <l3096>:
    3470:	215c0068 	cmpcs	ip, r8, rrx

00003474 <l3097>:
    3474:	715006eb 	cmpvc	r0, fp, ror #13

00003478 <interrupt_563>:
    3478:	efb25c0a 	svc	0x00b25c0a

0000347c <l3099>:
    347c:	e59fb000 	ldr	fp, [pc]	; 3484 <l3101>

00003480 <interrupt_884>:
    3480:	ea000000 	b	3488 <l3102>

00003484 <l3101>:
    3484:	000fffe4 	.word	0x000fffe4

00003488 <l3102>:
    3488:	e14bc092 	swpb	ip, r2, [fp]

0000348c <l3103>:
    348c:	ea000003 	b	34a0 <l3108>

00003490 <l3104>:
    3490:	e28010ee 	add	r1, r0, #238	; 0xee

00003494 <l3105>:
    3494:	a0e62132 	rscge	r2, r6, r2, lsr r1

00003498 <l3106>:
    3498:	40ea013b 	rscmi	r0, sl, fp, lsr r1

0000349c <l3107>:
    349c:	ea000000 	b	34a4 <l3109>

000034a0 <l3108>:
    34a0:	eafffffb 	b	3494 <l3105>

000034a4 <l3109>:
    34a4:	135303fa 	cmpne	r3, #-402653181	; 0xe8000003

000034a8 <l3110>:
    34a8:	e3d5681f 	bics	r6, r5, #2031616	; 0x1f0000

000034ac <interrupt_145>:
    34ac:	e3a07022 	mov	r7, #34	; 0x22

000034b0 <l3112>:
    34b0:	b18d80b7 	strhlt	r8, [sp, r7]

000034b4 <l3113>:
    34b4:	4189167c 	orrmi	r1, r9, ip, ror r6

000034b8 <l3114>:
    34b8:	f9b08231 	.word	0xf9b08231

000034bc <l3115>:
    34bc:	e49d1034 	ldr	r1, [sp], #52	; 0x34

000034c0 <l3116>:
    34c0:	354d500f 	strbcc	r5, [sp, #-15]

000034c4 <interrupt_535>:
    34c4:	115d70b4 	ldrhne	r7, [sp, #-4]

000034c8 <l3118>:
    34c8:	b26b6054 	rsblt	r6, fp, #84	; 0x54

000034cc <l3119>:
    34cc:	90418f02 	subls	r8, r1, r2, lsl #30

000034d0 <interrupt_113>:
    34d0:	e16fbf15 	clz	fp, r5

000034d4 <l3121>:
    34d4:	e3a0e00c 	mov	lr, #12

000034d8 <l3122>:
    34d8:	e74da00e 	strb	sl, [sp, -lr]

000034dc <l3123>:
    34dc:	ef546dd9 	svc	0x00546dd9

000034e0 <interrupt_701>:
    34e0:	a0d9a261 	sbcsge	sl, r9, r1, ror #4

000034e4 <l3125>:
    34e4:	ba000007 	blt	3508 <interrupt_240>

000034e8 <l3126>:
    34e8:	e28010cc 	add	r1, r0, #204	; 0xcc

000034ec <interrupt_889>:
    34ec:	003e6063 	eorseq	r6, lr, r3, rrx

000034f0 <interrupt_328>:
    34f0:	e16f3f1a 	clz	r3, sl

000034f4 <l3129>:
    34f4:	e1995000 	orrs	r5, r9, r0

000034f8 <l3130>:
    34f8:	e1e06958 	mvn	r6, r8, asr r9

000034fc <l3131>:
    34fc:	e032628a 	eors	r6, r2, sl, lsl #5

00003500 <l3132>:
    3500:	104fb00f 	subne	fp, pc, pc

00003504 <l3133>:
    3504:	ea000000 	b	350c <l3135>

00003508 <interrupt_240>:
    3508:	eafffff7 	b	34ec <interrupt_889>

0000350c <l3135>:
    350c:	e17a0069 	cmn	sl, r9, rrx

00003510 <interrupt_745>:
    3510:	5a000000 	bpl	3518 <l3138>

00003514 <l3137>:
    3514:	e16f1f13 	clz	r1, r3

00003518 <l3138>:
    3518:	306e38c8 	rsbcc	r3, lr, r8, asr #17

0000351c <l3139>:
    351c:	70583c4f 	subsvc	r3, r8, pc, asr #24

00003520 <l3140>:
    3520:	0056c931 	subseq	ip, r6, r1, lsr r9

00003524 <l3141>:
    3524:	a233a23e 	eorsge	sl, r3, #-536870909	; 0xe0000003

00003528 <l3142>:
    3528:	2014763e 	andscs	r7, r4, lr, lsr r6

0000352c <l3143>:
    352c:	7258ac89 	subsvc	sl, r8, #35072	; 0x8900

00003530 <l3144>:
    3530:	3243b155 	subcc	fp, r3, #1073741845	; 0x40000015

00003534 <l3145>:
    3534:	efe16c15 	svc	0x00e16c15

00003538 <l3146>:
    3538:	e05ba00f 	subs	sl, fp, pc

0000353c <l3147>:
    353c:	e59db000 	ldr	fp, [sp]

00003540 <l3148>:
    3540:	4044500f 	submi	r5, r4, pc

00003544 <l3149>:
    3544:	e0515839 	subs	r5, r1, r9, lsr r8

00003548 <l3150>:
    3548:	50f4706f 	rscspl	r7, r4, pc, rrx

0000354c <interrupt_551>:
    354c:	e3a03017 	mov	r3, #23

00003550 <l3152>:
    3550:	474d7003 	strbmi	r7, [sp, -r3]

00003554 <l3153>:
    3554:	419879c9 	orrsmi	r7, r8, r9, asr #19

00003558 <interrupt_482>:
    3558:	e15d72fe 	ldrsh	r7, [sp, #-46]	; 0xffffffd2

0000355c <l3155>:
    355c:	e17e0b3c 	cmn	lr, ip, lsr fp

00003560 <l3156>:
    3560:	60529004 	subsvs	r9, r2, r4

00003564 <interrupt_339>:
    3564:	e05c200b 	subs	r2, ip, fp

00003568 <l3158>:
    3568:	b2a6ec9b 	adclt	lr, r6, #39680	; 0x9b00

0000356c <l3159>:
    356c:	a3780d53 	cmnge	r8, #5312	; 0x14c0

00003570 <l3160>:
    3570:	ef500a92 	svc	0x00500a92

00003574 <l3161>:
    3574:	e16f5f1c 	clz	r5, ip

00003578 <l3162>:
    3578:	e0459f89 	sub	r9, r5, r9, lsl #31

0000357c <l3163>:
    357c:	3a000003 	bcc	3590 <l3168>

00003580 <l3164>:
    3580:	e28010f0 	add	r1, r0, #240	; 0xf0

00003584 <l3165>:
    3584:	e20f3d9f 	and	r3, pc, #10176	; 0x27c0

00003588 <interrupt_297>:
    3588:	10f79828 	rscsne	r9, r7, r8, lsr #16

0000358c <l3167>:
    358c:	ea000000 	b	3594 <l3169>

00003590 <l3168>:
    3590:	eafffffb 	b	3584 <l3165>

00003594 <l3169>:
    3594:	e055a068 	subs	sl, r5, r8, rrx

00003598 <l3170>:
    3598:	e3a0a030 	mov	sl, #48	; 0x30

0000359c <l3171>:
    359c:	e73dc00a 	ldr	ip, [sp, -sl]!

000035a0 <l3172>:
    35a0:	ef5a02fb 	svc	0x005a02fb

000035a4 <l3173>:
    35a4:	e259cb0f 	subs	ip, r9, #15360	; 0x3c00

000035a8 <l3174>:
    35a8:	90839003 	addls	r9, r3, r3

000035ac <l3175>:
    35ac:	42d9e85f 	sbcsmi	lr, r9, #6225920	; 0x5f0000

000035b0 <l3176>:
    35b0:	7a000004 	bvc	35c8 <l3182>

000035b4 <l3177>:
    35b4:	e2801070 	add	r1, r0, #112	; 0x70

000035b8 <interrupt_412>:
    35b8:	e0d7ee73 	sbcs	lr, r7, r3, ror lr

000035bc <l3179>:
    35bc:	011f0009 	tsteq	pc, r9

000035c0 <l3180>:
    35c0:	c18c0005 	orrgt	r0, ip, r5

000035c4 <interrupt_177>:
    35c4:	ea000000 	b	35cc <l3183>

000035c8 <l3182>:
    35c8:	eafffffa 	b	35b8 <interrupt_412>

000035cc <l3183>:
    35cc:	ea000007 	b	35f0 <l3192>

000035d0 <l3184>:
    35d0:	e2801044 	add	r1, r0, #68	; 0x44

000035d4 <l3185>:
    35d4:	71947004 	orrsvc	r7, r4, r4

000035d8 <interrupt_978>:
    35d8:	e0e31c51 	rsc	r1, r3, r1, asr ip

000035dc <interrupt_76>:
    35dc:	40f9271c 	rscsmi	r2, r9, ip, lsl r7

000035e0 <l3188>:
    35e0:	c2a0590a 	adcgt	r5, r0, #163840	; 0x28000

000035e4 <l3189>:
    35e4:	a1790032 	cmnge	r9, r2, lsr r0

000035e8 <l3190>:
    35e8:	43120d0e 	tstmi	r2, #896	; 0x380

000035ec <l3191>:
    35ec:	ea000000 	b	35f4 <interrupt_27>

000035f0 <l3192>:
    35f0:	eafffff7 	b	35d4 <l3185>

000035f4 <interrupt_27>:
    35f4:	e3a02024 	mov	r2, #36	; 0x24

000035f8 <l3194>:
    35f8:	c18d50b2 	strhgt	r5, [sp, r2]

000035fc <interrupt_439>:
    35fc:	e1a00000 	nop			; (mov r0, r0)

00003600 <l3196>:
    3600:	e02b2009 	eor	r2, fp, r9

00003604 <l3197>:
    3604:	01580467 	cmpeq	r8, r7, ror #8

00003608 <l3198>:
    3608:	e1770e32 	cmn	r7, r2, lsr lr

0000360c <l3199>:
    360c:	e59f8000 	ldr	r8, [pc]	; 3614 <l3201>

00003610 <l3200>:
    3610:	ea000000 	b	3618 <l3202>

00003614 <l3201>:
    3614:	000fffc4 	.word	0x000fffc4

00003618 <l3202>:
    3618:	e148a090 	swpb	sl, r0, [r8]

0000361c <l3203>:
    361c:	e0e98e18 	rsc	r8, r9, r8, lsl lr

00003620 <l3204>:
    3620:	e1a04da9 	lsr	r4, r9, #27

00003624 <l3205>:
    3624:	a0f4a0ac 	rscsge	sl, r4, ip, lsr #1

00003628 <l3206>:
    3628:	e49de014 	ldr	lr, [sp], #20

0000362c <l3207>:
    362c:	e1d9a739 	bics	sl, r9, r9, lsr r7

00003630 <l3208>:
    3630:	e59fb000 	ldr	fp, [pc]	; 3638 <l3210>

00003634 <l3209>:
    3634:	ea000000 	b	363c <l3211>

00003638 <l3210>:
    3638:	000fffd4 	.word	0x000fffd4

0000363c <l3211>:
    363c:	214b8098 	swpbcs	r8, r8, [fp]

00003640 <l3212>:
    3640:	41cb0005 	bicmi	r0, fp, r5

00003644 <l3213>:
    3644:	e59f7000 	ldr	r7, [pc]	; 364c <l3215>

00003648 <interrupt_365>:
    3648:	ea000000 	b	3650 <l3216>

0000364c <l3215>:
    364c:	000fffe4 	.word	0x000fffe4

00003650 <l3216>:
    3650:	e1078092 	swp	r8, r2, [r7]

00003654 <l3217>:
    3654:	d1b0100b 	movsle	r1, fp

00003658 <l3218>:
    3658:	e1b02062 	rrxs	r2, r2

0000365c <l3219>:
    365c:	e1580833 	cmp	r8, r3, lsr r8

00003660 <l3220>:
    3660:	effdc176 	svc	0x00fdc176

00003664 <l3221>:
    3664:	7a000004 	bvc	367c <interrupt_785>

00003668 <interrupt_757>:
    3668:	51170003 	tstpl	r7, r3

0000366c <l3223>:
    366c:	e1160068 	tst	r6, r8, rrx

00003670 <l3224>:
    3670:	e2ea80b3 	rsc	r8, sl, #179	; 0xb3

00003674 <l3225>:
    3674:	60259227 	eorvs	r9, r5, r7, lsr #4

00003678 <l3226>:
    3678:	837e0c0e 	cmnhi	lr, #3584	; 0xe00

0000367c <interrupt_785>:
    367c:	e11b0004 	tst	fp, r4

00003680 <l3228>:
    3680:	71a0447c 	rorvc	r4, ip, r4

00003684 <interrupt_471>:
    3684:	e24225f2 	sub	r2, r2, #1015021568	; 0x3c800000

00003688 <l3230>:
    3688:	715d60da 	ldrsbvc	r6, [sp, #-10]

0000368c <l3231>:
    368c:	37916898 	.word	0x37916898

00003690 <interrupt_659>:
    3690:	ef06cfd7 	svc	0x0006cfd7

00003694 <l3233>:
    3694:	e59f5000 	ldr	r5, [pc]	; 369c <interrupt_246>

00003698 <l3234>:
    3698:	ea000000 	b	36a0 <interrupt_614>

0000369c <interrupt_246>:
    369c:	000fffc0 	.word	0x000fffc0

000036a0 <interrupt_614>:
    36a0:	2145b093 	swpbcs	fp, r3, [r5]

000036a4 <interrupt_63>:
    36a4:	80c6e927 	sbchi	lr, r6, r7, lsr #18

000036a8 <l3238>:
    36a8:	006ee9af 	rsbeq	lr, lr, pc, lsr #19

000036ac <l3239>:
    36ac:	0a000005 	beq	36c8 <l3246>

000036b0 <l3240>:
    36b0:	40f3e434 	rscsmi	lr, r3, r4, lsr r4

000036b4 <l3241>:
    36b4:	a0f3e87a 	rscsge	lr, r3, sl, ror r8

000036b8 <l3242>:
    36b8:	e16f6f13 	clz	r6, r3

000036bc <l3243>:
    36bc:	e16fef18 	clz	lr, r8

000036c0 <interrupt_394>:
    36c0:	516f3f1e 	clzpl	r3, lr

000036c4 <l3245>:
    36c4:	417b000f 	cmnmi	fp, pc

000036c8 <l3246>:
    36c8:	316f8f11 	clzcc	r8, r1

000036cc <l3247>:
    36cc:	e3d6b396 	bics	fp, r6, #1476395010	; 0x58000002

000036d0 <l3248>:
    36d0:	e59f6000 	ldr	r6, [pc]	; 36d8 <interrupt_332>

000036d4 <l3249>:
    36d4:	ea000000 	b	36dc <interrupt_88>

000036d8 <interrupt_332>:
    36d8:	000fffc4 	.word	0x000fffc4

000036dc <interrupt_88>:
    36dc:	b1467099 	swpblt	r7, r9, [r6]

000036e0 <l3252>:
    36e0:	e3a08014 	mov	r8, #20

000036e4 <l3253>:
    36e4:	b78dc008 	strlt	ip, [sp, r8]

000036e8 <l3254>:
    36e8:	da000006 	ble	3708 <l3262>

000036ec <l3255>:
    36ec:	e3ca3519 	bic	r3, sl, #104857600	; 0x6400000

000036f0 <l3256>:
    36f0:	e1740627 	cmn	r4, r7, lsr #12

000036f4 <l3257>:
    36f4:	e0d31b74 	sbcs	r1, r3, r4, ror fp

000036f8 <l3258>:
    36f8:	909c300b 	addsls	r3, ip, fp

000036fc <l3259>:
    36fc:	e1d48faf 	bics	r8, r4, pc, lsr #31

00003700 <l3260>:
    3700:	7018400e 	andsvc	r4, r8, lr

00003704 <interrupt_763>:
    3704:	e158000b 	cmp	r8, fp

00003708 <l3262>:
    3708:	62806048 	addvs	r6, r0, #72	; 0x48

0000370c <l3263>:
    370c:	e0b5400c 	adcs	r4, r5, ip

00003710 <l3264>:
    3710:	e1cd82b8 	strh	r8, [sp, #40]	; 0x28

00003714 <interrupt_392>:
    3714:	990d0048 	stmdbls	sp, {r3, r6}

00003718 <interrupt_673>:
    3718:	e59fc000 	ldr	ip, [pc]	; 3720 <l3268>

0000371c <interrupt_490>:
    371c:	ea000000 	b	3724 <l3269>

00003720 <l3268>:
    3720:	000fffbc 	.word	0x000fffbc

00003724 <l3269>:
    3724:	e10c8095 	swp	r8, r5, [ip]

00003728 <interrupt_874>:
    3728:	75cdc021 	strbvc	ip, [sp, #33]	; 0x21

0000372c <l3271>:
    372c:	e5ade000 	str	lr, [sp, #0]!

00003730 <l3272>:
    3730:	b063400c 	rsblt	r4, r3, ip

00003734 <l3273>:
    3734:	f6961cfe 	.word	0xf6961cfe

00003738 <l3274>:
    3738:	e2cb59c1 	sbc	r5, fp, #3162112	; 0x304000

0000373c <l3275>:
    373c:	e90d8001 	stmdb	sp, {r0, pc}

00003740 <l3276>:
    3740:	ea000004 	b	3758 <l3282>

00003744 <l3277>:
    3744:	33110c2b 	tstcc	r1, #11008	; 0x2b00

00003748 <l3278>:
    3748:	80186063 	andshi	r6, r8, r3, rrx

0000374c <l3279>:
    374c:	e33b0507 	teq	fp, #29360128	; 0x1c00000

00003750 <interrupt_216>:
    3750:	e1968c79 	orrs	r8, r6, r9, ror ip

00003754 <l3281>:
    3754:	92060725 	andls	r0, r6, #9699328	; 0x940000

00003758 <l3282>:
    3758:	e0735001 	rsbs	r5, r3, r1

0000375c <l3283>:
    375c:	ffe16df3 	.word	0xffe16df3

00003760 <l3284>:
    3760:	e0708001 	rsbs	r8, r0, r1

00003764 <l3285>:
    3764:	a89d4be1 	ldmge	sp, {r0, r5, r6, r7, r8, r9, fp, lr}

00003768 <l3286>:
    3768:	01f0b002 	mvnseq	fp, r2

0000376c <l3287>:
    376c:	ea000006 	b	378c <l3295>

00003770 <l3288>:
    3770:	e2801030 	add	r1, r0, #48	; 0x30

00003774 <interrupt_680>:
    3774:	51560000 	cmppl	r6, r0

00003778 <l3290>:
    3778:	d1580000 	cmple	r8, r0

0000377c <l3291>:
    377c:	216f7f10 	clzcs	r7, r0

00003780 <l3292>:
    3780:	0023224e 	eoreq	r2, r3, lr, asr #4

00003784 <l3293>:
    3784:	31c7067a 	biccc	r0, r7, sl, ror r6

00003788 <l3294>:
    3788:	ea000000 	b	3790 <l3296>

0000378c <l3295>:
    378c:	eafffff8 	b	3774 <interrupt_680>

00003790 <l3296>:
    3790:	efc9cbee 	svc	0x00c9cbee

00003794 <interrupt_173>:
    3794:	e1a0a166 	ror	sl, r6, #2

00003798 <l3298>:
    3798:	914d51b6 	strhls	r5, [sp, #-22]	; 0xffffffea

0000379c <l3299>:
    379c:	e3a03014 	mov	r3, #20

000037a0 <l3300>:
    37a0:	410d10b3 	strhmi	r1, [sp, -r3]

000037a4 <l3301>:
    37a4:	ff9d96bc 	.word	0xff9d96bc

000037a8 <l3302>:
    37a8:	e3a07010 	mov	r7, #16

000037ac <l3303>:
    37ac:	718d70b7 	strhvc	r7, [sp, r7]

000037b0 <l3304>:
    37b0:	e0591012 	subs	r1, r9, r2, lsl r0

000037b4 <l3305>:
    37b4:	f720bab6 	.word	0xf720bab6

000037b8 <l3306>:
    37b8:	f1ff9061 	.word	0xf1ff9061

000037bc <l3307>:
    37bc:	d1b03003 	movsle	r3, r3

000037c0 <l3308>:
    37c0:	ff889947 	.word	0xff889947

000037c4 <l3309>:
    37c4:	790dc322 	stmdbvc	sp, {r1, r5, r8, r9, lr, pc}

000037c8 <l3310>:
    37c8:	a15d20f2 	ldrshge	r2, [sp, #-2]

000037cc <l3311>:
    37cc:	11e0c13b 	mvnne	ip, fp, lsr r1

000037d0 <l3312>:
    37d0:	e59f0000 	ldr	r0, [pc]	; 37d8 <l3314>

000037d4 <l3313>:
    37d4:	ea000000 	b	37dc <l3315>

000037d8 <l3314>:
    37d8:	000fffc4 	.word	0x000fffc4

000037dc <l3315>:
    37dc:	51006096 	swppl	r6, r6, [r0]

000037e0 <interrupt_552>:
    37e0:	159d801c 	ldrne	r8, [sp, #28]

000037e4 <l3317>:
    37e4:	d1cf2000 	bicle	r2, pc, r0

000037e8 <l3318>:
    37e8:	f9562d7a 	.word	0xf9562d7a

000037ec <l3319>:
    37ec:	31b03f2e 	lsrscc	r3, lr, #30

000037f0 <l3320>:
    37f0:	e110016e 	tst	r0, lr, ror #2

000037f4 <l3321>:
    37f4:	51e0e005 	mvnpl	lr, r5

000037f8 <l3322>:
    37f8:	e59f9000 	ldr	r9, [pc]	; 3800 <l3324>

000037fc <l3323>:
    37fc:	ea000000 	b	3804 <l3325>

00003800 <l3324>:
    3800:	000fffa8 	.word	0x000fffa8

00003804 <l3325>:
    3804:	e1491097 	swpb	r1, r7, [r9]

00003808 <l3326>:
    3808:	e285ec07 	add	lr, r5, #1792	; 0x700

0000380c <l3327>:
    380c:	e15da1df 	ldrsb	sl, [sp, #-31]	; 0xffffffe1

00003810 <interrupt_361>:
    3810:	efaf7fa7 	svc	0x00af7fa7

00003814 <interrupt_966>:
    3814:	e59f2000 	ldr	r2, [pc]	; 381c <l3331>

00003818 <l3330>:
    3818:	ea000000 	b	3820 <l3332>

0000381c <l3331>:
    381c:	000fffd4 	.word	0x000fffd4

00003820 <l3332>:
    3820:	a1429096 	swpbge	r9, r6, [r2]

00003824 <l3333>:
    3824:	ef9a11de 	svc	0x009a11de

00003828 <interrupt_643>:
    3828:	134f1824 	.word	0x134f1824

0000382c <l3335>:
    382c:	e3a04010 	mov	r4, #16

00003830 <l3336>:
    3830:	e7adf004 	str	pc, [sp, r4]!

00003834 <l3337>:
    3834:	ea000006 	b	3854 <l3345>

00003838 <l3338>:
    3838:	917a000c 	cmnls	sl, ip

0000383c <l3339>:
    383c:	e2bb9ca2 	adcs	r9, fp, #41472	; 0xa200

00003840 <l3340>:
    3840:	a2913895 	addsge	r3, r1, #9764864	; 0x950000

00003844 <l3341>:
    3844:	71160006 	tstvc	r6, r6

00003848 <interrupt_37>:
    3848:	121f923a 	andsne	r9, pc, #-1610612733	; 0xa0000003

0000384c <l3343>:
    384c:	e0516068 	subs	r6, r1, r8, rrx

00003850 <l3344>:
    3850:	e3934b86 	orrs	r4, r3, #137216	; 0x21800

00003854 <l3345>:
    3854:	e05e293b 	subs	r2, lr, fp, lsr r9

00003858 <l3346>:
    3858:	116f4f1b 	clzne	r4, fp

0000385c <l3347>:
    385c:	e3a01020 	mov	r1, #32

00003860 <interrupt_713>:
    3860:	e10d30b1 	strh	r3, [sp, -r1]

00003864 <l3349>:
    3864:	e59f7000 	ldr	r7, [pc]	; 386c <l3351>

00003868 <l3350>:
    3868:	ea000000 	b	3870 <l3352>

0000386c <l3351>:
    386c:	000fffa0 	.word	0x000fffa0

00003870 <l3352>:
    3870:	21073099 	swpcs	r3, r9, [r7]

00003874 <l3353>:
    3874:	e33b0109 	teq	fp, #1073741826	; 0x40000002

00003878 <l3354>:
    3878:	e50de00c 	str	lr, [sp, #-12]

0000387c <l3355>:
    387c:	c72fa5d2 	.word	0xc72fa5d2

00003880 <l3356>:
    3880:	51f06003 	mvnspl	r6, r3

00003884 <l3357>:
    3884:	e0389006 	eors	r9, r8, r6

00003888 <l3358>:
    3888:	ea000008 	b	38b0 <l3368>

0000388c <l3359>:
    388c:	a3978446 	orrsge	r8, r7, #1174405120	; 0x46000000

00003890 <interrupt_321>:
    3890:	e1f0b135 	mvns	fp, r5, lsr r1

00003894 <interrupt_187>:
    3894:	3046e067 	subcc	lr, r6, r7, rrx

00003898 <interrupt_791>:
    3898:	60d2a554 	sbcsvs	sl, r2, r4, asr r5

0000389c <l3363>:
    389c:	42a21e8b 	adcmi	r1, r2, #2224	; 0x8b0

000038a0 <l3364>:
    38a0:	e0412cc7 	sub	r2, r1, r7, asr #25

000038a4 <l3365>:
    38a4:	b1a01c09 	lsllt	r1, r9, #24

000038a8 <l3366>:
    38a8:	824be312 	subhi	lr, fp, #1207959552	; 0x48000000

000038ac <l3367>:
    38ac:	b0be0148 	adcslt	r0, lr, r8, asr #2

000038b0 <l3368>:
    38b0:	e08cae38 	add	sl, ip, r8, lsr lr

000038b4 <l3369>:
    38b4:	e3a0b010 	mov	fp, #16

000038b8 <l3370>:
    38b8:	618d40bb 	strhvs	r4, [sp, fp]

000038bc <l3371>:
    38bc:	415de1ba 	ldrhmi	lr, [sp, #-26]	; 0xffffffe6

000038c0 <l3372>:
    38c0:	00066060 	andeq	r6, r6, r0, rrx

000038c4 <l3373>:
    38c4:	a1926410 	orrsge	r6, r2, r0, lsl r4

000038c8 <l3374>:
    38c8:	e3a09029 	mov	r9, #41	; 0x29

000038cc <l3375>:
    38cc:	711d90d9 	ldrsbvc	r9, [sp, -r9]

000038d0 <interrupt_661>:
    38d0:	413e000a 	teqmi	lr, sl

000038d4 <l3377>:
    38d4:	c35e09d1 	cmpgt	lr, #3424256	; 0x344000

000038d8 <l3378>:
    38d8:	901b900a 	andsls	r9, fp, sl

000038dc <l3379>:
    38dc:	315e006b 	cmpcc	lr, fp, rrx

000038e0 <l3380>:
    38e0:	e49d3004 	pop	{r3}		; (ldr r3, [sp], #4)

000038e4 <l3381>:
    38e4:	a80dd4a8 	stmdage	sp, {r3, r5, r7, sl, ip, lr, pc}

000038e8 <l3382>:
    38e8:	e3a0002a 	mov	r0, #42	; 0x2a

000038ec <interrupt_23>:
    38ec:	411dc0f0 	ldrshmi	ip, [sp, -r0]

000038f0 <l3384>:
    38f0:	e25f521b 	subs	r5, pc, #-1342177279	; 0xb0000001

000038f4 <l3385>:
    38f4:	ef0448ef 	svc	0x000448ef

000038f8 <l3386>:
    38f8:	42346006 	eorsmi	r6, r4, #6

000038fc <l3387>:
    38fc:	e8bd5000 	pop	{ip, lr}

00003900 <l3388>:
    3900:	efcef2a9 	svc	0x00cef2a9

00003904 <l3389>:
    3904:	e020ab0a 	eor	sl, r0, sl, lsl #22

00003908 <interrupt_908>:
    3908:	e17e000a 	cmn	lr, sl

0000390c <interrupt_952>:
    390c:	555d602a 	ldrbpl	r6, [sp, #-42]	; 0x2a

00003910 <l3392>:
    3910:	e3a08002 	mov	r8, #2

00003914 <interrupt_52>:
    3914:	37cd3008 	strbcc	r3, [sp, r8]

00003918 <interrupt_633>:
    3918:	506b6001 	rsbpl	r6, fp, r1

0000391c <l3395>:
    391c:	6082ee13 	addvs	lr, r2, r3, lsl lr

00003920 <interrupt_806>:
    3920:	80585001 	subshi	r5, r8, r1

00003924 <interrupt_714>:
    3924:	617b000f 	cmnvs	fp, pc

00003928 <l3398>:
    3928:	70de4a5b 	sbcsvc	r4, lr, fp, asr sl

0000392c <interrupt_556>:
    392c:	80367064 	eorshi	r7, r6, r4, rrx

00003930 <interrupt_586>:
    3930:	e3a0b036 	mov	fp, #54	; 0x36

00003934 <l3401>:
    3934:	675db00b 	ldrbvs	fp, [sp, -fp]

00003938 <l3402>:
    3938:	e14d31b6 	strh	r3, [sp, #-22]	; 0xffffffea

0000393c <l3403>:
    393c:	815b0576 	cmphi	fp, r6, ror r5

00003940 <l3404>:
    3940:	d98d040a 	stmible	sp, {r1, r3, sl}

00003944 <l3405>:
    3944:	e1350009 	teq	r5, r9

00003948 <l3406>:
    3948:	e3a03024 	mov	r3, #36	; 0x24

0000394c <l3407>:
    394c:	e72d2003 	str	r2, [sp, -r3]!

00003950 <l3408>:
    3950:	a0a22009 	adcge	r2, r2, r9

00003954 <interrupt_984>:
    3954:	e59f9000 	ldr	r9, [pc]	; 395c <l3411>

00003958 <l3410>:
    3958:	ea000000 	b	3960 <l3412>

0000395c <l3411>:
    395c:	000fffa4 	.word	0x000fffa4

00003960 <l3412>:
    3960:	e149b093 	swpb	fp, r3, [r9]

00003964 <l3413>:
    3964:	51b0a00f 	movspl	sl, pc

00003968 <interrupt_10>:
    3968:	10db7472 	sbcsne	r7, fp, r2, ror r4

0000396c <interrupt_307>:
    396c:	e07e200f 	rsbs	r2, lr, pc

00003970 <interrupt_930>:
    3970:	b0d8900f 	sbcslt	r9, r8, pc

00003974 <l3417>:
    3974:	75cd0015 	strbvc	r0, [sp, #21]

00003978 <l3418>:
    3978:	e2f07529 	rscs	r7, r0, #171966464	; 0xa400000

0000397c <l3419>:
    397c:	e48d8030 	str	r8, [sp], #48	; 0x30

00003980 <l3420>:
    3980:	e0a2b060 	adc	fp, r2, r0, rrx

00003984 <interrupt_55>:
    3984:	73d33b25 	bicsvc	r3, r3, #37888	; 0x9400

00003988 <l3422>:
    3988:	ea000001 	b	3994 <l3425>

0000398c <l3423>:
    398c:	417a0438 	cmnmi	sl, r8, lsr r4

00003990 <l3424>:
    3990:	e198c064 	orrs	ip, r8, r4, rrx

00003994 <l3425>:
    3994:	e1d23fe7 	bics	r3, r2, r7, ror #31

00003998 <interrupt_764>:
    3998:	e3a03042 	mov	r3, #66	; 0x42

0000399c <l3427>:
    399c:	411d80f3 	ldrshmi	r8, [sp, -r3]

000039a0 <l3428>:
    39a0:	e025cfca 	eor	ip, r5, sl, asr #31

000039a4 <l3429>:
    39a4:	e2328b59 	eors	r8, r2, #91136	; 0x16400

000039a8 <l3430>:
    39a8:	e090e006 	adds	lr, r0, r6

000039ac <l3431>:
    39ac:	e11f0f26 	tst	pc, r6, lsr #30

000039b0 <l3432>:
    39b0:	214db1ba 	strhcs	fp, [sp, #-26]	; 0xffffffe6

000039b4 <l3433>:
    39b4:	e3a08029 	mov	r8, #41	; 0x29

000039b8 <l3434>:
    39b8:	e74d6008 	strb	r6, [sp, -r8]

000039bc <interrupt_262>:
    39bc:	a20e2d0a 	andge	r2, lr, #640	; 0x280

000039c0 <l3436>:
    39c0:	e16f8f17 	clz	r8, r7

000039c4 <l3437>:
    39c4:	e29c0d2d 	adds	r0, ip, #2880	; 0xb40

000039c8 <l3438>:
    39c8:	616f2f16 	clzvs	r2, r6

000039cc <l3439>:
    39cc:	414d73bc 	strhmi	r7, [sp, #-60]	; 0xffffffc4

000039d0 <l3440>:
    39d0:	21c37d01 	biccs	r7, r3, r1, lsl #26

000039d4 <l3441>:
    39d4:	e73244d3 	.word	0xe73244d3

000039d8 <l3442>:
    39d8:	f39e8399 	.word	0xf39e8399

000039dc <l3443>:
    39dc:	e3a07000 	mov	r7, #0

000039e0 <l3444>:
    39e0:	e69d9007 	ldr	r9, [sp], r7

000039e4 <l3445>:
    39e4:	e045e014 	sub	lr, r5, r4, lsl r0

000039e8 <l3446>:
    39e8:	10a3646b 	adcne	r6, r3, fp, ror #8

000039ec <l3447>:
    39ec:	00a32e75 	adceq	r2, r3, r5, ror lr

000039f0 <l3448>:
    39f0:	ef80a72e 	svc	0x0080a72e

000039f4 <interrupt_784>:
    39f4:	e3e02159 	mvn	r2, #1073741846	; 0x40000016

000039f8 <l3450>:
    39f8:	e24e7c0a 	sub	r7, lr, #2560	; 0xa00

000039fc <l3451>:
    39fc:	e1560008 	cmp	r6, r8

00003a00 <l3452>:
    3a00:	3281656b 	addcc	r6, r1, #448790528	; 0x1ac00000

00003a04 <interrupt_334>:
    3a04:	e59f6000 	ldr	r6, [pc]	; 3a0c <l3455>

00003a08 <l3454>:
    3a08:	ea000000 	b	3a10 <l3456>

00003a0c <l3455>:
    3a0c:	000fffc4 	.word	0x000fffc4

00003a10 <l3456>:
    3a10:	b1064092 	swplt	r4, r2, [r6]

00003a14 <interrupt_561>:
    3a14:	d194124f 	orrsle	r1, r4, pc, asr #4

00003a18 <l3458>:
    3a18:	e51d6024 	ldr	r6, [sp, #-36]	; 0x24

00003a1c <l3459>:
    3a1c:	1a000003 	bne	3a30 <interrupt_904>

00003a20 <l3460>:
    3a20:	117a01e9 	cmnne	sl, r9, ror #3

00003a24 <interrupt_598>:
    3a24:	c0af7066 	adcgt	r7, pc, r6, rrx

00003a28 <l3462>:
    3a28:	e042206b 	sub	r2, r2, fp, rrx

00003a2c <interrupt_689>:
    3a2c:	e0ace00b 	adc	lr, ip, fp

00003a30 <interrupt_904>:
    3a30:	e18b800c 	orr	r8, fp, ip

00003a34 <l3465>:
    3a34:	e06e700a 	rsb	r7, lr, sl

00003a38 <interrupt_20>:
    3a38:	400b5b5c 	andmi	r5, fp, ip, asr fp

00003a3c <l3467>:
    3a3c:	efd876a8 	svc	0x00d876a8

00003a40 <l3468>:
    3a40:	c17b000a 	cmngt	fp, sl

00003a44 <l3469>:
    3a44:	e15dc3d1 	ldrsb	ip, [sp, #-49]	; 0xffffffcf

00003a48 <l3470>:
    3a48:	ef02374f 	svc	0x0002374f

00003a4c <l3471>:
    3a4c:	e3a08018 	mov	r8, #24

00003a50 <l3472>:
    3a50:	e73d3008 	ldr	r3, [sp, -r8]!

00003a54 <l3473>:
    3a54:	239c3462 	orrscs	r3, ip, #1644167168	; 0x62000000

00003a58 <l3474>:
    3a58:	e1dd00fa 	ldrsh	r0, [sp, #10]

00003a5c <l3475>:
    3a5c:	42b48e2d 	adcsmi	r8, r4, #720	; 0x2d0

00003a60 <l3476>:
    3a60:	6affffff 	bvs	3a64 <l3477>

00003a64 <l3477>:
    3a64:	0222b322 	eoreq	fp, r2, #-2013265920	; 0x88000000

00003a68 <l3478>:
    3a68:	e0ce9451 	sbc	r9, lr, r1, asr r4

00003a6c <l3479>:
    3a6c:	51dd81b2 	ldrhpl	r8, [sp, #18]

00003a70 <l3480>:
    3a70:	e2542aaf 	subs	r2, r4, #716800	; 0xaf000

00003a74 <l3481>:
    3a74:	5affffff 	bpl	3a78 <l3482>

00003a78 <l3482>:
    3a78:	e2435003 	sub	r5, r3, #3

00003a7c <interrupt_809>:
    3a7c:	43560051 	cmpmi	r6, #81	; 0x51

00003a80 <l3484>:
    3a80:	ea000004 	b	3a98 <interrupt_208>

00003a84 <l3485>:
    3a84:	e2801097 	add	r1, r0, #151	; 0x97

00003a88 <l3486>:
    3a88:	7270e26b 	rsbsvc	lr, r0, #-1342177274	; 0xb0000006

00003a8c <l3487>:
    3a8c:	e06f9403 	rsb	r9, pc, r3, lsl #8

00003a90 <interrupt_538>:
    3a90:	e046c000 	sub	ip, r6, r0

00003a94 <l3489>:
    3a94:	ea000000 	b	3a9c <l3491>

00003a98 <interrupt_208>:
    3a98:	eafffffa 	b	3a88 <l3486>

00003a9c <l3491>:
    3a9c:	f0a8cf9e 	.word	0xf0a8cf9e

00003aa0 <interrupt_376>:
    3aa0:	e1c4500a 	bic	r5, r4, sl

00003aa4 <l3493>:
    3aa4:	e3a00015 	mov	r0, #21

00003aa8 <l3494>:
    3aa8:	e74db000 	strb	fp, [sp, -r0]

00003aac <interrupt_709>:
    3aac:	e3a05002 	mov	r5, #2

00003ab0 <l3496>:
    3ab0:	d18d70b5 	strhle	r7, [sp, r5]

00003ab4 <l3497>:
    3ab4:	831c09fd 	tsthi	ip, #4145152	; 0x3f4000

00003ab8 <l3498>:
    3ab8:	e3a0e00e 	mov	lr, #14

00003abc <l3499>:
    3abc:	a19d30fe 	ldrshge	r3, [sp, lr]

00003ac0 <l3500>:
    3ac0:	837501e7 	cmnhi	r5, #-1073741767	; 0xc0000039

00003ac4 <interrupt_566>:
    3ac4:	d25aeb23 	subsle	lr, sl, #35840	; 0x8c00

00003ac8 <l3502>:
    3ac8:	a0717175 	rsbsge	r7, r1, r5, ror r1

00003acc <l3503>:
    3acc:	e2fbc49d 	rscs	ip, fp, #-1660944384	; 0x9d000000

00003ad0 <l3504>:
    3ad0:	217b001b 	cmncs	fp, fp, lsl r0

00003ad4 <interrupt_955>:
    3ad4:	ef1ad783 	svc	0x001ad783

00003ad8 <l3506>:
    3ad8:	e83d0046 	ldmda	sp!, {r1, r2, r6}

00003adc <l3507>:
    3adc:	ea000007 	b	3b00 <interrupt_927>

00003ae0 <l3508>:
    3ae0:	e2801087 	add	r1, r0, #135	; 0x87

00003ae4 <l3509>:
    3ae4:	a0453e35 	subge	r3, r5, r5, lsr lr

00003ae8 <interrupt_965>:
    3ae8:	e00305c9 	and	r0, r3, r9, asr #11

00003aec <l3511>:
    3aec:	11310074 	teqne	r1, r4, ror r0

00003af0 <interrupt_534>:
    3af0:	e1370004 	teq	r7, r4

00003af4 <l3513>:
    3af4:	e13c0213 	teq	ip, r3, lsl r2

00003af8 <l3514>:
    3af8:	e060245a 	rsb	r2, r0, sl, asr r4

00003afc <interrupt_96>:
    3afc:	ea000000 	b	3b04 <l3517>

00003b00 <interrupt_927>:
    3b00:	eafffff7 	b	3ae4 <l3509>

00003b04 <l3517>:
    3b04:	00f35178 	rscseq	r5, r3, r8, ror r1

00003b08 <l3518>:
    3b08:	e18fa065 	orr	sl, pc, r5, rrx

00003b0c <interrupt_983>:
    3b0c:	e01b8170 	ands	r8, fp, r0, ror r1

00003b10 <l3520>:
    3b10:	e0672006 	rsb	r2, r7, r6

00003b14 <interrupt_226>:
    3b14:	3023a009 	eorcc	sl, r3, r9

00003b18 <l3522>:
    3b18:	50930001 	addspl	r0, r3, r1

00003b1c <l3523>:
    3b1c:	706fa06a 	rsbvc	sl, pc, sl, rrx

00003b20 <l3524>:
    3b20:	d04c7065 	suble	r7, ip, r5, rrx

00003b24 <l3525>:
    3b24:	57158492 	.word	0x57158492

00003b28 <l3526>:
    3b28:	21cb1e70 	biccs	r1, fp, r0, ror lr

00003b2c <l3527>:
    3b2c:	6075100a 	rsbsvs	r1, r5, sl

00003b30 <l3528>:
    3b30:	e1770571 	cmn	r7, r1, ror r5

00003b34 <l3529>:
    3b34:	318ec941 	orrcc	ip, lr, r1, asr #18

00003b38 <l3530>:
    3b38:	e2774516 	rsbs	r4, r7, #92274688	; 0x5800000

00003b3c <l3531>:
    3b3c:	41c4406b 	bicmi	r4, r4, fp, rrx

00003b40 <l3532>:
    3b40:	d0487375 	suble	r7, r8, r5, ror r3

00003b44 <interrupt_664>:
    3b44:	e54da00d 	strb	sl, [sp, #-13]

00003b48 <interrupt_568>:
    3b48:	e83d0130 	ldmda	sp!, {r4, r5, r8}

00003b4c <l3535>:
    3b4c:	81dd52b6 	ldrhhi	r5, [sp, #38]	; 0x26

00003b50 <l3536>:
    3b50:	e3a06008 	mov	r6, #8

00003b54 <interrupt_463>:
    3b54:	e69d1006 	ldr	r1, [sp], r6

00003b58 <l3538>:
    3b58:	e3a01016 	mov	r1, #22

00003b5c <interrupt_241>:
    3b5c:	718d40b1 	strhvc	r4, [sp, r1]

00003b60 <l3540>:
    3b60:	e17e0003 	cmn	lr, r3

00003b64 <interrupt_755>:
    3b64:	e11c0e7a 	tst	ip, sl, ror lr

00003b68 <l3542>:
    3b68:	c1f08068 	mvnsgt	r8, r8, rrx

00003b6c <interrupt_929>:
    3b6c:	d085eb54 	addle	lr, r5, r4, asr fp

00003b70 <l3544>:
    3b70:	e0ebc060 	rsc	ip, fp, r0, rrx

00003b74 <l3545>:
    3b74:	e11508af 	tst	r5, pc, lsr #17

00003b78 <l3546>:
    3b78:	e59fa000 	ldr	sl, [pc]	; 3b80 <interrupt_97>

00003b7c <l3547>:
    3b7c:	ea000000 	b	3b84 <interrupt_128>

00003b80 <interrupt_97>:
    3b80:	000fffb8 	.word	0x000fffb8

00003b84 <interrupt_128>:
    3b84:	a10ab09c 	swpge	fp, ip, [sl]

00003b88 <l3550>:
    3b88:	e318087e 	tst	r8, #8257536	; 0x7e0000

00003b8c <l3551>:
    3b8c:	488d6597 	stmmi	sp, {r0, r1, r2, r4, r7, r8, sl, sp, lr}

00003b90 <l3552>:
    3b90:	ffcc51e8 	.word	0xffcc51e8

00003b94 <l3553>:
    3b94:	e18c8001 	orr	r8, ip, r1

00003b98 <l3554>:
    3b98:	eff04948 	svc	0x00f04948

00003b9c <l3555>:
    3b9c:	6a000004 	bvs	3bb4 <l3561>

00003ba0 <l3556>:
    3ba0:	e28010fc 	add	r1, r0, #252	; 0xfc

00003ba4 <interrupt_131>:
    3ba4:	a11f04a0 	tstge	pc, r0, lsr #9

00003ba8 <l3558>:
    3ba8:	d0f2c676 	rscsle	ip, r2, r6, ror r6

00003bac <l3559>:
    3bac:	101a353b 	andsne	r3, sl, fp, lsr r5

00003bb0 <interrupt_777>:
    3bb0:	ea000000 	b	3bb8 <l3562>

00003bb4 <l3561>:
    3bb4:	eafffffa 	b	3ba4 <interrupt_131>

00003bb8 <l3562>:
    3bb8:	81510111 	cmphi	r1, r1, lsl r1

00003bbc <l3563>:
    3bbc:	e3a0e004 	mov	lr, #4

00003bc0 <l3564>:
    3bc0:	618db0be 	strhvs	fp, [sp, lr]

00003bc4 <l3565>:
    3bc4:	e1a00000 	nop			; (mov r0, r0)

00003bc8 <l3566>:
    3bc8:	e59f4000 	ldr	r4, [pc]	; 3bd0 <l3568>

00003bcc <interrupt_342>:
    3bcc:	ea000000 	b	3bd4 <l3569>

00003bd0 <l3568>:
    3bd0:	000fffb4 	.word	0x000fffb4

00003bd4 <l3569>:
    3bd4:	c104b096 	swpgt	fp, r6, [r4]

00003bd8 <l3570>:
    3bd8:	efda073f 	svc	0x00da073f

00003bdc <l3571>:
    3bdc:	e11b07ca 	tst	fp, sl, asr #15

00003be0 <l3572>:
    3be0:	e059263a 	subs	r2, r9, sl, lsr r6

00003be4 <interrupt_271>:
    3be4:	a048ba10 	subge	fp, r8, r0, lsl sl

00003be8 <l3574>:
    3be8:	e59fe000 	ldr	lr, [pc]	; 3bf0 <l3576>

00003bec <l3575>:
    3bec:	ea000000 	b	3bf4 <interrupt_258>

00003bf0 <l3576>:
    3bf0:	000fffe8 	.word	0x000fffe8

00003bf4 <interrupt_258>:
    3bf4:	214e709b 	swpbcs	r7, fp, [lr]

00003bf8 <l3578>:
    3bf8:	81dd22da 	ldrsbhi	r2, [sp, #42]	; 0x2a

00003bfc <l3579>:
    3bfc:	e3a0e01e 	mov	lr, #30

00003c00 <l3580>:
    3c00:	011d40de 	ldrsbeq	r4, [sp, -lr]

00003c04 <l3581>:
    3c04:	ef76d2b9 	svc	0x0076d2b9

00003c08 <l3582>:
    3c08:	10bfa001 	adcsne	sl, pc, r1

00003c0c <l3583>:
    3c0c:	813804aa 	teqhi	r8, sl, lsr #9

00003c10 <l3584>:
    3c10:	e07eb068 	rsbs	fp, lr, r8, rrx

00003c14 <l3585>:
    3c14:	e1e0553a 	mvn	r5, sl, lsr r5

00003c18 <interrupt_620>:
    3c18:	25cd3004 	strbcs	r3, [sp, #4]

00003c1c <l3587>:
    3c1c:	e3a0a00a 	mov	sl, #10

00003c20 <l3588>:
    3c20:	575d000a 	ldrbpl	r0, [sp, -sl]

00003c24 <l3589>:
    3c24:	50553062 	subspl	r3, r5, r2, rrx

00003c28 <l3590>:
    3c28:	e0161003 	ands	r1, r6, r3

00003c2c <l3591>:
    3c2c:	238fefc7 	orrcs	lr, pc, #796	; 0x31c

00003c30 <interrupt_389>:
    3c30:	ff46f44e 	.word	0xff46f44e

00003c34 <l3593>:
    3c34:	efd4721d 	svc	0x00d4721d

00003c38 <l3594>:
    3c38:	e09e65a2 	adds	r6, lr, r2, lsr #11

00003c3c <l3595>:
    3c3c:	a88d26d1 	stmge	sp, {r0, r4, r6, r7, r9, sl, sp}

00003c40 <l3596>:
    3c40:	40c54000 	sbcmi	r4, r5, r0

00003c44 <l3597>:
    3c44:	ef41a6f9 	svc	0x0041a6f9

00003c48 <l3598>:
    3c48:	e59f9000 	ldr	r9, [pc]	; 3c50 <l3600>

00003c4c <l3599>:
    3c4c:	ea000000 	b	3c54 <l3601>

00003c50 <l3600>:
    3c50:	000fffb8 	.word	0x000fffb8

00003c54 <l3601>:
    3c54:	e109a09b 	swp	sl, fp, [r9]

00003c58 <l3602>:
    3c58:	e04cc069 	sub	ip, ip, r9, rrx

00003c5c <l3603>:
    3c5c:	e08eb712 	add	fp, lr, r2, lsl r7

00003c60 <l3604>:
    3c60:	10f8200a 	rscsne	r2, r8, sl

00003c64 <l3605>:
    3c64:	e1f04f68 	mvns	r4, r8, ror #30

00003c68 <interrupt_808>:
    3c68:	a3590e1a 	cmpge	r9, #416	; 0x1a0

00003c6c <l3607>:
    3c6c:	e1380062 	teq	r8, r2, rrx

00003c70 <l3608>:
    3c70:	e1170008 	tst	r7, r8

00003c74 <l3609>:
    3c74:	efe57834 	svc	0x00e57834

00003c78 <l3610>:
    3c78:	9045c3e9 	subls	ip, r5, r9, ror #7

00003c7c <l3611>:
    3c7c:	508bab37 	addpl	sl, fp, r7, lsr fp

00003c80 <l3612>:
    3c80:	82a88af1 	adchi	r8, r8, #987136	; 0xf1000

00003c84 <l3613>:
    3c84:	d0fb1b50 	rscsle	r1, fp, r0, asr fp

00003c88 <l3614>:
    3c88:	e21415e1 	ands	r1, r4, #943718400	; 0x38400000

00003c8c <interrupt_897>:
    3c8c:	e59f6000 	ldr	r6, [pc]	; 3c94 <l3617>

00003c90 <l3616>:
    3c90:	ea000000 	b	3c98 <l3618>

00003c94 <l3617>:
    3c94:	000fffd8 	.word	0x000fffd8

00003c98 <l3618>:
    3c98:	3146e091 	swpbcc	lr, r1, [r6]

00003c9c <l3619>:
    3c9c:	efbbc675 	svc	0x00bbc675

00003ca0 <l3620>:
    3ca0:	b0190061 	andslt	r0, r9, r1, rrx

00003ca4 <interrupt_923>:
    3ca4:	e35501c1 	cmp	r5, #1073741872	; 0x40000030

00003ca8 <l3622>:
    3ca8:	e3a0501c 	mov	r5, #28

00003cac <l3623>:
    3cac:	e71d7005 	ldr	r7, [sp, -r5]

00003cb0 <l3624>:
    3cb0:	e49dc008 	ldr	ip, [sp], #8

00003cb4 <l3625>:
    3cb4:	e55db00b 	ldrb	fp, [sp, #-11]

00003cb8 <interrupt_702>:
    3cb8:	c18c6008 	orrgt	r6, ip, r8

00003cbc <l3627>:
    3cbc:	16503af6 	.word	0x16503af6

00003cc0 <l3628>:
    3cc0:	3a000007 	bcc	3ce4 <l3637>

00003cc4 <l3629>:
    3cc4:	e28010c6 	add	r1, r0, #198	; 0xc6

00003cc8 <interrupt_238>:
    3cc8:	e1150062 	tst	r5, r2, rrx

00003ccc <l3631>:
    3ccc:	b38120a5 	orrlt	r2, r1, #165	; 0xa5

00003cd0 <l3632>:
    3cd0:	d043c000 	suble	ip, r3, r0

00003cd4 <l3633>:
    3cd4:	01f069cf 	mvnseq	r6, pc, asr #19

00003cd8 <l3634>:
    3cd8:	e3a07b06 	mov	r7, #6144	; 0x1800

00003cdc <l3635>:
    3cdc:	e08b1002 	add	r1, fp, r2

00003ce0 <l3636>:
    3ce0:	ea000000 	b	3ce8 <l3638>

00003ce4 <l3637>:
    3ce4:	eafffff7 	b	3cc8 <interrupt_238>

00003ce8 <l3638>:
    3ce8:	830e7a70 	.word	0x830e7a70

00003cec <l3639>:
    3cec:	a15d41b8 	ldrhge	r4, [sp, #-24]	; 0xffffffe8

00003cf0 <l3640>:
    3cf0:	e8bd1191 	pop	{r0, r4, r7, r8, ip}

00003cf4 <l3641>:
    3cf4:	e00ee6a7 	and	lr, lr, r7, lsr #13

00003cf8 <interrupt_936>:
    3cf8:	da000003 	ble	3d0c <l3647>

00003cfc <interrupt_213>:
    3cfc:	305ace1a 	subscc	ip, sl, sl, lsl lr

00003d00 <l3644>:
    3d00:	31e04389 	mvncc	r4, r9, lsl #7

00003d04 <interrupt_395>:
    3d04:	205aa061 	subscs	sl, sl, r1, rrx

00003d08 <l3646>:
    3d08:	61550b01 	cmpvs	r5, r1, lsl #22

00003d0c <l3647>:
    3d0c:	e35b008b 	cmp	fp, #139	; 0x8b

00003d10 <l3648>:
    3d10:	e0d62003 	sbcs	r2, r6, r3

00003d14 <l3649>:
    3d14:	e2511316 	subs	r1, r1, #1476395008	; 0x58000000

00003d18 <l3650>:
    3d18:	70f4906e 	rscsvc	r9, r4, lr, rrx

00003d1c <l3651>:
    3d1c:	03873773 	orreq	r3, r7, #30146560	; 0x1cc0000

00003d20 <l3652>:
    3d20:	5a000004 	bpl	3d38 <l3658>

00003d24 <interrupt_111>:
    3d24:	e04ea01e 	sub	sl, lr, lr, lsl r0

00003d28 <l3654>:
    3d28:	913a0006 	teqls	sl, r6

00003d2c <l3655>:
    3d2c:	033e060f 	teqeq	lr, #15728640	; 0xf00000

00003d30 <interrupt_5>:
    3d30:	e17f0221 	cmn	pc, r1, lsr #4

00003d34 <interrupt_107>:
    3d34:	e16faf1a 	clz	sl, sl

00003d38 <l3658>:
    3d38:	0048e00f 	subeq	lr, r8, pc

00003d3c <l3659>:
    3d3c:	e2d8891f 	sbcs	r8, r8, #507904	; 0x7c000

00003d40 <interrupt_917>:
    3d40:	e59f6000 	ldr	r6, [pc]	; 3d48 <l3662>

00003d44 <l3661>:
    3d44:	ea000000 	b	3d4c <l3663>

00003d48 <l3662>:
    3d48:	000fffcc 	.word	0x000fffcc

00003d4c <l3663>:
    3d4c:	e1069099 	swp	r9, r9, [r6]

00003d50 <l3664>:
    3d50:	e0aa8007 	adc	r8, sl, r7

00003d54 <interrupt_294>:
    3d54:	754d3008 	strbvc	r3, [sp, #-8]

00003d58 <l3666>:
    3d58:	e05a9000 	subs	r9, sl, r0

00003d5c <l3667>:
    3d5c:	e16fef15 	clz	lr, r5

00003d60 <l3668>:
    3d60:	e1300555 	teq	r0, r5, asr r5

00003d64 <l3669>:
    3d64:	e1f00354 	mvns	r0, r4, asr r3

00003d68 <l3670>:
    3d68:	e3a0c022 	mov	ip, #34	; 0x22

00003d6c <l3671>:
    3d6c:	c11d40bc 	ldrhgt	r4, [sp, -ip]

00003d70 <interrupt_308>:
    3d70:	c1760004 	cmngt	r6, r4

00003d74 <l3673>:
    3d74:	e0dca063 	sbcs	sl, ip, r3, rrx

00003d78 <l3674>:
    3d78:	f339f421 	.word	0xf339f421

00003d7c <l3675>:
    3d7c:	b15dc0b2 	ldrhlt	ip, [sp, #-2]

00003d80 <interrupt_529>:
    3d80:	00cf5787 	sbceq	r5, pc, r7, lsl #15

00003d84 <interrupt_6>:
    3d84:	e0458007 	sub	r8, r5, r7

00003d88 <l3678>:
    3d88:	e40d0024 	str	r0, [sp], #-36	; 0x24

00003d8c <l3679>:
    3d8c:	e1cd91b0 	strh	r9, [sp, #16]

00003d90 <l3680>:
    3d90:	e83d01c2 	ldmda	sp!, {r1, r6, r7, r8}

00003d94 <l3681>:
    3d94:	f8053187 	.word	0xf8053187

00003d98 <l3682>:
    3d98:	ff6cb620 	.word	0xff6cb620

00003d9c <l3683>:
    3d9c:	a1cd82b8 	strhge	r8, [sp, #40]	; 0x28

00003da0 <l3684>:
    3da0:	e59f1000 	ldr	r1, [pc]	; 3da8 <l3686>

00003da4 <l3685>:
    3da4:	ea000000 	b	3dac <interrupt_229>

00003da8 <l3686>:
    3da8:	000fffe8 	.word	0x000fffe8

00003dac <interrupt_229>:
    3dac:	91416094 	swpbls	r6, r4, [r1]

00003db0 <l3688>:
    3db0:	ef2d48ed 	svc	0x002d48ed

00003db4 <l3689>:
    3db4:	e1dd32f4 	ldrsh	r3, [sp, #36]	; 0x24

00003db8 <l3690>:
    3db8:	1003847e 	andne	r8, r3, lr, ror r4

00003dbc <l3691>:
    3dbc:	83c4ed3a 	bichi	lr, r4, #3712	; 0xe80

00003dc0 <l3692>:
    3dc0:	e1320008 	teq	r2, r8

00003dc4 <l3693>:
    3dc4:	e59fc000 	ldr	ip, [pc]	; 3dcc <l3695>

00003dc8 <interrupt_688>:
    3dc8:	ea000000 	b	3dd0 <l3696>

00003dcc <l3695>:
    3dcc:	000fffe0 	.word	0x000fffe0

00003dd0 <l3696>:
    3dd0:	e14c1091 	swpb	r1, r1, [ip]

00003dd4 <l3697>:
    3dd4:	f494b836 	.word	0xf494b836

00003dd8 <l3698>:
    3dd8:	20ff8002 	rscscs	r8, pc, r2

00003ddc <l3699>:
    3ddc:	b183e002 	orrlt	lr, r3, r2

00003de0 <l3700>:
    3de0:	e13a071a 	teq	sl, sl, lsl r7

00003de4 <l3701>:
    3de4:	ef041190 	svc	0x00041190

00003de8 <l3702>:
    3de8:	e59fb000 	ldr	fp, [pc]	; 3df0 <l3704>

00003dec <l3703>:
    3dec:	ea000000 	b	3df4 <l3705>

00003df0 <l3704>:
    3df0:	000fffdc 	.word	0x000fffdc

00003df4 <l3705>:
    3df4:	114b009a 	swpbne	r0, sl, [fp]

00003df8 <l3706>:
    3df8:	e0af400f 	adc	r4, pc, pc

00003dfc <l3707>:
    3dfc:	559da040 	ldrpl	sl, [sp, #64]	; 0x40

00003e00 <l3708>:
    3e00:	e54d2005 	strb	r2, [sp, #-5]

00003e04 <l3709>:
    3e04:	a1cda1b4 	strhge	sl, [sp, #20]

00003e08 <interrupt_387>:
    3e08:	e3730157 	cmn	r3, #-1073741803	; 0xc0000015

00003e0c <l3711>:
    3e0c:	e2f2a3a2 	rscs	sl, r2, #-2013265918	; 0x88000002

00003e10 <l3712>:
    3e10:	ef056624 	svc	0x00056624

00003e14 <l3713>:
    3e14:	e59f6000 	ldr	r6, [pc]	; 3e1c <l3715>

00003e18 <l3714>:
    3e18:	ea000000 	b	3e20 <l3716>

00003e1c <l3715>:
    3e1c:	000fffc8 	.word	0x000fffc8

00003e20 <l3716>:
    3e20:	e1462099 	swpb	r2, r9, [r6]

00003e24 <l3717>:
    3e24:	e9ada000 	stmib	sp!, {sp, pc}

00003e28 <l3718>:
    3e28:	e5cd1024 	strb	r1, [sp, #36]	; 0x24

00003e2c <l3719>:
    3e2c:	efa85db6 	svc	0x00a85db6

00003e30 <l3720>:
    3e30:	15dd9029 	ldrbne	r9, [sp, #41]	; 0x29

00003e34 <interrupt_211>:
    3e34:	e197c004 	orrs	ip, r7, r4

00003e38 <l3722>:
    3e38:	e045ae10 	sub	sl, r5, r0, lsl lr

00003e3c <l3723>:
    3e3c:	d1a0b9a7 	lsrle	fp, r7, #19

00003e40 <interrupt_732>:
    3e40:	a0d89003 	sbcsge	r9, r8, r3

00003e44 <l3725>:
    3e44:	ea000006 	b	3e64 <l3733>

00003e48 <interrupt_491>:
    3e48:	e28010ef 	add	r1, r0, #239	; 0xef

00003e4c <interrupt_750>:
    3e4c:	91740007 	cmnls	r4, r7

00003e50 <interrupt_658>:
    3e50:	e040e00f 	sub	lr, r0, pc

00003e54 <interrupt_841>:
    3e54:	917301a0 	cmnls	r3, r0, lsr #3

00003e58 <l3730>:
    3e58:	e3320829 	teq	r2, #2686976	; 0x290000

00003e5c <l3731>:
    3e5c:	21f01524 	mvnscs	r1, r4, lsr #10

00003e60 <l3732>:
    3e60:	ea000000 	b	3e68 <l3734>

00003e64 <l3733>:
    3e64:	eafffff8 	b	3e4c <interrupt_750>

00003e68 <l3734>:
    3e68:	e3a0c024 	mov	ip, #36	; 0x24

00003e6c <l3735>:
    3e6c:	e7bdc00c 	ldr	ip, [sp, ip]!

00003e70 <l3736>:
    3e70:	016f1f11 	clzeq	r1, r1

00003e74 <l3737>:
    3e74:	e83d1041 	ldmda	sp!, {r0, r6, ip}

00003e78 <l3738>:
    3e78:	91c8107c 	bicls	r1, r8, ip, ror r0

00003e7c <interrupt_163>:
    3e7c:	815d30b6 	ldrhhi	r3, [sp, #-6]

00003e80 <interrupt_132>:
    3e80:	e15d41de 	ldrsb	r4, [sp, #-30]	; 0xffffffe2

00003e84 <interrupt_29>:
    3e84:	e59fc000 	ldr	ip, [pc]	; 3e8c <l3743>

00003e88 <interrupt_789>:
    3e88:	ea000000 	b	3e90 <l3744>

00003e8c <l3743>:
    3e8c:	000fffb0 	.word	0x000fffb0

00003e90 <l3744>:
    3e90:	610c3094 	swpvs	r3, r4, [ip]

00003e94 <l3745>:
    3e94:	4347138f 	.word	0x4347138f

00003e98 <interrupt_967>:
    3e98:	e0811066 	add	r1, r1, r6, rrx

00003e9c <interrupt_411>:
    3e9c:	e075ada4 	rsbs	sl, r5, r4, lsr #27

00003ea0 <l3748>:
    3ea0:	e3a04002 	mov	r4, #2

00003ea4 <l3749>:
    3ea4:	e7ddb004 	ldrb	fp, [sp, r4]

00003ea8 <l3750>:
    3ea8:	e0b71b30 	adcs	r1, r7, r0, lsr fp

00003eac <interrupt_432>:
    3eac:	91e0e007 	mvnls	lr, r7

00003eb0 <interrupt_4>:
    3eb0:	e16f2f19 	clz	r2, r9

00003eb4 <l3753>:
    3eb4:	e31c0a22 	tst	ip, #139264	; 0x22000

00003eb8 <l3754>:
    3eb8:	e17a0001 	cmn	sl, r1

00003ebc <l3755>:
    3ebc:	73062462 	.word	0x73062462

00003ec0 <l3756>:
    3ec0:	f30d7a75 	.word	0xf30d7a75

00003ec4 <l3757>:
    3ec4:	95cda001 	strbls	sl, [sp, #1]

00003ec8 <l3758>:
    3ec8:	ffeae4f1 	.word	0xffeae4f1

00003ecc <l3759>:
    3ecc:	e3a02020 	mov	r2, #32

00003ed0 <interrupt_746>:
    3ed0:	410dc0b2 	strhmi	ip, [sp, -r2]

00003ed4 <interrupt_57>:
    3ed4:	9174054a 	cmnls	r4, sl, asr #10

00003ed8 <l3762>:
    3ed8:	13e0b6f2 	mvnne	fp, #253755392	; 0xf200000

00003edc <l3763>:
    3edc:	e82d0001 	stmda	sp!, {r0}

00003ee0 <l3764>:
    3ee0:	e3330519 	teq	r3, #104857600	; 0x6400000

00003ee4 <l3765>:
    3ee4:	e3a0c016 	mov	ip, #22

00003ee8 <l3766>:
    3ee8:	a11d10fc 	ldrshge	r1, [sp, -ip]

00003eec <l3767>:
    3eec:	30649c0f 	rsbcc	r9, r4, pc, lsl #24

00003ef0 <interrupt_887>:
    3ef0:	e196a929 	orrs	sl, r6, r9, lsr #18

00003ef4 <l3769>:
    3ef4:	e25fb8ae 	subs	fp, pc, #11403264	; 0xae0000

00003ef8 <l3770>:
    3ef8:	70d17c70 	sbcsvc	r7, r1, r0, ror ip

00003efc <interrupt_310>:
    3efc:	efb30424 	svc	0x00b30424

00003f00 <l3772>:
    3f00:	e2a39cc6 	adc	r9, r3, #50688	; 0xc600

00003f04 <l3773>:
    3f04:	60c18782 	sbcvs	r8, r1, r2, lsl #15

00003f08 <l3774>:
    3f08:	e1dd62b2 	ldrh	r6, [sp, #34]	; 0x22

00003f0c <l3775>:
    3f0c:	c054c789 	subsgt	ip, r4, r9, lsl #15

00003f10 <interrupt_47>:
    3f10:	21f051c8 	mvnscs	r5, r8, asr #3

00003f14 <l3777>:
    3f14:	181d0008 	ldmdane	sp, {r3}

00003f18 <interrupt_374>:
    3f18:	e92d2000 	stmfd	sp!, {sp}

00003f1c <interrupt_919>:
    3f1c:	e3a0e02a 	mov	lr, #42	; 0x2a

00003f20 <l3780>:
    3f20:	e18d00be 	strh	r0, [sp, lr]

00003f24 <l3781>:
    3f24:	e1991002 	orrs	r1, r9, r2

00003f28 <l3782>:
    3f28:	e1380b1c 	teq	r8, ip, lsl fp

00003f2c <l3783>:
    3f2c:	e3a01014 	mov	r1, #20

00003f30 <l3784>:
    3f30:	e19d10d1 	ldrsb	r1, [sp, r1]

00003f34 <l3785>:
    3f34:	e15d11fc 	ldrsh	r1, [sp, #-28]	; 0xffffffe4

00003f38 <interrupt_495>:
    3f38:	9074a001 	rsbsls	sl, r4, r1

00003f3c <l3787>:
    3f3c:	ef0f7c00 	svc	0x000f7c00

00003f40 <l3788>:
    3f40:	7697c81e 	.word	0x7697c81e

00003f44 <l3789>:
    3f44:	e9bd037e 	ldmib	sp!, {r1, r2, r3, r4, r5, r6, r8, r9}

00003f48 <l3790>:
    3f48:	e1350467 	teq	r5, r7, ror #8

00003f4c <interrupt_50>:
    3f4c:	e41d3034 	ldr	r3, [sp], #-52	; 0x34

00003f50 <l3792>:
    3f50:	efe3be93 	svc	0x00e3be93

00003f54 <interrupt_720>:
    3f54:	e3a0c023 	mov	ip, #35	; 0x23

00003f58 <l3794>:
    3f58:	e7dde00c 	ldrb	lr, [sp, ip]

00003f5c <interrupt_66>:
    3f5c:	e35c0a26 	cmp	ip, #155648	; 0x26000

00003f60 <l3796>:
    3f60:	e49d902c 	ldr	r9, [sp], #44	; 0x2c

00003f64 <l3797>:
    3f64:	6023b007 	eorvs	fp, r3, r7

00003f68 <l3798>:
    3f68:	e15d13f8 	ldrsh	r1, [sp, #-56]	; 0xffffffc8

00003f6c <l3799>:
    3f6c:	b04f8007 	sublt	r8, pc, r7

00003f70 <interrupt_665>:
    3f70:	554d402d 	strbpl	r4, [sp, #-45]	; 0x2d

00003f74 <l3801>:
    3f74:	e90de139 	stmdb	sp, {r0, r3, r4, r5, r8, sp, lr, pc}

00003f78 <l3802>:
    3f78:	365a2976 	.word	0x365a2976

00003f7c <l3803>:
    3f7c:	12a58cdb 	adcne	r8, r5, #56064	; 0xdb00

00003f80 <l3804>:
    3f80:	8a000001 	bhi	3f8c <l3807>

00003f84 <l3805>:
    3f84:	60f5b006 	rscsvs	fp, r5, r6

00003f88 <l3806>:
    3f88:	e16f3f13 	clz	r3, r3

00003f8c <l3807>:
    3f8c:	e1c19e06 	bic	r9, r1, r6, lsl #28

00003f90 <interrupt_834>:
    3f90:	c35e032a 	cmpgt	lr, #-1476395008	; 0xa8000000

00003f94 <l3809>:
    3f94:	e15da0bc 	ldrh	sl, [sp, #-12]

00003f98 <l3810>:
    3f98:	e3a0300d 	mov	r3, #13

00003f9c <l3811>:
    3f9c:	e74d7003 	strb	r7, [sp, -r3]

00003fa0 <l3812>:
    3fa0:	5386a89f 	orrpl	sl, r6, #10420224	; 0x9f0000

00003fa4 <interrupt_31>:
    3fa4:	e319029f 	tst	r9, #-268435447	; 0xf0000009

00003fa8 <l3814>:
    3fa8:	e2c985b2 	sbc	r8, r9, #746586112	; 0x2c800000

00003fac <l3815>:
    3fac:	10006001 	andne	r6, r0, r1

00003fb0 <l3816>:
    3fb0:	e3a0c02f 	mov	ip, #47	; 0x2f

00003fb4 <l3817>:
    3fb4:	e11d80dc 	ldrsb	r8, [sp, -ip]

00003fb8 <l3818>:
    3fb8:	e3a0e01e 	mov	lr, #30

00003fbc <l3819>:
    3fbc:	e11d70fe 	ldrsh	r7, [sp, -lr]

00003fc0 <l3820>:
    3fc0:	ef30fee7 	svc	0x0030fee7

00003fc4 <l3821>:
    3fc4:	e3a03000 	mov	r3, #0

00003fc8 <l3822>:
    3fc8:	719da0b3 	ldrhvc	sl, [sp, r3]

00003fcc <interrupt_924>:
    3fcc:	055de005 	ldrbeq	lr, [sp, #-5]

00003fd0 <interrupt_256>:
    3fd0:	e3a0c018 	mov	ip, #24

00003fd4 <l3825>:
    3fd4:	e11d70dc 	ldrsb	r7, [sp, -ip]

00003fd8 <l3826>:
    3fd8:	e3a0e016 	mov	lr, #22

00003fdc <l3827>:
    3fdc:	e11d90fe 	ldrsh	r9, [sp, -lr]

00003fe0 <l3828>:
    3fe0:	c11c0513 	tstgt	ip, r3, lsl r5

00003fe4 <l3829>:
    3fe4:	e5dd200b 	ldrb	r2, [sp, #11]

00003fe8 <l3830>:
    3fe8:	0355005e 	cmpeq	r5, #94	; 0x5e

00003fec <l3831>:
    3fec:	e82d2000 	stmda	sp!, {sp}

00003ff0 <l3832>:
    3ff0:	21cd60b8 	strhcs	r6, [sp, #8]

00003ff4 <l3833>:
    3ff4:	e41d1034 	ldr	r1, [sp], #-52	; 0x34

00003ff8 <l3834>:
    3ff8:	e1910064 	orrs	r0, r1, r4, rrx

00003ffc <l3835>:
    3ffc:	f4358397 	.word	0xf4358397

00004000 <l3836>:
    4000:	6276112e 	rsbsvs	r1, r6, #-2147483637	; 0x8000000b

00004004 <l3837>:
    4004:	e3d066da 	bics	r6, r0, #228589568	; 0xda00000

00004008 <l3838>:
    4008:	e3a0a03c 	mov	sl, #60	; 0x3c

0000400c <l3839>:
    400c:	e7bd100a 	ldr	r1, [sp, sl]!

00004010 <interrupt_864>:
    4010:	ef536214 	svc	0x00536214

00004014 <l3841>:
    4014:	e3a0501a 	mov	r5, #26

00004018 <interrupt_753>:
    4018:	e11dc0f5 	ldrsh	ip, [sp, -r5]

0000401c <l3843>:
    401c:	ea000005 	b	4038 <l3850>

00004020 <l3844>:
    4020:	e050100a 	subs	r1, r0, sl

00004024 <l3845>:
    4024:	01a08001 	moveq	r8, r1

00004028 <l3846>:
    4028:	e175000b 	cmn	r5, fp

0000402c <l3847>:
    402c:	51190dce 	tstpl	r9, lr, asr #27

00004030 <l3848>:
    4030:	61e0100c 	mvnvs	r1, ip

00004034 <interrupt_459>:
    4034:	e3e0710d 	mvn	r7, #1073741827	; 0x40000003

00004038 <l3850>:
    4038:	c35200cf 	cmpgt	r2, #207	; 0xcf

0000403c <l3851>:
    403c:	917e046c 	cmnls	lr, ip, ror #8

00004040 <l3852>:
    4040:	e0a1a363 	adc	sl, r1, r3, ror #6

00004044 <l3853>:
    4044:	efe18880 	svc	0x00e18880

00004048 <interrupt_341>:
    4048:	e35e0c55 	cmp	lr, #21760	; 0x5500

0000404c <l3855>:
    404c:	e17301c9 	cmn	r3, r9, asr #3

