
exception_swi.o:     file format elf32-littlearm


Disassembly of section .text:

00000000 <vectors_start>:
       0:	ea000027 	b	a4 <main>
       4:	ea000009 	b	30 <undef_handler>
       8:	ea00000c 	b	40 <swi_handler>
       c:	ea00000f 	b	50 <prefetch_handler>
      10:	ea000012 	b	60 <dataAbt_handler>
      14:	eafffffe 	b	14 <vectors_start+0x14>
      18:	ea000016 	b	78 <irq_handler>

0000001c <fiq_handler>:
      1c:	e92d13f0 	push	{r4, r5, r6, r7, r8, r9, ip}
      20:	e59f506c 	ldr	r5, [pc, #108]	; 94 <UART_DR>
      24:	e5955000 	ldr	r5, [r5]
      28:	e8dd17e0 	ldm	sp, {r5, r6, r7, r8, r9, sl, ip}^
      2c:	e25ef004 	subs	pc, lr, #4

00000030 <undef_handler>:
      30:	e52d4004 	push	{r4}		; (str r4, [sp, #-4]!)
      34:	e51e4004 	ldr	r4, [lr, #-4]
      38:	e49d4004 	pop	{r4}		; (ldr r4, [sp], #4)
      3c:	e1b0f00e 	movs	pc, lr

00000040 <swi_handler>:
      40:	e92d500f 	push	{r0, r1, r2, r3, ip, lr}
      44:	e51e0004 	ldr	r0, [lr, #-4]
      48:	e3c004ff 	bic	r0, r0, #-16777216	; 0xff000000
      4c:	e8fd900f 	ldm	sp!, {r0, r1, r2, r3, ip, pc}^

00000050 <prefetch_handler>:
      50:	e52d3004 	push	{r3}		; (str r3, [sp, #-4]!)
      54:	e51e3004 	ldr	r3, [lr, #-4]
      58:	e49d3004 	pop	{r3}		; (ldr r3, [sp], #4)
      5c:	e1b0f00e 	movs	pc, lr

00000060 <dataAbt_handler>:
      60:	e52d5004 	push	{r5}		; (str r5, [sp, #-4]!)
      64:	e51e5008 	ldr	r5, [lr, #-8]
      68:	e3a05000 	mov	r5, #0
      6c:	e50e5008 	str	r5, [lr, #-8]
      70:	e49d5004 	pop	{r5}		; (ldr r5, [sp], #4)
      74:	e25ef008 	subs	pc, lr, #8

00000078 <irq_handler>:
      78:	e52d1004 	push	{r1}		; (str r1, [sp, #-4]!)
      7c:	e94d2000 	stmdb	sp, {sp}^
      80:	e59f100c 	ldr	r1, [pc, #12]	; 94 <UART_DR>
      84:	e5911000 	ldr	r1, [r1]
      88:	e89d0002 	ldm	sp, {r1}
      8c:	e49d1004 	pop	{r1}		; (ldr r1, [sp], #4)
      90:	e25ef004 	subs	pc, lr, #4

00000094 <UART_DR>:
      94:	16000000 	.word	0x16000000

00000098 <PIC_IRQ_ENCLR>:
      98:	1400000c 	.word	0x1400000c

0000009c <UART0_IMSC>:
      9c:	16000038 	.word	0x16000038

000000a0 <PIC_IRQ_ENSET>:
      a0:	14000008 	.word	0x14000008

000000a4 <main>:
      a4:	e51f3014 	ldr	r3, [pc, #-20]	; 98 <PIC_IRQ_ENCLR>
      a8:	e3a02002 	mov	r2, #2
      ac:	e5832000 	str	r2, [r3]
      b0:	e51f301c 	ldr	r3, [pc, #-28]	; 9c <UART0_IMSC>
      b4:	e3a02010 	mov	r2, #16
      b8:	e5832000 	str	r2, [r3]
      bc:	e51f3024 	ldr	r3, [pc, #-36]	; a0 <PIC_IRQ_ENSET>
      c0:	e3a02002 	mov	r2, #2
      c4:	e5832000 	str	r2, [r3]
      c8:	e10f0000 	mrs	r0, CPSR
      cc:	e3c000df 	bic	r0, r0, #223	; 0xdf
      d0:	e380001f 	orr	r0, r0, #31
      d4:	e129f000 	msr	CPSR_fc, r0

000000d8 <reg_0_sys>:
      d8:	e59f0000 	ldr	r0, [pc]	; e0 <reg_0_sys_val>
      dc:	ea000000 	b	e4 <reg_1_sys>

000000e0 <reg_0_sys_val>:
      e0:	6f397682 	.word	0x6f397682

000000e4 <reg_1_sys>:
      e4:	e59f1000 	ldr	r1, [pc]	; ec <reg_1_sys_val>
      e8:	ea000000 	b	f0 <reg_2_sys>

000000ec <reg_1_sys_val>:
      ec:	e5d82527 	.word	0xe5d82527

000000f0 <reg_2_sys>:
      f0:	e59f2000 	ldr	r2, [pc]	; f8 <reg_2_sys_val>
      f4:	ea000000 	b	fc <reg_3_sys>

000000f8 <reg_2_sys_val>:
      f8:	3ba27e79 	.word	0x3ba27e79

000000fc <reg_3_sys>:
      fc:	e59f3000 	ldr	r3, [pc]	; 104 <reg_3_sys_val>
     100:	ea000000 	b	108 <reg_4_sys>

00000104 <reg_3_sys_val>:
     104:	a7d510b7 	.word	0xa7d510b7

00000108 <reg_4_sys>:
     108:	e59f4000 	ldr	r4, [pc]	; 110 <reg_4_sys_val>
     10c:	ea000000 	b	114 <reg_5_sys>

00000110 <reg_4_sys_val>:
     110:	f132eeab 	.word	0xf132eeab

00000114 <reg_5_sys>:
     114:	e59f5000 	ldr	r5, [pc]	; 11c <reg_5_sys_val>
     118:	ea000000 	b	120 <reg_6_sys>

0000011c <reg_5_sys_val>:
     11c:	c8e1e65e 	.word	0xc8e1e65e

00000120 <reg_6_sys>:
     120:	e59f6000 	ldr	r6, [pc]	; 128 <reg_6_sys_val>
     124:	ea000000 	b	12c <reg_7_sys>

00000128 <reg_6_sys_val>:
     128:	962a3659 	.word	0x962a3659

0000012c <reg_7_sys>:
     12c:	e59f7000 	ldr	r7, [pc]	; 134 <reg_7_sys_val>
     130:	ea000000 	b	138 <reg_8_sys>

00000134 <reg_7_sys_val>:
     134:	c047ee98 	.word	0xc047ee98

00000138 <reg_8_sys>:
     138:	e59f8000 	ldr	r8, [pc]	; 140 <reg_8_sys_val>
     13c:	ea000000 	b	144 <reg_9_sys>

00000140 <reg_8_sys_val>:
     140:	061e0d10 	.word	0x061e0d10

00000144 <reg_9_sys>:
     144:	e59f9000 	ldr	r9, [pc]	; 14c <reg_9_sys_val>
     148:	ea000000 	b	150 <reg_10_sys>

0000014c <reg_9_sys_val>:
     14c:	dec30ceb 	.word	0xdec30ceb

00000150 <reg_10_sys>:
     150:	e59fa000 	ldr	sl, [pc]	; 158 <reg_10_sys_val>
     154:	ea000000 	b	15c <reg_11_sys>

00000158 <reg_10_sys_val>:
     158:	34c27d58 	.word	0x34c27d58

0000015c <reg_11_sys>:
     15c:	e59fb000 	ldr	fp, [pc]	; 164 <reg_11_sys_val>
     160:	ea000000 	b	168 <reg_12_sys>

00000164 <reg_11_sys_val>:
     164:	94cae3f4 	.word	0x94cae3f4

00000168 <reg_12_sys>:
     168:	e59fc000 	ldr	ip, [pc]	; 170 <reg_12_sys_val>
     16c:	ea000000 	b	174 <reg_13_sys>

00000170 <reg_12_sys_val>:
     170:	a2631761 	.word	0xa2631761

00000174 <reg_13_sys>:
     174:	e59fd000 	ldr	sp, [pc]	; 17c <reg_13_sys_val>
     178:	ea000000 	b	180 <reg_14_sys>

0000017c <reg_13_sys_val>:
     17c:	000ffff0 	.word	0x000ffff0

00000180 <reg_14_sys>:
     180:	e59fe000 	ldr	lr, [pc]	; 188 <reg_14_sys_val>
     184:	ea000000 	b	18c <reg_14_sys_end>

00000188 <reg_14_sys_val>:
     188:	a054ed97 	.word	0xa054ed97

0000018c <reg_14_sys_end>:
     18c:	e1a00000 	nop			; (mov r0, r0)
     190:	e10f0000 	mrs	r0, CPSR
     194:	e3c000df 	bic	r0, r0, #223	; 0xdf
     198:	e38000d1 	orr	r0, r0, #209	; 0xd1
     19c:	e129f000 	msr	CPSR_fc, r0

000001a0 <reg_8_fiq>:
     1a0:	e59f8000 	ldr	r8, [pc]	; 1a8 <reg_8_fiq_val>
     1a4:	ea000000 	b	1ac <reg_9_fiq>

000001a8 <reg_8_fiq_val>:
     1a8:	76480036 	.word	0x76480036

000001ac <reg_9_fiq>:
     1ac:	e59f9000 	ldr	r9, [pc]	; 1b4 <reg_9_fiq_val>
     1b0:	ea000000 	b	1b8 <reg_10_fiq>

000001b4 <reg_9_fiq_val>:
     1b4:	b3c47726 	.word	0xb3c47726

000001b8 <reg_10_fiq>:
     1b8:	e59fa000 	ldr	sl, [pc]	; 1c0 <reg_10_fiq_val>
     1bc:	ea000000 	b	1c4 <reg_11_fiq>

000001c0 <reg_10_fiq_val>:
     1c0:	86912881 	.word	0x86912881

000001c4 <reg_11_fiq>:
     1c4:	e59fb000 	ldr	fp, [pc]	; 1cc <reg_11_fiq_val>
     1c8:	ea000000 	b	1d0 <reg_12_fiq>

000001cc <reg_11_fiq_val>:
     1cc:	9de33c93 	.word	0x9de33c93

000001d0 <reg_12_fiq>:
     1d0:	e59fc000 	ldr	ip, [pc]	; 1d8 <reg_12_fiq_val>
     1d4:	ea000000 	b	1dc <reg_13_fiq>

000001d8 <reg_12_fiq_val>:
     1d8:	5faa375a 	.word	0x5faa375a

000001dc <reg_13_fiq>:
     1dc:	e59fd000 	ldr	sp, [pc]	; 1e4 <reg_13_fiq_val>
     1e0:	ea000000 	b	1e8 <reg_14_fiq>

000001e4 <reg_13_fiq_val>:
     1e4:	001ffff0 	.word	0x001ffff0

000001e8 <reg_14_fiq>:
     1e8:	e59fe000 	ldr	lr, [pc]	; 1f0 <reg_14_fiq_val>
     1ec:	ea000000 	b	1f4 <reg_14_fiq_end>

000001f0 <reg_14_fiq_val>:
     1f0:	642bad40 	.word	0x642bad40

000001f4 <reg_14_fiq_end>:
     1f4:	e1a00000 	nop			; (mov r0, r0)
     1f8:	e10f0000 	mrs	r0, CPSR
     1fc:	e3c000df 	bic	r0, r0, #223	; 0xdf
     200:	e3800092 	orr	r0, r0, #146	; 0x92
     204:	e129f000 	msr	CPSR_fc, r0

00000208 <reg_13_irq>:
     208:	e59fd000 	ldr	sp, [pc]	; 210 <reg_13_irq_val>
     20c:	ea000000 	b	214 <reg_14_irq>

00000210 <reg_13_irq_val>:
     210:	002ffff0 	.word	0x002ffff0

00000214 <reg_14_irq>:
     214:	e59fe000 	ldr	lr, [pc]	; 21c <reg_14_irq_val>
     218:	ea000000 	b	220 <reg_14_irq_end>

0000021c <reg_14_irq_val>:
     21c:	69c8387e 	.word	0x69c8387e

00000220 <reg_14_irq_end>:
     220:	e1a00000 	nop			; (mov r0, r0)
     224:	e10f0000 	mrs	r0, CPSR
     228:	e3c000df 	bic	r0, r0, #223	; 0xdf
     22c:	e380001b 	orr	r0, r0, #27
     230:	e129f000 	msr	CPSR_fc, r0

00000234 <reg_13_undef>:
     234:	e59fd000 	ldr	sp, [pc]	; 23c <reg_13_undef_val>
     238:	ea000000 	b	240 <reg_14_undef>

0000023c <reg_13_undef_val>:
     23c:	003ffff0 	.word	0x003ffff0

00000240 <reg_14_undef>:
     240:	e59fe000 	ldr	lr, [pc]	; 248 <reg_14_undef_val>
     244:	ea000000 	b	24c <reg_14_undef_end>

00000248 <reg_14_undef_val>:
     248:	527f1cf9 	.word	0x527f1cf9

0000024c <reg_14_undef_end>:
     24c:	e1a00000 	nop			; (mov r0, r0)
     250:	e10f0000 	mrs	r0, CPSR
     254:	e3c000df 	bic	r0, r0, #223	; 0xdf
     258:	e3800017 	orr	r0, r0, #23
     25c:	e129f000 	msr	CPSR_fc, r0

00000260 <reg_13_abort>:
     260:	e59fd000 	ldr	sp, [pc]	; 268 <reg_13_abort_val>
     264:	ea000000 	b	26c <reg_14_abort>

00000268 <reg_13_abort_val>:
     268:	004ffff0 	.word	0x004ffff0

0000026c <reg_14_abort>:
     26c:	e59fe000 	ldr	lr, [pc]	; 274 <reg_14_abort_val>
     270:	ea000000 	b	278 <reg_14_abort_end>

00000274 <reg_14_abort_val>:
     274:	fbb53b3a 	.word	0xfbb53b3a

00000278 <reg_14_abort_end>:
     278:	e1a00000 	nop			; (mov r0, r0)
     27c:	e10f0000 	mrs	r0, CPSR
     280:	e3c000df 	bic	r0, r0, #223	; 0xdf
     284:	e3800013 	orr	r0, r0, #19
     288:	e129f000 	msr	CPSR_fc, r0

0000028c <reg_13_svc>:
     28c:	e59fd000 	ldr	sp, [pc]	; 294 <reg_13_svc_val>
     290:	ea000000 	b	298 <reg_14_svc>

00000294 <reg_13_svc_val>:
     294:	005ffff0 	.word	0x005ffff0

00000298 <reg_14_svc>:
     298:	e59fe000 	ldr	lr, [pc]	; 2a0 <reg_14_svc_val>
     29c:	ea000000 	b	2a4 <reg_14_svc_end>

000002a0 <reg_14_svc_val>:
     2a0:	6ea844d9 	.word	0x6ea844d9

000002a4 <reg_14_svc_end>:
     2a4:	e1a00000 	nop			; (mov r0, r0)
     2a8:	e10f0000 	mrs	r0, CPSR
     2ac:	e3c000df 	bic	r0, r0, #223	; 0xdf
     2b0:	e380001f 	orr	r0, r0, #31
     2b4:	e129f000 	msr	CPSR_fc, r0
     2b8:	e59f1000 	ldr	r1, [pc]	; 2c0 <stack_0_val>
     2bc:	ea000000 	b	2c4 <stack_0>

000002c0 <stack_0_val>:
     2c0:	1e7e66ee 	.word	0x1e7e66ee

000002c4 <stack_0>:
     2c4:	e58d1000 	str	r1, [sp]
     2c8:	e59f1000 	ldr	r1, [pc]	; 2d0 <stack_1_val>
     2cc:	ea000000 	b	2d4 <stack_1>

000002d0 <stack_1_val>:
     2d0:	1bfd9180 	.word	0x1bfd9180

000002d4 <stack_1>:
     2d4:	e50d1004 	str	r1, [sp, #-4]
     2d8:	e59f1000 	ldr	r1, [pc]	; 2e0 <stack_2_val>
     2dc:	ea000000 	b	2e4 <stack_2>

000002e0 <stack_2_val>:
     2e0:	8264f2ed 	.word	0x8264f2ed

000002e4 <stack_2>:
     2e4:	e50d1008 	str	r1, [sp, #-8]
     2e8:	e59f1000 	ldr	r1, [pc]	; 2f0 <stack_3_val>
     2ec:	ea000000 	b	2f4 <stack_3>

000002f0 <stack_3_val>:
     2f0:	e1eb639c 	.word	0xe1eb639c

000002f4 <stack_3>:
     2f4:	e50d100c 	str	r1, [sp, #-12]
     2f8:	e59f1000 	ldr	r1, [pc]	; 300 <stack_4_val>
     2fc:	ea000000 	b	304 <stack_4>

00000300 <stack_4_val>:
     300:	178e558c 	.word	0x178e558c

00000304 <stack_4>:
     304:	e50d1010 	str	r1, [sp, #-16]
     308:	e59f1000 	ldr	r1, [pc]	; 310 <stack_5_val>
     30c:	ea000000 	b	314 <stack_5>

00000310 <stack_5_val>:
     310:	8c5d7129 	.word	0x8c5d7129

00000314 <stack_5>:
     314:	e50d1014 	str	r1, [sp, #-20]
     318:	e59f1000 	ldr	r1, [pc]	; 320 <stack_6_val>
     31c:	ea000000 	b	324 <stack_6>

00000320 <stack_6_val>:
     320:	bafcf353 	.word	0xbafcf353

00000324 <stack_6>:
     324:	e50d1018 	str	r1, [sp, #-24]
     328:	e59f1000 	ldr	r1, [pc]	; 330 <stack_7_val>
     32c:	ea000000 	b	334 <stack_7>

00000330 <stack_7_val>:
     330:	9723a52d 	.word	0x9723a52d

00000334 <stack_7>:
     334:	e50d101c 	str	r1, [sp, #-28]
     338:	e59f1000 	ldr	r1, [pc]	; 340 <stack_8_val>
     33c:	ea000000 	b	344 <stack_8>

00000340 <stack_8_val>:
     340:	c9f5e7e0 	.word	0xc9f5e7e0

00000344 <stack_8>:
     344:	e50d1020 	str	r1, [sp, #-32]
     348:	e59f1000 	ldr	r1, [pc]	; 350 <stack_9_val>
     34c:	ea000000 	b	354 <stack_9>

00000350 <stack_9_val>:
     350:	2c57f2bb 	.word	0x2c57f2bb

00000354 <stack_9>:
     354:	e50d1024 	str	r1, [sp, #-36]	; 0x24
     358:	e59f1000 	ldr	r1, [pc]	; 360 <stack_10_val>
     35c:	ea000000 	b	364 <stack_10>

00000360 <stack_10_val>:
     360:	58df74c7 	.word	0x58df74c7

00000364 <stack_10>:
     364:	e50d1028 	str	r1, [sp, #-40]	; 0x28
     368:	e59f1000 	ldr	r1, [pc]	; 370 <stack_11_val>
     36c:	ea000000 	b	374 <stack_11>

00000370 <stack_11_val>:
     370:	7698218e 	.word	0x7698218e

00000374 <stack_11>:
     374:	e50d102c 	str	r1, [sp, #-44]	; 0x2c
     378:	e59f1000 	ldr	r1, [pc]	; 380 <stack_12_val>
     37c:	ea000000 	b	384 <stack_12>

00000380 <stack_12_val>:
     380:	e7f155a1 	.word	0xe7f155a1

00000384 <stack_12>:
     384:	e50d1030 	str	r1, [sp, #-48]	; 0x30
     388:	e59f1000 	ldr	r1, [pc]	; 390 <stack_13_val>
     38c:	ea000000 	b	394 <stack_13>

00000390 <stack_13_val>:
     390:	15f27c29 	.word	0x15f27c29

00000394 <stack_13>:
     394:	e50d1034 	str	r1, [sp, #-52]	; 0x34
     398:	e59f1000 	ldr	r1, [pc]	; 3a0 <stack_14_val>
     39c:	ea000000 	b	3a4 <stack_14>

000003a0 <stack_14_val>:
     3a0:	fb5d5d98 	.word	0xfb5d5d98

000003a4 <stack_14>:
     3a4:	e50d1038 	str	r1, [sp, #-56]	; 0x38
     3a8:	e59f1000 	ldr	r1, [pc]	; 3b0 <stack_15_val>
     3ac:	ea000000 	b	3b4 <stack_15>

000003b0 <stack_15_val>:
     3b0:	ac7e253c 	.word	0xac7e253c

000003b4 <stack_15>:
     3b4:	e50d103c 	str	r1, [sp, #-60]	; 0x3c
     3b8:	e59f1000 	ldr	r1, [pc]	; 3c0 <stack_16_val>
     3bc:	ea000000 	b	3c4 <stack_16>

000003c0 <stack_16_val>:
     3c0:	33f8a0ac 	.word	0x33f8a0ac

000003c4 <stack_16>:
     3c4:	e50d1040 	str	r1, [sp, #-64]	; 0x40
     3c8:	e59f1000 	ldr	r1, [pc]	; 3d0 <stack_17_val>
     3cc:	ea000000 	b	3d4 <stack_17>

000003d0 <stack_17_val>:
     3d0:	e60e0fef 	.word	0xe60e0fef

000003d4 <stack_17>:
     3d4:	e50d1044 	str	r1, [sp, #-68]	; 0x44
     3d8:	e59f1000 	ldr	r1, [pc]	; 3e0 <stack_18_val>
     3dc:	ea000000 	b	3e4 <stack_18>

000003e0 <stack_18_val>:
     3e0:	be65dd61 	.word	0xbe65dd61

000003e4 <stack_18>:
     3e4:	e50d1048 	str	r1, [sp, #-72]	; 0x48
     3e8:	e59f1000 	ldr	r1, [pc]	; 3f0 <stack_19_val>
     3ec:	ea000000 	b	3f4 <stack_19>

000003f0 <stack_19_val>:
     3f0:	3af6b7f7 	.word	0x3af6b7f7

000003f4 <stack_19>:
     3f4:	e50d104c 	str	r1, [sp, #-76]	; 0x4c
     3f8:	e59f1000 	ldr	r1, [pc]	; 400 <stack_20_val>
     3fc:	ea000000 	b	404 <stack_20>

00000400 <stack_20_val>:
     400:	3fe0b16c 	.word	0x3fe0b16c

00000404 <stack_20>:
     404:	e50d1050 	str	r1, [sp, #-80]	; 0x50
     408:	e10f0000 	mrs	r0, CPSR
     40c:	e3c000df 	bic	r0, r0, #223	; 0xdf
     410:	e3800010 	orr	r0, r0, #16
     414:	e129f000 	msr	CPSR_fc, r0

00000418 <interrupt_394>:
     418:	208516e1 	addcs	r1, r5, r1, ror #13

0000041c <l2>:
     41c:	e3a09010 	mov	r9, #16

00000420 <l3>:
     420:	271d7009 	ldrcs	r7, [sp, -r9]

00000424 <l4>:
     424:	c1a0e276 	rorgt	lr, r6, r2

00000428 <l5>:
     428:	790dff5f 	stmdbvc	sp, {r0, r1, r2, r3, r4, r6, r8, r9, sl, fp, ip, sp, lr, pc}

0000042c <l6>:
     42c:	ef55efc3 	svc	0x0055efc3

00000430 <l7>:
     430:	3a000004 	bcc	448 <l13>

00000434 <l8>:
     434:	e030a00c 	eors	sl, r0, ip

00000438 <l9>:
     438:	e087571a 	add	r5, r7, sl, lsl r7

0000043c <l10>:
     43c:	611e0b36 	tstvs	lr, r6, lsr fp

00000440 <l11>:
     440:	01f0600a 	mvnseq	r6, sl

00000444 <l12>:
     444:	711f0007 	tstvc	pc, r7

00000448 <l13>:
     448:	616f0f18 	clzvs	r0, r8

0000044c <interrupt_328>:
     44c:	ef791c63 	svc	0x00791c63

00000450 <interrupt_111>:
     450:	e04f000f 	sub	r0, pc, pc

00000454 <l16>:
     454:	e19a4370 	orrs	r4, sl, r0, ror r3

00000458 <l17>:
     458:	e53d7024 	ldr	r7, [sp, #-36]!	; 0x24

0000045c <l18>:
     45c:	e0a7406f 	adc	r4, r7, pc, rrx

00000460 <l19>:
     460:	da000004 	ble	478 <l25>

00000464 <interrupt_849>:
     464:	e280100d 	add	r1, r0, #13

00000468 <l21>:
     468:	e16fef1a 	clz	lr, sl

0000046c <l22>:
     46c:	e15f05a2 	cmp	pc, r2, lsr #11

00000470 <l23>:
     470:	71370e4b 	teqvc	r7, fp, asr #28

00000474 <l24>:
     474:	ea000000 	b	47c <l26>

00000478 <l25>:
     478:	eafffffa 	b	468 <l21>

0000047c <l26>:
     47c:	1a000006 	bne	49c <l34>

00000480 <l27>:
     480:	e280100c 	add	r1, r0, #12

00000484 <l28>:
     484:	32dc9462 	sbcscc	r9, ip, #1644167168	; 0x62000000

00000488 <l29>:
     488:	d19b7b49 	orrsle	r7, fp, r9, asr #22

0000048c <l30>:
     48c:	016f4f11 	clzeq	r4, r1

00000490 <l31>:
     490:	53932946 	orrspl	r2, r3, #1146880	; 0x118000

00000494 <l32>:
     494:	e24a578d 	sub	r5, sl, #36962304	; 0x2340000

00000498 <l33>:
     498:	ea000000 	b	4a0 <interrupt_703>

0000049c <l34>:
     49c:	eafffff8 	b	484 <l28>

000004a0 <interrupt_703>:
     4a0:	e15d80be 	ldrh	r8, [sp, #-14]

000004a4 <l36>:
     4a4:	e1100e11 	tst	r0, r1, lsl lr

000004a8 <interrupt_101>:
     4a8:	ea000005 	b	4c4 <l44>

000004ac <l38>:
     4ac:	e28010f1 	add	r1, r0, #241	; 0xf1

000004b0 <l39>:
     4b0:	a0f7b9af 	rscsge	fp, r7, pc, lsr #19

000004b4 <l40>:
     4b4:	10415509 	subne	r5, r1, r9, lsl #10

000004b8 <l41>:
     4b8:	e0462e56 	sub	r2, r6, r6, asr lr

000004bc <l42>:
     4bc:	21d61e2f 	bicscs	r1, r6, pc, lsr #28

000004c0 <l43>:
     4c0:	ea000000 	b	4c8 <interrupt_989>

000004c4 <l44>:
     4c4:	eafffff9 	b	4b0 <l39>

000004c8 <interrupt_989>:
     4c8:	e5ddc000 	ldrb	ip, [sp]

000004cc <l46>:
     4cc:	e3a08010 	mov	r8, #16

000004d0 <interrupt_921>:
     4d0:	e68d0008 	str	r0, [sp], r8

000004d4 <l48>:
     4d4:	ea000004 	b	4ec <l54>

000004d8 <l49>:
     4d8:	e2801064 	add	r1, r0, #100	; 0x64

000004dc <l50>:
     4dc:	a0f603a7 	rscsge	r0, r6, r7, lsr #7

000004e0 <l51>:
     4e0:	01883002 	orreq	r3, r8, r2

000004e4 <interrupt_254>:
     4e4:	705aa275 	subsvc	sl, sl, r5, ror r2

000004e8 <l53>:
     4e8:	ea000000 	b	4f0 <l55>

000004ec <l54>:
     4ec:	eafffffa 	b	4dc <l50>

000004f0 <l55>:
     4f0:	e16f8f16 	clz	r8, r6

000004f4 <l56>:
     4f4:	41150949 	tstmi	r5, r9, asr #18

000004f8 <interrupt_144>:
     4f8:	989d4400 	ldmls	sp, {sl, lr}

000004fc <interrupt_666>:
     4fc:	ca000002 	bgt	50c <l62>

00000500 <l59>:
     500:	d078a556 	rsbsle	sl, r8, r6, asr r5

00000504 <l60>:
     504:	70d77171 	sbcsvc	r7, r7, r1, ror r1

00000508 <l61>:
     508:	c1d3900a 	bicsgt	r9, r3, sl

0000050c <l62>:
     50c:	60550e65 	subsvs	r0, r5, r5, ror #28

00000510 <interrupt_975>:
     510:	c33c0129 	teqgt	ip, #1073741834	; 0x4000000a

00000514 <l64>:
     514:	e1370062 	teq	r7, r2, rrx

00000518 <l65>:
     518:	e59fc000 	ldr	ip, [pc]	; 520 <interrupt_363>

0000051c <interrupt_355>:
     51c:	ea000000 	b	524 <l68>

00000520 <interrupt_363>:
     520:	000fffa8 	.word	0x000fffa8

00000524 <l68>:
     524:	b14c3098 	swpblt	r3, r8, [ip]

00000528 <l69>:
     528:	c0993c8e 	addsgt	r3, r9, lr, lsl #25

0000052c <l70>:
     52c:	83e04dc1 	mvnhi	r4, #12352	; 0x3040

00000530 <l71>:
     530:	e83d53cf 	ldmda	sp!, {r0, r1, r2, r3, r6, r7, r8, r9, ip, lr}

00000534 <l72>:
     534:	3007c006 	andcc	ip, r7, r6

00000538 <l73>:
     538:	e3a05028 	mov	r5, #40	; 0x28

0000053c <l74>:
     53c:	e68d4005 	str	r4, [sp], r5

00000540 <l75>:
     540:	1181e2a1 	orrne	lr, r1, r1, lsr #5

00000544 <l76>:
     544:	efee3263 	svc	0x00ee3263

00000548 <l77>:
     548:	63100b43 	tstvs	r0, #68608	; 0x10c00

0000054c <l78>:
     54c:	1009b07a 	andne	fp, r9, sl, ror r0

00000550 <l79>:
     550:	63f089af 	mvnsvs	r8, #2867200	; 0x2bc000

00000554 <l80>:
     554:	316fbf1b 	clzcc	fp, fp

00000558 <l81>:
     558:	c1130135 	tstgt	r3, r5, lsr r1

0000055c <interrupt_977>:
     55c:	e3a02032 	mov	r2, #50	; 0x32

00000560 <l83>:
     560:	710d70b2 	strhvc	r7, [sp, -r2]

00000564 <l84>:
     564:	e3e04a79 	mvn	r4, #495616	; 0x79000

00000568 <l85>:
     568:	ef1fed25 	svc	0x001fed25

0000056c <l86>:
     56c:	a002900a 	andge	r9, r2, sl

00000570 <l87>:
     570:	e59f0000 	ldr	r0, [pc]	; 578 <l89>

00000574 <l88>:
     574:	ea000000 	b	57c <l90>

00000578 <l89>:
     578:	000fffc8 	.word	0x000fffc8

0000057c <l90>:
     57c:	b140c09b 	swpblt	ip, fp, [r0]

00000580 <l91>:
     580:	5a000006 	bpl	5a0 <l99>

00000584 <interrupt_852>:
     584:	00590068 	subseq	r0, r9, r8, rrx

00000588 <l93>:
     588:	e1a0807c 	ror	r8, ip, r0

0000058c <l94>:
     58c:	e09e5005 	adds	r5, lr, r5

00000590 <l95>:
     590:	41da1002 	bicsmi	r1, sl, r2

00000594 <l96>:
     594:	20d6a23c 	sbcscs	sl, r6, ip, lsr r2

00000598 <l97>:
     598:	e26f3a29 	rsb	r3, pc, #167936	; 0x29000

0000059c <l98>:
     59c:	21802c6e 	orrcs	r2, r0, lr, ror #24

000005a0 <l99>:
     5a0:	b1a04000 	movlt	r4, r0

000005a4 <l100>:
     5a4:	b3f07b0a 	mvnslt	r7, #10240	; 0x2800

000005a8 <l101>:
     5a8:	e59f2000 	ldr	r2, [pc]	; 5b0 <l103>

000005ac <l102>:
     5ac:	ea000000 	b	5b4 <l104>

000005b0 <l103>:
     5b0:	000fffac 	.word	0x000fffac

000005b4 <l104>:
     5b4:	8142109e 	swpbhi	r1, lr, [r2]

000005b8 <l105>:
     5b8:	9a000007 	bls	5dc <l114>

000005bc <l106>:
     5bc:	e39fe05c 	orrs	lr, pc, #92	; 0x5c

000005c0 <l107>:
     5c0:	e0150172 	ands	r0, r5, r2, ror r1

000005c4 <interrupt_607>:
     5c4:	0067506b 	rsbeq	r5, r7, fp, rrx

000005c8 <l109>:
     5c8:	e3570881 	cmp	r7, #8454144	; 0x810000

000005cc <l110>:
     5cc:	30509001 	subscc	r9, r0, r1

000005d0 <l111>:
     5d0:	e3989302 	orrs	r9, r8, #134217728	; 0x8000000

000005d4 <l112>:
     5d4:	e1953881 	orrs	r3, r5, r1, lsl #17

000005d8 <interrupt_331>:
     5d8:	131c0e45 	tstne	ip, #1104	; 0x450

000005dc <l114>:
     5dc:	e1500008 	cmp	r0, r8

000005e0 <l115>:
     5e0:	e48d3004 	str	r3, [sp], #4

000005e4 <l116>:
     5e4:	05cda006 	strbeq	sl, [sp, #6]

000005e8 <l117>:
     5e8:	d1590006 	cmple	r9, r6

000005ec <l118>:
     5ec:	e52d6014 	str	r6, [sp, #-20]!

000005f0 <l119>:
     5f0:	e3c44fce 	bic	r4, r4, #824	; 0x338

000005f4 <l120>:
     5f4:	e284cdd5 	add	ip, r4, #13632	; 0x3540

000005f8 <l121>:
     5f8:	70dec004 	sbcsvc	ip, lr, r4

000005fc <l122>:
     5fc:	11110f2c 	tstne	r1, ip, lsr #30

00000600 <l123>:
     600:	0a000004 	beq	618 <l129>

00000604 <l124>:
     604:	c11e000a 	tstgt	lr, sl

00000608 <l125>:
     608:	e05417ee 	subs	r1, r4, lr, ror #15

0000060c <l126>:
     60c:	e16f4f13 	clz	r4, r3

00000610 <l127>:
     610:	015b0002 	cmpeq	fp, r2

00000614 <l128>:
     614:	51370005 	teqpl	r7, r5

00000618 <l129>:
     618:	31a01005 	movcc	r1, r5

0000061c <interrupt_959>:
     61c:	e52d700c 	str	r7, [sp, #-12]!

00000620 <l131>:
     620:	e59f6000 	ldr	r6, [pc]	; 628 <l133>

00000624 <l132>:
     624:	ea000000 	b	62c <l134>

00000628 <l133>:
     628:	000fffd8 	.word	0x000fffd8

0000062c <l134>:
     62c:	e106c098 	swp	ip, r8, [r6]

00000630 <l135>:
     630:	51998002 	orrspl	r8, r9, r2

00000634 <l136>:
     634:	e92d0004 	stmfd	sp!, {r2}

00000638 <l137>:
     638:	51e0eae6 	mvnpl	lr, r6, ror #21

0000063c <l138>:
     63c:	705b876f 	subsvc	r8, fp, pc, ror #14

00000640 <l139>:
     640:	e1760009 	cmn	r6, r9

00000644 <l140>:
     644:	e41d301c 	ldr	r3, [sp], #-28

00000648 <interrupt_585>:
     648:	e0ca3c0a 	sbc	r3, sl, sl, lsl #24

0000064c <l142>:
     64c:	e19bb92f 	orrs	fp, fp, pc, lsr #18

00000650 <l143>:
     650:	e59f7000 	ldr	r7, [pc]	; 658 <interrupt_501>

00000654 <l144>:
     654:	ea000000 	b	65c <l146>

00000658 <interrupt_501>:
     658:	000fffdc 	.word	0x000fffdc

0000065c <l146>:
     65c:	a107a090 	swpge	sl, r0, [r7]

00000660 <l147>:
     660:	e04e506c 	sub	r5, lr, ip, rrx

00000664 <interrupt_180>:
     664:	e59f5000 	ldr	r5, [pc]	; 66c <l150>

00000668 <l149>:
     668:	ea000000 	b	670 <l151>

0000066c <l150>:
     66c:	000fffa0 	.word	0x000fffa0

00000670 <l151>:
     670:	b1451099 	swpblt	r1, r9, [r5]

00000674 <l152>:
     674:	eff68fa1 	svc	0x00f68fa1

00000678 <l153>:
     678:	e3a0e02e 	mov	lr, #46	; 0x2e

0000067c <l154>:
     67c:	a19db0be 	ldrhge	fp, [sp, lr]

00000680 <interrupt_286>:
     680:	80d53000 	sbcshi	r3, r5, r0

00000684 <l156>:
     684:	8051e65c 	subshi	lr, r1, ip, asr r6

00000688 <l157>:
     688:	e1b03810 	lsls	r3, r0, r8

0000068c <l158>:
     68c:	e0a56066 	adc	r6, r5, r6, rrx

00000690 <l159>:
     690:	116f9f1a 	clzne	r9, sl

00000694 <l160>:
     694:	a1e05003 	mvnge	r5, r3

00000698 <l161>:
     698:	e310053e 	tst	r0, #260046848	; 0xf800000

0000069c <interrupt_543>:
     69c:	e1f0706e 	mvns	r7, lr, rrx

000006a0 <l163>:
     6a0:	616fbf17 	clzvs	fp, r7

000006a4 <l164>:
     6a4:	c16f0f15 	clzgt	r0, r5

000006a8 <l165>:
     6a8:	61170005 	tstvs	r7, r5

000006ac <l166>:
     6ac:	9a000007 	bls	6d0 <interrupt_446>

000006b0 <l167>:
     6b0:	e2801077 	add	r1, r0, #119	; 0x77

000006b4 <l168>:
     6b4:	c0402002 	subgt	r2, r0, r2

000006b8 <interrupt_700>:
     6b8:	d1e03000 	mvnle	r3, r0

000006bc <l170>:
     6bc:	01e03e17 	mvneq	r3, r7, lsl lr

000006c0 <l171>:
     6c0:	53e0539b 	mvnpl	r5, #1811939330	; 0x6c000002

000006c4 <interrupt_893>:
     6c4:	60828d68 	addvs	r8, r2, r8, ror #26

000006c8 <l173>:
     6c8:	b15a0009 	cmplt	sl, r9

000006cc <l174>:
     6cc:	ea000000 	b	6d4 <l176>

000006d0 <interrupt_446>:
     6d0:	eafffff7 	b	6b4 <l168>

000006d4 <l176>:
     6d4:	e89d1f7f 	ldm	sp, {r0, r1, r2, r3, r4, r5, r6, r8, r9, sl, fp, ip}

000006d8 <l177>:
     6d8:	d0173956 	andsle	r3, r7, r6, asr r9

000006dc <l178>:
     6dc:	e3a0001c 	mov	r0, #28

000006e0 <l179>:
     6e0:	519d30d0 	ldrsbpl	r3, [sp, r0]

000006e4 <l180>:
     6e4:	ea000007 	b	708 <l189>

000006e8 <interrupt_699>:
     6e8:	d119047a 	tstle	r9, sl, ror r4

000006ec <l182>:
     6ec:	e03f4001 	eors	r4, pc, r1

000006f0 <l183>:
     6f0:	d3a0ac1e 	movle	sl, #7680	; 0x1e00

000006f4 <l184>:
     6f4:	438fbd1d 	orrmi	fp, pc, #1856	; 0x740

000006f8 <l185>:
     6f8:	816f4f10 	clzhi	r4, r0

000006fc <interrupt_153>:
     6fc:	e0214003 	eor	r4, r1, r3

00000700 <l187>:
     700:	e1150351 	tst	r5, r1, asr r3

00000704 <l188>:
     704:	e18c806f 	orr	r8, ip, pc, rrx

00000708 <l189>:
     708:	e0e91009 	rsc	r1, r9, r9

0000070c <l190>:
     70c:	ef484f5b 	svc	0x00484f5b

00000710 <l191>:
     710:	e1790009 	cmn	r9, r9

00000714 <l192>:
     714:	a0d14006 	sbcsge	r4, r1, r6

00000718 <l193>:
     718:	5119027c 	tstpl	r9, ip, ror r2

0000071c <l194>:
     71c:	e0412007 	sub	r2, r1, r7

00000720 <interrupt_762>:
     720:	30467a49 	subcc	r7, r6, r9, asr #20

00000724 <l196>:
     724:	ea000007 	b	748 <l205>

00000728 <interrupt_659>:
     728:	e280106c 	add	r1, r0, #108	; 0x6c

0000072c <l198>:
     72c:	6012706c 	andsvs	r7, r2, ip, rrx

00000730 <l199>:
     730:	917b000b 	cmnls	fp, fp

00000734 <l200>:
     734:	e0daeb5c 	sbcs	lr, sl, ip, asr fp

00000738 <l201>:
     738:	e391637f 	orrs	r6, r1, #-67108863	; 0xfc000001

0000073c <l202>:
     73c:	81985005 	orrshi	r5, r8, r5

00000740 <l203>:
     740:	1225c21b 	eorne	ip, r5, #-1342177279	; 0xb0000001

00000744 <l204>:
     744:	ea000000 	b	74c <interrupt_63>

00000748 <l205>:
     748:	eafffff7 	b	72c <l198>

0000074c <interrupt_63>:
     74c:	e8bd596d 	pop	{r0, r2, r3, r5, r6, r8, fp, ip, lr}

00000750 <l207>:
     750:	e3a00008 	mov	r0, #8

00000754 <l208>:
     754:	711d20f0 	ldrshvc	r2, [sp, -r0]

00000758 <l209>:
     758:	30ce3ecb 	sbccc	r3, lr, fp, asr #29

0000075c <l210>:
     75c:	904a8fa5 	subls	r8, sl, r5, lsr #31

00000760 <l211>:
     760:	c1c4a068 	bicgt	sl, r4, r8, rrx

00000764 <l212>:
     764:	e0679348 	rsb	r9, r7, r8, asr #6

00000768 <l213>:
     768:	e1dd30fe 	ldrsh	r3, [sp, #14]

0000076c <l214>:
     76c:	e3a0a00c 	mov	sl, #12

00000770 <interrupt_685>:
     770:	e11d50ba 	ldrh	r5, [sp, -sl]

00000774 <l216>:
     774:	21d69005 	bicscs	r9, r6, r5

00000778 <l217>:
     778:	e9bd54d8 	ldmib	sp!, {r3, r4, r6, r7, sl, ip, lr}

0000077c <interrupt_278>:
     77c:	e02ba0c2 	eor	sl, fp, r2, asr #1

00000780 <interrupt_719>:
     780:	e08a700e 	add	r7, sl, lr

00000784 <l220>:
     784:	e17c008a 	cmn	ip, sl, lsl #1

00000788 <l221>:
     788:	e80d0490 	stmda	sp, {r4, r7, sl}

0000078c <l222>:
     78c:	e3a06040 	mov	r6, #64	; 0x40

00000790 <l223>:
     790:	971dc006 	ldrls	ip, [sp, -r6]

00000794 <l224>:
     794:	422c53b9 	eormi	r5, ip, #-469762046	; 0xe4000002

00000798 <l225>:
     798:	e0d6600a 	sbcs	r6, r6, sl

0000079c <l226>:
     79c:	aa000008 	bge	7c4 <l236>

000007a0 <interrupt_763>:
     7a0:	e15a0138 	cmp	sl, r8, lsr r1

000007a4 <l228>:
     7a4:	50c39c58 	sbcpl	r9, r3, r8, asr ip

000007a8 <l229>:
     7a8:	b063e009 	rsblt	lr, r3, r9

000007ac <interrupt_903>:
     7ac:	42f53641 	rscsmi	r3, r5, #68157440	; 0x4100000

000007b0 <l231>:
     7b0:	42763cad 	rsbsmi	r3, r6, #44288	; 0xad00

000007b4 <l232>:
     7b4:	615a0005 	cmpvs	sl, r5

000007b8 <l233>:
     7b8:	e37400ba 	cmn	r4, #186	; 0xba

000007bc <l234>:
     7bc:	e1881b35 	orr	r1, r8, r5, lsr fp

000007c0 <l235>:
     7c0:	c0b60001 	adcsgt	r0, r6, r1

000007c4 <l236>:
     7c4:	50945036 	addspl	r5, r4, r6, lsr r0

000007c8 <l237>:
     7c8:	40ae3c78 	adcmi	r3, lr, r8, ror ip

000007cc <l238>:
     7cc:	33b0795b 	movscc	r7, #1490944	; 0x16c000

000007d0 <l239>:
     7d0:	e40de020 	str	lr, [sp], #-32

000007d4 <l240>:
     7d4:	831f0136 	tsthi	pc, #-2147483635	; 0x8000000d

000007d8 <l241>:
     7d8:	e3a0a004 	mov	sl, #4

000007dc <l242>:
     7dc:	57ddc00a 	ldrbpl	ip, [sp, sl]

000007e0 <l243>:
     7e0:	b16f2f16 	clzlt	r2, r6

000007e4 <interrupt_667>:
     7e4:	e1dd12b8 	ldrh	r1, [sp, #40]	; 0x28

000007e8 <l245>:
     7e8:	011a03e2 	tsteq	sl, r2, ror #7

000007ec <l246>:
     7ec:	e22e1103 	eor	r1, lr, #-1073741824	; 0xc0000000

000007f0 <l247>:
     7f0:	a027386f 	eorge	r3, r7, pc, ror #16

000007f4 <l248>:
     7f4:	e3a0c007 	mov	ip, #7

000007f8 <interrupt_398>:
     7f8:	019d00dc 	ldrsbeq	r0, [sp, ip]

000007fc <interrupt_902>:
     7fc:	a0e77006 	rscge	r7, r7, r6

00000800 <l251>:
     800:	6193900e 	orrsvs	r9, r3, lr

00000804 <l252>:
     804:	ef464bf8 	svc	0x00464bf8

00000808 <interrupt_680>:
     808:	1221198d 	eorne	r1, r1, #2310144	; 0x234000

0000080c <l254>:
     80c:	01370e02 	teqeq	r7, r2, lsl #28

00000810 <l255>:
     810:	e3a0b019 	mov	fp, #25

00000814 <l256>:
     814:	075da00b 	ldrbeq	sl, [sp, -fp]

00000818 <interrupt_936>:
     818:	e49db008 	ldr	fp, [sp], #8

0000081c <l258>:
     81c:	e82d0800 	stmda	sp!, {fp}

00000820 <l259>:
     820:	581d0520 	ldmdapl	sp, {r5, r8, sl}

00000824 <l260>:
     824:	70f5846f 	rscsvc	r8, r5, pc, ror #8

00000828 <l261>:
     828:	d3f0e0f8 	mvnsle	lr, #248	; 0xf8

0000082c <l262>:
     82c:	e3a00008 	mov	r0, #8

00000830 <l263>:
     830:	87cde000 	strbhi	lr, [sp, r0]

00000834 <l264>:
     834:	702b3079 	eorvc	r3, fp, r9, ror r0

00000838 <l265>:
     838:	a0bf006f 	adcsge	r0, pc, pc, rrx

0000083c <l266>:
     83c:	e5ad6010 	str	r6, [sp, #16]!

00000840 <interrupt_969>:
     840:	43d8e41b 	bicsmi	lr, r8, #452984832	; 0x1b000000

00000844 <l268>:
     844:	e59f6000 	ldr	r6, [pc]	; 84c <l270>

00000848 <l269>:
     848:	ea000000 	b	850 <l271>

0000084c <l270>:
     84c:	000fffd8 	.word	0x000fffd8

00000850 <l271>:
     850:	a106509b 	swpge	r5, fp, [r6]

00000854 <l272>:
     854:	ef9ad647 	svc	0x009ad647

00000858 <l273>:
     858:	d17c0063 	cmnle	ip, r3, rrx

0000085c <interrupt_958>:
     85c:	e040652c 	sub	r6, r0, ip, lsr #10

00000860 <l275>:
     860:	e3a03020 	mov	r3, #32

00000864 <interrupt_311>:
     864:	e11dc0b3 	ldrh	ip, [sp, -r3]

00000868 <l277>:
     868:	e59fb000 	ldr	fp, [pc]	; 870 <l279>

0000086c <l278>:
     86c:	ea000000 	b	874 <l280>

00000870 <l279>:
     870:	000fffe4 	.word	0x000fffe4

00000874 <l280>:
     874:	e14b0091 	swpb	r0, r1, [fp]

00000878 <interrupt_479>:
     878:	e3a0c00e 	mov	ip, #14

0000087c <l282>:
     87c:	c11d40fc 	ldrshgt	r4, [sp, -ip]

00000880 <interrupt_32>:
     880:	e59fc000 	ldr	ip, [pc]	; 888 <l285>

00000884 <l284>:
     884:	ea000000 	b	88c <l286>

00000888 <l285>:
     888:	000fffa0 	.word	0x000fffa0

0000088c <l286>:
     88c:	514cb094 	swpbpl	fp, r4, [ip]

00000890 <l287>:
     890:	e0f12a73 	rscs	r2, r1, r3, ror sl

00000894 <l288>:
     894:	e3a01016 	mov	r1, #22

00000898 <l289>:
     898:	57cdb001 	strbpl	fp, [sp, r1]

0000089c <l290>:
     89c:	e1b0300c 	movs	r3, ip

000008a0 <l291>:
     8a0:	e59f4000 	ldr	r4, [pc]	; 8a8 <l293>

000008a4 <l292>:
     8a4:	ea000000 	b	8ac <l294>

000008a8 <l293>:
     8a8:	000fffb8 	.word	0x000fffb8

000008ac <l294>:
     8ac:	1104609c 	swpne	r6, ip, [r4]

000008b0 <interrupt_520>:
     8b0:	10a6ef85 	adcne	lr, r6, r5, lsl #31

000008b4 <interrupt_516>:
     8b4:	e20cc79a 	and	ip, ip, #40370176	; 0x2680000

000008b8 <l297>:
     8b8:	e048c06a 	sub	ip, r8, sl, rrx

000008bc <l298>:
     8bc:	b15dc3f2 	ldrshlt	ip, [sp, #-50]	; 0xffffffce

000008c0 <l299>:
     8c0:	e1c5e008 	bic	lr, r5, r8

000008c4 <l300>:
     8c4:	ea000005 	b	8e0 <l307>

000008c8 <l301>:
     8c8:	e28010e6 	add	r1, r0, #230	; 0xe6

000008cc <l302>:
     8cc:	c0675069 	rsbgt	r5, r7, r9, rrx

000008d0 <interrupt_657>:
     8d0:	e054a00f 	subs	sl, r4, pc

000008d4 <interrupt_24>:
     8d4:	01160615 	tsteq	r6, r5, lsl r6

000008d8 <interrupt_164>:
     8d8:	e23bcecb 	eors	ip, fp, #3248	; 0xcb0

000008dc <l306>:
     8dc:	ea000000 	b	8e4 <interrupt_716>

000008e0 <l307>:
     8e0:	eafffff9 	b	8cc <l302>

000008e4 <interrupt_716>:
     8e4:	714d12be 	strhvc	r1, [sp, #-46]	; 0xffffffd2

000008e8 <interrupt_489>:
     8e8:	e52dc010 	str	ip, [sp, #-16]!

000008ec <interrupt_267>:
     8ec:	e55de00a 	ldrb	lr, [sp, #-10]

000008f0 <l311>:
     8f0:	21cde0b8 	strhcs	lr, [sp, #8]

000008f4 <l312>:
     8f4:	e16f7f1a 	clz	r7, sl

000008f8 <interrupt_746>:
     8f8:	e3a0b016 	mov	fp, #22

000008fc <l314>:
     8fc:	b7cd700b 	strblt	r7, [sp, fp]

00000900 <l315>:
     900:	e92d4600 	push	{r9, sl, lr}

00000904 <l316>:
     904:	9181ce07 	orrls	ip, r1, r7, lsl #28

00000908 <l317>:
     908:	efb3067d 	svc	0x00b3067d

0000090c <interrupt_54>:
     90c:	b04c606f 	sublt	r6, ip, pc, rrx

00000910 <l319>:
     910:	315e0909 	cmpcc	lr, r9, lsl #18

00000914 <l320>:
     914:	e1a00000 	nop			; (mov r0, r0)

00000918 <interrupt_481>:
     918:	e3a0200f 	mov	r2, #15

0000091c <l322>:
     91c:	e11d00d2 	ldrsb	r0, [sp, -r2]

00000920 <l323>:
     920:	a0826153 	addge	r6, r2, r3, asr r1

00000924 <l324>:
     924:	614de1b6 	strhvs	lr, [sp, #-22]	; 0xffffffea

00000928 <l325>:
     928:	ca000005 	bgt	944 <interrupt_797>

0000092c <interrupt_343>:
     92c:	e28010e8 	add	r1, r0, #232	; 0xe8

00000930 <l327>:
     930:	40556009 	subsmi	r6, r5, r9

00000934 <l328>:
     934:	e16faf13 	clz	sl, r3

00000938 <l329>:
     938:	00687060 	rsbeq	r7, r8, r0, rrx

0000093c <l330>:
     93c:	e1d950e2 	bics	r5, r9, r2, ror #1

00000940 <l331>:
     940:	ea000000 	b	948 <interrupt_98>

00000944 <interrupt_797>:
     944:	eafffff9 	b	930 <l327>

00000948 <interrupt_98>:
     948:	ea000002 	b	958 <l337>

0000094c <l334>:
     94c:	e280108d 	add	r1, r0, #141	; 0x8d

00000950 <l335>:
     950:	32bb0fa3 	adcscc	r0, fp, #652	; 0x28c

00000954 <l336>:
     954:	ea000000 	b	95c <interrupt_656>

00000958 <l337>:
     958:	eafffffc 	b	950 <l335>

0000095c <interrupt_656>:
     95c:	e3a06011 	mov	r6, #17

00000960 <l339>:
     960:	974dc006 	strbls	ip, [sp, -r6]

00000964 <l340>:
     964:	c0b029e5 	adcsgt	r2, r0, r5, ror #19

00000968 <l341>:
     968:	ea000005 	b	984 <l348>

0000096c <l342>:
     96c:	e2801037 	add	r1, r0, #55	; 0x37

00000970 <interrupt_854>:
     970:	a11f06c6 	tstge	pc, r6, asr #13

00000974 <l344>:
     974:	e1e0b970 	mvn	fp, r0, ror r9

00000978 <l345>:
     978:	e3e03b61 	mvn	r3, #99328	; 0x18400

0000097c <interrupt_340>:
     97c:	e0f2407b 	rscs	r4, r2, fp, ror r0

00000980 <interrupt_308>:
     980:	ea000000 	b	988 <l349>

00000984 <l348>:
     984:	eafffff9 	b	970 <interrupt_854>

00000988 <l349>:
     988:	0275460b 	rsbseq	r4, r5, #11534336	; 0xb00000

0000098c <l350>:
     98c:	e3c8ac0a 	bic	sl, r8, #2560	; 0xa00

00000990 <l351>:
     990:	e3b0ec9f 	movs	lr, #40704	; 0x9f00

00000994 <l352>:
     994:	d0ae1008 	adcle	r1, lr, r8

00000998 <l353>:
     998:	95dd8003 	ldrbls	r8, [sp, #3]

0000099c <l354>:
     99c:	ef058319 	svc	0x00058319

000009a0 <interrupt_711>:
     9a0:	615b0d86 	cmpvs	fp, r6, lsl #27

000009a4 <interrupt_61>:
     9a4:	9a000008 	bls	9cc <l366>

000009a8 <l357>:
     9a8:	604940c9 	subvs	r4, r9, r9, asr #1

000009ac <l358>:
     9ac:	611a05ea 	tstvs	sl, sl, ror #11

000009b0 <l359>:
     9b0:	e2a05029 	adc	r5, r0, #41	; 0x29

000009b4 <l360>:
     9b4:	e2b7adb2 	adcs	sl, r7, #11392	; 0x2c80

000009b8 <interrupt_492>:
     9b8:	e152006b 	cmp	r2, fp, rrx

000009bc <interrupt_981>:
     9bc:	20c0306f 	sbccs	r3, r0, pc, rrx

000009c0 <interrupt_734>:
     9c0:	b2408a15 	sublt	r8, r0, #86016	; 0x15000

000009c4 <l364>:
     9c4:	91370005 	teqls	r7, r5

000009c8 <l365>:
     9c8:	013b0005 	teqeq	fp, r5

000009cc <l366>:
     9cc:	e1993007 	orrs	r3, r9, r7

000009d0 <l367>:
     9d0:	e3a00016 	mov	r0, #22

000009d4 <l368>:
     9d4:	311d90d0 	ldrsbcc	r9, [sp, -r0]

000009d8 <l369>:
     9d8:	e11c0140 	tst	ip, r0, asr #2

000009dc <l370>:
     9dc:	e1dde2bc 	ldrh	lr, [sp, #44]	; 0x2c

000009e0 <l371>:
     9e0:	b0c00003 	sbclt	r0, r0, r3

000009e4 <l372>:
     9e4:	e48d801c 	str	r8, [sp], #28

000009e8 <l373>:
     9e8:	ea000005 	b	a04 <l380>

000009ec <l374>:
     9ec:	e280104c 	add	r1, r0, #76	; 0x4c

000009f0 <l375>:
     9f0:	a040131b 	subge	r1, r0, fp, lsl r3

000009f4 <l376>:
     9f4:	d31208ed 	tstle	r2, #15532032	; 0xed0000

000009f8 <l377>:
     9f8:	91180169 	tstls	r8, r9, ror #2

000009fc <l378>:
     9fc:	7276052f 	rsbsvc	r0, r6, #197132288	; 0xbc00000

00000a00 <interrupt_395>:
     a00:	ea000000 	b	a08 <l381>

00000a04 <l380>:
     a04:	eafffff9 	b	9f0 <l375>

00000a08 <l381>:
     a08:	9a000006 	bls	a28 <l389>

00000a0c <l382>:
     a0c:	e27e5f7d 	rsbs	r5, lr, #500	; 0x1f4

00000a10 <l383>:
     a10:	e16f5f10 	clz	r5, r0

00000a14 <l384>:
     a14:	33d06585 	bicscc	r6, r0, #557842432	; 0x21400000

00000a18 <l385>:
     a18:	e2119b2b 	ands	r9, r1, #44032	; 0xac00

00000a1c <l386>:
     a1c:	e3cb5127 	bic	r5, fp, #-1073741815	; 0xc0000009

00000a20 <l387>:
     a20:	e1f05815 	mvns	r5, r5, lsl r8

00000a24 <l388>:
     a24:	e1ce7244 	bic	r7, lr, r4, asr #4

00000a28 <l389>:
     a28:	e3920e51 	orrs	r0, r2, #1296	; 0x510

00000a2c <l390>:
     a2c:	81dd20d2 	ldrsbhi	r2, [sp, #2]

00000a30 <l391>:
     a30:	511e000e 	tstpl	lr, lr

00000a34 <l392>:
     a34:	e9ad8010 	stmib	sp!, {r4, pc}

00000a38 <l393>:
     a38:	5a000002 	bpl	a48 <l397>

00000a3c <interrupt_436>:
     a3c:	e28010f2 	add	r1, r0, #242	; 0xf2

00000a40 <l395>:
     a40:	e0b2b008 	adcs	fp, r2, r8

00000a44 <l396>:
     a44:	ea000000 	b	a4c <interrupt_81>

00000a48 <l397>:
     a48:	eafffffc 	b	a40 <l395>

00000a4c <interrupt_81>:
     a4c:	e3310231 	teq	r1, #268435459	; 0x10000003

00000a50 <interrupt_595>:
     a50:	ef855363 	svc	0x00855363

00000a54 <interrupt_945>:
     a54:	e1310000 	teq	r1, r0

00000a58 <interrupt_303>:
     a58:	e0819c05 	add	r9, r1, r5, lsl #24

00000a5c <l402>:
     a5c:	e3948d46 	orrs	r8, r4, #4480	; 0x1180

00000a60 <interrupt_264>:
     a60:	615a0005 	cmpvs	sl, r5

00000a64 <l404>:
     a64:	e92d6000 	push	{sp, lr}

00000a68 <l405>:
     a68:	e59fe000 	ldr	lr, [pc]	; a70 <l407>

00000a6c <interrupt_712>:
     a6c:	ea000000 	b	a74 <l408>

00000a70 <l407>:
     a70:	000fffd4 	.word	0x000fffd4

00000a74 <l408>:
     a74:	e14e109a 	swpb	r1, sl, [lr]

00000a78 <l409>:
     a78:	ea000005 	b	a94 <l416>

00000a7c <l410>:
     a7c:	c05c890b 	subsgt	r8, ip, fp, lsl #18

00000a80 <l411>:
     a80:	71110335 	tstvc	r1, r5, lsr r3

00000a84 <l412>:
     a84:	d27e92e3 	rsbsle	r9, lr, #805306382	; 0x3000000e

00000a88 <l413>:
     a88:	e026206c 	eor	r2, r6, ip, rrx

00000a8c <l414>:
     a8c:	b0969004 	addslt	r9, r6, r4

00000a90 <l415>:
     a90:	2092900e 	addscs	r9, r2, lr

00000a94 <l416>:
     a94:	b17e0069 	cmnlt	lr, r9, rrx

00000a98 <interrupt_863>:
     a98:	e59fb000 	ldr	fp, [pc]	; aa0 <l419>

00000a9c <l418>:
     a9c:	ea000000 	b	aa4 <l420>

00000aa0 <l419>:
     aa0:	000fffb4 	.word	0x000fffb4

00000aa4 <l420>:
     aa4:	b14b509a 	swpblt	r5, sl, [fp]

00000aa8 <l421>:
     aa8:	b1d30063 	bicslt	r0, r3, r3, rrx

00000aac <l422>:
     aac:	726e6dab 	rsbvc	r6, lr, #10944	; 0x2ac0

00000ab0 <l423>:
     ab0:	53170121 	tstpl	r7, #1073741832	; 0x40000008

00000ab4 <l424>:
     ab4:	e3a0802c 	mov	r8, #44	; 0x2c

00000ab8 <interrupt_420>:
     ab8:	e60d5008 	str	r5, [sp], -r8

00000abc <l426>:
     abc:	efbec9bf 	svc	0x00bec9bf

00000ac0 <interrupt_799>:
     ac0:	b1b02630 	lsrslt	r2, r0, r6

00000ac4 <l428>:
     ac4:	ba000002 	blt	ad4 <l432>

00000ac8 <l429>:
     ac8:	e280109c 	add	r1, r0, #156	; 0x9c

00000acc <interrupt_820>:
     acc:	51e0136e 	mvnpl	r1, lr, ror #6

00000ad0 <interrupt_298>:
     ad0:	ea000000 	b	ad8 <l433>

00000ad4 <l432>:
     ad4:	eafffffc 	b	acc <interrupt_820>

00000ad8 <l433>:
     ad8:	e0532e27 	subs	r2, r3, r7, lsr #28

00000adc <l434>:
     adc:	c0ae6000 	adcgt	r6, lr, r0

00000ae0 <l435>:
     ae0:	e0173063 	ands	r3, r7, r3, rrx

00000ae4 <l436>:
     ae4:	e1160d22 	tst	r6, r2, lsr #26

00000ae8 <l437>:
     ae8:	e3a0302b 	mov	r3, #43	; 0x2b

00000aec <l438>:
     aec:	87dd4003 	ldrbhi	r4, [sp, r3]

00000af0 <l439>:
     af0:	a1e0200c 	mvnge	r2, ip

00000af4 <l440>:
     af4:	b0b1b819 	adcslt	fp, r1, r9, lsl r8

00000af8 <l441>:
     af8:	e3a0b014 	mov	fp, #20

00000afc <interrupt_890>:
     afc:	e7bd800b 	ldr	r8, [sp, fp]!

00000b00 <l443>:
     b00:	81dd81dc 	ldrsbhi	r8, [sp, #28]

00000b04 <interrupt_266>:
     b04:	d25aa51f 	subsle	sl, sl, #130023424	; 0x7c00000

00000b08 <interrupt_616>:
     b08:	ef426a1c 	svc	0x00426a1c

00000b0c <l446>:
     b0c:	e1dd92d3 	ldrsb	r9, [sp, #35]	; 0x23

00000b10 <l447>:
     b10:	10ae70c7 	adcne	r7, lr, r7, asr #1

00000b14 <interrupt_310>:
     b14:	e0730068 	rsbs	r0, r3, r8, rrx

00000b18 <l449>:
     b18:	e15d10d5 	ldrsb	r1, [sp, #-5]

00000b1c <l450>:
     b1c:	a1130004 	tstge	r3, r4

00000b20 <interrupt_67>:
     b20:	e0ee4001 	rsc	r4, lr, r1

00000b24 <l452>:
     b24:	e3a02016 	mov	r2, #22

00000b28 <interrupt_205>:
     b28:	c18d20b2 	strhgt	r2, [sp, r2]

00000b2c <interrupt_477>:
     b2c:	d16f7f1a 	clzle	r7, sl

00000b30 <l455>:
     b30:	e91d1800 	ldmdb	sp, {fp, ip}

00000b34 <l456>:
     b34:	e3a03002 	mov	r3, #2

00000b38 <l457>:
     b38:	e11d20b3 	ldrh	r2, [sp, -r3]

00000b3c <interrupt_77>:
     b3c:	ea000006 	b	b5c <l466>

00000b40 <l459>:
     b40:	90c2e004 	sbcls	lr, r2, r4

00000b44 <l460>:
     b44:	e16fcf14 	clz	ip, r4

00000b48 <interrupt_726>:
     b48:	e3540fda 	cmp	r4, #872	; 0x368

00000b4c <l462>:
     b4c:	63860582 	orrvs	r0, r6, #545259520	; 0x20800000

00000b50 <interrupt_920>:
     b50:	6049e000 	subvs	lr, r9, r0

00000b54 <interrupt_430>:
     b54:	d2f16c53 	rscsle	r6, r1, #21248	; 0x5300

00000b58 <l465>:
     b58:	200fbf09 	andcs	fp, pc, r9, lsl #30

00000b5c <l466>:
     b5c:	e045900f 	sub	r9, r5, pc

00000b60 <l467>:
     b60:	311e0860 	tstcc	lr, r0, ror #16

00000b64 <interrupt_964>:
     b64:	401a5769 	andsmi	r5, sl, r9, ror #14

00000b68 <l469>:
     b68:	d13902c1 	teqle	r9, r1, asr #5

00000b6c <l470>:
     b6c:	e3a09010 	mov	r9, #16

00000b70 <l471>:
     b70:	111d70b9 	ldrhne	r7, [sp, -r9]

00000b74 <l472>:
     b74:	52de594d 	sbcspl	r5, lr, #1261568	; 0x134000

00000b78 <l473>:
     b78:	e3a01015 	mov	r1, #21

00000b7c <l474>:
     b7c:	e75d6001 	ldrb	r6, [sp, -r1]

00000b80 <l475>:
     b80:	707c200f 	rsbsvc	r2, ip, pc

00000b84 <l476>:
     b84:	60733002 	rsbsvs	r3, r3, r2

00000b88 <interrupt_831>:
     b88:	efad3ec4 	svc	0x00ad3ec4

00000b8c <l478>:
     b8c:	e3a0b004 	mov	fp, #4

00000b90 <l479>:
     b90:	e7dde00b 	ldrb	lr, [sp, fp]

00000b94 <l480>:
     b94:	e3a0900b 	mov	r9, #11

00000b98 <l481>:
     b98:	47dd1009 	ldrbmi	r1, [sp, r9]

00000b9c <interrupt_348>:
     b9c:	40045e28 	andmi	r5, r4, r8, lsr #28

00000ba0 <l483>:
     ba0:	5024a24b 	eorpl	sl, r4, fp, asr #4

00000ba4 <l484>:
     ba4:	81520d42 	cmphi	r2, r2, asr #26

00000ba8 <interrupt_368>:
     ba8:	e3a0b014 	mov	fp, #20

00000bac <l486>:
     bac:	278d800b 	strcs	r8, [sp, fp]

00000bb0 <l487>:
     bb0:	b028be38 	eorlt	fp, r8, r8, lsr lr

00000bb4 <l488>:
     bb4:	e214eb1b 	ands	lr, r4, #27648	; 0x6c00

00000bb8 <l489>:
     bb8:	e3740bf9 	cmn	r4, #254976	; 0x3e400

00000bbc <l490>:
     bbc:	e3a0e020 	mov	lr, #32

00000bc0 <l491>:
     bc0:	e69db00e 	ldr	fp, [sp], lr

00000bc4 <l492>:
     bc4:	909bc06b 	addsls	ip, fp, fp, rrx

00000bc8 <l493>:
     bc8:	e201b826 	and	fp, r1, #2490368	; 0x260000

00000bcc <l494>:
     bcc:	913a0003 	teqls	sl, r3

00000bd0 <l495>:
     bd0:	e38f8e46 	orr	r8, pc, #1120	; 0x460

00000bd4 <l496>:
     bd4:	e3a0b002 	mov	fp, #2

00000bd8 <interrupt_413>:
     bd8:	e11db0db 	ldrsb	fp, [sp, -fp]

00000bdc <l498>:
     bdc:	a1a03067 	rrxge	r3, r7

00000be0 <l499>:
     be0:	e54dc026 	strb	ip, [sp, #-38]	; 0x26

00000be4 <l500>:
     be4:	919a000f 	orrsls	r0, sl, pc

00000be8 <interrupt_894>:
     be8:	5078b07b 	rsbspl	fp, r8, fp, ror r0

00000bec <l502>:
     bec:	b0b92246 	adcslt	r2, r9, r6, asr #4

00000bf0 <l503>:
     bf0:	e16f7f11 	clz	r7, r1

00000bf4 <l504>:
     bf4:	9048800e 	subls	r8, r8, lr

00000bf8 <l505>:
     bf8:	788d0402 	stmvc	sp, {r1, sl}

00000bfc <l506>:
     bfc:	d0ef7001 	rscle	r7, pc, r1

00000c00 <l507>:
     c00:	611f02aa 	tstvs	pc, sl, lsr #5

00000c04 <l508>:
     c04:	e90d68bb 	stmdb	sp, {r0, r1, r3, r4, r5, r7, fp, sp, lr}

00000c08 <l509>:
     c08:	8063cfa0 	rsbhi	ip, r3, r0, lsr #31

00000c0c <interrupt_747>:
     c0c:	e55d4037 	ldrb	r4, [sp, #-55]	; 0x37

00000c10 <l511>:
     c10:	e0381007 	eors	r1, r8, r7

00000c14 <l512>:
     c14:	e8ad080c 	stmia	sp!, {r2, r3, fp}

00000c18 <l513>:
     c18:	555d502a 	ldrbpl	r5, [sp, #-42]	; 0x2a

00000c1c <l514>:
     c1c:	50540528 	subspl	r0, r4, r8, lsr #10

00000c20 <l515>:
     c20:	efe43036 	svc	0x00e43036

00000c24 <l516>:
     c24:	614d21b8 	strhvs	r2, [sp, #-24]	; 0xffffffe8

00000c28 <l517>:
     c28:	e1a00000 	nop			; (mov r0, r0)

00000c2c <l518>:
     c2c:	e55d6046 	ldrb	r6, [sp, #-70]	; 0x46

00000c30 <l519>:
     c30:	e2499a0a 	sub	r9, r9, #40960	; 0xa000

00000c34 <l520>:
     c34:	efa5f39f 	svc	0x00a5f39f

00000c38 <l521>:
     c38:	e3a07034 	mov	r7, #52	; 0x34

00000c3c <l522>:
     c3c:	a11de0f7 	ldrshge	lr, [sp, -r7]

00000c40 <l523>:
     c40:	e3a09024 	mov	r9, #36	; 0x24

00000c44 <l524>:
     c44:	810d10b9 	strhhi	r1, [sp, -r9]

00000c48 <l525>:
     c48:	811a0d61 	tsthi	sl, r1, ror #26

00000c4c <interrupt_21>:
     c4c:	90f406ac 	rscsls	r0, r4, ip, lsr #13

00000c50 <l527>:
     c50:	e2288005 	eor	r8, r8, #5

00000c54 <l528>:
     c54:	e54d302b 	strb	r3, [sp, #-43]	; 0x2b

00000c58 <l529>:
     c58:	b1a0600e 	movlt	r6, lr

00000c5c <l530>:
     c5c:	e1a00000 	nop			; (mov r0, r0)

00000c60 <l531>:
     c60:	e27b7922 	rsbs	r7, fp, #557056	; 0x88000

00000c64 <l532>:
     c64:	aa000007 	bge	c88 <l541>

00000c68 <l533>:
     c68:	e0024479 	and	r4, r2, r9, ror r4

00000c6c <interrupt_439>:
     c6c:	00b8828e 	adcseq	r8, r8, lr, lsl #5

00000c70 <l535>:
     c70:	920b8927 	andls	r8, fp, #638976	; 0x9c000

00000c74 <l536>:
     c74:	93872425 	orrls	r2, r7, #620756992	; 0x25000000

00000c78 <interrupt_296>:
     c78:	e2259185 	eor	r9, r5, #1073741857	; 0x40000021

00000c7c <interrupt_847>:
     c7c:	e13e000c 	teq	lr, ip

00000c80 <l539>:
     c80:	711f0149 	tstvc	pc, r9, asr #2

00000c84 <l540>:
     c84:	b39b0e25 	orrslt	r0, fp, #592	; 0x250

00000c88 <l541>:
     c88:	e043cb62 	sub	ip, r3, r2, ror #22

00000c8c <interrupt_155>:
     c8c:	d2c97222 	sbcle	r7, r9, #536870914	; 0x20000002

00000c90 <interrupt_415>:
     c90:	b3923fff 	orrslt	r3, r2, #1020	; 0x3fc

00000c94 <l544>:
     c94:	0220302a 	eoreq	r3, r0, #42	; 0x2a

00000c98 <l545>:
     c98:	e3a06021 	mov	r6, #33	; 0x21

00000c9c <l546>:
     c9c:	575d5006 	ldrbpl	r5, [sp, -r6]

00000ca0 <l547>:
     ca0:	213f0067 	teqcs	pc, r7, rrx

00000ca4 <l548>:
     ca4:	01e0360f 	mvneq	r3, pc, lsl #12

00000ca8 <l549>:
     ca8:	b1daa002 	bicslt	sl, sl, r2

00000cac <l550>:
     cac:	e0811063 	add	r1, r1, r3, rrx

00000cb0 <interrupt_536>:
     cb0:	015b0060 	cmpeq	fp, r0, rrx

00000cb4 <l552>:
     cb4:	e0ff9001 	rscs	r9, pc, r1

00000cb8 <l553>:
     cb8:	51110004 	tstpl	r1, r4

00000cbc <l554>:
     cbc:	435807e9 	cmpmi	r8, #61079552	; 0x3a40000

00000cc0 <l555>:
     cc0:	e16f1f12 	clz	r1, r2

00000cc4 <l556>:
     cc4:	e3140726 	tst	r4, #9961472	; 0x980000

00000cc8 <l557>:
     cc8:	816f4f17 	clzhi	r4, r7

00000ccc <l558>:
     ccc:	e3a09029 	mov	r9, #41	; 0x29

00000cd0 <l559>:
     cd0:	e74d7009 	strb	r7, [sp, -r9]

00000cd4 <l560>:
     cd4:	ea000002 	b	ce4 <l564>

00000cd8 <l561>:
     cd8:	e2801031 	add	r1, r0, #49	; 0x31

00000cdc <l562>:
     cdc:	e248b612 	sub	fp, r8, #18874368	; 0x1200000

00000ce0 <l563>:
     ce0:	ea000000 	b	ce8 <l565>

00000ce4 <l564>:
     ce4:	eafffffc 	b	cdc <l562>

00000ce8 <l565>:
     ce8:	ea000008 	b	d10 <l575>

00000cec <l566>:
     cec:	a01e500c 	andsge	r5, lr, ip

00000cf0 <l567>:
     cf0:	c0345e04 	eorsgt	r5, r4, r4, lsl #28

00000cf4 <l568>:
     cf4:	b1380517 	teqlt	r8, r7, lsl r5

00000cf8 <l569>:
     cf8:	e0a9e002 	adc	lr, r9, r2

00000cfc <interrupt_725>:
     cfc:	2005b541 	andcs	fp, r5, r1, asr #10

00000d00 <l571>:
     d00:	9057cc72 	subsls	ip, r7, r2, ror ip

00000d04 <l572>:
     d04:	b13a03e5 	teqlt	sl, r5, ror #7

00000d08 <l573>:
     d08:	e02a1005 	eor	r1, sl, r5

00000d0c <l574>:
     d0c:	a082c230 	addge	ip, r2, r0, lsr r2

00000d10 <l575>:
     d10:	72522c03 	subsvc	r2, r2, #768	; 0x300

00000d14 <l576>:
     d14:	e1a00000 	nop			; (mov r0, r0)

00000d18 <l577>:
     d18:	b3b0511d 	movslt	r5, #1073741831	; 0x40000007

00000d1c <l578>:
     d1c:	254d1010 	strbcs	r1, [sp, #-16]

00000d20 <l579>:
     d20:	e39b3325 	orrs	r3, fp, #-1811939328	; 0x94000000

00000d24 <interrupt_90>:
     d24:	a080158f 	addge	r1, r0, pc, lsl #11

00000d28 <interrupt_996>:
     d28:	e59f7000 	ldr	r7, [pc]	; d30 <l583>

00000d2c <l582>:
     d2c:	ea000000 	b	d34 <l584>

00000d30 <l583>:
     d30:	000fffe8 	.word	0x000fffe8

00000d34 <l584>:
     d34:	7147309c 	swpbvc	r3, ip, [r7]

00000d38 <l585>:
     d38:	91f05ce6 	mvnsls	r5, r6, ror #25

00000d3c <l586>:
     d3c:	e41d6004 	ldr	r6, [sp], #-4

00000d40 <l587>:
     d40:	81c16001 	bichi	r6, r1, r1

00000d44 <interrupt_775>:
     d44:	e3a06002 	mov	r6, #2

00000d48 <l589>:
     d48:	e11d10f6 	ldrsh	r1, [sp, -r6]

00000d4c <interrupt_999>:
     d4c:	e15d63ba 	ldrh	r6, [sp, #-58]	; 0xffffffc6

00000d50 <l591>:
     d50:	ef2213f6 	svc	0x002213f6

00000d54 <l592>:
     d54:	e0130948 	ands	r0, r3, r8, asr #18

00000d58 <interrupt_806>:
     d58:	315db1b4 	ldrhcc	fp, [sp, #-20]	; 0xffffffec

00000d5c <l594>:
     d5c:	e15702cc 	cmp	r7, ip, asr #5

00000d60 <l595>:
     d60:	50567287 	subspl	r7, r6, r7, lsl #5

00000d64 <l596>:
     d64:	3a000003 	bcc	d78 <l601>

00000d68 <l597>:
     d68:	e280104b 	add	r1, r0, #75	; 0x4b

00000d6c <l598>:
     d6c:	3077b000 	rsbscc	fp, r7, r0

00000d70 <l599>:
     d70:	e09556e6 	adds	r5, r5, r6, ror #13

00000d74 <l600>:
     d74:	ea000000 	b	d7c <l602>

00000d78 <l601>:
     d78:	eafffffb 	b	d6c <l598>

00000d7c <l602>:
     d7c:	c05e8006 	subsgt	r8, lr, r6

00000d80 <l603>:
     d80:	e0aaae1c 	adc	sl, sl, ip, lsl lr

00000d84 <l604>:
     d84:	e3a0902c 	mov	r9, #44	; 0x2c

00000d88 <l605>:
     d88:	e11d50b9 	ldrh	r5, [sp, -r9]

00000d8c <l606>:
     d8c:	e93d5b69 	ldmdb	sp!, {r0, r3, r5, r6, r8, r9, fp, ip, lr}

00000d90 <l607>:
     d90:	1a000007 	bne	db4 <l616>

00000d94 <l608>:
     d94:	e1750003 	cmn	r5, r3

00000d98 <l609>:
     d98:	825e0a0b 	subshi	r0, lr, #45056	; 0xb000

00000d9c <l610>:
     d9c:	e16fbf19 	clz	fp, r9

00000da0 <l611>:
     da0:	e31b00dd 	tst	fp, #221	; 0xdd

00000da4 <l612>:
     da4:	e16f5f12 	clz	r5, r2

00000da8 <l613>:
     da8:	21a0a06c 	rrxcs	sl, ip

00000dac <l614>:
     dac:	116f9f1a 	clzne	r9, sl

00000db0 <l615>:
     db0:	e2e68745 	rsc	r8, r6, #18087936	; 0x1140000

00000db4 <l616>:
     db4:	d3a0539b 	movle	r5, #1811939330	; 0x6c000002

00000db8 <l617>:
     db8:	e0e11006 	rsc	r1, r1, r6

00000dbc <interrupt_26>:
     dbc:	5a000001 	bpl	dc8 <l621>

00000dc0 <l619>:
     dc0:	e1330068 	teq	r3, r8, rrx

00000dc4 <l620>:
     dc4:	e2eb00c1 	rsc	r0, fp, #193	; 0xc1

00000dc8 <l621>:
     dc8:	91160336 	tstls	r6, r6, lsr r3

00000dcc <l622>:
     dcc:	a0c4a354 	sbcge	sl, r4, r4, asr r3

00000dd0 <l623>:
     dd0:	21f07007 	mvnscs	r7, r7

00000dd4 <l624>:
     dd4:	e3a04000 	mov	r4, #0

00000dd8 <l625>:
     dd8:	a78d8004 	strge	r8, [sp, r4]

00000ddc <interrupt_636>:
     ddc:	e5dde003 	ldrb	lr, [sp, #3]

00000de0 <l627>:
     de0:	e3a08006 	mov	r8, #6

00000de4 <l628>:
     de4:	119d20f8 	ldrshne	r2, [sp, r8]

00000de8 <interrupt_370>:
     de8:	e19bb71b 	orrs	fp, fp, fp, lsl r7

00000dec <l630>:
     dec:	6370031e 	cmnvs	r0, #2013265920	; 0x78000000

00000df0 <l631>:
     df0:	71df5008 	bicsvc	r5, pc, r8

00000df4 <l632>:
     df4:	c01f300c 	andsgt	r3, pc, ip

00000df8 <l633>:
     df8:	416f8f17 	clzmi	r8, r7

00000dfc <l634>:
     dfc:	e06ecc12 	rsb	ip, lr, r2, lsl ip

00000e00 <l635>:
     e00:	95dd5007 	ldrbls	r5, [sp, #7]

00000e04 <l636>:
     e04:	a1310880 	teqge	r1, r0, lsl #17

00000e08 <interrupt_815>:
     e08:	d0213339 	eorle	r3, r1, r9, lsr r3

00000e0c <l638>:
     e0c:	e3a0c028 	mov	ip, #40	; 0x28

00000e10 <l639>:
     e10:	e78d600c 	str	r6, [sp, ip]

00000e14 <l640>:
     e14:	90ef4965 	rscls	r4, pc, r5, ror #18

00000e18 <interrupt_570>:
     e18:	e1720153 	cmn	r2, r3, asr r1

00000e1c <l642>:
     e1c:	31dd61f6 	ldrshcc	r6, [sp, #22]

00000e20 <interrupt_319>:
     e20:	a16fcf14 	clzge	ip, r4

00000e24 <l644>:
     e24:	004ee00f 	subeq	lr, lr, pc

00000e28 <l645>:
     e28:	e39a6000 	orrs	r6, sl, #0

00000e2c <interrupt_401>:
     e2c:	515d80fa 	ldrshpl	r8, [sp, #-10]

00000e30 <interrupt_66>:
     e30:	83a02d2f 	movhi	r2, #3008	; 0xbc0

00000e34 <l648>:
     e34:	85dd301f 	ldrbhi	r3, [sp, #31]

00000e38 <l649>:
     e38:	30e41008 	rsccc	r1, r4, r8

00000e3c <l650>:
     e3c:	a0114004 	andsge	r4, r1, r4

00000e40 <l651>:
     e40:	c0e14e7b 	rscgt	r4, r1, fp, ror lr

00000e44 <l652>:
     e44:	a1dd62f0 	ldrshge	r6, [sp, #32]

00000e48 <l653>:
     e48:	e8bd1158 	pop	{r3, r4, r6, r8, ip}

00000e4c <l654>:
     e4c:	ea000006 	b	e6c <l662>

00000e50 <l655>:
     e50:	b05ba00f 	subslt	sl, fp, pc

00000e54 <l656>:
     e54:	90457436 	subls	r7, r5, r6, lsr r4

00000e58 <l657>:
     e58:	516fef18 	clzpl	lr, r8

00000e5c <l658>:
     e5c:	61180006 	tstvs	r8, r6

00000e60 <interrupt_444>:
     e60:	e17a0b55 	cmn	sl, r5, asr fp

00000e64 <l660>:
     e64:	40b796c3 	adcsmi	r9, r7, r3, asr #13

00000e68 <l661>:
     e68:	900e600f 	andls	r6, lr, pc

00000e6c <l662>:
     e6c:	113906cc 	teqne	r9, ip, asr #13

00000e70 <l663>:
     e70:	a3a0922b 	movge	r9, #-1342177278	; 0xb0000002

00000e74 <interrupt_850>:
     e74:	e59f4000 	ldr	r4, [pc]	; e7c <interrupt_235>

00000e78 <l665>:
     e78:	ea000000 	b	e80 <l667>

00000e7c <interrupt_235>:
     e7c:	000fffdc 	.word	0x000fffdc

00000e80 <l667>:
     e80:	2144e099 	swpbcs	lr, r9, [r4]

00000e84 <l668>:
     e84:	e1a0600e 	mov	r6, lr

00000e88 <l669>:
     e88:	e0598b74 	subs	r8, r9, r4, ror fp

00000e8c <l670>:
     e8c:	20149717 	andscs	r9, r4, r7, lsl r7

00000e90 <l671>:
     e90:	e3a03020 	mov	r3, #32

00000e94 <l672>:
     e94:	e71d5003 	ldr	r5, [sp, -r3]

00000e98 <l673>:
     e98:	e59f4000 	ldr	r4, [pc]	; ea0 <l675>

00000e9c <interrupt_611>:
     e9c:	ea000000 	b	ea4 <l676>

00000ea0 <l675>:
     ea0:	000fffc0 	.word	0x000fffc0

00000ea4 <l676>:
     ea4:	d104109c 	swple	r1, ip, [r4]

00000ea8 <l677>:
     ea8:	75cdb011 	strbvc	fp, [sp, #17]

00000eac <l678>:
     eac:	13530a12 	cmpne	r3, #73728	; 0x12000

00000eb0 <l679>:
     eb0:	e181828b 	orr	r8, r1, fp, lsl #5

00000eb4 <l680>:
     eb4:	e3a07034 	mov	r7, #52	; 0x34

00000eb8 <l681>:
     eb8:	e70df007 	str	pc, [sp, -r7]

00000ebc <l682>:
     ebc:	e351082d 	cmp	r1, #2949120	; 0x2d0000

00000ec0 <l683>:
     ec0:	e110055b 	tst	r0, fp, asr r5

00000ec4 <l684>:
     ec4:	e3a0a007 	mov	sl, #7

00000ec8 <l685>:
     ec8:	e11d00da 	ldrsb	r0, [sp, -sl]

00000ecc <l686>:
     ecc:	2a000006 	bcs	eec <l694>

00000ed0 <l687>:
     ed0:	933b0aa7 	teqls	fp, #684032	; 0xa7000

00000ed4 <l688>:
     ed4:	60d8a014 	sbcsvs	sl, r8, r4, lsl r0

00000ed8 <l689>:
     ed8:	5199ca52 	orrspl	ip, r9, r2, asr sl

00000edc <l690>:
     edc:	713b06a8 	teqvc	fp, r8, lsr #13

00000ee0 <l691>:
     ee0:	c0b62966 	adcsgt	r2, r6, r6, ror #18

00000ee4 <l692>:
     ee4:	0090e617 	addseq	lr, r0, r7, lsl r6

00000ee8 <l693>:
     ee8:	e0499378 	sub	r9, r9, r8, ror r3

00000eec <l694>:
     eec:	e1300982 	teq	r0, r2, lsl #19

00000ef0 <l695>:
     ef0:	b13c0832 	teqlt	ip, r2, lsr r8

00000ef4 <l696>:
     ef4:	e1a00000 	nop			; (mov r0, r0)

00000ef8 <l697>:
     ef8:	eff3e6f5 	svc	0x00f3e6f5

00000efc <interrupt_375>:
     efc:	e3a0a00c 	mov	sl, #12

00000f00 <l699>:
     f00:	37ddc00a 	ldrbcc	ip, [sp, sl]

00000f04 <l700>:
     f04:	d042e066 	suble	lr, r2, r6, rrx

00000f08 <l701>:
     f08:	a37f0727 	cmnge	pc, #10223616	; 0x9c0000

00000f0c <l702>:
     f0c:	854db00d 	strbhi	fp, [sp, #-13]

00000f10 <l703>:
     f10:	e3a04006 	mov	r4, #6

00000f14 <interrupt_465>:
     f14:	710d40b4 	strhvc	r4, [sp, -r4]

00000f18 <l705>:
     f18:	516faf1c 	clzpl	sl, ip

00000f1c <l706>:
     f1c:	915d22fc 	ldrshls	r2, [sp, #-44]	; 0xffffffd4

00000f20 <l707>:
     f20:	e1a00e4b 	asr	r0, fp, #28

00000f24 <interrupt_280>:
     f24:	e154000f 	cmp	r4, pc

00000f28 <l709>:
     f28:	e3a06012 	mov	r6, #18

00000f2c <l710>:
     f2c:	97dda006 	ldrbls	sl, [sp, r6]

00000f30 <l711>:
     f30:	715d40dd 	ldrsbvc	r4, [sp, #-13]

00000f34 <l712>:
     f34:	e15e0fab 	cmp	lr, fp, lsr #31

00000f38 <l713>:
     f38:	11cc406a 	bicne	r4, ip, sl, rrx

00000f3c <l714>:
     f3c:	ef01c033 	svc	0x0001c033

00000f40 <l715>:
     f40:	d06e7a5b 	rsble	r7, lr, fp, asr sl

00000f44 <l716>:
     f44:	61300686 	teqvs	r0, r6, lsl #13

00000f48 <l717>:
     f48:	ea000002 	b	f58 <l721>

00000f4c <interrupt_366>:
     f4c:	504a300c 	subpl	r3, sl, ip

00000f50 <l719>:
     f50:	d03c4002 	eorsle	r4, ip, r2

00000f54 <l720>:
     f54:	316f3f10 	clzcc	r3, r0

00000f58 <l721>:
     f58:	e0a1e00f 	adc	lr, r1, pc

00000f5c <l722>:
     f5c:	115db2df 	ldrsbne	fp, [sp, #-47]	; 0xffffffd1

00000f60 <l723>:
     f60:	e1b0c004 	movs	ip, r4

00000f64 <l724>:
     f64:	e3a04013 	mov	r4, #19

00000f68 <l725>:
     f68:	e74d1004 	strb	r1, [sp, -r4]

00000f6c <interrupt_529>:
     f6c:	716f6f1a 	clzvc	r6, sl

00000f70 <l727>:
     f70:	ef9486ef 	svc	0x009486ef

00000f74 <l728>:
     f74:	01140003 	tsteq	r4, r3

00000f78 <l729>:
     f78:	e3a03018 	mov	r3, #24

00000f7c <l730>:
     f7c:	e72da003 	str	sl, [sp, -r3]!

00000f80 <l731>:
     f80:	e15d01d5 	ldrsb	r0, [sp, #-21]	; 0xffffffeb

00000f84 <l732>:
     f84:	e2c88975 	sbc	r8, r8, #1916928	; 0x1d4000

00000f88 <interrupt_944>:
     f88:	e1a00000 	nop			; (mov r0, r0)

00000f8c <l734>:
     f8c:	711e0378 	tstvc	lr, r8, ror r3

00000f90 <l735>:
     f90:	e59fb000 	ldr	fp, [pc]	; f98 <l737>

00000f94 <l736>:
     f94:	ea000000 	b	f9c <l738>

00000f98 <l737>:
     f98:	000fffd8 	.word	0x000fffd8

00000f9c <l738>:
     f9c:	610b609a 	swpvs	r6, sl, [fp]

00000fa0 <l739>:
     fa0:	e3a0102c 	mov	r1, #44	; 0x2c

00000fa4 <l740>:
     fa4:	e7bdc001 	ldr	ip, [sp, r1]!

00000fa8 <l741>:
     fa8:	40b3c007 	adcsmi	ip, r3, r7

00000fac <l742>:
     fac:	e1a00000 	nop			; (mov r0, r0)

00000fb0 <interrupt_326>:
     fb0:	e59f9000 	ldr	r9, [pc]	; fb8 <l745>

00000fb4 <l744>:
     fb4:	ea000000 	b	fbc <l746>

00000fb8 <l745>:
     fb8:	000fffd8 	.word	0x000fffd8

00000fbc <l746>:
     fbc:	4149b09a 	swpbmi	fp, sl, [r9]

00000fc0 <l747>:
     fc0:	10227003 	eorne	r7, r2, r3

00000fc4 <l748>:
     fc4:	e099c51e 	adds	ip, r9, lr, lsl r5

00000fc8 <l749>:
     fc8:	516f9f1c 	clzpl	r9, ip

00000fcc <l750>:
     fcc:	01d11005 	bicseq	r1, r1, r5

00000fd0 <l751>:
     fd0:	6156000e 	cmpvs	r6, lr

00000fd4 <interrupt_438>:
     fd4:	101be063 	andsne	lr, fp, r3, rrx

00000fd8 <l753>:
     fd8:	e3a04010 	mov	r4, #16

00000fdc <l754>:
     fdc:	e74db004 	strb	fp, [sp, -r4]

00000fe0 <l755>:
     fe0:	e59f6000 	ldr	r6, [pc]	; fe8 <interrupt_48>

00000fe4 <l756>:
     fe4:	ea000000 	b	fec <l758>

00000fe8 <interrupt_48>:
     fe8:	000fffdc 	.word	0x000fffdc

00000fec <l758>:
     fec:	e146a092 	swpb	sl, r2, [r6]

00000ff0 <l759>:
     ff0:	155dc045 	ldrbne	ip, [sp, #-69]	; 0x45

00000ff4 <l760>:
     ff4:	e1b08007 	movs	r8, r7

00000ff8 <l761>:
     ff8:	514d22b0 	strhpl	r2, [sp, #-32]	; 0xffffffe0

00000ffc <interrupt_754>:
     ffc:	e55d102c 	ldrb	r1, [sp, #-44]	; 0x2c

00001000 <l763>:
    1000:	51590000 	cmppl	r9, r0

00001004 <l764>:
    1004:	e1120f4a 	tst	r2, sl, asr #30

00001008 <l765>:
    1008:	e1a027aa 	lsr	r2, sl, #15

0000100c <l766>:
    100c:	e1380001 	teq	r8, r1

00001010 <l767>:
    1010:	e52d103c 	str	r1, [sp, #-60]!	; 0x3c

00001014 <l768>:
    1014:	ef914fdd 	svc	0x00914fdd

00001018 <l769>:
    1018:	61dd93dc 	ldrsbvs	r9, [sp, #60]	; 0x3c

0000101c <interrupt_15>:
    101c:	e3d99fd5 	bics	r9, r9, #852	; 0x354

00001020 <l771>:
    1020:	e93d0800 	ldmdb	sp!, {fp}

00001024 <l772>:
    1024:	e3a0a00c 	mov	sl, #12

00001028 <l773>:
    1028:	e19de0ba 	ldrh	lr, [sp, sl]

0000102c <l774>:
    102c:	e1a00000 	nop			; (mov r0, r0)

00001030 <l775>:
    1030:	1272000e 	rsbsne	r0, r2, #14

00001034 <l776>:
    1034:	53e024d1 	mvnpl	r2, #-788529152	; 0xd1000000

00001038 <l777>:
    1038:	ef62da15 	svc	0x0062da15

0000103c <l778>:
    103c:	71b08005 	movsvc	r8, r5

00001040 <l779>:
    1040:	8a000006 	bhi	1060 <l787>

00001044 <interrupt_494>:
    1044:	b133006c 	teqlt	r3, ip, rrx

00001048 <l781>:
    1048:	206c4009 	rsbcs	r4, ip, r9

0000104c <interrupt_559>:
    104c:	e07c3003 	rsbs	r3, ip, r3

00001050 <l783>:
    1050:	8197500e 	orrshi	r5, r7, lr

00001054 <l784>:
    1054:	308f4462 	addcc	r4, pc, r2, ror #8

00001058 <l785>:
    1058:	800e900b 	andhi	r9, lr, fp

0000105c <interrupt_339>:
    105c:	82840c25 	addhi	r0, r4, #9472	; 0x2500

00001060 <l787>:
    1060:	e0607064 	rsb	r7, r0, r4, rrx

00001064 <interrupt_960>:
    1064:	e3a0c032 	mov	ip, #50	; 0x32

00001068 <l789>:
    1068:	d7cd200c 	strble	r2, [sp, ip]

0000106c <l790>:
    106c:	11ca7a37 	bicne	r7, sl, r7, lsr sl

00001070 <l791>:
    1070:	e98da2e2 	stmib	sp, {r1, r5, r6, r7, r9, sp, pc}

00001074 <l792>:
    1074:	439b5422 	orrsmi	r5, fp, #570425344	; 0x22000000

00001078 <l793>:
    1078:	51b02e02 	lslspl	r2, r2, #28

0000107c <interrupt_196>:
    107c:	e59f0000 	ldr	r0, [pc]	; 1084 <l796>

00001080 <interrupt_770>:
    1080:	ea000000 	b	1088 <interrupt_379>

00001084 <l796>:
    1084:	000fffdc 	.word	0x000fffdc

00001088 <interrupt_379>:
    1088:	1100e093 	swpne	lr, r3, [r0]

0000108c <l798>:
    108c:	e8bd05c3 	pop	{r0, r1, r6, r7, r8, sl}

00001090 <l799>:
    1090:	e3a06020 	mov	r6, #32

00001094 <l800>:
    1094:	e19db0b6 	ldrh	fp, [sp, r6]

00001098 <l801>:
    1098:	81dd40fe 	ldrshhi	r4, [sp, #14]

0000109c <interrupt_848>:
    109c:	ef905c64 	svc	0x00905c64

000010a0 <l803>:
    10a0:	e16f5f13 	clz	r5, r3

000010a4 <l804>:
    10a4:	e0372231 	eors	r2, r7, r1, lsr r2

000010a8 <l805>:
    10a8:	e93d44c3 	ldmdb	sp!, {r0, r1, r6, r7, sl, lr}

000010ac <l806>:
    10ac:	e5bd4004 	ldr	r4, [sp, #4]!

000010b0 <l807>:
    10b0:	81750812 	cmnhi	r5, r2, lsl r8

000010b4 <l808>:
    10b4:	e3a0e004 	mov	lr, #4

000010b8 <interrupt_972>:
    10b8:	e71d000e 	ldr	r0, [sp, -lr]

000010bc <l810>:
    10bc:	e1a0ae19 	lsl	sl, r9, lr

000010c0 <l811>:
    10c0:	61dd22d5 	ldrsbvs	r2, [sp, #37]	; 0x25

000010c4 <l812>:
    10c4:	e0da5002 	sbcs	r5, sl, r2

000010c8 <l813>:
    10c8:	71b0800e 	movsvc	r8, lr

000010cc <l814>:
    10cc:	e0512000 	subs	r2, r1, r0

000010d0 <l815>:
    10d0:	e5ad2030 	str	r2, [sp, #48]!	; 0x30

000010d4 <l816>:
    10d4:	ba000006 	blt	10f4 <l824>

000010d8 <l817>:
    10d8:	e3790008 	cmn	r9, #8

000010dc <l818>:
    10dc:	63380469 	teqvs	r8, #1761607680	; 0x69000000

000010e0 <l819>:
    10e0:	60d97183 	sbcsvs	r7, r9, r3, lsl #3

000010e4 <l820>:
    10e4:	a0bf878a 	adcsge	r8, pc, sl, lsl #15

000010e8 <l821>:
    10e8:	e0455001 	sub	r5, r5, r1

000010ec <interrupt_735>:
    10ec:	b3f00fd9 	mvnslt	r0, #868	; 0x364

000010f0 <interrupt_596>:
    10f0:	23530363 	cmpcs	r3, #-1946157055	; 0x8c000001

000010f4 <l824>:
    10f4:	e1dc5383 	bics	r5, ip, r3, lsl #7

000010f8 <l825>:
    10f8:	0249b507 	subeq	fp, r9, #29360128	; 0x1c00000

000010fc <l826>:
    10fc:	e0119e39 	ands	r9, r1, r9, lsr lr

00001100 <l827>:
    1100:	80d98e13 	sbcshi	r8, r9, r3, lsl lr

00001104 <l828>:
    1104:	e02a5002 	eor	r5, sl, r2

00001108 <l829>:
    1108:	e3a04017 	mov	r4, #23

0000110c <l830>:
    110c:	e11d00d4 	ldrsb	r0, [sp, -r4]

00001110 <l831>:
    1110:	e0ae7e7a 	adc	r7, lr, sl, ror lr

00001114 <l832>:
    1114:	e59fb000 	ldr	fp, [pc]	; 111c <l834>

00001118 <l833>:
    1118:	ea000000 	b	1120 <l835>

0000111c <l834>:
    111c:	000fffbc 	.word	0x000fffbc

00001120 <l835>:
    1120:	210b6099 	swpcs	r6, r9, [fp]

00001124 <l836>:
    1124:	e0b97066 	adcs	r7, r9, r6, rrx

00001128 <l837>:
    1128:	90f31559 	rscsls	r1, r3, r9, asr r5

0000112c <l838>:
    112c:	a139006a 	teqge	r9, sl, rrx

00001130 <l839>:
    1130:	71dd90f8 	ldrshvc	r9, [sp, #8]

00001134 <interrupt_608>:
    1134:	e2529d3f 	subs	r9, r2, #4032	; 0xfc0

00001138 <interrupt_279>:
    1138:	e5cde00b 	strb	lr, [sp, #11]

0000113c <l842>:
    113c:	e82de000 	stmda	sp!, {sp, lr, pc}

00001140 <l843>:
    1140:	c096e250 	addsgt	lr, r6, r0, asr r2

00001144 <l844>:
    1144:	e398132e 	orrs	r1, r8, #-1207959552	; 0xb8000000

00001148 <l845>:
    1148:	51580006 	cmppl	r8, r6

0000114c <l846>:
    114c:	e59fe000 	ldr	lr, [pc]	; 1154 <interrupt_631>

00001150 <l847>:
    1150:	ea000000 	b	1158 <l849>

00001154 <interrupt_631>:
    1154:	000fffe0 	.word	0x000fffe0

00001158 <l849>:
    1158:	414e1092 	swpbmi	r1, r2, [lr]

0000115c <l850>:
    115c:	517c045a 	cmnpl	ip, sl, asr r4

00001160 <l851>:
    1160:	905fa064 	subsls	sl, pc, r4, rrx

00001164 <interrupt_55>:
    1164:	e3a0c004 	mov	ip, #4

00001168 <l853>:
    1168:	e19d10dc 	ldrsb	r1, [sp, ip]

0000116c <l854>:
    116c:	e51d7010 	ldr	r7, [sp, #-16]

00001170 <l855>:
    1170:	e29b010e 	adds	r0, fp, #-2147483645	; 0x80000003

00001174 <l856>:
    1174:	e93d0d84 	ldmdb	sp!, {r2, r7, r8, sl, fp}

00001178 <l857>:
    1178:	001fbe09 	andseq	fp, pc, r9, lsl #28

0000117c <l858>:
    117c:	ef1c4799 	svc	0x001c4799

00001180 <l859>:
    1180:	e59f9000 	ldr	r9, [pc]	; 1188 <l861>

00001184 <l860>:
    1184:	ea000000 	b	118c <l862>

00001188 <l861>:
    1188:	000fffe8 	.word	0x000fffe8

0000118c <l862>:
    118c:	01497092 	swpbeq	r7, r2, [r9]

00001190 <l863>:
    1190:	615d11ba 	ldrhvs	r1, [sp, #-26]	; 0xffffffe6

00001194 <l864>:
    1194:	ea000006 	b	11b4 <l872>

00001198 <interrupt_376>:
    1198:	e28010ca 	add	r1, r0, #202	; 0xca

0000119c <l866>:
    119c:	9029891c 	eorls	r8, r9, ip, lsl r9

000011a0 <interrupt_184>:
    11a0:	e1570063 	cmp	r7, r3, rrx

000011a4 <l868>:
    11a4:	e0c3900b 	sbc	r9, r3, fp

000011a8 <l869>:
    11a8:	73f0cd32 	mvnsvc	ip, #3200	; 0xc80

000011ac <l870>:
    11ac:	5138000f 	teqpl	r8, pc

000011b0 <l871>:
    11b0:	ea000000 	b	11b8 <l873>

000011b4 <l872>:
    11b4:	eafffff8 	b	119c <l866>

000011b8 <l873>:
    11b8:	5022885a 	eorpl	r8, r2, sl, asr r8

000011bc <l874>:
    11bc:	d0d556e8 	sbcsle	r5, r5, r8, ror #13

000011c0 <l875>:
    11c0:	9177006c 	cmnls	r7, ip, rrx

000011c4 <l876>:
    11c4:	d1dda1f4 	ldrshle	sl, [sp, #20]

000011c8 <l877>:
    11c8:	d31c0462 	tstle	ip, #1644167168	; 0x62000000

000011cc <l878>:
    11cc:	41cd91b8 	strhmi	r9, [sp, #24]

000011d0 <l879>:
    11d0:	efe7f8b9 	svc	0x00e7f8b9

000011d4 <l880>:
    11d4:	2291c42d 	addscs	ip, r1, #754974720	; 0x2d000000

000011d8 <interrupt_803>:
    11d8:	e0687c47 	rsb	r7, r8, r7, asr #24

000011dc <l882>:
    11dc:	b2713869 	rsbslt	r3, r1, #6881280	; 0x690000

000011e0 <l883>:
    11e0:	211a000a 	tstcs	sl, sl

000011e4 <l884>:
    11e4:	da000008 	ble	120c <interrupt_755>

000011e8 <l885>:
    11e8:	70c34e70 	sbcvc	r4, r3, r0, ror lr

000011ec <l886>:
    11ec:	e24911ee 	sub	r1, r9, #-2147483589	; 0x8000003b

000011f0 <l887>:
    11f0:	e1f0ba5b 	mvns	fp, fp, asr sl

000011f4 <l888>:
    11f4:	e1750a10 	cmn	r5, r0, lsl sl

000011f8 <l889>:
    11f8:	7034700b 	eorsvc	r7, r4, fp

000011fc <l890>:
    11fc:	50664217 	rsbpl	r4, r6, r7, lsl r2

00001200 <l891>:
    1200:	e2ff0a46 	rscs	r0, pc, #286720	; 0x46000

00001204 <interrupt_31>:
    1204:	e3a0eca2 	mov	lr, #41472	; 0xa200

00001208 <interrupt_648>:
    1208:	e1770005 	cmn	r7, r5

0000120c <interrupt_755>:
    120c:	52400191 	subpl	r0, r0, #1073741860	; 0x40000024

00001210 <l895>:
    1210:	e3a05008 	mov	r5, #8

00001214 <l896>:
    1214:	e7ad1005 	str	r1, [sp, r5]!

00001218 <l897>:
    1218:	70a80754 	adcvc	r0, r8, r4, asr r7

0000121c <l898>:
    121c:	e04994a2 	sub	r9, r9, r2, lsr #9

00001220 <interrupt_748>:
    1220:	e255ed96 	subs	lr, r5, #9600	; 0x2580

00001224 <l900>:
    1224:	e3a07024 	mov	r7, #36	; 0x24

00001228 <l901>:
    1228:	511dc0f7 	ldrshpl	ip, [sp, -r7]

0000122c <l902>:
    122c:	e59f2000 	ldr	r2, [pc]	; 1234 <l904>

00001230 <l903>:
    1230:	ea000000 	b	1238 <l905>

00001234 <l904>:
    1234:	000fffd4 	.word	0x000fffd4

00001238 <l905>:
    1238:	e102809b 	swp	r8, fp, [r2]

0000123c <interrupt_75>:
    123c:	81b051c6 	asrshi	r5, r6, #3

00001240 <interrupt_74>:
    1240:	7a000003 	bvc	1254 <l912>

00001244 <l908>:
    1244:	e28010cd 	add	r1, r0, #205	; 0xcd

00001248 <l909>:
    1248:	00b4ae59 	adcseq	sl, r4, r9, asr lr

0000124c <l910>:
    124c:	81c90554 	bichi	r0, r9, r4, asr r5

00001250 <l911>:
    1250:	ea000000 	b	1258 <interrupt_994>

00001254 <l912>:
    1254:	eafffffb 	b	1248 <l909>

00001258 <interrupt_994>:
    1258:	e1a0e004 	mov	lr, r4

0000125c <l914>:
    125c:	ef8b00df 	svc	0x008b00df

00001260 <l915>:
    1260:	e094b579 	adds	fp, r4, r9, ror r5

00001264 <l916>:
    1264:	a3d03992 	bicsge	r3, r0, #2392064	; 0x248000

00001268 <l917>:
    1268:	e1b01007 	movs	r1, r7

0000126c <interrupt_583>:
    126c:	e92d5958 	push	{r3, r4, r6, r8, fp, ip, lr}

00001270 <l919>:
    1270:	50644834 	rsbpl	r4, r4, r4, lsr r8

00001274 <l920>:
    1274:	e3a0c002 	mov	ip, #2

00001278 <l921>:
    1278:	710d20bc 	strhvc	r2, [sp, -ip]

0000127c <l922>:
    127c:	419b3157 	orrsmi	r3, fp, r7, asr r1

00001280 <l923>:
    1280:	116f1f1c 	clzne	r1, ip

00001284 <l924>:
    1284:	e08b5813 	add	r5, fp, r3, lsl r8

00001288 <l925>:
    1288:	e59f3000 	ldr	r3, [pc]	; 1290 <l927>

0000128c <l926>:
    128c:	ea000000 	b	1294 <l928>

00001290 <l927>:
    1290:	000fffbc 	.word	0x000fffbc

00001294 <l928>:
    1294:	e1431099 	swpb	r1, r9, [r3]

00001298 <l929>:
    1298:	b013c00f 	andslt	ip, r3, pc

0000129c <l930>:
    129c:	e1a00000 	nop			; (mov r0, r0)

000012a0 <interrupt_816>:
    12a0:	605c3b65 	subsvs	r3, ip, r5, ror #22

000012a4 <interrupt_122>:
    12a4:	11760008 	cmnne	r6, r8

000012a8 <l933>:
    12a8:	316f5f14 	clzcc	r5, r4

000012ac <l934>:
    12ac:	01160872 	tsteq	r6, r2, ror r8

000012b0 <l935>:
    12b0:	e3370b23 	teq	r7, #35840	; 0x8c00

000012b4 <interrupt_621>:
    12b4:	e05b8de9 	subs	r8, fp, r9, ror #27

000012b8 <l937>:
    12b8:	81ddb1d7 	ldrsbhi	fp, [sp, #23]

000012bc <l938>:
    12bc:	e1a00000 	nop			; (mov r0, r0)

000012c0 <interrupt_834>:
    12c0:	a08f1728 	addge	r1, pc, r8, lsr #14

000012c4 <interrupt_115>:
    12c4:	e1e00007 	mvn	r0, r7

000012c8 <l941>:
    12c8:	7137006c 	teqvc	r7, ip, rrx

000012cc <interrupt_691>:
    12cc:	ea000001 	b	12d8 <l945>

000012d0 <l943>:
    12d0:	905ac000 	subsls	ip, sl, r0

000012d4 <l944>:
    12d4:	e1a0a000 	mov	sl, r0

000012d8 <l945>:
    12d8:	61510553 	cmpvs	r1, r3, asr r5

000012dc <l946>:
    12dc:	72175048 	andsvc	r5, r7, #72	; 0x48

000012e0 <l947>:
    12e0:	ea000008 	b	1308 <interrupt_116>

000012e4 <l948>:
    12e4:	12d7ee2f 	sbcsne	lr, r7, #752	; 0x2f0

000012e8 <l949>:
    12e8:	c2c2427b 	sbcgt	r4, r2, #-1342177273	; 0xb0000007

000012ec <interrupt_197>:
    12ec:	31e0506f 	mvncc	r5, pc, rrx

000012f0 <l951>:
    12f0:	e18b8437 	orr	r8, fp, r7, lsr r4

000012f4 <l952>:
    12f4:	e39a895a 	orrs	r8, sl, #1474560	; 0x168000

000012f8 <l953>:
    12f8:	c3390a13 	teqgt	r9, #77824	; 0x13000

000012fc <l954>:
    12fc:	c09c6580 	addsgt	r6, ip, r0, lsl #11

00001300 <l955>:
    1300:	83350167 	teqhi	r5, #-1073741799	; 0xc0000019

00001304 <l956>:
    1304:	e24f3801 	sub	r3, pc, #65536	; 0x10000

00001308 <interrupt_116>:
    1308:	41340132 	teqmi	r4, r2, lsr r1

0000130c <interrupt_458>:
    130c:	e3a06004 	mov	r6, #4

00001310 <l959>:
    1310:	074d4006 	strbeq	r4, [sp, -r6]

00001314 <interrupt_89>:
    1314:	a01bc00e 	andsge	ip, fp, lr

00001318 <l961>:
    1318:	738653d5 	orrvc	r5, r6, #1409286147	; 0x54000003

0000131c <l962>:
    131c:	51ddb0fa 	ldrshpl	fp, [sp, #10]

00001320 <l963>:
    1320:	d0b11002 	adcsle	r1, r1, r2

00001324 <l964>:
    1324:	71d23778 	bicsvc	r3, r2, r8, ror r7

00001328 <l965>:
    1328:	ea000002 	b	1338 <interrupt_163>

0000132c <interrupt_571>:
    132c:	4070e335 	rsbsmi	lr, r0, r5, lsr r3

00001330 <l967>:
    1330:	111c0e33 	tstne	ip, r3, lsr lr

00001334 <l968>:
    1334:	7048b002 	subvc	fp, r8, r2

00001338 <interrupt_163>:
    1338:	d1e01063 	mvnle	r1, r3, rrx

0000133c <l970>:
    133c:	7a000003 	bvc	1350 <l975>

00001340 <l971>:
    1340:	e2801006 	add	r1, r0, #6

00001344 <l972>:
    1344:	91330452 	teqls	r3, r2, asr r4

00001348 <l973>:
    1348:	e1150068 	tst	r5, r8, rrx

0000134c <l974>:
    134c:	ea000000 	b	1354 <l976>

00001350 <l975>:
    1350:	eafffffb 	b	1344 <l972>

00001354 <l976>:
    1354:	21cc9b4c 	biccs	r9, ip, ip, asr #22

00001358 <l977>:
    1358:	e1b0803e 	lsrs	r8, lr, r0

0000135c <l978>:
    135c:	e3a0601a 	mov	r6, #26

00001360 <interrupt_412>:
    1360:	518da0b6 	strhpl	sl, [sp, r6]

00001364 <l980>:
    1364:	e0d45987 	sbcs	r5, r4, r7, lsl #19

00001368 <interrupt_210>:
    1368:	31cd60bc 	strhcc	r6, [sp, #12]

0000136c <l982>:
    136c:	e1a00000 	nop			; (mov r0, r0)

00001370 <interrupt_687>:
    1370:	a1cdb2be 	strhge	fp, [sp, #46]	; 0x2e

00001374 <interrupt_899>:
    1374:	e1dd53d3 	ldrsb	r5, [sp, #51]	; 0x33

00001378 <l985>:
    1378:	e025700b 	eor	r7, r5, fp

0000137c <interrupt_187>:
    137c:	e3a0b01b 	mov	fp, #27

00001380 <l987>:
    1380:	e7cd000b 	strb	r0, [sp, fp]

00001384 <interrupt_8>:
    1384:	91e02064 	mvnls	r2, r4, rrx

00001388 <interrupt_87>:
    1388:	9114006a 	tstls	r4, sl, rrx

0000138c <l990>:
    138c:	e1a00000 	nop			; (mov r0, r0)

00001390 <l991>:
    1390:	e1a00000 	nop			; (mov r0, r0)

00001394 <l992>:
    1394:	315c000a 	cmpcc	ip, sl

00001398 <l993>:
    1398:	317809a0 	cmncc	r8, r0, lsr #19

0000139c <l994>:
    139c:	e02a0002 	eor	r0, sl, r2

000013a0 <l995>:
    13a0:	e59fb000 	ldr	fp, [pc]	; 13a8 <l997>

000013a4 <l996>:
    13a4:	ea000000 	b	13ac <l998>

000013a8 <l997>:
    13a8:	000fffa4 	.word	0x000fffa4

000013ac <l998>:
    13ac:	414b309c 	swpbmi	r3, ip, [fp]

000013b0 <interrupt_237>:
    13b0:	81500e35 	cmphi	r0, r5, lsr lr

000013b4 <l1000>:
    13b4:	e59f0000 	ldr	r0, [pc]	; 13bc <l1002>

000013b8 <l1001>:
    13b8:	ea000000 	b	13c0 <l1003>

000013bc <l1002>:
    13bc:	000fffdc 	.word	0x000fffdc

000013c0 <l1003>:
    13c0:	b140909b 	swpblt	r9, fp, [r0]

000013c4 <l1004>:
    13c4:	e1cdb3b6 	strh	fp, [sp, #54]	; 0x36

000013c8 <l1005>:
    13c8:	e11e0769 	tst	lr, r9, ror #14

000013cc <l1006>:
    13cc:	e3a0e024 	mov	lr, #36	; 0x24

000013d0 <l1007>:
    13d0:	e7ad600e 	str	r6, [sp, lr]!

000013d4 <l1008>:
    13d4:	305a1cec 	subscc	r1, sl, ip, ror #25

000013d8 <interrupt_460>:
    13d8:	a15d71dd 	ldrsbge	r7, [sp, #-29]	; 0xffffffe3

000013dc <l1010>:
    13dc:	a2a11e97 	adcge	r1, r1, #2416	; 0x970

000013e0 <l1011>:
    13e0:	e3a08002 	mov	r8, #2

000013e4 <interrupt_794>:
    13e4:	e11d70b8 	ldrh	r7, [sp, -r8]

000013e8 <l1013>:
    13e8:	e3935a2e 	orrs	r5, r3, #188416	; 0x2e000

000013ec <l1014>:
    13ec:	60bf3004 	adcsvs	r3, pc, r4

000013f0 <l1015>:
    13f0:	e1dda0f4 	ldrsh	sl, [sp, #4]

000013f4 <l1016>:
    13f4:	e59f0000 	ldr	r0, [pc]	; 13fc <l1018>

000013f8 <l1017>:
    13f8:	ea000000 	b	1400 <l1019>

000013fc <l1018>:
    13fc:	000fffac 	.word	0x000fffac

00001400 <l1019>:
    1400:	9140909b 	swpbls	r9, fp, [r0]

00001404 <l1020>:
    1404:	e3a08012 	mov	r8, #18

00001408 <l1021>:
    1408:	319d70b8 	ldrhcc	r7, [sp, r8]

0000140c <interrupt_542>:
    140c:	80924186 	addshi	r4, r2, r6, lsl #3

00001410 <l1023>:
    1410:	e1130002 	tst	r3, r2

00001414 <interrupt_405>:
    1414:	e012021b 	ands	r0, r2, fp, lsl r2

00001418 <l1025>:
    1418:	e15d81b8 	ldrh	r8, [sp, #-24]	; 0xffffffe8

0000141c <l1026>:
    141c:	538536f5 	orrpl	r3, r5, #256901120	; 0xf500000

00001420 <l1027>:
    1420:	e3a0201c 	mov	r2, #28

00001424 <interrupt_73>:
    1424:	010d60b2 	strheq	r6, [sp, -r2]

00001428 <interrupt_753>:
    1428:	e2cb3075 	sbc	r3, fp, #117	; 0x75

0000142c <l1030>:
    142c:	e1a00000 	nop			; (mov r0, r0)

00001430 <l1031>:
    1430:	ef0716f0 	svc	0x000716f0

00001434 <l1032>:
    1434:	c24619b7 	subgt	r1, r6, #2998272	; 0x2dc000

00001438 <l1033>:
    1438:	c15da2bc 	ldrhgt	sl, [sp, #-44]	; 0xffffffd4

0000143c <l1034>:
    143c:	d13b071b 	teqle	fp, fp, lsl r7

00001440 <l1035>:
    1440:	b1dda0d8 	ldrsblt	sl, [sp, #8]

00001444 <l1036>:
    1444:	11e0800e 	mvnne	r8, lr

00001448 <l1037>:
    1448:	31b06002 	movscc	r6, r2

0000144c <l1038>:
    144c:	e1a00000 	nop			; (mov r0, r0)

00001450 <l1039>:
    1450:	6a000004 	bvs	1468 <l1045>

00001454 <l1040>:
    1454:	e28010cb 	add	r1, r0, #203	; 0xcb

00001458 <l1041>:
    1458:	5358026d 	cmppl	r8, #-805306362	; 0xd0000006

0000145c <l1042>:
    145c:	93f07b2f 	mvnsls	r7, #48128	; 0xbc00

00001460 <l1043>:
    1460:	e1f0300c 	mvns	r3, ip

00001464 <interrupt_499>:
    1464:	ea000000 	b	146c <l1046>

00001468 <l1045>:
    1468:	eafffffa 	b	1458 <l1041>

0000146c <l1046>:
    146c:	e3a0b00e 	mov	fp, #14

00001470 <l1047>:
    1470:	e75d700b 	ldrb	r7, [sp, -fp]

00001474 <l1048>:
    1474:	d1540317 	cmple	r4, r7, lsl r3

00001478 <interrupt_723>:
    1478:	e3a07007 	mov	r7, #7

0000147c <l1050>:
    147c:	e74da007 	strb	sl, [sp, -r7]

00001480 <l1051>:
    1480:	e1720e2f 	cmn	r2, pc, lsr #28

00001484 <l1052>:
    1484:	e19c023a 	orrs	r0, ip, sl, lsr r2

00001488 <l1053>:
    1488:	e3a06010 	mov	r6, #16

0000148c <l1054>:
    148c:	e19de0d6 	ldrsb	lr, [sp, r6]

00001490 <interrupt_701>:
    1490:	50d40b38 	sbcspl	r0, r4, r8, lsr fp

00001494 <l1056>:
    1494:	d319053e 	tstle	r9, #260046848	; 0xf800000

00001498 <l1057>:
    1498:	ef26b216 	svc	0x0026b216

0000149c <l1058>:
    149c:	e2a0b153 	adc	fp, r0, #-1073741804	; 0xc0000014

000014a0 <interrupt_613>:
    14a0:	e3a02006 	mov	r2, #6

000014a4 <l1060>:
    14a4:	e18dc0b2 	strh	ip, [sp, r2]

000014a8 <interrupt_464>:
    14a8:	0a000005 	beq	14c4 <l1068>

000014ac <l1062>:
    14ac:	606fc001 	rsbvs	ip, pc, r1

000014b0 <l1063>:
    14b0:	e16f8f11 	clz	r8, r1

000014b4 <interrupt_874>:
    14b4:	00ebedae 	rsceq	lr, fp, lr, lsr #27

000014b8 <l1065>:
    14b8:	e0ac5075 	adc	r5, ip, r5, ror r0

000014bc <l1066>:
    14bc:	a1db1ca8 	bicsge	r1, fp, r8, lsr #25

000014c0 <l1067>:
    14c0:	e2dfb1e7 	sbcs	fp, pc, #-1073741767	; 0xc0000039

000014c4 <l1068>:
    14c4:	21b05005 	movscs	r5, r5

000014c8 <l1069>:
    14c8:	ef28dc00 	svc	0x0028dc00

000014cc <l1070>:
    14cc:	e3a06005 	mov	r6, #5

000014d0 <l1071>:
    14d0:	611d20d6 	ldrsbvs	r2, [sp, -r6]

000014d4 <l1072>:
    14d4:	e3a0b024 	mov	fp, #36	; 0x24

000014d8 <interrupt_221>:
    14d8:	e72d500b 	str	r5, [sp, -fp]!

000014dc <l1074>:
    14dc:	e2b474b5 	adcs	r7, r4, #-1258291200	; 0xb5000000

000014e0 <l1075>:
    14e0:	e3a0103f 	mov	r1, #63	; 0x3f

000014e4 <l1076>:
    14e4:	e7cdc001 	strb	ip, [sp, r1]

000014e8 <interrupt_622>:
    14e8:	e1b0bd26 	lsrs	fp, r6, #26

000014ec <l1078>:
    14ec:	e5ad2010 	str	r2, [sp, #16]!

000014f0 <l1079>:
    14f0:	e3a04018 	mov	r4, #24

000014f4 <l1080>:
    14f4:	910d10b4 	strhls	r1, [sp, -r4]

000014f8 <interrupt_341>:
    14f8:	00795233 	rsbseq	r5, r9, r3, lsr r2

000014fc <l1082>:
    14fc:	e92d1070 	push	{r4, r5, r6, ip}

00001500 <interrupt_474>:
    1500:	e3a0a041 	mov	sl, #65	; 0x41

00001504 <l1084>:
    1504:	e7ddb00a 	ldrb	fp, [sp, sl]

00001508 <l1085>:
    1508:	50abb009 	adcpl	fp, fp, r9

0000150c <interrupt_677>:
    150c:	e388a3cd 	orr	sl, r8, #872415235	; 0x34000003

00001510 <interrupt_88>:
    1510:	e37e063f 	cmn	lr, #66060288	; 0x3f00000

00001514 <l1088>:
    1514:	e3a01001 	mov	r1, #1

00001518 <l1089>:
    1518:	e19d10d1 	ldrsb	r1, [sp, r1]

0000151c <l1090>:
    151c:	40144514 	andsmi	r4, r4, r4, lsl r5

00001520 <l1091>:
    1520:	85dd5008 	ldrbhi	r5, [sp, #8]

00001524 <l1092>:
    1524:	51979005 	orrspl	r9, r7, r5

00001528 <l1093>:
    1528:	924535ff 	subls	r3, r5, #1069547520	; 0x3fc00000

0000152c <interrupt_35>:
    152c:	e1a00000 	nop			; (mov r0, r0)

00001530 <l1095>:
    1530:	9213a0ec 	andsls	sl, r3, #236	; 0xec

00001534 <l1096>:
    1534:	e5dd002c 	ldrb	r0, [sp, #44]	; 0x2c

00001538 <l1097>:
    1538:	e1cd51b0 	strh	r5, [sp, #16]

0000153c <l1098>:
    153c:	e3320312 	teq	r2, #1207959552	; 0x48000000

00001540 <l1099>:
    1540:	e1e0b002 	mvn	fp, r2

00001544 <l1100>:
    1544:	e59f9000 	ldr	r9, [pc]	; 154c <l1102>

00001548 <interrupt_484>:
    1548:	ea000000 	b	1550 <interrupt_118>

0000154c <l1102>:
    154c:	000fffe0 	.word	0x000fffe0

00001550 <interrupt_118>:
    1550:	c1098093 	swpgt	r8, r3, [r9]

00001554 <l1104>:
    1554:	23190226 	tstcs	r9, #1610612738	; 0x60000002

00001558 <l1105>:
    1558:	efaf6890 	svc	0x00af6890

0000155c <interrupt_760>:
    155c:	40229e29 	eormi	r9, r2, r9, lsr #28

00001560 <l1107>:
    1560:	237c0106 	cmncs	ip, #-2147483647	; 0x80000001

00001564 <l1108>:
    1564:	d1730413 	cmnle	r3, r3, lsl r4

00001568 <l1109>:
    1568:	61c3aba0 	bicvs	sl, r3, r0, lsr #23

0000156c <l1110>:
    156c:	01dd00d5 	ldrsbeq	r0, [sp, #5]

00001570 <l1111>:
    1570:	e1cdc1be 	strh	ip, [sp, #30]

00001574 <l1112>:
    1574:	e3a08020 	mov	r8, #32

00001578 <l1113>:
    1578:	518d40b8 	strhpl	r4, [sp, r8]

0000157c <l1114>:
    157c:	ef2937f7 	svc	0x002937f7

00001580 <interrupt_2>:
    1580:	91f06004 	mvnsls	r6, r4

00001584 <l1116>:
    1584:	ef0a5601 	svc	0x000a5601

00001588 <l1117>:
    1588:	72ab6cc7 	adcvc	r6, fp, #50944	; 0xc700

0000158c <l1118>:
    158c:	216f5f14 	clzcs	r5, r4

00001590 <l1119>:
    1590:	e0aa5c41 	adc	r5, sl, r1, asr #24

00001594 <l1120>:
    1594:	b2aaa136 	adclt	sl, sl, #-2147483635	; 0x8000000d

00001598 <l1121>:
    1598:	e3a02008 	mov	r2, #8

0000159c <l1122>:
    159c:	170d4002 	strne	r4, [sp, -r2]

000015a0 <interrupt_437>:
    15a0:	e17a0006 	cmn	sl, r6

000015a4 <interrupt_573>:
    15a4:	e3a0c002 	mov	ip, #2

000015a8 <l1125>:
    15a8:	e10db0bc 	strh	fp, [sp, -ip]

000015ac <l1126>:
    15ac:	e59f1000 	ldr	r1, [pc]	; 15b4 <interrupt_857>

000015b0 <l1127>:
    15b0:	ea000000 	b	15b8 <l1129>

000015b4 <interrupt_857>:
    15b4:	000fffdc 	.word	0x000fffdc

000015b8 <l1129>:
    15b8:	e1010096 	swp	r0, r6, [r1]

000015bc <l1130>:
    15bc:	02acb2ef 	adceq	fp, ip, #-268435442	; 0xf000000e

000015c0 <interrupt_661>:
    15c0:	e9bd0004 	ldmib	sp!, {r2}

000015c4 <l1132>:
    15c4:	e1b0800b 	movs	r8, fp

000015c8 <l1133>:
    15c8:	e1dde1b2 	ldrh	lr, [sp, #18]

000015cc <l1134>:
    15cc:	e3a0a00e 	mov	sl, #14

000015d0 <l1135>:
    15d0:	c7cd500a 	strbgt	r5, [sp, sl]

000015d4 <l1136>:
    15d4:	11cd50b8 	strhne	r5, [sp, #8]

000015d8 <l1137>:
    15d8:	e5cd7015 	strb	r7, [sp, #21]

000015dc <interrupt_335>:
    15dc:	e3a07233 	mov	r7, #805306371	; 0x30000003

000015e0 <l1139>:
    15e0:	ef0e88d3 	svc	0x000e88d3

000015e4 <l1140>:
    15e4:	20ea4214 	rsccs	r4, sl, r4, lsl r2

000015e8 <l1141>:
    15e8:	91700008 	cmnls	r0, r8

000015ec <l1142>:
    15ec:	2055800e 	subscs	r8, r5, lr

000015f0 <l1143>:
    15f0:	a1300c61 	teqge	r0, r1, ror #24

000015f4 <interrupt_215>:
    15f4:	a1cb4936 	bicge	r4, fp, r6, lsr r9

000015f8 <l1145>:
    15f8:	a1ddb3be 	ldrhge	fp, [sp, #62]	; 0x3e

000015fc <interrupt_953>:
    15fc:	e5bd501c 	ldr	r5, [sp, #28]!

00001600 <l1147>:
    1600:	e3a0500c 	mov	r5, #12

00001604 <interrupt_318>:
    1604:	275d8005 	ldrbcs	r8, [sp, -r5]

00001608 <interrupt_329>:
    1608:	e83d1208 	ldmda	sp!, {r3, r9, ip}

0000160c <l1150>:
    160c:	e24a29db 	sub	r2, sl, #3588096	; 0x36c000

00001610 <l1151>:
    1610:	4065e30a 	rsbmi	lr, r5, sl, lsl #6

00001614 <l1152>:
    1614:	588d8468 	stmpl	sp, {r3, r5, r6, sl, pc}

00001618 <interrupt_870>:
    1618:	e1110ae5 	tst	r1, r5, ror #21

0000161c <l1154>:
    161c:	e59fc000 	ldr	ip, [pc]	; 1624 <l1156>

00001620 <l1155>:
    1620:	ea000000 	b	1628 <interrupt_38>

00001624 <l1156>:
    1624:	000fffb0 	.word	0x000fffb0

00001628 <interrupt_38>:
    1628:	e14c1099 	swpb	r1, r9, [ip]

0000162c <l1158>:
    162c:	e1590e57 	cmp	r9, r7, asr lr

00001630 <l1159>:
    1630:	e3a07026 	mov	r7, #38	; 0x26

00001634 <l1160>:
    1634:	37cdc007 	strbcc	ip, [sp, r7]

00001638 <l1161>:
    1638:	e8ade000 	stmia	sp!, {sp, lr, pc}

0000163c <l1162>:
    163c:	e2623231 	rsb	r3, r2, #268435459	; 0x10000003

00001640 <interrupt_352>:
    1640:	e0292006 	eor	r2, r9, r6

00001644 <interrupt_990>:
    1644:	31a0ed87 	lslcc	lr, r7, #27

00001648 <l1165>:
    1648:	e0c53ba2 	sbc	r3, r5, r2, lsr #23

0000164c <l1166>:
    164c:	222348c1 	eorcs	r4, r3, #12648448	; 0xc10000

00001650 <l1167>:
    1650:	e1590066 	cmp	r9, r6, rrx

00001654 <interrupt_177>:
    1654:	e59f5000 	ldr	r5, [pc]	; 165c <l1170>

00001658 <l1169>:
    1658:	ea000000 	b	1660 <l1171>

0000165c <l1170>:
    165c:	000fffd0 	.word	0x000fffd0

00001660 <l1171>:
    1660:	e145c092 	swpb	ip, r2, [r5]

00001664 <l1172>:
    1664:	baffffff 	blt	1668 <l1173>

00001668 <l1173>:
    1668:	61e0706b 	mvnvs	r7, fp, rrx

0000166c <l1174>:
    166c:	40877ac0 	addmi	r7, r7, r0, asr #21

00001670 <l1175>:
    1670:	e59f5000 	ldr	r5, [pc]	; 1678 <l1177>

00001674 <l1176>:
    1674:	ea000000 	b	167c <l1178>

00001678 <l1177>:
    1678:	000fffa8 	.word	0x000fffa8

0000167c <l1178>:
    167c:	e1057099 	swp	r7, r9, [r5]

00001680 <l1179>:
    1680:	c16fcf19 	clzgt	ip, r9

00001684 <l1180>:
    1684:	e0421009 	sub	r1, r2, r9

00001688 <l1181>:
    1688:	e83d58e2 	ldmda	sp!, {r1, r5, r6, r7, fp, ip, lr}

0000168c <l1182>:
    168c:	d16fcf1c 	clzle	ip, ip

00001690 <l1183>:
    1690:	e8ad82f9 	stmia	sp!, {r0, r3, r4, r5, r6, r7, r9, pc}

00001694 <l1184>:
    1694:	116f5f12 	clzne	r5, r2

00001698 <l1185>:
    1698:	e93d1400 	ldmdb	sp!, {sl, ip}

0000169c <interrupt_892>:
    169c:	e59f7000 	ldr	r7, [pc]	; 16a4 <l1188>

000016a0 <l1187>:
    16a0:	ea000000 	b	16a8 <l1189>

000016a4 <l1188>:
    16a4:	000fffac 	.word	0x000fffac

000016a8 <l1189>:
    16a8:	e1478099 	swpb	r8, r9, [r7]

000016ac <l1190>:
    16ac:	e0216b79 	eor	r6, r1, r9, ror fp

000016b0 <interrupt_234>:
    16b0:	81150004 	tsthi	r5, r4

000016b4 <interrupt_626>:
    16b4:	e51de014 	ldr	lr, [sp, #-20]

000016b8 <l1193>:
    16b8:	0078e008 	rsbseq	lr, r8, r8

000016bc <l1194>:
    16bc:	e3a00008 	mov	r0, #8

000016c0 <l1195>:
    16c0:	e19d00f0 	ldrsh	r0, [sp, r0]

000016c4 <l1196>:
    16c4:	e1150e33 	tst	r5, r3, lsr lr

000016c8 <l1197>:
    16c8:	ea000004 	b	16e0 <l1203>

000016cc <l1198>:
    16cc:	71f07068 	mvnsvc	r7, r8, rrx

000016d0 <interrupt_271>:
    16d0:	b2e788cb 	rsclt	r8, r7, #13303808	; 0xcb0000

000016d4 <interrupt_764>:
    16d4:	d0420006 	suble	r0, r2, r6

000016d8 <interrupt_36>:
    16d8:	a3a01a13 	movge	r1, #77824	; 0x13000

000016dc <l1202>:
    16dc:	50f817ca 	rscspl	r1, r8, sl, asr #15

000016e0 <l1203>:
    16e0:	504f5102 	subpl	r5, pc, r2, lsl #2

000016e4 <l1204>:
    16e4:	a99d490f 	ldmibge	sp, {r0, r1, r2, r3, r8, fp, lr}

000016e8 <l1205>:
    16e8:	116f0f15 	clzne	r0, r5

000016ec <l1206>:
    16ec:	e15d10f4 	ldrsh	r1, [sp, #-4]

000016f0 <l1207>:
    16f0:	e027106c 	eor	r1, r7, ip, rrx

000016f4 <interrupt_149>:
    16f4:	e3a08018 	mov	r8, #24

000016f8 <l1209>:
    16f8:	e11d50b8 	ldrh	r5, [sp, -r8]

000016fc <l1210>:
    16fc:	efdbec9f 	svc	0x00dbec9f

00001700 <l1211>:
    1700:	01390231 	teqeq	r9, r1, lsr r2

00001704 <l1212>:
    1704:	efe8b8c5 	svc	0x00e8b8c5

00001708 <l1213>:
    1708:	e3a0b022 	mov	fp, #34	; 0x22

0000170c <l1214>:
    170c:	610de0bb 	strhvs	lr, [sp, -fp]

00001710 <interrupt_58>:
    1710:	e5ad5020 	str	r5, [sp, #32]!

00001714 <interrupt_796>:
    1714:	713c0e63 	teqvc	ip, r3, ror #28

00001718 <interrupt_809>:
    1718:	e04f1068 	sub	r1, pc, r8, rrx

0000171c <interrupt_138>:
    171c:	e3a02038 	mov	r2, #56	; 0x38

00001720 <interrupt_581>:
    1720:	e10d40b2 	strh	r4, [sp, -r2]

00001724 <l1220>:
    1724:	e92d41a2 	push	{r1, r5, r7, r8, lr}

00001728 <l1221>:
    1728:	8068396c 	rsbhi	r3, r8, ip, ror #18

0000172c <l1222>:
    172c:	e07a9c49 	rsbs	r9, sl, r9, asr #24

00001730 <l1223>:
    1730:	e3a0000e 	mov	r0, #14

00001734 <l1224>:
    1734:	811d90f0 	ldrshhi	r9, [sp, -r0]

00001738 <l1225>:
    1738:	e3a0100e 	mov	r1, #14

0000173c <l1226>:
    173c:	c19d80b1 	ldrhgt	r8, [sp, r1]

00001740 <interrupt_788>:
    1740:	e006665b 	and	r6, r6, fp, asr r6

00001744 <l1228>:
    1744:	4114000e 	tstmi	r4, lr

00001748 <l1229>:
    1748:	80c83678 	sbchi	r3, r8, r8, ror r6

0000174c <l1230>:
    174c:	e119000e 	tst	r9, lr

00001750 <l1231>:
    1750:	e5dd400a 	ldrb	r4, [sp, #10]

00001754 <l1232>:
    1754:	e98da4a0 	stmib	sp, {r5, r7, sl, sp, pc}

00001758 <interrupt_248>:
    1758:	40166006 	andsmi	r6, r6, r6

0000175c <interrupt_79>:
    175c:	222b9078 	eorcs	r9, fp, #120	; 0x78

00001760 <l1235>:
    1760:	490d1048 	stmdbmi	sp, {r3, r6, ip}

00001764 <l1236>:
    1764:	e3a0001c 	mov	r0, #28

00001768 <l1237>:
    1768:	811db0d0 	ldrsbhi	fp, [sp, -r0]

0000176c <l1238>:
    176c:	ef4073fa 	svc	0x004073fa

00001770 <l1239>:
    1770:	40dac002 	sbcsmi	ip, sl, r2

00001774 <l1240>:
    1774:	92d1b43d 	sbcsls	fp, r1, #1023410176	; 0x3d000000

00001778 <l1241>:
    1778:	e83d01c2 	ldmda	sp!, {r1, r6, r7, r8}

0000177c <l1242>:
    177c:	e93d1330 	ldmdb	sp!, {r4, r5, r8, r9, ip}

00001780 <l1243>:
    1780:	e3a0a011 	mov	sl, #17

00001784 <l1244>:
    1784:	e7dde00a 	ldrb	lr, [sp, sl]

00001788 <l1245>:
    1788:	e9bd4f7f 	ldmib	sp!, {r0, r1, r2, r3, r4, r5, r6, r8, r9, sl, fp, lr}

0000178c <l1246>:
    178c:	e59f7000 	ldr	r7, [pc]	; 1794 <l1248>

00001790 <l1247>:
    1790:	ea000000 	b	1798 <interrupt_421>

00001794 <l1248>:
    1794:	000fffd8 	.word	0x000fffd8

00001798 <interrupt_421>:
    1798:	01472095 	swpbeq	r2, r5, [r7]

0000179c <l1250>:
    179c:	8a000007 	bhi	17c0 <l1259>

000017a0 <interrupt_168>:
    17a0:	00c32003 	sbceq	r2, r3, r3

000017a4 <l1252>:
    17a4:	4072500b 	rsbsmi	r5, r2, fp

000017a8 <interrupt_832>:
    17a8:	e3e0af7b 	mvn	sl, #492	; 0x1ec

000017ac <interrupt_62>:
    17ac:	12aa2b12 	adcne	r2, sl, #18432	; 0x4800

000017b0 <interrupt_106>:
    17b0:	d09ae005 	addsle	lr, sl, r5

000017b4 <l1256>:
    17b4:	00349ec1 	eorseq	r9, r4, r1, asr #29

000017b8 <l1257>:
    17b8:	93d1623d 	bicsls	r6, r1, #-805306365	; 0xd0000003

000017bc <interrupt_137>:
    17bc:	e0cb606e 	sbc	r6, fp, lr, rrx

000017c0 <l1259>:
    17c0:	31350674 	teqcc	r5, r4, ror r6

000017c4 <interrupt_727>:
    17c4:	e1c3a973 	bic	sl, r3, r3, ror r9

000017c8 <interrupt_147>:
    17c8:	158d900c 	strne	r9, [sp, #12]

000017cc <l1262>:
    17cc:	01c7b00c 	biceq	fp, r7, ip

000017d0 <l1263>:
    17d0:	e3a07012 	mov	r7, #18

000017d4 <l1264>:
    17d4:	e11d40d7 	ldrsb	r4, [sp, -r7]

000017d8 <interrupt_449>:
    17d8:	0a000001 	beq	17e4 <interrupt_493>

000017dc <l1266>:
    17dc:	d3919ec1 	orrsle	r9, r1, #3088	; 0xc10

000017e0 <l1267>:
    17e0:	4075e185 	rsbsmi	lr, r5, r5, lsl #3

000017e4 <interrupt_493>:
    17e4:	b33e0c87 	teqlt	lr, #34560	; 0x8700

000017e8 <interrupt_269>:
    17e8:	a1180c7c 	tstge	r8, ip, ror ip

000017ec <l1270>:
    17ec:	13e03205 	mvnne	r3, #1342177280	; 0x50000000

000017f0 <l1271>:
    17f0:	ea000005 	b	180c <l1278>

000017f4 <l1272>:
    17f4:	e2801077 	add	r1, r0, #119	; 0x77

000017f8 <l1273>:
    17f8:	73a072c1 	movvc	r7, #268435468	; 0x1000000c

000017fc <l1274>:
    17fc:	400a600a 	andmi	r6, sl, sl

00001800 <l1275>:
    1800:	e3d536b3 	bics	r3, r5, #187695104	; 0xb300000

00001804 <interrupt_263>:
    1804:	70ff400c 	rscsvc	r4, pc, ip

00001808 <l1277>:
    1808:	ea000000 	b	1810 <l1279>

0000180c <l1278>:
    180c:	eafffff9 	b	17f8 <l1273>

00001810 <l1279>:
    1810:	e048e002 	sub	lr, r8, r2

00001814 <interrupt_629>:
    1814:	e3a0e012 	mov	lr, #18

00001818 <l1281>:
    1818:	011d10be 	ldrheq	r1, [sp, -lr]

0000181c <l1282>:
    181c:	e2c56e26 	sbc	r6, r5, #608	; 0x260

00001820 <interrupt_351>:
    1820:	e0213a18 	eor	r3, r1, r8, lsl sl

00001824 <interrupt_898>:
    1824:	e59f3000 	ldr	r3, [pc]	; 182c <l1286>

00001828 <interrupt_926>:
    1828:	ea000000 	b	1830 <interrupt_64>

0000182c <l1286>:
    182c:	000fffac 	.word	0x000fffac

00001830 <interrupt_64>:
    1830:	e103c092 	swp	ip, r2, [r3]

00001834 <l1288>:
    1834:	ea000000 	b	183c <interrupt_179>

00001838 <l1289>:
    1838:	e177000e 	cmn	r7, lr

0000183c <interrupt_179>:
    183c:	e1510000 	cmp	r1, r0

00001840 <l1291>:
    1840:	b55d403c 	ldrblt	r4, [sp, #-60]	; 0x3c

00001844 <l1292>:
    1844:	e16f1f15 	clz	r1, r5

00001848 <l1293>:
    1848:	e3a02003 	mov	r2, #3

0000184c <l1294>:
    184c:	919db0d2 	ldrsbls	fp, [sp, r2]

00001850 <l1295>:
    1850:	81340009 	teqhi	r4, r9

00001854 <l1296>:
    1854:	e59f4000 	ldr	r4, [pc]	; 185c <l1298>

00001858 <l1297>:
    1858:	ea000000 	b	1860 <l1299>

0000185c <l1298>:
    185c:	000fffe8 	.word	0x000fffe8

00001860 <l1299>:
    1860:	e1041097 	swp	r1, r7, [r4]

00001864 <interrupt_404>:
    1864:	e19c7778 	orrs	r7, ip, r8, ror r7

00001868 <l1301>:
    1868:	11817872 	orrne	r7, r1, r2, ror r8

0000186c <interrupt_584>:
    186c:	e90d0a00 	stmdb	sp, {r9, fp}

00001870 <l1303>:
    1870:	e3a01024 	mov	r1, #36	; 0x24

00001874 <l1304>:
    1874:	e11d30d1 	ldrsb	r3, [sp, -r1]

00001878 <l1305>:
    1878:	e17606c4 	cmn	r6, r4, asr #13

0000187c <l1306>:
    187c:	e095406b 	adds	r4, r5, fp, rrx

00001880 <l1307>:
    1880:	e3a07000 	mov	r7, #0

00001884 <l1308>:
    1884:	e7bd3007 	ldr	r3, [sp, r7]!

00001888 <l1309>:
    1888:	a51db03c 	ldrge	fp, [sp, #-60]	; 0x3c

0000188c <interrupt_556>:
    188c:	03360707 	teqeq	r6, #1835008	; 0x1c0000

00001890 <l1311>:
    1890:	1206ccda 	andne	ip, r6, #55808	; 0xda00

00001894 <l1312>:
    1894:	70430e4b 	subvc	r0, r3, fp, asr #28

00001898 <interrupt_173>:
    1898:	e59f2000 	ldr	r2, [pc]	; 18a0 <l1315>

0000189c <interrupt_968>:
    189c:	ea000000 	b	18a4 <l1316>

000018a0 <l1315>:
    18a0:	000fffc0 	.word	0x000fffc0

000018a4 <l1316>:
    18a4:	e1420099 	swpb	r0, r9, [r2]

000018a8 <l1317>:
    18a8:	e9ad0022 	stmib	sp!, {r1, r5}

000018ac <l1318>:
    18ac:	e59f9000 	ldr	r9, [pc]	; 18b4 <l1320>

000018b0 <l1319>:
    18b0:	ea000000 	b	18b8 <l1321>

000018b4 <l1320>:
    18b4:	000fffc8 	.word	0x000fffc8

000018b8 <l1321>:
    18b8:	7149509b 	swpbvc	r5, fp, [r9]

000018bc <l1322>:
    18bc:	433304a9 	teqmi	r3, #-1459617792	; 0xa9000000

000018c0 <l1323>:
    18c0:	83deb4a5 	bicshi	fp, lr, #-1526726656	; 0xa5000000

000018c4 <l1324>:
    18c4:	513c0000 	teqpl	ip, r0

000018c8 <l1325>:
    18c8:	9051e003 	subsls	lr, r1, r3

000018cc <l1326>:
    18cc:	c090e000 	addsgt	lr, r0, r0

000018d0 <l1327>:
    18d0:	e2645775 	rsb	r5, r4, #30670848	; 0x1d40000

000018d4 <l1328>:
    18d4:	15dd7000 	ldrbne	r7, [sp]

000018d8 <interrupt_540>:
    18d8:	41b03656 	asrsmi	r3, r6, r6

000018dc <interrupt_786>:
    18dc:	e3a05037 	mov	r5, #55	; 0x37

000018e0 <interrupt_359>:
    18e0:	611db0d5 	ldrsbvs	fp, [sp, -r5]

000018e4 <l1332>:
    18e4:	8a000002 	bhi	18f4 <interrupt_845>

000018e8 <l1333>:
    18e8:	e28010c3 	add	r1, r0, #195	; 0xc3

000018ec <l1334>:
    18ec:	a07ee009 	rsbsge	lr, lr, r9

000018f0 <l1335>:
    18f0:	ea000000 	b	18f8 <l1337>

000018f4 <interrupt_845>:
    18f4:	eafffffc 	b	18ec <l1334>

000018f8 <l1337>:
    18f8:	e59f0000 	ldr	r0, [pc]	; 1900 <l1339>

000018fc <interrupt_518>:
    18fc:	ea000000 	b	1904 <l1340>

00001900 <l1339>:
    1900:	000fffe4 	.word	0x000fffe4

00001904 <l1340>:
    1904:	e100a096 	swp	sl, r6, [r0]

00001908 <interrupt_11>:
    1908:	e1190a6f 	tst	r9, pc, ror #20

0000190c <l1342>:
    190c:	50d3a06f 	sbcspl	sl, r3, pc, rrx

00001910 <interrupt_554>:
    1910:	c082445a 	addgt	r4, r2, sl, asr r4

00001914 <l1344>:
    1914:	e92da000 	push	{sp, pc}

00001918 <l1345>:
    1918:	415b0006 	cmpmi	fp, r6

0000191c <l1346>:
    191c:	e59fe000 	ldr	lr, [pc]	; 1924 <l1348>

00001920 <interrupt_886>:
    1920:	ea000000 	b	1928 <l1349>

00001924 <l1348>:
    1924:	000fffb0 	.word	0x000fffb0

00001928 <l1349>:
    1928:	210e2096 	swpcs	r2, r6, [lr]

0000192c <l1350>:
    192c:	d1a09006 	movle	r9, r6

00001930 <interrupt_45>:
    1930:	231c0527 	tstcs	ip, #163577856	; 0x9c00000

00001934 <l1352>:
    1934:	01886072 	orreq	r6, r8, r2, ror r0

00001938 <l1353>:
    1938:	e3a0c008 	mov	ip, #8

0000193c <l1354>:
    193c:	211d30fc 	ldrshcs	r3, [sp, -ip]

00001940 <interrupt_338>:
    1940:	e3a02030 	mov	r2, #48	; 0x30

00001944 <l1356>:
    1944:	e74d1002 	strb	r1, [sp, -r2]

00001948 <l1357>:
    1948:	e053506f 	subs	r5, r3, pc, rrx

0000194c <interrupt_381>:
    194c:	e0a85007 	adc	r5, r8, r7

00001950 <l1359>:
    1950:	e15db2be 	ldrh	fp, [sp, #-46]	; 0xffffffd2

00001954 <l1360>:
    1954:	e17f0c40 	cmn	pc, r0, asr #24

00001958 <interrupt_284>:
    1958:	e16f0f1b 	clz	r0, fp

0000195c <l1362>:
    195c:	e13e006b 	teq	lr, fp, rrx

00001960 <l1363>:
    1960:	e3a0600e 	mov	r6, #14

00001964 <l1364>:
    1964:	b75dc006 	ldrblt	ip, [sp, -r6]

00001968 <l1365>:
    1968:	554da038 	strbpl	sl, [sp, #-56]	; 0x38

0000196c <l1366>:
    196c:	e1d92069 	bics	r2, r9, r9, rrx

00001970 <l1367>:
    1970:	e0908018 	adds	r8, r0, r8, lsl r0

00001974 <l1368>:
    1974:	e3e060d0 	mvn	r6, #208	; 0xd0

00001978 <l1369>:
    1978:	a09f97c5 	addsge	r9, pc, r5, asr #15

0000197c <l1370>:
    197c:	e3a04006 	mov	r4, #6

00001980 <l1371>:
    1980:	119d50b4 	ldrhne	r5, [sp, r4]

00001984 <l1372>:
    1984:	ea000005 	b	19a0 <interrupt_80>

00001988 <l1373>:
    1988:	b0080e43 	andlt	r0, r8, r3, asr #28

0000198c <l1374>:
    198c:	e1a0300f 	mov	r3, pc

00001990 <l1375>:
    1990:	e0377639 	eors	r7, r7, r9, lsr r6

00001994 <l1376>:
    1994:	e15f006c 	cmp	pc, ip, rrx

00001998 <l1377>:
    1998:	e09b3914 	adds	r3, fp, r4, lsl r9

0000199c <l1378>:
    199c:	304cc85b 	subcc	ip, ip, fp, asr r8

000019a0 <interrupt_80>:
    19a0:	a0113005 	andsge	r3, r1, r5

000019a4 <interrupt_732>:
    19a4:	51180008 	tstpl	r8, r8

000019a8 <l1381>:
    19a8:	e050a11e 	subs	sl, r0, lr, lsl r1

000019ac <l1382>:
    19ac:	e5bd2000 	ldr	r2, [sp, #0]!

000019b0 <l1383>:
    19b0:	e3a03034 	mov	r3, #52	; 0x34

000019b4 <l1384>:
    19b4:	e73dc003 	ldr	ip, [sp, -r3]!

000019b8 <l1385>:
    19b8:	0a000006 	beq	19d8 <l1393>

000019bc <l1386>:
    19bc:	e2801009 	add	r1, r0, #9

000019c0 <l1387>:
    19c0:	80e56a32 	rschi	r6, r5, r2, lsr sl

000019c4 <interrupt_447>:
    19c4:	e015000c 	ands	r0, r5, ip

000019c8 <interrupt_148>:
    19c8:	e2ec240f 	rsc	r2, ip, #251658240	; 0xf000000

000019cc <interrupt_825>:
    19cc:	e18a600a 	orr	r6, sl, sl

000019d0 <interrupt_132>:
    19d0:	e1100004 	tst	r0, r4

000019d4 <l1392>:
    19d4:	ea000000 	b	19dc <l1394>

000019d8 <l1393>:
    19d8:	eafffff8 	b	19c0 <l1387>

000019dc <l1394>:
    19dc:	e1d2206f 	bics	r2, r2, pc, rrx

000019e0 <interrupt_722>:
    19e0:	a3580a11 	cmpge	r8, #69632	; 0x11000

000019e4 <l1396>:
    19e4:	c1a0c676 	rorgt	ip, r6, r6

000019e8 <l1397>:
    19e8:	e49dc018 	ldr	ip, [sp], #24

000019ec <interrupt_336>:
    19ec:	b0f69b2e 	rscslt	r9, r6, lr, lsr #22

000019f0 <l1399>:
    19f0:	e16f2f18 	clz	r2, r8

000019f4 <l1400>:
    19f4:	e3a05001 	mov	r5, #1

000019f8 <interrupt_369>:
    19f8:	47cde005 	strbmi	lr, [sp, r5]

000019fc <l1402>:
    19fc:	e8bd0980 	pop	{r7, r8, fp}

00001a00 <l1403>:
    1a00:	915d70ba 	ldrhls	r7, [sp, #-10]

00001a04 <l1404>:
    1a04:	e55de012 	ldrb	lr, [sp, #-18]

00001a08 <interrupt_506>:
    1a08:	05dd301f 	ldrbeq	r3, [sp, #31]

00001a0c <l1406>:
    1a0c:	d1b09e2c 	lsrsle	r9, ip, #28

00001a10 <l1407>:
    1a10:	4a000003 	bmi	1a24 <l1412>

00001a14 <l1408>:
    1a14:	e2801079 	add	r1, r0, #121	; 0x79

00001a18 <l1409>:
    1a18:	a13804e1 	teqge	r8, r1, ror #9

00001a1c <l1410>:
    1a1c:	e256c05c 	subs	ip, r6, #92	; 0x5c

00001a20 <l1411>:
    1a20:	ea000000 	b	1a28 <interrupt_317>

00001a24 <l1412>:
    1a24:	eafffffb 	b	1a18 <l1409>

00001a28 <interrupt_317>:
    1a28:	e1e05151 	mvn	r5, r1, asr r1

00001a2c <l1414>:
    1a2c:	e3803762 	orr	r3, r0, #25690112	; 0x1880000

00001a30 <interrupt_46>:
    1a30:	11130da2 	tstne	r3, r2, lsr #27

00001a34 <interrupt_961>:
    1a34:	e3a09028 	mov	r9, #40	; 0x28

00001a38 <l1417>:
    1a38:	974d2009 	strbls	r2, [sp, -r9]

00001a3c <interrupt_550>:
    1a3c:	d1c36a7e 	bicle	r6, r3, lr, ror sl

00001a40 <l1419>:
    1a40:	e49d3018 	ldr	r3, [sp], #24

00001a44 <l1420>:
    1a44:	e3a04009 	mov	r4, #9

00001a48 <l1421>:
    1a48:	e75d4004 	ldrb	r4, [sp, -r4]

00001a4c <l1422>:
    1a4c:	b16faf11 	clzlt	sl, r1

00001a50 <interrupt_586>:
    1a50:	b15a0653 	cmplt	sl, r3, asr r6

00001a54 <l1424>:
    1a54:	5079c000 	rsbspl	ip, r9, r0

00001a58 <interrupt_589>:
    1a58:	719a4012 	orrsvc	r4, sl, r2, lsl r0

00001a5c <l1426>:
    1a5c:	e3a00010 	mov	r0, #16

00001a60 <l1427>:
    1a60:	e72d8000 	str	r8, [sp, -r0]!

00001a64 <l1428>:
    1a64:	e3a0b031 	mov	fp, #49	; 0x31

00001a68 <l1429>:
    1a68:	274db00b 	strbcs	fp, [sp, -fp]

00001a6c <l1430>:
    1a6c:	51dd61d7 	ldrsbpl	r6, [sp, #23]

00001a70 <l1431>:
    1a70:	e1e03008 	mvn	r3, r8

00001a74 <l1432>:
    1a74:	01360f0c 	teqeq	r6, ip, lsl #30

00001a78 <interrupt_545>:
    1a78:	e48d1004 	str	r1, [sp], #4

00001a7c <interrupt_777>:
    1a7c:	e51d2008 	ldr	r2, [sp, #-8]

00001a80 <l1435>:
    1a80:	e1933244 	orrs	r3, r3, r4, asr #4

00001a84 <l1436>:
    1a84:	02c2831e 	sbceq	r8, r2, #2013265920	; 0x78000000

00001a88 <interrupt_217>:
    1a88:	1a000006 	bne	1aa8 <l1445>

00001a8c <l1438>:
    1a8c:	93f0c461 	mvnsls	ip, #1627389952	; 0x61000000

00001a90 <l1439>:
    1a90:	e2d44a9a 	sbcs	r4, r4, #630784	; 0x9a000

00001a94 <interrupt_119>:
    1a94:	52e74cde 	rscpl	r4, r7, #56832	; 0xde00

00001a98 <l1441>:
    1a98:	e03cb00b 	eors	fp, ip, fp

00001a9c <l1442>:
    1a9c:	10f9b008 	rscsne	fp, r9, r8

00001aa0 <l1443>:
    1aa0:	e0e74061 	rsc	r4, r7, r1, rrx

00001aa4 <l1444>:
    1aa4:	e33408b5 	teq	r4, #11862016	; 0xb50000

00001aa8 <l1445>:
    1aa8:	e040e067 	sub	lr, r0, r7, rrx

00001aac <interrupt_344>:
    1aac:	e3a06010 	mov	r6, #16

00001ab0 <interrupt_970>:
    1ab0:	c7cd5006 	strbgt	r5, [sp, r6]

00001ab4 <l1448>:
    1ab4:	750dc018 	strvc	ip, [sp, #-24]

00001ab8 <l1449>:
    1ab8:	505b8a14 	subspl	r8, fp, r4, lsl sl

00001abc <l1450>:
    1abc:	83340839 	teqhi	r4, #3735552	; 0x390000

00001ac0 <l1451>:
    1ac0:	e59fb000 	ldr	fp, [pc]	; 1ac8 <interrupt_434>

00001ac4 <interrupt_713>:
    1ac4:	ea000000 	b	1acc <l1454>

00001ac8 <interrupt_434>:
    1ac8:	000fffb0 	.word	0x000fffb0

00001acc <l1454>:
    1acc:	e10b809a 	swp	r8, sl, [fp]

00001ad0 <l1455>:
    1ad0:	ef5e8872 	svc	0x005e8872

00001ad4 <l1456>:
    1ad4:	1a000008 	bne	1afc <l1466>

00001ad8 <l1457>:
    1ad8:	4183b008 	orrmi	fp, r3, r8

00001adc <l1458>:
    1adc:	e1140004 	tst	r4, r4

00001ae0 <l1459>:
    1ae0:	e3c3c7a3 	bic	ip, r3, #42729472	; 0x28c0000

00001ae4 <l1460>:
    1ae4:	0024e00a 	eoreq	lr, r4, sl

00001ae8 <l1461>:
    1ae8:	e1520008 	cmp	r2, r8

00001aec <l1462>:
    1aec:	e0e109c9 	rsc	r0, r1, r9, asr #19

00001af0 <l1463>:
    1af0:	1195b486 	orrsne	fp, r5, r6, lsl #9

00001af4 <l1464>:
    1af4:	51540477 	cmppl	r4, r7, ror r4

00001af8 <l1465>:
    1af8:	e2b5b23e 	adcs	fp, r5, #-536870909	; 0xe0000003

00001afc <l1466>:
    1afc:	20ab8ec3 	adccs	r8, fp, r3, asr #29

00001b00 <l1467>:
    1b00:	ea000002 	b	1b10 <l1471>

00001b04 <l1468>:
    1b04:	e286ed5d 	add	lr, r6, #5952	; 0x1740

00001b08 <l1469>:
    1b08:	e16fef16 	clz	lr, r6

00001b0c <l1470>:
    1b0c:	e3f040d7 	mvns	r4, #215	; 0xd7

00001b10 <l1471>:
    1b10:	c0a90063 	adcgt	r0, r9, r3, rrx

00001b14 <l1472>:
    1b14:	1a000006 	bne	1b34 <l1480>

00001b18 <l1473>:
    1b18:	e1c8ea81 	bic	lr, r8, r1, lsl #21

00001b1c <interrupt_869>:
    1b1c:	80059ac0 	andhi	r9, r5, r0, asr #21

00001b20 <l1475>:
    1b20:	5073aa39 	rsbspl	sl, r3, r9, lsr sl

00001b24 <interrupt_602>:
    1b24:	30e7e6c0 	rsccc	lr, r7, r0, asr #13

00001b28 <l1477>:
    1b28:	e22e9ca5 	eor	r9, lr, #42240	; 0xa500

00001b2c <l1478>:
    1b2c:	e37a0c4f 	cmn	sl, #20224	; 0x4f00

00001b30 <l1479>:
    1b30:	0096400e 	addseq	r4, r6, lr

00001b34 <l1480>:
    1b34:	32511c75 	subscc	r1, r1, #29952	; 0x7500

00001b38 <l1481>:
    1b38:	e03b7375 	eors	r7, fp, r5, ror r3

00001b3c <l1482>:
    1b3c:	e09f9001 	adds	r9, pc, r1

00001b40 <interrupt_856>:
    1b40:	e15de2fa 	ldrsh	lr, [sp, #-42]	; 0xffffffd6

00001b44 <l1484>:
    1b44:	e98d2201 	stmib	sp, {r0, r9, sp}

00001b48 <l1485>:
    1b48:	e3a04af3 	mov	r4, #995328	; 0xf3000

00001b4c <interrupt_510>:
    1b4c:	2078c410 	rsbscs	ip, r8, r0, lsl r4

00001b50 <l1487>:
    1b50:	83110232 	tsthi	r1, #536870915	; 0x20000003

00001b54 <interrupt_943>:
    1b54:	825eb9fa 	subshi	fp, lr, #4096000	; 0x3e8000

00001b58 <l1489>:
    1b58:	e316032f 	tst	r6, #-1140850688	; 0xbc000000

00001b5c <l1490>:
    1b5c:	60527062 	subsvs	r7, r2, r2, rrx

00001b60 <l1491>:
    1b60:	315db1ba 	ldrhcc	fp, [sp, #-26]	; 0xffffffe6

00001b64 <l1492>:
    1b64:	e3a0b032 	mov	fp, #50	; 0x32

00001b68 <interrupt_57>:
    1b68:	e11d80bb 	ldrh	r8, [sp, -fp]

00001b6c <l1494>:
    1b6c:	e98d1000 	stmib	sp, {ip}

00001b70 <l1495>:
    1b70:	e3a00007 	mov	r0, #7

00001b74 <l1496>:
    1b74:	e74de000 	strb	lr, [sp, -r0]

00001b78 <l1497>:
    1b78:	e2837391 	add	r7, r3, #1140850690	; 0x44000002

00001b7c <l1498>:
    1b7c:	e3a02004 	mov	r2, #4

00001b80 <l1499>:
    1b80:	e75d3002 	ldrb	r3, [sp, -r2]

00001b84 <interrupt_241>:
    1b84:	e53d502c 	ldr	r5, [sp, #-44]!	; 0x2c

00001b88 <l1501>:
    1b88:	e1ddb2df 	ldrsb	fp, [sp, #47]	; 0x2f

00001b8c <l1502>:
    1b8c:	e59fb000 	ldr	fp, [pc]	; 1b94 <l1504>

00001b90 <interrupt_843>:
    1b90:	ea000000 	b	1b98 <l1505>

00001b94 <l1504>:
    1b94:	000fffb0 	.word	0x000fffb0

00001b98 <l1505>:
    1b98:	b14b809e 	swpblt	r8, lr, [fp]

00001b9c <l1506>:
    1b9c:	e59fc000 	ldr	ip, [pc]	; 1ba4 <interrupt_410>

00001ba0 <l1507>:
    1ba0:	ea000000 	b	1ba8 <l1509>

00001ba4 <interrupt_410>:
    1ba4:	000fffe8 	.word	0x000fffe8

00001ba8 <l1509>:
    1ba8:	814c609b 	swpbhi	r6, fp, [ip]

00001bac <l1510>:
    1bac:	51908cce 	orrspl	r8, r0, lr, asr #25

00001bb0 <l1511>:
    1bb0:	316f9f13 	clzcc	r9, r3

00001bb4 <l1512>:
    1bb4:	e048eacf 	sub	lr, r8, pc, asr #21

00001bb8 <l1513>:
    1bb8:	e1a00000 	nop			; (mov r0, r0)

00001bbc <l1514>:
    1bbc:	e0aa921e 	adc	r9, sl, lr, lsl r2

00001bc0 <l1515>:
    1bc0:	ea000005 	b	1bdc <interrupt_772>

00001bc4 <l1516>:
    1bc4:	e1d2c4ab 	bics	ip, r2, fp, lsr #9

00001bc8 <l1517>:
    1bc8:	a04c878f 	subge	r8, ip, pc, lsl #15

00001bcc <l1518>:
    1bcc:	516f6f16 	clzpl	r6, r6

00001bd0 <interrupt_623>:
    1bd0:	e0a8200e 	adc	r2, r8, lr

00001bd4 <l1520>:
    1bd4:	0063b00e 	rsbeq	fp, r3, lr

00001bd8 <l1521>:
    1bd8:	e2a728dd 	adc	r2, r7, #14483456	; 0xdd0000

00001bdc <interrupt_772>:
    1bdc:	e03e6f66 	eors	r6, lr, r6, ror #30

00001be0 <l1523>:
    1be0:	e3a00010 	mov	r0, #16

00001be4 <l1524>:
    1be4:	e19d00f0 	ldrsh	r0, [sp, r0]

00001be8 <l1525>:
    1be8:	70f2b956 	rscsvc	fp, r2, r6, asr r9

00001bec <l1526>:
    1bec:	50631000 	rsbpl	r1, r3, r0

00001bf0 <l1527>:
    1bf0:	d033500f 	eorsle	r5, r3, pc

00001bf4 <l1528>:
    1bf4:	e052200b 	subs	r2, r2, fp

00001bf8 <l1529>:
    1bf8:	e59f4000 	ldr	r4, [pc]	; 1c00 <l1531>

00001bfc <l1530>:
    1bfc:	ea000000 	b	1c04 <l1532>

00001c00 <l1531>:
    1c00:	000fffd8 	.word	0x000fffd8

00001c04 <l1532>:
    1c04:	6144c092 	swpbvs	ip, r2, [r4]

00001c08 <interrupt_146>:
    1c08:	92f26fd6 	rscsls	r6, r2, #856	; 0x358

00001c0c <interrupt_97>:
    1c0c:	e11f0061 	tst	pc, r1, rrx

00001c10 <interrupt_383>:
    1c10:	e1330481 	teq	r3, r1, lsl #9

00001c14 <l1536>:
    1c14:	e9ad6000 	stmib	sp!, {sp, lr}

00001c18 <l1537>:
    1c18:	e5bd7008 	ldr	r7, [sp, #8]!

00001c1c <l1538>:
    1c1c:	82e117ea 	rschi	r1, r1, #61341696	; 0x3a80000

00001c20 <l1539>:
    1c20:	e3a08028 	mov	r8, #40	; 0x28

00001c24 <l1540>:
    1c24:	e7ad3008 	str	r3, [sp, r8]!

00001c28 <l1541>:
    1c28:	716f4f14 	clzvc	r4, r4

00001c2c <interrupt_361>:
    1c2c:	a1b05d63 	rorsge	r5, r3, #26

00001c30 <l1543>:
    1c30:	5a000004 	bpl	1c48 <l1549>

00001c34 <l1544>:
    1c34:	e2801050 	add	r1, r0, #80	; 0x50

00001c38 <l1545>:
    1c38:	e0f58007 	rscs	r8, r5, r7

00001c3c <l1546>:
    1c3c:	21740351 	cmncs	r4, r1, asr r3

00001c40 <l1547>:
    1c40:	903a4003 	eorsls	r4, sl, r3

00001c44 <l1548>:
    1c44:	ea000000 	b	1c4c <l1550>

00001c48 <l1549>:
    1c48:	eafffffa 	b	1c38 <l1545>

00001c4c <l1550>:
    1c4c:	e15d83ba 	ldrh	r8, [sp, #-58]	; 0xffffffc6

00001c50 <l1551>:
    1c50:	e3a0303d 	mov	r3, #61	; 0x3d

00001c54 <l1552>:
    1c54:	e74d0003 	strb	r0, [sp, -r3]

00001c58 <interrupt_273>:
    1c58:	e3a02004 	mov	r2, #4

00001c5c <l1554>:
    1c5c:	419db0b2 	ldrhmi	fp, [sp, r2]

00001c60 <l1555>:
    1c60:	e00534a8 	and	r3, r5, r8, lsr #9

00001c64 <interrupt_19>:
    1c64:	3133006f 	teqcc	r3, pc, rrx

00001c68 <l1557>:
    1c68:	ea000007 	b	1c8c <l1566>

00001c6c <l1558>:
    1c6c:	e2314d43 	eors	r4, r1, #4288	; 0x10c0

00001c70 <l1559>:
    1c70:	804acae0 	subhi	ip, sl, r0, ror #21

00001c74 <interrupt_995>:
    1c74:	e1170062 	tst	r7, r2, rrx

00001c78 <l1561>:
    1c78:	60843ce5 	addvs	r3, r4, r5, ror #25

00001c7c <l1562>:
    1c7c:	e192706a 	orrs	r7, r2, sl, rrx

00001c80 <l1563>:
    1c80:	70f12809 	rscsvc	r2, r1, r9, lsl #16

00001c84 <l1564>:
    1c84:	015e0060 	cmpeq	lr, r0, rrx

00001c88 <l1565>:
    1c88:	521071fa 	andspl	r7, r0, #-2147483586	; 0x8000003e

00001c8c <l1566>:
    1c8c:	e2541aaf 	subs	r1, r4, #716800	; 0xaf000

00001c90 <l1567>:
    1c90:	e0b07eca 	adcs	r7, r0, sl, asr #29

00001c94 <interrupt_282>:
    1c94:	e0c4141c 	sbc	r1, r4, ip, lsl r4

00001c98 <l1569>:
    1c98:	e1896533 	orr	r6, r9, r3, lsr r5

00001c9c <l1570>:
    1c9c:	ea000001 	b	1ca8 <l1573>

00001ca0 <interrupt_904>:
    1ca0:	21710942 	cmncs	r1, r2, asr #18

00001ca4 <interrupt_830>:
    1ca4:	d2669029 	rsble	r9, r6, #41	; 0x29

00001ca8 <l1573>:
    1ca8:	715e000c 	cmpvc	lr, ip

00001cac <l1574>:
    1cac:	a0c22b36 	sbcge	r2, r2, r6, lsr fp

00001cb0 <l1575>:
    1cb0:	d2afb3a9 	adcle	fp, pc, #-1543503870	; 0xa4000002

00001cb4 <l1576>:
    1cb4:	728777a3 	addvc	r7, r7, #42729472	; 0x28c0000

00001cb8 <interrupt_433>:
    1cb8:	e1a00000 	nop			; (mov r0, r0)

00001cbc <l1578>:
    1cbc:	798d0010 	stmibvc	sp, {r4}

00001cc0 <l1579>:
    1cc0:	d80d2060 	stmdale	sp, {r5, r6, sp}

00001cc4 <interrupt_566>:
    1cc4:	555d7031 	ldrbpl	r7, [sp, #-49]	; 0x31

00001cc8 <l1581>:
    1cc8:	ea000004 	b	1ce0 <l1587>

00001ccc <l1582>:
    1ccc:	b15f0068 	cmplt	pc, r8, rrx

00001cd0 <l1583>:
    1cd0:	41340001 	teqmi	r4, r1

00001cd4 <l1584>:
    1cd4:	e2c0a433 	sbc	sl, r0, #855638016	; 0x33000000

00001cd8 <l1585>:
    1cd8:	41e0e006 	mvnmi	lr, r6

00001cdc <interrupt_530>:
    1cdc:	e35502fe 	cmp	r5, #-536870897	; 0xe000000f

00001ce0 <l1587>:
    1ce0:	c0068b0b 	andgt	r8, r6, fp, lsl #22

00001ce4 <interrupt_246>:
    1ce4:	c0aac6e0 	adcgt	ip, sl, r0, ror #13

00001ce8 <l1589>:
    1ce8:	e59fc000 	ldr	ip, [pc]	; 1cf0 <l1591>

00001cec <l1590>:
    1cec:	ea000000 	b	1cf4 <l1592>

00001cf0 <l1591>:
    1cf0:	000fffe8 	.word	0x000fffe8

00001cf4 <l1592>:
    1cf4:	910c709a 	swpls	r7, sl, [ip]

00001cf8 <interrupt_399>:
    1cf8:	e59fe000 	ldr	lr, [pc]	; 1d00 <interrupt_229>

00001cfc <interrupt_829>:
    1cfc:	ea000000 	b	1d04 <l1596>

00001d00 <interrupt_229>:
    1d00:	000fffa8 	.word	0x000fffa8

00001d04 <l1596>:
    1d04:	e14e209a 	swpb	r2, sl, [lr]

00001d08 <l1597>:
    1d08:	e53d703c 	ldr	r7, [sp, #-60]!	; 0x3c

00001d0c <l1598>:
    1d0c:	e178000c 	cmn	r8, ip

00001d10 <l1599>:
    1d10:	915a0002 	cmpls	sl, r2

00001d14 <l1600>:
    1d14:	404f300f 	submi	r3, pc, pc

00001d18 <interrupt_547>:
    1d18:	e0b90002 	adcs	r0, r9, r2

00001d1c <l1602>:
    1d1c:	e3a01000 	mov	r1, #0

00001d20 <interrupt_941>:
    1d20:	718d40b1 	strhvc	r4, [sp, r1]

00001d24 <l1604>:
    1d24:	e5dd600d 	ldrb	r6, [sp, #13]

00001d28 <l1605>:
    1d28:	11750e33 	cmnne	r5, r3, lsr lr

00001d2c <interrupt_397>:
    1d2c:	10604558 	rsbne	r4, r0, r8, asr r5

00001d30 <interrupt_230>:
    1d30:	9a000005 	bls	1d4c <l1614>

00001d34 <l1608>:
    1d34:	e28010d8 	add	r1, r0, #216	; 0xd8

00001d38 <interrupt_209>:
    1d38:	b11f0001 	tstlt	pc, r1

00001d3c <l1610>:
    1d3c:	40b26455 	adcsmi	r6, r2, r5, asr r4

00001d40 <l1611>:
    1d40:	e1845862 	orr	r5, r4, r2, ror #16

00001d44 <l1612>:
    1d44:	e0c1e005 	sbc	lr, r1, r5

00001d48 <l1613>:
    1d48:	ea000000 	b	1d50 <l1615>

00001d4c <l1614>:
    1d4c:	eafffff9 	b	1d38 <interrupt_209>

00001d50 <l1615>:
    1d50:	e59f9000 	ldr	r9, [pc]	; 1d58 <l1617>

00001d54 <l1616>:
    1d54:	ea000000 	b	1d5c <interrupt_503>

00001d58 <l1617>:
    1d58:	000fffe4 	.word	0x000fffe4

00001d5c <interrupt_503>:
    1d5c:	e109e09a 	swp	lr, sl, [r9]

00001d60 <l1619>:
    1d60:	e1a00000 	nop			; (mov r0, r0)

00001d64 <l1620>:
    1d64:	e1d0cc30 	bics	ip, r0, r0, lsr ip

00001d68 <l1621>:
    1d68:	425a809f 	subsmi	r8, sl, #159	; 0x9f

00001d6c <interrupt_593>:
    1d6c:	e050b57a 	subs	fp, r0, sl, ror r5

00001d70 <interrupt_249>:
    1d70:	e1a00000 	nop			; (mov r0, r0)

00001d74 <l1624>:
    1d74:	e0492009 	sub	r2, r9, r9

00001d78 <l1625>:
    1d78:	615d90d7 	ldrsbvs	r9, [sp, #-7]

00001d7c <l1626>:
    1d7c:	e1570918 	cmp	r7, r8, lsl r9

00001d80 <l1627>:
    1d80:	a3a09029 	movge	r9, #41	; 0x29

00001d84 <l1628>:
    1d84:	e1a00000 	nop			; (mov r0, r0)

00001d88 <l1629>:
    1d88:	222e3c1d 	eorcs	r3, lr, #7424	; 0x1d00

00001d8c <l1630>:
    1d8c:	115d00f6 	ldrshne	r0, [sp, #-6]

00001d90 <l1631>:
    1d90:	e185400f 	orr	r4, r5, pc

00001d94 <l1632>:
    1d94:	2270599d 	rsbscs	r5, r0, #2572288	; 0x274000

00001d98 <l1633>:
    1d98:	858d7038 	strhi	r7, [sp, #56]	; 0x38

00001d9c <l1634>:
    1d9c:	21ddc4d0 	ldrsbcs	ip, [sp, #64]	; 0x40

00001da0 <l1635>:
    1da0:	e3a00001 	mov	r0, #1

00001da4 <l1636>:
    1da4:	e75d2000 	ldrb	r2, [sp, -r0]

00001da8 <interrupt_879>:
    1da8:	858d0034 	strhi	r0, [sp, #52]	; 0x34

00001dac <l1638>:
    1dac:	e0400423 	sub	r0, r0, r3, lsr #8

00001db0 <l1639>:
    1db0:	e069e5a2 	rsb	lr, r9, r2, lsr #11

00001db4 <l1640>:
    1db4:	e59f2000 	ldr	r2, [pc]	; 1dbc <l1642>

00001db8 <interrupt_212>:
    1db8:	ea000000 	b	1dc0 <l1643>

00001dbc <l1642>:
    1dbc:	000fffbc 	.word	0x000fffbc

00001dc0 <l1643>:
    1dc0:	e102309a 	swp	r3, sl, [r2]

00001dc4 <interrupt_950>:
    1dc4:	e3a0a010 	mov	sl, #16

00001dc8 <l1645>:
    1dc8:	718d80ba 	strhvc	r8, [sp, sl]

00001dcc <l1646>:
    1dcc:	02b5092e 	adcseq	r0, r5, #753664	; 0xb8000

00001dd0 <l1647>:
    1dd0:	e1a00000 	nop			; (mov r0, r0)

00001dd4 <interrupt_919>:
    1dd4:	e0fba008 	rscs	sl, fp, r8

00001dd8 <l1649>:
    1dd8:	626b1377 	rsbvs	r1, fp, #-603979775	; 0xdc000001

00001ddc <l1650>:
    1ddc:	e01b7c23 	ands	r7, fp, r3, lsr #24

00001de0 <l1651>:
    1de0:	81a0c409 	lslhi	ip, r9, #8

00001de4 <l1652>:
    1de4:	5a000003 	bpl	1df8 <l1657>

00001de8 <l1653>:
    1de8:	e28010cb 	add	r1, r0, #203	; 0xcb

00001dec <l1654>:
    1dec:	a16fef1a 	clzge	lr, sl

00001df0 <interrupt_385>:
    1df0:	e040906f 	sub	r9, r0, pc, rrx

00001df4 <l1656>:
    1df4:	ea000000 	b	1dfc <l1658>

00001df8 <l1657>:
    1df8:	eafffffb 	b	1dec <l1654>

00001dfc <l1658>:
    1dfc:	e1a00000 	nop			; (mov r0, r0)

00001e00 <l1659>:
    1e00:	d2a170eb 	adcle	r7, r1, #235	; 0xeb

00001e04 <l1660>:
    1e04:	81dd93b2 	ldrhhi	r9, [sp, #50]	; 0x32

00001e08 <l1661>:
    1e08:	a1dc2315 	bicsge	r2, ip, r5, lsl r3

00001e0c <l1662>:
    1e0c:	21dd90ba 	ldrhcs	r9, [sp, #10]

00001e10 <l1663>:
    1e10:	ef25b65d 	svc	0x0025b65d

00001e14 <l1664>:
    1e14:	c59d602c 	ldrgt	r6, [sp, #44]	; 0x2c

00001e18 <l1665>:
    1e18:	e38576ff 	orr	r7, r5, #267386880	; 0xff00000

00001e1c <l1666>:
    1e1c:	e0e3506f 	rsc	r5, r3, pc, rrx

00001e20 <l1667>:
    1e20:	10b0306c 	adcsne	r3, r0, ip, rrx

00001e24 <l1668>:
    1e24:	108b3661 	addne	r3, fp, r1, ror #12

00001e28 <l1669>:
    1e28:	11dd23d4 	ldrsbne	r2, [sp, #52]	; 0x34

00001e2c <l1670>:
    1e2c:	80b70063 	adcshi	r0, r7, r3, rrx

00001e30 <l1671>:
    1e30:	a0b4700a 	adcsge	r7, r4, sl

00001e34 <l1672>:
    1e34:	316f6f1c 	clzcc	r6, ip

00001e38 <l1673>:
    1e38:	61dd51fe 	ldrshvs	r5, [sp, #30]

00001e3c <l1674>:
    1e3c:	e24695c6 	sub	r9, r6, #830472192	; 0x31800000

00001e40 <l1675>:
    1e40:	e1d92c55 	bics	r2, r9, r5, asr ip

00001e44 <interrupt_938>:
    1e44:	e3a00004 	mov	r0, #4

00001e48 <l1677>:
    1e48:	311d00d0 	ldrsbcc	r0, [sp, -r0]

00001e4c <l1678>:
    1e4c:	e1f011e0 	mvns	r1, r0, ror #3

00001e50 <interrupt_47>:
    1e50:	e37a055e 	cmn	sl, #394264576	; 0x17800000

00001e54 <l1680>:
    1e54:	e3a07004 	mov	r7, #4

00001e58 <l1681>:
    1e58:	419d60b7 	ldrhmi	r6, [sp, r7]

00001e5c <l1682>:
    1e5c:	11ddb1d2 	ldrsbne	fp, [sp, #18]

00001e60 <l1683>:
    1e60:	e3a07034 	mov	r7, #52	; 0x34

00001e64 <l1684>:
    1e64:	e69d1007 	ldr	r1, [sp], r7

00001e68 <l1685>:
    1e68:	1261e821 	rsbne	lr, r1, #2162688	; 0x210000

00001e6c <l1686>:
    1e6c:	e15d52b8 	ldrh	r5, [sp, #-40]	; 0xffffffd8

00001e70 <l1687>:
    1e70:	b284c985 	addlt	ip, r4, #2179072	; 0x214000

00001e74 <interrupt_244>:
    1e74:	efd81485 	svc	0x00d81485

00001e78 <l1689>:
    1e78:	011707e2 	tsteq	r7, r2, ror #15

00001e7c <interrupt_403>:
    1e7c:	60cc5935 	sbcvs	r5, ip, r5, lsr r9

00001e80 <interrupt_487>:
    1e80:	efe029d7 	svc	0x00e029d7

00001e84 <l1692>:
    1e84:	b3700b02 	cmnlt	r0, #2048	; 0x800

00001e88 <l1693>:
    1e88:	ea000003 	b	1e9c <l1698>

00001e8c <l1694>:
    1e8c:	e2801083 	add	r1, r0, #131	; 0x83

00001e90 <l1695>:
    1e90:	3227e67f 	eorcc	lr, r7, #133169152	; 0x7f00000

00001e94 <l1696>:
    1e94:	10146000 	andsne	r6, r4, r0

00001e98 <l1697>:
    1e98:	ea000000 	b	1ea0 <l1699>

00001e9c <l1698>:
    1e9c:	eafffffb 	b	1e90 <l1695>

00001ea0 <l1699>:
    1ea0:	e3a04010 	mov	r4, #16

00001ea4 <l1700>:
    1ea4:	611d80f4 	ldrshvs	r8, [sp, -r4]

00001ea8 <l1701>:
    1ea8:	e3a0403c 	mov	r4, #60	; 0x3c

00001eac <l1702>:
    1eac:	e60d5004 	str	r5, [sp], -r4

00001eb0 <l1703>:
    1eb0:	e8bd0004 	ldmfd	sp!, {r2}

00001eb4 <l1704>:
    1eb4:	e1dd43b6 	ldrh	r4, [sp, #54]	; 0x36

00001eb8 <l1705>:
    1eb8:	33590e89 	cmpcc	r9, #2192	; 0x890

00001ebc <l1706>:
    1ebc:	c0668b5e 	rsbgt	r8, r6, lr, asr fp

00001ec0 <l1707>:
    1ec0:	ea000007 	b	1ee4 <l1716>

00001ec4 <l1708>:
    1ec4:	e37500a5 	cmn	r5, #165	; 0xa5

00001ec8 <l1709>:
    1ec8:	6117000f 	tstvs	r7, pc

00001ecc <l1710>:
    1ecc:	61a039ab 	lsrvs	r3, fp, #19

00001ed0 <l1711>:
    1ed0:	231c0b0d 	tstcs	ip, #13312	; 0x3400

00001ed4 <l1712>:
    1ed4:	d08c1b80 	addle	r1, ip, r0, lsl #23

00001ed8 <interrupt_878>:
    1ed8:	e234369d 	eors	r3, r4, #164626432	; 0x9d00000

00001edc <l1714>:
    1edc:	616f8f15 	clzvs	r8, r5

00001ee0 <interrupt_597>:
    1ee0:	c0c3674e 	sbcgt	r6, r3, lr, asr #14

00001ee4 <l1716>:
    1ee4:	e0bfe00f 	adcs	lr, pc, pc

00001ee8 <l1717>:
    1ee8:	e1f0b007 	mvns	fp, r7

00001eec <l1718>:
    1eec:	60fa500b 	rscsvs	r5, sl, fp

00001ef0 <l1719>:
    1ef0:	e1a00000 	nop			; (mov r0, r0)

00001ef4 <l1720>:
    1ef4:	e1dd90b2 	ldrh	r9, [sp, #2]

00001ef8 <interrupt_564>:
    1ef8:	e24b004c 	sub	r0, fp, #76	; 0x4c

00001efc <l1722>:
    1efc:	901a4135 	andsls	r4, sl, r5, lsr r1

00001f00 <l1723>:
    1f00:	40db8e34 	sbcsmi	r8, fp, r4, lsr lr

00001f04 <interrupt_291>:
    1f04:	62308435 	eorsvs	r8, r0, #889192448	; 0x35000000

00001f08 <l1725>:
    1f08:	e3a06004 	mov	r6, #4

00001f0c <l1726>:
    1f0c:	219de0d6 	ldrsbcs	lr, [sp, r6]

00001f10 <l1727>:
    1f10:	a1dd62bc 	ldrhge	r6, [sp, #44]	; 0x2c

00001f14 <l1728>:
    1f14:	e1580000 	cmp	r8, r0

00001f18 <l1729>:
    1f18:	ef66aae3 	svc	0x0066aae3

00001f1c <l1730>:
    1f1c:	d03a1905 	eorsle	r1, sl, r5, lsl #18

00001f20 <l1731>:
    1f20:	ea000003 	b	1f34 <interrupt_472>

00001f24 <l1732>:
    1f24:	e2801024 	add	r1, r0, #36	; 0x24

00001f28 <l1733>:
    1f28:	a0798c17 	rsbsge	r8, r9, r7, lsl ip

00001f2c <l1734>:
    1f2c:	01cc0001 	biceq	r0, ip, r1

00001f30 <l1735>:
    1f30:	ea000000 	b	1f38 <l1737>

00001f34 <interrupt_472>:
    1f34:	eafffffb 	b	1f28 <l1733>

00001f38 <l1737>:
    1f38:	e3a0102a 	mov	r1, #42	; 0x2a

00001f3c <l1738>:
    1f3c:	418de0b1 	strhmi	lr, [sp, r1]

00001f40 <l1739>:
    1f40:	e24b834b 	sub	r8, fp, #738197505	; 0x2c000001

00001f44 <l1740>:
    1f44:	e16f4f1c 	clz	r4, ip

00001f48 <l1741>:
    1f48:	c3c12625 	bicgt	r2, r1, #38797312	; 0x2500000

00001f4c <l1742>:
    1f4c:	ef8d7e9d 	svc	0x008d7e9d

00001f50 <l1743>:
    1f50:	d25a9b9a 	subsle	r9, sl, #157696	; 0x26800

00001f54 <l1744>:
    1f54:	e093abc4 	adds	sl, r3, r4, asr #23

00001f58 <l1745>:
    1f58:	499d0404 	ldmibmi	sp, {r2, sl}

00001f5c <l1746>:
    1f5c:	aa000006 	bge	1f7c <interrupt_654>

00001f60 <l1747>:
    1f60:	315f0068 	cmpcc	pc, r8, rrx

00001f64 <l1748>:
    1f64:	e098c00e 	adds	ip, r8, lr

00001f68 <interrupt_204>:
    1f68:	905f052f 	subsls	r0, pc, pc, lsr #10

00001f6c <interrupt_749>:
    1f6c:	e1160003 	tst	r6, r3

00001f70 <l1751>:
    1f70:	e18763ce 	orr	r6, r7, lr, asr #7

00001f74 <l1752>:
    1f74:	e009cba4 	and	ip, r9, r4, lsr #23

00001f78 <l1753>:
    1f78:	01100c19 	tsteq	r0, r9, lsl ip

00001f7c <interrupt_654>:
    1f7c:	511f0565 	tstpl	pc, r5, ror #10

00001f80 <l1755>:
    1f80:	e3a02028 	mov	r2, #40	; 0x28

00001f84 <interrupt_801>:
    1f84:	e18d50b2 	strh	r5, [sp, r2]

00001f88 <l1757>:
    1f88:	e9bd0003 	ldmib	sp!, {r0, r1}

00001f8c <interrupt_563>:
    1f8c:	e59f4000 	ldr	r4, [pc]	; 1f94 <l1760>

00001f90 <l1759>:
    1f90:	ea000000 	b	1f98 <l1761>

00001f94 <l1760>:
    1f94:	000fffa0 	.word	0x000fffa0

00001f98 <l1761>:
    1f98:	41048091 	swpmi	r8, r1, [r4]

00001f9c <l1762>:
    1f9c:	e0073001 	and	r3, r7, r1

00001fa0 <l1763>:
    1fa0:	e58d903c 	str	r9, [sp, #60]	; 0x3c

00001fa4 <l1764>:
    1fa4:	c2367040 	eorsgt	r7, r6, #64	; 0x40

00001fa8 <l1765>:
    1fa8:	81310005 	teqhi	r1, r5

00001fac <l1766>:
    1fac:	5a000006 	bpl	1fcc <interrupt_422>

00001fb0 <l1767>:
    1fb0:	60c0b005 	sbcvs	fp, r0, r5

00001fb4 <l1768>:
    1fb4:	91deb06c 	bicsls	fp, lr, ip, rrx

00001fb8 <l1769>:
    1fb8:	40b91c3e 	adcsmi	r1, r9, lr, lsr ip

00001fbc <interrupt_260>:
    1fbc:	81f0a036 	mvnshi	sl, r6, lsr r0

00001fc0 <interrupt_512>:
    1fc0:	b054961a 	subslt	r9, r4, sl, lsl r6

00001fc4 <l1772>:
    1fc4:	e16f3f12 	clz	r3, r2

00001fc8 <l1773>:
    1fc8:	e191e007 	orrs	lr, r1, r7

00001fcc <interrupt_422>:
    1fcc:	12690785 	rsbne	r0, r9, #34865152	; 0x2140000

00001fd0 <l1775>:
    1fd0:	e1dd43ba 	ldrh	r4, [sp, #58]	; 0x3a

00001fd4 <interrupt_653>:
    1fd4:	e3a0001c 	mov	r0, #28

00001fd8 <l1777>:
    1fd8:	e79d8000 	ldr	r8, [sp, r0]

00001fdc <interrupt_3>:
    1fdc:	c1cdb1ba 	strhgt	fp, [sp, #26]

00001fe0 <interrupt_876>:
    1fe0:	e3310926 	teq	r1, #622592	; 0x98000

00001fe4 <l1780>:
    1fe4:	d048892f 	suble	r8, r8, pc, lsr #18

00001fe8 <l1781>:
    1fe8:	e047127e 	sub	r1, r7, lr, ror r2

00001fec <l1782>:
    1fec:	e59f1000 	ldr	r1, [pc]	; 1ff4 <l1784>

00001ff0 <l1783>:
    1ff0:	ea000000 	b	1ff8 <l1785>

00001ff4 <l1784>:
    1ff4:	000fffd0 	.word	0x000fffd0

00001ff8 <l1785>:
    1ff8:	71010099 	swpvc	r0, r9, [r1]

00001ffc <l1786>:
    1ffc:	e3a05038 	mov	r5, #56	; 0x38

00002000 <interrupt_744>:
    2000:	e18dc0b5 	strh	ip, [sp, r5]

00002004 <l1788>:
    2004:	e3a0a00c 	mov	sl, #12

00002008 <l1789>:
    2008:	e60d600a 	str	r6, [sp], -sl

0000200c <l1790>:
    200c:	e0cfc002 	sbc	ip, pc, r2

00002010 <l1791>:
    2010:	e89d1add 	ldm	sp, {r0, r2, r3, r4, r6, r7, r9, fp, ip}

00002014 <l1792>:
    2014:	e8bd0006 	pop	{r1, r2}

00002018 <interrupt_562>:
    2018:	e3cc9b69 	bic	r9, ip, #107520	; 0x1a400

0000201c <l1794>:
    201c:	6214a367 	andsvs	sl, r4, #-1677721599	; 0x9c000001

00002020 <l1795>:
    2020:	e59f3000 	ldr	r3, [pc]	; 2028 <interrupt_709>

00002024 <l1796>:
    2024:	ea000000 	b	202c <l1798>

00002028 <interrupt_709>:
    2028:	000fffac 	.word	0x000fffac

0000202c <l1798>:
    202c:	e1434096 	swpb	r4, r6, [r3]

00002030 <l1799>:
    2030:	e3939737 	orrs	r9, r3, #14417920	; 0xdc0000

00002034 <l1800>:
    2034:	e2be6a09 	adcs	r6, lr, #36864	; 0x9000

00002038 <interrupt_759>:
    2038:	e3da4615 	bics	r4, sl, #22020096	; 0x1500000

0000203c <interrupt_800>:
    203c:	91875976 	orrls	r5, r7, r6, ror r9

00002040 <l1803>:
    2040:	e3a0702a 	mov	r7, #42	; 0x2a

00002044 <l1804>:
    2044:	519da0d7 	ldrsbpl	sl, [sp, r7]

00002048 <l1805>:
    2048:	516f9f16 	clzpl	r9, r6

0000204c <interrupt_752>:
    204c:	d5cde011 	strble	lr, [sp, #17]

00002050 <l1807>:
    2050:	e9bd5ffe 	ldmib	sp!, {r1, r2, r3, r4, r5, r6, r7, r8, r9, sl, fp, ip, lr}

00002054 <l1808>:
    2054:	aa000004 	bge	206c <l1814>

00002058 <l1809>:
    2058:	e280109a 	add	r1, r0, #154	; 0x9a

0000205c <l1810>:
    205c:	60db700f 	sbcsvs	r7, fp, pc

00002060 <l1811>:
    2060:	e23084e9 	eors	r8, r0, #-385875968	; 0xe9000000

00002064 <l1812>:
    2064:	e1790465 	cmn	r9, r5, ror #8

00002068 <l1813>:
    2068:	ea000000 	b	2070 <l1815>

0000206c <l1814>:
    206c:	eafffffa 	b	205c <l1810>

00002070 <l1815>:
    2070:	ea000003 	b	2084 <l1820>

00002074 <l1816>:
    2074:	e280104d 	add	r1, r0, #77	; 0x4d

00002078 <l1817>:
    2078:	e3c5351d 	bic	r3, r5, #121634816	; 0x7400000

0000207c <l1818>:
    207c:	e388bc2e 	orr	fp, r8, #11776	; 0x2e00

00002080 <l1819>:
    2080:	ea000000 	b	2088 <interrupt_836>

00002084 <l1820>:
    2084:	eafffffb 	b	2078 <l1817>

00002088 <interrupt_836>:
    2088:	ef79263d 	svc	0x0079263d

0000208c <l1822>:
    208c:	e93d0004 	ldmdb	sp!, {r2}

00002090 <l1823>:
    2090:	63130bd7 	tstvs	r3, #220160	; 0x35c00

00002094 <interrupt_872>:
    2094:	e9bd0080 	ldmib	sp!, {r7}

00002098 <l1825>:
    2098:	e3a06018 	mov	r6, #24

0000209c <l1826>:
    209c:	e11d00f6 	ldrsh	r0, [sp, -r6]

000020a0 <l1827>:
    20a0:	60cec2a9 	sbcvs	ip, lr, r9, lsr #5

000020a4 <l1828>:
    20a4:	22912af2 	addscs	r2, r1, #991232	; 0xf2000

000020a8 <l1829>:
    20a8:	e3a0e00b 	mov	lr, #11

000020ac <l1830>:
    20ac:	e7cdb00e 	strb	fp, [sp, lr]

000020b0 <l1831>:
    20b0:	e3a05039 	mov	r5, #57	; 0x39

000020b4 <interrupt_290>:
    20b4:	e11d20d5 	ldrsb	r2, [sp, -r5]

000020b8 <l1833>:
    20b8:	e3a0703c 	mov	r7, #60	; 0x3c

000020bc <l1834>:
    20bc:	e72d3007 	str	r3, [sp, -r7]!

000020c0 <l1835>:
    20c0:	b1f0600a 	mvnslt	r6, sl

000020c4 <l1836>:
    20c4:	e3a0601c 	mov	r6, #28

000020c8 <l1837>:
    20c8:	e19d20f6 	ldrsh	r2, [sp, r6]

000020cc <l1838>:
    20cc:	001e2e59 	andseq	r2, lr, r9, asr lr

000020d0 <l1839>:
    20d0:	b0b2a806 	adcslt	sl, r2, r6, lsl #16

000020d4 <l1840>:
    20d4:	5a000003 	bpl	20e8 <l1845>

000020d8 <interrupt_253>:
    20d8:	e0742b86 	rsbs	r2, r4, r6, lsl #23

000020dc <l1842>:
    20dc:	e086b116 	add	fp, r6, r6, lsl r1

000020e0 <interrupt_297>:
    20e0:	81a0ec0a 	lslhi	lr, sl, #24

000020e4 <l1844>:
    20e4:	e3360011 	teq	r6, #17

000020e8 <l1845>:
    20e8:	607c006c 	rsbsvs	r0, ip, ip, rrx

000020ec <l1846>:
    20ec:	e1190533 	tst	r9, r3, lsr r5

000020f0 <l1847>:
    20f0:	e16fef12 	clz	lr, r2

000020f4 <l1848>:
    20f4:	b1cde3b4 	strhlt	lr, [sp, #52]	; 0x34

000020f8 <interrupt_107>:
    20f8:	20229a71 	eorcs	r9, r2, r1, ror sl

000020fc <l1850>:
    20fc:	b2280dc5 	eorlt	r0, r8, #12608	; 0x3140

00002100 <l1851>:
    2100:	ea000002 	b	2110 <l1855>

00002104 <l1852>:
    2104:	e280108f 	add	r1, r0, #143	; 0x8f

00002108 <l1853>:
    2108:	b1580062 	cmplt	r8, r2, rrx

0000210c <l1854>:
    210c:	ea000000 	b	2114 <l1856>

00002110 <l1855>:
    2110:	eafffffc 	b	2108 <l1853>

00002114 <l1856>:
    2114:	e3a00049 	mov	r0, #73	; 0x49

00002118 <l1857>:
    2118:	e19dc0d0 	ldrsb	ip, [sp, r0]

0000211c <interrupt_980>:
    211c:	e3a0a044 	mov	sl, #68	; 0x44

00002120 <interrupt_790>:
    2120:	518d10ba 	strhpl	r1, [sp, sl]

00002124 <interrupt_113>:
    2124:	e1dd30bc 	ldrh	r3, [sp, #12]

00002128 <interrupt_811>:
    2128:	e59f7000 	ldr	r7, [pc]	; 2130 <l1863>

0000212c <l1862>:
    212c:	ea000000 	b	2134 <l1864>

00002130 <l1863>:
    2130:	000fffdc 	.word	0x000fffdc

00002134 <l1864>:
    2134:	51475099 	swpbpl	r5, r9, [r7]

00002138 <l1865>:
    2138:	e17a05c7 	cmn	sl, r7, asr #11

0000213c <l1866>:
    213c:	e1a0ec72 	ror	lr, r2, ip

00002140 <l1867>:
    2140:	d1dd00b6 	ldrhle	r0, [sp, #6]

00002144 <l1868>:
    2144:	e3a0a037 	mov	sl, #55	; 0x37

00002148 <l1869>:
    2148:	77cda00a 	strbvc	sl, [sp, sl]

0000214c <l1870>:
    214c:	41720c79 	cmnmi	r2, r9, ror ip

00002150 <l1871>:
    2150:	ef41ec15 	svc	0x0041ec15

00002154 <l1872>:
    2154:	e3a0a003 	mov	sl, #3

00002158 <l1873>:
    2158:	e7cd000a 	strb	r0, [sp, sl]

0000215c <interrupt_390>:
    215c:	e0c62007 	sbc	r2, r6, r7

00002160 <l1875>:
    2160:	eff399ef 	svc	0x00f399ef

00002164 <interrupt_987>:
    2164:	e3a0402b 	mov	r4, #43	; 0x2b

00002168 <l1877>:
    2168:	e7dd3004 	ldrb	r3, [sp, r4]

0000216c <l1878>:
    216c:	e033c88b 	eors	ip, r3, fp, lsl #17

00002170 <l1879>:
    2170:	e3a04027 	mov	r4, #39	; 0x27

00002174 <l1880>:
    2174:	47dd5004 	ldrbmi	r5, [sp, r4]

00002178 <l1881>:
    2178:	e3a00000 	mov	r0, #0

0000217c <l1882>:
    217c:	e19de0f0 	ldrsh	lr, [sp, r0]

00002180 <l1883>:
    2180:	835107ab 	cmphi	r1, #44826624	; 0x2ac0000

00002184 <l1884>:
    2184:	e0afc00f 	adc	ip, pc, pc

00002188 <l1885>:
    2188:	e0844135 	add	r4, r4, r5, lsr r1

0000218c <l1886>:
    218c:	e59f9000 	ldr	r9, [pc]	; 2194 <l1888>

00002190 <l1887>:
    2190:	ea000000 	b	2198 <l1889>

00002194 <l1888>:
    2194:	000fffa0 	.word	0x000fffa0

00002198 <l1889>:
    2198:	e149009a 	swpb	r0, sl, [r9]

0000219c <interrupt_962>:
    219c:	e59f0000 	ldr	r0, [pc]	; 21a4 <l1892>

000021a0 <l1891>:
    21a0:	ea000000 	b	21a8 <l1893>

000021a4 <l1892>:
    21a4:	000fffe8 	.word	0x000fffe8

000021a8 <l1893>:
    21a8:	b1004099 	swplt	r4, r9, [r0]

000021ac <l1894>:
    21ac:	ef6ae131 	svc	0x006ae131

000021b0 <interrupt_663>:
    21b0:	739ba71a 	orrsvc	sl, fp, #6815744	; 0x680000

000021b4 <l1896>:
    21b4:	e23ea726 	eors	sl, lr, #9961472	; 0x980000

000021b8 <l1897>:
    21b8:	e0635174 	rsb	r5, r3, r4, ror r1

000021bc <l1898>:
    21bc:	c16f0f1c 	clzgt	r0, ip

000021c0 <l1899>:
    21c0:	e33200f0 	teq	r2, #240	; 0xf0

000021c4 <l1900>:
    21c4:	ea000002 	b	21d4 <l1904>

000021c8 <l1901>:
    21c8:	e2801039 	add	r1, r0, #57	; 0x39

000021cc <interrupt_407>:
    21cc:	e0e98e87 	rsc	r8, r9, r7, lsl #29

000021d0 <l1903>:
    21d0:	ea000000 	b	21d8 <l1905>

000021d4 <l1904>:
    21d4:	eafffffc 	b	21cc <interrupt_407>

000021d8 <l1905>:
    21d8:	e1ddc4f4 	ldrsh	ip, [sp, #68]	; 0x44

000021dc <l1906>:
    21dc:	91e0c007 	mvnls	ip, r7

000021e0 <l1907>:
    21e0:	e5ad6024 	str	r6, [sp, #36]!	; 0x24

000021e4 <l1908>:
    21e4:	e0c71c73 	sbc	r1, r7, r3, ror ip

000021e8 <l1909>:
    21e8:	e40d8018 	str	r8, [sp], #-24

000021ec <interrupt_652>:
    21ec:	e15a000a 	cmp	sl, sl

000021f0 <l1911>:
    21f0:	efa2ed56 	svc	0x00a2ed56

000021f4 <l1912>:
    21f4:	e3d16f8e 	bics	r6, r1, #568	; 0x238

000021f8 <l1913>:
    21f8:	e3a02014 	mov	r2, #20

000021fc <l1914>:
    21fc:	e7bda002 	ldr	sl, [sp, r2]!

00002200 <l1915>:
    2200:	e3a0800a 	mov	r8, #10

00002204 <l1916>:
    2204:	e75d6008 	ldrb	r6, [sp, -r8]

00002208 <interrupt_924>:
    2208:	51590572 	cmppl	r9, r2, ror r5

0000220c <l1918>:
    220c:	416fef15 	clzmi	lr, r5

00002210 <l1919>:
    2210:	a0e3300f 	rscge	r3, r3, pc

00002214 <l1920>:
    2214:	e59f8000 	ldr	r8, [pc]	; 221c <interrupt_912>

00002218 <l1921>:
    2218:	ea000000 	b	2220 <l1923>

0000221c <interrupt_912>:
    221c:	000fffe8 	.word	0x000fffe8

00002220 <l1923>:
    2220:	e1081099 	swp	r1, r9, [r8]

00002224 <l1924>:
    2224:	d114000b 	tstle	r4, fp

00002228 <l1925>:
    2228:	e16f4f13 	clz	r4, r3

0000222c <l1926>:
    222c:	e3a08028 	mov	r8, #40	; 0x28

00002230 <interrupt_108>:
    2230:	118d70b8 	strhne	r7, [sp, r8]

00002234 <l1928>:
    2234:	e2b1e60f 	adcs	lr, r1, #15728640	; 0xf00000

00002238 <l1929>:
    2238:	e3a0a020 	mov	sl, #32

0000223c <l1930>:
    223c:	e60dc00a 	str	ip, [sp], -sl

00002240 <l1931>:
    2240:	e3a09038 	mov	r9, #56	; 0x38

00002244 <interrupt_37>:
    2244:	319db0b9 	ldrhcc	fp, [sp, r9]

00002248 <l1933>:
    2248:	e3a0504a 	mov	r5, #74	; 0x4a

0000224c <l1934>:
    224c:	518db0b5 	strhpl	fp, [sp, r5]

00002250 <interrupt_946>:
    2250:	e3a01014 	mov	r1, #20

00002254 <l1936>:
    2254:	e7cd5001 	strb	r5, [sp, r1]

00002258 <l1937>:
    2258:	b1dd31d5 	ldrsblt	r3, [sp, #21]

0000225c <interrupt_728>:
    225c:	d0e9933a 	rscle	r9, r9, sl, lsr r3

00002260 <l1939>:
    2260:	e33b0972 	teq	fp, #1867776	; 0x1c8000

00002264 <l1940>:
    2264:	c16f1f1a 	clzgt	r1, sl

00002268 <l1941>:
    2268:	8a000007 	bhi	228c <l1950>

0000226c <l1942>:
    226c:	23dbeaee 	bicscs	lr, fp, #974848	; 0xee000

00002270 <l1943>:
    2270:	e0753766 	rsbs	r3, r5, r6, ror #14

00002274 <l1944>:
    2274:	e0678413 	rsb	r8, r7, r3, lsl r4

00002278 <l1945>:
    2278:	c1e0e215 	mvngt	lr, r5, lsl r2

0000227c <l1946>:
    227c:	317a0344 	cmncc	sl, r4, asr #6

00002280 <l1947>:
    2280:	10e66e3e 	rscne	r6, r6, lr, lsr lr

00002284 <l1948>:
    2284:	11a09061 	rrxne	r9, r1

00002288 <l1949>:
    2288:	61710009 	cmnvs	r1, r9

0000228c <l1950>:
    228c:	e1f06008 	mvns	r6, r8

00002290 <l1951>:
    2290:	e055b744 	subs	fp, r5, r4, asr #14

00002294 <l1952>:
    2294:	da000001 	ble	22a0 <l1955>

00002298 <interrupt_128>:
    2298:	e1110c79 	tst	r1, r9, ror ip

0000229c <l1954>:
    229c:	e004706c 	and	r7, r4, ip, rrx

000022a0 <l1955>:
    22a0:	333b0401 	teqcc	fp, #16777216	; 0x1000000

000022a4 <l1956>:
    22a4:	efb5af14 	svc	0x00b5af14

000022a8 <interrupt_940>:
    22a8:	20bfe069 	adcscs	lr, pc, r9, rrx

000022ac <l1958>:
    22ac:	ea000007 	b	22d0 <l1967>

000022b0 <interrupt_285>:
    22b0:	a16f8f12 	clzge	r8, r2

000022b4 <l1960>:
    22b4:	e0a96857 	adc	r6, r9, r7, asr r8

000022b8 <l1961>:
    22b8:	82537332 	subshi	r7, r3, #-939524096	; 0xc8000000

000022bc <l1962>:
    22bc:	c0c89843 	sbcgt	r9, r8, r3, asr #16

000022c0 <l1963>:
    22c0:	516f3f18 	clzpl	r3, r8

000022c4 <l1964>:
    22c4:	e138000e 	teq	r8, lr

000022c8 <l1965>:
    22c8:	00b2bb19 	adcseq	fp, r2, r9, lsl fp

000022cc <l1966>:
    22cc:	00909183 	addseq	r9, r0, r3, lsl #3

000022d0 <l1967>:
    22d0:	e05e700f 	subs	r7, lr, pc

000022d4 <interrupt_227>:
    22d4:	e3a05008 	mov	r5, #8

000022d8 <interrupt_408>:
    22d8:	579d7005 	ldrpl	r7, [sp, r5]

000022dc <l1970>:
    22dc:	ea000007 	b	2300 <l1979>

000022e0 <interrupt_289>:
    22e0:	e28010be 	add	r1, r0, #190	; 0xbe

000022e4 <l1972>:
    22e4:	c049a068 	subgt	sl, r9, r8, rrx

000022e8 <l1973>:
    22e8:	907a8979 	rsbsls	r8, sl, r9, ror r9

000022ec <l1974>:
    22ec:	2177075e 	cmncs	r7, lr, asr r7

000022f0 <interrupt_43>:
    22f0:	e18e8f0a 	orr	r8, lr, sl, lsl #30

000022f4 <l1976>:
    22f4:	a19bb007 	orrsge	fp, fp, r7

000022f8 <l1977>:
    22f8:	c3350792 	teqgt	r5, #38273024	; 0x2480000

000022fc <interrupt_757>:
    22fc:	ea000000 	b	2304 <l1980>

00002300 <l1979>:
    2300:	eafffff7 	b	22e4 <l1972>

00002304 <l1980>:
    2304:	e0558006 	subs	r8, r5, r6

00002308 <l1981>:
    2308:	113f000a 	teqne	pc, sl

0000230c <l1982>:
    230c:	b19b1008 	orrslt	r1, fp, r8

00002310 <interrupt_789>:
    2310:	e59f8000 	ldr	r8, [pc]	; 2318 <l1985>

00002314 <l1984>:
    2314:	ea000000 	b	231c <l1986>

00002318 <l1985>:
    2318:	000fffdc 	.word	0x000fffdc

0000231c <l1986>:
    231c:	e148b09c 	swpb	fp, ip, [r8]

00002320 <interrupt_710>:
    2320:	e04b5005 	sub	r5, fp, r5

00002324 <l1988>:
    2324:	efdce9ca 	svc	0x00dce9ca

00002328 <interrupt_948>:
    2328:	e17e0b77 	cmn	lr, r7, ror fp

0000232c <l1990>:
    232c:	e388b912 	orr	fp, r8, #294912	; 0x48000

00002330 <interrupt_580>:
    2330:	724855bb 	subvc	r5, r8, #784334848	; 0x2ec00000

00002334 <l1992>:
    2334:	d0460000 	suble	r0, r6, r0

00002338 <l1993>:
    2338:	901acf0b 	andsls	ip, sl, fp, lsl #30

0000233c <l1994>:
    233c:	b2231909 	eorlt	r1, r3, #147456	; 0x24000

00002340 <interrupt_649>:
    2340:	50af6006 	adcpl	r6, pc, r6

00002344 <l1996>:
    2344:	435104cf 	cmpmi	r1, #-822083584	; 0xcf000000

00002348 <l1997>:
    2348:	90d3397c 	sbcsls	r3, r3, ip, ror r9

0000234c <l1998>:
    234c:	70229002 	eorvc	r9, r2, r2

00002350 <l1999>:
    2350:	ea000001 	b	235c <interrupt_783>

00002354 <l2000>:
    2354:	d17c095e 	cmnle	ip, lr, asr r9

00002358 <l2001>:
    2358:	e276a47e 	rsbs	sl, r6, #2113929216	; 0x7e000000

0000235c <interrupt_783>:
    235c:	10d3b005 	sbcsne	fp, r3, r5

00002360 <l2003>:
    2360:	6a000007 	bvs	2384 <l2012>

00002364 <l2004>:
    2364:	806eb005 	rsbhi	fp, lr, r5

00002368 <l2005>:
    2368:	e09c674b 	adds	r6, ip, fp, asr #14

0000236c <interrupt_265>:
    236c:	41f02003 	mvnsmi	r2, r3

00002370 <interrupt_86>:
    2370:	e1140752 	tst	r4, r2, asr r7

00002374 <l2008>:
    2374:	e0aee45a 	adc	lr, lr, sl, asr r4

00002378 <interrupt_95>:
    2378:	31d61004 	bicscc	r1, r6, r4

0000237c <l2010>:
    237c:	d0a64174 	adcle	r4, r6, r4, ror r1

00002380 <l2011>:
    2380:	e1f0e237 	mvns	lr, r7, lsr r2

00002384 <l2012>:
    2384:	51500651 	cmppl	r0, r1, asr r6

00002388 <l2013>:
    2388:	e0b54008 	adcs	r4, r5, r8

0000238c <l2014>:
    238c:	e9bd018f 	ldmib	sp!, {r0, r1, r2, r3, r7, r8}

00002390 <l2015>:
    2390:	33780c45 	cmncc	r8, #17664	; 0x4500

00002394 <l2016>:
    2394:	c2733e71 	rsbsgt	r3, r3, #1808	; 0x710

00002398 <l2017>:
    2398:	e53de00c 	ldr	lr, [sp, #-12]!

0000239c <interrupt_933>:
    239c:	efac9a76 	svc	0x00ac9a76

000023a0 <l2019>:
    23a0:	7355029d 	cmpvc	r5, #-805306359	; 0xd0000009

000023a4 <l2020>:
    23a4:	e153006b 	cmp	r3, fp, rrx

000023a8 <l2021>:
    23a8:	e5ad2008 	str	r2, [sp, #8]!

000023ac <l2022>:
    23ac:	e18c6003 	orr	r6, ip, r3

000023b0 <l2023>:
    23b0:	55ddc00d 	ldrbpl	ip, [sp, #13]

000023b4 <l2024>:
    23b4:	d1dda0dd 	ldrsble	sl, [sp, #13]

000023b8 <interrupt_673>:
    23b8:	e40da008 	str	sl, [sp], #-8

000023bc <l2026>:
    23bc:	e04575e9 	sub	r7, r5, r9, ror #11

000023c0 <l2027>:
    23c0:	c13e0946 	teqgt	lr, r6, asr #18

000023c4 <l2028>:
    23c4:	c316010f 	tstgt	r6, #-1073741821	; 0xc0000003

000023c8 <l2029>:
    23c8:	6a000002 	bvs	23d8 <interrupt_539>

000023cc <l2030>:
    23cc:	718ce063 	orrvc	lr, ip, r3, rrx

000023d0 <l2031>:
    23d0:	21a0c061 	rrxcs	ip, r1

000023d4 <l2032>:
    23d4:	a17b0005 	cmnge	fp, r5

000023d8 <interrupt_539>:
    23d8:	71710a4e 	cmnvc	r1, lr, asr #20

000023dc <l2034>:
    23dc:	1001c858 	andne	ip, r1, r8, asr r8

000023e0 <l2035>:
    23e0:	e1a00000 	nop			; (mov r0, r0)

000023e4 <l2036>:
    23e4:	e3e03051 	mvn	r3, #81	; 0x51

000023e8 <l2037>:
    23e8:	4172071c 	cmnmi	r2, ip, lsl r7

000023ec <l2038>:
    23ec:	e045198b 	sub	r1, r5, fp, lsl #19

000023f0 <interrupt_256>:
    23f0:	ba000005 	blt	240c <l2046>

000023f4 <l2040>:
    23f4:	e28010a1 	add	r1, r0, #161	; 0xa1

000023f8 <interrupt_817>:
    23f8:	30d5683c 	sbcscc	r6, r5, ip, lsr r8

000023fc <l2042>:
    23fc:	e2712869 	rsbs	r2, r1, #6881280	; 0x690000

00002400 <l2043>:
    2400:	d1f0e006 	mvnsle	lr, r6

00002404 <interrupt_864>:
    2404:	e1f05d49 	mvns	r5, r9, asr #26

00002408 <l2045>:
    2408:	ea000000 	b	2410 <l2047>

0000240c <l2046>:
    240c:	eafffff9 	b	23f8 <interrupt_817>

00002410 <l2047>:
    2410:	e1f0300a 	mvns	r3, sl

00002414 <l2048>:
    2414:	81330038 	teqhi	r3, r8, lsr r0

00002418 <l2049>:
    2418:	e59fa000 	ldr	sl, [pc]	; 2420 <l2051>

0000241c <l2050>:
    241c:	ea000000 	b	2424 <l2052>

00002420 <l2051>:
    2420:	000fffd4 	.word	0x000fffd4

00002424 <l2052>:
    2424:	514a8097 	swpbpl	r8, r7, [sl]

00002428 <l2053>:
    2428:	b5cd6024 	strblt	r6, [sp, #36]	; 0x24

0000242c <l2054>:
    242c:	e0448316 	sub	r8, r4, r6, lsl r3

00002430 <l2055>:
    2430:	e3a0a026 	mov	sl, #38	; 0x26

00002434 <l2056>:
    2434:	e7cd600a 	strb	r6, [sp, sl]

00002438 <l2057>:
    2438:	e154000e 	cmp	r4, lr

0000243c <l2058>:
    243c:	7065661a 	rsbvc	r6, r5, sl, lsl r6

00002440 <l2059>:
    2440:	e0a0c066 	adc	ip, r0, r6, rrx

00002444 <l2060>:
    2444:	e3a02006 	mov	r2, #6

00002448 <interrupt_347>:
    2448:	e10d80b2 	strh	r8, [sp, -r2]

0000244c <l2062>:
    244c:	207c2061 	rsbscs	r2, ip, r1, rrx

00002450 <l2063>:
    2450:	e3a0802c 	mov	r8, #44	; 0x2c

00002454 <interrupt_141>:
    2454:	a79d4008 	ldrge	r4, [sp, r8]

00002458 <l2065>:
    2458:	916f5f11 	clzls	r5, r1

0000245c <interrupt_443>:
    245c:	61b05004 	movsvs	r5, r4

00002460 <interrupt_974>:
    2460:	e35b01b7 	cmp	fp, #-1073741779	; 0xc000002d

00002464 <l2068>:
    2464:	d1887a56 	orrle	r7, r8, r6, asr sl

00002468 <l2069>:
    2468:	da000002 	ble	2478 <interrupt_627>

0000246c <l2070>:
    246c:	e28010fe 	add	r1, r0, #254	; 0xfe

00002470 <l2071>:
    2470:	e155081a 	cmp	r5, sl, lsl r8

00002474 <l2072>:
    2474:	ea000000 	b	247c <l2074>

00002478 <interrupt_627>:
    2478:	eafffffc 	b	2470 <l2071>

0000247c <l2074>:
    247c:	e0482237 	sub	r2, r8, r7, lsr r2

00002480 <l2075>:
    2480:	73350366 	teqvc	r5, #-1744830463	; 0x98000001

00002484 <l2076>:
    2484:	01140b71 	tsteq	r4, r1, ror fp

00002488 <l2077>:
    2488:	e3a0c010 	mov	ip, #16

0000248c <l2078>:
    248c:	e7bd000c 	ldr	r0, [sp, ip]!

00002490 <l2079>:
    2490:	ef39695e 	svc	0x0039695e

00002494 <l2080>:
    2494:	e03fb007 	eors	fp, pc, r7

00002498 <l2081>:
    2498:	c11500c6 	tstgt	r5, r6, asr #1

0000249c <l2082>:
    249c:	e9ad4e2f 	stmib	sp!, {r0, r1, r2, r3, r5, r9, sl, fp, lr}

000024a0 <interrupt_619>:
    24a0:	ef54b531 	svc	0x0054b531

000024a4 <l2084>:
    24a4:	00de2e74 	sbcseq	r2, lr, r4, ror lr

000024a8 <l2085>:
    24a8:	e0a56959 	adc	r6, r5, r9, asr r9

000024ac <interrupt_354>:
    24ac:	4a000003 	bmi	24c0 <l2091>

000024b0 <l2087>:
    24b0:	e280105c 	add	r1, r0, #92	; 0x5c

000024b4 <l2088>:
    24b4:	c1b0c008 	movsgt	ip, r8

000024b8 <interrupt_482>:
    24b8:	e0c59512 	sbc	r9, r5, r2, lsl r5

000024bc <l2090>:
    24bc:	ea000000 	b	24c4 <interrupt_189>

000024c0 <l2091>:
    24c0:	eafffffb 	b	24b4 <l2088>

000024c4 <interrupt_189>:
    24c4:	e39e593f 	orrs	r5, lr, #1032192	; 0xfc000

000024c8 <l2093>:
    24c8:	e82d8002 	stmda	sp!, {r1, pc}

000024cc <interrupt_337>:
    24cc:	e064500b 	rsb	r5, r4, fp

000024d0 <l2095>:
    24d0:	e9bd40b0 	ldmib	sp!, {r4, r5, r7, lr}

000024d4 <l2096>:
    24d4:	e1100b16 	tst	r0, r6, lsl fp

000024d8 <l2097>:
    24d8:	e1a00000 	nop			; (mov r0, r0)

000024dc <interrupt_511>:
    24dc:	d132000f 	teqle	r2, pc

000024e0 <l2099>:
    24e0:	e1818312 	orr	r8, r1, r2, lsl r3

000024e4 <l2100>:
    24e4:	ef2045ba 	svc	0x002045ba

000024e8 <l2101>:
    24e8:	9111000c 	tstls	r1, ip

000024ec <l2102>:
    24ec:	e3a0102c 	mov	r1, #44	; 0x2c

000024f0 <l2103>:
    24f0:	e73d0001 	ldr	r0, [sp, -r1]!

000024f4 <l2104>:
    24f4:	788d9b0d 	stmvc	sp, {r0, r2, r3, r8, r9, fp, ip, pc}

000024f8 <l2105>:
    24f8:	e3a0601f 	mov	r6, #31

000024fc <l2106>:
    24fc:	e19d90d6 	ldrsb	r9, [sp, r6]

00002500 <l2107>:
    2500:	b1700771 	cmnlt	r0, r1, ror r7

00002504 <l2108>:
    2504:	c0791b44 	rsbsgt	r1, r9, r4, asr #22

00002508 <l2109>:
    2508:	9a000002 	bls	2518 <interrupt_804>

0000250c <l2110>:
    250c:	e2801039 	add	r1, r0, #57	; 0x39

00002510 <l2111>:
    2510:	90f23760 	rscsls	r3, r2, r0, ror #14

00002514 <interrupt_954>:
    2514:	ea000000 	b	251c <l2114>

00002518 <interrupt_804>:
    2518:	eafffffc 	b	2510 <l2111>

0000251c <l2114>:
    251c:	d09ec657 	addsle	ip, lr, r7, asr r6

00002520 <interrupt_461>:
    2520:	e3a01004 	mov	r1, #4

00002524 <l2116>:
    2524:	e19d20d1 	ldrsb	r2, [sp, r1]

00002528 <l2117>:
    2528:	816f5f17 	clzhi	r5, r7

0000252c <l2118>:
    252c:	4131087b 	teqmi	r1, fp, ror r8

00002530 <interrupt_51>:
    2530:	413e000c 	teqmi	lr, ip

00002534 <l2120>:
    2534:	e3a00006 	mov	r0, #6

00002538 <l2121>:
    2538:	e19d00b0 	ldrh	r0, [sp, r0]

0000253c <l2122>:
    253c:	81a00006 	movhi	r0, r6

00002540 <l2123>:
    2540:	c0353004 	eorsgt	r3, r5, r4

00002544 <l2124>:
    2544:	41a0e0c8 	asrmi	lr, r8, #1

00002548 <interrupt_688>:
    2548:	ea000006 	b	2568 <l2133>

0000254c <l2126>:
    254c:	3182600a 	orrcc	r6, r2, sl

00002550 <l2127>:
    2550:	90267000 	eorls	r7, r6, r0

00002554 <l2128>:
    2554:	e19a8007 	orrs	r8, sl, r7

00002558 <l2129>:
    2558:	92c06443 	sbcls	r6, r0, #1124073472	; 0x43000000

0000255c <l2130>:
    255c:	e08e606b 	add	r6, lr, fp, rrx

00002560 <interrupt_665>:
    2560:	c06973e5 	rsbgt	r7, r9, r5, ror #7

00002564 <interrupt_123>:
    2564:	a088b956 	addge	fp, r8, r6, asr r9

00002568 <l2133>:
    2568:	01b04a06 	lslseq	r4, r6, #20

0000256c <l2134>:
    256c:	e003a846 	and	sl, r3, r6, asr #16

00002570 <l2135>:
    2570:	efb72d52 	svc	0x00b72d52

00002574 <l2136>:
    2574:	b039800f 	eorslt	r8, r9, pc

00002578 <l2137>:
    2578:	e59fb000 	ldr	fp, [pc]	; 2580 <l2139>

0000257c <l2138>:
    257c:	ea000000 	b	2584 <l2140>

00002580 <l2139>:
    2580:	000fffd0 	.word	0x000fffd0

00002584 <l2140>:
    2584:	914b109c 	swpbls	r1, ip, [fp]

00002588 <l2141>:
    2588:	e1e05077 	mvn	r5, r7, ror r0

0000258c <interrupt_544>:
    258c:	e3a02024 	mov	r2, #36	; 0x24

00002590 <l2143>:
    2590:	779dc002 	ldrvc	ip, [sp, r2]

00002594 <l2144>:
    2594:	ef270dde 	svc	0x00270dde

00002598 <interrupt_16>:
    2598:	e1dcc00e 	bics	ip, ip, lr

0000259c <l2146>:
    259c:	61520375 	cmpvs	r2, r5, ror r3

000025a0 <l2147>:
    25a0:	e3a07022 	mov	r7, #34	; 0x22

000025a4 <l2148>:
    25a4:	e7dd2007 	ldrb	r2, [sp, r7]

000025a8 <l2149>:
    25a8:	e92d8040 	push	{r6, pc}

000025ac <l2150>:
    25ac:	e11e0a0e 	tst	lr, lr, lsl #20

000025b0 <l2151>:
    25b0:	91190007 	tstls	r9, r7

000025b4 <interrupt_708>:
    25b4:	e1907577 	orrs	r7, r0, r7, ror r5

000025b8 <l2153>:
    25b8:	e59f9000 	ldr	r9, [pc]	; 25c0 <l2155>

000025bc <l2154>:
    25bc:	ea000000 	b	25c4 <l2156>

000025c0 <l2155>:
    25c0:	000fffac 	.word	0x000fffac

000025c4 <l2156>:
    25c4:	3149b096 	swpbcc	fp, r6, [r9]

000025c8 <interrupt_838>:
    25c8:	b05ec006 	subslt	ip, lr, r6

000025cc <l2158>:
    25cc:	e052977b 	subs	r9, r2, fp, ror r7

000025d0 <l2159>:
    25d0:	c2b0ecf5 	adcsgt	lr, r0, #62720	; 0xf500

000025d4 <l2160>:
    25d4:	9029195c 	eorls	r1, r9, ip, asr r9

000025d8 <l2161>:
    25d8:	75dd2017 	ldrbvc	r2, [sp, #23]

000025dc <interrupt_372>:
    25dc:	a13a000a 	teqge	sl, sl

000025e0 <l2163>:
    25e0:	e5adb00c 	str	fp, [sp, #12]!

000025e4 <interrupt_633>:
    25e4:	ea000004 	b	25fc <l2170>

000025e8 <l2165>:
    25e8:	e2801087 	add	r1, r0, #135	; 0x87

000025ec <interrupt_356>:
    25ec:	d0b12e43 	adcsle	r2, r1, r3, asr #28

000025f0 <l2167>:
    25f0:	538fbd2b 	orrpl	fp, pc, #2752	; 0xac0

000025f4 <l2168>:
    25f4:	516f7f10 	clzpl	r7, r0

000025f8 <l2169>:
    25f8:	ea000000 	b	2600 <l2171>

000025fc <l2170>:
    25fc:	eafffffa 	b	25ec <interrupt_356>

00002600 <l2171>:
    2600:	e92d8102 	push	{r1, r8, pc}

00002604 <interrupt_231>:
    2604:	e2f98be6 	rscs	r8, r9, #235520	; 0x39800

00002608 <l2173>:
    2608:	e3a07013 	mov	r7, #19

0000260c <l2174>:
    260c:	e19de0d7 	ldrsb	lr, [sp, r7]

00002610 <l2175>:
    2610:	e3a0a008 	mov	sl, #8

00002614 <l2176>:
    2614:	e69d100a 	ldr	r1, [sp], sl

00002618 <l2177>:
    2618:	e49db004 	pop	{fp}		; (ldr fp, [sp], #4)

0000261c <l2178>:
    261c:	815d51b2 	ldrhhi	r5, [sp, #-18]	; 0xffffffee

00002620 <l2179>:
    2620:	ea000005 	b	263c <l2186>

00002624 <l2180>:
    2624:	01300ec4 	teqeq	r0, r4, asr #29

00002628 <l2181>:
    2628:	811e006b 	tsthi	lr, fp, rrx

0000262c <l2182>:
    262c:	0191c00b 	orrseq	ip, r1, fp

00002630 <l2183>:
    2630:	e2c9a829 	sbc	sl, r9, #2686976	; 0x290000

00002634 <interrupt_560>:
    2634:	e0f4ea71 	rscs	lr, r4, r1, ror sl

00002638 <l2185>:
    2638:	4252aa9d 	subsmi	sl, r2, #643072	; 0x9d000

0000263c <l2186>:
    263c:	c0418000 	subgt	r8, r1, r0

00002640 <l2187>:
    2640:	e3a0400e 	mov	r4, #14

00002644 <l2188>:
    2644:	319d50f4 	ldrshcc	r5, [sp, r4]

00002648 <interrupt_662>:
    2648:	e1b0500e 	movs	r5, lr

0000264c <l2190>:
    264c:	590d98a1 	stmdbpl	sp, {r0, r5, r7, fp, ip, pc}

00002650 <l2191>:
    2650:	75cdb007 	strbvc	fp, [sp, #7]

00002654 <l2192>:
    2654:	e0566ecc 	subs	r6, r6, ip, asr #29

00002658 <l2193>:
    2658:	ef032729 	svc	0x00032729

0000265c <interrupt_574>:
    265c:	ea000002 	b	266c <l2198>

00002660 <interrupt_56>:
    2660:	e28010cb 	add	r1, r0, #203	; 0xcb

00002664 <l2196>:
    2664:	e21fb50a 	ands	fp, pc, #41943040	; 0x2800000

00002668 <l2197>:
    2668:	ea000000 	b	2670 <l2199>

0000266c <l2198>:
    266c:	eafffffc 	b	2664 <l2196>

00002670 <l2199>:
    2670:	e3a0401a 	mov	r4, #26

00002674 <l2200>:
    2674:	211da0b4 	ldrhcs	sl, [sp, -r4]

00002678 <l2201>:
    2678:	61f05008 	mvnsvs	r5, r8

0000267c <l2202>:
    267c:	ef59da0d 	svc	0x0059da0d

00002680 <l2203>:
    2680:	ea000006 	b	26a0 <l2211>

00002684 <l2204>:
    2684:	a13e07e3 	teqge	lr, r3, ror #15

00002688 <interrupt_567>:
    2688:	d2e11b32 	rscle	r1, r1, #51200	; 0xc800

0000268c <l2206>:
    268c:	e0df3008 	sbcs	r3, pc, r8

00002690 <interrupt_104>:
    2690:	9050b000 	subsls	fp, r0, r0

00002694 <l2208>:
    2694:	02470f9a 	subeq	r0, r7, #616	; 0x268

00002698 <l2209>:
    2698:	42376603 	eorsmi	r6, r7, #3145728	; 0x300000

0000269c <l2210>:
    269c:	51838068 	orrpl	r8, r3, r8, rrx

000026a0 <l2211>:
    26a0:	e1d60066 	bics	r0, r6, r6, rrx

000026a4 <l2212>:
    26a4:	a14d60b2 	strhge	r6, [sp, #-2]

000026a8 <l2213>:
    26a8:	e9bd4155 	ldmib	sp!, {r0, r2, r4, r6, r8, lr}

000026ac <l2214>:
    26ac:	ea000006 	b	26cc <interrupt_917>

000026b0 <l2215>:
    26b0:	e1d3500b 	bics	r5, r3, fp

000026b4 <interrupt_457>:
    26b4:	615e0a12 	cmpvs	lr, r2, lsl sl

000026b8 <interrupt_880>:
    26b8:	72eac507 	rscvc	ip, sl, #29360128	; 0x1c00000

000026bc <l2218>:
    26bc:	a0063c76 	andge	r3, r6, r6, ror ip

000026c0 <l2219>:
    26c0:	51b0b77a 	rorspl	fp, sl, r7

000026c4 <l2220>:
    26c4:	c17c0060 	cmngt	ip, r0, rrx

000026c8 <l2221>:
    26c8:	e248a4ad 	sub	sl, r8, #-1392508928	; 0xad000000

000026cc <interrupt_917>:
    26cc:	6216ba0e 	andsvs	fp, r6, #57344	; 0xe000

000026d0 <l2223>:
    26d0:	ef6e1123 	svc	0x006e1123

000026d4 <l2224>:
    26d4:	e139006e 	teq	r9, lr, rrx

000026d8 <l2225>:
    26d8:	e9bd4805 	ldmib	sp!, {r0, r2, fp, lr}

000026dc <interrupt_606>:
    26dc:	e53d3038 	ldr	r3, [sp, #-56]!	; 0x38

000026e0 <interrupt_802>:
    26e0:	416f0f1a 	clzmi	r0, sl

000026e4 <l2228>:
    26e4:	480d2100 	stmdami	sp, {r8, sp}

000026e8 <l2229>:
    26e8:	91750234 	cmnls	r5, r4, lsr r2

000026ec <l2230>:
    26ec:	302fc006 	eorcc	ip, pc, r6

000026f0 <l2231>:
    26f0:	0195500a 	orrseq	r5, r5, sl

000026f4 <l2232>:
    26f4:	e1710854 	cmn	r1, r4, asr r8

000026f8 <l2233>:
    26f8:	efc9cbfc 	svc	0x00c9cbfc

000026fc <l2234>:
    26fc:	31350e78 	teqcc	r5, r8, ror lr

00002700 <l2235>:
    2700:	406a1677 	rsbmi	r1, sl, r7, ror r6

00002704 <l2236>:
    2704:	e3a07015 	mov	r7, #21

00002708 <l2237>:
    2708:	67dd0007 	ldrbvs	r0, [sp, r7]

0000270c <interrupt_93>:
    270c:	588dbedf 	stmpl	sp, {r0, r1, r2, r3, r4, r6, r7, r9, sl, fp, ip, sp, pc}

00002710 <l2239>:
    2710:	e0b7c00e 	adcs	ip, r7, lr

00002714 <l2240>:
    2714:	e83d0810 	ldmda	sp!, {r4, fp}

00002718 <interrupt_72>:
    2718:	91360ce8 	teqls	r6, r8, ror #25

0000271c <l2242>:
    271c:	e59fc000 	ldr	ip, [pc]	; 2724 <l2244>

00002720 <l2243>:
    2720:	ea000000 	b	2728 <l2245>

00002724 <l2244>:
    2724:	000fffd8 	.word	0x000fffd8

00002728 <l2245>:
    2728:	710c4098 	swpvc	r4, r8, [ip]

0000272c <l2246>:
    272c:	41510706 	cmpmi	r1, r6, lsl #14

00002730 <l2247>:
    2730:	c3750fb2 	cmngt	r5, #712	; 0x2c8

00002734 <l2248>:
    2734:	a1dd10d4 	ldrsbge	r1, [sp, #4]

00002738 <interrupt_18>:
    2738:	13b07c09 	movsne	r7, #2304	; 0x900

0000273c <interrupt_159>:
    273c:	e271318e 	rsbs	r3, r1, #-2147483613	; 0x80000023

00002740 <l2251>:
    2740:	81cd91ba 	strhhi	r9, [sp, #26]

00002744 <l2252>:
    2744:	e08a46c9 	add	r4, sl, r9, asr #13

00002748 <l2253>:
    2748:	e49d0038 	ldr	r0, [sp], #56	; 0x38

0000274c <l2254>:
    274c:	e82d0e0e 	stmda	sp!, {r1, r2, r3, r9, sl, fp}

00002750 <interrupt_309>:
    2750:	726a3fed 	rsbvc	r3, sl, #948	; 0x3b4

00002754 <l2256>:
    2754:	0006706e 	andeq	r7, r6, lr, rrx

00002758 <l2257>:
    2758:	e15dc0b2 	ldrh	ip, [sp, #-2]

0000275c <l2258>:
    275c:	5071ce59 	rsbspl	ip, r1, r9, asr lr

00002760 <l2259>:
    2760:	3331066a 	teqcc	r1, #111149056	; 0x6a00000

00002764 <l2260>:
    2764:	e1a00000 	nop			; (mov r0, r0)

00002768 <l2261>:
    2768:	1007a00f 	andne	sl, r7, pc

0000276c <interrupt_791>:
    276c:	eff74412 	svc	0x00f74412

00002770 <l2263>:
    2770:	e9bd0401 	ldmib	sp!, {r0, sl}

00002774 <l2264>:
    2774:	515de2d0 	ldrsbpl	lr, [sp, #-32]	; 0xffffffe0

00002778 <l2265>:
    2778:	e0db9000 	sbcs	r9, fp, r0

0000277c <interrupt_158>:
    277c:	722aa121 	eorvc	sl, sl, #1073741832	; 0x40000008

00002780 <l2267>:
    2780:	e2a8a86a 	adc	sl, r8, #6946816	; 0x6a0000

00002784 <l2268>:
    2784:	e1d5c5ca 	bics	ip, r5, sl, asr #11

00002788 <interrupt_927>:
    2788:	d55d0012 	ldrble	r0, [sp, #-18]

0000278c <l2270>:
    278c:	71998003 	orrsvc	r8, r9, r3

00002790 <interrupt_822>:
    2790:	e5dd9008 	ldrb	r9, [sp, #8]

00002794 <l2272>:
    2794:	e59f8000 	ldr	r8, [pc]	; 279c <l2274>

00002798 <interrupt_861>:
    2798:	ea000000 	b	27a0 <l2275>

0000279c <l2274>:
    279c:	000fffa4 	.word	0x000fffa4

000027a0 <l2275>:
    27a0:	9108a095 	swpls	sl, r5, [r8]

000027a4 <l2276>:
    27a4:	21cde0b4 	strhcs	lr, [sp, #4]

000027a8 <l2277>:
    27a8:	e3a06012 	mov	r6, #18

000027ac <l2278>:
    27ac:	210d90b6 	strhcs	r9, [sp, -r6]

000027b0 <l2279>:
    27b0:	50457a81 	subpl	r7, r5, r1, lsl #21

000027b4 <interrupt_706>:
    27b4:	a131021e 	teqge	r1, lr, lsl r2

000027b8 <l2281>:
    27b8:	7a000007 	bvc	27dc <interrupt_979>

000027bc <l2282>:
    27bc:	e19ec834 	orrs	ip, lr, r4, lsr r8

000027c0 <interrupt_730>:
    27c0:	e255a011 	subs	sl, r5, #17

000027c4 <interrupt_675>:
    27c4:	32e6b8ad 	rsccc	fp, r6, #11337728	; 0xad0000

000027c8 <l2285>:
    27c8:	e092716a 	adds	r7, r2, sl, ror #2

000027cc <l2286>:
    27cc:	416f5f16 	clzmi	r5, r6

000027d0 <l2287>:
    27d0:	c16f7f11 	clzgt	r7, r1

000027d4 <l2288>:
    27d4:	81845f2e 	orrhi	r5, r4, lr, lsr #30

000027d8 <l2289>:
    27d8:	709aa30b 	addsvc	sl, sl, fp, lsl #6

000027dc <interrupt_979>:
    27dc:	e16fbf14 	clz	fp, r4

000027e0 <interrupt_693>:
    27e0:	2054268a 	subscs	r2, r4, sl, lsl #13

000027e4 <l2292>:
    27e4:	01940001 	orrseq	r0, r4, r1

000027e8 <l2293>:
    27e8:	ea000002 	b	27f8 <l2297>

000027ec <l2294>:
    27ec:	e28010f7 	add	r1, r0, #247	; 0xf7

000027f0 <l2295>:
    27f0:	9139077b 	teqls	r9, fp, ror r7

000027f4 <l2296>:
    27f4:	ea000000 	b	27fc <l2298>

000027f8 <l2297>:
    27f8:	eafffffc 	b	27f0 <l2295>

000027fc <l2298>:
    27fc:	11df4066 	bicsne	r4, pc, r6, rrx

00002800 <l2299>:
    2800:	e1cd41b2 	strh	r4, [sp, #18]

00002804 <l2300>:
    2804:	e03ac0c7 	eors	ip, sl, r7, asr #1

00002808 <l2301>:
    2808:	e024b065 	eor	fp, r4, r5, rrx

0000280c <l2302>:
    280c:	71b00007 	movsvc	r0, r7

00002810 <l2303>:
    2810:	e81d427b 	ldmda	sp, {r0, r1, r3, r4, r5, r6, r9, lr}

00002814 <l2304>:
    2814:	a002706f 	andge	r7, r2, pc, rrx

00002818 <interrupt_695>:
    2818:	ea000002 	b	2828 <l2309>

0000281c <interrupt_491>:
    281c:	e28010c5 	add	r1, r0, #197	; 0xc5

00002820 <interrupt_918>:
    2820:	b1dc5e54 	bicslt	r5, ip, r4, asr lr

00002824 <l2308>:
    2824:	ea000000 	b	282c <interrupt_194>

00002828 <l2309>:
    2828:	eafffffc 	b	2820 <interrupt_918>

0000282c <interrupt_194>:
    282c:	e0970870 	adds	r0, r7, r0, ror r8

00002830 <l2311>:
    2830:	e55d402d 	ldrb	r4, [sp, #-45]	; 0x2d

00002834 <l2312>:
    2834:	e1130009 	tst	r3, r9

00002838 <l2313>:
    2838:	d04185ea 	suble	r8, r1, sl, ror #11

0000283c <interrupt_625>:
    283c:	b25f1f5f 	subslt	r1, pc, #380	; 0x17c

00002840 <l2315>:
    2840:	e3a0c008 	mov	ip, #8

00002844 <l2316>:
    2844:	010d00bc 	strheq	r0, [sp, -ip]

00002848 <l2317>:
    2848:	d0ca8069 	sbcle	r8, sl, r9, rrx

0000284c <interrupt_515>:
    284c:	b130006c 	teqlt	r0, ip, rrx

00002850 <interrupt_110>:
    2850:	e3a0a018 	mov	sl, #24

00002854 <l2320>:
    2854:	e61de00a 	ldr	lr, [sp], -sl

00002858 <l2321>:
    2858:	e59fb000 	ldr	fp, [pc]	; 2860 <l2323>

0000285c <l2322>:
    285c:	ea000000 	b	2864 <interrupt_117>

00002860 <l2323>:
    2860:	000fffb8 	.word	0x000fffb8

00002864 <interrupt_117>:
    2864:	410b2098 	swpmi	r2, r8, [fp]

00002868 <l2325>:
    2868:	a0809216 	addge	r9, r0, r6, lsl r2

0000286c <l2326>:
    286c:	efd792bb 	svc	0x00d792bb

00002870 <interrupt_324>:
    2870:	e02e400c 	eor	r4, lr, ip

00002874 <l2328>:
    2874:	81d47009 	bicshi	r7, r4, r9

00002878 <l2329>:
    2878:	01e0400f 	mvneq	r4, pc

0000287c <l2330>:
    287c:	281d0020 	ldmdacs	sp, {r5}

00002880 <l2331>:
    2880:	e11a0e11 	tst	sl, r1, lsl lr

00002884 <interrupt_325>:
    2884:	e0d32e48 	sbcs	r2, r3, r8, asr #28

00002888 <l2333>:
    2888:	b04606ec 	sublt	r0, r6, ip, ror #13

0000288c <l2334>:
    288c:	90461952 	subls	r1, r6, r2, asr r9

00002890 <l2335>:
    2890:	2a000002 	bcs	28a0 <interrupt_823>

00002894 <l2336>:
    2894:	e280107e 	add	r1, r0, #126	; 0x7e

00002898 <l2337>:
    2898:	9030a006 	eorsls	sl, r0, r6

0000289c <l2338>:
    289c:	ea000000 	b	28a4 <l2340>

000028a0 <interrupt_823>:
    28a0:	eafffffc 	b	2898 <l2337>

000028a4 <l2340>:
    28a4:	e1cdc0be 	strh	ip, [sp, #14]

000028a8 <interrupt_85>:
    28a8:	50f6084b 	rscspl	r0, r6, fp, asr #16

000028ac <l2342>:
    28ac:	e0cb5310 	sbc	r5, fp, r0, lsl r3

000028b0 <interrupt_480>:
    28b0:	ea000005 	b	28cc <l2350>

000028b4 <interrupt_211>:
    28b4:	d05a1749 	subsle	r1, sl, r9, asr #14

000028b8 <l2345>:
    28b8:	e15f0007 	cmp	pc, r7

000028bc <l2346>:
    28bc:	81932906 	orrshi	r2, r3, r6, lsl #18

000028c0 <l2347>:
    28c0:	e0bb0005 	adcs	r0, fp, r5

000028c4 <interrupt_915>:
    28c4:	611c0003 	tstvs	ip, r3

000028c8 <l2349>:
    28c8:	a0092b13 	andge	r2, r9, r3, lsl fp

000028cc <l2350>:
    28cc:	52b8113e 	adcspl	r1, r8, #-2147483633	; 0x8000000f

000028d0 <interrupt_641>:
    28d0:	e49d0014 	ldr	r0, [sp], #20

000028d4 <l2352>:
    28d4:	4a000006 	bmi	28f4 <l2360>

000028d8 <l2353>:
    28d8:	e28010a8 	add	r1, r0, #168	; 0xa8

000028dc <l2354>:
    28dc:	c191a002 	orrsgt	sl, r1, r2

000028e0 <l2355>:
    28e0:	117708a1 	cmnne	r7, r1, lsr #17

000028e4 <l2356>:
    28e4:	00959b50 	addseq	r9, r5, r0, asr fp

000028e8 <l2357>:
    28e8:	e0169237 	ands	r9, r6, r7, lsr r2

000028ec <l2358>:
    28ec:	e0e1006f 	rsc	r0, r1, pc, rrx

000028f0 <l2359>:
    28f0:	ea000000 	b	28f8 <l2361>

000028f4 <l2360>:
    28f4:	eafffff8 	b	28dc <l2354>

000028f8 <l2361>:
    28f8:	10ac0118 	adcne	r0, ip, r8, lsl r1

000028fc <l2362>:
    28fc:	e3a097ca 	mov	r9, #52953088	; 0x3280000

00002900 <l2363>:
    2900:	e59f0000 	ldr	r0, [pc]	; 2908 <interrupt_114>

00002904 <l2364>:
    2904:	ea000000 	b	290c <l2366>

00002908 <interrupt_114>:
    2908:	000fffc8 	.word	0x000fffc8

0000290c <l2366>:
    290c:	61403091 	swpbvs	r3, r1, [r0]

00002910 <l2367>:
    2910:	e1160117 	tst	r6, r7, lsl r1

00002914 <l2368>:
    2914:	e48db01c 	str	fp, [sp], #28

00002918 <l2369>:
    2918:	eaffffff 	b	291c <l2370>

0000291c <l2370>:
    291c:	e15b0008 	cmp	fp, r8

00002920 <l2371>:
    2920:	e93d42c2 	ldmdb	sp!, {r1, r6, r7, r9, lr}

00002924 <l2372>:
    2924:	ef92131e 	svc	0x0092131e

00002928 <interrupt_531>:
    2928:	c2b9531e 	adcsgt	r5, r9, #2013265920	; 0x78000000

0000292c <l2374>:
    292c:	e2d49462 	sbcs	r9, r4, #1644167168	; 0x62000000

00002930 <l2375>:
    2930:	e25f78be 	subs	r7, pc, #12451840	; 0xbe0000

00002934 <l2376>:
    2934:	e1e00489 	mvn	r0, r9, lsl #9

00002938 <interrupt_632>:
    2938:	8a000001 	bhi	2944 <l2380>

0000293c <l2378>:
    293c:	50741000 	rsbspl	r1, r4, r0

00002940 <interrupt_533>:
    2940:	4152000e 	cmpmi	r2, lr

00002944 <l2380>:
    2944:	e0c88064 	sbc	r8, r8, r4, rrx

00002948 <l2381>:
    2948:	15ddb00e 	ldrbne	fp, [sp, #14]

0000294c <interrupt_639>:
    294c:	100702ea 	andne	r0, r7, sl, ror #5

00002950 <l2383>:
    2950:	e1d1e673 	bics	lr, r1, r3, ror r6

00002954 <l2384>:
    2954:	e81d5f73 	ldmda	sp, {r0, r1, r4, r5, r6, r8, r9, sl, fp, ip, lr}

00002958 <l2385>:
    2958:	e154000b 	cmp	r4, fp

0000295c <l2386>:
    295c:	e2183b22 	ands	r3, r8, #34816	; 0x8800

00002960 <l2387>:
    2960:	e3a07034 	mov	r7, #52	; 0x34

00002964 <l2388>:
    2964:	e70d0007 	str	r0, [sp, -r7]

00002968 <interrupt_435>:
    2968:	11f02008 	mvnsne	r2, r8

0000296c <l2390>:
    296c:	e3a0500c 	mov	r5, #12

00002970 <interrupt_558>:
    2970:	e68d1005 	str	r1, [sp], r5

00002974 <l2392>:
    2974:	21cd20b8 	strhcs	r2, [sp, #8]

00002978 <l2393>:
    2978:	e3a04034 	mov	r4, #52	; 0x34

0000297c <l2394>:
    297c:	271d3004 	ldrcs	r3, [sp, -r4]

00002980 <l2395>:
    2980:	22cfb129 	sbccs	fp, pc, #1073741834	; 0x4000000a

00002984 <interrupt_756>:
    2984:	e1760a51 	cmn	r6, r1, asr sl

00002988 <l2397>:
    2988:	51822003 	orrpl	r2, r2, r3

0000298c <l2398>:
    298c:	e3a0302c 	mov	r3, #44	; 0x2c

00002990 <l2399>:
    2990:	e70d7003 	str	r7, [sp, -r3]

00002994 <l2400>:
    2994:	ea000007 	b	29b8 <interrupt_71>

00002998 <l2401>:
    2998:	70ff9000 	rscsvc	r9, pc, r0

0000299c <l2402>:
    299c:	21f01009 	mvnscs	r1, r9

000029a0 <l2403>:
    29a0:	92e763bd 	rscls	r6, r7, #-201326590	; 0xf4000002

000029a4 <interrupt_213>:
    29a4:	9016b008 	andsls	fp, r6, r8

000029a8 <l2405>:
    29a8:	70498b3b 	subvc	r8, r9, fp, lsr fp

000029ac <l2406>:
    29ac:	e1d82066 	bics	r2, r8, r6, rrx

000029b0 <l2407>:
    29b0:	61590003 	cmpvs	r9, r3

000029b4 <interrupt_882>:
    29b4:	316f8f17 	clzcc	r8, r7

000029b8 <interrupt_71>:
    29b8:	c1b08e2e 	lsrsgt	r8, lr, #28

000029bc <l2410>:
    29bc:	e93d53bf 	ldmdb	sp!, {r0, r1, r2, r3, r4, r5, r7, r8, r9, ip, lr}

000029c0 <l2411>:
    29c0:	ba000004 	blt	29d8 <interrupt_973>

000029c4 <l2412>:
    29c4:	b0c99001 	sbclt	r9, r9, r1

000029c8 <l2413>:
    29c8:	31a02c1c 	lslcc	r2, ip, ip

000029cc <l2414>:
    29cc:	0118006e 	tsteq	r8, lr, rrx

000029d0 <interrupt_955>:
    29d0:	e3170d6b 	tst	r7, #6848	; 0x1ac0

000029d4 <interrupt_696>:
    29d4:	e1a0206f 	rrx	r2, pc

000029d8 <interrupt_973>:
    29d8:	90863068 	addls	r3, r6, r8, rrx

000029dc <l2418>:
    29dc:	e3a02010 	mov	r2, #16

000029e0 <l2419>:
    29e0:	e73de002 	ldr	lr, [sp, -r2]!

000029e4 <l2420>:
    29e4:	41180224 	tstmi	r8, r4, lsr #4

000029e8 <l2421>:
    29e8:	80c1b007 	sbchi	fp, r1, r7

000029ec <l2422>:
    29ec:	e3a09009 	mov	r9, #9

000029f0 <l2423>:
    29f0:	97dd8009 	ldrbls	r8, [sp, r9]

000029f4 <interrupt_784>:
    29f4:	e59fe000 	ldr	lr, [pc]	; 29fc <l2426>

000029f8 <interrupt_134>:
    29f8:	ea000000 	b	2a00 <l2427>

000029fc <l2426>:
    29fc:	000fffb8 	.word	0x000fffb8

00002a00 <l2427>:
    2a00:	310e4098 	swpcc	r4, r8, [lr]

00002a04 <l2428>:
    2a04:	e0eb481c 	rsc	r4, fp, ip, lsl r8

00002a08 <interrupt_909>:
    2a08:	e59f1000 	ldr	r1, [pc]	; 2a10 <l2431>

00002a0c <l2430>:
    2a0c:	ea000000 	b	2a14 <l2432>

00002a10 <l2431>:
    2a10:	000fffa8 	.word	0x000fffa8

00002a14 <l2432>:
    2a14:	9141209b 	swpbls	r2, fp, [r1]

00002a18 <l2433>:
    2a18:	e153073a 	cmp	r3, sl, lsr r7

00002a1c <l2434>:
    2a1c:	ef1ac384 	svc	0x001ac384

00002a20 <interrupt_172>:
    2a20:	ea000003 	b	2a34 <l2440>

00002a24 <interrupt_377>:
    2a24:	e2801048 	add	r1, r0, #72	; 0x48

00002a28 <l2437>:
    2a28:	504ea008 	subpl	sl, lr, r8

00002a2c <l2438>:
    2a2c:	e1770480 	cmn	r7, r0, lsl #9

00002a30 <interrupt_761>:
    2a30:	ea000000 	b	2a38 <interrupt_766>

00002a34 <l2440>:
    2a34:	eafffffb 	b	2a28 <l2437>

00002a38 <interrupt_766>:
    2a38:	ea000004 	b	2a50 <l2447>

00002a3c <l2442>:
    2a3c:	30464063 	subcc	r4, r6, r3, rrx

00002a40 <l2443>:
    2a40:	321fbe71 	andscc	fp, pc, #1808	; 0x710

00002a44 <interrupt_873>:
    2a44:	12d50561 	sbcsne	r0, r5, #406847488	; 0x18400000

00002a48 <l2445>:
    2a48:	216f9f1e 	clzcs	r9, lr

00002a4c <interrupt_524>:
    2a4c:	60a1400f 	adcvs	r4, r1, pc

00002a50 <l2447>:
    2a50:	e277e10d 	rsbs	lr, r7, #1073741827	; 0x40000003

00002a54 <l2448>:
    2a54:	ef9f0c78 	svc	0x009f0c78

00002a58 <interrupt_140>:
    2a58:	e0105934 	ands	r5, r0, r4, lsr r9

00002a5c <l2450>:
    2a5c:	e0735a70 	rsbs	r5, r3, r0, ror sl

00002a60 <l2451>:
    2a60:	e48d9024 	str	r9, [sp], #36	; 0x24

00002a64 <l2452>:
    2a64:	d1570061 	cmple	r7, r1, rrx

00002a68 <l2453>:
    2a68:	e23b27e7 	eors	r2, fp, #60555264	; 0x39c0000

00002a6c <l2454>:
    2a6c:	e3a0b015 	mov	fp, #21

00002a70 <l2455>:
    2a70:	b7cd300b 	strblt	r3, [sp, fp]

00002a74 <l2456>:
    2a74:	e1370006 	teq	r7, r6

00002a78 <l2457>:
    2a78:	e1380007 	teq	r8, r7

00002a7c <l2458>:
    2a7c:	e3a02007 	mov	r2, #7

00002a80 <l2459>:
    2a80:	e74d3002 	strb	r3, [sp, -r2]

00002a84 <l2460>:
    2a84:	e3a00006 	mov	r0, #6

00002a88 <l2461>:
    2a88:	d11d90f0 	ldrshle	r9, [sp, -r0]

00002a8c <interrupt_478>:
    2a8c:	e3a00000 	mov	r0, #0

00002a90 <l2463>:
    2a90:	e7bd3000 	ldr	r3, [sp, r0]!

00002a94 <l2464>:
    2a94:	ef2bf19c 	svc	0x002bf19c

00002a98 <l2465>:
    2a98:	6a000005 	bvs	2ab4 <interrupt_190>

00002a9c <interrupt_907>:
    2a9c:	e1e0600a 	mvn	r6, sl

00002aa0 <interrupt_156>:
    2aa0:	e16f6f10 	clz	r6, r0

00002aa4 <l2468>:
    2aa4:	e16fef18 	clz	lr, r8

00002aa8 <interrupt_769>:
    2aa8:	c15a0003 	cmpgt	sl, r3

00002aac <l2470>:
    2aac:	2042a98b 	subcs	sl, r2, fp, lsl #19

00002ab0 <interrupt_737>:
    2ab0:	e1b03b5c 	asrs	r3, ip, fp

00002ab4 <interrupt_190>:
    2ab4:	e28a0815 	add	r0, sl, #1376256	; 0x150000

00002ab8 <l2473>:
    2ab8:	e59fa000 	ldr	sl, [pc]	; 2ac0 <l2475>

00002abc <l2474>:
    2abc:	ea000000 	b	2ac4 <l2476>

00002ac0 <l2475>:
    2ac0:	000fffe0 	.word	0x000fffe0

00002ac4 <l2476>:
    2ac4:	a10a6093 	swpge	r6, r3, [sl]

00002ac8 <l2477>:
    2ac8:	43330eff 	teqmi	r3, #4080	; 0xff0

00002acc <interrupt_178>:
    2acc:	e2b76d83 	adcs	r6, r7, #8384	; 0x20c0

00002ad0 <l2479>:
    2ad0:	b1d05b35 	bicslt	r5, r0, r5, lsr fp

00002ad4 <l2480>:
    2ad4:	838400d0 	orrhi	r0, r4, #208	; 0xd0

00002ad8 <l2481>:
    2ad8:	a2461231 	subge	r1, r6, #268435459	; 0x10000003

00002adc <l2482>:
    2adc:	e3e02325 	mvn	r2, #-1811939328	; 0x94000000

00002ae0 <l2483>:
    2ae0:	01914002 	orrseq	r4, r1, r2

00002ae4 <interrupt_795>:
    2ae4:	508e8811 	addpl	r8, lr, r1, lsl r8

00002ae8 <l2485>:
    2ae8:	733b01dd 	teqvc	fp, #1073741879	; 0x40000037

00002aec <l2486>:
    2aec:	e92dce07 	push	{r0, r1, r2, r9, sl, fp, lr, pc}

00002af0 <l2487>:
    2af0:	b0c4ba3e 	sbclt	fp, r4, lr, lsr sl

00002af4 <l2488>:
    2af4:	ea000006 	b	2b14 <l2496>

00002af8 <l2489>:
    2af8:	e2801054 	add	r1, r0, #84	; 0x54

00002afc <l2490>:
    2afc:	d1f0b1c5 	mvnsle	fp, r5, asr #3

00002b00 <l2491>:
    2b00:	001e4065 	andseq	r4, lr, r5, rrx

00002b04 <l2492>:
    2b04:	c0679a3c 	rsbgt	r9, r7, ip, lsr sl

00002b08 <l2493>:
    2b08:	b24ee409 	sublt	lr, lr, #150994944	; 0x9000000

00002b0c <l2494>:
    2b0c:	e0d1800f 	sbcs	r8, r1, pc

00002b10 <l2495>:
    2b10:	ea000000 	b	2b18 <interrupt_176>

00002b14 <l2496>:
    2b14:	eafffff8 	b	2afc <l2490>

00002b18 <interrupt_176>:
    2b18:	e191906f 	orrs	r9, r1, pc, rrx

00002b1c <interrupt_305>:
    2b1c:	80f90760 	rscshi	r0, r9, r0, ror #14

00002b20 <l2499>:
    2b20:	d0900004 	addsle	r0, r0, r4

00002b24 <l2500>:
    2b24:	ef26cb56 	svc	0x0026cb56

00002b28 <l2501>:
    2b28:	70796004 	rsbsvc	r6, r9, r4

00002b2c <l2502>:
    2b2c:	e001498f 	and	r4, r1, pc, lsl #19

00002b30 <l2503>:
    2b30:	e9bd1a3b 	ldmib	sp!, {r0, r1, r3, r4, r5, r9, fp, ip}

00002b34 <l2504>:
    2b34:	ef026daa 	svc	0x00026daa

00002b38 <interrupt_12>:
    2b38:	e0f499ae 	rscs	r9, r4, lr, lsr #19

00002b3c <l2506>:
    2b3c:	ef2a8feb 	svc	0x002a8feb

00002b40 <l2507>:
    2b40:	059d4010 	ldreq	r4, [sp, #16]

00002b44 <l2508>:
    2b44:	a17a097a 	cmnge	sl, sl, ror r9

00002b48 <l2509>:
    2b48:	917c0069 	cmnls	ip, r9, rrx

00002b4c <interrupt_169>:
    2b4c:	91cb171c 	bicls	r1, fp, ip, lsl r7

00002b50 <l2511>:
    2b50:	e0429812 	sub	r9, r2, r2, lsl r8

00002b54 <l2512>:
    2b54:	e14db1b2 	strh	fp, [sp, #-18]	; 0xffffffee

00002b58 <l2513>:
    2b58:	e9ad10dc 	stmib	sp!, {r2, r3, r4, r6, r7, ip}

00002b5c <l2514>:
    2b5c:	e35404de 	cmp	r4, #-570425344	; 0xde000000

00002b60 <l2515>:
    2b60:	2294ab15 	addscs	sl, r4, #21504	; 0x5400

00002b64 <l2516>:
    2b64:	10618004 	rsbne	r8, r1, r4

00002b68 <interrupt_130>:
    2b68:	91e04064 	mvnls	r4, r4, rrx

00002b6c <l2518>:
    2b6c:	e3a04035 	mov	r4, #53	; 0x35

00002b70 <l2519>:
    2b70:	b11d90d4 	ldrsblt	r9, [sp, -r4]

00002b74 <l2520>:
    2b74:	40ee0c38 	rscmi	r0, lr, r8, lsr ip

00002b78 <l2521>:
    2b78:	eff17326 	svc	0x00f17326

00002b7c <l2522>:
    2b7c:	e0e39e53 	rsc	r9, r3, r3, asr lr

00002b80 <l2523>:
    2b80:	93a09ddb 	movls	r9, #14016	; 0x36c0

00002b84 <l2524>:
    2b84:	e8bd0002 	ldmfd	sp!, {r1}

00002b88 <l2525>:
    2b88:	890dfbff 	stmdbhi	sp, {r0, r1, r2, r3, r4, r5, r6, r7, r8, r9, fp, ip, sp, lr, pc}

00002b8c <l2526>:
    2b8c:	e1730162 	cmn	r3, r2, ror #2

00002b90 <interrupt_207>:
    2b90:	3114000a 	tstcc	r4, sl

00002b94 <l2528>:
    2b94:	61ddb0d2 	ldrsbvs	fp, [sp, #2]

00002b98 <l2529>:
    2b98:	e150000f 	cmp	r0, pc

00002b9c <l2530>:
    2b9c:	e219ae51 	ands	sl, r9, #1296	; 0x510

00002ba0 <l2531>:
    2ba0:	b0d7500f 	sbcslt	r5, r7, pc

00002ba4 <l2532>:
    2ba4:	10846381 	addne	r6, r4, r1, lsl #7

00002ba8 <l2533>:
    2ba8:	b1300073 	teqlt	r0, r3, ror r0

00002bac <l2534>:
    2bac:	ef1d38da 	svc	0x001d38da

00002bb0 <l2535>:
    2bb0:	e15da3f8 	ldrsh	sl, [sp, #-56]	; 0xffffffc8

00002bb4 <interrupt_733>:
    2bb4:	62119796 	andsvs	r9, r1, #39321600	; 0x2580000

00002bb8 <l2537>:
    2bb8:	ea000002 	b	2bc8 <l2541>

00002bbc <interrupt_454>:
    2bbc:	e28010e5 	add	r1, r0, #229	; 0xe5

00002bc0 <l2539>:
    2bc0:	e1700b1b 	cmn	r0, fp, lsl fp

00002bc4 <l2540>:
    2bc4:	ea000000 	b	2bcc <l2542>

00002bc8 <l2541>:
    2bc8:	eafffffc 	b	2bc0 <l2539>

00002bcc <l2542>:
    2bcc:	e59dc000 	ldr	ip, [sp]

00002bd0 <l2543>:
    2bd0:	e3a0301a 	mov	r3, #26

00002bd4 <l2544>:
    2bd4:	d11d60d3 	ldrsble	r6, [sp, -r3]

00002bd8 <l2545>:
    2bd8:	e59f9000 	ldr	r9, [pc]	; 2be0 <l2547>

00002bdc <l2546>:
    2bdc:	ea000000 	b	2be4 <l2548>

00002be0 <l2547>:
    2be0:	000fffd4 	.word	0x000fffd4

00002be4 <l2548>:
    2be4:	e109b09e 	swp	fp, lr, [r9]

00002be8 <l2549>:
    2be8:	e0c0e114 	sbc	lr, r0, r4, lsl r1

00002bec <l2550>:
    2bec:	e3a09020 	mov	r9, #32

00002bf0 <l2551>:
    2bf0:	e61d8009 	ldr	r8, [sp], -r9

00002bf4 <l2552>:
    2bf4:	a2d83c7a 	sbcsge	r3, r8, #31232	; 0x7a00

00002bf8 <l2553>:
    2bf8:	e1b0a5c1 	asrs	sl, r1, #11

00002bfc <l2554>:
    2bfc:	e59fb000 	ldr	fp, [pc]	; 2c04 <l2556>

00002c00 <interrupt_655>:
    2c00:	ea000000 	b	2c08 <l2557>

00002c04 <l2556>:
    2c04:	000fffb4 	.word	0x000fffb4

00002c08 <l2557>:
    2c08:	d10b0095 	swple	r0, r5, [fp]

00002c0c <l2558>:
    2c0c:	65cd4023 	strbvs	r4, [sp, #35]	; 0x23

00002c10 <l2559>:
    2c10:	81b01c03 	lslshi	r1, r3, #24

00002c14 <l2560>:
    2c14:	6134006a 	teqvs	r4, sl, rrx

00002c18 <interrupt_905>:
    2c18:	e0ba1062 	adcs	r1, sl, r2, rrx

00002c1c <l2562>:
    2c1c:	e3a04014 	mov	r4, #20

00002c20 <l2563>:
    2c20:	e19d20b4 	ldrh	r2, [sp, r4]

00002c24 <l2564>:
    2c24:	a0942066 	addsge	r2, r4, r6, rrx

00002c28 <l2565>:
    2c28:	70870b03 	addvc	r0, r7, r3, lsl #22

00002c2c <l2566>:
    2c2c:	e5cda00a 	strb	sl, [sp, #10]

00002c30 <interrupt_956>:
    2c30:	e3a06010 	mov	r6, #16

00002c34 <interrupt_157>:
    2c34:	e10d60b6 	strh	r6, [sp, -r6]

00002c38 <l2569>:
    2c38:	e49dc01c 	ldr	ip, [sp], #28

00002c3c <l2570>:
    2c3c:	e59f9000 	ldr	r9, [pc]	; 2c44 <l2572>

00002c40 <l2571>:
    2c40:	ea000000 	b	2c48 <interrupt_900>

00002c44 <l2572>:
    2c44:	000fffb8 	.word	0x000fffb8

00002c48 <interrupt_900>:
    2c48:	e149c092 	swpb	ip, r2, [r9]

00002c4c <l2574>:
    2c4c:	e1f00004 	mvns	r0, r4

00002c50 <l2575>:
    2c50:	7079a00c 	rsbsvc	sl, r9, ip

00002c54 <interrupt_672>:
    2c54:	da000003 	ble	2c68 <interrupt_721>

00002c58 <l2577>:
    2c58:	e28010df 	add	r1, r0, #223	; 0xdf

00002c5c <interrupt_300>:
    2c5c:	305940eb 	subscc	r4, r9, fp, ror #1

00002c60 <interrupt_402>:
    2c60:	22ee0212 	rsccs	r0, lr, #536870913	; 0x20000001

00002c64 <l2580>:
    2c64:	ea000000 	b	2c6c <l2582>

00002c68 <interrupt_721>:
    2c68:	eafffffb 	b	2c5c <interrupt_300>

00002c6c <l2582>:
    2c6c:	455dc010 	ldrbmi	ip, [sp, #-16]

00002c70 <l2583>:
    2c70:	e53db01c 	ldr	fp, [sp, #-28]!

00002c74 <l2584>:
    2c74:	e59f6000 	ldr	r6, [pc]	; 2c7c <l2586>

00002c78 <l2585>:
    2c78:	ea000000 	b	2c80 <l2587>

00002c7c <l2586>:
    2c7c:	000fffa4 	.word	0x000fffa4

00002c80 <l2587>:
    2c80:	b1065094 	swplt	r5, r4, [r6]

00002c84 <l2588>:
    2c84:	ef9b3343 	svc	0x009b3343

00002c88 <l2589>:
    2c88:	10c06003 	sbcne	r6, r0, r3

00002c8c <l2590>:
    2c8c:	e3a0a008 	mov	sl, #8

00002c90 <interrupt_853>:
    2c90:	e7ad700a 	str	r7, [sp, sl]!

00002c94 <l2592>:
    2c94:	e93d4000 	ldmdb	sp!, {lr}

00002c98 <interrupt_251>:
    2c98:	25cdb018 	strbcs	fp, [sp, #24]

00002c9c <interrupt_136>:
    2c9c:	e1a00000 	nop			; (mov r0, r0)

00002ca0 <l2595>:
    2ca0:	b0535b7b 	subslt	r5, r3, fp, ror fp

00002ca4 <l2596>:
    2ca4:	e15e073c 	cmp	lr, ip, lsr r7

00002ca8 <l2597>:
    2ca8:	ef661642 	svc	0x00661642

00002cac <l2598>:
    2cac:	806f29e5 	rsbhi	r2, pc, r5, ror #19

00002cb0 <l2599>:
    2cb0:	e3a0a014 	mov	sl, #20

00002cb4 <l2600>:
    2cb4:	718d40ba 	strhvc	r4, [sp, sl]

00002cb8 <interrupt_166>:
    2cb8:	e11206eb 	tst	r2, fp, ror #13

00002cbc <l2602>:
    2cbc:	ef0a3b7b 	svc	0x000a3b7b

00002cc0 <l2603>:
    2cc0:	e5cdb01e 	strb	fp, [sp, #30]

00002cc4 <l2604>:
    2cc4:	92e08005 	rscls	r8, r0, #5

00002cc8 <interrupt_490>:
    2cc8:	ea000006 	b	2ce8 <l2613>

00002ccc <l2606>:
    2ccc:	e2801093 	add	r1, r0, #147	; 0x93

00002cd0 <interrupt_689>:
    2cd0:	e18e1003 	orr	r1, lr, r3

00002cd4 <l2608>:
    2cd4:	01a0cbe5 	roreq	ip, r5, #23

00002cd8 <interrupt_569>:
    2cd8:	e38018d6 	orr	r1, r0, #14024704	; 0xd60000

00002cdc <interrupt_362>:
    2cdc:	0397462e 	orrseq	r4, r7, #48234496	; 0x2e00000

00002ce0 <l2611>:
    2ce0:	e1100e6a 	tst	r0, sl, ror #28

00002ce4 <interrupt_452>:
    2ce4:	ea000000 	b	2cec <l2614>

00002ce8 <l2613>:
    2ce8:	eafffff8 	b	2cd0 <interrupt_689>

00002cec <l2614>:
    2cec:	e00e4005 	and	r4, lr, r5

00002cf0 <interrupt_988>:
    2cf0:	e3a0101c 	mov	r1, #28

00002cf4 <interrupt_805>:
    2cf4:	e11d70d1 	ldrsb	r7, [sp, -r1]

00002cf8 <l2617>:
    2cf8:	e3a00006 	mov	r0, #6

00002cfc <interrupt_188>:
    2cfc:	011d60b0 	ldrheq	r6, [sp, -r0]

00002d00 <l2619>:
    2d00:	e37c0a0d 	cmn	ip, #53248	; 0xd000

00002d04 <l2620>:
    2d04:	50f308ca 	rscspl	r0, r3, sl, asr #17

00002d08 <l2621>:
    2d08:	b1540004 	cmplt	r4, r4

00002d0c <l2622>:
    2d0c:	e1c3bb38 	bic	fp, r3, r8, lsr fp

00002d10 <l2623>:
    2d10:	21dd70fa 	ldrshcs	r7, [sp, #10]

00002d14 <l2624>:
    2d14:	e16fbf1e 	clz	fp, lr

00002d18 <l2625>:
    2d18:	e55d7014 	ldrb	r7, [sp, #-20]

00002d1c <l2626>:
    2d1c:	a1cde0ba 	strhge	lr, [sp, #10]

00002d20 <l2627>:
    2d20:	e0e3bcab 	rsc	fp, r3, fp, lsr #25

00002d24 <interrupt_69>:
    2d24:	e15db1dd 	ldrsb	fp, [sp, #-29]	; 0xffffffe3

00002d28 <l2629>:
    2d28:	11730b30 	cmnne	r3, r0, lsr fp

00002d2c <l2630>:
    2d2c:	e23ae20e 	eors	lr, sl, #-536870912	; 0xe0000000

00002d30 <interrupt_997>:
    2d30:	e1dde0be 	ldrh	lr, [sp, #14]

00002d34 <l2632>:
    2d34:	63f0b73e 	mvnsvs	fp, #16252928	; 0xf80000

00002d38 <l2633>:
    2d38:	e3a0c010 	mov	ip, #16

00002d3c <interrupt_292>:
    2d3c:	e78da00c 	str	sl, [sp, ip]

00002d40 <l2635>:
    2d40:	e3a0500a 	mov	r5, #10

00002d44 <l2636>:
    2d44:	911d10b5 	ldrhls	r1, [sp, -r5]

00002d48 <interrupt_774>:
    2d48:	e59f3000 	ldr	r3, [pc]	; 2d50 <l2639>

00002d4c <l2638>:
    2d4c:	ea000000 	b	2d54 <interrupt_389>

00002d50 <l2639>:
    2d50:	000fffe4 	.word	0x000fffe4

00002d54 <interrupt_389>:
    2d54:	11030092 	swpne	r0, r2, [r3]

00002d58 <l2641>:
    2d58:	904404c6 	subls	r0, r4, r6, asr #9

00002d5c <l2642>:
    2d5c:	e5ddc01a 	ldrb	ip, [sp, #26]

00002d60 <l2643>:
    2d60:	e0073001 	and	r3, r7, r1

00002d64 <l2644>:
    2d64:	5159006e 	cmppl	r9, lr, rrx

00002d68 <l2645>:
    2d68:	0240841b 	subeq	r8, r0, #452984832	; 0x1b000000

00002d6c <l2646>:
    2d6c:	e0d1e41e 	sbcs	lr, r1, lr, lsl r4

00002d70 <interrupt_889>:
    2d70:	e1a00000 	nop			; (mov r0, r0)

00002d74 <l2648>:
    2d74:	31790767 	cmncc	r9, r7, ror #14

00002d78 <interrupt_322>:
    2d78:	e59fb000 	ldr	fp, [pc]	; 2d80 <l2651>

00002d7c <l2650>:
    2d7c:	ea000000 	b	2d84 <l2652>

00002d80 <l2651>:
    2d80:	000fffb8 	.word	0x000fffb8

00002d84 <l2652>:
    2d84:	810b4091 	swphi	r4, r1, [fp]

00002d88 <l2653>:
    2d88:	e1a0c00a 	mov	ip, sl

00002d8c <l2654>:
    2d8c:	d0546001 	subsle	r6, r4, r1

00002d90 <l2655>:
    2d90:	e1a00000 	nop			; (mov r0, r0)

00002d94 <l2656>:
    2d94:	e0f16a52 	rscs	r6, r1, r2, asr sl

00002d98 <l2657>:
    2d98:	5009c4c6 	andpl	ip, r9, r6, asr #9

00002d9c <interrupt_281>:
    2d9c:	e1380b10 	teq	r8, r0, lsl fp

00002da0 <l2659>:
    2da0:	e054038f 	subs	r0, r4, pc, lsl #7

00002da4 <l2660>:
    2da4:	efd777d0 	svc	0x00d777d0

00002da8 <interrupt_781>:
    2da8:	6083e235 	addvs	lr, r3, r5, lsr r2

00002dac <l2662>:
    2dac:	e82d2000 	stmda	sp!, {sp}

00002db0 <l2663>:
    2db0:	e1a00000 	nop			; (mov r0, r0)

00002db4 <interrupt_767>:
    2db4:	41deb353 	bicsmi	fp, lr, r3, asr r3

00002db8 <l2665>:
    2db8:	215db0f2 	ldrshcs	fp, [sp, #-2]

00002dbc <interrupt_440>:
    2dbc:	e3a02019 	mov	r2, #25

00002dc0 <l2667>:
    2dc0:	419d40d2 	ldrsbmi	r4, [sp, r2]

00002dc4 <l2668>:
    2dc4:	e81d1351 	ldmda	sp, {r0, r4, r6, r8, r9, ip}

00002dc8 <l2669>:
    2dc8:	b1790009 	cmnlt	r9, r9

00002dcc <l2670>:
    2dcc:	e5cd2002 	strb	r2, [sp, #2]

00002dd0 <interrupt_738>:
    2dd0:	b3dab6d1 	bicslt	fp, sl, #219152384	; 0xd100000

00002dd4 <l2672>:
    2dd4:	e3a0300a 	mov	r3, #10

00002dd8 <l2673>:
    2dd8:	e19d80b3 	ldrh	r8, [sp, r3]

00002ddc <l2674>:
    2ddc:	e3a09002 	mov	r9, #2

00002de0 <l2675>:
    2de0:	17dde009 	ldrbne	lr, [sp, r9]

00002de4 <l2676>:
    2de4:	e59fa000 	ldr	sl, [pc]	; 2dec <l2678>

00002de8 <l2677>:
    2de8:	ea000000 	b	2df0 <interrupt_431>

00002dec <l2678>:
    2dec:	000fffc8 	.word	0x000fffc8

00002df0 <interrupt_431>:
    2df0:	910a5093 	swpls	r5, r3, [sl]

00002df4 <l2680>:
    2df4:	10c6b063 	sbcne	fp, r6, r3, rrx

00002df8 <l2681>:
    2df8:	2a000008 	bcs	2e20 <l2691>

00002dfc <l2682>:
    2dfc:	b13e00cb 	teqlt	lr, fp, asr #1

00002e00 <l2683>:
    2e00:	11160162 	tstne	r6, r2, ror #2

00002e04 <l2684>:
    2e04:	424bb502 	submi	fp, fp, #8388608	; 0x800000

00002e08 <l2685>:
    2e08:	51f0300a 	mvnspl	r3, sl

00002e0c <l2686>:
    2e0c:	e16f6f10 	clz	r6, r0

00002e10 <l2687>:
    2e10:	e0bbe068 	adcs	lr, fp, r8, rrx

00002e14 <interrupt_729>:
    2e14:	c3b0b842 	movsgt	fp, #4325376	; 0x420000

00002e18 <l2689>:
    2e18:	e1c04715 	bic	r4, r0, r5, lsl r7

00002e1c <l2690>:
    2e1c:	618e700f 	orrvs	r7, lr, pc

00002e20 <l2691>:
    2e20:	118a8359 	orrne	r8, sl, r9, asr r3

00002e24 <interrupt_505>:
    2e24:	63d276db 	bicsvs	r7, r2, #229638144	; 0xdb00000

00002e28 <l2693>:
    2e28:	41e01007 	mvnmi	r1, r7

00002e2c <l2694>:
    2e2c:	81ca77a5 	bichi	r7, sl, r5, lsr #15

00002e30 <l2695>:
    2e30:	d54de004 	strble	lr, [sp, #-4]

00002e34 <l2696>:
    2e34:	ea000000 	b	2e3c <l2698>

00002e38 <interrupt_450>:
    2e38:	e0a88064 	adc	r8, r8, r4, rrx

00002e3c <l2698>:
    2e3c:	91130001 	tstls	r3, r1

00002e40 <l2699>:
    2e40:	e51d5018 	ldr	r5, [sp, #-24]

00002e44 <l2700>:
    2e44:	c1140068 	tstgt	r4, r8, rrx

00002e48 <l2701>:
    2e48:	e59f6000 	ldr	r6, [pc]	; 2e50 <l2703>

00002e4c <l2702>:
    2e4c:	ea000000 	b	2e54 <l2704>

00002e50 <l2703>:
    2e50:	000fffe0 	.word	0x000fffe0

00002e54 <l2704>:
    2e54:	e1469098 	swpb	r9, r8, [r6]

00002e58 <l2705>:
    2e58:	e59d9000 	ldr	r9, [sp]

00002e5c <l2706>:
    2e5c:	ef769337 	svc	0x00769337

00002e60 <l2707>:
    2e60:	316f7f19 	clzcc	r7, r9

00002e64 <l2708>:
    2e64:	e3a08022 	mov	r8, #34	; 0x22

00002e68 <l2709>:
    2e68:	27dda008 	ldrbcs	sl, [sp, r8]

00002e6c <l2710>:
    2e6c:	10d3807b 	sbcsne	r8, r3, fp, ror r0

00002e70 <l2711>:
    2e70:	e3a0801c 	mov	r8, #28

00002e74 <l2712>:
    2e74:	e69db008 	ldr	fp, [sp], r8

00002e78 <l2713>:
    2e78:	e24c56ce 	sub	r5, ip, #216006656	; 0xce00000

00002e7c <l2714>:
    2e7c:	e1350151 	teq	r5, r1, asr r1

00002e80 <l2715>:
    2e80:	e59f7000 	ldr	r7, [pc]	; 2e88 <interrupt_780>

00002e84 <interrupt_833>:
    2e84:	ea000000 	b	2e8c <interrupt_127>

00002e88 <interrupt_780>:
    2e88:	000fffd8 	.word	0x000fffd8

00002e8c <interrupt_127>:
    2e8c:	e107b09b 	swp	fp, fp, [r7]

00002e90 <l2719>:
    2e90:	e3a02010 	mov	r2, #16

00002e94 <interrupt_534>:
    2e94:	d11d20b2 	ldrhle	r2, [sp, -r2]

00002e98 <l2721>:
    2e98:	e0f05000 	rscs	r5, r0, r0

00002e9c <l2722>:
    2e9c:	ef45109f 	svc	0x0045109f

00002ea0 <l2723>:
    2ea0:	e1a00000 	nop			; (mov r0, r0)

00002ea4 <l2724>:
    2ea4:	e3b08aea 	movs	r8, #958464	; 0xea000

00002ea8 <interrupt_650>:
    2ea8:	e085cc78 	add	ip, r5, r8, ror ip

00002eac <l2726>:
    2eac:	e182351c 	orr	r3, r2, ip, lsl r5

00002eb0 <interrupt_658>:
    2eb0:	e59fe000 	ldr	lr, [pc]	; 2eb8 <interrupt_634>

00002eb4 <l2728>:
    2eb4:	ea000000 	b	2ebc <l2730>

00002eb8 <interrupt_634>:
    2eb8:	000fffb4 	.word	0x000fffb4

00002ebc <l2730>:
    2ebc:	e10e4098 	swp	r4, r8, [lr]

00002ec0 <l2731>:
    2ec0:	c0c6aa39 	sbcgt	sl, r6, r9, lsr sl

00002ec4 <l2732>:
    2ec4:	719f8a4a 	orrsvc	r8, pc, sl, asr #20

00002ec8 <l2733>:
    2ec8:	e3a0c017 	mov	ip, #23

00002ecc <l2734>:
    2ecc:	e74d800c 	strb	r8, [sp, -ip]

00002ed0 <l2735>:
    2ed0:	e1c43e18 	bic	r3, r4, r8, lsl lr

00002ed4 <l2736>:
    2ed4:	efabfd38 	svc	0x00abfd38

00002ed8 <l2737>:
    2ed8:	c15e0067 	cmpgt	lr, r7, rrx

00002edc <l2738>:
    2edc:	e1dfc00a 	bics	ip, pc, sl

00002ee0 <l2739>:
    2ee0:	e3350961 	teq	r5, #1589248	; 0x184000

00002ee4 <interrupt_963>:
    2ee4:	e11e000f 	tst	lr, pc

00002ee8 <interrupt_528>:
    2ee8:	9a000001 	bls	2ef4 <l2744>

00002eec <l2742>:
    2eec:	21b0706a 	rrxscs	r7, sl

00002ef0 <l2743>:
    2ef0:	e1d6bcac 	bics	fp, r6, ip, lsr #25

00002ef4 <l2744>:
    2ef4:	e3a05bcf 	mov	r5, #211968	; 0x33c00

00002ef8 <l2745>:
    2ef8:	e3a0b03c 	mov	fp, #60	; 0x3c

00002efc <l2746>:
    2efc:	e72d300b 	str	r3, [sp, -fp]!

00002f00 <l2747>:
    2f00:	21e00871 	mvncs	r0, r1, ror r8

00002f04 <l2748>:
    2f04:	9077e009 	rsbsls	lr, r7, r9

00002f08 <l2749>:
    2f08:	e9bd4404 	ldmib	sp!, {r2, sl, lr}

00002f0c <l2750>:
    2f0c:	e3790436 	cmn	r9, #905969664	; 0x36000000

00002f10 <l2751>:
    2f10:	e113091a 	tst	r3, sl, lsl r9

00002f14 <interrupt_785>:
    2f14:	ef4441d0 	svc	0x004441d0

00002f18 <l2753>:
    2f18:	e3a04010 	mov	r4, #16

00002f1c <interrupt_277>:
    2f1c:	371de004 	ldrcc	lr, [sp, -r4]

00002f20 <interrupt_469>:
    2f20:	e3a0c00f 	mov	ip, #15

00002f24 <l2756>:
    2f24:	e75d300c 	ldrb	r3, [sp, -ip]

00002f28 <l2757>:
    2f28:	ef70d104 	svc	0x0070d104

00002f2c <l2758>:
    2f2c:	e1dd61b2 	ldrh	r6, [sp, #18]

00002f30 <interrupt_485>:
    2f30:	e3a06024 	mov	r6, #36	; 0x24

00002f34 <l2760>:
    2f34:	e7bdc006 	ldr	ip, [sp, r6]!

00002f38 <l2761>:
    2f38:	e55dc022 	ldrb	ip, [sp, #-34]	; 0x22

00002f3c <l2762>:
    2f3c:	e3a07005 	mov	r7, #5

00002f40 <l2763>:
    2f40:	c75da007 	ldrbgt	sl, [sp, -r7]

00002f44 <l2764>:
    2f44:	e1a062a3 	lsr	r6, r3, #5

00002f48 <l2765>:
    2f48:	41d30a33 	bicsmi	r0, r3, r3, lsr sl

00002f4c <l2766>:
    2f4c:	315d32d7 	ldrsbcc	r3, [sp, #-39]	; 0xffffffd9

00002f50 <l2767>:
    2f50:	5039906b 	eorspl	r9, r9, fp, rrx

00002f54 <l2768>:
    2f54:	411a006e 	tstmi	sl, lr, rrx

00002f58 <l2769>:
    2f58:	e59f3000 	ldr	r3, [pc]	; 2f60 <interrupt_502>

00002f5c <l2770>:
    2f5c:	ea000000 	b	2f64 <l2772>

00002f60 <interrupt_502>:
    2f60:	000fffc0 	.word	0x000fffc0

00002f64 <l2772>:
    2f64:	81034098 	swphi	r4, r8, [r3]

00002f68 <l2773>:
    2f68:	d1c4433c 	bicle	r4, r4, ip, lsr r3

00002f6c <l2774>:
    2f6c:	e173000a 	cmn	r3, sl

00002f70 <l2775>:
    2f70:	e39b1969 	orrs	r1, fp, #1720320	; 0x1a4000

00002f74 <l2776>:
    2f74:	e16f1f12 	clz	r1, r2

00002f78 <l2777>:
    2f78:	e113000a 	tst	r3, sl

00002f7c <interrupt_384>:
    2f7c:	e3a0900e 	mov	r9, #14

00002f80 <l2779>:
    2f80:	a11da0b9 	ldrhge	sl, [sp, -r9]

00002f84 <l2780>:
    2f84:	e3a0e01f 	mov	lr, #31

00002f88 <l2781>:
    2f88:	e74d700e 	strb	r7, [sp, -lr]

00002f8c <l2782>:
    2f8c:	e13b0318 	teq	fp, r8, lsl r3

00002f90 <l2783>:
    2f90:	e16f9f18 	clz	r9, r8

00002f94 <l2784>:
    2f94:	d54d901a 	strble	r9, [sp, #-26]

00002f98 <l2785>:
    2f98:	ea000000 	b	2fa0 <l2787>

00002f9c <interrupt_41>:
    2f9c:	e1320065 	teq	r2, r5, rrx

00002fa0 <l2787>:
    2fa0:	e0444476 	sub	r4, r4, r6, ror r4

00002fa4 <l2788>:
    2fa4:	30e35004 	rsccc	r5, r3, r4

00002fa8 <l2789>:
    2fa8:	e1972007 	orrs	r2, r7, r7

00002fac <interrupt_982>:
    2fac:	01ddb0f8 	ldrsheq	fp, [sp, #8]

00002fb0 <l2791>:
    2fb0:	e93d1bb8 	ldmdb	sp!, {r3, r4, r5, r7, r8, r9, fp, ip}

00002fb4 <l2792>:
    2fb4:	81c3e060 	bichi	lr, r3, r0, rrx

00002fb8 <l2793>:
    2fb8:	e0aa4064 	adc	r4, sl, r4, rrx

00002fbc <interrupt_523>:
    2fbc:	e59fa000 	ldr	sl, [pc]	; 2fc4 <l2796>

00002fc0 <l2795>:
    2fc0:	ea000000 	b	2fc8 <l2797>

00002fc4 <l2796>:
    2fc4:	000fffa4 	.word	0x000fffa4

00002fc8 <l2797>:
    2fc8:	410a5098 	swpmi	r5, r8, [sl]

00002fcc <l2798>:
    2fcc:	e0095b50 	and	r5, r9, r0, asr fp

00002fd0 <interrupt_897>:
    2fd0:	e0a18004 	adc	r8, r1, r4

00002fd4 <l2800>:
    2fd4:	e138047a 	teq	r8, sl, ror r4

00002fd8 <l2801>:
    2fd8:	e0a20002 	adc	r0, r2, r2

00002fdc <interrupt_236>:
    2fdc:	e3a08031 	mov	r8, #49	; 0x31

00002fe0 <l2803>:
    2fe0:	27dd6008 	ldrbcs	r6, [sp, r8]

00002fe4 <l2804>:
    2fe4:	e3310451 	teq	r1, #1358954496	; 0x51000000

00002fe8 <l2805>:
    2fe8:	e3a09032 	mov	r9, #50	; 0x32

00002fec <interrupt_758>:
    2fec:	e18d30b9 	strh	r3, [sp, r9]

00002ff0 <l2807>:
    2ff0:	30f95321 	rscscc	r5, r9, r1, lsr #6

00002ff4 <interrupt_885>:
    2ff4:	e3a0e024 	mov	lr, #36	; 0x24

00002ff8 <l2809>:
    2ff8:	e7dd100e 	ldrb	r1, [sp, lr]

00002ffc <l2810>:
    2ffc:	efb2a9fe 	svc	0x00b2a9fe

00003000 <l2811>:
    3000:	e1dd10f6 	ldrsh	r1, [sp, #6]

00003004 <l2812>:
    3004:	e3a0e010 	mov	lr, #16

00003008 <l2813>:
    3008:	771da00e 	ldrvc	sl, [sp, -lr]

0000300c <l2814>:
    300c:	e59f6000 	ldr	r6, [pc]	; 3014 <interrupt_895>

00003010 <l2815>:
    3010:	ea000000 	b	3018 <l2817>

00003014 <interrupt_895>:
    3014:	000fffcc 	.word	0x000fffcc

00003018 <l2817>:
    3018:	e146a099 	swpb	sl, r9, [r6]

0000301c <l2818>:
    301c:	e59f8000 	ldr	r8, [pc]	; 3024 <interrupt_154>

00003020 <l2819>:
    3020:	ea000000 	b	3028 <l2821>

00003024 <interrupt_154>:
    3024:	000fffd4 	.word	0x000fffd4

00003028 <l2821>:
    3028:	e148b095 	swpb	fp, r5, [r8]

0000302c <interrupt_373>:
    302c:	e1f02005 	mvns	r2, r5

00003030 <l2823>:
    3030:	61cd03b4 	strhvs	r0, [sp, #52]	; 0x34

00003034 <l2824>:
    3034:	e2e336d5 	rsc	r3, r3, #223346688	; 0xd500000

00003038 <l2825>:
    3038:	d093106c 	addsle	r1, r3, ip, rrx

0000303c <l2826>:
    303c:	6a000003 	bvs	3050 <l2831>

00003040 <l2827>:
    3040:	e0d64101 	sbcs	r4, r6, r1, lsl #2

00003044 <l2828>:
    3044:	e3740483 	cmn	r4, #-2097152000	; 0x83000000

00003048 <l2829>:
    3048:	e06331e0 	rsb	r3, r3, r0, ror #3

0000304c <l2830>:
    304c:	c1e09006 	mvngt	r9, r6

00003050 <l2831>:
    3050:	72e2c7a6 	rscvc	ip, r2, #43515904	; 0x2980000

00003054 <l2832>:
    3054:	b11b0a05 	tstlt	fp, r5, lsl #20

00003058 <l2833>:
    3058:	d89d4002 	ldmle	sp, {r1, lr}

0000305c <l2834>:
    305c:	c059e5e9 	subsgt	lr, r9, r9, ror #11

00003060 <l2835>:
    3060:	e04eae7b 	sub	sl, lr, fp, ror lr

00003064 <l2836>:
    3064:	e1ddc0fa 	ldrsh	ip, [sp, #10]

00003068 <l2837>:
    3068:	e0310005 	eors	r0, r1, r5

0000306c <l2838>:
    306c:	e18c413a 	orr	r4, ip, sl, lsr r1

00003070 <l2839>:
    3070:	e1a00000 	nop			; (mov r0, r0)

00003074 <l2840>:
    3074:	efb04e21 	svc	0x00b04e21

00003078 <interrupt_9>:
    3078:	ef45e885 	svc	0x0045e885

0000307c <interrupt_819>:
    307c:	52076c2a 	andpl	r6, r7, #10752	; 0x2a00

00003080 <l2843>:
    3080:	e5dd1016 	ldrb	r1, [sp, #22]

00003084 <l2844>:
    3084:	b5cdb015 	strblt	fp, [sp, #21]

00003088 <interrupt_301>:
    3088:	e1862538 	orr	r2, r6, r8, lsr r5

0000308c <l2846>:
    308c:	75cd0008 	strbvc	r0, [sp, #8]

00003090 <l2847>:
    3090:	61a0c874 	rorvs	ip, r4, r8

00003094 <l2848>:
    3094:	81e07431 	mvnhi	r7, r1, lsr r4

00003098 <l2849>:
    3098:	e0447069 	sub	r7, r4, r9, rrx

0000309c <l2850>:
    309c:	e3a0a036 	mov	sl, #54	; 0x36

000030a0 <l2851>:
    30a0:	e19d00fa 	ldrsh	r0, [sp, sl]

000030a4 <l2852>:
    30a4:	b39768f2 	orrslt	r6, r7, #15859712	; 0xf20000

000030a8 <l2853>:
    30a8:	e38e69f7 	orr	r6, lr, #4046848	; 0x3dc000

000030ac <interrupt_171>:
    30ac:	c5dd2033 	ldrbgt	r2, [sp, #51]	; 0x33

000030b0 <l2855>:
    30b0:	e59f4000 	ldr	r4, [pc]	; 30b8 <l2857>

000030b4 <l2856>:
    30b4:	ea000000 	b	30bc <l2858>

000030b8 <l2857>:
    30b8:	000fffe4 	.word	0x000fffe4

000030bc <l2858>:
    30bc:	e1041096 	swp	r1, r6, [r4]

000030c0 <l2859>:
    30c0:	42ae2b92 	adcmi	r2, lr, #149504	; 0x24800

000030c4 <l2860>:
    30c4:	e055ce3b 	subs	ip, r5, fp, lsr lr

000030c8 <l2861>:
    30c8:	91f05008 	mvnsls	r5, r8

000030cc <l2862>:
    30cc:	1250940b 	subsne	r9, r0, #184549376	; 0xb000000

000030d0 <interrupt_702>:
    30d0:	e3a0c014 	mov	ip, #20

000030d4 <interrupt_835>:
    30d4:	e60d400c 	str	r4, [sp], -ip

000030d8 <l2865>:
    30d8:	e04a8002 	sub	r8, sl, r2

000030dc <l2866>:
    30dc:	ef481444 	svc	0x00481444

000030e0 <l2867>:
    30e0:	50e60003 	rscpl	r0, r6, r3

000030e4 <l2868>:
    30e4:	e3a0401d 	mov	r4, #29

000030e8 <l2869>:
    30e8:	e19d50d4 	ldrsb	r5, [sp, r4]

000030ec <l2870>:
    30ec:	01cd21bc 	strheq	r2, [sp, #28]

000030f0 <l2871>:
    30f0:	e1730061 	cmn	r3, r1, rrx

000030f4 <interrupt_302>:
    30f4:	c067ab77 	rsbgt	sl, r7, r7, ror fp

000030f8 <l2873>:
    30f8:	e3a0b03e 	mov	fp, #62	; 0x3e

000030fc <l2874>:
    30fc:	87dd000b 	ldrbhi	r0, [sp, fp]

00003100 <l2875>:
    3100:	72829d16 	addvc	r9, r2, #1408	; 0x580

00003104 <l2876>:
    3104:	e1a09511 	lsl	r9, r1, r5

00003108 <l2877>:
    3108:	ea000003 	b	311c <l2882>

0000310c <l2878>:
    310c:	e28010b9 	add	r1, r0, #185	; 0xb9

00003110 <interrupt_448>:
    3110:	c1580da4 	cmpgt	r8, r4, lsr #27

00003114 <l2880>:
    3114:	e3b018f7 	movs	r1, #16187392	; 0xf70000

00003118 <interrupt_150>:
    3118:	ea000000 	b	3120 <interrupt_272>

0000311c <l2882>:
    311c:	eafffffb 	b	3110 <interrupt_448>

00003120 <interrupt_272>:
    3120:	e2f6ed23 	rscs	lr, r6, #2240	; 0x8c0

00003124 <l2884>:
    3124:	55cda01c 	strbpl	sl, [sp, #28]

00003128 <interrupt_615>:
    3128:	e3a02046 	mov	r2, #70	; 0x46

0000312c <l2886>:
    312c:	018d60b2 	strheq	r6, [sp, r2]

00003130 <l2887>:
    3130:	e8ad2000 	stmia	sp!, {sp}

00003134 <interrupt_986>:
    3134:	005b6066 	subseq	r6, fp, r6, rrx

00003138 <l2889>:
    3138:	e244c83f 	sub	ip, r4, #4128768	; 0x3f0000

0000313c <l2890>:
    313c:	31ddb0be 	ldrhcc	fp, [sp, #14]

00003140 <l2891>:
    3140:	e8ad54f9 	stmia	sp!, {r0, r3, r4, r5, r6, r7, sl, ip, lr}

00003144 <interrupt_124>:
    3144:	ef66bb93 	svc	0x0066bb93

00003148 <interrupt_6>:
    3148:	91320005 	teqls	r2, r5

0000314c <l2894>:
    314c:	e3a07004 	mov	r7, #4

00003150 <l2895>:
    3150:	e71d3007 	ldr	r3, [sp, -r7]

00003154 <interrupt_645>:
    3154:	e3a05012 	mov	r5, #18

00003158 <l2897>:
    3158:	018d30b5 	strheq	r3, [sp, r5]

0000315c <l2898>:
    315c:	e09e6006 	adds	r6, lr, r6

00003160 <interrupt_50>:
    3160:	e52d5020 	str	r5, [sp, #-32]!

00003164 <l2900>:
    3164:	e16f4f14 	clz	r4, r4

00003168 <l2901>:
    3168:	efbadd91 	svc	0x00badd91

0000316c <l2902>:
    316c:	6a000002 	bvs	317c <l2906>

00003170 <l2903>:
    3170:	011a0c76 	tsteq	sl, r6, ror ip

00003174 <l2904>:
    3174:	613a0578 	teqvs	sl, r8, ror r5

00003178 <l2905>:
    3178:	a16f1f19 	clzge	r1, r9

0000317c <l2906>:
    317c:	e1380460 	teq	r8, r0, ror #8

00003180 <interrupt_966>:
    3180:	e045a931 	sub	sl, r5, r1, lsr r9

00003184 <l2908>:
    3184:	51cd43ba 	strhpl	r4, [sp, #58]	; 0x3a

00003188 <l2909>:
    3188:	e0f3e006 	rscs	lr, r3, r6

0000318c <l2910>:
    318c:	d0f0737a 	rscsle	r7, r0, sl, ror r3

00003190 <l2911>:
    3190:	e17b0e19 	cmn	fp, r9, lsl lr

00003194 <l2912>:
    3194:	e0f922ab 	rscs	r2, r9, fp, lsr #5

00003198 <l2913>:
    3198:	ef38ad5a 	svc	0x0038ad5a

0000319c <l2914>:
    319c:	41dd42b0 	ldrhmi	r4, [sp, #32]

000031a0 <l2915>:
    31a0:	e3f0e692 	mvns	lr, #153092096	; 0x9200000

000031a4 <l2916>:
    31a4:	e2c967ae 	sbc	r6, r9, #45613056	; 0x2b80000

000031a8 <interrupt_594>:
    31a8:	e1cd44b0 	strh	r4, [sp, #64]	; 0x40

000031ac <l2918>:
    31ac:	6a000006 	bvs	31cc <l2926>

000031b0 <l2919>:
    31b0:	e2801087 	add	r1, r0, #135	; 0x87

000031b4 <l2920>:
    31b4:	e0971008 	adds	r1, r7, r8

000031b8 <l2921>:
    31b8:	e1330a73 	teq	r3, r3, ror sl

000031bc <l2922>:
    31bc:	80909009 	addshi	r9, r0, r9

000031c0 <l2923>:
    31c0:	a16f3f19 	clzge	r3, r9

000031c4 <l2924>:
    31c4:	73a021b9 	movvc	r2, #1073741870	; 0x4000002e

000031c8 <l2925>:
    31c8:	ea000000 	b	31d0 <interrupt_967>

000031cc <l2926>:
    31cc:	eafffff8 	b	31b4 <l2920>

000031d0 <interrupt_967>:
    31d0:	efc4c9d3 	svc	0x00c4c9d3

000031d4 <l2928>:
    31d4:	e1390fcf 	teq	r9, pc, asr #31

000031d8 <l2929>:
    31d8:	e1a00000 	nop			; (mov r0, r0)

000031dc <l2930>:
    31dc:	e1a00000 	nop			; (mov r0, r0)

000031e0 <interrupt_906>:
    31e0:	efb14d4d 	svc	0x00b14d4d

000031e4 <interrupt_365>:
    31e4:	e3e0cb81 	mvn	ip, #132096	; 0x20400

000031e8 <l2933>:
    31e8:	e5ddb010 	ldrb	fp, [sp, #16]

000031ec <l2934>:
    31ec:	d06e300f 	rsble	r3, lr, pc

000031f0 <l2935>:
    31f0:	e3a0c040 	mov	ip, #64	; 0x40

000031f4 <l2936>:
    31f4:	419d50fc 	ldrshmi	r5, [sp, ip]

000031f8 <l2937>:
    31f8:	e1760062 	cmn	r6, r2, rrx

000031fc <l2938>:
    31fc:	e113017e 	tst	r3, lr, ror r1

00003200 <l2939>:
    3200:	e0a50000 	adc	r0, r5, r0

00003204 <l2940>:
    3204:	11320254 	teqne	r2, r4, asr r2

00003208 <l2941>:
    3208:	e59f1000 	ldr	r1, [pc]	; 3210 <interrupt_908>

0000320c <l2942>:
    320c:	ea000000 	b	3214 <l2944>

00003210 <interrupt_908>:
    3210:	000fffcc 	.word	0x000fffcc

00003214 <l2944>:
    3214:	d101c090 	swple	ip, r0, [r1]

00003218 <l2945>:
    3218:	e3a0e00d 	mov	lr, #13

0000321c <l2946>:
    321c:	e19d70de 	ldrsb	r7, [sp, lr]

00003220 <l2947>:
    3220:	e07b7051 	rsbs	r7, fp, r1, asr r0

00003224 <l2948>:
    3224:	e5ddc00d 	ldrb	ip, [sp, #13]

00003228 <l2949>:
    3228:	e3a03028 	mov	r3, #40	; 0x28

0000322c <interrupt_203>:
    322c:	97cd6003 	strbls	r6, [sp, r3]

00003230 <l2951>:
    3230:	004a5366 	subeq	r5, sl, r6, ror #6

00003234 <interrupt_736>:
    3234:	031800d7 	tsteq	r8, #215	; 0xd7

00003238 <interrupt_814>:
    3238:	8284c60f 	addhi	ip, r4, #15728640	; 0xf00000

0000323c <l2954>:
    323c:	e59f4000 	ldr	r4, [pc]	; 3244 <interrupt_812>

00003240 <l2955>:
    3240:	ea000000 	b	3248 <l2957>

00003244 <interrupt_812>:
    3244:	000fffcc 	.word	0x000fffcc

00003248 <l2957>:
    3248:	e144709c 	swpb	r7, ip, [r4]

0000324c <l2958>:
    324c:	e9bd1bef 	ldmib	sp!, {r0, r1, r2, r3, r5, r6, r7, r8, r9, fp, ip}

00003250 <l2959>:
    3250:	ef57b27f 	svc	0x0057b27f

00003254 <interrupt_881>:
    3254:	a1cd30b8 	strhge	r3, [sp, #8]

00003258 <l2961>:
    3258:	e51d7028 	ldr	r7, [sp, #-40]	; 0x28

0000325c <l2962>:
    325c:	a1110068 	tstge	r1, r8, rrx

00003260 <l2963>:
    3260:	e5ddb000 	ldrb	fp, [sp]

00003264 <l2964>:
    3264:	e3a0b014 	mov	fp, #20

00003268 <l2965>:
    3268:	e74d000b 	strb	r0, [sp, -fp]

0000326c <l2966>:
    326c:	e3a01022 	mov	r1, #34	; 0x22

00003270 <interrupt_992>:
    3270:	a11d60b1 	ldrhge	r6, [sp, -r1]

00003274 <l2968>:
    3274:	ef5f4845 	svc	0x005f4845

00003278 <l2969>:
    3278:	e3a01016 	mov	r1, #22

0000327c <l2970>:
    327c:	e19db0d1 	ldrsb	fp, [sp, r1]

00003280 <l2971>:
    3280:	21a0186b 	rorcs	r1, fp, #16

00003284 <l2972>:
    3284:	da000002 	ble	3294 <l2976>

00003288 <l2973>:
    3288:	b05cc57e 	subslt	ip, ip, lr, ror r5

0000328c <l2974>:
    328c:	e1f08b04 	mvns	r8, r4, lsl #22

00003290 <l2975>:
    3290:	138480d8 	orrne	r8, r4, #216	; 0xd8

00003294 <l2976>:
    3294:	e1e00fae 	mvn	r0, lr, lsr #31

00003298 <l2977>:
    3298:	e40d3008 	str	r3, [sp], #-8

0000329c <interrupt_635>:
    329c:	e3a04026 	mov	r4, #38	; 0x26

000032a0 <l2979>:
    32a0:	e11d70d4 	ldrsb	r7, [sp, -r4]

000032a4 <l2980>:
    32a4:	8a000005 	bhi	32c0 <l2987>

000032a8 <l2981>:
    32a8:	e280109c 	add	r1, r0, #156	; 0x9c

000032ac <l2982>:
    32ac:	535f0011 	cmppl	pc, #17

000032b0 <l2983>:
    32b0:	e118006f 	tst	r8, pc, rrx

000032b4 <l2984>:
    32b4:	e05ac143 	subs	ip, sl, r3, asr #2

000032b8 <l2985>:
    32b8:	e0106060 	ands	r6, r0, r0, rrx

000032bc <interrupt_513>:
    32bc:	ea000000 	b	32c4 <l2988>

000032c0 <l2987>:
    32c0:	eafffff9 	b	32ac <l2982>

000032c4 <l2988>:
    32c4:	41cc1d4f 	bicmi	r1, ip, pc, asr #26

000032c8 <l2989>:
    32c8:	e3a0a018 	mov	sl, #24

000032cc <l2990>:
    32cc:	718d10ba 	strhvc	r1, [sp, sl]

000032d0 <l2991>:
    32d0:	d054c621 	subsle	ip, r4, r1, lsr #12

000032d4 <l2992>:
    32d4:	e50d6028 	str	r6, [sp, #-40]	; 0x28

000032d8 <interrupt_686>:
    32d8:	e81d04a5 	ldmda	sp, {r0, r2, r5, r7, sl}

000032dc <l2994>:
    32dc:	517f000f 	cmnpl	pc, pc

000032e0 <interrupt_984>:
    32e0:	e5ddb012 	ldrb	fp, [sp, #18]

000032e4 <l2996>:
    32e4:	e1dd30dd 	ldrsb	r3, [sp, #13]

000032e8 <l2997>:
    32e8:	10534f28 	subsne	r4, r3, r8, lsr #30

000032ec <l2998>:
    32ec:	c1c76064 	bicgt	r6, r7, r4, rrx

000032f0 <l2999>:
    32f0:	3a000003 	bcc	3304 <l3004>

000032f4 <l3000>:
    32f4:	e1e0bc30 	mvn	fp, r0, lsr ip

000032f8 <l3001>:
    32f8:	e03c7e60 	eors	r7, ip, r0, ror #28

000032fc <interrupt_429>:
    32fc:	716fcf13 	clzvc	ip, r3

00003300 <l3003>:
    3300:	a04b5e23 	subge	r5, fp, r3, lsr #28

00003304 <l3004>:
    3304:	13d21169 	bicsne	r1, r2, #1073741850	; 0x4000001a

00003308 <l3005>:
    3308:	90552950 	subsls	r2, r5, r0, asr r9

0000330c <l3006>:
    330c:	e59f7000 	ldr	r7, [pc]	; 3314 <interrupt_262>

00003310 <l3007>:
    3310:	ea000000 	b	3318 <l3009>

00003314 <interrupt_262>:
    3314:	000fffd8 	.word	0x000fffd8

00003318 <l3009>:
    3318:	11476099 	swpbne	r6, r9, [r7]

0000331c <l3010>:
    331c:	10cb7e49 	sbcne	r7, fp, r9, asr #28

00003320 <l3011>:
    3320:	e82d2000 	stmda	sp!, {sp}

00003324 <l3012>:
    3324:	21a05ae7 	rorcs	r5, r7, #21

00003328 <interrupt_612>:
    3328:	e3a0a007 	mov	sl, #7

0000332c <l3014>:
    332c:	119d80da 	ldrsbne	r8, [sp, sl]

00003330 <l3015>:
    3330:	550d301c 	strpl	r3, [sp, #-28]

00003334 <l3016>:
    3334:	e3a06023 	mov	r6, #35	; 0x23

00003338 <l3017>:
    3338:	075d3006 	ldrbeq	r3, [sp, -r6]

0000333c <l3018>:
    333c:	e1580006 	cmp	r8, r6

00003340 <interrupt_417>:
    3340:	d2a3a30a 	adcle	sl, r3, #671088640	; 0x28000000

00003344 <l3020>:
    3344:	c04429c7 	subgt	r2, r4, r7, asr #19

00003348 <interrupt_349>:
    3348:	e3a0301a 	mov	r3, #26

0000334c <l3022>:
    334c:	a75d2003 	ldrbge	r2, [sp, -r3]

00003350 <interrupt_855>:
    3350:	e3a0901b 	mov	r9, #27

00003354 <l3024>:
    3354:	e7cda009 	strb	sl, [sp, r9]

00003358 <l3025>:
    3358:	ea000005 	b	3374 <l3032>

0000335c <l3026>:
    335c:	02ba7dae 	adcseq	r7, sl, #11136	; 0x2b80

00003360 <interrupt_851>:
    3360:	e02e4005 	eor	r4, lr, r5

00003364 <l3028>:
    3364:	e0e1b065 	rsc	fp, r1, r5, rrx

00003368 <l3029>:
    3368:	d1730380 	cmnle	r3, r0, lsl #7

0000336c <interrupt_242>:
    336c:	e1a09000 	mov	r9, r0

00003370 <l3031>:
    3370:	916f0f14 	clzls	r0, r4

00003374 <l3032>:
    3374:	72d4e4a7 	sbcsvc	lr, r4, #-1493172224	; 0xa7000000

00003378 <interrupt_901>:
    3378:	ea000008 	b	33a0 <l3043>

0000337c <l3034>:
    337c:	02a72dde 	adceq	r2, r7, #14208	; 0x3780

00003380 <l3035>:
    3380:	e130006b 	teq	r0, fp, rrx

00003384 <l3036>:
    3384:	e099b009 	adds	fp, r9, r9

00003388 <l3037>:
    3388:	d3e06446 	mvnle	r6, #1174405120	; 0x46000000

0000338c <l3038>:
    338c:	b0017c52 	andlt	r7, r1, r2, asr ip

00003390 <l3039>:
    3390:	92c4bec9 	sbcls	fp, r4, #3216	; 0xc90

00003394 <interrupt_293>:
    3394:	e06a4870 	rsb	r4, sl, r0, ror r8

00003398 <l3041>:
    3398:	e0de890b 	sbcs	r8, lr, fp, lsl #18

0000339c <l3042>:
    339c:	106ce00f 	rsbne	lr, ip, pc

000033a0 <l3043>:
    33a0:	e0a32032 	adc	r2, r3, r2, lsr r0

000033a4 <interrupt_409>:
    33a4:	116fef1b 	clzne	lr, fp

000033a8 <l3045>:
    33a8:	e3a0a012 	mov	sl, #18

000033ac <interrupt_884>:
    33ac:	811d80fa 	ldrshhi	r8, [sp, -sl]

000033b0 <l3047>:
    33b0:	e15db1b8 	ldrh	fp, [sp, #-24]	; 0xffffffe8

000033b4 <l3048>:
    33b4:	e54d901b 	strb	r9, [sp, #-27]

000033b8 <l3049>:
    33b8:	e58de020 	str	lr, [sp, #32]

000033bc <l3050>:
    33bc:	e3a06012 	mov	r6, #18

000033c0 <l3051>:
    33c0:	911db0f6 	ldrshls	fp, [sp, -r6]

000033c4 <l3052>:
    33c4:	eff8d8d7 	svc	0x00f8d8d7

000033c8 <l3053>:
    33c8:	e83d19cd 	ldmda	sp!, {r0, r2, r3, r6, r7, r8, fp, ip}

000033cc <interrupt_514>:
    33cc:	e3a07000 	mov	r7, #0

000033d0 <l3055>:
    33d0:	119de0f7 	ldrshne	lr, [sp, r7]

000033d4 <interrupt_471>:
    33d4:	e3a04007 	mov	r4, #7

000033d8 <l3057>:
    33d8:	619d60d4 	ldrsbvs	r6, [sp, r4]

000033dc <l3058>:
    33dc:	41a0574c 	asrmi	r5, ip, #14

000033e0 <l3059>:
    33e0:	31dd01b2 	ldrhcc	r0, [sp, #18]

000033e4 <l3060>:
    33e4:	e3a09020 	mov	r9, #32

000033e8 <l3061>:
    33e8:	e68db009 	str	fp, [sp], r9

000033ec <interrupt_364>:
    33ec:	305eb06a 	subscc	fp, lr, sl, rrx

000033f0 <l3063>:
    33f0:	eaffffff 	b	33f4 <interrupt_846>

000033f4 <interrupt_846>:
    33f4:	e1b0e00c 	movs	lr, ip

000033f8 <l3065>:
    33f8:	ef14c037 	svc	0x0014c037

000033fc <l3066>:
    33fc:	e392158d 	orrs	r1, r2, #591396864	; 0x23400000

00003400 <l3067>:
    3400:	e17f0002 	cmn	pc, r2

00003404 <l3068>:
    3404:	91b05067 	rrxsls	r5, r7

00003408 <l3069>:
    3408:	e1b06008 	movs	r6, r8

0000340c <interrupt_930>:
    340c:	e59f4000 	ldr	r4, [pc]	; 3414 <l3072>

00003410 <l3071>:
    3410:	ea000000 	b	3418 <interrupt_507>

00003414 <l3072>:
    3414:	000fffb4 	.word	0x000fffb4

00003418 <interrupt_507>:
    3418:	d1449097 	swpble	r9, r7, [r4]

0000341c <l3074>:
    341c:	ef69b50d 	svc	0x0069b50d

00003420 <l3075>:
    3420:	e59f5000 	ldr	r5, [pc]	; 3428 <l3077>

00003424 <interrupt_333>:
    3424:	ea000000 	b	342c <interrupt_316>

00003428 <l3077>:
    3428:	000fffac 	.word	0x000fffac

0000342c <interrupt_316>:
    342c:	e1454098 	swpb	r4, r8, [r5]

00003430 <l3079>:
    3430:	e023000f 	eor	r0, r3, pc

00003434 <l3080>:
    3434:	e1f053a2 	mvns	r5, r2, lsr #7

00003438 <interrupt_387>:
    3438:	050d9008 	streq	r9, [sp, #-8]

0000343c <l3082>:
    343c:	efb657d7 	svc	0x00b657d7

00003440 <l3083>:
    3440:	c14da1b8 	strhgt	sl, [sp, #-24]	; 0xffffffe8

00003444 <l3084>:
    3444:	10439773 	subne	r9, r3, r3, ror r7

00003448 <l3085>:
    3448:	659d4008 	ldrvs	r4, [sp, #8]

0000344c <l3086>:
    344c:	e1f01621 	mvns	r1, r1, lsr #12

00003450 <interrupt_463>:
    3450:	e1500239 	cmp	r0, r9, lsr r2

00003454 <l3088>:
    3454:	e235279e 	eors	r2, r5, #41418752	; 0x2780000

00003458 <l3089>:
    3458:	e194a00a 	orrs	sl, r4, sl

0000345c <l3090>:
    345c:	e3a02024 	mov	r2, #36	; 0x24

00003460 <l3091>:
    3460:	d10d00b2 	strhle	r0, [sp, -r2]

00003464 <l3092>:
    3464:	61700219 	cmnvs	r0, r9, lsl r2

00003468 <l3093>:
    3468:	e3a0a022 	mov	sl, #34	; 0x22

0000346c <l3094>:
    346c:	810db0ba 	strhhi	fp, [sp, -sl]

00003470 <l3095>:
    3470:	81ddc1d6 	ldrsbhi	ip, [sp, #22]

00003474 <l3096>:
    3474:	e37b0833 	cmn	fp, #3342336	; 0x330000

00003478 <l3097>:
    3478:	d3150b97 	tstle	r5, #154624	; 0x25c00

0000347c <l3098>:
    347c:	3110006a 	tstcc	r0, sl, rrx

00003480 <interrupt_707>:
    3480:	02dae083 	sbcseq	lr, sl, #131	; 0x83

00003484 <l3100>:
    3484:	e3d9b941 	bics	fp, r9, #1064960	; 0x104000

00003488 <interrupt_121>:
    3488:	e018a0a2 	ands	sl, r8, r2, lsr #1

0000348c <interrupt_690>:
    348c:	51b0c005 	movspl	ip, r5

00003490 <l3103>:
    3490:	ca000004 	bgt	34a8 <l3109>

00003494 <l3104>:
    3494:	e04398eb 	sub	r9, r3, fp, ror #17

00003498 <l3105>:
    3498:	e0071e3e 	and	r1, r7, lr, lsr lr

0000349c <l3106>:
    349c:	d397504c 	orrsle	r5, r7, #76	; 0x4c

000034a0 <interrupt_628>:
    34a0:	a16f0f10 	clzge	r0, r0

000034a4 <l3108>:
    34a4:	708e000c 	addvc	r0, lr, ip

000034a8 <l3109>:
    34a8:	e0632741 	rsb	r2, r3, r1, asr #14

000034ac <l3110>:
    34ac:	e1530424 	cmp	r3, r4, lsr #8

000034b0 <l3111>:
    34b0:	154d5006 	strbne	r5, [sp, #-6]

000034b4 <l3112>:
    34b4:	a00be410 	andge	lr, fp, r0, lsl r4

000034b8 <l3113>:
    34b8:	e15dc0b8 	ldrh	ip, [sp, #-8]

000034bc <interrupt_441>:
    34bc:	01a0e61c 	lsleq	lr, ip, r6

000034c0 <l3115>:
    34c0:	ef77613f 	svc	0x0077613f

000034c4 <interrupt_624>:
    34c4:	e1c6600e 	bic	r6, r6, lr

000034c8 <l3117>:
    34c8:	8112073b 	tsthi	r2, fp, lsr r7

000034cc <l3118>:
    34cc:	81770066 	cmnhi	r7, r6, rrx

000034d0 <l3119>:
    34d0:	e3a08000 	mov	r8, #0

000034d4 <interrupt_617>:
    34d4:	e7ad9008 	str	r9, [sp, r8]!

000034d8 <interrupt_288>:
    34d8:	ea000006 	b	34f8 <l3129>

000034dc <l3122>:
    34dc:	e280102f 	add	r1, r0, #47	; 0x2f

000034e0 <l3123>:
    34e0:	e1c1500b 	bic	r5, r1, fp

000034e4 <l3124>:
    34e4:	e2fe171e 	rscs	r1, lr, #7864320	; 0x780000

000034e8 <l3125>:
    34e8:	71a07007 	movvc	r7, r7

000034ec <l3126>:
    34ec:	a1730066 	cmnge	r3, r6, rrx

000034f0 <interrupt_731>:
    34f0:	e3170010 	tst	r7, #16

000034f4 <l3128>:
    34f4:	ea000000 	b	34fc <l3130>

000034f8 <l3129>:
    34f8:	eafffff8 	b	34e0 <l3123>

000034fc <l3130>:
    34fc:	52708ea5 	rsbspl	r8, r0, #2640	; 0xa50

00003500 <l3131>:
    3500:	e1d80352 	bics	r0, r8, r2, asr r3

00003504 <interrupt_4>:
    3504:	e3a0b004 	mov	fp, #4

00003508 <interrupt_451>:
    3508:	e7ade00b 	str	lr, [sp, fp]!

0000350c <l3134>:
    350c:	e59f6000 	ldr	r6, [pc]	; 3514 <interrupt_419>

00003510 <l3135>:
    3510:	ea000000 	b	3518 <l3137>

00003514 <interrupt_419>:
    3514:	000fffa0 	.word	0x000fffa0

00003518 <l3137>:
    3518:	e106709a 	swp	r7, sl, [r6]

0000351c <l3138>:
    351c:	10d6a416 	sbcsne	sl, r6, r6, lsl r4

00003520 <l3139>:
    3520:	e1d2b064 	bics	fp, r2, r4, rrx

00003524 <l3140>:
    3524:	e0a84008 	adc	r4, r8, r8

00003528 <l3141>:
    3528:	e92d0004 	stmfd	sp!, {r2}

0000352c <l3142>:
    352c:	e16f0f16 	clz	r0, r6

00003530 <l3143>:
    3530:	e92d2000 	stmfd	sp!, {sp}

00003534 <l3144>:
    3534:	558d5010 	strpl	r5, [sp, #16]

00003538 <l3145>:
    3538:	7048500b 	subvc	r5, r8, fp

0000353c <l3146>:
    353c:	c54d2003 	strbgt	r2, [sp, #-3]

00003540 <l3147>:
    3540:	61dd40f2 	ldrshvs	r4, [sp, #2]

00003544 <interrupt_827>:
    3544:	81c796ee 	bichi	r9, r7, lr, ror #13

00003548 <interrupt_76>:
    3548:	ef0c81b7 	svc	0x000c81b7

0000354c <l3150>:
    354c:	a3d76026 	bicsge	r6, r7, #38	; 0x26

00003550 <l3151>:
    3550:	e59f8000 	ldr	r8, [pc]	; 3558 <l3153>

00003554 <l3152>:
    3554:	ea000000 	b	355c <l3154>

00003558 <l3153>:
    3558:	000fffc0 	.word	0x000fffc0

0000355c <l3154>:
    355c:	e1489094 	swpb	r9, r4, [r8]

00003560 <l3155>:
    3560:	e59f2000 	ldr	r2, [pc]	; 3568 <l3157>

00003564 <l3156>:
    3564:	ea000000 	b	356c <l3158>

00003568 <l3157>:
    3568:	000fffd4 	.word	0x000fffd4

0000356c <l3158>:
    356c:	5142a09e 	swpbpl	sl, lr, [r2]

00003570 <l3159>:
    3570:	8a000002 	bhi	3580 <l3163>

00003574 <l3160>:
    3574:	d2d84eb5 	sbcsle	r4, r8, #2896	; 0xb50

00003578 <l3161>:
    3578:	00466005 	subeq	r6, r6, r5

0000357c <l3162>:
    357c:	e284429d 	add	r4, r4, #-805306359	; 0xd0000009

00003580 <l3163>:
    3580:	a2451593 	subge	r1, r5, #616562688	; 0x24c00000

00003584 <l3164>:
    3584:	e5dd5021 	ldrb	r5, [sp, #33]	; 0x21

00003588 <l3165>:
    3588:	da000007 	ble	35ac <l3174>

0000358c <interrupt_792>:
    358c:	e280101c 	add	r1, r0, #28

00003590 <l3167>:
    3590:	e3f0c1c6 	mvns	ip, #-2147483599	; 0x80000031

00003594 <l3168>:
    3594:	b1d0b001 	bicslt	fp, r0, r1

00003598 <l3169>:
    3598:	c1b046e1 	rorsgt	r4, r1, #13

0000359c <l3170>:
    359c:	60ea7468 	rscvs	r7, sl, r8, ror #8

000035a0 <l3171>:
    35a0:	d1e00a2b 	mvnle	r0, fp, lsr #20

000035a4 <l3172>:
    35a4:	e2be64ba 	adcs	r6, lr, #-1174405120	; 0xba000000

000035a8 <l3173>:
    35a8:	ea000000 	b	35b0 <l3175>

000035ac <l3174>:
    35ac:	eafffff7 	b	3590 <l3167>

000035b0 <l3175>:
    35b0:	e0248002 	eor	r8, r4, r2

000035b4 <l3176>:
    35b4:	ea000002 	b	35c4 <interrupt_525>

000035b8 <l3177>:
    35b8:	e280102c 	add	r1, r0, #44	; 0x2c

000035bc <l3178>:
    35bc:	70f2894e 	rscsvc	r8, r2, lr, asr #18

000035c0 <interrupt_724>:
    35c0:	ea000000 	b	35c8 <l3181>

000035c4 <interrupt_525>:
    35c4:	eafffffc 	b	35bc <l3178>

000035c8 <l3181>:
    35c8:	e041a533 	sub	sl, r1, r3, lsr r5

000035cc <l3182>:
    35cc:	e3a09006 	mov	r9, #6

000035d0 <l3183>:
    35d0:	e19d80f9 	ldrsh	r8, [sp, r9]

000035d4 <interrupt_742>:
    35d4:	e06a400a 	rsb	r4, sl, sl

000035d8 <l3185>:
    35d8:	a1590c49 	cmpge	r9, r9, asr #24

000035dc <l3186>:
    35dc:	a1e0c530 	mvnge	ip, r0, lsr r5

000035e0 <l3187>:
    35e0:	e93d058b 	ldmdb	sp!, {r0, r1, r3, r7, r8, sl}

000035e4 <l3188>:
    35e4:	e0512004 	subs	r2, r1, r4

000035e8 <interrupt_646>:
    35e8:	51918060 	orrspl	r8, r1, r0, rrx

000035ec <l3190>:
    35ec:	21f00818 	mvnscs	r0, r8, lsl r8

000035f0 <l3191>:
    35f0:	d09ce2e4 	addsle	lr, ip, r4, ror #5

000035f4 <l3192>:
    35f4:	e3a00026 	mov	r0, #38	; 0x26

000035f8 <l3193>:
    35f8:	519d60b0 	ldrhpl	r6, [sp, r0]

000035fc <interrupt_396>:
    35fc:	915106eb 	cmpls	r1, fp, ror #13

00003600 <l3195>:
    3600:	3a000006 	bcc	3620 <l3203>

00003604 <l3196>:
    3604:	e28010e5 	add	r1, r0, #229	; 0xe5

00003608 <l3197>:
    3608:	e3a098eb 	mov	r9, #15400960	; 0xeb0000

0000360c <l3198>:
    360c:	40b4ac8c 	adcsmi	sl, r4, ip, lsl #25

00003610 <l3199>:
    3610:	52a1b9f6 	adcpl	fp, r1, #4030464	; 0x3d8000

00003614 <l3200>:
    3614:	e0c2bf4b 	sbc	fp, r2, fp, asr #30

00003618 <l3201>:
    3618:	d0209733 	eorle	r9, r0, r3, lsr r7

0000361c <l3202>:
    361c:	ea000000 	b	3624 <l3204>

00003620 <l3203>:
    3620:	eafffff8 	b	3608 <l3197>

00003624 <l3204>:
    3624:	a1cda0b0 	strhge	sl, [sp]

00003628 <interrupt_714>:
    3628:	3a000004 	bcc	3640 <l3211>

0000362c <interrupt_896>:
    362c:	e280108a 	add	r1, r0, #138	; 0x8a

00003630 <interrupt_466>:
    3630:	a2fe4d86 	rscsge	r4, lr, #8576	; 0x2180

00003634 <l3208>:
    3634:	82b9680d 	adcshi	r6, r9, #851968	; 0xd0000

00003638 <l3209>:
    3638:	51380005 	teqpl	r8, r5

0000363c <l3210>:
    363c:	ea000000 	b	3644 <l3212>

00003640 <l3211>:
    3640:	eafffffa 	b	3630 <interrupt_466>

00003644 <l3212>:
    3644:	11b0206f 	rrxsne	r2, pc

00003648 <l3213>:
    3648:	a2b3571e 	adcsge	r5, r3, #7864320	; 0x780000

0000364c <l3214>:
    364c:	e9bd5ffd 	ldmib	sp!, {r0, r2, r3, r4, r5, r6, r7, r8, r9, sl, fp, ip, lr}

00003650 <l3215>:
    3650:	51560002 	cmppl	r6, r2

00003654 <l3216>:
    3654:	415d72b0 	ldrhmi	r7, [sp, #-32]	; 0xffffffe0

00003658 <l3217>:
    3658:	e1d41b19 	bics	r1, r4, r9, lsl fp

0000365c <l3218>:
    365c:	71360066 	teqvc	r6, r6, rrx

00003660 <interrupt_952>:
    3660:	8035eb16 	eorshi	lr, r5, r6, lsl fp

00003664 <l3220>:
    3664:	d0f3993e 	rscsle	r9, r3, lr, lsr r9

00003668 <l3221>:
    3668:	e24e4936 	sub	r4, lr, #884736	; 0xd8000

0000366c <l3222>:
    366c:	a08a3b4a 	addge	r3, sl, sl, asr #22

00003670 <interrupt_312>:
    3670:	e59f7000 	ldr	r7, [pc]	; 3678 <l3225>

00003674 <l3224>:
    3674:	ea000000 	b	367c <l3226>

00003678 <l3225>:
    3678:	000fffe8 	.word	0x000fffe8

0000367c <l3226>:
    367c:	e147c098 	swpb	ip, r8, [r7]

00003680 <interrupt_750>:
    3680:	e0dac005 	sbcs	ip, sl, r5

00003684 <l3228>:
    3684:	e59f3000 	ldr	r3, [pc]	; 368c <l3230>

00003688 <l3229>:
    3688:	ea000000 	b	3690 <l3231>

0000368c <l3230>:
    368c:	000fffdc 	.word	0x000fffdc

00003690 <l3231>:
    3690:	21438097 	swpbcs	r8, r7, [r3]

00003694 <l3232>:
    3694:	e0a2a459 	adc	sl, r2, r9, asr r4

00003698 <l3233>:
    3698:	116f6f17 	clzne	r6, r7

0000369c <l3234>:
    369c:	3185c459 	orrcc	ip, r5, r9, asr r4

000036a0 <l3235>:
    36a0:	41330a5c 	teqmi	r3, ip, asr sl

000036a4 <interrupt_561>:
    36a4:	526c55df 	rsbpl	r5, ip, #935329792	; 0x37c00000

000036a8 <l3237>:
    36a8:	703bbd8f 	eorsvc	fp, fp, pc, lsl #27

000036ac <l3238>:
    36ac:	e04c0060 	sub	r0, ip, r0, rrx

000036b0 <l3239>:
    36b0:	e59f5000 	ldr	r5, [pc]	; 36b8 <l3241>

000036b4 <l3240>:
    36b4:	ea000000 	b	36bc <l3242>

000036b8 <l3241>:
    36b8:	000fffbc 	.word	0x000fffbc

000036bc <l3242>:
    36bc:	a105c099 	swpge	ip, r9, [r5]

000036c0 <l3243>:
    36c0:	ea000003 	b	36d4 <l3248>

000036c4 <interrupt_965>:
    36c4:	e093a008 	adds	sl, r3, r8

000036c8 <l3245>:
    36c8:	c0e20001 	rscgt	r0, r2, r1

000036cc <l3246>:
    36cc:	e0cab00f 	sbc	fp, sl, pc

000036d0 <l3247>:
    36d0:	e132006c 	teq	r2, ip, rrx

000036d4 <l3248>:
    36d4:	e1d43009 	bics	r3, r4, r9

000036d8 <l3249>:
    36d8:	a207af56 	andge	sl, r7, #344	; 0x158

000036dc <interrupt_33>:
    36dc:	e15d30fe 	ldrsh	r3, [sp, #-14]

000036e0 <l3251>:
    36e0:	e1a0e004 	mov	lr, r4

000036e4 <l3252>:
    36e4:	e3a00026 	mov	r0, #38	; 0x26

000036e8 <l3253>:
    36e8:	511d40f0 	ldrshpl	r4, [sp, -r0]

000036ec <l3254>:
    36ec:	e59f5000 	ldr	r5, [pc]	; 36f4 <l3256>

000036f0 <l3255>:
    36f0:	ea000000 	b	36f8 <l3257>

000036f4 <l3256>:
    36f4:	000fffb8 	.word	0x000fffb8

000036f8 <l3257>:
    36f8:	d145a093 	swpble	sl, r3, [r5]

000036fc <l3258>:
    36fc:	a2f78596 	rscsge	r8, r7, #629145600	; 0x25800000

00003700 <l3259>:
    3700:	e1730003 	cmn	r3, r3

00003704 <l3260>:
    3704:	e59f6000 	ldr	r6, [pc]	; 370c <l3262>

00003708 <l3261>:
    3708:	ea000000 	b	3710 <interrupt_844>

0000370c <l3262>:
    370c:	000fffac 	.word	0x000fffac

00003710 <interrupt_844>:
    3710:	01467094 	swpbeq	r7, r4, [r6]

00003714 <l3264>:
    3714:	0249752a 	subeq	r7, r9, #176160768	; 0xa800000

00003718 <l3265>:
    3718:	ef657a7a 	svc	0x00657a7a

0000371c <l3266>:
    371c:	7a000007 	bvc	3740 <interrupt_78>

00003720 <interrupt_126>:
    3720:	e2801041 	add	r1, r0, #65	; 0x41

00003724 <l3268>:
    3724:	32514e82 	subscc	r4, r1, #2080	; 0x820

00003728 <l3269>:
    3728:	50840f07 	addpl	r0, r4, r7, lsl #30

0000372c <l3270>:
    372c:	d21ab6a6 	andsle	fp, sl, #174063616	; 0xa600000

00003730 <l3271>:
    3730:	d073e225 	rsbsle	lr, r3, r5, lsr #4

00003734 <l3272>:
    3734:	e0098837 	and	r8, r9, r7, lsr r8

00003738 <l3273>:
    3738:	e1dca067 	bics	sl, ip, r7, rrx

0000373c <l3274>:
    373c:	ea000000 	b	3744 <l3276>

00003740 <interrupt_78>:
    3740:	eafffff7 	b	3724 <l3268>

00003744 <l3276>:
    3744:	61b0cf23 	lsrsvs	ip, r3, #30

00003748 <l3277>:
    3748:	d134006f 	teqle	r4, pc, rrx

0000374c <l3278>:
    374c:	d170000b 	cmnle	r0, fp

00003750 <l3279>:
    3750:	e0c9eb10 	sbc	lr, r9, r0, lsl fp

00003754 <l3280>:
    3754:	21cda0b0 	strhcs	sl, [sp]

00003758 <l3281>:
    3758:	ef0aa135 	svc	0x000aa135

0000375c <l3282>:
    375c:	d54d9038 	strble	r9, [sp, #-56]	; 0x38

00003760 <l3283>:
    3760:	e8bd0040 	ldmfd	sp!, {r6}

00003764 <l3284>:
    3764:	e0d54005 	sbcs	r4, r5, r5

00003768 <interrupt_614>:
    3768:	e93d5f62 	ldmdb	sp!, {r1, r5, r6, r8, r9, sl, fp, ip, lr}

0000376c <l3286>:
    376c:	e3a0701c 	mov	r7, #28

00003770 <l3287>:
    3770:	e72d9007 	str	r9, [sp, -r7]!

00003774 <l3288>:
    3774:	e9bd1655 	ldmib	sp!, {r0, r2, r4, r6, r9, sl, ip}

00003778 <l3289>:
    3778:	41d6b770 	bicsmi	fp, r6, r0, ror r7

0000377c <l3290>:
    377c:	e59f2000 	ldr	r2, [pc]	; 3784 <l3292>

00003780 <l3291>:
    3780:	ea000000 	b	3788 <l3293>

00003784 <l3292>:
    3784:	000fffac 	.word	0x000fffac

00003788 <l3293>:
    3788:	7102609b 	swpvc	r6, fp, [r2]

0000378c <l3294>:
    378c:	e254440d 	subs	r4, r4, #218103808	; 0xd000000

00003790 <l3295>:
    3790:	e59dc01c 	ldr	ip, [sp, #28]

00003794 <l3296>:
    3794:	4a000004 	bmi	37ac <interrupt_674>

00003798 <l3297>:
    3798:	616fef12 	clzvs	lr, r2

0000379c <l3298>:
    379c:	52667001 	rsbpl	r7, r6, #1

000037a0 <l3299>:
    37a0:	616f7f10 	clzvs	r7, r0

000037a4 <l3300>:
    37a4:	c00e6bef 	andgt	r6, lr, pc, ror #23

000037a8 <l3301>:
    37a8:	b2b3e26d 	adcslt	lr, r3, #-805306362	; 0xd0000006

000037ac <interrupt_674>:
    37ac:	22d3812e 	sbcscs	r8, r3, #-2147483637	; 0x8000000b

000037b0 <l3303>:
    37b0:	e3a0301a 	mov	r3, #26

000037b4 <interrupt_378>:
    37b4:	e19d00b3 	ldrh	r0, [sp, r3]

000037b8 <l3305>:
    37b8:	ef685275 	svc	0x00685275

000037bc <l3306>:
    37bc:	8a000005 	bhi	37d8 <interrupt_145>

000037c0 <l3307>:
    37c0:	e280104d 	add	r1, r0, #77	; 0x4d

000037c4 <l3308>:
    37c4:	e17a0002 	cmn	sl, r2

000037c8 <l3309>:
    37c8:	41f04006 	mvnsmi	r4, r6

000037cc <l3310>:
    37cc:	e1120000 	tst	r2, r0

000037d0 <l3311>:
    37d0:	508eee2a 	addpl	lr, lr, sl, lsr #28

000037d4 <interrupt_842>:
    37d4:	ea000000 	b	37dc <l3314>

000037d8 <interrupt_145>:
    37d8:	eafffff9 	b	37c4 <l3308>

000037dc <l3314>:
    37dc:	e15de0fe 	ldrsh	lr, [sp, #-14]

000037e0 <l3315>:
    37e0:	efaf5714 	svc	0x00af5714

000037e4 <interrupt_314>:
    37e4:	e59f9000 	ldr	r9, [pc]	; 37ec <l3318>

000037e8 <l3317>:
    37e8:	ea000000 	b	37f0 <l3319>

000037ec <l3318>:
    37ec:	000fffb8 	.word	0x000fffb8

000037f0 <l3319>:
    37f0:	e149e097 	swpb	lr, r7, [r9]

000037f4 <l3320>:
    37f4:	0a000002 	beq	3804 <l3324>

000037f8 <l3321>:
    37f8:	e046236a 	sub	r2, r6, sl, ror #6

000037fc <l3322>:
    37fc:	e0be900e 	adcs	r9, lr, lr

00003800 <l3323>:
    3800:	40e6200a 	rscmi	r2, r6, sl

00003804 <l3324>:
    3804:	71f07069 	mvnsvc	r7, r9, rrx

00003808 <l3325>:
    3808:	e042ec77 	sub	lr, r2, r7, ror ip

0000380c <l3326>:
    380c:	a1c8ae45 	bicge	sl, r8, r5, asr #28

00003810 <l3327>:
    3810:	e59f9000 	ldr	r9, [pc]	; 3818 <l3329>

00003814 <l3328>:
    3814:	ea000000 	b	381c <l3330>

00003818 <l3329>:
    3818:	000fffe4 	.word	0x000fffe4

0000381c <l3330>:
    381c:	4149409b 	swpbmi	r4, fp, [r9]

00003820 <interrupt_334>:
    3820:	e1300358 	teq	r0, r8, asr r3

00003824 <interrupt_576>:
    3824:	53902773 	orrspl	r2, r0, #30146560	; 0x1cc0000

00003828 <l3333>:
    3828:	ea000002 	b	3838 <interrupt_651>

0000382c <interrupt_268>:
    382c:	e2801054 	add	r1, r0, #84	; 0x54

00003830 <l3335>:
    3830:	e13a000e 	teq	sl, lr

00003834 <interrupt_214>:
    3834:	ea000000 	b	383c <interrupt_911>

00003838 <interrupt_651>:
    3838:	eafffffc 	b	3830 <l3335>

0000383c <interrupt_911>:
    383c:	d18b4003 	orrle	r4, fp, r3

00003840 <l3339>:
    3840:	e22672d2 	eor	r7, r6, #536870925	; 0x2000000d

00003844 <interrupt_638>:
    3844:	e9bd09d7 	ldmib	sp!, {r0, r1, r2, r4, r6, r7, r8, fp}

00003848 <l3341>:
    3848:	a1e00944 	mvnge	r0, r4, asr #18

0000384c <interrupt_637>:
    384c:	e3a04010 	mov	r4, #16

00003850 <interrupt_320>:
    3850:	b11d10b4 	ldrhlt	r1, [sp, -r4]

00003854 <l3344>:
    3854:	ea000007 	b	3878 <l3353>

00003858 <l3345>:
    3858:	61d95f6f 	bicsvs	r5, r9, pc, ror #30

0000385c <l3346>:
    385c:	818ec670 	orrhi	ip, lr, r0, ror r6

00003860 <l3347>:
    3860:	e0212058 	eor	r2, r1, r8, asr r0

00003864 <interrupt_810>:
    3864:	e13e07a4 	teq	lr, r4, lsr #15

00003868 <l3349>:
    3868:	6032206a 	eorsvs	r2, r2, sl, rrx

0000386c <interrupt_519>:
    386c:	103b2208 	eorsne	r2, fp, r8, lsl #4

00003870 <l3351>:
    3870:	e17e0009 	cmn	lr, r9

00003874 <interrupt_23>:
    3874:	6211562f 	andsvs	r5, r1, #49283072	; 0x2f00000

00003878 <l3353>:
    3878:	71833a12 	orrvc	r3, r3, r2, lsl sl

0000387c <l3354>:
    387c:	11d20f69 	bicsne	r0, r2, r9, ror #30

00003880 <l3355>:
    3880:	e3e04625 	mvn	r4, #38797312	; 0x2500000

00003884 <l3356>:
    3884:	ef75d35f 	svc	0x0075d35f

00003888 <l3357>:
    3888:	e59f0000 	ldr	r0, [pc]	; 3890 <l3359>

0000388c <l3358>:
    388c:	ea000000 	b	3894 <l3360>

00003890 <l3359>:
    3890:	000fffa8 	.word	0x000fffa8

00003894 <l3360>:
    3894:	a100709b 	swpge	r7, fp, [r0]

00003898 <l3361>:
    3898:	e0d6a83b 	sbcs	sl, r6, fp, lsr r8

0000389c <l3362>:
    389c:	c25cae3b 	subsgt	sl, ip, #944	; 0x3b0

000038a0 <l3363>:
    38a0:	e52d8024 	str	r8, [sp, #-36]!	; 0x24

000038a4 <interrupt_891>:
    38a4:	e3dae243 	bics	lr, sl, #805306372	; 0x30000004

000038a8 <l3365>:
    38a8:	31c44005 	biccc	r4, r4, r5

000038ac <interrupt_488>:
    38ac:	b5cd7024 	strblt	r7, [sp, #36]	; 0x24

000038b0 <l3367>:
    38b0:	21e0c36c 	mvncs	ip, ip, ror #6

000038b4 <l3368>:
    38b4:	d1150067 	tstle	r5, r7, rrx

000038b8 <l3369>:
    38b8:	21c7700f 	biccs	r7, r7, pc

000038bc <l3370>:
    38bc:	e3a05004 	mov	r5, #4

000038c0 <interrupt_424>:
    38c0:	a70df005 	strge	pc, [sp, -r5]

000038c4 <interrupt_261>:
    38c4:	e1a00000 	nop			; (mov r0, r0)

000038c8 <l3373>:
    38c8:	d07eaa4a 	rsbsle	sl, lr, sl, asr #20

000038cc <l3374>:
    38cc:	e15d31f4 	ldrsh	r3, [sp, #-20]	; 0xffffffec

000038d0 <l3375>:
    38d0:	e0ea0071 	rsc	r0, sl, r1, ror r0

000038d4 <l3376>:
    38d4:	50e9630e 	rscpl	r6, r9, lr, lsl #6

000038d8 <interrupt_694>:
    38d8:	e174033a 	cmn	r4, sl, lsr r3

000038dc <l3378>:
    38dc:	104b8065 	subne	r8, fp, r5, rrx

000038e0 <l3379>:
    38e0:	935a0816 	cmpls	sl, #1441792	; 0x160000

000038e4 <l3380>:
    38e4:	e0bb0919 	adcs	r0, fp, r9, lsl r9

000038e8 <l3381>:
    38e8:	e53dc00c 	ldr	ip, [sp, #-12]!

000038ec <l3382>:
    38ec:	ef875113 	svc	0x00875113

000038f0 <l3383>:
    38f0:	e33b0d1f 	teq	fp, #1984	; 0x7c0

000038f4 <l3384>:
    38f4:	a5dd8008 	ldrbge	r8, [sp, #8]

000038f8 <interrupt_535>:
    38f8:	e16fcf12 	clz	ip, r2

000038fc <l3386>:
    38fc:	93e07b2d 	mvnls	r7, #46080	; 0xb400

00003900 <l3387>:
    3900:	e59fc000 	ldr	ip, [pc]	; 3908 <interrupt_603>

00003904 <l3388>:
    3904:	ea000000 	b	390c <l3390>

00003908 <interrupt_603>:
    3908:	000fffb0 	.word	0x000fffb0

0000390c <l3390>:
    390c:	614ca099 	swpbvs	sl, r9, [ip]

00003910 <l3391>:
    3910:	e1c88063 	bic	r8, r8, r3, rrx

00003914 <l3392>:
    3914:	e49d4010 	ldr	r4, [sp], #16

00003918 <l3393>:
    3918:	e3a07008 	mov	r7, #8

0000391c <l3394>:
    391c:	975d6007 	ldrbls	r6, [sp, -r7]

00003920 <l3395>:
    3920:	e1550002 	cmp	r5, r2

00003924 <l3396>:
    3924:	e15b00e8 	cmp	fp, r8, ror #1

00003928 <l3397>:
    3928:	e5dd3003 	ldrb	r3, [sp, #3]

0000392c <l3398>:
    392c:	e3a08014 	mov	r8, #20

00003930 <l3399>:
    3930:	e7ad5008 	str	r5, [sp, r8]!

00003934 <l3400>:
    3934:	731f0311 	tstvc	pc, #1140850688	; 0x44000000

00003938 <l3401>:
    3938:	e0bc800c 	adcs	r8, ip, ip

0000393c <l3402>:
    393c:	9116045e 	tstls	r6, lr, asr r4

00003940 <l3403>:
    3940:	01550871 	cmpeq	r5, r1, ror r8

00003944 <l3404>:
    3944:	115d70f2 	ldrshne	r7, [sp, #-2]

00003948 <interrupt_509>:
    3948:	e3a0e031 	mov	lr, #49	; 0x31

0000394c <interrupt_877>:
    394c:	e11db0de 	ldrsb	fp, [sp, -lr]

00003950 <interrupt_426>:
    3950:	01a0700f 	moveq	r7, pc

00003954 <l3408>:
    3954:	e079bc81 	rsbs	fp, r9, r1, lsl #25

00003958 <l3409>:
    3958:	e3a09010 	mov	r9, #16

0000395c <interrupt_942>:
    395c:	874d0009 	strbhi	r0, [sp, -r9]

00003960 <l3411>:
    3960:	e59f5000 	ldr	r5, [pc]	; 3968 <l3413>

00003964 <interrupt_862>:
    3964:	ea000000 	b	396c <interrupt_935>

00003968 <l3413>:
    3968:	000fffa4 	.word	0x000fffa4

0000396c <interrupt_935>:
    396c:	e145a091 	swpb	sl, r1, [r5]

00003970 <l3415>:
    3970:	d19e1007 	orrsle	r1, lr, r7

00003974 <l3416>:
    3974:	809a08c7 	addshi	r0, sl, r7, asr #17

00003978 <l3417>:
    3978:	d09b0065 	addsle	r0, fp, r5, rrx

0000397c <l3418>:
    397c:	e0332c44 	eors	r2, r3, r4, asr #24

00003980 <interrupt_522>:
    3980:	e17e0487 	cmn	lr, r7, lsl #9

00003984 <l3420>:
    3984:	e41d9028 	ldr	r9, [sp], #-40	; 0x28

00003988 <l3421>:
    3988:	e1a00000 	nop			; (mov r0, r0)

0000398c <l3422>:
    398c:	1a000005 	bne	39a8 <l3429>

00003990 <l3423>:
    3990:	e1c3791b 	bic	r7, r3, fp, lsl r9

00003994 <l3424>:
    3994:	422b80ec 	eormi	r8, fp, #236	; 0xec

00003998 <interrupt_826>:
    3998:	a1f03006 	mvnsge	r3, r6

0000399c <l3426>:
    399c:	40e86823 	rscmi	r6, r8, r3, lsr #16

000039a0 <l3427>:
    39a0:	027606ba 	rsbseq	r0, r6, #195035136	; 0xba00000

000039a4 <l3428>:
    39a4:	e05f25ea 	subs	r2, pc, sl, ror #11

000039a8 <l3429>:
    39a8:	51360be4 	teqpl	r6, r4, ror #23

000039ac <interrupt_620>:
    39ac:	a050c001 	subsge	ip, r0, r1

000039b0 <l3431>:
    39b0:	e3a07004 	mov	r7, #4

000039b4 <l3432>:
    39b4:	e18d20b7 	strh	r2, [sp, r7]

000039b8 <l3433>:
    39b8:	50ce1007 	sbcpl	r1, lr, r7

000039bc <l3434>:
    39bc:	e3a08006 	mov	r8, #6

000039c0 <l3435>:
    39c0:	e18d70b8 	strh	r7, [sp, r8]

000039c4 <l3436>:
    39c4:	638e07d1 	orrvs	r0, lr, #54788096	; 0x3440000

000039c8 <l3437>:
    39c8:	6affffff 	bvs	39cc <l3438>

000039cc <l3438>:
    39cc:	10bbc00c 	adcsne	ip, fp, ip

000039d0 <l3439>:
    39d0:	ef952f9f 	svc	0x00952f9f

000039d4 <l3440>:
    39d4:	50a72003 	adcpl	r2, r7, r3

000039d8 <interrupt_276>:
    39d8:	ef339ef1 	svc	0x00339ef1

000039dc <l3442>:
    39dc:	e0ae2353 	adc	r2, lr, r3, asr r3

000039e0 <l3443>:
    39e0:	e1520625 	cmp	r2, r5, lsr #12

000039e4 <l3444>:
    39e4:	1130047a 	teqne	r0, sl, ror r4

000039e8 <l3445>:
    39e8:	c025e00a 	eorgt	lr, r5, sl

000039ec <interrupt_200>:
    39ec:	e00a0001 	and	r0, sl, r1

000039f0 <interrupt_643>:
    39f0:	e5cd1027 	strb	r1, [sp, #39]	; 0x27

000039f4 <l3448>:
    39f4:	e3a0b02c 	mov	fp, #44	; 0x2c

000039f8 <l3449>:
    39f8:	e19de0bb 	ldrh	lr, [sp, fp]

000039fc <l3450>:
    39fc:	326f95ed 	rsbcc	r9, pc, #994050048	; 0x3b400000

00003a00 <l3451>:
    3a00:	ea000007 	b	3a24 <l3460>

00003a04 <l3452>:
    3a04:	e2801037 	add	r1, r0, #55	; 0x37

00003a08 <l3453>:
    3a08:	3262cf4e 	rsbcc	ip, r2, #312	; 0x138

00003a0c <l3454>:
    3a0c:	e3f08049 	mvns	r8, #73	; 0x49

00003a10 <interrupt_96>:
    3a10:	20827677 	addcs	r7, r2, r7, ror r6

00003a14 <l3456>:
    3a14:	e04b2824 	sub	r2, fp, r4, lsr #16

00003a18 <l3457>:
    3a18:	50c96059 	sbcpl	r6, r9, r9, asr r0

00003a1c <l3458>:
    3a1c:	e047433a 	sub	r4, r7, sl, lsr r3

00003a20 <interrupt_684>:
    3a20:	ea000000 	b	3a28 <l3461>

00003a24 <l3460>:
    3a24:	eafffff7 	b	3a08 <l3453>

00003a28 <l3461>:
    3a28:	a008b28b 	andge	fp, r8, fp, lsl #5

00003a2c <l3462>:
    3a2c:	e88d7f9a 	stm	sp, {r1, r3, r4, r7, r8, r9, sl, fp, ip, sp, lr}

00003a30 <l3463>:
    3a30:	a2da7007 	sbcsge	r7, sl, #7

00003a34 <l3464>:
    3a34:	ea000006 	b	3a54 <interrupt_983>

00003a38 <l3465>:
    3a38:	e280103f 	add	r1, r0, #63	; 0x3f

00003a3c <l3466>:
    3a3c:	e0f32066 	rscs	r2, r3, r6, rrx

00003a40 <l3467>:
    3a40:	e0c2cb4c 	sbc	ip, r2, ip, asr #22

00003a44 <l3468>:
    3a44:	e3e0ba0b 	mvn	fp, #45056	; 0xb000

00003a48 <l3469>:
    3a48:	70e15218 	rscvc	r5, r1, r8, lsl r2

00003a4c <interrupt_255>:
    3a4c:	903ab50b 	eorsls	fp, sl, fp, lsl #10

00003a50 <interrupt_238>:
    3a50:	ea000000 	b	3a58 <l3473>

00003a54 <interrupt_983>:
    3a54:	eafffff8 	b	3a3c <l3466>

00003a58 <l3473>:
    3a58:	198dea6e 	stmibne	sp, {r1, r2, r3, r5, r6, r9, fp, sp, lr, pc}

00003a5c <l3474>:
    3a5c:	e28c28ee 	add	r2, ip, #15597568	; 0xee0000

00003a60 <l3475>:
    3a60:	95dd4036 	ldrbls	r4, [sp, #54]	; 0x36

00003a64 <l3476>:
    3a64:	21550007 	cmpcs	r5, r7

00003a68 <l3477>:
    3a68:	e2f0585d 	rscs	r5, r0, #6094848	; 0x5d0000

00003a6c <l3478>:
    3a6c:	316f2f1e 	clzcc	r2, lr

00003a70 <l3479>:
    3a70:	216f8f16 	clzcs	r8, r6

00003a74 <l3480>:
    3a74:	e1cb3aa1 	bic	r3, fp, r1, lsr #21

00003a78 <interrupt_976>:
    3a78:	b1cd01b0 	strhlt	r0, [sp, #16]

00003a7c <interrupt_28>:
    3a7c:	d0cfa06f 	sbcle	sl, pc, pc, rrx

00003a80 <l3483>:
    3a80:	e0e47242 	rsc	r7, r4, r2, asr #4

00003a84 <interrupt_865>:
    3a84:	e90d0010 	stmdb	sp, {r4}

00003a88 <l3485>:
    3a88:	e9ad97be 	stmib	sp!, {r1, r2, r3, r4, r5, r7, r8, r9, sl, ip, pc}

00003a8c <l3486>:
    3a8c:	e59f8000 	ldr	r8, [pc]	; 3a94 <l3488>

00003a90 <l3487>:
    3a90:	ea000000 	b	3a98 <l3489>

00003a94 <l3488>:
    3a94:	000fffa8 	.word	0x000fffa8

00003a98 <l3489>:
    3a98:	e1082093 	swp	r2, r3, [r8]

00003a9c <l3490>:
    3a9c:	60cb3066 	sbcvs	r3, fp, r6, rrx

00003aa0 <interrupt_247>:
    3aa0:	ef7e2e75 	svc	0x007e2e75

00003aa4 <l3492>:
    3aa4:	826502ed 	rsbhi	r0, r5, #-805306354	; 0xd000000e

00003aa8 <l3493>:
    3aa8:	e82d0040 	stmda	sp!, {r6}

00003aac <l3494>:
    3aac:	e3a03012 	mov	r3, #18

00003ab0 <l3495>:
    3ab0:	e19d70b3 	ldrh	r7, [sp, r3]

00003ab4 <interrupt_888>:
    3ab4:	c00c4007 	andgt	r4, ip, r7

00003ab8 <l3497>:
    3ab8:	ef6b43f6 	svc	0x006b43f6

00003abc <l3498>:
    3abc:	d006100e 	andle	r1, r6, lr

00003ac0 <l3499>:
    3ac0:	a150006f 	cmpge	r0, pc, rrx

00003ac4 <interrupt_590>:
    3ac4:	e83d46d4 	ldmda	sp!, {r2, r4, r6, r7, r9, sl, lr}

00003ac8 <l3501>:
    3ac8:	ef90c41c 	svc	0x0090c41c

00003acc <l3502>:
    3acc:	41dd82d6 	ldrsbmi	r8, [sp, #38]	; 0x26

00003ad0 <l3503>:
    3ad0:	e5ad302c 	str	r3, [sp, #44]!	; 0x2c

00003ad4 <interrupt_840>:
    3ad4:	e05e1002 	subs	r1, lr, r2

00003ad8 <l3505>:
    3ad8:	ef7176e6 	svc	0x007176e6

00003adc <l3506>:
    3adc:	e0ea4676 	rsc	r4, sl, r6, ror r6

00003ae0 <l3507>:
    3ae0:	e17c0007 	cmn	ip, r7

00003ae4 <l3508>:
    3ae4:	416f9f10 	clzmi	r9, r0

00003ae8 <l3509>:
    3ae8:	e1360000 	teq	r6, r0

00003aec <interrupt_546>:
    3aec:	e59f8000 	ldr	r8, [pc]	; 3af4 <interrupt_239>

00003af0 <l3511>:
    3af0:	ea000000 	b	3af8 <interrupt_287>

00003af4 <interrupt_239>:
    3af4:	000fffc8 	.word	0x000fffc8

00003af8 <interrupt_287>:
    3af8:	01489093 	swpbeq	r9, r3, [r8]

00003afc <l3514>:
    3afc:	70abab37 	adcvc	sl, fp, r7, lsr fp

00003b00 <l3515>:
    3b00:	b14d32be 	strhlt	r3, [sp, #-46]	; 0xffffffd2

00003b04 <l3516>:
    3b04:	e3a0c006 	mov	ip, #6

00003b08 <l3517>:
    3b08:	57cd900c 	strbpl	r9, [sp, ip]

00003b0c <l3518>:
    3b0c:	e15d32d9 	ldrsb	r3, [sp, #-41]	; 0xffffffd7

00003b10 <l3519>:
    3b10:	905425a1 	subsls	r2, r4, r1, lsr #11

00003b14 <l3520>:
    3b14:	ba000007 	blt	3b38 <l3529>

00003b18 <l3521>:
    3b18:	e2bfa457 	adcs	sl, pc, #1459617792	; 0x57000000

00003b1c <l3522>:
    3b1c:	e09594e3 	adds	r9, r5, r3, ror #9

00003b20 <l3523>:
    3b20:	816faf17 	clzhi	sl, r7

00003b24 <l3524>:
    3b24:	b16f1f18 	clzlt	r1, r8

00003b28 <l3525>:
    3b28:	e269c1c6 	rsb	ip, r9, #-2147483599	; 0x80000031

00003b2c <l3526>:
    3b2c:	a1390838 	teqge	r9, r8, lsr r8

00003b30 <l3527>:
    3b30:	23a00927 	movcs	r0, #638976	; 0x9c000

00003b34 <l3528>:
    3b34:	438a1b9a 	orrmi	r1, sl, #157696	; 0x26800

00003b38 <l3529>:
    3b38:	92cc8437 	sbcls	r8, ip, #922746880	; 0x37000000

00003b3c <l3530>:
    3b3c:	e82d0050 	stmda	sp!, {r4, r6}

00003b40 <l3531>:
    3b40:	e05aa9cf 	subs	sl, sl, pc, asr #19

00003b44 <l3532>:
    3b44:	01520067 	cmpeq	r2, r7, rrx

00003b48 <l3533>:
    3b48:	d05cc8a7 	subsle	ip, ip, r7, lsr #17

00003b4c <l3534>:
    3b4c:	e3db4866 	bics	r4, fp, #6684672	; 0x660000

00003b50 <interrupt_60>:
    3b50:	e40d300c 	str	r3, [sp], #-12

00003b54 <interrupt_860>:
    3b54:	e1520008 	cmp	r2, r8

00003b58 <l3537>:
    3b58:	e3a00000 	mov	r0, #0

00003b5c <l3538>:
    3b5c:	c19d10f0 	ldrshgt	r1, [sp, r0]

00003b60 <l3539>:
    3b60:	71e09006 	mvnvc	r9, r6

00003b64 <l3540>:
    3b64:	e0588004 	subs	r8, r8, r4

00003b68 <interrupt_201>:
    3b68:	22605efe 	rsbcs	r5, r0, #4064	; 0xfe0

00003b6c <interrupt_22>:
    3b6c:	61b0b106 	lslsvs	fp, r6, #2

00003b70 <l3543>:
    3b70:	e59fc000 	ldr	ip, [pc]	; 3b78 <l3545>

00003b74 <interrupt_151>:
    3b74:	ea000000 	b	3b7c <l3546>

00003b78 <l3545>:
    3b78:	000fffbc 	.word	0x000fffbc

00003b7c <l3546>:
    3b7c:	214ca097 	swpbcs	sl, r7, [ip]

00003b80 <l3547>:
    3b80:	039be5d1 	orrseq	lr, fp, #876609536	; 0x34400000

00003b84 <l3548>:
    3b84:	a1e00878 	mvnge	r0, r8, ror r8

00003b88 <l3549>:
    3b88:	e0e44ec3 	rsc	r4, r4, r3, asr #29

00003b8c <interrupt_467>:
    3b8c:	e1180006 	tst	r8, r6

00003b90 <l3551>:
    3b90:	e15de1fe 	ldrsh	lr, [sp, #-30]	; 0xffffffe2

00003b94 <l3552>:
    3b94:	009ec06e 	addseq	ip, lr, lr, rrx

00003b98 <interrupt_202>:
    3b98:	e05f7064 	subs	r7, pc, r4, rrx

00003b9c <interrupt_345>:
    3b9c:	efba8f12 	svc	0x00ba8f12

00003ba0 <l3555>:
    3ba0:	01cd70b8 	strheq	r7, [sp, #8]

00003ba4 <l3556>:
    3ba4:	e3a05008 	mov	r5, #8

00003ba8 <l3557>:
    3ba8:	e11d80f5 	ldrsh	r8, [sp, -r5]

00003bac <l3558>:
    3bac:	e3a0800a 	mov	r8, #10

00003bb0 <l3559>:
    3bb0:	811da0b8 	ldrhhi	sl, [sp, -r8]

00003bb4 <l3560>:
    3bb4:	e92da000 	push	{sp, pc}

00003bb8 <l3561>:
    3bb8:	e50d7004 	str	r7, [sp, #-4]

00003bbc <l3562>:
    3bbc:	d086507a 	addle	r5, r6, sl, ror r0

00003bc0 <l3563>:
    3bc0:	e3770635 	cmn	r7, #55574528	; 0x3500000

00003bc4 <l3564>:
    3bc4:	e3a06000 	mov	r6, #0

00003bc8 <l3565>:
    3bc8:	e19d70b6 	ldrh	r7, [sp, r6]

00003bcc <l3566>:
    3bcc:	e0330635 	eors	r0, r3, r5, lsr r6

00003bd0 <l3567>:
    3bd0:	40498955 	submi	r8, r9, r5, asr r9

00003bd4 <l3568>:
    3bd4:	a0dea932 	sbcsge	sl, lr, r2, lsr r9

00003bd8 <l3569>:
    3bd8:	815d31fa 	ldrshhi	r3, [sp, #-26]	; 0xffffffe6

00003bdc <l3570>:
    3bdc:	c18f500b 	orrgt	r5, pc, fp

00003be0 <l3571>:
    3be0:	e1590731 	cmp	r9, r1, lsr r7

00003be4 <l3572>:
    3be4:	e0535009 	subs	r5, r3, r9

00003be8 <l3573>:
    3be8:	e14d72b0 	strh	r7, [sp, #-32]	; 0xffffffe0

00003bec <interrupt_174>:
    3bec:	8a000002 	bhi	3bfc <l3578>

00003bf0 <interrupt_538>:
    3bf0:	e28010fe 	add	r1, r0, #254	; 0xfe

00003bf4 <l3576>:
    3bf4:	c0745064 	rsbsgt	r5, r4, r4, rrx

00003bf8 <interrupt_388>:
    3bf8:	ea000000 	b	3c00 <l3579>

00003bfc <l3578>:
    3bfc:	eafffffc 	b	3bf4 <l3576>

00003c00 <l3579>:
    3c00:	2096416b 	addscs	r4, r6, fp, ror #2

00003c04 <interrupt_219>:
    3c04:	d3980d63 	orrsle	r0, r8, #6336	; 0x18c0

00003c08 <interrupt_828>:
    3c08:	e80d0082 	stmda	sp, {r1, r7}

00003c0c <l3582>:
    3c0c:	e59f6000 	ldr	r6, [pc]	; 3c14 <l3584>

00003c10 <l3583>:
    3c10:	ea000000 	b	3c18 <l3585>

00003c14 <l3584>:
    3c14:	000fffc8 	.word	0x000fffc8

00003c18 <l3585>:
    3c18:	5106c095 	swppl	ip, r5, [r6]

00003c1c <l3586>:
    3c1c:	efc862f0 	svc	0x00c862f0

00003c20 <interrupt_568>:
    3c20:	e3a0e006 	mov	lr, #6

00003c24 <l3588>:
    3c24:	e10db0be 	strh	fp, [sp, -lr]

00003c28 <l3589>:
    3c28:	890d8341 	stmdbhi	sp, {r0, r6, r8, r9, pc}

00003c2c <l3590>:
    3c2c:	e16f2f10 	clz	r2, r0

00003c30 <l3591>:
    3c30:	81130064 	tsthi	r3, r4, rrx

00003c34 <l3592>:
    3c34:	e59f0000 	ldr	r0, [pc]	; 3c3c <l3594>

00003c38 <l3593>:
    3c38:	ea000000 	b	3c40 <l3595>

00003c3c <l3594>:
    3c3c:	000fffe0 	.word	0x000fffe0

00003c40 <l3595>:
    3c40:	e100c098 	swp	ip, r8, [r0]

00003c44 <l3596>:
    3c44:	63e02cfe 	mvnvs	r2, #65024	; 0xfe00

00003c48 <l3597>:
    3c48:	e3a01001 	mov	r1, #1

00003c4c <l3598>:
    3c4c:	019d60d1 	ldrsbeq	r6, [sp, r1]

00003c50 <l3599>:
    3c50:	e35a095d 	cmp	sl, #1523712	; 0x174000

00003c54 <l3600>:
    3c54:	e83d0811 	ldmda	sp!, {r0, r4, fp}

00003c58 <l3601>:
    3c58:	e3a0a00b 	mov	sl, #11

00003c5c <l3602>:
    3c5c:	d75de00a 	ldrble	lr, [sp, -sl]

00003c60 <l3603>:
    3c60:	c2be060b 	adcsgt	r0, lr, #11534336	; 0xb00000

00003c64 <l3604>:
    3c64:	d14dc0ba 	strhle	ip, [sp, #-10]

00003c68 <l3605>:
    3c68:	e59fe000 	ldr	lr, [pc]	; 3c70 <l3607>

00003c6c <interrupt_224>:
    3c6c:	ea000000 	b	3c74 <l3608>

00003c70 <l3607>:
    3c70:	000fffb0 	.word	0x000fffb0

00003c74 <l3608>:
    3c74:	e14eb091 	swpb	fp, r1, [lr]

00003c78 <l3609>:
    3c78:	ea000002 	b	3c88 <l3613>

00003c7c <interrupt_34>:
    3c7c:	626fc83d 	rsbvs	ip, pc, #3997696	; 0x3d0000

00003c80 <interrupt_537>:
    3c80:	82cf9007 	sbchi	r9, pc, #7

00003c84 <interrupt_913>:
    3c84:	d3c6a9c7 	bicle	sl, r6, #3260416	; 0x31c000

00003c88 <l3613>:
    3c88:	e23187c2 	eors	r8, r1, #50855936	; 0x3080000

00003c8c <interrupt_555>:
    3c8c:	e93d1130 	ldmdb	sp!, {r4, r5, r8, ip}

00003c90 <interrupt_839>:
    3c90:	e3a0b016 	mov	fp, #22

00003c94 <l3616>:
    3c94:	418d00bb 	strhmi	r0, [sp, fp]

00003c98 <interrupt_425>:
    3c98:	3a000004 	bcc	3cb0 <l3623>

00003c9c <l3618>:
    3c9c:	e280103c 	add	r1, r0, #60	; 0x3c

00003ca0 <l3619>:
    3ca0:	e16f9f10 	clz	r9, r0

00003ca4 <interrupt_142>:
    3ca4:	e23222a2 	eors	r2, r2, #536870922	; 0x2000000a

00003ca8 <l3621>:
    3ca8:	e1a0c007 	mov	ip, r7

00003cac <l3622>:
    3cac:	ea000000 	b	3cb4 <l3624>

00003cb0 <l3623>:
    3cb0:	eafffffa 	b	3ca0 <l3619>

00003cb4 <l3624>:
    3cb4:	10116008 	andsne	r6, r1, r8

00003cb8 <l3625>:
    3cb8:	ef564349 	svc	0x00564349

00003cbc <l3626>:
    3cbc:	e98d5ef4 	stmib	sp, {r2, r4, r5, r6, r7, r9, sl, fp, ip, lr}

00003cc0 <l3627>:
    3cc0:	51b04000 	movspl	r4, r0

00003cc4 <l3628>:
    3cc4:	013b0689 	teqeq	fp, r9, lsl #13

00003cc8 <l3629>:
    3cc8:	e153006f 	cmp	r3, pc, rrx

00003ccc <l3630>:
    3ccc:	e0cb37a0 	sbc	r3, fp, r0, lsr #15

00003cd0 <l3631>:
    3cd0:	e2a984cb 	adc	r8, r9, #-889192448	; 0xcb000000

00003cd4 <l3632>:
    3cd4:	e15308aa 	cmp	r3, sl, lsr #17

00003cd8 <l3633>:
    3cd8:	9186caca 	orrls	ip, r6, sl, asr #21

00003cdc <l3634>:
    3cdc:	e21f3901 	ands	r3, pc, #16384	; 0x4000

00003ce0 <l3635>:
    3ce0:	e3a03004 	mov	r3, #4

00003ce4 <interrupt_821>:
    3ce4:	e10db0b3 	strh	fp, [sp, -r3]

00003ce8 <l3637>:
    3ce8:	915d80d4 	ldrsbls	r8, [sp, #-4]

00003cec <l3638>:
    3cec:	9206ecf1 	andls	lr, r6, #61696	; 0xf100

00003cf0 <l3639>:
    3cf0:	e0375955 	eors	r5, r7, r5, asr r9

00003cf4 <l3640>:
    3cf4:	42bbe02e 	adcsmi	lr, fp, #46	; 0x2e

00003cf8 <l3641>:
    3cf8:	01dda3fa 	ldrsheq	sl, [sp, #58]	; 0x3a

00003cfc <l3642>:
    3cfc:	d1e04061 	mvnle	r4, r1, rrx

00003d00 <interrupt_715>:
    3d00:	e41d700c 	ldr	r7, [sp], #-12

00003d04 <l3644>:
    3d04:	c05bc065 	subsgt	ip, fp, r5, rrx

00003d08 <l3645>:
    3d08:	e59fb000 	ldr	fp, [pc]	; 3d10 <l3647>

00003d0c <l3646>:
    3d0c:	ea000000 	b	3d14 <l3648>

00003d10 <l3647>:
    3d10:	000fffb0 	.word	0x000fffb0

00003d14 <l3648>:
    3d14:	810ba098 	swphi	sl, r8, [fp]

00003d18 <l3649>:
    3d18:	e13b0002 	teq	fp, r2

00003d1c <interrupt_669>:
    3d1c:	9150001b 	cmpls	r0, fp, lsl r0

00003d20 <interrupt_575>:
    3d20:	e3a07012 	mov	r7, #18

00003d24 <interrupt_428>:
    3d24:	e19d70b7 	ldrh	r7, [sp, r7]

00003d28 <l3653>:
    3d28:	7057c068 	subsvc	ip, r7, r8, rrx

00003d2c <l3654>:
    3d2c:	419a5061 	orrsmi	r5, sl, r1, rrx

00003d30 <l3655>:
    3d30:	e0f45476 	rscs	r5, r4, r6, ror r4

00003d34 <interrupt_109>:
    3d34:	e5cd7037 	strb	r7, [sp, #55]	; 0x37

00003d38 <interrupt_765>:
    3d38:	e1a00000 	nop			; (mov r0, r0)

00003d3c <l3658>:
    3d3c:	ea000002 	b	3d4c <l3662>

00003d40 <l3659>:
    3d40:	e28010d3 	add	r1, r0, #211	; 0xd3

00003d44 <interrupt_418>:
    3d44:	b0867956 	addlt	r7, r6, r6, asr r9

00003d48 <l3661>:
    3d48:	ea000000 	b	3d50 <l3663>

00003d4c <l3662>:
    3d4c:	eafffffc 	b	3d44 <interrupt_418>

00003d50 <l3663>:
    3d50:	efdc6faf 	svc	0x00dc6faf

00003d54 <l3664>:
    3d54:	ea000004 	b	3d6c <l3670>

00003d58 <l3665>:
    3d58:	e280108d 	add	r1, r0, #141	; 0x8d

00003d5c <l3666>:
    3d5c:	111c000e 	tstne	ip, lr

00003d60 <l3667>:
    3d60:	e1f08009 	mvns	r8, r9

00003d64 <interrupt_327>:
    3d64:	e078e009 	rsbs	lr, r8, r9

00003d68 <interrupt_931>:
    3d68:	ea000000 	b	3d70 <l3671>

00003d6c <l3670>:
    3d6c:	eafffffa 	b	3d5c <l3666>

00003d70 <l3671>:
    3d70:	e1e018c0 	mvn	r1, r0, asr #17

00003d74 <interrupt_508>:
    3d74:	e3a09049 	mov	r9, #73	; 0x49

00003d78 <l3673>:
    3d78:	e7cd9009 	strb	r9, [sp, r9]

00003d7c <l3674>:
    3d7c:	65cdb031 	strbvs	fp, [sp, #49]	; 0x31

00003d80 <l3675>:
    3d80:	e16f9f15 	clz	r9, r5

00003d84 <l3676>:
    3d84:	4251719e 	subsmi	r7, r1, #-2147483609	; 0x80000027

00003d88 <l3677>:
    3d88:	e8bd1f78 	pop	{r3, r4, r5, r6, r8, r9, sl, fp, ip}

00003d8c <l3678>:
    3d8c:	efc78385 	svc	0x00c78385

00003d90 <l3679>:
    3d90:	e3a0900d 	mov	r9, #13

00003d94 <l3680>:
    3d94:	e7cdc009 	strb	ip, [sp, r9]

00003d98 <l3681>:
    3d98:	e59f9000 	ldr	r9, [pc]	; 3da0 <l3683>

00003d9c <interrupt_49>:
    3d9c:	ea000000 	b	3da4 <interrupt_186>

00003da0 <l3683>:
    3da0:	000fffc0 	.word	0x000fffc0

00003da4 <interrupt_186>:
    3da4:	d149b092 	swpble	fp, r2, [r9]

00003da8 <l3685>:
    3da8:	e3a04027 	mov	r4, #39	; 0x27

00003dac <interrupt_705>:
    3dac:	d7dd7004 	ldrble	r7, [sp, r4]

00003db0 <l3687>:
    3db0:	efbd2113 	svc	0x00bd2113

00003db4 <l3688>:
    3db4:	002ea443 	eoreq	sl, lr, r3, asr #8

00003db8 <interrupt_453>:
    3db8:	5a000002 	bpl	3dc8 <l3693>

00003dbc <interrupt_59>:
    3dbc:	e0255069 	eor	r5, r5, r9, rrx

00003dc0 <interrupt_198>:
    3dc0:	e1a00530 	lsr	r0, r0, r5

00003dc4 <l3692>:
    3dc4:	21580005 	cmpcs	r8, r5

00003dc8 <l3693>:
    3dc8:	c05f6000 	subsgt	r6, pc, r0

00003dcc <l3694>:
    3dcc:	e15da0b8 	ldrh	sl, [sp, #-8]

00003dd0 <l3695>:
    3dd0:	105a1003 	subsne	r1, sl, r3

00003dd4 <l3696>:
    3dd4:	e93d0018 	ldmdb	sp!, {r3, r4}

00003dd8 <interrupt_541>:
    3dd8:	e3f0431d 	mvns	r4, #1946157056	; 0x74000000

00003ddc <l3698>:
    3ddc:	efe15ebf 	svc	0x00e15ebf

00003de0 <l3699>:
    3de0:	81500b3e 	cmphi	r0, lr, lsr fp

00003de4 <l3700>:
    3de4:	e1a0c55e 	asr	ip, lr, r5

00003de8 <interrupt_275>:
    3de8:	50570064 	subspl	r0, r7, r4, rrx

00003dec <interrupt_393>:
    3dec:	e3a0300f 	mov	r3, #15

00003df0 <l3703>:
    3df0:	e7cd2003 	strb	r2, [sp, r3]

00003df4 <l3704>:
    3df4:	508a5255 	addpl	r5, sl, r5, asr r2

00003df8 <l3705>:
    3df8:	21da63eb 	bicscs	r6, sl, fp, ror #7

00003dfc <l3706>:
    3dfc:	e59fc000 	ldr	ip, [pc]	; 3e04 <l3708>

00003e00 <l3707>:
    3e00:	ea000000 	b	3e08 <l3709>

00003e04 <l3708>:
    3e04:	000fffdc 	.word	0x000fffdc

00003e08 <l3709>:
    3e08:	914c109a 	swpbls	r1, sl, [ip]

00003e0c <l3710>:
    3e0c:	82b6aa13 	adcshi	sl, r6, #77824	; 0x13000

00003e10 <interrupt_934>:
    3e10:	e3a08006 	mov	r8, #6

00003e14 <l3712>:
    3e14:	d11de0b8 	ldrhle	lr, [sp, -r8]

00003e18 <l3713>:
    3e18:	00279063 	eoreq	r9, r7, r3, rrx

00003e1c <l3714>:
    3e1c:	6152078a 	cmpvs	r2, sl, lsl #15

00003e20 <l3715>:
    3e20:	71e0e007 	mvnvc	lr, r7

00003e24 <l3716>:
    3e24:	b06c9871 	rsblt	r9, ip, r1, ror r8

00003e28 <l3717>:
    3e28:	e3a03004 	mov	r3, #4

00003e2c <interrupt_406>:
    3e2c:	e10d20b3 	strh	r2, [sp, -r3]

00003e30 <l3719>:
    3e30:	c3a08e7f 	movgt	r8, #2032	; 0x7f0

00003e34 <l3720>:
    3e34:	e83d5400 	ldmda	sp!, {sl, ip, lr}

00003e38 <interrupt_681>:
    3e38:	b3160bef 	tstlt	r6, #244736	; 0x3bc00

00003e3c <l3722>:
    3e3c:	e8ad0088 	stmia	sp!, {r3, r7}

00003e40 <l3723>:
    3e40:	e9bd0020 	ldmib	sp!, {r5}

00003e44 <l3724>:
    3e44:	554d6006 	strbpl	r6, [sp, #-6]

00003e48 <interrupt_332>:
    3e48:	e3a0802a 	mov	r8, #42	; 0x2a

00003e4c <l3726>:
    3e4c:	618d00b8 	strhvs	r0, [sp, r8]

00003e50 <l3727>:
    3e50:	e16f6f1c 	clz	r6, ip

00003e54 <l3728>:
    3e54:	e06a8001 	rsb	r8, sl, r1

00003e58 <interrupt_382>:
    3e58:	e3a0202c 	mov	r2, #44	; 0x2c

00003e5c <l3730>:
    3e5c:	e7dd0002 	ldrb	r0, [sp, r2]

00003e60 <l3731>:
    3e60:	e1ddc1de 	ldrsb	ip, [sp, #30]

00003e64 <interrupt_866>:
    3e64:	788d5209 	stmvc	sp, {r0, r3, r9, ip, lr}

00003e68 <l3733>:
    3e68:	b2d7b4cb 	sbcslt	fp, r7, #-889192448	; 0xcb000000

00003e6c <l3734>:
    3e6c:	e243a26d 	sub	sl, r3, #-805306362	; 0xd0000006

00003e70 <l3735>:
    3e70:	80feae12 	rscshi	sl, lr, r2, lsl lr

00003e74 <l3736>:
    3e74:	e3a03004 	mov	r3, #4

00003e78 <l3737>:
    3e78:	474d2003 	strbmi	r2, [sp, -r3]

00003e7c <l3738>:
    3e7c:	c375026f 	cmngt	r5, #-268435450	; 0xf0000006

00003e80 <interrupt_307>:
    3e80:	e3e04a0a 	mvn	r4, #40960	; 0xa000

00003e84 <l3740>:
    3e84:	11ca4678 	bicne	r4, sl, r8, ror r6

00003e88 <l3741>:
    3e88:	d1e0e06e 	mvnle	lr, lr, rrx

00003e8c <l3742>:
    3e8c:	e2d98636 	sbcs	r8, r9, #56623104	; 0x3600000

00003e90 <l3743>:
    3e90:	d01a27e5 	andsle	r2, sl, r5, ror #15

00003e94 <l3744>:
    3e94:	e0b3610e 	adcs	r6, r3, lr, lsl #2

00003e98 <l3745>:
    3e98:	a1720633 	cmnge	r2, r3, lsr r6

00003e9c <l3746>:
    3e9c:	724f921a 	subvc	r9, pc, #-1610612735	; 0xa0000001

00003ea0 <l3747>:
    3ea0:	e3ce8024 	bic	r8, lr, #36	; 0x24

00003ea4 <l3748>:
    3ea4:	c3740239 	cmngt	r4, #-1879048189	; 0x90000003

00003ea8 <l3749>:
    3ea8:	258db000 	strcs	fp, [sp]

00003eac <interrupt_549>:
    3eac:	217f0008 	cmncs	pc, r8

00003eb0 <l3751>:
    3eb0:	e20995ef 	and	r9, r9, #1002438656	; 0x3bc00000

00003eb4 <l3752>:
    3eb4:	e3a06014 	mov	r6, #20

00003eb8 <l3753>:
    3eb8:	b70d9006 	strlt	r9, [sp, -r6]

00003ebc <l3754>:
    3ebc:	e3a02010 	mov	r2, #16

00003ec0 <l3755>:
    3ec0:	b11de0b2 	ldrhlt	lr, [sp, -r2]

00003ec4 <l3756>:
    3ec4:	15dd0003 	ldrbne	r0, [sp, #3]

00003ec8 <l3757>:
    3ec8:	ea000002 	b	3ed8 <l3761>

00003ecc <l3758>:
    3ecc:	909c276c 	addsls	r2, ip, ip, ror #14

00003ed0 <l3759>:
    3ed0:	e1580c15 	cmp	r8, r5, lsl ip

00003ed4 <interrupt_548>:
    3ed4:	707cb00f 	rsbsvc	fp, ip, pc

00003ed8 <l3761>:
    3ed8:	c176000e 	cmngt	r6, lr

00003edc <interrupt_630>:
    3edc:	d047a065 	suble	sl, r7, r5, rrx

00003ee0 <l3763>:
    3ee0:	41b06008 	movsmi	r6, r8

00003ee4 <l3764>:
    3ee4:	e15d11f6 	ldrsh	r1, [sp, #-22]	; 0xffffffea

00003ee8 <l3765>:
    3ee8:	81c7900c 	bichi	r9, r7, ip

00003eec <l3766>:
    3eec:	e90d0584 	stmdb	sp, {r2, r7, r8, sl}

00003ef0 <l3767>:
    3ef0:	d16f3f1c 	clzle	r3, ip

00003ef4 <l3768>:
    3ef4:	e03b185c 	eors	r1, fp, ip, asr r8

00003ef8 <l3769>:
    3ef8:	53e00039 	mvnpl	r0, #57	; 0x39

00003efc <interrupt_170>:
    3efc:	016f7f16 	clzeq	r7, r6

00003f00 <l3771>:
    3f00:	81a08516 	lslhi	r8, r6, r5

00003f04 <interrupt_718>:
    3f04:	d1320062 	teqle	r2, r2, rrx

00003f08 <l3773>:
    3f08:	e59f3000 	ldr	r3, [pc]	; 3f10 <l3775>

00003f0c <l3774>:
    3f0c:	ea000000 	b	3f14 <l3776>

00003f10 <l3775>:
    3f10:	000fffa0 	.word	0x000fffa0

00003f14 <l3776>:
    3f14:	e1439090 	swpb	r9, r0, [r3]

00003f18 <l3777>:
    3f18:	ea000006 	b	3f38 <interrupt_818>

00003f1c <interrupt_299>:
    3f1c:	e2801085 	add	r1, r0, #133	; 0x85

00003f20 <l3779>:
    3f20:	b0fba35a 	rscslt	sl, fp, sl, asr r3

00003f24 <l3780>:
    3f24:	e1390950 	teq	r9, r0, asr r9

00003f28 <l3781>:
    3f28:	e1310e78 	teq	r1, r8, ror lr

00003f2c <l3782>:
    3f2c:	e0ccb1cb 	sbc	fp, ip, fp, asr #3

00003f30 <l3783>:
    3f30:	41f04c1b 	mvnsmi	r4, fp, lsl ip

00003f34 <l3784>:
    3f34:	ea000000 	b	3f3c <l3786>

00003f38 <interrupt_818>:
    3f38:	eafffff8 	b	3f20 <l3779>

00003f3c <l3786>:
    3f3c:	51750d04 	cmnpl	r5, r4, lsl #26

00003f40 <l3787>:
    3f40:	b050b00a 	subslt	fp, r0, sl

00003f44 <l3788>:
    3f44:	ef8927fa 	svc	0x008927fa

00003f48 <l3789>:
    3f48:	e04306af 	sub	r0, r3, pc, lsr #13

00003f4c <l3790>:
    3f4c:	e3a07010 	mov	r7, #16

00003f50 <l3791>:
    3f50:	e19d80b7 	ldrh	r8, [sp, r7]

00003f54 <l3792>:
    3f54:	e37201d6 	cmn	r2, #-2147483595	; 0x80000035

00003f58 <l3793>:
    3f58:	e49d4008 	ldr	r4, [sp], #8

00003f5c <l3794>:
    3f5c:	454de00e 	strbmi	lr, [sp, #-14]

00003f60 <l3795>:
    3f60:	e059a068 	subs	sl, r9, r8, rrx

00003f64 <l3796>:
    3f64:	e59f7000 	ldr	r7, [pc]	; 3f6c <l3798>

00003f68 <l3797>:
    3f68:	ea000000 	b	3f70 <l3799>

00003f6c <l3798>:
    3f6c:	000fffa0 	.word	0x000fffa0

00003f70 <l3799>:
    3f70:	e1473099 	swpb	r3, r9, [r7]

00003f74 <interrupt_498>:
    3f74:	e9ada000 	stmib	sp!, {sp, pc}

00003f78 <l3801>:
    3f78:	e3a04008 	mov	r4, #8

00003f7c <l3802>:
    3f7c:	e69db004 	ldr	fp, [sp], r4

00003f80 <l3803>:
    3f80:	e3a08014 	mov	r8, #20

00003f84 <l3804>:
    3f84:	e68d4008 	str	r4, [sp], r8

00003f88 <l3805>:
    3f88:	50a9a001 	adcpl	sl, r9, r1

00003f8c <l3806>:
    3f8c:	e55d6029 	ldrb	r6, [sp, #-41]	; 0x29

00003f90 <interrupt_745>:
    3f90:	e3a0402c 	mov	r4, #44	; 0x2c

00003f94 <l3808>:
    3f94:	e10d00b4 	strh	r0, [sp, -r4]

00003f98 <interrupt_139>:
    3f98:	e59fb000 	ldr	fp, [pc]	; 3fa0 <interrupt_313>

00003f9c <l3810>:
    3f9c:	ea000000 	b	3fa4 <interrupt_193>

00003fa0 <interrupt_313>:
    3fa0:	000fffe4 	.word	0x000fffe4

00003fa4 <interrupt_193>:
    3fa4:	e14b4090 	swpb	r4, r0, [fp]

00003fa8 <l3813>:
    3fa8:	71580064 	cmpvc	r8, r4, rrx

00003fac <interrupt_226>:
    3fac:	e90df7d9 	stmdb	sp, {r0, r3, r4, r6, r7, r8, r9, sl, ip, sp, lr, pc}

00003fb0 <l3815>:
    3fb0:	20be3419 	adcscs	r3, lr, r9, lsl r4

00003fb4 <l3816>:
    3fb4:	c3e05612 	mvngt	r5, #18874368	; 0x1200000

00003fb8 <l3817>:
    3fb8:	e1a00000 	nop			; (mov r0, r0)

00003fbc <l3818>:
    3fbc:	e16f1f10 	clz	r1, r0

00003fc0 <l3819>:
    3fc0:	41f07004 	mvnsmi	r7, r4

00003fc4 <l3820>:
    3fc4:	11b00888 	lslsne	r0, r8, #17

00003fc8 <l3821>:
    3fc8:	e062b323 	rsb	fp, r2, r3, lsr #6

00003fcc <l3822>:
    3fcc:	b0779760 	rsbslt	r9, r7, r0, ror #14

00003fd0 <l3823>:
    3fd0:	e042106f 	sub	r1, r2, pc, rrx

00003fd4 <l3824>:
    3fd4:	e59f7000 	ldr	r7, [pc]	; 3fdc <l3826>

00003fd8 <interrupt_84>:
    3fd8:	ea000000 	b	3fe0 <interrupt_743>

00003fdc <l3826>:
    3fdc:	000fffac 	.word	0x000fffac

00003fe0 <interrupt_743>:
    3fe0:	e1475092 	swpb	r5, r2, [r7]

00003fe4 <l3828>:
    3fe4:	e3a0002f 	mov	r0, #47	; 0x2f

00003fe8 <l3829>:
    3fe8:	911d70d0 	ldrsbls	r7, [sp, -r0]

00003fec <interrupt_808>:
    3fec:	5057600b 	subspl	r6, r7, fp

00003ff0 <l3831>:
    3ff0:	e50d3014 	str	r3, [sp, #-20]

00003ff4 <l3832>:
    3ff4:	e1a0906e 	rrx	r9, lr

00003ff8 <interrupt_228>:
    3ff8:	615d90f2 	ldrshvs	r9, [sp, #-2]

00003ffc <l3834>:
    3ffc:	e3a03022 	mov	r3, #34	; 0x22

00004000 <l3835>:
    4000:	e10d60b3 	strh	r6, [sp, -r3]

00004004 <l3836>:
    4004:	e59f3000 	ldr	r3, [pc]	; 400c <l3838>

00004008 <l3837>:
    4008:	ea000000 	b	4010 <l3839>

0000400c <l3838>:
    400c:	000fffe4 	.word	0x000fffe4

00004010 <l3839>:
    4010:	1103509b 	swpne	r5, fp, [r3]

00004014 <l3840>:
    4014:	ef092b89 	svc	0x00092b89

00004018 <l3841>:
    4018:	92122f5e 	andsls	r2, r2, #376	; 0x178

0000401c <l3842>:
    401c:	53c057da 	bicpl	r5, r0, #57147392	; 0x3680000

00004020 <l3843>:
    4020:	e1130a35 	tst	r3, r5, lsr sl

00004024 <l3844>:
    4024:	955d0034 	ldrbls	r0, [sp, #-52]	; 0x34

00004028 <l3845>:
    4028:	6084c00f 	addvs	ip, r4, pc

0000402c <l3846>:
    402c:	ea000000 	b	4034 <l3848>

00004030 <l3847>:
    4030:	31964305 	orrscc	r4, r6, r5, lsl #6

00004034 <l3848>:
    4034:	e3a0cb7b 	mov	ip, #125952	; 0x1ec00

00004038 <l3849>:
    4038:	8044328e 	subhi	r3, r4, lr, lsl #5

0000403c <interrupt_342>:
    403c:	e59f4000 	ldr	r4, [pc]	; 4044 <l3852>

00004040 <l3851>:
    4040:	ea000000 	b	4048 <l3853>

00004044 <l3852>:
    4044:	000fffc0 	.word	0x000fffc0

00004048 <l3853>:
    4048:	1144b098 	swpbne	fp, r8, [r4]

0000404c <l3854>:
    404c:	e15a0003 	cmp	sl, r3

00004050 <l3855>:
    4050:	81c1c1cc 	bichi	ip, r1, ip, asr #3

00004054 <l3856>:
    4054:	e11a0003 	tst	sl, r3

00004058 <l3857>:
    4058:	e3a0103c 	mov	r1, #60	; 0x3c

0000405c <l3858>:
    405c:	e11d60b1 	ldrh	r6, [sp, -r1]

00004060 <l3859>:
    4060:	00e71d66 	rsceq	r1, r7, r6, ror #26

00004064 <l3860>:
    4064:	655d2004 	ldrbvs	r2, [sp, #-4]

00004068 <interrupt_346>:
    4068:	22af8a15 	adccs	r8, pc, #86016	; 0x15000

0000406c <l3862>:
    406c:	e3a0a00c 	mov	sl, #12

00004070 <l3863>:
    4070:	b11da0ba 	ldrhlt	sl, [sp, -sl]

00004074 <interrupt_798>:
    4074:	e51de018 	ldr	lr, [sp, #-24]

00004078 <l3865>:
    4078:	2039b451 	eorscs	fp, r9, r1, asr r4

0000407c <l3866>:
    407c:	e50db008 	str	fp, [sp, #-8]

00004080 <l3867>:
    4080:	e16fef1b 	clz	lr, fp

00004084 <interrupt_258>:
    4084:	71cf4fe8 	bicvc	r4, pc, r8, ror #31

00004088 <interrupt_578>:
    4088:	e59f9000 	ldr	r9, [pc]	; 4090 <l3871>

0000408c <l3870>:
    408c:	ea000000 	b	4094 <l3872>

00004090 <l3871>:
    4090:	000fffbc 	.word	0x000fffbc

00004094 <l3872>:
    4094:	a109709a 	swpge	r7, sl, [r9]

00004098 <l3873>:
    4098:	e3a0300c 	mov	r3, #12

0000409c <interrupt_859>:
    409c:	871dc003 	ldrhi	ip, [sp, -r3]

000040a0 <l3875>:
    40a0:	e3740074 	cmn	r4, #116	; 0x74

000040a4 <l3876>:
    40a4:	b14d32b6 	strhlt	r3, [sp, #-38]	; 0xffffffda

000040a8 <l3877>:
    40a8:	52505d5e 	subspl	r5, r0, #6016	; 0x1780

000040ac <l3878>:
    40ac:	91b0a06b 	rrxsls	sl, fp

000040b0 <l3879>:
    40b0:	e59f5000 	ldr	r5, [pc]	; 40b8 <l3881>

000040b4 <l3880>:
    40b4:	ea000000 	b	40bc <l3882>

000040b8 <l3881>:
    40b8:	000fffe4 	.word	0x000fffe4

000040bc <l3882>:
    40bc:	b1057094 	swplt	r7, r4, [r5]

000040c0 <l3883>:
    40c0:	ef78f55f 	svc	0x0078f55f

000040c4 <l3884>:
    40c4:	e1a04066 	rrx	r4, r6

000040c8 <l3885>:
    40c8:	62b190e4 	adcsvs	r9, r1, #228	; 0xe4

000040cc <l3886>:
    40cc:	e1a00000 	nop			; (mov r0, r0)

000040d0 <interrupt_306>:
    40d0:	e092cc15 	adds	ip, r2, r5, lsl ip

000040d4 <interrupt_456>:
    40d4:	b1899389 	orrlt	r9, r9, r9, lsl #7

000040d8 <l3889>:
    40d8:	e3a06018 	mov	r6, #24

000040dc <l3890>:
    40dc:	870d5006 	strhi	r5, [sp, -r6]

000040e0 <l3891>:
    40e0:	b073a002 	rsbslt	sl, r3, r2

000040e4 <l3892>:
    40e4:	e59f8000 	ldr	r8, [pc]	; 40ec <l3894>

000040e8 <l3893>:
    40e8:	ea000000 	b	40f0 <l3895>

000040ec <l3894>:
    40ec:	000fffc0 	.word	0x000fffc0

000040f0 <l3895>:
    40f0:	e148c097 	swpb	ip, r7, [r8]

000040f4 <l3896>:
    40f4:	e59f1000 	ldr	r1, [pc]	; 40fc <l3898>

000040f8 <l3897>:
    40f8:	ea000000 	b	4100 <l3899>

000040fc <l3898>:
    40fc:	000fffa8 	.word	0x000fffa8

00004100 <l3899>:
    4100:	e1413095 	swpb	r3, r5, [r1]

00004104 <l3900>:
    4104:	e59f6000 	ldr	r6, [pc]	; 410c <l3902>

00004108 <l3901>:
    4108:	ea000000 	b	4110 <l3903>

0000410c <l3902>:
    410c:	000fffd8 	.word	0x000fffd8

00004110 <l3903>:
    4110:	e146309b 	swpb	r3, fp, [r6]

00004114 <l3904>:
    4114:	e1a00000 	nop			; (mov r0, r0)

00004118 <l3905>:
    4118:	efc6966c 	svc	0x00c6966c

0000411c <l3906>:
    411c:	e0e2a001 	rsc	sl, r2, r1

00004120 <l3907>:
    4120:	e1a00000 	nop			; (mov r0, r0)

00004124 <l3908>:
    4124:	e16f1f10 	clz	r1, r0

00004128 <l3909>:
    4128:	52722bfb 	rsbspl	r2, r2, #257024	; 0x3ec00

0000412c <l3910>:
    412c:	e3a01004 	mov	r1, #4

00004130 <l3911>:
    4130:	e73dc001 	ldr	ip, [sp, -r1]!

00004134 <l3912>:
    4134:	ef928532 	svc	0x00928532

00004138 <l3913>:
    4138:	e3a04e63 	mov	r4, #1584	; 0x630

0000413c <l3914>:
    413c:	e0e1e060 	rsc	lr, r1, r0, rrx

00004140 <interrupt_497>:
    4140:	c33f0032 	teqgt	pc, #50	; 0x32

00004144 <l3916>:
    4144:	e3a0c00e 	mov	ip, #14

00004148 <l3917>:
    4148:	e10dc0bc 	strh	ip, [sp, -ip]

0000414c <l3918>:
    414c:	e3b0c43a 	movs	ip, #973078528	; 0x3a000000

00004150 <l3919>:
    4150:	e0b4200e 	adcs	r2, r4, lr

00004154 <l3920>:
    4154:	ef5ecd19 	svc	0x005ecd19

00004158 <l3921>:
    4158:	c036e00f 	eorsgt	lr, r6, pc

0000415c <l3922>:
    415c:	ea000005 	b	4178 <l3929>

00004160 <l3923>:
    4160:	e37f0a4f 	cmn	pc, #323584	; 0x4f000

00004164 <l3924>:
    4164:	e01b4249 	ands	r4, fp, r9, asr #4

00004168 <l3925>:
    4168:	e1a04005 	mov	r4, r5

0000416c <l3926>:
    416c:	e0d6b004 	sbcs	fp, r6, r4

00004170 <l3927>:
    4170:	e1f0c153 	mvns	ip, r3, asr r1

00004174 <interrupt_133>:
    4174:	c3937c1e 	orrsgt	r7, r3, #7680	; 0x1e00

00004178 <l3929>:
    4178:	e0646ec3 	rsb	r6, r4, r3, asr #29

0000417c <l3930>:
    417c:	1196b008 	orrsne	fp, r6, r8

00004180 <l3931>:
    4180:	591d1202 	ldmdbpl	sp, {r1, r9, ip}

00004184 <l3932>:
    4184:	60d2000a 	sbcsvs	r0, r2, sl

00004188 <l3933>:
    4188:	e0e7800a 	rsc	r8, r7, sl

0000418c <l3934>:
    418c:	e33e0265 	teq	lr, #1342177286	; 0x50000006

00004190 <l3935>:
    4190:	e09b9c01 	adds	r9, fp, r1, lsl #24

00004194 <l3936>:
    4194:	ea000004 	b	41ac <l3942>

00004198 <l3937>:
    4198:	e28010e3 	add	r1, r0, #227	; 0xe3

0000419c <interrupt_588>:
    419c:	e3310038 	teq	r1, #56	; 0x38

000041a0 <l3939>:
    41a0:	9079306e 	rsbsls	r3, r9, lr, rrx

000041a4 <l3940>:
    41a4:	e3790ad9 	cmn	r9, #888832	; 0xd9000

000041a8 <interrupt_185>:
    41a8:	ea000000 	b	41b0 <l3943>

000041ac <l3942>:
    41ac:	eafffffa 	b	419c <interrupt_588>

000041b0 <l3943>:
    41b0:	e3a0800e 	mov	r8, #14

000041b4 <l3944>:
    41b4:	311d90b8 	ldrhcc	r9, [sp, -r8]

000041b8 <l3945>:
    41b8:	61e05069 	mvnvs	r5, r9, rrx

000041bc <interrupt_7>:
    41bc:	10d2518c 	sbcsne	r5, r2, ip, lsl #3

000041c0 <l3947>:
    41c0:	e3a0a003 	mov	sl, #3

000041c4 <l3948>:
    41c4:	e19da0da 	ldrsb	sl, [sp, sl]

000041c8 <l3949>:
    41c8:	e54d202e 	strb	r2, [sp, #-46]	; 0x2e

000041cc <l3950>:
    41cc:	e1a00000 	nop			; (mov r0, r0)

000041d0 <l3951>:
    41d0:	d0f21000 	rscsle	r1, r2, r0

000041d4 <l3952>:
    41d4:	ef8829e0 	svc	0x008829e0

000041d8 <l3953>:
    41d8:	e8ad0800 	stmia	sp!, {fp}

000041dc <interrupt_220>:
    41dc:	e15a042b 	cmp	sl, fp, lsr #8

000041e0 <l3955>:
    41e0:	e13c006b 	teq	ip, fp, rrx

000041e4 <interrupt_459>:
    41e4:	00c8a002 	sbceq	sl, r8, r2

000041e8 <l3957>:
    41e8:	e03ca008 	eors	sl, ip, r8

000041ec <l3958>:
    41ec:	30eb800c 	rsccc	r8, fp, ip

000041f0 <l3959>:
    41f0:	e41da040 	ldr	sl, [sp], #-64	; 0x40

000041f4 <l3960>:
    41f4:	e51d3008 	ldr	r3, [sp, #-8]

000041f8 <l3961>:
    41f8:	b05c343a 	subslt	r3, ip, sl, lsr r4

000041fc <l3962>:
    41fc:	20a93004 	adccs	r3, r9, r4

00004200 <interrupt_647>:
    4200:	ef48b82f 	svc	0x0048b82f

00004204 <l3964>:
    4204:	e1df8889 	bics	r8, pc, r9, lsl #17

00004208 <interrupt_768>:
    4208:	e1a00000 	nop			; (mov r0, r0)

0000420c <interrupt_883>:
    420c:	d17c000a 	cmnle	ip, sl

00004210 <l3967>:
    4210:	e5dd801a 	ldrb	r8, [sp, #26]

00004214 <l3968>:
    4214:	e17c0226 	cmn	ip, r6, lsr #4

00004218 <l3969>:
    4218:	e98dfc98 	stmib	sp, {r3, r4, r7, sl, fp, ip, sp, lr, pc}

0000421c <interrupt_304>:
    421c:	e59f5000 	ldr	r5, [pc]	; 4224 <l3972>

00004220 <interrupt_868>:
    4220:	ea000000 	b	4228 <l3973>

00004224 <l3972>:
    4224:	000fffa8 	.word	0x000fffa8

00004228 <l3973>:
    4228:	a1450090 	swpbge	r0, r0, [r5]

0000422c <l3974>:
    422c:	e1330007 	teq	r3, r7

00004230 <l3975>:
    4230:	b1390c5c 	teqlt	r9, ip, asr ip

00004234 <l3976>:
    4234:	e371012f 	cmn	r1, #-1073741813	; 0xc000000b

00004238 <l3977>:
    4238:	618ecfc7 	orrvs	ip, lr, r7, asr #31

0000423c <interrupt_252>:
    423c:	40242e53 	eormi	r2, r4, r3, asr lr

00004240 <l3979>:
    4240:	3affffff 	bcc	4244 <l3980>

00004244 <l3980>:
    4244:	e2c231e6 	sbc	r3, r2, #-2147483591	; 0x80000039

00004248 <l3981>:
    4248:	e09fa66e 	adds	sl, pc, lr, ror #12

0000424c <l3982>:
    424c:	e3a0001c 	mov	r0, #28

00004250 <l3983>:
    4250:	e19d40d0 	ldrsb	r4, [sp, r0]

00004254 <l3984>:
    4254:	e2f810ee 	rscs	r1, r8, #238	; 0xee

00004258 <interrupt_937>:
    4258:	0a000005 	beq	4274 <l3992>

0000425c <interrupt_39>:
    425c:	e28010c8 	add	r1, r0, #200	; 0xc8

00004260 <l3987>:
    4260:	11700008 	cmnne	r0, r8

00004264 <l3988>:
    4264:	024e8e2a 	subeq	r8, lr, #672	; 0x2a0

00004268 <l3989>:
    4268:	e290edd6 	adds	lr, r0, #13696	; 0x3580

0000426c <l3990>:
    426c:	e0a70438 	adc	r0, r7, r8, lsr r4

00004270 <l3991>:
    4270:	ea000000 	b	4278 <interrupt_577>

00004274 <l3992>:
    4274:	eafffff9 	b	4260 <l3987>

00004278 <interrupt_577>:
    4278:	d1360063 	teqle	r6, r3, rrx

0000427c <l3994>:
    427c:	e119000c 	tst	r9, ip

00004280 <l3995>:
    4280:	e59fe000 	ldr	lr, [pc]	; 4288 <interrupt_521>

00004284 <l3996>:
    4284:	ea000000 	b	428c <l3998>

00004288 <interrupt_521>:
    4288:	000fffd8 	.word	0x000fffd8

0000428c <l3998>:
    428c:	b10e909a 	swplt	r9, sl, [lr]

00004290 <l3999>:
    4290:	b1ddc2b2 	ldrhlt	ip, [sp, #34]	; 0x22

00004294 <l4000>:
    4294:	016f0f1a 	clzeq	r0, sl

00004298 <l4001>:
    4298:	e3120d25 	tst	r2, #2368	; 0x940

0000429c <l4002>:
    429c:	21390f4c 	teqcs	r9, ip, asr #30

000042a0 <l4003>:
    42a0:	ef723409 	svc	0x00723409

000042a4 <l4004>:
    42a4:	e16faf11 	clz	sl, r1

000042a8 <l4005>:
    42a8:	805ce052 	subshi	lr, ip, r2, asr r0

000042ac <l4006>:
    42ac:	c33b06ea 	teqgt	fp, #245366784	; 0xea00000

000042b0 <l4007>:
    42b0:	ef0b7a78 	svc	0x000b7a78

000042b4 <l4008>:
    42b4:	d1550008 	cmple	r5, r8

000042b8 <l4009>:
    42b8:	ea000007 	b	42dc <l4018>

000042bc <l4010>:
    42bc:	e280108d 	add	r1, r0, #141	; 0x8d

000042c0 <l4011>:
    42c0:	e082600a 	add	r6, r2, sl

000042c4 <l4012>:
    42c4:	6191e005 	orrsvs	lr, r1, r5

000042c8 <interrupt_182>:
    42c8:	e2c7e23f 	sbc	lr, r7, #-268435453	; 0xf0000003

000042cc <interrupt_500>:
    42cc:	e200290f 	and	r2, r0, #245760	; 0x3c000

000042d0 <interrupt_553>:
    42d0:	e0f5200c 	rscs	r2, r5, ip

000042d4 <interrupt_103>:
    42d4:	e079c066 	rsbs	ip, r9, r6, rrx

000042d8 <l4017>:
    42d8:	ea000000 	b	42e0 <l4019>

000042dc <l4018>:
    42dc:	eafffff7 	b	42c0 <l4011>

000042e0 <l4019>:
    42e0:	e58d000c 	str	r0, [sp, #12]

000042e4 <l4020>:
    42e4:	003aac36 	eorseq	sl, sl, r6, lsr ip

000042e8 <interrupt_42>:
    42e8:	efffc518 	svc	0x00ffc518

000042ec <l4022>:
    42ec:	3232a629 	eorscc	sl, r2, #42991616	; 0x2900000

000042f0 <l4023>:
    42f0:	e1a00000 	nop			; (mov r0, r0)

000042f4 <l4024>:
    42f4:	315f0621 	cmpcc	pc, r1, lsr #12

000042f8 <interrupt_496>:
    42f8:	6134067e 	teqvs	r4, lr, ror r6

000042fc <l4026>:
    42fc:	31b07007 	movscc	r7, r7

00004300 <l4027>:
    4300:	e59f1000 	ldr	r1, [pc]	; 4308 <l4029>

00004304 <l4028>:
    4304:	ea000000 	b	430c <interrupt_91>

00004308 <l4029>:
    4308:	000fffcc 	.word	0x000fffcc

0000430c <interrupt_91>:
    430c:	e1015092 	swp	r5, r2, [r1]

00004310 <l4031>:
    4310:	efc1a37c 	svc	0x00c1a37c

00004314 <l4032>:
    4314:	e3a0002d 	mov	r0, #45	; 0x2d

00004318 <l4033>:
    4318:	e7cd3000 	strb	r3, [sp, r0]

0000431c <l4034>:
    431c:	e3a0600c 	mov	r6, #12

00004320 <l4035>:
    4320:	819dc0f6 	ldrshhi	ip, [sp, r6]

00004324 <l4036>:
    4324:	e3a0902c 	mov	r9, #44	; 0x2c

00004328 <interrupt_517>:
    4328:	e79d6009 	ldr	r6, [sp, r9]

0000432c <l4038>:
    432c:	c04415a2 	subgt	r1, r4, r2, lsr #11

00004330 <interrupt_609>:
    4330:	70030001 	andvc	r0, r3, r1

00004334 <l4040>:
    4334:	61b026ca 	asrsvs	r2, sl, #13

00004338 <l4041>:
    4338:	a17a0fab 	cmnge	sl, fp, lsr #31

0000433c <interrupt_129>:
    433c:	e1ddb3df 	ldrsb	fp, [sp, #63]	; 0x3f

00004340 <l4043>:
    4340:	61b0e064 	rrxsvs	lr, r4

00004344 <interrupt_676>:
    4344:	e030e750 	eors	lr, r0, r0, asr r7

00004348 <l4045>:
    4348:	e1e0241b 	mvn	r2, fp, lsl r4

0000434c <l4046>:
    434c:	201f86cb 	andscs	r8, pc, fp, asr #13

00004350 <l4047>:
    4350:	e59f2000 	ldr	r2, [pc]	; 4358 <l4049>

00004354 <l4048>:
    4354:	ea000000 	b	435c <l4050>

00004358 <l4049>:
    4358:	000fffb8 	.word	0x000fffb8

0000435c <l4050>:
    435c:	51021099 	swppl	r1, r9, [r2]

00004360 <l4051>:
    4360:	e3a0403a 	mov	r4, #58	; 0x3a

00004364 <l4052>:
    4364:	418d10b4 	strhmi	r1, [sp, r4]

00004368 <l4053>:
    4368:	119f16e3 	orrsne	r1, pc, r3, ror #13

0000436c <l4054>:
    436c:	e13a057e 	teq	sl, lr, ror r5

00004370 <l4055>:
    4370:	e59fe000 	ldr	lr, [pc]	; 4378 <l4057>

00004374 <l4056>:
    4374:	ea000000 	b	437c <l4058>

00004378 <l4057>:
    4378:	000fffa0 	.word	0x000fffa0

0000437c <l4058>:
    437c:	e14eb09b 	swpb	fp, fp, [lr]

00004380 <l4059>:
    4380:	9069e000 	rsbls	lr, r9, r0

00004384 <interrupt_243>:
    4384:	40c82002 	sbcmi	r2, r8, r2

00004388 <l4061>:
    4388:	e5cd0007 	strb	r0, [sp, #7]

0000438c <interrupt_470>:
    438c:	ef0bc2ab 	svc	0x000bc2ab

00004390 <l4063>:
    4390:	51590005 	cmppl	r9, r5

00004394 <interrupt_416>:
    4394:	e07f5069 	rsbs	r5, pc, r9, rrx

00004398 <interrupt_776>:
    4398:	ea000008 	b	43c0 <l4075>

0000439c <l4066>:
    439c:	0024a00f 	eoreq	sl, r4, pc

000043a0 <l4067>:
    43a0:	5012403c 	andspl	r4, r2, ip, lsr r0

000043a4 <l4068>:
    43a4:	e3899f57 	orr	r9, r9, #348	; 0x15c

000043a8 <interrupt_208>:
    43a8:	2095b00a 	addscs	fp, r5, sl

000043ac <l4070>:
    43ac:	e0393905 	eors	r3, r9, r5, lsl #18

000043b0 <l4071>:
    43b0:	c083c7e3 	addgt	ip, r3, r3, ror #15

000043b4 <l4072>:
    43b4:	91977f65 	orrsls	r7, r7, r5, ror #30

000043b8 <l4073>:
    43b8:	e3a0792b 	mov	r7, #704512	; 0xac000

000043bc <l4074>:
    43bc:	e16f5f10 	clz	r5, r0

000043c0 <l4075>:
    43c0:	e050a739 	subs	sl, r0, r9, lsr r7

000043c4 <interrupt_787>:
    43c4:	50b0514a 	adcspl	r5, r0, sl, asr #2

000043c8 <l4077>:
    43c8:	e2047a21 	and	r7, r4, #135168	; 0x21000

000043cc <interrupt_591>:
    43cc:	11580522 	cmpne	r8, r2, lsr #10

000043d0 <l4079>:
    43d0:	e3a06040 	mov	r6, #64	; 0x40

000043d4 <l4080>:
    43d4:	e69d7006 	ldr	r7, [sp], r6

000043d8 <interrupt_604>:
    43d8:	e0141002 	ands	r1, r4, r2

000043dc <l4082>:
    43dc:	e3330002 	teq	r3, #2

000043e0 <interrupt_928>:
    43e0:	e08b42eb 	add	r4, fp, fp, ror #5

000043e4 <l4084>:
    43e4:	e11c0350 	tst	ip, r0, asr r3

000043e8 <l4085>:
    43e8:	ea000006 	b	4408 <l4093>

000043ec <l4086>:
    43ec:	e2801022 	add	r1, r0, #34	; 0x22

000043f0 <l4087>:
    43f0:	90cbbdc9 	sbcls	fp, fp, r9, asr #27

000043f4 <interrupt_315>:
    43f4:	52f74a2f 	rscspl	r4, r7, #192512	; 0x2f000

000043f8 <interrupt_704>:
    43f8:	d197000c 	orrsle	r0, r7, ip

000043fc <interrupt_610>:
    43fc:	a098c006 	addsge	ip, r8, r6

00004400 <interrupt_20>:
    4400:	e11e006b 	tst	lr, fp, rrx

00004404 <l4092>:
    4404:	ea000000 	b	440c <l4094>

00004408 <l4093>:
    4408:	eafffff8 	b	43f0 <l4087>

0000440c <l4094>:
    440c:	91c87654 	bicls	r7, r8, r4, asr r6

00004410 <l4095>:
    4410:	e15d91f8 	ldrsh	r9, [sp, #-24]	; 0xffffffe8

00004414 <l4096>:
    4414:	e3a0c018 	mov	ip, #24

00004418 <l4097>:
    4418:	075dc00c 	ldrbeq	ip, [sp, -ip]

0000441c <l4098>:
    441c:	b51db024 	ldrlt	fp, [sp, #-36]	; 0x24

00004420 <l4099>:
    4420:	e3a0200e 	mov	r2, #14

00004424 <interrupt_30>:
    4424:	b11d30b2 	ldrhlt	r3, [sp, -r2]

00004428 <l4101>:
    4428:	e3a05034 	mov	r5, #52	; 0x34

0000442c <interrupt_10>:
    442c:	c10d00b5 	strhgt	r0, [sp, -r5]

00004430 <l4103>:
    4430:	850d2018 	strhi	r2, [sp, #-24]

00004434 <l4104>:
    4434:	e3a0401f 	mov	r4, #31

00004438 <interrupt_978>:
    4438:	775de004 	ldrbvc	lr, [sp, -r4]

0000443c <l4106>:
    443c:	e1a00000 	nop			; (mov r0, r0)

00004440 <l4107>:
    4440:	e59fe000 	ldr	lr, [pc]	; 4448 <l4109>

00004444 <l4108>:
    4444:	ea000000 	b	444c <l4110>

00004448 <l4109>:
    4448:	000fffd4 	.word	0x000fffd4

0000444c <l4110>:
    444c:	414ec09c 	swpbmi	ip, ip, [lr]

00004450 <interrupt_793>:
    4450:	951d1020 	ldrls	r1, [sp, #-32]

00004454 <l4112>:
    4454:	e3a0301b 	mov	r3, #27

00004458 <interrupt_250>:
    4458:	e11da0d3 	ldrsb	sl, [sp, -r3]

0000445c <l4114>:
    445c:	d15d21b2 	ldrhle	r2, [sp, #-18]	; 0xffffffee

00004460 <l4115>:
    4460:	b24c43d5 	sublt	r4, ip, #1409286147	; 0x54000003

00004464 <interrupt_218>:
    4464:	41560a1e 	cmpmi	r6, lr, lsl sl

00004468 <l4117>:
    4468:	5a000001 	bpl	4474 <l4120>

0000446c <l4118>:
    446c:	e16f5f1b 	clz	r5, fp

00004470 <interrupt_462>:
    4470:	2070300e 	rsbscs	r3, r0, lr

00004474 <l4120>:
    4474:	60e92004 	rscvs	r2, r9, r4

00004478 <l4121>:
    4478:	e25c8937 	subs	r8, ip, #901120	; 0xdc000

0000447c <l4122>:
    447c:	51d33957 	bicspl	r3, r3, r7, asr r9

00004480 <l4123>:
    4480:	e59fe000 	ldr	lr, [pc]	; 4488 <l4125>

00004484 <l4124>:
    4484:	ea000000 	b	448c <interrupt_353>

00004488 <l4125>:
    4488:	000fffb4 	.word	0x000fffb4

0000448c <interrupt_353>:
    448c:	014ec090 	swpbeq	ip, r0, [lr]

00004490 <l4127>:
    4490:	e59fa000 	ldr	sl, [pc]	; 4498 <l4129>

00004494 <l4128>:
    4494:	ea000000 	b	449c <l4130>

00004498 <l4129>:
    4498:	000fffe4 	.word	0x000fffe4

0000449c <l4130>:
    449c:	414ae096 	swpbmi	lr, r6, [sl]

000044a0 <l4131>:
    44a0:	e3a0902c 	mov	r9, #44	; 0x2c

000044a4 <interrupt_682>:
    44a4:	e75d5009 	ldrb	r5, [sp, -r9]

000044a8 <interrupt_605>:
    44a8:	e15d74b0 	ldrh	r7, [sp, #-64]	; 0xffffffc0

000044ac <interrupt_551>:
    44ac:	c0f7200e 	rscsgt	r2, r7, lr

000044b0 <l4135>:
    44b0:	71b03068 	rrxsvc	r3, r8

000044b4 <l4136>:
    44b4:	e15db1b6 	ldrh	fp, [sp, #-22]	; 0xffffffea

000044b8 <l4137>:
    44b8:	b1750001 	cmnlt	r5, r1

000044bc <l4138>:
    44bc:	72e721be 	rscvc	r2, r7, #-2147483601	; 0x8000002f

000044c0 <l4139>:
    44c0:	e1750000 	cmn	r5, r0

000044c4 <interrupt_386>:
    44c4:	a1d09005 	bicsge	r9, r0, r5

000044c8 <l4141>:
    44c8:	e3a08034 	mov	r8, #52	; 0x34

000044cc <l4142>:
    44cc:	d70d9008 	strle	r9, [sp, -r8]

000044d0 <l4143>:
    44d0:	233b081b 	teqcs	fp, #1769472	; 0x1b0000

000044d4 <l4144>:
    44d4:	550df038 	strpl	pc, [sp, #-56]	; 0x38

000044d8 <l4145>:
    44d8:	e14d70b4 	strh	r7, [sp, #-4]

000044dc <l4146>:
    44dc:	ea000002 	b	44ec <l4150>

000044e0 <l4147>:
    44e0:	e28010c0 	add	r1, r0, #192	; 0xc0

000044e4 <l4148>:
    44e4:	e0fa1002 	rscs	r1, sl, r2

000044e8 <l4149>:
    44e8:	ea000000 	b	44f0 <l4151>

000044ec <l4150>:
    44ec:	eafffffc 	b	44e4 <l4148>

000044f0 <l4151>:
    44f0:	c2ec45a2 	rscgt	r4, ip, #679477248	; 0x28800000

000044f4 <l4152>:
    44f4:	b1130e3c 	tstlt	r3, ip, lsr lr

000044f8 <l4153>:
    44f8:	0a000000 	beq	4500 <l4155>

000044fc <l4154>:
    44fc:	1058000c 	subsne	r0, r8, ip

00004500 <l4155>:
    4500:	e0118001 	ands	r8, r1, r1

00004504 <l4156>:
    4504:	a0543008 	subsge	r3, r4, r8

00004508 <l4157>:
    4508:	ef5544ec 	svc	0x005544ec

0000450c <interrupt_222>:
    450c:	8a000004 	bhi	4524 <l4164>

00004510 <l4159>:
    4510:	e2801064 	add	r1, r0, #100	; 0x64

00004514 <l4160>:
    4514:	90065009 	andls	r5, r6, r9

00004518 <l4161>:
    4518:	003b05e6 	eorseq	r0, fp, r6, ror #11

0000451c <l4162>:
    451c:	d1967b8e 	orrsle	r7, r6, lr, lsl #23

00004520 <l4163>:
    4520:	ea000000 	b	4528 <l4165>

00004524 <l4164>:
    4524:	eafffffa 	b	4514 <l4160>

00004528 <l4165>:
    4528:	e1330066 	teq	r3, r6, rrx

0000452c <l4166>:
    452c:	e59f9000 	ldr	r9, [pc]	; 4534 <l4168>

00004530 <l4167>:
    4530:	ea000000 	b	4538 <l4169>

00004534 <l4168>:
    4534:	000fffa4 	.word	0x000fffa4

00004538 <l4169>:
    4538:	e109209b 	swp	r2, fp, [r9]

0000453c <interrupt_44>:
    453c:	e19a706a 	orrs	r7, sl, sl, rrx

00004540 <l4171>:
    4540:	051de00c 	ldreq	lr, [sp, #-12]

00004544 <l4172>:
    4544:	e3a0a024 	mov	sl, #36	; 0x24

00004548 <l4173>:
    4548:	e71d600a 	ldr	r6, [sp, -sl]

0000454c <l4174>:
    454c:	e3a0c042 	mov	ip, #66	; 0x42

00004550 <l4175>:
    4550:	b11db0fc 	ldrshlt	fp, [sp, -ip]

00004554 <l4176>:
    4554:	735e016d 	cmpvc	lr, #1073741851	; 0x4000001b

00004558 <l4177>:
    4558:	d14d84b0 	strhle	r8, [sp, #-64]	; 0xffffffc0

0000455c <l4178>:
    455c:	e3a0e014 	mov	lr, #20

00004560 <l4179>:
    4560:	e60db00e 	str	fp, [sp], -lr

00004564 <l4180>:
    4564:	e93d1929 	ldmdb	sp!, {r0, r3, r5, r8, fp, ip}

00004568 <l4181>:
    4568:	e3a0400b 	mov	r4, #11

0000456c <l4182>:
    456c:	a74d5004 	strbge	r5, [sp, -r4]

00004570 <l4183>:
    4570:	95dda02f 	ldrbls	sl, [sp, #47]	; 0x2f

00004574 <l4184>:
    4574:	e16f1f14 	clz	r1, r4

00004578 <l4185>:
    4578:	43b01af6 	movsmi	r1, #1007616	; 0xf6000

0000457c <l4186>:
    457c:	e3a00010 	mov	r0, #16

00004580 <l4187>:
    4580:	e19d50b0 	ldrh	r5, [sp, r0]

00004584 <l4188>:
    4584:	ea000002 	b	4594 <l4192>

00004588 <l4189>:
    4588:	e280104d 	add	r1, r0, #77	; 0x4d

0000458c <l4190>:
    458c:	31f04148 	mvnscc	r4, r8, asr #2

00004590 <interrupt_807>:
    4590:	ea000000 	b	4598 <interrupt_92>

00004594 <l4192>:
    4594:	eafffffc 	b	458c <l4190>

00004598 <interrupt_92>:
    4598:	c58d6000 	strgt	r6, [sp]

0000459c <l4194>:
    459c:	efaf5b39 	svc	0x00af5b39

000045a0 <l4195>:
    45a0:	e83d1400 	ldmda	sp!, {sl, ip}

000045a4 <l4196>:
    45a4:	71e0a007 	mvnvc	sl, r7

000045a8 <l4197>:
    45a8:	c210709e 	andsgt	r7, r0, #158	; 0x9e

000045ac <l4198>:
    45ac:	089d409d 	ldmeq	sp, {r0, r2, r3, r4, r7, lr}

000045b0 <l4199>:
    45b0:	a1dd10d5 	ldrsbge	r1, [sp, #5]

000045b4 <l4200>:
    45b4:	d0b1c061 	adcsle	ip, r1, r1, rrx

000045b8 <l4201>:
    45b8:	50241374 	eorpl	r1, r4, r4, ror r3

000045bc <l4202>:
    45bc:	e82d0102 	stmda	sp!, {r1, r8}

000045c0 <l4203>:
    45c0:	e1a00000 	nop			; (mov r0, r0)

000045c4 <l4204>:
    45c4:	e072b779 	rsbs	fp, r2, r9, ror r7

000045c8 <interrupt_357>:
    45c8:	81e04004 	mvnhi	r4, r4

000045cc <l4206>:
    45cc:	e1dde0be 	ldrh	lr, [sp, #14]

000045d0 <interrupt_175>:
    45d0:	e59fe000 	ldr	lr, [pc]	; 45d8 <l4209>

000045d4 <l4208>:
    45d4:	ea000000 	b	45dc <interrupt_824>

000045d8 <l4209>:
    45d8:	000fffb8 	.word	0x000fffb8

000045dc <interrupt_824>:
    45dc:	b10ea095 	swplt	sl, r5, [lr]

000045e0 <l4211>:
    45e0:	e59f3000 	ldr	r3, [pc]	; 45e8 <l4213>

000045e4 <l4212>:
    45e4:	ea000000 	b	45ec <l4214>

000045e8 <l4213>:
    45e8:	000fffa4 	.word	0x000fffa4

000045ec <l4214>:
    45ec:	e1038094 	swp	r8, r4, [r3]

000045f0 <l4215>:
    45f0:	e59f8000 	ldr	r8, [pc]	; 45f8 <l4217>

000045f4 <l4216>:
    45f4:	ea000000 	b	45fc <l4218>

000045f8 <l4217>:
    45f8:	000fffbc 	.word	0x000fffbc

000045fc <l4218>:
    45fc:	e108409a 	swp	r4, sl, [r8]

00004600 <interrupt_125>:
    4600:	e3a0000b 	mov	r0, #11

00004604 <l4220>:
    4604:	111d00d0 	ldrsbne	r0, [sp, -r0]

00004608 <l4221>:
    4608:	e1750543 	cmn	r5, r3, asr #10

0000460c <l4222>:
    460c:	e59fc000 	ldr	ip, [pc]	; 4614 <l4224>

00004610 <l4223>:
    4610:	ea000000 	b	4618 <interrupt_195>

00004614 <l4224>:
    4614:	000fffd0 	.word	0x000fffd0

00004618 <interrupt_195>:
    4618:	e10c7099 	swp	r7, r9, [ip]

0000461c <interrupt_929>:
    461c:	7a000004 	bvc	4634 <l4232>

00004620 <l4227>:
    4620:	e280106b 	add	r1, r0, #107	; 0x6b

00004624 <l4228>:
    4624:	e15a0005 	cmp	sl, r5

00004628 <l4229>:
    4628:	511b0004 	tstpl	fp, r4

0000462c <l4230>:
    462c:	e0e63060 	rsc	r3, r6, r0, rrx

00004630 <l4231>:
    4630:	ea000000 	b	4638 <l4233>

00004634 <l4232>:
    4634:	eafffffa 	b	4624 <l4228>

00004638 <l4233>:
    4638:	e59f6000 	ldr	r6, [pc]	; 4640 <l4235>

0000463c <l4234>:
    463c:	ea000000 	b	4644 <l4236>

00004640 <l4235>:
    4640:	000fffd4 	.word	0x000fffd4

00004644 <l4236>:
    4644:	b146b097 	swpblt	fp, r7, [r6]

00004648 <l4237>:
    4648:	91ddb0f8 	ldrshls	fp, [sp, #8]

0000464c <interrupt_922>:
    464c:	a1e07c42 	mvnge	r7, r2, asr #24

00004650 <l4239>:
    4650:	e174083b 	cmn	r4, fp, lsr r8

00004654 <l4240>:
    4654:	ef220f45 	svc	0x00220f45

00004658 <l4241>:
    4658:	b012c061 	andslt	ip, r2, r1, rrx

0000465c <l4242>:
    465c:	e9ad4a6c 	stmib	sp!, {r2, r3, r5, r6, r9, fp, lr}

00004660 <l4243>:
    4660:	c15d22d8 	ldrsbgt	r2, [sp, #-40]	; 0xffffffd8

00004664 <l4244>:
    4664:	954d700f 	strbls	r7, [sp, #-15]

00004668 <l4245>:
    4668:	e3a00010 	mov	r0, #16

0000466c <l4246>:
    466c:	e7cdc000 	strb	ip, [sp, r0]

00004670 <l4247>:
    4670:	e00a2063 	and	r2, sl, r3, rrx

00004674 <l4248>:
    4674:	e92d1800 	push	{fp, ip}

00004678 <l4249>:
    4678:	81380002 	teqhi	r8, r2

0000467c <l4250>:
    467c:	51f0a063 	mvnspl	sl, r3, rrx

00004680 <l4251>:
    4680:	e1160c63 	tst	r6, r3, ror #24

00004684 <l4252>:
    4684:	e54da00f 	strb	sl, [sp, #-15]

00004688 <l4253>:
    4688:	e1b0450a 	lsls	r4, sl, #10

0000468c <interrupt_40>:
    468c:	e3a09012 	mov	r9, #18

00004690 <l4255>:
    4690:	e19da0d9 	ldrsb	sl, [sp, r9]

00004694 <l4256>:
    4694:	501b200f 	andspl	r2, fp, pc

00004698 <interrupt_668>:
    4698:	e92d0024 	push	{r2, r5}

0000469c <l4258>:
    469c:	e0648001 	rsb	r8, r4, r1

000046a0 <l4259>:
    46a0:	63190b33 	tstvs	r9, #52224	; 0xcc00

000046a4 <l4260>:
    46a4:	ba000006 	blt	46c4 <l4268>

000046a8 <l4261>:
    46a8:	e35f0e2a 	cmp	pc, #672	; 0x2a0

000046ac <l4262>:
    46ac:	e038a00f 	eors	sl, r8, pc

000046b0 <interrupt_473>:
    46b0:	e1750000 	cmn	r5, r0

000046b4 <interrupt_295>:
    46b4:	e197c8e6 	orrs	ip, r7, r6, ror #17

000046b8 <interrupt_642>:
    46b8:	e35f0064 	cmp	pc, #100	; 0x64

000046bc <interrupt_640>:
    46bc:	e0bb4006 	adcs	r4, fp, r6

000046c0 <interrupt_773>:
    46c0:	d00e17a7 	andle	r1, lr, r7, lsr #15

000046c4 <l4268>:
    46c4:	e1160b6c 	tst	r6, ip, ror #22

000046c8 <l4269>:
    46c8:	e1cd42bc 	strh	r4, [sp, #44]	; 0x2c

000046cc <interrupt_887>:
    46cc:	d01acb18 	andsle	ip, sl, r8, lsl fp

000046d0 <l4271>:
    46d0:	70a8ec77 	adcvc	lr, r8, r7, ror ip

000046d4 <l4272>:
    46d4:	e3a0601c 	mov	r6, #28

000046d8 <interrupt_82>:
    46d8:	c7dd9006 	ldrbgt	r9, [sp, r6]

000046dc <l4274>:
    46dc:	e0ac6160 	adc	r6, ip, r0, ror #2

000046e0 <interrupt_53>:
    46e0:	21570005 	cmpcs	r7, r5

000046e4 <l4276>:
    46e4:	e59f7000 	ldr	r7, [pc]	; 46ec <interrupt_131>

000046e8 <l4277>:
    46e8:	ea000000 	b	46f0 <interrupt_947>

000046ec <interrupt_131>:
    46ec:	000fffe0 	.word	0x000fffe0

000046f0 <interrupt_947>:
    46f0:	e1479094 	swpb	r9, r4, [r7]

000046f4 <interrupt_411>:
    46f4:	e83d0418 	ldmda	sp!, {r3, r4, sl}

000046f8 <l4281>:
    46f8:	202a7001 	eorcs	r7, sl, r1

000046fc <l4282>:
    46fc:	e3a0b028 	mov	fp, #40	; 0x28

00004700 <l4283>:
    4700:	e78d000b 	str	r0, [sp, fp]

00004704 <l4284>:
    4704:	e14d10b2 	strh	r1, [sp, #-2]

00004708 <l4285>:
    4708:	e006e557 	and	lr, r6, r7, asr r5

0000470c <l4286>:
    470c:	715e0343 	cmpvc	lr, r3, asr #6

00004710 <l4287>:
    4710:	e17303e9 	cmn	r3, r9, ror #7

00004714 <l4288>:
    4714:	811a0009 	tsthi	sl, r9

00004718 <l4289>:
    4718:	ef2ee747 	svc	0x002ee747

0000471c <interrupt_183>:
    471c:	e1550d6f 	cmp	r5, pc, ror #26

00004720 <l4291>:
    4720:	e59f4000 	ldr	r4, [pc]	; 4728 <l4293>

00004724 <l4292>:
    4724:	ea000000 	b	472c <l4294>

00004728 <l4293>:
    4728:	000fffb4 	.word	0x000fffb4

0000472c <l4294>:
    472c:	11443096 	swpbne	r3, r6, [r4]

00004730 <l4295>:
    4730:	e0d9a007 	sbcs	sl, r9, r7

00004734 <l4296>:
    4734:	e3a01032 	mov	r1, #50	; 0x32

00004738 <l4297>:
    4738:	d7dd8001 	ldrble	r8, [sp, r1]

0000473c <interrupt_678>:
    473c:	e0ac6513 	adc	r6, ip, r3, lsl r5

00004740 <l4299>:
    4740:	e29fc422 	adds	ip, pc, #570425344	; 0x22000000

00004744 <l4300>:
    4744:	e3a05034 	mov	r5, #52	; 0x34

00004748 <l4301>:
    4748:	b79d6005 	ldrlt	r6, [sp, r5]

0000474c <l4302>:
    474c:	e1f09003 	mvns	r9, r3

00004750 <interrupt_991>:
    4750:	e3a0803e 	mov	r8, #62	; 0x3e

00004754 <l4304>:
    4754:	c7dda008 	ldrbgt	sl, [sp, r8]

00004758 <l4305>:
    4758:	016faf11 	clzeq	sl, r1

0000475c <l4306>:
    475c:	e3a07008 	mov	r7, #8

00004760 <interrupt_259>:
    4760:	e69db007 	ldr	fp, [sp], r7

00004764 <interrupt_858>:
    4764:	e1d8500a 	bics	r5, r8, sl

00004768 <l4309>:
    4768:	e59f7000 	ldr	r7, [pc]	; 4770 <interrupt_939>

0000476c <interrupt_17>:
    476c:	ea000000 	b	4774 <l4312>

00004770 <interrupt_939>:
    4770:	000fffe0 	.word	0x000fffe0

00004774 <l4312>:
    4774:	a147e091 	swpbge	lr, r1, [r7]

00004778 <interrupt_475>:
    4778:	220ce025 	andcs	lr, ip, #37	; 0x25

0000477c <interrupt_526>:
    477c:	e8ad8000 	stmia	sp!, {pc}

00004780 <l4315>:
    4780:	b1e07177 	mvnlt	r7, r7, ror r1

00004784 <l4316>:
    4784:	ef61224f 	svc	0x0061224f

00004788 <l4317>:
    4788:	d1530b25 	cmple	r3, r5, lsr #22

0000478c <l4318>:
    478c:	e0e7e00f 	rsc	lr, r7, pc

00004790 <l4319>:
    4790:	41770c54 	cmnmi	r7, r4, asr ip

00004794 <l4320>:
    4794:	81190062 	tsthi	r9, r2, rrx

00004798 <l4321>:
    4798:	e59fa000 	ldr	sl, [pc]	; 47a0 <l4323>

0000479c <l4322>:
    479c:	ea000000 	b	47a4 <l4324>

000047a0 <l4323>:
    47a0:	000fffe4 	.word	0x000fffe4

000047a4 <l4324>:
    47a4:	e10a3091 	swp	r3, r1, [sl]

000047a8 <l4325>:
    47a8:	00389fa0 	eorseq	r9, r8, r0, lsr #31

000047ac <l4326>:
    47ac:	208e11aa 	addcs	r1, lr, sl, lsr #3

000047b0 <interrupt_778>:
    47b0:	a1510001 	cmpge	r1, r1

000047b4 <interrupt_916>:
    47b4:	e92d2000 	stmfd	sp!, {sp}

000047b8 <l4329>:
    47b8:	b0483281 	sublt	r3, r8, r1, lsl #5

000047bc <l4330>:
    47bc:	331a04f1 	tstcc	sl, #-251658240	; 0xf1000000

000047c0 <l4331>:
    47c0:	e3a02019 	mov	r2, #25

000047c4 <interrupt_14>:
    47c4:	e7cd5002 	strb	r5, [sp, r2]

000047c8 <l4333>:
    47c8:	ef7a74a5 	svc	0x007a74a5

000047cc <interrupt_739>:
    47cc:	c54d6004 	strbgt	r6, [sp, #-4]

000047d0 <l4335>:
    47d0:	e1510c29 	cmp	r1, r9, lsr #24

000047d4 <l4336>:
    47d4:	e0f2c005 	rscs	ip, r2, r5

000047d8 <l4337>:
    47d8:	ea000003 	b	47ec <interrupt_283>

000047dc <l4338>:
    47dc:	e2801072 	add	r1, r0, #114	; 0x72

000047e0 <l4339>:
    47e0:	61b0a812 	lslsvs	sl, r2, r8

000047e4 <l4340>:
    47e4:	a0336433 	eorsge	r6, r3, r3, lsr r4

000047e8 <l4341>:
    47e8:	ea000000 	b	47f0 <interrupt_25>

000047ec <interrupt_283>:
    47ec:	eafffffb 	b	47e0 <l4339>

000047f0 <interrupt_25>:
    47f0:	ea000000 	b	47f8 <l4345>

000047f4 <l4344>:
    47f4:	e1db3008 	bics	r3, fp, r8

000047f8 <l4345>:
    47f8:	30db7068 	sbcscc	r7, fp, r8, rrx

000047fc <l4346>:
    47fc:	806f9003 	rsbhi	r9, pc, r3

00004800 <interrupt_100>:
    4800:	e3a0900c 	mov	r9, #12

00004804 <l4348>:
    4804:	a19dc0d9 	ldrsbge	ip, [sp, r9]

00004808 <l4349>:
    4808:	a0534ac2 	subsge	r4, r3, r2, asr #21

0000480c <l4350>:
    480c:	a0836001 	addge	r6, r3, r1

00004810 <l4351>:
    4810:	00912061 	addseq	r2, r1, r1, rrx

00004814 <l4352>:
    4814:	e59fe000 	ldr	lr, [pc]	; 481c <l4354>

00004818 <l4353>:
    4818:	ea000000 	b	4820 <l4355>

0000481c <l4354>:
    481c:	000fffdc 	.word	0x000fffdc

00004820 <l4355>:
    4820:	914e2097 	swpbls	r2, r7, [lr]

00004824 <l4356>:
    4824:	e0d2be35 	sbcs	fp, r2, r5, lsr lr

00004828 <l4357>:
    4828:	8053e000 	subshi	lr, r3, r0

0000482c <l4358>:
    482c:	90759550 	rsbsls	r9, r5, r0, asr r5

00004830 <l4359>:
    4830:	e1dd71de 	ldrsb	r7, [sp, #30]

00004834 <l4360>:
    4834:	e3a03014 	mov	r3, #20

00004838 <l4361>:
    4838:	e68da003 	str	sl, [sp], r3

0000483c <l4362>:
    483c:	e13e006e 	teq	lr, lr, rrx

00004840 <l4363>:
    4840:	e11906c4 	tst	r9, r4, asr #13

00004844 <l4364>:
    4844:	b2f68302 	rscslt	r8, r6, #134217728	; 0x8000000

00004848 <l4365>:
    4848:	e41d201c 	ldr	r2, [sp], #-28

0000484c <interrupt_557>:
    484c:	e174021b 	cmn	r4, fp, lsl r2

00004850 <l4367>:
    4850:	a1b05532 	lsrsge	r5, r2, r5

00004854 <interrupt_599>:
    4854:	ea000003 	b	4868 <l4373>

00004858 <l4369>:
    4858:	e28010f6 	add	r1, r0, #246	; 0xf6

0000485c <l4370>:
    485c:	705a6387 	subsvc	r6, sl, r7, lsl #7

00004860 <l4371>:
    4860:	a0487951 	subge	r7, r8, r1, asr r9

00004864 <l4372>:
    4864:	ea000000 	b	486c <l4374>

00004868 <l4373>:
    4868:	eafffffb 	b	485c <l4370>

0000486c <l4374>:
    486c:	e1a00000 	nop			; (mov r0, r0)

00004870 <l4375>:
    4870:	d28c083a 	addle	r0, ip, #3801088	; 0x3a0000

00004874 <l4376>:
    4874:	3284bad5 	addcc	fp, r4, #872448	; 0xd5000

00004878 <l4377>:
    4878:	ef95e5a9 	svc	0x0095e5a9

0000487c <l4378>:
    487c:	a0003a72 	andge	r3, r0, r2, ror sl

00004880 <interrupt_70>:
    4880:	e15b0005 	cmp	fp, r5

00004884 <interrupt_68>:
    4884:	e11a0006 	tst	sl, r6

00004888 <l4381>:
    4888:	eaffffff 	b	488c <l4382>

0000488c <l4382>:
    488c:	33110237 	tstcc	r1, #1879048195	; 0x70000003

00004890 <l4383>:
    4890:	e1959a75 	orrs	r9, r5, r5, ror sl

00004894 <interrupt_245>:
    4894:	e0fc7e87 	rscs	r7, ip, r7, lsl #29

00004898 <l4385>:
    4898:	b066e006 	rsblt	lr, r6, r6

0000489c <l4386>:
    489c:	83d82e93 	bicshi	r2, r8, #2352	; 0x930

000048a0 <l4387>:
    48a0:	e23c9603 	eors	r9, ip, #3145728	; 0x300000

000048a4 <l4388>:
    48a4:	e11e0003 	tst	lr, r3

000048a8 <l4389>:
    48a8:	c17c000f 	cmngt	ip, pc

000048ac <interrupt_94>:
    48ac:	ea000001 	b	48b8 <l4393>

000048b0 <l4391>:
    48b0:	e384319a 	orr	r3, r4, #-2147483610	; 0x80000026

000048b4 <l4392>:
    48b4:	83e0bd49 	mvnhi	fp, #4672	; 0x1240

000048b8 <l4393>:
    48b8:	e056a817 	subs	sl, r6, r7, lsl r8

000048bc <l4394>:
    48bc:	20d44003 	sbcscs	r4, r4, r3

000048c0 <l4395>:
    48c0:	e59f5000 	ldr	r5, [pc]	; 48c8 <l4397>

000048c4 <l4396>:
    48c4:	ea000000 	b	48cc <l4398>

000048c8 <l4397>:
    48c8:	000fffb0 	.word	0x000fffb0

000048cc <l4398>:
    48cc:	d1052097 	swple	r2, r7, [r5]

000048d0 <l4399>:
    48d0:	e1cd62b2 	strh	r6, [sp, #34]	; 0x22

000048d4 <l4400>:
    48d4:	d33608e1 	teqle	r6, #14745600	; 0xe10000

000048d8 <l4401>:
    48d8:	e1dd31dd 	ldrsb	r3, [sp, #29]

000048dc <l4402>:
    48dc:	d0b67003 	adcsle	r7, r6, r3

000048e0 <interrupt_779>:
    48e0:	ef202871 	svc	0x00202871

000048e4 <l4404>:
    48e4:	e1f02b71 	mvns	r2, r1, ror fp

000048e8 <l4405>:
    48e8:	52a8985d 	adcpl	r9, r8, #6094848	; 0x5d0000

000048ec <l4406>:
    48ec:	e1e01955 	mvn	r1, r5, asr r9

000048f0 <l4407>:
    48f0:	304fb56c 	subcc	fp, pc, ip, ror #10

000048f4 <l4408>:
    48f4:	e59f3000 	ldr	r3, [pc]	; 48fc <l4410>

000048f8 <l4409>:
    48f8:	ea000000 	b	4900 <l4411>

000048fc <l4410>:
    48fc:	000fffa8 	.word	0x000fffa8

00004900 <l4411>:
    4900:	c143509b 	swpbgt	r5, fp, [r3]

00004904 <interrupt_587>:
    4904:	ef3a4d2e 	svc	0x003a4d2e

00004908 <l4413>:
    4908:	e8adc91e 	stmia	sp!, {r1, r2, r3, r4, r8, fp, lr, pc}

0000490c <l4414>:
    490c:	80af116b 	adchi	r1, pc, fp, ror #2

00004910 <l4415>:
    4910:	ef445897 	svc	0x00445897

00004914 <l4416>:
    4914:	72603485 	rsbvc	r3, r0, #-2063597568	; 0x85000000

00004918 <l4417>:
    4918:	8018184e 	andshi	r1, r8, lr, asr #16

0000491c <l4418>:
    491c:	e1a06838 	lsr	r6, r8, r8

00004920 <l4419>:
    4920:	205c2061 	subscs	r2, ip, r1, rrx

00004924 <l4420>:
    4924:	e3a05024 	mov	r5, #36	; 0x24

00004928 <interrupt_837>:
    4928:	770d8005 	strvc	r8, [sp, -r5]

0000492c <l4422>:
    492c:	8136000a 	teqhi	r6, sl

00004930 <l4423>:
    4930:	e0208b8e 	eor	r8, r0, lr, lsl #23

00004934 <l4424>:
    4934:	c04b606f 	subgt	r6, fp, pc, rrx

00004938 <l4425>:
    4938:	e11c0000 	tst	ip, r0

0000493c <l4426>:
    493c:	c1834e18 	orrgt	r4, r3, r8, lsl lr

00004940 <l4427>:
    4940:	e117082c 	tst	r7, ip, lsr #16

00004944 <l4428>:
    4944:	e59f3000 	ldr	r3, [pc]	; 494c <l4430>

00004948 <l4429>:
    4948:	ea000000 	b	4950 <l4431>

0000494c <l4430>:
    494c:	000fffd4 	.word	0x000fffd4

00004950 <l4431>:
    4950:	11437092 	swpbne	r7, r2, [r3]

00004954 <interrupt_993>:
    4954:	c0418008 	subgt	r8, r1, r8

00004958 <interrupt_120>:
    4958:	03f0cbd9 	mvnseq	ip, #222208	; 0x36400

0000495c <l4434>:
    495c:	e59f7000 	ldr	r7, [pc]	; 4964 <l4436>

00004960 <l4435>:
    4960:	ea000000 	b	4968 <interrupt_199>

00004964 <l4436>:
    4964:	000fffcc 	.word	0x000fffcc

00004968 <interrupt_199>:
    4968:	e147909b 	swpb	r9, fp, [r7]

0000496c <l4438>:
    496c:	e55d3010 	ldrb	r3, [sp, #-16]

00004970 <l4439>:
    4970:	e0be1060 	adcs	r1, lr, r0, rrx

00004974 <l4440>:
    4974:	91f044a4 	mvnsls	r4, r4, lsr #9

00004978 <l4441>:
    4978:	40e0e505 	rscmi	lr, r0, r5, lsl #10

0000497c <l4442>:
    497c:	e59f3000 	ldr	r3, [pc]	; 4984 <l4444>

00004980 <l4443>:
    4980:	ea000000 	b	4988 <l4445>

00004984 <l4444>:
    4984:	000fffa8 	.word	0x000fffa8

00004988 <l4445>:
    4988:	e1031090 	swp	r1, r0, [r3]

0000498c <interrupt_152>:
    498c:	71e08270 	mvnvc	r8, r0, ror r2

00004990 <l4447>:
    4990:	62c72366 	sbcvs	r2, r7, #-1744830463	; 0x98000001

00004994 <l4448>:
    4994:	31e0a071 	mvncc	sl, r1, ror r0

00004998 <l4449>:
    4998:	455d9026 	ldrbmi	r9, [sp, #-38]	; 0x26

0000499c <l4450>:
    499c:	e16f0f18 	clz	r0, r8

000049a0 <l4451>:
    49a0:	e59f5000 	ldr	r5, [pc]	; 49a8 <l4453>

000049a4 <l4452>:
    49a4:	ea000000 	b	49ac <l4454>

000049a8 <l4453>:
    49a8:	000fffcc 	.word	0x000fffcc

000049ac <l4454>:
    49ac:	7105a090 	swpvc	sl, r0, [r5]

000049b0 <l4455>:
    49b0:	3151006c 	cmpcc	r1, ip, rrx

000049b4 <l4456>:
    49b4:	e93d16c0 	ldmdb	sp!, {r6, r7, r9, sl, ip}

000049b8 <interrupt_683>:
    49b8:	290d0846 	stmdbcs	sp, {r1, r2, r6, fp}

000049bc <l4458>:
    49bc:	813a0061 	teqhi	sl, r1, rrx

000049c0 <l4459>:
    49c0:	b0d967c4 	sbcslt	r6, r9, r4, asr #15

000049c4 <l4460>:
    49c4:	95dd0032 	ldrbls	r0, [sp, #50]	; 0x32

000049c8 <l4461>:
    49c8:	8a000005 	bhi	49e4 <interrupt_232>

000049cc <l4462>:
    49cc:	e2801085 	add	r1, r0, #133	; 0x85

000049d0 <l4463>:
    49d0:	b17408e6 	cmnlt	r4, r6, ror #17

000049d4 <l4464>:
    49d4:	01f0800b 	mvnseq	r8, fp

000049d8 <l4465>:
    49d8:	719e700e 	orrsvc	r7, lr, lr

000049dc <l4466>:
    49dc:	d1a0506b 	rrxle	r5, fp

000049e0 <l4467>:
    49e0:	ea000000 	b	49e8 <interrupt_601>

000049e4 <interrupt_232>:
    49e4:	eafffff9 	b	49d0 <l4463>

000049e8 <interrupt_601>:
    49e8:	e3a01008 	mov	r1, #8

000049ec <l4470>:
    49ec:	e11d40b1 	ldrh	r4, [sp, -r1]

000049f0 <l4471>:
    49f0:	e3c15e1f 	bic	r5, r1, #496	; 0x1f0

000049f4 <l4472>:
    49f4:	218e331c 	orrcs	r3, lr, ip, lsl r3

000049f8 <l4473>:
    49f8:	e82d8810 	stmda	sp!, {r4, fp, pc}

000049fc <l4474>:
    49fc:	990d0008 	stmdbls	sp, {r3}

00004a00 <interrupt_455>:
    4a00:	11cde0bc 	strhne	lr, [sp, #12]

00004a04 <l4476>:
    4a04:	60c81e04 	sbcvs	r1, r8, r4, lsl #28

00004a08 <l4477>:
    4a08:	e1ddc2ba 	ldrh	ip, [sp, #42]	; 0x2a

00004a0c <l4478>:
    4a0c:	418ea00f 	orrmi	sl, lr, pc

00004a10 <l4479>:
    4a10:	e33809b1 	teq	r8, #2899968	; 0x2c4000

00004a14 <l4480>:
    4a14:	ef3858e5 	svc	0x003858e5

00004a18 <l4481>:
    4a18:	e58dc020 	str	ip, [sp, #32]

00004a1c <l4482>:
    4a1c:	e59f9000 	ldr	r9, [pc]	; 4a24 <interrupt_720>

00004a20 <l4483>:
    4a20:	ea000000 	b	4a28 <l4485>

00004a24 <interrupt_720>:
    4a24:	000fffe4 	.word	0x000fffe4

00004a28 <l4485>:
    4a28:	e1097090 	swp	r7, r0, [r9]

00004a2c <l4486>:
    4a2c:	e13e000a 	teq	lr, sl

00004a30 <l4487>:
    4a30:	e3a06002 	mov	r6, #2

00004a34 <l4488>:
    4a34:	e19db0f6 	ldrsh	fp, [sp, r6]

00004a38 <l4489>:
    4a38:	eff0d79f 	svc	0x00f0d79f

00004a3c <l4490>:
    4a3c:	e3a0b00d 	mov	fp, #13

00004a40 <l4491>:
    4a40:	e7dd000b 	ldrb	r0, [sp, fp]

00004a44 <interrupt_679>:
    4a44:	50fe500e 	rscspl	r5, lr, lr

00004a48 <interrupt_771>:
    4a48:	5070506b 	rsbspl	r5, r0, fp, rrx

00004a4c <interrupt_223>:
    4a4c:	e1cd33be 	strh	r3, [sp, #62]	; 0x3e

00004a50 <l4495>:
    4a50:	416f7f10 	clzmi	r7, r0

00004a54 <interrupt_782>:
    4a54:	ea000005 	b	4a70 <l4503>

00004a58 <interrupt_698>:
    4a58:	e280101a 	add	r1, r0, #26

00004a5c <l4498>:
    4a5c:	e262b22b 	rsb	fp, r2, #-1342177278	; 0xb0000002

00004a60 <l4499>:
    4a60:	00853926 	addeq	r3, r5, r6, lsr #18

00004a64 <l4500>:
    4a64:	d023e068 	eorle	lr, r3, r8, rrx

00004a68 <l4501>:
    4a68:	e1b03062 	rrxs	r3, r2

00004a6c <l4502>:
    4a6c:	ea000000 	b	4a74 <l4504>

00004a70 <l4503>:
    4a70:	eafffff9 	b	4a5c <l4498>

00004a74 <l4504>:
    4a74:	e18b8ba8 	orr	r8, fp, r8, lsr #23

00004a78 <interrupt_99>:
    4a78:	e0652a4f 	rsb	r2, r5, pc, asr #20

00004a7c <l4506>:
    4a7c:	e1dd32ba 	ldrh	r3, [sp, #42]	; 0x2a

00004a80 <l4507>:
    4a80:	00f70a61 	rscseq	r0, r7, r1, ror #20

00004a84 <l4508>:
    4a84:	e3a05019 	mov	r5, #25

00004a88 <l4509>:
    4a88:	e19d20d5 	ldrsb	r2, [sp, r5]

00004a8c <l4510>:
    4a8c:	325863af 	subscc	r6, r8, #-1140850686	; 0xbc000002

00004a90 <l4511>:
    4a90:	e59fb000 	ldr	fp, [pc]	; 4a98 <l4513>

00004a94 <interrupt_592>:
    4a94:	ea000000 	b	4a9c <l4514>

00004a98 <l4513>:
    4a98:	000fffbc 	.word	0x000fffbc

00004a9c <l4514>:
    4a9c:	e10b809c 	swp	r8, ip, [fp]

00004aa0 <l4515>:
    4aa0:	e9add080 	stmib	sp!, {r7, ip, lr, pc}

00004aa4 <interrupt_374>:
    4aa4:	e3d6b4ad 	bics	fp, r6, #-1392508928	; 0xad000000

00004aa8 <l4517>:
    4aa8:	e1520004 	cmp	r2, r4

00004aac <l4518>:
    4aac:	e8adcfad 	stmia	sp!, {r0, r2, r3, r5, r7, r8, r9, sl, fp, lr, pc}

00004ab0 <l4519>:
    4ab0:	809be004 	addshi	lr, fp, r4

00004ab4 <l4520>:
    4ab4:	e59f6000 	ldr	r6, [pc]	; 4abc <l4522>

00004ab8 <interrupt_83>:
    4ab8:	ea000000 	b	4ac0 <l4523>

00004abc <l4522>:
    4abc:	000fffbc 	.word	0x000fffbc

00004ac0 <l4523>:
    4ac0:	e106a094 	swp	sl, r4, [r6]

00004ac4 <l4524>:
    4ac4:	12b409ea 	adcsne	r0, r4, #3833856	; 0x3a8000

00004ac8 <l4525>:
    4ac8:	e3a03014 	mov	r3, #20

00004acc <l4526>:
    4acc:	d74d1003 	strble	r1, [sp, -r3]

00004ad0 <interrupt_13>:
    4ad0:	e1a00000 	nop			; (mov r0, r0)

00004ad4 <l4528>:
    4ad4:	e3a0b004 	mov	fp, #4

00004ad8 <l4529>:
    4ad8:	b11d90fb 	ldrshlt	r9, [sp, -fp]

00004adc <interrupt_486>:
    4adc:	0a000003 	beq	4af0 <l4535>

00004ae0 <l4531>:
    4ae0:	e2801064 	add	r1, r0, #100	; 0x64

00004ae4 <l4532>:
    4ae4:	316f2f19 	clzcc	r2, r9

00004ae8 <l4533>:
    4ae8:	81310061 	teqhi	r1, r1, rrx

00004aec <l4534>:
    4aec:	ea000000 	b	4af4 <l4536>

00004af0 <l4535>:
    4af0:	eafffffb 	b	4ae4 <l4532>

00004af4 <l4536>:
    4af4:	e18b1002 	orr	r1, fp, r2

00004af8 <l4537>:
    4af8:	e59fa000 	ldr	sl, [pc]	; 4b00 <l4539>

00004afc <interrupt_427>:
    4afc:	ea000000 	b	4b04 <l4540>

00004b00 <l4539>:
    4b00:	000fffdc 	.word	0x000fffdc

00004b04 <l4540>:
    4b04:	414a5092 	swpbmi	r5, r2, [sl]

00004b08 <interrupt_380>:
    4b08:	b01a2003 	andslt	r2, sl, r3

00004b0c <l4542>:
    4b0c:	ef9ec216 	svc	0x009ec216

00004b10 <l4543>:
    4b10:	d21b2dcf 	andsle	r2, fp, #13248	; 0x33c0

00004b14 <l4544>:
    4b14:	a0761066 	rsbsge	r1, r6, r6, rrx

00004b18 <interrupt_181>:
    4b18:	811a04c4 	tsthi	sl, r4, asr #9

00004b1c <l4546>:
    4b1c:	31130a39 	tstcc	r3, r9, lsr sl

00004b20 <interrupt_582>:
    4b20:	efda02ae 	svc	0x00da02ae

00004b24 <l4548>:
    4b24:	e1160004 	tst	r6, r4

00004b28 <l4549>:
    4b28:	904ee007 	subls	lr, lr, r7

00004b2c <l4550>:
    4b2c:	62274b39 	eorvs	r4, r7, #58368	; 0xe400

00004b30 <interrupt_951>:
    4b30:	e3a01008 	mov	r1, #8

00004b34 <l4552>:
    4b34:	611d50b1 	ldrhvs	r5, [sp, -r1]

00004b38 <interrupt_423>:
    4b38:	91750006 	cmnls	r5, r6

00004b3c <l4554>:
    4b3c:	e3a03046 	mov	r3, #70	; 0x46

00004b40 <l4555>:
    4b40:	d11d20b3 	ldrhle	r2, [sp, -r3]

00004b44 <l4556>:
    4b44:	efb24441 	svc	0x00b24441

00004b48 <interrupt_350>:
    4b48:	efda4d67 	svc	0x00da4d67

00004b4c <l4558>:
    4b4c:	203be062 	eorscs	lr, fp, r2, rrx

00004b50 <l4559>:
    4b50:	c1710c5a 	cmngt	r1, sl, asr ip

00004b54 <l4560>:
    4b54:	e15d93b8 	ldrh	r9, [sp, #-56]	; 0xffffffc8

00004b58 <l4561>:
    4b58:	b2e6062d 	rsclt	r0, r6, #47185920	; 0x2d00000

00004b5c <l4562>:
    4b5c:	41110068 	tstmi	r1, r8, rrx

00004b60 <l4563>:
    4b60:	525eb737 	subspl	fp, lr, #14417920	; 0xdc0000

00004b64 <l4564>:
    4b64:	efc88d8b 	svc	0x00c88d8b

00004b68 <interrupt_875>:
    4b68:	e19aebcb 	orrs	lr, sl, fp, asr #23

00004b6c <interrupt_330>:
    4b6c:	10271006 	eorne	r1, r7, r6

00004b70 <interrupt_660>:
    4b70:	e3a0a03c 	mov	sl, #60	; 0x3c

00004b74 <interrupt_206>:
    4b74:	711d80fa 	ldrshvc	r8, [sp, -sl]

00004b78 <interrupt_483>:
    4b78:	11d61c14 	bicsne	r1, r6, r4, lsl ip

00004b7c <l4570>:
    4b7c:	ea000005 	b	4b98 <l4577>

00004b80 <l4571>:
    4b80:	e280101b 	add	r1, r0, #27

00004b84 <l4572>:
    4b84:	e0ec600a 	rsc	r6, ip, sl

00004b88 <l4573>:
    4b88:	d02b9002 	eorle	r9, fp, r2

00004b8c <l4574>:
    4b8c:	e2a19c47 	adc	r9, r1, #18176	; 0x4700

00004b90 <l4575>:
    4b90:	e018200a 	ands	r2, r8, sl

00004b94 <interrupt_600>:
    4b94:	ea000000 	b	4b9c <l4578>

00004b98 <l4577>:
    4b98:	eafffff9 	b	4b84 <l4572>

00004b9c <l4578>:
    4b9c:	025ee0ce 	subseq	lr, lr, #206	; 0xce

00004ba0 <interrupt_1>:
    4ba0:	e16f2f15 	clz	r2, r5

00004ba4 <interrupt_717>:
    4ba4:	c0599069 	subsgt	r9, r9, r9, rrx

00004ba8 <l4581>:
    4ba8:	e1a00000 	nop			; (mov r0, r0)

00004bac <l4582>:
    4bac:	e59fe000 	ldr	lr, [pc]	; 4bb4 <l4584>

00004bb0 <l4583>:
    4bb0:	ea000000 	b	4bb8 <l4585>

00004bb4 <l4584>:
    4bb4:	000fffd4 	.word	0x000fffd4

00004bb8 <l4585>:
    4bb8:	d14e7099 	swpble	r7, r9, [lr]

00004bbc <interrupt_105>:
    4bbc:	e59fc000 	ldr	ip, [pc]	; 4bc4 <l4588>

00004bc0 <l4587>:
    4bc0:	ea000000 	b	4bc8 <l4589>

00004bc4 <l4588>:
    4bc4:	000fffcc 	.word	0x000fffcc

00004bc8 <l4589>:
    4bc8:	c10c909e 	swpgt	r9, lr, [ip]

00004bcc <l4590>:
    4bcc:	e0391001 	eors	r1, r9, r1

00004bd0 <l4591>:
    4bd0:	7a000005 	bvc	4bec <l4598>

00004bd4 <l4592>:
    4bd4:	e0cbbde5 	sbc	fp, fp, r5, ror #27

00004bd8 <l4593>:
    4bd8:	01f096e9 	mvnseq	r9, r9, ror #13

00004bdc <interrupt_998>:
    4bdc:	417f0aeb 	cmnmi	pc, fp, ror #21

00004be0 <l4595>:
    4be0:	80986068 	addshi	r6, r8, r8, rrx

00004be4 <interrupt_112>:
    4be4:	32c1e99b 	sbccc	lr, r1, #2539520	; 0x26c000

00004be8 <l4597>:
    4be8:	735f0dfb 	cmpvc	pc, #16064	; 0x3ec0

00004bec <l4598>:
    4bec:	e1330000 	teq	r3, r0

00004bf0 <l4599>:
    4bf0:	e189b93b 	orr	fp, r9, fp, lsr r9

00004bf4 <l4600>:
    4bf4:	51c79872 	bicpl	r9, r7, r2, ror r8

00004bf8 <l4601>:
    4bf8:	e33309aa 	teq	r3, #2785280	; 0x2a8000

00004bfc <l4602>:
    4bfc:	e27744bb 	rsbs	r4, r7, #-1157627904	; 0xbb000000

00004c00 <l4603>:
    4c00:	ea000006 	b	4c20 <interrupt_925>

00004c04 <l4604>:
    4c04:	e28010e8 	add	r1, r0, #232	; 0xe8

00004c08 <l4605>:
    4c08:	e2913733 	adds	r3, r1, #13369344	; 0xcc0000

00004c0c <l4606>:
    4c0c:	906ced85 	rsbls	lr, ip, r5, lsl #27

00004c10 <l4607>:
    4c10:	e37b0fc5 	cmn	fp, #788	; 0x314

00004c14 <l4608>:
    4c14:	b041793c 	sublt	r7, r1, ip, lsr r9

00004c18 <interrupt_5>:
    4c18:	e25417ef 	subs	r1, r4, #62652416	; 0x3bc0000

00004c1c <l4610>:
    4c1c:	ea000000 	b	4c24 <l4612>

00004c20 <interrupt_925>:
    4c20:	eafffff8 	b	4c08 <l4605>

00004c24 <l4612>:
    4c24:	d54d5038 	strble	r5, [sp, #-56]	; 0x38

00004c28 <l4613>:
    4c28:	e59f4000 	ldr	r4, [pc]	; 4c30 <l4615>

00004c2c <l4614>:
    4c2c:	ea000000 	b	4c34 <l4616>

00004c30 <l4615>:
    4c30:	000fffc8 	.word	0x000fffc8

00004c34 <l4616>:
    4c34:	9144509a 	swpbls	r5, sl, [r4]

00004c38 <interrupt_957>:
    4c38:	e11e0005 	tst	lr, r5

00004c3c <l4618>:
    4c3c:	e54d102e 	strb	r1, [sp, #-46]	; 0x2e

00004c40 <l4619>:
    4c40:	8036c00e 	eorshi	ip, r6, lr

00004c44 <l4620>:
    4c44:	efc7a5dc 	svc	0x00c7a5dc

00004c48 <l4621>:
    4c48:	e59f1000 	ldr	r1, [pc]	; 4c50 <l4623>

00004c4c <l4622>:
    4c4c:	ea000000 	b	4c54 <l4624>

00004c50 <l4623>:
    4c50:	000fffe8 	.word	0x000fffe8

00004c54 <l4624>:
    4c54:	0141609a 	swpbeq	r6, sl, [r1]

00004c58 <l4625>:
    4c58:	e0104006 	ands	r4, r0, r6

00004c5c <l4626>:
    4c5c:	e3a08030 	mov	r8, #48	; 0x30

00004c60 <l4627>:
    4c60:	e61d2008 	ldr	r2, [sp], -r8

00004c64 <l4628>:
    4c64:	e1750067 	cmn	r5, r7, rrx

00004c68 <l4629>:
    4c68:	e59fa000 	ldr	sl, [pc]	; 4c70 <l4631>

00004c6c <l4630>:
    4c6c:	ea000000 	b	4c74 <interrupt_871>

00004c70 <l4631>:
    4c70:	000fffa4 	.word	0x000fffa4

00004c74 <interrupt_871>:
    4c74:	e10a0094 	swp	r0, r4, [sl]

00004c78 <l4633>:
    4c78:	e2430b17 	sub	r0, r3, #23552	; 0x5c00

00004c7c <l4634>:
    4c7c:	e48d5008 	str	r5, [sp], #8

00004c80 <l4635>:
    4c80:	81a0a065 	rrxhi	sl, r5

00004c84 <interrupt_527>:
    4c84:	e3a0e003 	mov	lr, #3

00004c88 <l4637>:
    4c88:	d19d10de 	ldrsble	r1, [sp, lr]

00004c8c <l4638>:
    4c8c:	e92d8080 	push	{r7, pc}

00004c90 <l4639>:
    4c90:	ef44e9a2 	svc	0x0044e9a2

00004c94 <l4640>:
    4c94:	e1150061 	tst	r5, r1, rrx

00004c98 <l4641>:
    4c98:	e0b59fa7 	adcs	r9, r5, r7, lsr #31

00004c9c <l4642>:
    4c9c:	7356026f 	cmpvc	r6, #-268435450	; 0xf0000006

00004ca0 <l4643>:
    4ca0:	e1590009 	cmp	r9, r9

00004ca4 <l4644>:
    4ca4:	00960062 	addseq	r0, r6, r2, rrx

00004ca8 <l4645>:
    4ca8:	ef2e7c9c 	svc	0x002e7c9c

00004cac <l4646>:
    4cac:	820e30d0 	andhi	r3, lr, #208	; 0xd0

00004cb0 <l4647>:
    4cb0:	e48db008 	str	fp, [sp], #8

00004cb4 <l4648>:
    4cb4:	e11b0067 	tst	fp, r7, rrx

00004cb8 <interrupt_143>:
    4cb8:	e0e41953 	rsc	r1, r4, r3, asr r9

00004cbc <interrupt_52>:
    4cbc:	715d80bc 	ldrhvc	r8, [sp, #-12]

00004cc0 <l4651>:
    4cc0:	399d43e9 	ldmibcc	sp, {r0, r3, r5, r6, r7, r8, r9, lr}

00004cc4 <l4652>:
    4cc4:	e0294062 	eor	r4, r9, r2, rrx

00004cc8 <l4653>:
    4cc8:	e3a0b01e 	mov	fp, #30

00004ccc <l4654>:
    4ccc:	a19d40fb 	ldrshge	r4, [sp, fp]

00004cd0 <l4655>:
    4cd0:	e15f0008 	cmp	pc, r8

00004cd4 <l4656>:
    4cd4:	b3b03e82 	movslt	r3, #2080	; 0x820

00004cd8 <l4657>:
    4cd8:	e2f90d8d 	rscs	r0, r9, #9024	; 0x2340

00004cdc <l4658>:
    4cdc:	e1dd70b4 	ldrh	r7, [sp, #4]

00004ce0 <l4659>:
    4ce0:	e3a08010 	mov	r8, #16

00004ce4 <l4660>:
    4ce4:	d19d20f8 	ldrshle	r2, [sp, r8]

00004ce8 <l4661>:
    4ce8:	41f0b065 	mvnsmi	fp, r5, rrx

00004cec <l4662>:
    4cec:	e3a0301f 	mov	r3, #31

00004cf0 <l4663>:
    4cf0:	e75d9003 	ldrb	r9, [sp, -r3]

00004cf4 <l4664>:
    4cf4:	01760e63 	cmneq	r6, r3, ror #28

00004cf8 <l4665>:
    4cf8:	e3a0e020 	mov	lr, #32

00004cfc <l4666>:
    4cfc:	e10da0be 	strh	sl, [sp, -lr]

00004d00 <interrupt_671>:
    4d00:	e2498f62 	sub	r8, r9, #392	; 0x188

00004d04 <interrupt_598>:
    4d04:	b3150c8d 	tstlt	r5, #36096	; 0x8d00

00004d08 <l4669>:
    4d08:	e3a06008 	mov	r6, #8

00004d0c <l4670>:
    4d0c:	879d4006 	ldrhi	r4, [sp, r6]

00004d10 <l4671>:
    4d10:	313c006f 	teqcc	ip, pc, rrx

00004d14 <interrupt_191>:
    4d14:	516fbf1c 	clzpl	fp, ip

00004d18 <interrupt_270>:
    4d18:	01f01065 	mvnseq	r1, r5, rrx

00004d1c <l4674>:
    4d1c:	e1e02630 	mvn	r2, r0, lsr r6

00004d20 <l4675>:
    4d20:	a07e1005 	rsbsge	r1, lr, r5

00004d24 <l4676>:
    4d24:	e2be2c33 	adcs	r2, lr, #13056	; 0x3300

00004d28 <l4677>:
    4d28:	e1b0300a 	movs	r3, sl

00004d2c <interrupt_751>:
    4d2c:	813202c9 	teqhi	r2, r9, asr #5

00004d30 <l4679>:
    4d30:	c04b6068 	subgt	r6, fp, r8, rrx

00004d34 <l4680>:
    4d34:	e5cd300e 	strb	r3, [sp, #14]

00004d38 <l4681>:
    4d38:	60f80005 	rscsvs	r0, r8, r5

00004d3c <l4682>:
    4d3c:	e59f5000 	ldr	r5, [pc]	; 4d44 <l4684>

00004d40 <interrupt_867>:
    4d40:	ea000000 	b	4d48 <l4685>

00004d44 <l4684>:
    4d44:	000fffa4 	.word	0x000fffa4

00004d48 <l4685>:
    4d48:	e1059096 	swp	r9, r6, [r5]

00004d4c <l4686>:
    4d4c:	81dda0d9 	ldrsbhi	sl, [sp, #9]

00004d50 <l4687>:
    4d50:	e19b4b59 	orrs	r4, fp, r9, asr fp

00004d54 <l4688>:
    4d54:	91e09f61 	mvnls	r9, r1, ror #30

00004d58 <l4689>:
    4d58:	e3a0c028 	mov	ip, #40	; 0x28

00004d5c <l4690>:
    4d5c:	478d200c 	strmi	r2, [sp, ip]

00004d60 <interrupt_27>:
    4d60:	e0842002 	add	r2, r4, r2

00004d64 <interrupt_813>:
    4d64:	c024700e 	eorgt	r7, r4, lr

00004d68 <interrupt_692>:
    4d68:	e1dd21de 	ldrsb	r2, [sp, #30]

00004d6c <l4694>:
    4d6c:	e1a00000 	nop			; (mov r0, r0)

00004d70 <l4695>:
    4d70:	811a0069 	tsthi	sl, r9, rrx

00004d74 <l4696>:
    4d74:	c042306c 	subgt	r3, r2, ip, rrx

00004d78 <interrupt_392>:
    4d78:	e50da01c 	str	sl, [sp, #-28]

00004d7c <l4698>:
    4d7c:	e3a05004 	mov	r5, #4

00004d80 <l4699>:
    4d80:	a10d70b5 	strhge	r7, [sp, -r5]

00004d84 <l4700>:
    4d84:	e3a01025 	mov	r1, #37	; 0x25

00004d88 <l4701>:
    4d88:	e7dd8001 	ldrb	r8, [sp, r1]

00004d8c <l4702>:
    4d8c:	23b09a9b 	movscs	r9, #634880	; 0x9b000

00004d90 <interrupt_741>:
    4d90:	e225b305 	eor	fp, r5, #335544320	; 0x14000000

00004d94 <l4704>:
    4d94:	e154000f 	cmp	r4, pc

00004d98 <l4705>:
    4d98:	ef233eb8 	svc	0x00233eb8

00004d9c <l4706>:
    4d9c:	2a000005 	bcs	4db8 <l4713>

00004da0 <l4707>:
    4da0:	e280103b 	add	r1, r0, #59	; 0x3b

00004da4 <l4708>:
    4da4:	b35e01d2 	cmplt	lr, #-2147483596	; 0x80000034

00004da8 <l4709>:
    4da8:	e18c5dce 	orr	r5, ip, lr, asr #27

00004dac <l4710>:
    4dac:	004c1522 	subeq	r1, ip, r2, lsr #10

00004db0 <l4711>:
    4db0:	925b7074 	subsls	r7, fp, #116	; 0x74

00004db4 <interrupt_504>:
    4db4:	ea000000 	b	4dbc <interrupt_670>

00004db8 <l4713>:
    4db8:	eafffff9 	b	4da4 <l4708>

00004dbc <interrupt_670>:
    4dbc:	c195c004 	orrsgt	ip, r5, r4

00004dc0 <l4715>:
    4dc0:	333506b9 	teqcc	r5, #193986560	; 0xb900000

00004dc4 <l4716>:
    4dc4:	ef9b984a 	svc	0x009b984a

00004dc8 <l4717>:
    4dc8:	82b0c85e 	adcshi	ip, r0, #6160384	; 0x5e0000

00004dcc <l4718>:
    4dcc:	815d60df 	ldrsbhi	r6, [sp, #-15]

00004dd0 <l4719>:
    4dd0:	e2516c16 	subs	r6, r1, #5632	; 0x1600

00004dd4 <l4720>:
    4dd4:	e0419601 	sub	r9, r1, r1, lsl #12

00004dd8 <interrupt_618>:
    4dd8:	416f8f12 	clzmi	r8, r2

00004ddc <l4722>:
    4ddc:	e04a3113 	sub	r3, sl, r3, lsl r1

00004de0 <l4723>:
    4de0:	e16f9f14 	clz	r9, r4

00004de4 <interrupt_240>:
    4de4:	e3a04017 	mov	r4, #23

00004de8 <l4725>:
    4de8:	e75d4004 	ldrb	r4, [sp, -r4]

00004dec <l4726>:
    4dec:	e3a02000 	mov	r2, #0

00004df0 <l4727>:
    4df0:	e19dc0f2 	ldrsh	ip, [sp, r2]

00004df4 <l4728>:
    4df4:	e91d1842 	ldmdb	sp, {r1, r6, fp, ip}

00004df8 <interrupt_697>:
    4df8:	e59fe000 	ldr	lr, [pc]	; 4e00 <l4731>

00004dfc <l4730>:
    4dfc:	ea000000 	b	4e04 <l4732>

00004e00 <l4731>:
    4e00:	000fffd0 	.word	0x000fffd0

00004e04 <l4732>:
    4e04:	e10e9099 	swp	r9, r9, [lr]

00004e08 <l4733>:
    4e08:	60638000 	rsbvs	r8, r3, r0

00004e0c <l4734>:
    4e0c:	c1a09e31 	lsrgt	r9, r1, lr

00004e10 <l4735>:
    4e10:	915d10d4 	ldrsbls	r1, [sp, #-4]

00004e14 <l4736>:
    4e14:	ef013be7 	svc	0x00013be7

00004e18 <l4737>:
    4e18:	a043b879 	subge	fp, r3, r9, ror r8

00004e1c <interrupt_65>:
    4e1c:	e59f0000 	ldr	r0, [pc]	; 4e24 <l4740>

00004e20 <l4739>:
    4e20:	ea000000 	b	4e28 <l4741>

00004e24 <l4740>:
    4e24:	000fffa4 	.word	0x000fffa4

00004e28 <l4741>:
    4e28:	21409093 	swpbcs	r9, r3, [r0]

00004e2c <interrupt_579>:
    4e2c:	11590004 	cmpne	r9, r4

00004e30 <l4743>:
    4e30:	52cf543a 	sbcpl	r5, pc, #973078528	; 0x3a000000

00004e34 <l4744>:
    4e34:	211b0063 	tstcs	fp, r3, rrx

00004e38 <l4745>:
    4e38:	211b0006 	tstcs	fp, r6

00004e3c <interrupt_565>:
    4e3c:	e3a0801c 	mov	r8, #28

00004e40 <interrupt_160>:
    4e40:	719de0f8 	ldrshvc	lr, [sp, r8]

00004e44 <l4748>:
    4e44:	efbdc0be 	svc	0x00bdc0be

00004e48 <l4749>:
    4e48:	d59d6018 	ldrle	r6, [sp, #24]

00004e4c <interrupt_162>:
    4e4c:	e191cacf 	orrs	ip, r1, pc, asr #21

00004e50 <l4751>:
    4e50:	a0fc000b 	rscsge	r0, ip, fp

00004e54 <interrupt_914>:
    4e54:	e014014c 	ands	r0, r4, ip, asr #2

00004e58 <l4753>:
    4e58:	e3a0600c 	mov	r6, #12

00004e5c <l4754>:
    4e5c:	e19d10f6 	ldrsh	r1, [sp, r6]

00004e60 <l4755>:
    4e60:	81720870 	cmnhi	r2, r0, ror r8

00004e64 <l4756>:
    4e64:	d00face1 	andle	sl, pc, r1, ror #25

00004e68 <interrupt_360>:
    4e68:	c1730068 	cmngt	r3, r8, rrx

00004e6c <l4758>:
    4e6c:	101e2d8e 	andsne	r2, lr, lr, lsl #27

00004e70 <l4759>:
    4e70:	c5cd4027 	strbgt	r4, [sp, #39]	; 0x27

00004e74 <l4760>:
    4e74:	e59f5000 	ldr	r5, [pc]	; 4e7c <l4762>

00004e78 <l4761>:
    4e78:	ea000000 	b	4e80 <interrupt_257>

00004e7c <l4762>:
    4e7c:	000fffb8 	.word	0x000fffb8

00004e80 <interrupt_257>:
    4e80:	e145909a 	swpb	r9, sl, [r5]

00004e84 <l4764>:
    4e84:	d0c5746e 	sbcle	r7, r5, lr, ror #8

00004e88 <l4765>:
    4e88:	116f7f1c 	clzne	r7, ip

00004e8c <interrupt_233>:
    4e8c:	e0bb0066 	adcs	r0, fp, r6, rrx

00004e90 <l4767>:
    4e90:	e3a07014 	mov	r7, #20

00004e94 <l4768>:
    4e94:	e7bd4007 	ldr	r4, [sp, r7]!

00004e98 <interrupt_664>:
    4e98:	c35e0919 	cmpgt	lr, #409600	; 0x64000

00004e9c <l4770>:
    4e9c:	e1c00004 	bic	r0, r0, r4

00004ea0 <interrupt_476>:
    4ea0:	11cda0b4 	strhne	sl, [sp, #4]

00004ea4 <l4772>:
    4ea4:	e52dc034 	str	ip, [sp, #-52]!	; 0x34

00004ea8 <l4773>:
    4ea8:	e9bd4e67 	ldmib	sp!, {r0, r1, r2, r5, r6, r9, sl, fp, lr}

00004eac <interrupt_135>:
    4eac:	e3a0600c 	mov	r6, #12

00004eb0 <l4775>:
    4eb0:	e60df006 	str	pc, [sp], -r6

00004eb4 <l4776>:
    4eb4:	e1e0306e 	mvn	r3, lr, rrx

00004eb8 <interrupt_932>:
    4eb8:	e93d4808 	ldmdb	sp!, {r3, fp, lr}

00004ebc <interrupt_0>:
    4ebc:	158d101c 	strne	r1, [sp, #28]

00004ec0 <interrupt_400>:
    4ec0:	95cdc017 	strbls	ip, [sp, #23]

00004ec4 <l4780>:
    4ec4:	ef4b8255 	svc	0x004b8255

00004ec8 <l4781>:
    4ec8:	c2159c5d 	andsgt	r9, r5, #23808	; 0x5d00

00004ecc <interrupt_923>:
    4ecc:	e0960957 	adds	r0, r6, r7, asr r9

00004ed0 <l4783>:
    4ed0:	e16fef17 	clz	lr, r7

00004ed4 <l4784>:
    4ed4:	e1871000 	orr	r1, r7, r0

00004ed8 <l4785>:
    4ed8:	21ddb3d6 	ldrsbcs	fp, [sp, #54]	; 0x36

00004edc <l4786>:
    4edc:	01390006 	teqeq	r9, r6

00004ee0 <l4787>:
    4ee0:	c0d2e637 	sbcsgt	lr, r2, r7, lsr r6

00004ee4 <l4788>:
    4ee4:	ea000003 	b	4ef8 <l4793>

00004ee8 <interrupt_161>:
    4ee8:	e2801089 	add	r1, r0, #137	; 0x89

00004eec <l4790>:
    4eec:	01b01074 	rorseq	r1, r4, r0

00004ef0 <l4791>:
    4ef0:	2051106b 	subscs	r1, r1, fp, rrx

00004ef4 <l4792>:
    4ef4:	ea000000 	b	4efc <l4794>

00004ef8 <l4793>:
    4ef8:	eafffffb 	b	4eec <l4790>

00004efc <l4794>:
    4efc:	817103ec 	cmnhi	r1, ip, ror #7

00004f00 <l4795>:
    4f00:	e5dd401f 	ldrb	r4, [sp, #31]

00004f04 <l4796>:
    4f04:	e05c8353 	subs	r8, ip, r3, asr r3

00004f08 <l4797>:
    4f08:	e3a09008 	mov	r9, #8

00004f0c <interrupt_841>:
    4f0c:	e11d60b9 	ldrh	r6, [sp, -r9]

00004f10 <l4799>:
    4f10:	8affffff 	bhi	4f14 <l4800>

00004f14 <l4800>:
    4f14:	c0a743a8 	adcgt	r4, r7, r8, lsr #7

00004f18 <l4801>:
    4f18:	e3a0b01d 	mov	fp, #29

00004f1c <l4802>:
    4f1c:	a19d30db 	ldrsbge	r3, [sp, fp]

00004f20 <interrupt_102>:
    4f20:	e31e0c3d 	tst	lr, #15616	; 0x3d00

00004f24 <l4804>:
    4f24:	01330004 	teqeq	r3, r4

00004f28 <l4805>:
    4f28:	e0938004 	adds	r8, r3, r4

00004f2c <l4806>:
    4f2c:	927c5665 	rsbsls	r5, ip, #105906176	; 0x6500000

00004f30 <l4807>:
    4f30:	a06bc00c 	rsbge	ip, fp, ip

00004f34 <l4808>:
    4f34:	e59fc000 	ldr	ip, [pc]	; 4f3c <l4810>

00004f38 <l4809>:
    4f38:	ea000000 	b	4f40 <l4811>

00004f3c <l4810>:
    4f3c:	000fffbc 	.word	0x000fffbc

00004f40 <l4811>:
    4f40:	e14ce092 	swpb	lr, r2, [ip]

00004f44 <l4812>:
    4f44:	e3560a9f 	cmp	r6, #651264	; 0x9f000

00004f48 <l4813>:
    4f48:	e59f3000 	ldr	r3, [pc]	; 4f50 <interrupt_371>

00004f4c <l4814>:
    4f4c:	ea000000 	b	4f54 <l4816>

00004f50 <interrupt_371>:
    4f50:	000fffc8 	.word	0x000fffc8

00004f54 <l4816>:
    4f54:	01436094 	swpbeq	r6, r4, [r3]

00004f58 <l4817>:
    4f58:	500a4414 	andpl	r4, sl, r4, lsl r4

00004f5c <l4818>:
    4f5c:	e1350859 	teq	r5, r9, asr r8

00004f60 <l4819>:
    4f60:	415d80ba 	ldrhmi	r8, [sp, #-10]

00004f64 <l4820>:
    4f64:	e3a01035 	mov	r1, #53	; 0x35

00004f68 <l4821>:
    4f68:	77cd9001 	strbvc	r9, [sp, r1]

00004f6c <l4822>:
    4f6c:	e181600e 	orr	r6, r1, lr

00004f70 <l4823>:
    4f70:	204c0064 	subcs	r0, ip, r4, rrx

00004f74 <l4824>:
    4f74:	e23e98e6 	eors	r9, lr, #15073280	; 0xe60000

00004f78 <l4825>:
    4f78:	e1dd52de 	ldrsb	r5, [sp, #46]	; 0x2e

00004f7c <l4826>:
    4f7c:	e1db0004 	bics	r0, fp, r4

00004f80 <l4827>:
    4f80:	e1150002 	tst	r5, r2

00004f84 <l4828>:
    4f84:	616fcf1c 	clzvs	ip, ip

00004f88 <l4829>:
    4f88:	e9bd153f 	ldmib	sp!, {r0, r1, r2, r3, r4, r5, r8, sl, ip}

00004f8c <l4830>:
    4f8c:	e16fef1e 	clz	lr, lr

00004f90 <l4831>:
    4f90:	e1540062 	cmp	r4, r2, rrx

00004f94 <l4832>:
    4f94:	e1cda0b6 	strh	sl, [sp, #6]

00004f98 <l4833>:
    4f98:	e3a04002 	mov	r4, #2

00004f9c <l4834>:
    4f9c:	619dc0b4 	ldrhvs	ip, [sp, r4]

00004fa0 <l4835>:
    4fa0:	7a000002 	bvc	4fb0 <interrupt_167>

00004fa4 <l4836>:
    4fa4:	e2801005 	add	r1, r0, #5

00004fa8 <l4837>:
    4fa8:	e25e487b 	subs	r4, lr, #8060928	; 0x7b0000

00004fac <l4838>:
    4fac:	ea000000 	b	4fb4 <l4840>

00004fb0 <interrupt_167>:
    4fb0:	eafffffc 	b	4fa8 <l4837>

00004fb4 <l4840>:
    4fb4:	e3a02014 	mov	r2, #20

00004fb8 <l4841>:
    4fb8:	e7bd1002 	ldr	r1, [sp, r2]!

00004fbc <interrupt_552>:
    4fbc:	e59f4000 	ldr	r4, [pc]	; 4fc4 <l4844>

00004fc0 <l4843>:
    4fc0:	ea000000 	b	4fc8 <interrupt_29>

00004fc4 <l4844>:
    4fc4:	000fffa8 	.word	0x000fffa8

00004fc8 <interrupt_29>:
    4fc8:	c144109e 	swpbgt	r1, lr, [r4]

00004fcc <interrupt_468>:
    4fcc:	a13a0253 	teqge	sl, r3, asr r2

00004fd0 <l4847>:
    4fd0:	e41d903c 	ldr	r9, [sp], #-60	; 0x3c

00004fd4 <l4848>:
    4fd4:	e59fe000 	ldr	lr, [pc]	; 4fdc <l4850>

00004fd8 <l4849>:
    4fd8:	ea000000 	b	4fe0 <l4851>

00004fdc <l4850>:
    4fdc:	000fffc4 	.word	0x000fffc4

00004fe0 <l4851>:
    4fe0:	e10e5099 	swp	r5, r9, [lr]

00004fe4 <l4852>:
    4fe4:	a048400a 	subge	r4, r8, sl

00004fe8 <l4853>:
    4fe8:	91dd33b0 	ldrhls	r3, [sp, #48]	; 0x30

00004fec <l4854>:
    4fec:	41500ee1 	cmpmi	r0, r1, ror #29

00004ff0 <l4855>:
    4ff0:	3a000007 	bcc	5014 <l4864>

00004ff4 <interrupt_949>:
    4ff4:	92b2326f 	adcsls	r3, r2, #-268435450	; 0xf0000006

00004ff8 <l4857>:
    4ff8:	20559c75 	subscs	r9, r5, r5, ror ip

00004ffc <l4858>:
    4ffc:	81969005 	orrshi	r9, r6, r5

00005000 <interrupt_442>:
    5000:	e25314b9 	subs	r1, r3, #-1191182336	; 0xb9000000

00005004 <l4860>:
    5004:	e208937a 	and	r9, r8, #-402653183	; 0xe8000001

00005008 <l4861>:
    5008:	e0bcc060 	adcs	ip, ip, r0, rrx

0000500c <l4862>:
    500c:	53b08acd 	movspl	r8, #839680	; 0xcd000

00005010 <l4863>:
    5010:	e1871059 	orr	r1, r7, r9, asr r0

00005014 <l4864>:
    5014:	e183206a 	orr	r2, r3, sl, rrx

00005018 <l4865>:
    5018:	615d40d6 	ldrsbvs	r4, [sp, #-6]

0000501c <interrupt_165>:
    501c:	82465e5e 	subhi	r5, r6, #1504	; 0x5e0

00005020 <l4867>:
    5020:	a99d0033 	ldmibge	sp, {r0, r1, r4, r5}

00005024 <l4868>:
    5024:	63340c06 	teqvs	r4, #1536	; 0x600

00005028 <l4869>:
    5028:	ef7bff52 	svc	0x007bff52

0000502c <l4870>:
    502c:	e0af5608 	adc	r5, pc, r8, lsl #12

00005030 <l4871>:
    5030:	e3a03040 	mov	r3, #64	; 0x40

00005034 <l4872>:
    5034:	279de003 	ldrcs	lr, [sp, r3]

00005038 <l4873>:
    5038:	ef80b397 	svc	0x0080b397

0000503c <l4874>:
    503c:	4a000004 	bmi	5054 <l4880>

00005040 <l4875>:
    5040:	e2801002 	add	r1, r0, #2

00005044 <l4876>:
    5044:	713704c3 	teqvc	r7, r3, asr #9

00005048 <l4877>:
    5048:	e1f07003 	mvns	r7, r3

0000504c <l4878>:
    504c:	e05b2825 	subs	r2, fp, r5, lsr #16

00005050 <l4879>:
    5050:	ea000000 	b	5058 <l4881>

00005054 <l4880>:
    5054:	eafffffa 	b	5044 <l4876>

00005058 <l4881>:
    5058:	e1c7400c 	bic	r4, r7, ip

0000505c <l4882>:
    505c:	e59f8000 	ldr	r8, [pc]	; 5064 <l4884>

00005060 <l4883>:
    5060:	ea000000 	b	5068 <l4885>

00005064 <l4884>:
    5064:	000fffa8 	.word	0x000fffa8

00005068 <l4885>:
    5068:	51484094 	swpbpl	r4, r4, [r8]

0000506c <l4886>:
    506c:	e9ad071b 	stmib	sp!, {r0, r1, r3, r4, r8, r9, sl}

00005070 <l4887>:
    5070:	e59f2000 	ldr	r2, [pc]	; 5078 <l4889>

00005074 <l4888>:
    5074:	ea000000 	b	507c <interrupt_294>

00005078 <l4889>:
    5078:	000fffc8 	.word	0x000fffc8

0000507c <interrupt_294>:
    507c:	e1026091 	swp	r6, r1, [r2]

00005080 <l4891>:
    5080:	ea000006 	b	50a0 <l4899>

00005084 <l4892>:
    5084:	e2801005 	add	r1, r0, #5

00005088 <l4893>:
    5088:	709ac004 	addsvc	ip, sl, r4

0000508c <l4894>:
    508c:	913b0007 	teqls	fp, r7

00005090 <interrupt_367>:
    5090:	916fbf1b 	clzls	fp, fp

00005094 <l4896>:
    5094:	b207b186 	andlt	fp, r7, #-2147483615	; 0x80000021

00005098 <l4897>:
    5098:	e16f8f15 	clz	r8, r5

0000509c <l4898>:
    509c:	ea000000 	b	50a4 <l4900>

000050a0 <l4899>:
    50a0:	eafffff8 	b	5088 <l4893>

000050a4 <l4900>:
    50a4:	e1f019e6 	mvns	r1, r6, ror #19

000050a8 <l4901>:
    50a8:	e14de1b0 	strh	lr, [sp, #-16]

000050ac <l4902>:
    50ac:	e3a0e020 	mov	lr, #32

000050b0 <l4903>:
    50b0:	819d00fe 	ldrshhi	r0, [sp, lr]

000050b4 <interrupt_192>:
    50b4:	e88d00c0 	stm	sp, {r6, r7}

000050b8 <l4905>:
    50b8:	ca000006 	bgt	50d8 <l4913>

000050bc <interrupt_740>:
    50bc:	518979e4 	orrpl	r7, r9, r4, ror #19

000050c0 <l4907>:
    50c0:	005b840e 	subseq	r8, fp, lr, lsl #8

000050c4 <l4908>:
    50c4:	30d7cdc9 	sbcscc	ip, r7, r9, asr #27

000050c8 <l4909>:
    50c8:	d046a009 	suble	sl, r6, r9

000050cc <l4910>:
    50cc:	e0d3aee7 	sbcs	sl, r3, r7, ror #29

000050d0 <l4911>:
    50d0:	428735b1 	addmi	r3, r7, #742391808	; 0x2c400000

000050d4 <interrupt_572>:
    50d4:	b05b47c5 	subslt	r4, fp, r5, asr #15

000050d8 <l4913>:
    50d8:	e0586c23 	subs	r6, r8, r3, lsr #24

000050dc <interrupt_495>:
    50dc:	c39acdd1 	orrsgt	ip, sl, #13376	; 0x3440

000050e0 <interrupt_910>:
    50e0:	b99d0046 	ldmiblt	sp, {r1, r2, r6}

000050e4 <l4916>:
    50e4:	e3a04020 	mov	r4, #32

000050e8 <l4917>:
    50e8:	775da004 	ldrbvc	sl, [sp, -r4]

000050ec <l4918>:
    50ec:	e59f7000 	ldr	r7, [pc]	; 50f4 <l4920>

000050f0 <l4919>:
    50f0:	ea000000 	b	50f8 <l4921>

000050f4 <l4920>:
    50f4:	000fffd0 	.word	0x000fffd0

000050f8 <l4921>:
    50f8:	9107e09a 	swpls	lr, sl, [r7]

000050fc <l4922>:
    50fc:	efc341d0 	svc	0x00c341d0

00005100 <l4923>:
    5100:	e0b7ec5b 	adcs	lr, r7, fp, asr ip

00005104 <l4924>:
    5104:	e92d0711 	push	{r0, r4, r8, r9, sl}

00005108 <l4925>:
    5108:	e06e000f 	rsb	r0, lr, pc

0000510c <interrupt_216>:
    510c:	e3a0602e 	mov	r6, #46	; 0x2e

00005110 <l4927>:
    5110:	418d70b6 	strhmi	r7, [sp, r6]

00005114 <l4928>:
    5114:	30912009 	addscc	r2, r1, r9

00005118 <l4929>:
    5118:	e3b0388f 	movs	r3, #9371648	; 0x8f0000

0000511c <interrupt_644>:
    511c:	9a000003 	bls	5130 <l4935>

00005120 <l4931>:
    5120:	728ea6e2 	addvc	sl, lr, #236978176	; 0xe200000

00005124 <interrupt_391>:
    5124:	e0c64069 	sbc	r4, r6, r9, rrx

00005128 <l4933>:
    5128:	61d27008 	bicsvs	r7, r2, r8

0000512c <l4934>:
    512c:	60a18858 	adcvs	r8, r1, r8, asr r8

00005130 <l4935>:
    5130:	713a0002 	teqvc	sl, r2

00005134 <l4936>:
    5134:	02099957 	andeq	r9, r9, #1425408	; 0x15c000

00005138 <l4937>:
    5138:	63720795 	cmnvs	r2, #39059456	; 0x2540000

0000513c <interrupt_321>:
    513c:	5096106f 	addspl	r1, r6, pc, rrx

00005140 <l4939>:
    5140:	71b00005 	movsvc	r0, r5

00005144 <interrupt_414>:
    5144:	e0c586c7 	sbc	r8, r5, r7, asr #13

00005148 <l4941>:
    5148:	e59f9000 	ldr	r9, [pc]	; 5150 <l4943>

0000514c <l4942>:
    514c:	ea000000 	b	5154 <l4944>

00005150 <l4943>:
    5150:	000fffb8 	.word	0x000fffb8

00005154 <l4944>:
    5154:	81093091 	swphi	r3, r1, [r9]

00005158 <l4945>:
    5158:	9a000006 	bls	5178 <l4953>

0000515c <l4946>:
    515c:	71c66009 	bicvc	r6, r6, r9

00005160 <interrupt_971>:
    5160:	e2b9317a 	adcs	r3, r9, #-2147483618	; 0x8000001e

00005164 <l4948>:
    5164:	3394780d 	orrscc	r7, r4, #851968	; 0xd0000

00005168 <l4949>:
    5168:	916f9f17 	clzls	r9, r7

0000516c <l4950>:
    516c:	802a106c 	eorhi	r1, sl, ip, rrx

00005170 <l4951>:
    5170:	71907c31 	orrsvc	r7, r0, r1, lsr ip

00005174 <l4952>:
    5174:	504ec00b 	subpl	ip, lr, fp

00005178 <l4953>:
    5178:	a0534003 	subsge	r4, r3, r3

0000517c <l4954>:
    517c:	95cdc004 	strbls	ip, [sp, #4]

00005180 <l4955>:
    5180:	e0c7551c 	sbc	r5, r7, ip, lsl r5

00005184 <l4956>:
    5184:	e3a00021 	mov	r0, #33	; 0x21

00005188 <l4957>:
    5188:	e7cde000 	strb	lr, [sp, r0]

0000518c <l4958>:
    518c:	ea000003 	b	51a0 <l4963>

00005190 <l4959>:
    5190:	e28010e8 	add	r1, r0, #232	; 0xe8

00005194 <l4960>:
    5194:	e018a53c 	ands	sl, r8, ip, lsr r5

00005198 <l4961>:
    5198:	e2143aa7 	ands	r3, r4, #684032	; 0xa7000

0000519c <interrupt_225>:
    519c:	ea000000 	b	51a4 <l4964>

000051a0 <l4963>:
    51a0:	eafffffb 	b	5194 <l4960>

000051a4 <l4964>:
    51a4:	339510e8 	orrscc	r1, r5, #232	; 0xe8

000051a8 <l4965>:
    51a8:	e3a0e010 	mov	lr, #16

000051ac <interrupt_985>:
    51ac:	278d100e 	strcs	r1, [sp, lr]

000051b0 <l4967>:
    51b0:	e59fb000 	ldr	fp, [pc]	; 51b8 <l4969>

000051b4 <l4968>:
    51b4:	ea000000 	b	51bc <l4970>

000051b8 <l4969>:
    51b8:	000fffac 	.word	0x000fffac

000051bc <l4970>:
    51bc:	e14b809a 	swpb	r8, sl, [fp]

000051c0 <l4971>:
    51c0:	e24ba763 	sub	sl, fp, #25952256	; 0x18c0000

000051c4 <l4972>:
    51c4:	e3a0c004 	mov	ip, #4

000051c8 <l4973>:
    51c8:	219d20fc 	ldrshcs	r2, [sp, ip]

000051cc <l4974>:
    51cc:	e55d700a 	ldrb	r7, [sp, #-10]

000051d0 <l4975>:
    51d0:	e59f2000 	ldr	r2, [pc]	; 51d8 <l4977>

000051d4 <l4976>:
    51d4:	ea000000 	b	51dc <l4978>

000051d8 <l4977>:
    51d8:	000fffe8 	.word	0x000fffe8

000051dc <l4978>:
    51dc:	71429099 	swpbvc	r9, r9, [r2]

000051e0 <l4979>:
    51e0:	b048e00c 	sublt	lr, r8, ip

000051e4 <l4980>:
    51e4:	e3a0a008 	mov	sl, #8

000051e8 <interrupt_432>:
    51e8:	711d60ba 	ldrhvc	r6, [sp, -sl]

000051ec <l4982>:
    51ec:	73c2e13a 	bicvc	lr, r2, #-2147483634	; 0x8000000e

000051f0 <interrupt_274>:
    51f0:	691d0020 	ldmdbvs	sp, {r5}

000051f4 <interrupt_532>:
    51f4:	01530065 	cmpeq	r3, r5, rrx

000051f8 <l4985>:
    51f8:	e077400a 	rsbs	r4, r7, sl

000051fc <l4986>:
    51fc:	e0e40970 	rsc	r0, r4, r0, ror r9

00005200 <interrupt_445>:
    5200:	e3a0b016 	mov	fp, #22

00005204 <l4988>:
    5204:	e19d50bb 	ldrh	r5, [sp, fp]

00005208 <l4989>:
    5208:	e3a05020 	mov	r5, #32

0000520c <l4990>:
    520c:	e69d2005 	ldr	r2, [sp], r5

00005210 <l4991>:
    5210:	e99d4748 	ldmib	sp, {r3, r6, r8, r9, sl, lr}

00005214 <l4992>:
    5214:	401fb003 	andsmi	fp, pc, r3

00005218 <l4993>:
    5218:	e2118d75 	ands	r8, r1, #7488	; 0x1d40

0000521c <l4994>:
    521c:	70618000 	rsbvc	r8, r1, r0

00005220 <l4995>:
    5220:	e1a08007 	mov	r8, r7

00005224 <l4996>:
    5224:	e1f02001 	mvns	r2, r1

00005228 <l4997>:
    5228:	e1a00000 	nop			; (mov r0, r0)

0000522c <l4998>:
    522c:	e59f2000 	ldr	r2, [pc]	; 5234 <interrupt_358>

00005230 <l4999>:
    5230:	ea000000 	b	5238 <l5001>

00005234 <interrupt_358>:
    5234:	000fffd0 	.word	0x000fffd0

00005238 <l5001>:
    5238:	11021093 	swpne	r1, r3, [r2]

0000523c <end>:
    523c:	eafffffe 	b	523c <end>
