
fb_1000.o:     file format elf32-littlearm


Disassembly of section .text:

00000000 <main>:
       0:	e05f000f 	subs	r0, pc, pc
       4:	e59fd000 	ldr	sp, [pc]	; c <val>
       8:	ea000000 	b	10 <next>

0000000c <val>:
       c:	000ffff0 	.word	0x000ffff0

00000010 <next>:
      10:	e59f1000 	ldr	r1, [pc]	; 18 <val1>
      14:	ea000000 	b	1c <next1>

00000018 <val1>:
      18:	239b097f 	.word	0x239b097f

0000001c <next1>:
      1c:	e59f2000 	ldr	r2, [pc]	; 24 <val2>
      20:	ea000000 	b	28 <next2>

00000024 <val2>:
      24:	7d81d141 	.word	0x7d81d141

00000028 <next2>:
      28:	e59f3000 	ldr	r3, [pc]	; 30 <val3>
      2c:	ea000000 	b	34 <next3>

00000030 <val3>:
      30:	8de9656b 	.word	0x8de9656b

00000034 <next3>:
      34:	e59f4000 	ldr	r4, [pc]	; 3c <val4>
      38:	ea000000 	b	40 <next4>

0000003c <val4>:
      3c:	4cff3c40 	.word	0x4cff3c40

00000040 <next4>:
      40:	e59f5000 	ldr	r5, [pc]	; 48 <val5>
      44:	ea000000 	b	4c <next5>

00000048 <val5>:
      48:	e30ce46c 	.word	0xe30ce46c

0000004c <next5>:
      4c:	e59f6000 	ldr	r6, [pc]	; 54 <val6>
      50:	ea000000 	b	58 <next6>

00000054 <val6>:
      54:	f973f898 	.word	0xf973f898

00000058 <next6>:
      58:	e59f7000 	ldr	r7, [pc]	; 60 <val7>
      5c:	ea000000 	b	64 <next7>

00000060 <val7>:
      60:	1c0b9522 	.word	0x1c0b9522

00000064 <next7>:
      64:	e59f8000 	ldr	r8, [pc]	; 6c <val8>
      68:	ea000000 	b	70 <next8>

0000006c <val8>:
      6c:	5af3850d 	.word	0x5af3850d

00000070 <next8>:
      70:	e59f9000 	ldr	r9, [pc]	; 78 <val9>
      74:	ea000000 	b	7c <next9>

00000078 <val9>:
      78:	82ff4b00 	.word	0x82ff4b00

0000007c <next9>:
      7c:	e59fa000 	ldr	sl, [pc]	; 84 <val10>
      80:	ea000000 	b	88 <next10>

00000084 <val10>:
      84:	87b4ab64 	.word	0x87b4ab64

00000088 <next10>:
      88:	e59fb000 	ldr	fp, [pc]	; 90 <val11>
      8c:	ea000000 	b	94 <next11>

00000090 <val11>:
      90:	7b48a8cc 	.word	0x7b48a8cc

00000094 <next11>:
      94:	e59fc000 	ldr	ip, [pc]	; 9c <val12>
      98:	ea000000 	b	a0 <next12>

0000009c <val12>:
      9c:	8742dffa 	.word	0x8742dffa

000000a0 <next12>:
      a0:	e59fe000 	ldr	lr, [pc]	; a8 <val14>
      a4:	ea000000 	b	ac <next14>

000000a8 <val14>:
      a8:	c4ed9f8f 	.word	0xc4ed9f8f

000000ac <next14>:
      ac:	e59f1000 	ldr	r1, [pc]	; b4 <val15>
      b0:	ea000000 	b	b8 <next15>

000000b4 <val15>:
      b4:	2ac9b1f5 	.word	0x2ac9b1f5

000000b8 <next15>:
      b8:	e58d1000 	str	r1, [sp]
      bc:	e59f1000 	ldr	r1, [pc]	; c4 <val16>
      c0:	ea000000 	b	c8 <next16>

000000c4 <val16>:
      c4:	70252eb2 	.word	0x70252eb2

000000c8 <next16>:
      c8:	e50d1004 	str	r1, [sp, #-4]
      cc:	e59f1000 	ldr	r1, [pc]	; d4 <val17>
      d0:	ea000000 	b	d8 <next17>

000000d4 <val17>:
      d4:	bc2a2e8d 	.word	0xbc2a2e8d

000000d8 <next17>:
      d8:	e50d1008 	str	r1, [sp, #-8]
      dc:	e59f1000 	ldr	r1, [pc]	; e4 <val18>
      e0:	ea000000 	b	e8 <next18>

000000e4 <val18>:
      e4:	b0af129d 	.word	0xb0af129d

000000e8 <next18>:
      e8:	e50d100c 	str	r1, [sp, #-12]
      ec:	e59f1000 	ldr	r1, [pc]	; f4 <val19>
      f0:	ea000000 	b	f8 <next19>

000000f4 <val19>:
      f4:	af5a8145 	.word	0xaf5a8145

000000f8 <next19>:
      f8:	e50d1010 	str	r1, [sp, #-16]
      fc:	e59f1000 	ldr	r1, [pc]	; 104 <val20>
     100:	ea000000 	b	108 <next20>

00000104 <val20>:
     104:	6898aad0 	.word	0x6898aad0

00000108 <next20>:
     108:	e50d1014 	str	r1, [sp, #-20]
     10c:	e59f1000 	ldr	r1, [pc]	; 114 <val21>
     110:	ea000000 	b	118 <next21>

00000114 <val21>:
     114:	50688887 	.word	0x50688887

00000118 <next21>:
     118:	e50d1018 	str	r1, [sp, #-24]
     11c:	e59f1000 	ldr	r1, [pc]	; 124 <val22>
     120:	ea000000 	b	128 <next22>

00000124 <val22>:
     124:	04005257 	.word	0x04005257

00000128 <next22>:
     128:	e50d101c 	str	r1, [sp, #-28]
     12c:	e59f1000 	ldr	r1, [pc]	; 134 <val23>
     130:	ea000000 	b	138 <next23>

00000134 <val23>:
     134:	17899ffc 	.word	0x17899ffc

00000138 <next23>:
     138:	e50d1020 	str	r1, [sp, #-32]
     13c:	e59f1000 	ldr	r1, [pc]	; 144 <val24>
     140:	ea000000 	b	148 <next24>

00000144 <val24>:
     144:	8c295354 	.word	0x8c295354

00000148 <next24>:
     148:	e50d1024 	str	r1, [sp, #-36]	; 0x24
     14c:	e59f1000 	ldr	r1, [pc]	; 154 <val25>
     150:	ea000000 	b	158 <next25>

00000154 <val25>:
     154:	afed0334 	.word	0xafed0334

00000158 <next25>:
     158:	e50d1028 	str	r1, [sp, #-40]	; 0x28
     15c:	e59f1000 	ldr	r1, [pc]	; 164 <val26>
     160:	ea000000 	b	168 <next26>

00000164 <val26>:
     164:	d26eb317 	.word	0xd26eb317

00000168 <next26>:
     168:	e50d102c 	str	r1, [sp, #-44]	; 0x2c
     16c:	e59f1000 	ldr	r1, [pc]	; 174 <val27>
     170:	ea000000 	b	178 <next27>

00000174 <val27>:
     174:	1114e7da 	.word	0x1114e7da

00000178 <next27>:
     178:	e50d1030 	str	r1, [sp, #-48]	; 0x30
     17c:	e59f1000 	ldr	r1, [pc]	; 184 <val28>
     180:	ea000000 	b	188 <next28>

00000184 <val28>:
     184:	5914d7e0 	.word	0x5914d7e0

00000188 <next28>:
     188:	e50d1034 	str	r1, [sp, #-52]	; 0x34
     18c:	e59f1000 	ldr	r1, [pc]	; 194 <val29>
     190:	ea000000 	b	198 <next29>

00000194 <val29>:
     194:	4a16483c 	.word	0x4a16483c

00000198 <next29>:
     198:	e50d1038 	str	r1, [sp, #-56]	; 0x38
     19c:	e59f1000 	ldr	r1, [pc]	; 1a4 <val30>
     1a0:	ea000000 	b	1a8 <next30>

000001a4 <val30>:
     1a4:	ffc6b1fb 	.word	0xffc6b1fb

000001a8 <next30>:
     1a8:	e50d103c 	str	r1, [sp, #-60]	; 0x3c
     1ac:	e59f1000 	ldr	r1, [pc]	; 1b4 <val31>
     1b0:	ea000000 	b	1b8 <next31>

000001b4 <val31>:
     1b4:	43ff42d4 	.word	0x43ff42d4

000001b8 <next31>:
     1b8:	e50d1040 	str	r1, [sp, #-64]	; 0x40
     1bc:	e59f1000 	ldr	r1, [pc]	; 1c4 <val32>
     1c0:	ea000000 	b	1c8 <next32>

000001c4 <val32>:
     1c4:	58cd7587 	.word	0x58cd7587

000001c8 <next32>:
     1c8:	e50d1044 	str	r1, [sp, #-68]	; 0x44
     1cc:	e59f1000 	ldr	r1, [pc]	; 1d4 <val33>
     1d0:	ea000000 	b	1d8 <next33>

000001d4 <val33>:
     1d4:	e0e8a03e 	.word	0xe0e8a03e

000001d8 <next33>:
     1d8:	e50d1048 	str	r1, [sp, #-72]	; 0x48
     1dc:	e59f1000 	ldr	r1, [pc]	; 1e4 <val34>
     1e0:	ea000000 	b	1e8 <next34>

000001e4 <val34>:
     1e4:	e0a1b25d 	.word	0xe0a1b25d

000001e8 <next34>:
     1e8:	e50d104c 	str	r1, [sp, #-76]	; 0x4c
     1ec:	e59f1000 	ldr	r1, [pc]	; 1f4 <val35>
     1f0:	ea000000 	b	1f8 <next35>

000001f4 <val35>:
     1f4:	77b4cec8 	.word	0x77b4cec8

000001f8 <next35>:
     1f8:	e50d1050 	str	r1, [sp, #-80]	; 0x50

000001fc <l1>:
     1fc:	c390178e 	orrsgt	r1, r0, #37224448	; 0x2380000

00000200 <l2>:
     200:	e0feb88b 	rscs	fp, lr, fp, lsl #17

00000204 <l3>:
     204:	61e08004 	mvnvs	r8, r4

00000208 <l4>:
     208:	eaffffff 	b	20c <l5>

0000020c <l5>:
     20c:	62cc0ae7 	sbcvs	r0, ip, #946176	; 0xe7000

00000210 <l6>:
     210:	8139016e 	teqhi	r9, lr, ror #2

00000214 <l7>:
     214:	b11c073b 	tstlt	ip, fp, lsr r7

00000218 <l8>:
     218:	e01854a7 	ands	r5, r8, r7, lsr #9

0000021c <l9>:
     21c:	e0a87008 	adc	r7, r8, r8

00000220 <l10>:
     220:	a040e913 	subge	lr, r0, r3, lsl r9

00000224 <l11>:
     224:	e1170e36 	tst	r7, r6, lsr lr

00000228 <l12>:
     228:	e3700eed 	cmn	r0, #3792	; 0xed0

0000022c <l13>:
     22c:	a089e98e 	addge	lr, r9, lr, lsl #19

00000230 <l14>:
     230:	c1120374 	tstgt	r2, r4, ror r3

00000234 <l15>:
     234:	60bb2003 	adcsvs	r2, fp, r3

00000238 <l16>:
     238:	908a500e 	addls	r5, sl, lr

0000023c <l17>:
     23c:	e17a0411 	cmn	sl, r1, lsl r4

00000240 <l18>:
     240:	e1160955 	tst	r6, r5, asr r9

00000244 <l19>:
     244:	ba000006 	blt	264 <l27>

00000248 <l20>:
     248:	11830232 	orrne	r0, r3, r2, lsr r2

0000024c <l21>:
     24c:	c3300084 	teqgt	r0, #132	; 0x84

00000250 <l22>:
     250:	91db9061 	bicsls	r9, fp, r1, rrx

00000254 <l23>:
     254:	1269baa1 	rsbne	fp, r9, #659456	; 0xa1000

00000258 <l24>:
     258:	e184706e 	orr	r7, r4, lr, rrx

0000025c <l25>:
     25c:	2376002b 	cmncs	r6, #43	; 0x2b

00000260 <l26>:
     260:	e1160a3a 	tst	r6, sl, lsr sl

00000264 <l27>:
     264:	e048c06f 	sub	ip, r8, pc, rrx

00000268 <l28>:
     268:	11958004 	orrsne	r8, r5, r4

0000026c <l29>:
     26c:	e18a906b 	orr	r9, sl, fp, rrx

00000270 <l30>:
     270:	e2d2580b 	sbcs	r5, r2, #720896	; 0xb0000

00000274 <l31>:
     274:	e1840000 	orr	r0, r4, r0

00000278 <l32>:
     278:	e04619eb 	sub	r1, r6, fp, ror #19

0000027c <l33>:
     27c:	e13b0063 	teq	fp, r3, rrx

00000280 <l34>:
     280:	13b0a34d 	movsne	sl, #872415233	; 0x34000001

00000284 <l35>:
     284:	e1560009 	cmp	r6, r9

00000288 <l36>:
     288:	e026b007 	eor	fp, r6, r7

0000028c <l37>:
     28c:	e1f01541 	mvns	r1, r1, asr #10

00000290 <l38>:
     290:	61c223c7 	bicvs	r2, r2, r7, asr #7

00000294 <l39>:
     294:	30243135 	eorcc	r3, r4, r5, lsr r1

00000298 <l40>:
     298:	e0f5a00b 	rscs	sl, r5, fp

0000029c <l41>:
     29c:	400b6005 	andmi	r6, fp, r5

000002a0 <l42>:
     2a0:	e29a3e6b 	adds	r3, sl, #1712	; 0x6b0

000002a4 <l43>:
     2a4:	21a0217c 	rorcs	r2, ip, r1

000002a8 <l44>:
     2a8:	c3800e37 	orrgt	r0, r0, #880	; 0x370

000002ac <l45>:
     2ac:	e02a1002 	eor	r1, sl, r2

000002b0 <l46>:
     2b0:	e21a33dd 	ands	r3, sl, #1946157059	; 0x74000003

000002b4 <l47>:
     2b4:	5070e06e 	rsbspl	lr, r0, lr, rrx

000002b8 <l48>:
     2b8:	e09f3a8e 	adds	r3, pc, lr, lsl #21

000002bc <l49>:
     2bc:	e215b2d7 	ands	fp, r5, #1879048205	; 0x7000000d

000002c0 <l50>:
     2c0:	71e02001 	mvnvc	r2, r1

000002c4 <l51>:
     2c4:	4a000006 	bmi	2e4 <l59>

000002c8 <l52>:
     2c8:	d24aeff5 	suble	lr, sl, #980	; 0x3d4

000002cc <l53>:
     2cc:	60c7600e 	sbcvs	r6, r7, lr

000002d0 <l54>:
     2d0:	b0512978 	subslt	r2, r1, r8, ror r9

000002d4 <l55>:
     2d4:	e1e0b008 	mvn	fp, r8

000002d8 <l56>:
     2d8:	21310000 	teqcs	r1, r0

000002dc <l57>:
     2dc:	21760005 	cmncs	r6, r5

000002e0 <l58>:
     2e0:	022100a2 	eoreq	r0, r1, #162	; 0xa2

000002e4 <l59>:
     2e4:	e0a38f03 	adc	r8, r3, r3, lsl #30

000002e8 <l60>:
     2e8:	e2896243 	add	r6, r9, #805306372	; 0x30000004

000002ec <l61>:
     2ec:	8199e007 	orrshi	lr, r9, r7

000002f0 <l62>:
     2f0:	10236e33 	eorne	r6, r3, r3, lsr lr

000002f4 <l63>:
     2f4:	e16fcf17 	clz	ip, r7

000002f8 <l64>:
     2f8:	a1922a13 	orrsge	r2, r2, r3, lsl sl

000002fc <l65>:
     2fc:	11b03003 	movsne	r3, r3

00000300 <l66>:
     300:	40dc650c 	sbcsmi	r6, ip, ip, lsl #10

00000304 <l67>:
     304:	11580008 	cmpne	r8, r8

00000308 <l68>:
     308:	ca000003 	bgt	31c <l73>

0000030c <l69>:
     30c:	e35f06fd 	cmp	pc, #265289728	; 0xfd00000

00000310 <l70>:
     310:	32cf731a 	sbccc	r7, pc, #1744830464	; 0x68000000

00000314 <l71>:
     314:	e0e52265 	rsc	r2, r5, r5, ror #4

00000318 <l72>:
     318:	809e306b 	addshi	r3, lr, fp, rrx

0000031c <l73>:
     31c:	e1d2a667 	bics	sl, r2, r7, ror #12

00000320 <l74>:
     320:	e1f02168 	mvns	r2, r8, ror #2

00000324 <l75>:
     324:	41570b50 	cmpmi	r7, r0, asr fp

00000328 <l76>:
     328:	a02eb06a 	eorge	fp, lr, sl, rrx

0000032c <l77>:
     32c:	e3d16bc2 	bics	r6, r1, #198656	; 0x30800

00000330 <l78>:
     330:	40acb857 	adcmi	fp, ip, r7, asr r8

00000334 <l79>:
     334:	204c5255 	subcs	r5, ip, r5, asr r2

00000338 <l80>:
     338:	e18f206e 	orr	r2, pc, lr, rrx

0000033c <l81>:
     33c:	00702000 	rsbseq	r2, r0, r0

00000340 <l82>:
     340:	e1849ae5 	orr	r9, r4, r5, ror #21

00000344 <l83>:
     344:	e2458ae5 	sub	r8, r5, #937984	; 0xe5000

00000348 <l84>:
     348:	e24f9283 	sub	r9, pc, #805306376	; 0x30000008

0000034c <l85>:
     34c:	e0df8006 	sbcs	r8, pc, r6

00000350 <l86>:
     350:	e17e0006 	cmn	lr, r6

00000354 <l87>:
     354:	e053aa1b 	subs	sl, r3, fp, lsl sl

00000358 <l88>:
     358:	e043b065 	sub	fp, r3, r5, rrx

0000035c <l89>:
     35c:	e0628000 	rsb	r8, r2, r0

00000360 <l90>:
     360:	e0591e56 	subs	r1, r9, r6, asr lr

00000364 <l91>:
     364:	008b5670 	addeq	r5, fp, r0, ror r6

00000368 <l92>:
     368:	d1150009 	tstle	r5, r9

0000036c <l93>:
     36c:	e333030d 	teq	r3, #872415232	; 0x34000000

00000370 <l94>:
     370:	e3c94e37 	bic	r4, r9, #880	; 0x370

00000374 <l95>:
     374:	61c5200f 	bicvs	r2, r5, pc

00000378 <l96>:
     378:	3a000006 	bcc	398 <l104>

0000037c <l97>:
     37c:	016f4f11 	clzeq	r4, r1

00000380 <l98>:
     380:	e0cb126b 	sbc	r1, fp, fp, ror #4

00000384 <l99>:
     384:	31d50230 	bicscc	r0, r5, r0, lsr r2

00000388 <l100>:
     388:	a06be06c 	rsbge	lr, fp, ip, rrx

0000038c <l101>:
     38c:	22592f57 	subscs	r2, r9, #348	; 0x15c

00000390 <l102>:
     390:	90000473 	andls	r0, r0, r3, ror r4

00000394 <l103>:
     394:	0055ea01 	subseq	lr, r5, r1, lsl #20

00000398 <l104>:
     398:	c1d66370 	bicsgt	r6, r6, r0, ror r3

0000039c <l105>:
     39c:	e33006f6 	teq	r0, #257949696	; 0xf600000

000003a0 <l106>:
     3a0:	5180900c 	orrpl	r9, r0, ip

000003a4 <l107>:
     3a4:	da000000 	ble	3ac <l109>

000003a8 <l108>:
     3a8:	91961988 	orrsls	r1, r6, r8, lsl #19

000003ac <l109>:
     3ac:	435c0097 	cmpmi	ip, #151	; 0x97

000003b0 <l110>:
     3b0:	e354061e 	cmp	r4, #31457280	; 0x1e00000

000003b4 <l111>:
     3b4:	e0e54218 	rsc	r4, r5, r8, lsl r2

000003b8 <l112>:
     3b8:	e0033218 	and	r3, r3, r8, lsl r2

000003bc <l113>:
     3bc:	71180938 	tstvc	r8, r8, lsr r9

000003c0 <l114>:
     3c0:	b030900f 	eorslt	r9, r0, pc

000003c4 <l115>:
     3c4:	41340c50 	teqmi	r4, r0, asr ip

000003c8 <l116>:
     3c8:	81390179 	teqhi	r9, r9, ror r1

000003cc <l117>:
     3cc:	d095032c 	addsle	r0, r5, ip, lsr #6

000003d0 <l118>:
     3d0:	e3973836 	orrs	r3, r7, #3538944	; 0x360000

000003d4 <l119>:
     3d4:	4215501b 	andsmi	r5, r5, #27

000003d8 <l120>:
     3d8:	e08a4872 	add	r4, sl, r2, ror r8

000003dc <l121>:
     3dc:	c3b014b1 	movsgt	r1, #-1325400064	; 0xb1000000

000003e0 <l122>:
     3e0:	537807ab 	cmnpl	r8, #44826624	; 0x2ac0000

000003e4 <l123>:
     3e4:	e079e058 	rsbs	lr, r9, r8, asr r0

000003e8 <l124>:
     3e8:	022a6f86 	eoreq	r6, sl, #536	; 0x218

000003ec <l125>:
     3ec:	e047400a 	sub	r4, r7, sl

000003f0 <l126>:
     3f0:	e1a05002 	mov	r5, r2

000003f4 <l127>:
     3f4:	e1b00009 	movs	r0, r9

000003f8 <l128>:
     3f8:	e084150e 	add	r1, r4, lr, lsl #10

000003fc <l129>:
     3fc:	21330004 	teqcs	r3, r4

00000400 <l130>:
     400:	63730d3f 	cmnvs	r3, #4032	; 0xfc0

00000404 <l131>:
     404:	817c0003 	cmnhi	ip, r3

00000408 <l132>:
     408:	e1d73003 	bics	r3, r7, r3

0000040c <l133>:
     40c:	6195700b 	orrsvs	r7, r5, fp

00000410 <l134>:
     410:	e0486001 	sub	r6, r8, r1

00000414 <l135>:
     414:	429c47b6 	addsmi	r4, ip, #47710208	; 0x2d80000

00000418 <l136>:
     418:	e33b0331 	teq	fp, #-1006632960	; 0xc4000000

0000041c <l137>:
     41c:	215e0237 	cmpcs	lr, r7, lsr r2

00000420 <l138>:
     420:	815e0069 	cmphi	lr, r9, rrx

00000424 <l139>:
     424:	e1863005 	orr	r3, r6, r5

00000428 <l140>:
     428:	319a07c9 	orrscc	r0, sl, r9, asr #15

0000042c <l141>:
     42c:	3001e063 	andcc	lr, r1, r3, rrx

00000430 <l142>:
     430:	72bb724e 	adcsvc	r7, fp, #-536870908	; 0xe0000004

00000434 <l143>:
     434:	31d6b005 	bicscc	fp, r6, r5

00000438 <l144>:
     438:	a073606e 	rsbsge	r6, r3, lr, rrx

0000043c <l145>:
     43c:	6009e062 	andvs	lr, r9, r2, rrx

00000440 <l146>:
     440:	911b0ec5 	tstls	fp, r5, asr #29

00000444 <l147>:
     444:	21e0b003 	mvncs	fp, r3

00000448 <l148>:
     448:	d0e5200f 	rscle	r2, r5, pc

0000044c <l149>:
     44c:	ea000002 	b	45c <l153>

00000450 <l150>:
     450:	e02ec069 	eor	ip, lr, r9, rrx

00000454 <l151>:
     454:	035b0447 	cmpeq	fp, #1191182336	; 0x47000000

00000458 <l152>:
     458:	d3862611 	orrle	r2, r6, #17825792	; 0x1100000

0000045c <l153>:
     45c:	71d06005 	bicsvc	r6, r0, r5

00000460 <l154>:
     460:	c02c700b 	eorgt	r7, ip, fp

00000464 <l155>:
     464:	e036aae6 	eors	sl, r6, r6, ror #21

00000468 <l156>:
     468:	e19f4001 	orrs	r4, pc, r1

0000046c <l157>:
     46c:	a1d57036 	bicsge	r7, r5, r6, lsr r0

00000470 <l158>:
     470:	b16fcf19 	clzlt	ip, r9

00000474 <l159>:
     474:	602e1067 	eorvs	r1, lr, r7, rrx

00000478 <l160>:
     478:	63867b63 	orrvs	r7, r6, #101376	; 0x18c00

0000047c <l161>:
     47c:	c22f66ed 	eorgt	r6, pc, #248512512	; 0xed00000

00000480 <l162>:
     480:	2176057b 	cmncs	r6, fp, ror r5

00000484 <l163>:
     484:	e3958c39 	orrs	r8, r5, #14592	; 0x3900

00000488 <l164>:
     488:	80b13183 	adcshi	r3, r1, r3, lsl #3

0000048c <l165>:
     48c:	a1b0b511 	lslsge	fp, r1, r5

00000490 <l166>:
     490:	607e600c 	rsbsvs	r6, lr, ip

00000494 <l167>:
     494:	e1da3063 	bics	r3, sl, r3, rrx

00000498 <l168>:
     498:	405226a4 	subsmi	r2, r2, r4, lsr #13

0000049c <l169>:
     49c:	e13a0003 	teq	sl, r3

000004a0 <l170>:
     4a0:	90b54333 	adcsls	r4, r5, r3, lsr r3

000004a4 <l171>:
     4a4:	a18fb061 	orrge	fp, pc, r1, rrx

000004a8 <l172>:
     4a8:	e2ac52c3 	adc	r5, ip, #805306380	; 0x3000000c

000004ac <l173>:
     4ac:	03c19cc2 	biceq	r9, r1, #49664	; 0xc200

000004b0 <l174>:
     4b0:	ca000004 	bgt	4c8 <l180>

000004b4 <l175>:
     4b4:	e0786000 	rsbs	r6, r8, r0

000004b8 <l176>:
     4b8:	e053300c 	subs	r3, r3, ip

000004bc <l177>:
     4bc:	21963063 	orrscs	r3, r6, r3, rrx

000004c0 <l178>:
     4c0:	e0184e01 	ands	r4, r8, r1, lsl #28

000004c4 <l179>:
     4c4:	e16f7f14 	clz	r7, r4

000004c8 <l180>:
     4c8:	301f8f25 	andscc	r8, pc, r5, lsr #30

000004cc <l181>:
     4cc:	a08a400b 	addge	r4, sl, fp

000004d0 <l182>:
     4d0:	e194200a 	orrs	r2, r4, sl

000004d4 <l183>:
     4d4:	e0f93317 	rscs	r3, r9, r7, lsl r3

000004d8 <l184>:
     4d8:	e2d80152 	sbcs	r0, r8, #-2147483628	; 0x80000014

000004dc <l185>:
     4dc:	91760c33 	cmnls	r6, r3, lsr ip

000004e0 <l186>:
     4e0:	e0124515 	ands	r4, r2, r5, lsl r5

000004e4 <l187>:
     4e4:	6006c000 	andvs	ip, r6, r0

000004e8 <l188>:
     4e8:	91a08e0b 	lslls	r8, fp, #28

000004ec <l189>:
     4ec:	739e2dd5 	orrsvc	r2, lr, #13632	; 0x3540

000004f0 <l190>:
     4f0:	ea000006 	b	510 <l198>

000004f4 <l191>:
     4f4:	e1b0bb70 	rors	fp, r0, fp

000004f8 <l192>:
     4f8:	d0e2b005 	rscle	fp, r2, r5

000004fc <l193>:
     4fc:	e040a00e 	sub	sl, r0, lr

00000500 <l194>:
     500:	d05b5d2f 	subsle	r5, fp, pc, lsr #26

00000504 <l195>:
     504:	9187e061 	orrls	lr, r7, r1, rrx

00000508 <l196>:
     508:	c1957063 	orrsgt	r7, r5, r3, rrx

0000050c <l197>:
     50c:	e15f006b 	cmp	pc, fp, rrx

00000510 <l198>:
     510:	e0d8a074 	sbcs	sl, r8, r4, ror r0

00000514 <l199>:
     514:	e132031e 	teq	r2, lr, lsl r3

00000518 <l200>:
     518:	83a03149 	movhi	r3, #1073741842	; 0x40000012

0000051c <l201>:
     51c:	e1310017 	teq	r1, r7, lsl r0

00000520 <l202>:
     520:	e055e000 	subs	lr, r5, r0

00000524 <l203>:
     524:	41b019cb 	asrsmi	r1, fp, #19

00000528 <l204>:
     528:	5249c18d 	subpl	ip, r9, #1073741859	; 0x40000023

0000052c <l205>:
     52c:	e04ce251 	sub	lr, ip, r1, asr r2

00000530 <l206>:
     530:	902c4834 	eorls	r4, ip, r4, lsr r8

00000534 <l207>:
     534:	43b01912 	movsmi	r1, #294912	; 0x48000

00000538 <l208>:
     538:	e0946326 	adds	r6, r4, r6, lsr #6

0000053c <l209>:
     53c:	50c1e064 	sbcpl	lr, r1, r4, rrx

00000540 <l210>:
     540:	7263e512 	rsbvc	lr, r3, #75497472	; 0x4800000

00000544 <l211>:
     544:	90360060 	eorsls	r0, r6, r0, rrx

00000548 <l212>:
     548:	e0460001 	sub	r0, r6, r1

0000054c <l213>:
     54c:	61580000 	cmpvs	r8, r0

00000550 <l214>:
     550:	13580afb 	cmpne	r8, #1028096	; 0xfb000

00000554 <l215>:
     554:	e1530ac7 	cmp	r3, r7, asr #21

00000558 <l216>:
     558:	e1b06007 	movs	r6, r7

0000055c <l217>:
     55c:	e13501a6 	teq	r5, r6, lsr #3

00000560 <l218>:
     560:	e176000a 	cmn	r6, sl

00000564 <l219>:
     564:	413e0110 	teqmi	lr, r0, lsl r1

00000568 <l220>:
     568:	a1c51064 	bicge	r1, r5, r4, rrx

0000056c <l221>:
     56c:	20f0e004 	rscscs	lr, r0, r4

00000570 <l222>:
     570:	e07f4624 	rsbs	r4, pc, r4, lsr #12

00000574 <l223>:
     574:	91330e31 	teqls	r3, r1, lsr lr

00000578 <l224>:
     578:	21f0573c 	mvnscs	r5, ip, lsr r7

0000057c <l225>:
     57c:	3074b00e 	rsbscc	fp, r4, lr

00000580 <l226>:
     580:	3059a1c3 	subscc	sl, r9, r3, asr #3

00000584 <l227>:
     584:	ea000007 	b	5a8 <l236>

00000588 <l228>:
     588:	81b0c007 	movshi	ip, r7

0000058c <l229>:
     58c:	80b4ec75 	adcshi	lr, r4, r5, ror ip

00000590 <l230>:
     590:	e0889008 	add	r9, r8, r8

00000594 <l231>:
     594:	c1a01384 	lslgt	r1, r4, #7

00000598 <l232>:
     598:	e137016f 	teq	r7, pc, ror #2

0000059c <l233>:
     59c:	e0f557c2 	rscs	r5, r5, r2, asr #15

000005a0 <l234>:
     5a0:	826f090b 	rsbhi	r0, pc, #180224	; 0x2c000

000005a4 <l235>:
     5a4:	e0a56004 	adc	r6, r5, r4

000005a8 <l236>:
     5a8:	d15b0887 	cmple	fp, r7, lsl #17

000005ac <l237>:
     5ac:	e0ca900b 	sbc	r9, sl, fp

000005b0 <l238>:
     5b0:	401aa287 	andsmi	sl, sl, r7, lsl #5

000005b4 <l239>:
     5b4:	e3340207 	teq	r4, #1879048192	; 0x70000000

000005b8 <l240>:
     5b8:	e3d64956 	bics	r4, r6, #1409024	; 0x158000

000005bc <l241>:
     5bc:	da000004 	ble	5d4 <l247>

000005c0 <l242>:
     5c0:	e0bceaa5 	adcs	lr, ip, r5, lsr #21

000005c4 <l243>:
     5c4:	e24c9999 	sub	r9, ip, #2506752	; 0x264000

000005c8 <l244>:
     5c8:	21d39009 	bicscs	r9, r3, r9

000005cc <l245>:
     5cc:	e1180002 	tst	r8, r2

000005d0 <l246>:
     5d0:	00941000 	addseq	r1, r4, r0

000005d4 <l247>:
     5d4:	e04b9065 	sub	r9, fp, r5, rrx

000005d8 <l248>:
     5d8:	a2993060 	addsge	r3, r9, #96	; 0x60

000005dc <l249>:
     5dc:	e01b400b 	ands	r4, fp, fp

000005e0 <l250>:
     5e0:	e1590004 	cmp	r9, r4

000005e4 <l251>:
     5e4:	c0206006 	eorgt	r6, r0, r6

000005e8 <l252>:
     5e8:	42536ffe 	subsmi	r6, r3, #1016	; 0x3f8

000005ec <l253>:
     5ec:	e33c0432 	teq	ip, #838860800	; 0x32000000

000005f0 <l254>:
     5f0:	ea000005 	b	60c <l261>

000005f4 <l255>:
     5f4:	d1f0100e 	mvnsle	r1, lr

000005f8 <l256>:
     5f8:	e0979bef 	adds	r9, r7, pc, ror #23

000005fc <l257>:
     5fc:	b0960067 	addslt	r0, r6, r7, rrx

00000600 <l258>:
     600:	12b6ca37 	adcsne	ip, r6, #225280	; 0x37000

00000604 <l259>:
     604:	a04b6005 	subge	r6, fp, r5

00000608 <l260>:
     608:	53f0eb0a 	mvnspl	lr, #10240	; 0x2800

0000060c <l261>:
     60c:	b3a02d3e 	movlt	r2, #3968	; 0xf80

00000610 <l262>:
     610:	21e06476 	mvncs	r6, r6, ror r4

00000614 <l263>:
     614:	6096200a 	addsvs	r2, r6, sl

00000618 <l264>:
     618:	027185a9 	rsbseq	r8, r1, #708837376	; 0x2a400000

0000061c <l265>:
     61c:	d1906009 	orrsle	r6, r0, r9

00000620 <l266>:
     620:	ea000001 	b	62c <l269>

00000624 <l267>:
     624:	e0ff8009 	rscs	r8, pc, r9

00000628 <l268>:
     628:	017e0063 	cmneq	lr, r3, rrx

0000062c <l269>:
     62c:	206646c6 	rsbcs	r4, r6, r6, asr #13

00000630 <l270>:
     630:	e09b3227 	adds	r3, fp, r7, lsr #4

00000634 <l271>:
     634:	11340008 	teqne	r4, r8

00000638 <l272>:
     638:	a39289e3 	orrsge	r8, r2, #3719168	; 0x38c000

0000063c <l273>:
     63c:	e1340002 	teq	r4, r2

00000640 <l274>:
     640:	21510a6b 	cmpcs	r1, fp, ror #20

00000644 <l275>:
     644:	337f0107 	cmncc	pc, #-1073741823	; 0xc0000001

00000648 <l276>:
     648:	70e14001 	rscvc	r4, r1, r1

0000064c <l277>:
     64c:	21e04539 	mvncs	r4, r9, lsr r5

00000650 <l278>:
     650:	90cee069 	sbcls	lr, lr, r9, rrx

00000654 <l279>:
     654:	71360635 	teqvc	r6, r5, lsr r6

00000658 <l280>:
     658:	63180f5d 	tstvs	r8, #372	; 0x174

0000065c <l281>:
     65c:	e15e045b 	cmp	lr, fp, asr r4

00000660 <l282>:
     660:	239a6ac1 	orrscs	r6, sl, #790528	; 0xc1000

00000664 <l283>:
     664:	c16f5f17 	clzgt	r5, r7

00000668 <l284>:
     668:	e009c86e 	and	ip, r9, lr, ror #16

0000066c <l285>:
     66c:	305ac45c 	subscc	ip, sl, ip, asr r4

00000670 <l286>:
     670:	e0d9041c 	sbcs	r0, r9, ip, lsl r4

00000674 <l287>:
     674:	8004a006 	andhi	sl, r4, r6

00000678 <l288>:
     678:	b174090a 	cmnlt	r4, sl, lsl #18

0000067c <l289>:
     67c:	20539003 	subscs	r9, r3, r3

00000680 <l290>:
     680:	11b02000 	movsne	r2, r0

00000684 <l291>:
     684:	e35e00fd 	cmp	lr, #253	; 0xfd

00000688 <l292>:
     688:	21dcbcc8 	bicscs	fp, ip, r8, asr #25

0000068c <l293>:
     68c:	52920cff 	addspl	r0, r2, #65280	; 0xff00

00000690 <l294>:
     690:	009e5055 	addseq	r5, lr, r5, asr r0

00000694 <l295>:
     694:	305caa11 	subscc	sl, ip, r1, lsl sl

00000698 <l296>:
     698:	e0252002 	eor	r2, r5, r2

0000069c <l297>:
     69c:	90348774 	eorsls	r8, r4, r4, ror r7

000006a0 <l298>:
     6a0:	b16f7f13 	clzlt	r7, r3

000006a4 <l299>:
     6a4:	e2563014 	subs	r3, r6, #20

000006a8 <l300>:
     6a8:	60d37004 	sbcsvs	r7, r3, r4

000006ac <l301>:
     6ac:	e201b1bb 	and	fp, r1, #-1073741778	; 0xc000002e

000006b0 <l302>:
     6b0:	a08b285b 	addge	r2, fp, fp, asr r8

000006b4 <l303>:
     6b4:	e3730902 	cmn	r3, #32768	; 0x8000

000006b8 <l304>:
     6b8:	e3b01009 	movs	r1, #9

000006bc <l305>:
     6bc:	d3b06b2d 	movsle	r6, #46080	; 0xb400

000006c0 <l306>:
     6c0:	601ea001 	andsvs	sl, lr, r1

000006c4 <l307>:
     6c4:	e1983063 	orrs	r3, r8, r3, rrx

000006c8 <l308>:
     6c8:	b0963053 	addslt	r3, r6, r3, asr r0

000006cc <l309>:
     6cc:	e0f6ec71 	rscs	lr, r6, r1, ror ip

000006d0 <l310>:
     6d0:	9a000000 	bls	6d8 <l312>

000006d4 <l311>:
     6d4:	e17a0019 	cmn	sl, r9, lsl r0

000006d8 <l312>:
     6d8:	20a8400e 	adccs	r4, r8, lr

000006dc <l313>:
     6dc:	e0089a46 	and	r9, r8, r6, asr #20

000006e0 <l314>:
     6e0:	e1b03063 	rrxs	r3, r3

000006e4 <l315>:
     6e4:	e332011a 	teq	r2, #-2147483642	; 0x80000006

000006e8 <l316>:
     6e8:	e038c007 	eors	ip, r8, r7

000006ec <l317>:
     6ec:	516f9f1c 	clzpl	r9, ip

000006f0 <l318>:
     6f0:	7012ca8b 	andsvc	ip, r2, fp, lsl #21

000006f4 <l319>:
     6f4:	e3856d53 	orr	r6, r5, #5312	; 0x14c0

000006f8 <l320>:
     6f8:	11f08a43 	mvnsne	r8, r3, asr #20

000006fc <l321>:
     6fc:	e1f04b03 	mvns	r4, r3, lsl #22

00000700 <l322>:
     700:	e1b07e4c 	asrs	r7, ip, #28

00000704 <l323>:
     704:	e16f3f12 	clz	r3, r2

00000708 <l324>:
     708:	e1160534 	tst	r6, r4, lsr r5

0000070c <l325>:
     70c:	51540007 	cmppl	r4, r7

00000710 <l326>:
     710:	418f1b27 	orrmi	r1, pc, r7, lsr #22

00000714 <l327>:
     714:	e117000a 	tst	r7, sl

00000718 <l328>:
     718:	e19239a7 	orrs	r3, r2, r7, lsr #19

0000071c <l329>:
     71c:	c22b0a97 	eorgt	r0, fp, #618496	; 0x97000

00000720 <l330>:
     720:	30b6b838 	adcscc	fp, r6, r8, lsr r8

00000724 <l331>:
     724:	e3966652 	orrs	r6, r6, #85983232	; 0x5200000

00000728 <l332>:
     728:	7051e00c 	subsvc	lr, r1, ip

0000072c <l333>:
     72c:	b050200e 	subslt	r2, r0, lr

00000730 <l334>:
     730:	e263ab7d 	rsb	sl, r3, #128000	; 0x1f400

00000734 <l335>:
     734:	10db358f 	sbcsne	r3, fp, pc, lsl #11

00000738 <l336>:
     738:	80df6009 	sbcshi	r6, pc, r9

0000073c <l337>:
     73c:	ea000005 	b	758 <l344>

00000740 <l338>:
     740:	61780002 	cmnvs	r8, r2

00000744 <l339>:
     744:	d0a97254 	adcle	r7, r9, r4, asr r2

00000748 <l340>:
     748:	e0161f62 	ands	r1, r6, r2, ror #30

0000074c <l341>:
     74c:	e1100276 	tst	r0, r6, ror r2

00000750 <l342>:
     750:	b0984000 	addslt	r4, r8, r0

00000754 <l343>:
     754:	b0763172 	rsbslt	r3, r6, r2, ror r1

00000758 <l344>:
     758:	e33a0b9e 	teq	sl, #161792	; 0x27800

0000075c <l345>:
     75c:	e0825669 	add	r5, r2, r9, ror #12

00000760 <l346>:
     760:	416f7f13 	clzmi	r7, r3

00000764 <l347>:
     764:	61730008 	cmnvs	r3, r8

00000768 <l348>:
     768:	20107556 	andscs	r7, r0, r6, asr r5

0000076c <l349>:
     76c:	e3360552 	teq	r6, #343932928	; 0x14800000

00000770 <l350>:
     770:	e0720066 	rsbs	r0, r2, r6, rrx

00000774 <l351>:
     774:	20d8851c 	sbcscs	r8, r8, ip, lsl r5

00000778 <l352>:
     778:	e009bc3c 	and	fp, r9, ip, lsr ip

0000077c <l353>:
     77c:	139fb58f 	orrsne	fp, pc, #599785472	; 0x23c00000

00000780 <l354>:
     780:	61b0c007 	movsvs	ip, r7

00000784 <l355>:
     784:	e16f6f1c 	clz	r6, ip

00000788 <l356>:
     788:	e1580009 	cmp	r8, r9

0000078c <l357>:
     78c:	717f03c1 	cmnvc	pc, r1, asr #7

00000790 <l358>:
     790:	e1c25cc5 	bic	r5, r2, r5, asr #25

00000794 <l359>:
     794:	c1f0900e 	mvnsgt	r9, lr

00000798 <l360>:
     798:	20b5e35a 	adcscs	lr, r5, sl, asr r3

0000079c <l361>:
     79c:	21a0500f 	movcs	r5, pc

000007a0 <l362>:
     7a0:	e33307c6 	teq	r3, #51904512	; 0x3180000

000007a4 <l363>:
     7a4:	e1f06754 	mvns	r6, r4, asr r7

000007a8 <l364>:
     7a8:	10028001 	andne	r8, r2, r1

000007ac <l365>:
     7ac:	311c0e80 	tstcc	ip, r0, lsl #29

000007b0 <l366>:
     7b0:	e0d1500f 	sbcs	r5, r1, pc

000007b4 <l367>:
     7b4:	b11a0005 	tstlt	sl, r5

000007b8 <l368>:
     7b8:	91740316 	cmnls	r4, r6, lsl r3

000007bc <l369>:
     7bc:	e0121b5b 	ands	r1, r2, fp, asr fp

000007c0 <l370>:
     7c0:	e3370a09 	teq	r7, #36864	; 0x9000

000007c4 <l371>:
     7c4:	e16fcf12 	clz	ip, r2

000007c8 <l372>:
     7c8:	53c1cfaf 	bicpl	ip, r1, #700	; 0x2bc

000007cc <l373>:
     7cc:	80a66a8a 	adchi	r6, r6, sl, lsl #21

000007d0 <l374>:
     7d0:	60744054 	rsbsvs	r4, r4, r4, asr r0

000007d4 <l375>:
     7d4:	4282caba 	addmi	ip, r2, #761856	; 0xba000

000007d8 <l376>:
     7d8:	0339077f 	teqeq	r9, #33292288	; 0x1fc0000

000007dc <l377>:
     7dc:	1185806b 	orrne	r8, r5, fp, rrx

000007e0 <l378>:
     7e0:	b16f9f13 	clzlt	r9, r3

000007e4 <l379>:
     7e4:	e16f8f17 	clz	r8, r7

000007e8 <l380>:
     7e8:	90177523 	andsls	r7, r7, r3, lsr #10

000007ec <l381>:
     7ec:	e07911cc 	rsbs	r1, r9, ip, asr #3

000007f0 <l382>:
     7f0:	aa000006 	bge	810 <l390>

000007f4 <l383>:
     7f4:	511b040f 	tstpl	fp, pc, lsl #8

000007f8 <l384>:
     7f8:	e1e00b53 	mvn	r0, r3, asr fp

000007fc <l385>:
     7fc:	82917c09 	addshi	r7, r1, #2304	; 0x900

00000800 <l386>:
     800:	e3b01929 	movs	r1, #671744	; 0xa4000

00000804 <l387>:
     804:	c07e6936 	rsbsgt	r6, lr, r6, lsr r9

00000808 <l388>:
     808:	1211ae9a 	andsne	sl, r1, #2464	; 0x9a0

0000080c <l389>:
     80c:	408c528b 	addmi	r5, ip, fp, lsl #5

00000810 <l390>:
     810:	819b8b3c 	orrshi	r8, fp, ip, lsr fp

00000814 <l391>:
     814:	e3ca94e9 	bic	r9, sl, #-385875968	; 0xe9000000

00000818 <l392>:
     818:	8219912e 	andshi	r9, r9, #-2147483637	; 0x8000000b

0000081c <l393>:
     81c:	e3e0a041 	mvn	sl, #65	; 0x41

00000820 <l394>:
     820:	e098115c 	adds	r1, r8, ip, asr r1

00000824 <l395>:
     824:	e0203958 	eor	r3, r0, r8, asr r9

00000828 <l396>:
     828:	a2432542 	subge	r2, r3, #276824064	; 0x10800000

0000082c <l397>:
     82c:	b196e001 	orrslt	lr, r6, r1

00000830 <l398>:
     830:	90320009 	eorsls	r0, r2, r9

00000834 <l399>:
     834:	10d75006 	sbcsne	r5, r7, r6

00000838 <l400>:
     838:	e1a07052 	asr	r7, r2, r0

0000083c <l401>:
     83c:	e0882072 	add	r2, r8, r2, ror r0

00000840 <l402>:
     840:	e03e0c21 	eors	r0, lr, r1, lsr #24

00000844 <l403>:
     844:	819741a7 	orrshi	r4, r7, r7, lsr #3

00000848 <l404>:
     848:	91a09fe0 	rorls	r9, r0, #31

0000084c <l405>:
     84c:	e39109b5 	orrs	r0, r1, #2965504	; 0x2d4000

00000850 <l406>:
     850:	e3770d07 	cmn	r7, #448	; 0x1c0

00000854 <l407>:
     854:	219c5389 	orrscs	r5, ip, r9, lsl #7

00000858 <l408>:
     858:	e15506e3 	cmp	r5, r3, ror #13

0000085c <l409>:
     85c:	821a0cd5 	andshi	r0, sl, #54528	; 0xd500

00000860 <l410>:
     860:	e2fac98d 	rscs	ip, sl, #2310144	; 0x234000

00000864 <l411>:
     864:	402f9001 	eormi	r9, pc, r1

00000868 <l412>:
     868:	e16f0f17 	clz	r0, r7

0000086c <l413>:
     86c:	41500449 	cmpmi	r0, r9, asr #8

00000870 <l414>:
     870:	a175095c 	cmnge	r5, ip, asr r9

00000874 <l415>:
     874:	b0e18003 	rsclt	r8, r1, r3

00000878 <l416>:
     878:	e3944673 	orrs	r4, r4, #120586240	; 0x7300000

0000087c <l417>:
     87c:	e18a4006 	orr	r4, sl, r6

00000880 <l418>:
     880:	70417006 	subvc	r7, r1, r6

00000884 <l419>:
     884:	d3d3121a 	bicsle	r1, r3, #-1610612735	; 0xa0000001

00000888 <l420>:
     888:	e052e00b 	subs	lr, r2, fp

0000088c <l421>:
     88c:	e37b0faf 	cmn	fp, #700	; 0x2bc

00000890 <l422>:
     890:	00543000 	subseq	r3, r4, r0

00000894 <l423>:
     894:	e0f79880 	rscs	r9, r7, r0, lsl #17

00000898 <l424>:
     898:	d1da8001 	bicsle	r8, sl, r1

0000089c <l425>:
     89c:	831f08d1 	tsthi	pc, #13697024	; 0xd10000

000008a0 <l426>:
     8a0:	d097a00e 	addsle	sl, r7, lr

000008a4 <l427>:
     8a4:	ea000006 	b	8c4 <l435>

000008a8 <l428>:
     8a8:	e1dc3e6b 	bics	r3, ip, fp, ror #28

000008ac <l429>:
     8ac:	2064e003 	rsbcs	lr, r4, r3

000008b0 <l430>:
     8b0:	d15b000b 	cmple	fp, fp

000008b4 <l431>:
     8b4:	e1330068 	teq	r3, r8, rrx

000008b8 <l432>:
     8b8:	e1320000 	teq	r2, r0

000008bc <l433>:
     8bc:	417e0003 	cmnmi	lr, r3

000008c0 <l434>:
     8c0:	a0a1e579 	adcge	lr, r1, r9, ror r5

000008c4 <l435>:
     8c4:	d0d47002 	sbcsle	r7, r4, r2

000008c8 <l436>:
     8c8:	30b92007 	adcscc	r2, r9, r7

000008cc <l437>:
     8cc:	e15b000b 	cmp	fp, fp

000008d0 <l438>:
     8d0:	91520060 	cmpls	r2, r0, rrx

000008d4 <l439>:
     8d4:	e16fcf13 	clz	ip, r3

000008d8 <l440>:
     8d8:	e073a060 	rsbs	sl, r3, r0, rrx

000008dc <l441>:
     8dc:	e0b5e003 	adcs	lr, r5, r3

000008e0 <l442>:
     8e0:	ea000002 	b	8f0 <l446>

000008e4 <l443>:
     8e4:	e0d9630c 	sbcs	r6, r9, ip, lsl #6

000008e8 <l444>:
     8e8:	716f3f11 	clzvc	r3, r1

000008ec <l445>:
     8ec:	e1560828 	cmp	r6, r8, lsr #16

000008f0 <l446>:
     8f0:	e0ac1002 	adc	r1, ip, r2

000008f4 <l447>:
     8f4:	ea000005 	b	910 <l454>

000008f8 <l448>:
     8f8:	d21ea77b 	andsle	sl, lr, #32243712	; 0x1ec0000

000008fc <l449>:
     8fc:	e189834b 	orr	r8, r9, fp, asr #6

00000900 <l450>:
     900:	12ba3b7e 	adcsne	r3, sl, #129024	; 0x1f800

00000904 <l451>:
     904:	e02f8cc4 	eor	r8, pc, r4, asr #25

00000908 <l452>:
     908:	d0449b25 	suble	r9, r4, r5, lsr #22

0000090c <l453>:
     90c:	e15303ae 	cmp	r3, lr, lsr #7

00000910 <l454>:
     910:	e199223a 	orrs	r2, r9, sl, lsr r2

00000914 <l455>:
     914:	e05c306c 	subs	r3, ip, ip, rrx

00000918 <l456>:
     918:	e048400f 	sub	r4, r8, pc

0000091c <l457>:
     91c:	e1f01007 	mvns	r1, r7

00000920 <l458>:
     920:	e081700f 	add	r7, r1, pc

00000924 <l459>:
     924:	81e03955 	mvnhi	r3, r5, asr r9

00000928 <l460>:
     928:	e029b009 	eor	fp, r9, r9

0000092c <l461>:
     92c:	e2d8a9f6 	sbcs	sl, r8, #4030464	; 0x3d8000

00000930 <l462>:
     930:	e17f0a88 	cmn	pc, r8, lsl #21

00000934 <l463>:
     934:	539f4512 	orrspl	r4, pc, #75497472	; 0x4800000

00000938 <l464>:
     938:	73350000 	teqvc	r5, #0

0000093c <l465>:
     93c:	e33c0002 	teq	ip, #2

00000940 <l466>:
     940:	116f5f15 	clzne	r5, r5

00000944 <l467>:
     944:	3133000e 	teqcc	r3, lr

00000948 <l468>:
     948:	e24f2d59 	sub	r2, pc, #5696	; 0x1640

0000094c <l469>:
     94c:	10fa8913 	rscsne	r8, sl, r3, lsl r9

00000950 <l470>:
     950:	8016a06b 	andshi	sl, r6, fp, rrx

00000954 <l471>:
     954:	eaffffff 	b	958 <l472>

00000958 <l472>:
     958:	217c0061 	cmncs	ip, r1, rrx

0000095c <l473>:
     95c:	c3180c2e 	tstgt	r8, #11776	; 0x2e00

00000960 <l474>:
     960:	e11b063b 	tst	fp, fp, lsr r6

00000964 <l475>:
     964:	e1b04131 	lsrs	r4, r1, r1

00000968 <l476>:
     968:	e1320033 	teq	r2, r3, lsr r0

0000096c <l477>:
     96c:	90d8ec70 	sbcsls	lr, r8, r0, ror ip

00000970 <l478>:
     970:	01590942 	cmpeq	r9, r2, asr #18

00000974 <l479>:
     974:	b16f9f14 	clzlt	r9, r4

00000978 <l480>:
     978:	d187ac87 	orrle	sl, r7, r7, lsl #25

0000097c <l481>:
     97c:	7a000006 	bvc	99c <l489>

00000980 <l482>:
     980:	e2fa190f 	rscs	r1, sl, #245760	; 0x3c000

00000984 <l483>:
     984:	91f02001 	mvnsls	r2, r1

00000988 <l484>:
     988:	63f07973 	mvnsvs	r7, #1884160	; 0x1cc000

0000098c <l485>:
     98c:	016fef13 	clzeq	lr, r3

00000990 <l486>:
     990:	13120030 	tstne	r2, #48	; 0x30

00000994 <l487>:
     994:	e0be3058 	adcs	r3, lr, r8, asr r0

00000998 <l488>:
     998:	90008ca3 	andls	r8, r0, r3, lsr #25

0000099c <l489>:
     99c:	d29b668f 	addsle	r6, fp, #149946368	; 0x8f00000

000009a0 <l490>:
     9a0:	a1b06d01 	lslsge	r6, r1, #26

000009a4 <l491>:
     9a4:	10157877 	andsne	r7, r5, r7, ror r8

000009a8 <l492>:
     9a8:	8041e914 	subhi	lr, r1, r4, lsl r9

000009ac <l493>:
     9ac:	e0239064 	eor	r9, r3, r4, rrx

000009b0 <l494>:
     9b0:	7a000006 	bvc	9d0 <l502>

000009b4 <l495>:
     9b4:	92e15533 	rscls	r5, r1, #213909504	; 0xcc00000

000009b8 <l496>:
     9b8:	e16f0f1e 	clz	r0, lr

000009bc <l497>:
     9bc:	82cb2a71 	sbchi	r2, fp, #462848	; 0x71000

000009c0 <l498>:
     9c0:	e16f4f18 	clz	r4, r8

000009c4 <l499>:
     9c4:	2352010b 	cmpcs	r2, #-1073741822	; 0xc0000002

000009c8 <l500>:
     9c8:	c3f07273 	mvnsgt	r7, #805306375	; 0x30000007

000009cc <l501>:
     9cc:	e2874070 	add	r4, r7, #112	; 0x70

000009d0 <l502>:
     9d0:	424f60b6 	submi	r6, pc, #182	; 0xb6

000009d4 <l503>:
     9d4:	e31a031e 	tst	sl, #2013265920	; 0x78000000

000009d8 <l504>:
     9d8:	731c0f8e 	tstvc	ip, #568	; 0x238

000009dc <l505>:
     9dc:	0205ed16 	andeq	lr, r5, #1408	; 0x580

000009e0 <l506>:
     9e0:	40183179 	andsmi	r3, r8, r9, ror r1

000009e4 <l507>:
     9e4:	e1e07004 	mvn	r7, r4

000009e8 <l508>:
     9e8:	ca000007 	bgt	a0c <l517>

000009ec <l509>:
     9ec:	e1760d07 	cmn	r6, r7, lsl #26

000009f0 <l510>:
     9f0:	e049406e 	sub	r4, r9, lr, rrx

000009f4 <l511>:
     9f4:	e186a561 	orr	sl, r6, r1, ror #10

000009f8 <l512>:
     9f8:	e0eaca5a 	rsc	ip, sl, sl, asr sl

000009fc <l513>:
     9fc:	e3100509 	tst	r0, #37748736	; 0x2400000

00000a00 <l514>:
     a00:	e090800a 	adds	r8, r0, sl

00000a04 <l515>:
     a04:	109e8005 	addsne	r8, lr, r5

00000a08 <l516>:
     a08:	e0a8b003 	adc	fp, r8, r3

00000a0c <l517>:
     a0c:	013503ce 	teqeq	r5, lr, asr #7

00000a10 <l518>:
     a10:	e16f0f14 	clz	r0, r4

00000a14 <l519>:
     a14:	72a0c195 	adcvc	ip, r0, #1073741861	; 0x40000025

00000a18 <l520>:
     a18:	c1966cc5 	orrsgt	r6, r6, r5, asr #25

00000a1c <l521>:
     a1c:	e1944002 	orrs	r4, r4, r2

00000a20 <l522>:
     a20:	4153000c 	cmpmi	r3, ip

00000a24 <l523>:
     a24:	c1500141 	cmpgt	r0, r1, asr #2

00000a28 <l524>:
     a28:	20f6a8a6 	rscscs	sl, r6, r6, lsr #17

00000a2c <l525>:
     a2c:	e0aeb63e 	adc	fp, lr, lr, lsr r6

00000a30 <l526>:
     a30:	e0f8606e 	rscs	r6, r8, lr, rrx

00000a34 <l527>:
     a34:	61580937 	cmpvs	r8, r7, lsr r9

00000a38 <l528>:
     a38:	40bc0846 	adcsmi	r0, ip, r6, asr #16

00000a3c <l529>:
     a3c:	e089b00b 	add	fp, r9, fp

00000a40 <l530>:
     a40:	e38636f3 	orr	r3, r6, #254803968	; 0xf300000

00000a44 <l531>:
     a44:	e2270397 	eor	r0, r7, #1543503874	; 0x5c000002

00000a48 <l532>:
     a48:	31960912 	orrscc	r0, r6, r2, lsl r9

00000a4c <l533>:
     a4c:	e1b09003 	movs	r9, r3

00000a50 <l534>:
     a50:	00db1c78 	sbcseq	r1, fp, r8, ror ip

00000a54 <l535>:
     a54:	d0a9eba8 	adcle	lr, r9, r8, lsr #23

00000a58 <l536>:
     a58:	81e0706c 	mvnhi	r7, ip, rrx

00000a5c <l537>:
     a5c:	818555e4 	orrhi	r5, r5, r4, ror #11

00000a60 <l538>:
     a60:	ea000000 	b	a68 <l540>

00000a64 <l539>:
     a64:	d08b9060 	addle	r9, fp, r0, rrx

00000a68 <l540>:
     a68:	e05ab00a 	subs	fp, sl, sl

00000a6c <l541>:
     a6c:	e0900e36 	adds	r0, r0, r6, lsr lr

00000a70 <l542>:
     a70:	e07ba06b 	rsbs	sl, fp, fp, rrx

00000a74 <l543>:
     a74:	b05a351e 	subslt	r3, sl, lr, lsl r5

00000a78 <l544>:
     a78:	505ccfaa 	subspl	ip, ip, sl, lsr #31

00000a7c <l545>:
     a7c:	e0058005 	and	r8, r5, r5

00000a80 <l546>:
     a80:	e1700001 	cmn	r0, r1

00000a84 <l547>:
     a84:	e20870c8 	and	r7, r8, #200	; 0xc8

00000a88 <l548>:
     a88:	e194b00c 	orrs	fp, r4, ip

00000a8c <l549>:
     a8c:	411a013c 	tstmi	sl, ip, lsr r1

00000a90 <l550>:
     a90:	9224c953 	eorls	ip, r4, #1359872	; 0x14c000

00000a94 <l551>:
     a94:	70e24068 	rscvc	r4, r2, r8, rrx

00000a98 <l552>:
     a98:	ea000004 	b	ab0 <l558>

00000a9c <l553>:
     a9c:	437c0e69 	cmnmi	ip, #1680	; 0x690

00000aa0 <l554>:
     aa0:	e16fef1c 	clz	lr, ip

00000aa4 <l555>:
     aa4:	e0887dc5 	add	r7, r8, r5, asr #27

00000aa8 <l556>:
     aa8:	e1f023a6 	mvns	r2, r6, lsr #7

00000aac <l557>:
     aac:	8199a00f 	orrshi	sl, r9, pc

00000ab0 <l558>:
     ab0:	71190067 	tstvc	r9, r7, rrx

00000ab4 <l559>:
     ab4:	31ca7c12 	biccc	r7, sl, r2, lsl ip

00000ab8 <l560>:
     ab8:	1185adc6 	orrne	sl, r5, r6, asr #27

00000abc <l561>:
     abc:	620a1b02 	andvs	r1, sl, #2048	; 0x800

00000ac0 <l562>:
     ac0:	e0f810cf 	rscs	r1, r8, pc, asr #1

00000ac4 <l563>:
     ac4:	c11f028b 	tstgt	pc, fp, lsl #5

00000ac8 <l564>:
     ac8:	e080a004 	add	sl, r0, r4

00000acc <l565>:
     acc:	32e160c8 	rsccc	r6, r1, #200	; 0xc8

00000ad0 <l566>:
     ad0:	e0d7200e 	sbcs	r2, r7, lr

00000ad4 <l567>:
     ad4:	6059e7a1 	subsvs	lr, r9, r1, lsr #15

00000ad8 <l568>:
     ad8:	c01ae354 	andsgt	lr, sl, r4, asr r3

00000adc <l569>:
     adc:	e0a15069 	adc	r5, r1, r9, rrx

00000ae0 <l570>:
     ae0:	91d55008 	bicsls	r5, r5, r8

00000ae4 <l571>:
     ae4:	a061206b 	rsbge	r2, r1, fp, rrx

00000ae8 <l572>:
     ae8:	e1df9008 	bics	r9, pc, r8

00000aec <l573>:
     aec:	605c438f 	subsvs	r4, ip, pc, lsl #7

00000af0 <l574>:
     af0:	e355040f 	cmp	r5, #251658240	; 0xf000000

00000af4 <l575>:
     af4:	b1a0806a 	rrxlt	r8, sl

00000af8 <l576>:
     af8:	c11709a1 	tstgt	r7, r1, lsr #19

00000afc <l577>:
     afc:	e3160c57 	tst	r6, #22272	; 0x5700

00000b00 <l578>:
     b00:	b11a0577 	tstlt	sl, r7, ror r5

00000b04 <l579>:
     b04:	c241e012 	subgt	lr, r1, #18

00000b08 <l580>:
     b08:	008e8864 	addeq	r8, lr, r4, ror #16

00000b0c <l581>:
     b0c:	b2134c1e 	andslt	r4, r3, #7680	; 0x1e00

00000b10 <l582>:
     b10:	81e02d02 	mvnhi	r2, r2, lsl #26

00000b14 <l583>:
     b14:	e0d84757 	sbcs	r4, r8, r7, asr r7

00000b18 <l584>:
     b18:	e05ea003 	subs	sl, lr, r3

00000b1c <l585>:
     b1c:	408f800a 	addmi	r8, pc, sl

00000b20 <l586>:
     b20:	e152000a 	cmp	r2, sl

00000b24 <l587>:
     b24:	80ae3006 	adchi	r3, lr, r6

00000b28 <l588>:
     b28:	e3b0c42a 	movs	ip, #704643072	; 0x2a000000

00000b2c <l589>:
     b2c:	e2bebae5 	adcs	fp, lr, #937984	; 0xe5000

00000b30 <l590>:
     b30:	e059b005 	subs	fp, r9, r5

00000b34 <l591>:
     b34:	20517e16 	subscs	r7, r1, r6, lsl lr

00000b38 <l592>:
     b38:	ea000008 	b	b60 <l602>

00000b3c <l593>:
     b3c:	e2432b35 	sub	r2, r3, #54272	; 0xd400

00000b40 <l594>:
     b40:	e00f630a 	and	r6, pc, sl, lsl #6

00000b44 <l595>:
     b44:	51988001 	orrspl	r8, r8, r1

00000b48 <l596>:
     b48:	e09e6d28 	adds	r6, lr, r8, lsr #26

00000b4c <l597>:
     b4c:	93f0c876 	mvnsls	ip, #7733248	; 0x760000

00000b50 <l598>:
     b50:	81310005 	teqhi	r1, r5

00000b54 <l599>:
     b54:	e052200c 	subs	r2, r2, ip

00000b58 <l600>:
     b58:	b0ff910a 	rscslt	r9, pc, sl, lsl #2

00000b5c <l601>:
     b5c:	71b01361 	rorsvc	r1, r1, #6

00000b60 <l602>:
     b60:	e1b02065 	rrxs	r2, r5

00000b64 <l603>:
     b64:	216fcf11 	clzcs	ip, r1

00000b68 <l604>:
     b68:	d1e00062 	mvnle	r0, r2, rrx

00000b6c <l605>:
     b6c:	e19e3c1a 	orrs	r3, lr, sl, lsl ip

00000b70 <l606>:
     b70:	e3b00e8e 	movs	r0, #2272	; 0x8e0

00000b74 <l607>:
     b74:	e137046f 	teq	r7, pc, ror #8

00000b78 <l608>:
     b78:	6093c0c3 	addsvs	ip, r3, r3, asr #1

00000b7c <l609>:
     b7c:	41e0c000 	mvnmi	ip, r0

00000b80 <l610>:
     b80:	e17900e6 	cmn	r9, r6, ror #1

00000b84 <l611>:
     b84:	e0f03553 	rscs	r3, r0, r3, asr r5

00000b88 <l612>:
     b88:	e00ec468 	and	ip, lr, r8, ror #8

00000b8c <l613>:
     b8c:	01180805 	tsteq	r8, r5, lsl #16

00000b90 <l614>:
     b90:	d3e03135 	mvnle	r3, #1073741837	; 0x4000000d

00000b94 <l615>:
     b94:	7091b06e 	addsvc	fp, r1, lr, rrx

00000b98 <l616>:
     b98:	e0ac28c0 	adc	r2, ip, r0, asr #17

00000b9c <l617>:
     b9c:	e0c3a00f 	sbc	sl, r3, pc

00000ba0 <l618>:
     ba0:	30737a4b 	rsbscc	r7, r3, fp, asr #20

00000ba4 <l619>:
     ba4:	ea000006 	b	bc4 <l627>

00000ba8 <l620>:
     ba8:	50bec006 	adcspl	ip, lr, r6

00000bac <l621>:
     bac:	70685000 	rsbvc	r5, r8, r0

00000bb0 <l622>:
     bb0:	1350013f 	cmpne	r0, #-1073741809	; 0xc000000f

00000bb4 <l623>:
     bb4:	e0ff7002 	rscs	r7, pc, r2

00000bb8 <l624>:
     bb8:	803a8060 	eorshi	r8, sl, r0, rrx

00000bbc <l625>:
     bbc:	e38909d6 	orr	r0, r9, #3506176	; 0x358000

00000bc0 <l626>:
     bc0:	70e9807c 	rscvc	r8, r9, ip, ror r0

00000bc4 <l627>:
     bc4:	316f1f18 	clzcc	r1, r8

00000bc8 <l628>:
     bc8:	d0e8ba7e 	rscle	fp, r8, lr, ror sl

00000bcc <l629>:
     bcc:	c2aebd61 	adcgt	fp, lr, #6208	; 0x1840

00000bd0 <l630>:
     bd0:	e1f02167 	mvns	r2, r7, ror #2

00000bd4 <l631>:
     bd4:	233c0485 	teqcs	ip, #-2063597568	; 0x85000000

00000bd8 <l632>:
     bd8:	e00b276c 	and	r2, fp, ip, ror #14

00000bdc <l633>:
     bdc:	e1360852 	teq	r6, r2, asr r8

00000be0 <l634>:
     be0:	01b0635a 	asrseq	r6, sl, r3

00000be4 <l635>:
     be4:	e2299ac2 	eor	r9, r9, #794624	; 0xc2000

00000be8 <l636>:
     be8:	00455063 	subeq	r5, r5, r3, rrx

00000bec <l637>:
     bec:	216f8f19 	clzcs	r8, r9

00000bf0 <l638>:
     bf0:	4114011a 	tstmi	r4, sl, lsl r1

00000bf4 <l639>:
     bf4:	1352012e 	cmpne	r2, #-2147483637	; 0x8000000b

00000bf8 <l640>:
     bf8:	e00c4a6b 	and	r4, ip, fp, ror #20

00000bfc <l641>:
     bfc:	c22140a6 	eorgt	r4, r1, #166	; 0xa6

00000c00 <l642>:
     c00:	ea000003 	b	c14 <l647>

00000c04 <l643>:
     c04:	e15b0005 	cmp	fp, r5

00000c08 <l644>:
     c08:	101257e0 	andsne	r5, r2, r0, ror #15

00000c0c <l645>:
     c0c:	10f8900b 	rscsne	r9, r8, fp

00000c10 <l646>:
     c10:	e3b08116 	movs	r8, #-2147483643	; 0x80000005

00000c14 <l647>:
     c14:	e083b732 	add	fp, r3, r2, lsr r7

00000c18 <l648>:
     c18:	e1d17068 	bics	r7, r1, r8, rrx

00000c1c <l649>:
     c1c:	53540a82 	cmppl	r4, #532480	; 0x82000

00000c20 <l650>:
     c20:	c37a0a89 	cmngt	sl, #561152	; 0x89000

00000c24 <l651>:
     c24:	51cc692f 	bicpl	r6, ip, pc, lsr #18

00000c28 <l652>:
     c28:	e03e2da5 	eors	r2, lr, r5, lsr #27

00000c2c <l653>:
     c2c:	1a000006 	bne	c4c <l661>

00000c30 <l654>:
     c30:	e045e00a 	sub	lr, r5, sl

00000c34 <l655>:
     c34:	e2ef89c2 	rsc	r8, pc, #3178496	; 0x308000

00000c38 <l656>:
     c38:	82d9af53 	sbcshi	sl, r9, #332	; 0x14c

00000c3c <l657>:
     c3c:	100e8319 	andne	r8, lr, r9, lsl r3

00000c40 <l658>:
     c40:	211b0c34 	tstcs	fp, r4, lsr ip

00000c44 <l659>:
     c44:	e370085b 	cmn	r0, #5963776	; 0x5b0000

00000c48 <l660>:
     c48:	206fa001 	rsbcs	sl, pc, r1

00000c4c <l661>:
     c4c:	e1790001 	cmn	r9, r1

00000c50 <l662>:
     c50:	e01ca007 	ands	sl, ip, r7

00000c54 <l663>:
     c54:	d19a3f8f 	orrsle	r3, sl, pc, lsl #31

00000c58 <l664>:
     c58:	31e0676b 	mvncc	r6, fp, ror #14

00000c5c <l665>:
     c5c:	e17c0008 	cmn	ip, r8

00000c60 <l666>:
     c60:	ea000005 	b	c7c <l673>

00000c64 <l667>:
     c64:	2172006b 	cmncs	r2, fp, rrx

00000c68 <l668>:
     c68:	916f4f18 	clzls	r4, r8

00000c6c <l669>:
     c6c:	e17f000e 	cmn	pc, lr

00000c70 <l670>:
     c70:	b0571a60 	subslt	r1, r7, r0, ror #20

00000c74 <l671>:
     c74:	e0d1b741 	sbcs	fp, r1, r1, asr #14

00000c78 <l672>:
     c78:	e33309e3 	teq	r3, #3719168	; 0x38c000

00000c7c <l673>:
     c7c:	e1e0e031 	mvn	lr, r1, lsr r0

00000c80 <l674>:
     c80:	e2c6b84e 	sbc	fp, r6, #5111808	; 0x4e0000

00000c84 <l675>:
     c84:	2181c002 	orrcs	ip, r1, r2

00000c88 <l676>:
     c88:	10144854 	andsne	r4, r4, r4, asr r8

00000c8c <l677>:
     c8c:	71973001 	orrsvc	r3, r7, r1

00000c90 <l678>:
     c90:	20544b88 	subscs	r4, r4, r8, lsl #23

00000c94 <l679>:
     c94:	e065a00f 	rsb	sl, r5, pc

00000c98 <l680>:
     c98:	d1720d4e 	cmnle	r2, lr, asr #26

00000c9c <l681>:
     c9c:	e240cb2e 	sub	ip, r0, #47104	; 0xb800

00000ca0 <l682>:
     ca0:	202b0a01 	eorcs	r0, fp, r1, lsl #20

00000ca4 <l683>:
     ca4:	e007a007 	and	sl, r7, r7

00000ca8 <l684>:
     ca8:	e1380007 	teq	r8, r7

00000cac <l685>:
     cac:	ca000002 	bgt	cbc <l689>

00000cb0 <l686>:
     cb0:	e3847a0a 	orr	r7, r4, #40960	; 0xa000

00000cb4 <l687>:
     cb4:	83cfa47a 	bichi	sl, pc, #2046820352	; 0x7a000000

00000cb8 <l688>:
     cb8:	e052007e 	subs	r0, r2, lr, ror r0

00000cbc <l689>:
     cbc:	80a56637 	adchi	r6, r5, r7, lsr r6

00000cc0 <l690>:
     cc0:	e1cb8230 	bic	r8, fp, r0, lsr r2

00000cc4 <l691>:
     cc4:	e243e471 	sub	lr, r3, #1895825408	; 0x71000000

00000cc8 <l692>:
     cc8:	e1e07580 	mvn	r7, r0, lsl #11

00000ccc <l693>:
     ccc:	e2445a26 	sub	r5, r4, #155648	; 0x26000

00000cd0 <l694>:
     cd0:	ea000002 	b	ce0 <l698>

00000cd4 <l695>:
     cd4:	a15904a3 	cmpge	r9, r3, lsr #9

00000cd8 <l696>:
     cd8:	204fb001 	subcs	fp, pc, r1

00000cdc <l697>:
     cdc:	e1b0000a 	movs	r0, sl

00000ce0 <l698>:
     ce0:	70be6012 	adcsvc	r6, lr, r2, lsl r0

00000ce4 <l699>:
     ce4:	e1b0c007 	movs	ip, r7

00000ce8 <l700>:
     ce8:	e00b100b 	and	r1, fp, fp

00000cec <l701>:
     cec:	02e3a38f 	rsceq	sl, r3, #1006632962	; 0x3c000002

00000cf0 <l702>:
     cf0:	e191000b 	orrs	r0, r1, fp

00000cf4 <l703>:
     cf4:	e3590521 	cmp	r9, #138412032	; 0x8400000

00000cf8 <l704>:
     cf8:	a1c12919 	bicge	r2, r1, r9, lsl r9

00000cfc <l705>:
     cfc:	e185e00c 	orr	lr, r5, ip

00000d00 <l706>:
     d00:	108e6b8f 	addne	r6, lr, pc, lsl #23

00000d04 <l707>:
     d04:	217108e0 	cmncs	r1, r0, ror #17

00000d08 <l708>:
     d08:	e06a8619 	rsb	r8, sl, r9, lsl r6

00000d0c <l709>:
     d0c:	816f8f15 	clzhi	r8, r5

00000d10 <l710>:
     d10:	c17b000c 	cmngt	fp, ip

00000d14 <l711>:
     d14:	e0d31575 	sbcs	r1, r3, r5, ror r5

00000d18 <l712>:
     d18:	c0d21c7a 	sbcsgt	r1, r2, sl, ror ip

00000d1c <l713>:
     d1c:	20a0a064 	adccs	sl, r0, r4, rrx

00000d20 <l714>:
     d20:	a35a00fd 	cmpge	sl, #253	; 0xfd

00000d24 <l715>:
     d24:	e1730be8 	cmn	r3, r8, ror #23

00000d28 <l716>:
     d28:	e0fe5002 	rscs	r5, lr, r2

00000d2c <l717>:
     d2c:	e0df7002 	sbcs	r7, pc, r2

00000d30 <l718>:
     d30:	713c0914 	teqvc	ip, r4, lsl r9

00000d34 <l719>:
     d34:	e37e0de2 	cmn	lr, #14464	; 0x3880

00000d38 <l720>:
     d38:	e069bde7 	rsb	fp, r9, r7, ror #27

00000d3c <l721>:
     d3c:	e1730b86 	cmn	r3, r6, lsl #23

00000d40 <l722>:
     d40:	716f8f17 	clzvc	r8, r7

00000d44 <l723>:
     d44:	e13b006c 	teq	fp, ip, rrx

00000d48 <l724>:
     d48:	e090706f 	adds	r7, r0, pc, rrx

00000d4c <l725>:
     d4c:	b35e0876 	cmplt	lr, #7733248	; 0x760000

00000d50 <l726>:
     d50:	e053b842 	subs	fp, r3, r2, asr #16

00000d54 <l727>:
     d54:	416f8f12 	clzmi	r8, r2

00000d58 <l728>:
     d58:	40771a85 	rsbsmi	r1, r7, r5, lsl #21

00000d5c <l729>:
     d5c:	63e0ada1 	mvnvs	sl, #10304	; 0x2840

00000d60 <l730>:
     d60:	12014e39 	andne	r4, r1, #912	; 0x390

00000d64 <l731>:
     d64:	5117008c 	tstpl	r7, ip, lsl #1

00000d68 <l732>:
     d68:	1056e007 	subsne	lr, r6, r7

00000d6c <l733>:
     d6c:	e1540009 	cmp	r4, r9

00000d70 <l734>:
     d70:	81580067 	cmphi	r8, r7, rrx

00000d74 <l735>:
     d74:	9135085e 	teqls	r5, lr, asr r8

00000d78 <l736>:
     d78:	e11a0378 	tst	sl, r8, ror r3

00000d7c <l737>:
     d7c:	e1f05d09 	mvns	r5, r9, lsl #26

00000d80 <l738>:
     d80:	c0ffc00f 	rscsgt	ip, pc, pc

00000d84 <l739>:
     d84:	e020200a 	eor	r2, r0, sl

00000d88 <l740>:
     d88:	5045a067 	subpl	sl, r5, r7, rrx

00000d8c <l741>:
     d8c:	c04e600f 	subgt	r6, lr, pc

00000d90 <l742>:
     d90:	a25fb53d 	subsge	fp, pc, #255852544	; 0xf400000

00000d94 <l743>:
     d94:	e0e01c72 	rsc	r1, r0, r2, ror ip

00000d98 <l744>:
     d98:	916fef12 	clzls	lr, r2

00000d9c <l745>:
     d9c:	6a000002 	bvs	dac <l749>

00000da0 <l746>:
     da0:	e015000b 	ands	r0, r5, fp

00000da4 <l747>:
     da4:	e0c7bc62 	sbc	fp, r7, r2, ror #24

00000da8 <l748>:
     da8:	e3110e9d 	tst	r1, #2512	; 0x9d0

00000dac <l749>:
     dac:	702cb000 	eorvc	fp, ip, r0

00000db0 <l750>:
     db0:	ea000002 	b	dc0 <l754>

00000db4 <l751>:
     db4:	01330313 	teqeq	r3, r3, lsl r3

00000db8 <l752>:
     db8:	1060b008 	rsbne	fp, r0, r8

00000dbc <l753>:
     dbc:	e2b26517 	adcs	r6, r2, #96468992	; 0x5c00000

00000dc0 <l754>:
     dc0:	01c48737 	biceq	r8, r4, r7, lsr r7

00000dc4 <l755>:
     dc4:	30ff31a4 	rscscc	r3, pc, r4, lsr #3

00000dc8 <l756>:
     dc8:	e1390b34 	teq	r9, r4, lsr fp

00000dcc <l757>:
     dcc:	e0632006 	rsb	r2, r3, r6

00000dd0 <l758>:
     dd0:	6294ce37 	addsvs	ip, r4, #880	; 0x370

00000dd4 <l759>:
     dd4:	20c0206e 	sbccs	r2, r0, lr, rrx

00000dd8 <l760>:
     dd8:	e1d70000 	bics	r0, r7, r0

00000ddc <l761>:
     ddc:	81e0a008 	mvnhi	sl, r8

00000de0 <l762>:
     de0:	81851c54 	orrhi	r1, r5, r4, asr ip

00000de4 <l763>:
     de4:	306b3758 	rsbcc	r3, fp, r8, asr r7

00000de8 <l764>:
     de8:	a195000a 	orrsge	r0, r5, sl

00000dec <l765>:
     dec:	ea000004 	b	e04 <l771>

00000df0 <l766>:
     df0:	c16fef17 	clzgt	lr, r7

00000df4 <l767>:
     df4:	d0d70159 	sbcsle	r0, r7, r9, asr r1

00000df8 <l768>:
     df8:	d16f2f12 	clzle	r2, r2

00000dfc <l769>:
     dfc:	e24bcad2 	sub	ip, fp, #860160	; 0xd2000

00000e00 <l770>:
     e00:	602b500b 	eorvs	r5, fp, fp

00000e04 <l771>:
     e04:	00f2a1ef 	rscseq	sl, r2, pc, ror #3

00000e08 <l772>:
     e08:	83a0ea9e 	movhi	lr, #647168	; 0x9e000

00000e0c <l773>:
     e0c:	d3e0c835 	mvnle	ip, #3473408	; 0x350000

00000e10 <l774>:
     e10:	80f53034 	rscshi	r3, r5, r4, lsr r0

00000e14 <l775>:
     e14:	01540311 	cmpeq	r4, r1, lsl r3

00000e18 <l776>:
     e18:	e2592a03 	subs	r2, r9, #12288	; 0x3000

00000e1c <l777>:
     e1c:	e06a264b 	rsb	r2, sl, fp, asr #12

00000e20 <l778>:
     e20:	716f7f18 	clzvc	r7, r8

00000e24 <l779>:
     e24:	3053983c 	subscc	r9, r3, ip, lsr r8

00000e28 <l780>:
     e28:	a16f4f17 	clzge	r4, r7

00000e2c <l781>:
     e2c:	5affffff 	bpl	e30 <l782>

00000e30 <l782>:
     e30:	50548d69 	subspl	r8, r4, r9, ror #26

00000e34 <l783>:
     e34:	e04ab002 	sub	fp, sl, r2

00000e38 <l784>:
     e38:	a1c02944 	bicge	r2, r0, r4, asr #18

00000e3c <l785>:
     e3c:	63730395 	cmnvs	r3, #1409286146	; 0x54000002

00000e40 <l786>:
     e40:	e1db2fe3 	bics	r2, fp, r3, ror #31

00000e44 <l787>:
     e44:	e0d1af29 	sbcs	sl, r1, r9, lsr #30

00000e48 <l788>:
     e48:	e17104e3 	cmn	r1, r3, ror #9

00000e4c <l789>:
     e4c:	b03b5007 	eorslt	r5, fp, r7

00000e50 <l790>:
     e50:	b1c34f02 	biclt	r4, r3, r2, lsl #30

00000e54 <l791>:
     e54:	40c72e3c 	sbcmi	r2, r7, ip, lsr lr

00000e58 <l792>:
     e58:	30cb2066 	sbccc	r2, fp, r6, rrx

00000e5c <l793>:
     e5c:	c1730aa6 	cmngt	r3, r6, lsr #21

00000e60 <l794>:
     e60:	40fbc067 	rscsmi	ip, fp, r7, rrx

00000e64 <l795>:
     e64:	e0819006 	add	r9, r1, r6

00000e68 <l796>:
     e68:	e18321ea 	orr	r2, r3, sl, ror #3

00000e6c <l797>:
     e6c:	124c061a 	subne	r0, ip, #27262976	; 0x1a00000

00000e70 <l798>:
     e70:	00469003 	subeq	r9, r6, r3

00000e74 <l799>:
     e74:	e08ec85a 	add	ip, lr, sl, asr r8

00000e78 <l800>:
     e78:	e1c68008 	bic	r8, r6, r8

00000e7c <l801>:
     e7c:	e16f5f12 	clz	r5, r2

00000e80 <l802>:
     e80:	c17c0007 	cmngt	ip, r7

00000e84 <l803>:
     e84:	91983783 	orrsls	r3, r8, r3, lsl #15

00000e88 <l804>:
     e88:	e0ce095b 	sbc	r0, lr, fp, asr r9

00000e8c <l805>:
     e8c:	e1110143 	tst	r1, r3, asr #2

00000e90 <l806>:
     e90:	1282a781 	addne	sl, r2, #33816576	; 0x2040000

00000e94 <l807>:
     e94:	ea000004 	b	eac <l813>

00000e98 <l808>:
     e98:	e1f07eaf 	mvns	r7, pc, lsr #29

00000e9c <l809>:
     e9c:	e016c00c 	ands	ip, r6, ip

00000ea0 <l810>:
     ea0:	82f0ceb3 	rscshi	ip, r0, #2864	; 0xb30

00000ea4 <l811>:
     ea4:	20ec93e1 	rsccs	r9, ip, r1, ror #7

00000ea8 <l812>:
     ea8:	9038923b 	eorsls	r9, r8, fp, lsr r2

00000eac <l813>:
     eac:	e391a679 	orrs	sl, r1, #126877696	; 0x7900000

00000eb0 <l814>:
     eb0:	822ceba9 	eorhi	lr, ip, #173056	; 0x2a400

00000eb4 <l815>:
     eb4:	81808578 	orrhi	r8, r0, r8, ror r5

00000eb8 <l816>:
     eb8:	1193a834 	orrsne	sl, r3, r4, lsr r8

00000ebc <l817>:
     ebc:	00482062 	subeq	r2, r8, r2, rrx

00000ec0 <l818>:
     ec0:	e11f0001 	tst	pc, r1

00000ec4 <l819>:
     ec4:	700b7004 	andvc	r7, fp, r4

00000ec8 <l820>:
     ec8:	50100a28 	andspl	r0, r0, r8, lsr #20

00000ecc <l821>:
     ecc:	307645e5 	rsbscc	r4, r6, r5, ror #11

00000ed0 <l822>:
     ed0:	606e3003 	rsbvs	r3, lr, r3

00000ed4 <l823>:
     ed4:	20a6c00f 	adccs	ip, r6, pc

00000ed8 <l824>:
     ed8:	437a021f 	cmnmi	sl, #-268435455	; 0xf0000001

00000edc <l825>:
     edc:	31790faa 	cmncc	r9, sl, lsr #31

00000ee0 <l826>:
     ee0:	e1f00e13 	mvns	r0, r3, lsl lr

00000ee4 <l827>:
     ee4:	e2094d6a 	and	r4, r9, #6784	; 0x1a80

00000ee8 <l828>:
     ee8:	e01ac001 	ands	ip, sl, r1

00000eec <l829>:
     eec:	e2ff9ecf 	rscs	r9, pc, #3312	; 0xcf0

00000ef0 <l830>:
     ef0:	e289aeb7 	add	sl, r9, #2928	; 0xb70

00000ef4 <l831>:
     ef4:	1177000a 	cmnne	r7, sl

00000ef8 <l832>:
     ef8:	00efc007 	rsceq	ip, pc, r7

00000efc <l833>:
     efc:	e26b7905 	rsb	r7, fp, #81920	; 0x14000

00000f00 <l834>:
     f00:	b112055a 	tstlt	r2, sl, asr r5

00000f04 <l835>:
     f04:	71770063 	cmnvc	r7, r3, rrx

00000f08 <l836>:
     f08:	925f4c4a 	subsls	r4, pc, #18944	; 0x4a00

00000f0c <l837>:
     f0c:	ea000001 	b	f18 <l840>

00000f10 <l838>:
     f10:	e1160008 	tst	r6, r8

00000f14 <l839>:
     f14:	92b91c22 	adcsls	r1, r9, #8704	; 0x2200

00000f18 <l840>:
     f18:	c0e60175 	rscgt	r0, r6, r5, ror r1

00000f1c <l841>:
     f1c:	e357071a 	cmp	r7, #6815744	; 0x680000

00000f20 <l842>:
     f20:	23f086ab 	mvnscs	r8, #179306496	; 0xab00000

00000f24 <l843>:
     f24:	e3b055e7 	movs	r5, #968884224	; 0x39c00000

00000f28 <l844>:
     f28:	da000007 	ble	f4c <l853>

00000f2c <l845>:
     f2c:	a0478000 	subge	r8, r7, r0

00000f30 <l846>:
     f30:	00990008 	addseq	r0, r9, r8

00000f34 <l847>:
     f34:	e1a0c000 	mov	ip, r0

00000f38 <l848>:
     f38:	e07ae914 	rsbs	lr, sl, r4, lsl r9

00000f3c <l849>:
     f3c:	91933061 	orrsls	r3, r3, r1, rrx

00000f40 <l850>:
     f40:	e08344ce 	add	r4, r3, lr, asr #9

00000f44 <l851>:
     f44:	e08b3e12 	add	r3, fp, r2, lsl lr

00000f48 <l852>:
     f48:	a0b6b234 	adcsge	fp, r6, r4, lsr r2

00000f4c <l853>:
     f4c:	519a606a 	orrspl	r6, sl, sl, rrx

00000f50 <l854>:
     f50:	33f00d4e 	mvnscc	r0, #4992	; 0x1380

00000f54 <l855>:
     f54:	e094a00a 	adds	sl, r4, sl

00000f58 <l856>:
     f58:	e0048150 	and	r8, r4, r0, asr r1

00000f5c <l857>:
     f5c:	e3f0552f 	mvns	r5, #197132288	; 0xbc00000

00000f60 <l858>:
     f60:	e1750b6b 	cmn	r5, fp, ror #22

00000f64 <l859>:
     f64:	e0b1777c 	adcs	r7, r1, ip, ror r7

00000f68 <l860>:
     f68:	01b08332 	lsrseq	r8, r2, r3

00000f6c <l861>:
     f6c:	e13b0003 	teq	fp, r3

00000f70 <l862>:
     f70:	8033306e 	eorshi	r3, r3, lr, rrx

00000f74 <l863>:
     f74:	c0839657 	addgt	r9, r3, r7, asr r6

00000f78 <l864>:
     f78:	d0d18e0b 	sbcsle	r8, r1, fp, lsl #28

00000f7c <l865>:
     f7c:	80a3a00e 	adchi	sl, r3, lr

00000f80 <l866>:
     f80:	831304de 	tsthi	r3, #-570425344	; 0xde000000

00000f84 <l867>:
     f84:	819b21cb 	orrshi	r2, fp, fp, asr #3

00000f88 <l868>:
     f88:	9a000000 	bls	f90 <l870>

00000f8c <l869>:
     f8c:	e05517a7 	subs	r1, r5, r7, lsr #15

00000f90 <l870>:
     f90:	51b09013 	lslspl	r9, r3, r0

00000f94 <l871>:
     f94:	d21c1931 	andsle	r1, ip, #802816	; 0xc4000

00000f98 <l872>:
     f98:	e0f03211 	rscs	r3, r0, r1, lsl r2

00000f9c <l873>:
     f9c:	217b0005 	cmncs	fp, r5

00000fa0 <l874>:
     fa0:	a1de4a12 	bicsge	r4, lr, r2, lsl sl

00000fa4 <l875>:
     fa4:	b024771e 	eorlt	r7, r4, lr, lsl r7

00000fa8 <l876>:
     fa8:	e1190ce8 	tst	r9, r8, ror #25

00000fac <l877>:
     fac:	e15a000b 	cmp	sl, fp

00000fb0 <l878>:
     fb0:	9070906a 	rsbsls	r9, r0, sl, rrx

00000fb4 <l879>:
     fb4:	e16fef14 	clz	lr, r4

00000fb8 <l880>:
     fb8:	e1730000 	cmn	r3, r0

00000fbc <l881>:
     fbc:	d16fbf10 	clzle	fp, r0

00000fc0 <l882>:
     fc0:	923b0203 	eorsls	r0, fp, #805306368	; 0x30000000

00000fc4 <l883>:
     fc4:	0004c001 	andeq	ip, r4, r1

00000fc8 <l884>:
     fc8:	e1a0b06b 	rrx	fp, fp

00000fcc <l885>:
     fcc:	e16f9f12 	clz	r9, r2

00000fd0 <l886>:
     fd0:	90587063 	subsls	r7, r8, r3, rrx

00000fd4 <l887>:
     fd4:	e1a0a956 	asr	sl, r6, r9

00000fd8 <l888>:
     fd8:	e07ea066 	rsbs	sl, lr, r6, rrx

00000fdc <l889>:
     fdc:	d235338e 	eorsle	r3, r5, #939524098	; 0x38000002

00000fe0 <l890>:
     fe0:	d1790004 	cmnle	r9, r4

00000fe4 <l891>:
     fe4:	b0a4a007 	adclt	sl, r4, r7

00000fe8 <l892>:
     fe8:	e06e706c 	rsb	r7, lr, ip, rrx

00000fec <l893>:
     fec:	a024cb1e 	eorge	ip, r4, lr, lsl fp

00000ff0 <l894>:
     ff0:	c0988006 	addsgt	r8, r8, r6

00000ff4 <l895>:
     ff4:	e16f8f1c 	clz	r8, ip

00000ff8 <l896>:
     ff8:	e0784000 	rsbs	r4, r8, r0

00000ffc <l897>:
     ffc:	8a000005 	bhi	1018 <l904>

00001000 <l898>:
    1000:	833704d6 	teqhi	r7, #-704643072	; 0xd6000000

00001004 <l899>:
    1004:	c1e01067 	mvngt	r1, r7, rrx

00001008 <l900>:
    1008:	e0ee0b88 	rsc	r0, lr, r8, lsl #23

0000100c <l901>:
    100c:	e20ba9cd 	and	sl, fp, #3358720	; 0x334000

00001010 <l902>:
    1010:	e1780005 	cmn	r8, r5

00001014 <l903>:
    1014:	e0769005 	rsbs	r9, r6, r5

00001018 <l904>:
    1018:	e1c64004 	bic	r4, r6, r4

0000101c <l905>:
    101c:	e1d15736 	bics	r5, r1, r6, lsr r7

00001020 <l906>:
    1020:	e02ee18c 	eor	lr, lr, ip, lsl #3

00001024 <l907>:
    1024:	b08bc460 	addlt	ip, fp, r0, ror #8

00001028 <l908>:
    1028:	01a06067 	rrxeq	r6, r7

0000102c <l909>:
    102c:	0072700e 	rsbseq	r7, r2, lr

00001030 <l910>:
    1030:	739c8991 	orrsvc	r8, ip, #2375680	; 0x244000

00001034 <l911>:
    1034:	e2451332 	sub	r1, r5, #-939524096	; 0xc8000000

00001038 <l912>:
    1038:	c0442389 	subgt	r2, r4, r9, lsl #7

0000103c <l913>:
    103c:	e1720401 	cmn	r2, r1, lsl #8

00001040 <l914>:
    1040:	e03b0779 	eors	r0, fp, r9, ror r7

00001044 <l915>:
    1044:	e0f61004 	rscs	r1, r6, r4

00001048 <l916>:
    1048:	e0d8e008 	sbcs	lr, r8, r8

0000104c <l917>:
    104c:	716f0f19 	clzvc	r0, r9

00001050 <l918>:
    1050:	a20a342a 	andge	r3, sl, #704643072	; 0x2a000000

00001054 <l919>:
    1054:	e1310005 	teq	r1, r5

00001058 <l920>:
    1058:	a3160693 	tstge	r6, #154140672	; 0x9300000

0000105c <l921>:
    105c:	e2c143f3 	sbc	r4, r1, #-872415229	; 0xcc000003

00001060 <l922>:
    1060:	606b700a 	rsbvs	r7, fp, sl

00001064 <l923>:
    1064:	e1d2006b 	bics	r0, r2, fp, rrx

00001068 <l924>:
    1068:	70150b3b 	andsvc	r0, r5, fp, lsr fp

0000106c <l925>:
    106c:	e2e1bc8a 	rsc	fp, r1, #35328	; 0x8a00

00001070 <l926>:
    1070:	039e1835 	orrseq	r1, lr, #3473408	; 0x350000

00001074 <l927>:
    1074:	e112006a 	tst	r2, sl, rrx

00001078 <l928>:
    1078:	31770005 	cmncc	r7, r5

0000107c <l929>:
    107c:	d03c4006 	eorsle	r4, ip, r6

00001080 <l930>:
    1080:	c3e0c3cf 	mvngt	ip, #1006632963	; 0x3c000003

00001084 <l931>:
    1084:	e0370c78 	eors	r0, r7, r8, ror ip

00001088 <l932>:
    1088:	ca000002 	bgt	1098 <l936>

0000108c <l933>:
    108c:	e37a000c 	cmn	sl, #12

00001090 <l934>:
    1090:	50d407c9 	sbcspl	r0, r4, r9, asr #15

00001094 <l935>:
    1094:	d2794ccb 	rsbsle	r4, r9, #51968	; 0xcb00

00001098 <l936>:
    1098:	71b0e577 	rorsvc	lr, r7, r5

0000109c <l937>:
    109c:	11540c67 	cmpne	r4, r7, ror #24

000010a0 <l938>:
    10a0:	ea000000 	b	10a8 <l940>

000010a4 <l939>:
    10a4:	716f5f18 	clzvc	r5, r8

000010a8 <l940>:
    10a8:	50563b76 	subspl	r3, r6, r6, ror fp

000010ac <l941>:
    10ac:	51f0ee15 	mvnspl	lr, r5, lsl lr

000010b0 <l942>:
    10b0:	e066e011 	rsb	lr, r6, r1, lsl r0

000010b4 <l943>:
    10b4:	ea000006 	b	10d4 <l951>

000010b8 <l944>:
    10b8:	2233e73b 	eorscs	lr, r3, #15466496	; 0xec0000

000010bc <l945>:
    10bc:	e020e4a2 	eor	lr, r0, r2, lsr #9

000010c0 <l946>:
    10c0:	51968253 	orrspl	r8, r6, r3, asr r2

000010c4 <l947>:
    10c4:	40aae00c 	adcmi	lr, sl, ip

000010c8 <l948>:
    10c8:	51873003 	orrpl	r3, r7, r3

000010cc <l949>:
    10cc:	90084005 	andls	r4, r8, r5

000010d0 <l950>:
    10d0:	c049a002 	subgt	sl, r9, r2

000010d4 <l951>:
    10d4:	e06aa136 	rsb	sl, sl, r6, lsr r1

000010d8 <l952>:
    10d8:	e13c0580 	teq	ip, r0, lsl #11

000010dc <l953>:
    10dc:	71b03004 	movsvc	r3, r4

000010e0 <l954>:
    10e0:	80289317 	eorhi	r9, r8, r7, lsl r3

000010e4 <l955>:
    10e4:	a1e07006 	mvnge	r7, r6

000010e8 <l956>:
    10e8:	815b006b 	cmphi	fp, fp, rrx

000010ec <l957>:
    10ec:	e170000f 	cmn	r0, pc

000010f0 <l958>:
    10f0:	4034c378 	eorsmi	ip, r4, r8, ror r3

000010f4 <l959>:
    10f4:	51340036 	teqpl	r4, r6, lsr r0

000010f8 <l960>:
    10f8:	713f000e 	teqvc	pc, lr

000010fc <l961>:
    10fc:	42889074 	addmi	r9, r8, #116	; 0x74

00001100 <l962>:
    1100:	e3a0113a 	mov	r1, #-2147483634	; 0x8000000e

00001104 <l963>:
    1104:	6130006a 	teqvs	r0, sl, rrx

00001108 <l964>:
    1108:	a1a0b00e 	movge	fp, lr

0000110c <l965>:
    110c:	10038374 	andne	r8, r3, r4, ror r3

00001110 <l966>:
    1110:	e1320663 	teq	r2, r3, ror #12

00001114 <l967>:
    1114:	42f1876f 	rscsmi	r8, r1, #29097984	; 0x1bc0000

00001118 <l968>:
    1118:	319c1715 	orrscc	r1, ip, r5, lsl r7

0000111c <l969>:
    111c:	01560576 	cmpeq	r6, r6, ror r5

00001120 <l970>:
    1120:	d098406c 	addsle	r4, r8, ip, rrx

00001124 <l971>:
    1124:	001ba673 	andseq	sl, fp, r3, ror r6

00001128 <l972>:
    1128:	d1a03008 	movle	r3, r8

0000112c <l973>:
    112c:	e175000f 	cmn	r5, pc

00001130 <l974>:
    1130:	ea000007 	b	1154 <l983>

00001134 <l975>:
    1134:	b158000a 	cmplt	r8, sl

00001138 <l976>:
    1138:	d0dc02c3 	sbcsle	r0, ip, r3, asr #5

0000113c <l977>:
    113c:	e0fe536c 	rscs	r5, lr, ip, ror #6

00001140 <l978>:
    1140:	a0508006 	subsge	r8, r0, r6

00001144 <l979>:
    1144:	037a01a2 	cmneq	sl, #-2147483608	; 0x80000028

00001148 <l980>:
    1148:	d1350000 	teqle	r5, r0

0000114c <l981>:
    114c:	e134006a 	teq	r4, sl, rrx

00001150 <l982>:
    1150:	e3500b47 	cmp	r0, #72704	; 0x11c00

00001154 <l983>:
    1154:	e0872b41 	add	r2, r7, r1, asr #22

00001158 <l984>:
    1158:	3072600c 	rsbscc	r6, r2, ip

0000115c <l985>:
    115c:	80d78004 	sbcshi	r8, r7, r4

00001160 <l986>:
    1160:	8197487e 	orrshi	r4, r7, lr, ror r8

00001164 <l987>:
    1164:	e1c03066 	bic	r3, r0, r6, rrx

00001168 <l988>:
    1168:	e1f0600a 	mvns	r6, sl

0000116c <l989>:
    116c:	e3830a3b 	orr	r0, r3, #241664	; 0x3b000

00001170 <l990>:
    1170:	10eeac52 	rscne	sl, lr, r2, asr ip

00001174 <l991>:
    1174:	7009906e 	andvc	r9, r9, lr, rrx

00001178 <l992>:
    1178:	c133090b 	teqgt	r3, fp, lsl #18

0000117c <l993>:
    117c:	e1857e4f 	orr	r7, r5, pc, asr #28

00001180 <l994>:
    1180:	e16f2f12 	clz	r2, r2

00001184 <l995>:
    1184:	e17b0000 	cmn	fp, r0

00001188 <l996>:
    1188:	80810c34 	addhi	r0, r1, r4, lsr ip

0000118c <l997>:
    118c:	31760353 	cmncc	r6, r3, asr r3

00001190 <l998>:
    1190:	429e2af3 	addsmi	r2, lr, #995328	; 0xf3000

00001194 <l999>:
    1194:	d16f2f14 	clzle	r2, r4

00001198 <l1000>:
    1198:	e1db295a 	bics	r2, fp, sl, asr r9

0000119c <end>:
    119c:	eafffffe 	b	119c <end>
