
hsbmem_5000.o:     file format elf32-littlearm


Disassembly of section .text:

00000000 <main>:
       0:	e05f000f 	subs	r0, pc, pc
       4:	e59fd000 	ldr	sp, [pc]	; c <val>
       8:	ea000000 	b	10 <next>

0000000c <val>:
       c:	000ffff0 	.word	0x000ffff0

00000010 <next>:
      10:	e59f1000 	ldr	r1, [pc]	; 18 <val1>
      14:	ea000000 	b	1c <next1>

00000018 <val1>:
      18:	7fd71655 	.word	0x7fd71655

0000001c <next1>:
      1c:	e59f2000 	ldr	r2, [pc]	; 24 <val2>
      20:	ea000000 	b	28 <next2>

00000024 <val2>:
      24:	1f3d448e 	.word	0x1f3d448e

00000028 <next2>:
      28:	e59f3000 	ldr	r3, [pc]	; 30 <val3>
      2c:	ea000000 	b	34 <next3>

00000030 <val3>:
      30:	0ab2c056 	.word	0x0ab2c056

00000034 <next3>:
      34:	e59f4000 	ldr	r4, [pc]	; 3c <val4>
      38:	ea000000 	b	40 <next4>

0000003c <val4>:
      3c:	e2cc4e6c 	.word	0xe2cc4e6c

00000040 <next4>:
      40:	e59f5000 	ldr	r5, [pc]	; 48 <val5>
      44:	ea000000 	b	4c <next5>

00000048 <val5>:
      48:	e7e1d1f9 	.word	0xe7e1d1f9

0000004c <next5>:
      4c:	e59f6000 	ldr	r6, [pc]	; 54 <val6>
      50:	ea000000 	b	58 <next6>

00000054 <val6>:
      54:	820f189a 	.word	0x820f189a

00000058 <next6>:
      58:	e59f7000 	ldr	r7, [pc]	; 60 <val7>
      5c:	ea000000 	b	64 <next7>

00000060 <val7>:
      60:	20517ad5 	.word	0x20517ad5

00000064 <next7>:
      64:	e59f8000 	ldr	r8, [pc]	; 6c <val8>
      68:	ea000000 	b	70 <next8>

0000006c <val8>:
      6c:	b9275c90 	.word	0xb9275c90

00000070 <next8>:
      70:	e59f9000 	ldr	r9, [pc]	; 78 <val9>
      74:	ea000000 	b	7c <next9>

00000078 <val9>:
      78:	aa3af30f 	.word	0xaa3af30f

0000007c <next9>:
      7c:	e59fa000 	ldr	sl, [pc]	; 84 <val10>
      80:	ea000000 	b	88 <next10>

00000084 <val10>:
      84:	50af78e2 	.word	0x50af78e2

00000088 <next10>:
      88:	e59fb000 	ldr	fp, [pc]	; 90 <val11>
      8c:	ea000000 	b	94 <next11>

00000090 <val11>:
      90:	dd7d288d 	.word	0xdd7d288d

00000094 <next11>:
      94:	e59fc000 	ldr	ip, [pc]	; 9c <val12>
      98:	ea000000 	b	a0 <next12>

0000009c <val12>:
      9c:	212f8c59 	.word	0x212f8c59

000000a0 <next12>:
      a0:	e59fe000 	ldr	lr, [pc]	; a8 <val14>
      a4:	ea000000 	b	ac <next14>

000000a8 <val14>:
      a8:	9e5d0928 	.word	0x9e5d0928

000000ac <next14>:
      ac:	e59f1000 	ldr	r1, [pc]	; b4 <val15>
      b0:	ea000000 	b	b8 <next15>

000000b4 <val15>:
      b4:	b5646fab 	.word	0xb5646fab

000000b8 <next15>:
      b8:	e58d1000 	str	r1, [sp]
      bc:	e59f1000 	ldr	r1, [pc]	; c4 <val16>
      c0:	ea000000 	b	c8 <next16>

000000c4 <val16>:
      c4:	b86cfa22 	.word	0xb86cfa22

000000c8 <next16>:
      c8:	e50d1004 	str	r1, [sp, #-4]
      cc:	e59f1000 	ldr	r1, [pc]	; d4 <val17>
      d0:	ea000000 	b	d8 <next17>

000000d4 <val17>:
      d4:	f79f1553 	.word	0xf79f1553

000000d8 <next17>:
      d8:	e50d1008 	str	r1, [sp, #-8]
      dc:	e59f1000 	ldr	r1, [pc]	; e4 <val18>
      e0:	ea000000 	b	e8 <next18>

000000e4 <val18>:
      e4:	8fad5882 	.word	0x8fad5882

000000e8 <next18>:
      e8:	e50d100c 	str	r1, [sp, #-12]
      ec:	e59f1000 	ldr	r1, [pc]	; f4 <val19>
      f0:	ea000000 	b	f8 <next19>

000000f4 <val19>:
      f4:	80ef7481 	.word	0x80ef7481

000000f8 <next19>:
      f8:	e50d1010 	str	r1, [sp, #-16]
      fc:	e59f1000 	ldr	r1, [pc]	; 104 <val20>
     100:	ea000000 	b	108 <next20>

00000104 <val20>:
     104:	b1e01760 	.word	0xb1e01760

00000108 <next20>:
     108:	e50d1014 	str	r1, [sp, #-20]
     10c:	e59f1000 	ldr	r1, [pc]	; 114 <val21>
     110:	ea000000 	b	118 <next21>

00000114 <val21>:
     114:	8d06221a 	.word	0x8d06221a

00000118 <next21>:
     118:	e50d1018 	str	r1, [sp, #-24]
     11c:	e59f1000 	ldr	r1, [pc]	; 124 <val22>
     120:	ea000000 	b	128 <next22>

00000124 <val22>:
     124:	cdc8b56e 	.word	0xcdc8b56e

00000128 <next22>:
     128:	e50d101c 	str	r1, [sp, #-28]
     12c:	e59f1000 	ldr	r1, [pc]	; 134 <val23>
     130:	ea000000 	b	138 <next23>

00000134 <val23>:
     134:	c4a49a2e 	.word	0xc4a49a2e

00000138 <next23>:
     138:	e50d1020 	str	r1, [sp, #-32]
     13c:	e59f1000 	ldr	r1, [pc]	; 144 <val24>
     140:	ea000000 	b	148 <next24>

00000144 <val24>:
     144:	f063cf59 	.word	0xf063cf59

00000148 <next24>:
     148:	e50d1024 	str	r1, [sp, #-36]	; 0x24
     14c:	e59f1000 	ldr	r1, [pc]	; 154 <val25>
     150:	ea000000 	b	158 <next25>

00000154 <val25>:
     154:	7bcdc78e 	.word	0x7bcdc78e

00000158 <next25>:
     158:	e50d1028 	str	r1, [sp, #-40]	; 0x28
     15c:	e59f1000 	ldr	r1, [pc]	; 164 <val26>
     160:	ea000000 	b	168 <next26>

00000164 <val26>:
     164:	e34253b7 	.word	0xe34253b7

00000168 <next26>:
     168:	e50d102c 	str	r1, [sp, #-44]	; 0x2c
     16c:	e59f1000 	ldr	r1, [pc]	; 174 <val27>
     170:	ea000000 	b	178 <next27>

00000174 <val27>:
     174:	0dbdab48 	.word	0x0dbdab48

00000178 <next27>:
     178:	e50d1030 	str	r1, [sp, #-48]	; 0x30
     17c:	e59f1000 	ldr	r1, [pc]	; 184 <val28>
     180:	ea000000 	b	188 <next28>

00000184 <val28>:
     184:	0e7b81b8 	.word	0x0e7b81b8

00000188 <next28>:
     188:	e50d1034 	str	r1, [sp, #-52]	; 0x34
     18c:	e59f1000 	ldr	r1, [pc]	; 194 <val29>
     190:	ea000000 	b	198 <next29>

00000194 <val29>:
     194:	cd7ee09d 	.word	0xcd7ee09d

00000198 <next29>:
     198:	e50d1038 	str	r1, [sp, #-56]	; 0x38
     19c:	e59f1000 	ldr	r1, [pc]	; 1a4 <val30>
     1a0:	ea000000 	b	1a8 <next30>

000001a4 <val30>:
     1a4:	2fd313e7 	.word	0x2fd313e7

000001a8 <next30>:
     1a8:	e50d103c 	str	r1, [sp, #-60]	; 0x3c
     1ac:	e59f1000 	ldr	r1, [pc]	; 1b4 <val31>
     1b0:	ea000000 	b	1b8 <next31>

000001b4 <val31>:
     1b4:	e5558e6b 	.word	0xe5558e6b

000001b8 <next31>:
     1b8:	e50d1040 	str	r1, [sp, #-64]	; 0x40
     1bc:	e59f1000 	ldr	r1, [pc]	; 1c4 <val32>
     1c0:	ea000000 	b	1c8 <next32>

000001c4 <val32>:
     1c4:	627bb8d4 	.word	0x627bb8d4

000001c8 <next32>:
     1c8:	e50d1044 	str	r1, [sp, #-68]	; 0x44
     1cc:	e59f1000 	ldr	r1, [pc]	; 1d4 <val33>
     1d0:	ea000000 	b	1d8 <next33>

000001d4 <val33>:
     1d4:	ca939fbe 	.word	0xca939fbe

000001d8 <next33>:
     1d8:	e50d1048 	str	r1, [sp, #-72]	; 0x48
     1dc:	e59f1000 	ldr	r1, [pc]	; 1e4 <val34>
     1e0:	ea000000 	b	1e8 <next34>

000001e4 <val34>:
     1e4:	da2cc729 	.word	0xda2cc729

000001e8 <next34>:
     1e8:	e50d104c 	str	r1, [sp, #-76]	; 0x4c
     1ec:	e59f1000 	ldr	r1, [pc]	; 1f4 <val35>
     1f0:	ea000000 	b	1f8 <next35>

000001f4 <val35>:
     1f4:	41ca99b7 	.word	0x41ca99b7

000001f8 <next35>:
     1f8:	e50d1050 	str	r1, [sp, #-80]	; 0x50

000001fc <l1>:
     1fc:	e15d02d0 	ldrsb	r0, [sp, #-32]	; 0xffffffe0

00000200 <l2>:
     200:	815d44df 	ldrsbhi	r4, [sp, #-79]	; 0xffffffb1

00000204 <l3>:
     204:	715d30d7 	ldrsbvc	r3, [sp, #-7]

00000208 <l4>:
     208:	e3a08036 	mov	r8, #54	; 0x36

0000020c <l5>:
     20c:	e11d40f8 	ldrsh	r4, [sp, -r8]

00000210 <l6>:
     210:	e3a0b01b 	mov	fp, #27

00000214 <l7>:
     214:	e11d00db 	ldrsb	r0, [sp, -fp]

00000218 <l8>:
     218:	615d61fc 	ldrshvs	r6, [sp, #-28]	; 0xffffffe4

0000021c <l9>:
     21c:	115d20fc 	ldrshne	r2, [sp, #-12]

00000220 <l10>:
     220:	915d34b0 	ldrhls	r3, [sp, #-64]	; 0xffffffc0

00000224 <l11>:
     224:	814d22bc 	strhhi	r2, [sp, #-44]	; 0xffffffd4

00000228 <l12>:
     228:	015d01f6 	ldrsheq	r0, [sp, #-22]	; 0xffffffea

0000022c <l13>:
     22c:	e15d33d1 	ldrsb	r3, [sp, #-49]	; 0xffffffcf

00000230 <l14>:
     230:	615d10dc 	ldrsbvs	r1, [sp, #-12]

00000234 <l15>:
     234:	115d53fa 	ldrshne	r5, [sp, #-58]	; 0xffffffc6

00000238 <l16>:
     238:	e3a0e00a 	mov	lr, #10

0000023c <l17>:
     23c:	e11d20be 	ldrh	r2, [sp, -lr]

00000240 <l18>:
     240:	e3a01049 	mov	r1, #73	; 0x49

00000244 <l19>:
     244:	e11d90d1 	ldrsb	r9, [sp, -r1]

00000248 <l20>:
     248:	e3a0404c 	mov	r4, #76	; 0x4c

0000024c <l21>:
     24c:	711d90f4 	ldrshvc	r9, [sp, -r4]

00000250 <l22>:
     250:	e3a0904a 	mov	r9, #74	; 0x4a

00000254 <l23>:
     254:	e11da0b9 	ldrh	sl, [sp, -r9]

00000258 <l24>:
     258:	e15d32b2 	ldrh	r3, [sp, #-34]	; 0xffffffde

0000025c <l25>:
     25c:	e3a0e04c 	mov	lr, #76	; 0x4c

00000260 <l26>:
     260:	b10da0be 	strhlt	sl, [sp, -lr]

00000264 <l27>:
     264:	e3a04011 	mov	r4, #17

00000268 <l28>:
     268:	a11d90d4 	ldrsbge	r9, [sp, -r4]

0000026c <l29>:
     26c:	e3a0b04a 	mov	fp, #74	; 0x4a

00000270 <l30>:
     270:	e11dc0fb 	ldrsh	ip, [sp, -fp]

00000274 <l31>:
     274:	e3a0204a 	mov	r2, #74	; 0x4a

00000278 <l32>:
     278:	e11db0b2 	ldrh	fp, [sp, -r2]

0000027c <l33>:
     27c:	e3a05031 	mov	r5, #49	; 0x31

00000280 <l34>:
     280:	711dc0d5 	ldrsbvc	ip, [sp, -r5]

00000284 <l35>:
     284:	a15dc0ba 	ldrhge	ip, [sp, #-10]

00000288 <l36>:
     288:	e15d84d5 	ldrsb	r8, [sp, #-69]	; 0xffffffbb

0000028c <l37>:
     28c:	e15d14f8 	ldrsh	r1, [sp, #-72]	; 0xffffffb8

00000290 <l38>:
     290:	e3a01040 	mov	r1, #64	; 0x40

00000294 <l39>:
     294:	410d30b1 	strhmi	r3, [sp, -r1]

00000298 <l40>:
     298:	e3a0a01c 	mov	sl, #28

0000029c <l41>:
     29c:	e11d60ba 	ldrh	r6, [sp, -sl]

000002a0 <l42>:
     2a0:	e14d54b0 	strh	r5, [sp, #-64]	; 0xffffffc0

000002a4 <l43>:
     2a4:	715d31f6 	ldrshvc	r3, [sp, #-22]	; 0xffffffea

000002a8 <l44>:
     2a8:	915de0fe 	ldrshls	lr, [sp, #-14]

000002ac <l45>:
     2ac:	e3a00024 	mov	r0, #36	; 0x24

000002b0 <l46>:
     2b0:	e11d40b0 	ldrh	r4, [sp, -r0]

000002b4 <l47>:
     2b4:	e3a0601f 	mov	r6, #31

000002b8 <l48>:
     2b8:	e11d00d6 	ldrsb	r0, [sp, -r6]

000002bc <l49>:
     2bc:	e3a07036 	mov	r7, #54	; 0x36

000002c0 <l50>:
     2c0:	311d80b7 	ldrhcc	r8, [sp, -r7]

000002c4 <l51>:
     2c4:	e15d11d2 	ldrsb	r1, [sp, #-18]	; 0xffffffee

000002c8 <l52>:
     2c8:	c15d01b2 	ldrhgt	r0, [sp, #-18]	; 0xffffffee

000002cc <l53>:
     2cc:	e3a0903c 	mov	r9, #60	; 0x3c

000002d0 <l54>:
     2d0:	e11d00d9 	ldrsb	r0, [sp, -r9]

000002d4 <l55>:
     2d4:	e15d22f0 	ldrsh	r2, [sp, #-32]	; 0xffffffe0

000002d8 <l56>:
     2d8:	e3a0204a 	mov	r2, #74	; 0x4a

000002dc <l57>:
     2dc:	e11d60b2 	ldrh	r6, [sp, -r2]

000002e0 <l58>:
     2e0:	e3a0b04e 	mov	fp, #78	; 0x4e

000002e4 <l59>:
     2e4:	811db0db 	ldrsbhi	fp, [sp, -fp]

000002e8 <l60>:
     2e8:	e14da2b6 	strh	sl, [sp, #-38]	; 0xffffffda

000002ec <l61>:
     2ec:	e3a06016 	mov	r6, #22

000002f0 <l62>:
     2f0:	e11d60b6 	ldrh	r6, [sp, -r6]

000002f4 <l63>:
     2f4:	815d04dc 	ldrsbhi	r0, [sp, #-76]	; 0xffffffb4

000002f8 <l64>:
     2f8:	e3a0a050 	mov	sl, #80	; 0x50

000002fc <l65>:
     2fc:	e11d10ba 	ldrh	r1, [sp, -sl]

00000300 <l66>:
     300:	e3a0900b 	mov	r9, #11

00000304 <l67>:
     304:	e11da0d9 	ldrsb	sl, [sp, -r9]

00000308 <l68>:
     308:	e3a06010 	mov	r6, #16

0000030c <l69>:
     30c:	811db0f6 	ldrshhi	fp, [sp, -r6]

00000310 <l70>:
     310:	e15d21dd 	ldrsb	r2, [sp, #-29]	; 0xffffffe3

00000314 <l71>:
     314:	e3a03050 	mov	r3, #80	; 0x50

00000318 <l72>:
     318:	111d50b3 	ldrhne	r5, [sp, -r3]

0000031c <l73>:
     31c:	e15db4f0 	ldrsh	fp, [sp, #-64]	; 0xffffffc0

00000320 <l74>:
     320:	315d92b4 	ldrhcc	r9, [sp, #-36]	; 0xffffffdc

00000324 <l75>:
     324:	e3a08038 	mov	r8, #56	; 0x38

00000328 <l76>:
     328:	911d60f8 	ldrshls	r6, [sp, -r8]

0000032c <l77>:
     32c:	e3a00024 	mov	r0, #36	; 0x24

00000330 <l78>:
     330:	e11d50f0 	ldrsh	r5, [sp, -r0]

00000334 <l79>:
     334:	215d81b4 	ldrhcs	r8, [sp, #-20]	; 0xffffffec

00000338 <l80>:
     338:	e3a04044 	mov	r4, #68	; 0x44

0000033c <l81>:
     33c:	310dc0b4 	strhcc	ip, [sp, -r4]

00000340 <l82>:
     340:	e3a0701e 	mov	r7, #30

00000344 <l83>:
     344:	e11d50b7 	ldrh	r5, [sp, -r7]

00000348 <l84>:
     348:	e3a0b048 	mov	fp, #72	; 0x48

0000034c <l85>:
     34c:	910de0bb 	strhls	lr, [sp, -fp]

00000350 <l86>:
     350:	e3a0402e 	mov	r4, #46	; 0x2e

00000354 <l87>:
     354:	b11de0f4 	ldrshlt	lr, [sp, -r4]

00000358 <l88>:
     358:	e3a05034 	mov	r5, #52	; 0x34

0000035c <l89>:
     35c:	511d30b5 	ldrhpl	r3, [sp, -r5]

00000360 <l90>:
     360:	e15d34f0 	ldrsh	r3, [sp, #-64]	; 0xffffffc0

00000364 <l91>:
     364:	d15d34fa 	ldrshle	r3, [sp, #-74]	; 0xffffffb6

00000368 <l92>:
     368:	e15d35f0 	ldrsh	r3, [sp, #-80]	; 0xffffffb0

0000036c <l93>:
     36c:	e3a02040 	mov	r2, #64	; 0x40

00000370 <l94>:
     370:	e11d20d2 	ldrsb	r2, [sp, -r2]

00000374 <l95>:
     374:	e3a0c01a 	mov	ip, #26

00000378 <l96>:
     378:	e11d50bc 	ldrh	r5, [sp, -ip]

0000037c <l97>:
     37c:	815d73b2 	ldrhhi	r7, [sp, #-50]	; 0xffffffce

00000380 <l98>:
     380:	e3a0e02e 	mov	lr, #46	; 0x2e

00000384 <l99>:
     384:	811d80fe 	ldrshhi	r8, [sp, -lr]

00000388 <l100>:
     388:	e3a08026 	mov	r8, #38	; 0x26

0000038c <l101>:
     38c:	911d50f8 	ldrshls	r5, [sp, -r8]

00000390 <l102>:
     390:	e3a0002e 	mov	r0, #46	; 0x2e

00000394 <l103>:
     394:	d10d00b0 	strhle	r0, [sp, -r0]

00000398 <l104>:
     398:	e3a0c04e 	mov	ip, #78	; 0x4e

0000039c <l105>:
     39c:	410da0bc 	strhmi	sl, [sp, -ip]

000003a0 <l106>:
     3a0:	b15d03d1 	ldrsblt	r0, [sp, #-49]	; 0xffffffcf

000003a4 <l107>:
     3a4:	015da1f0 	ldrsheq	sl, [sp, #-16]

000003a8 <l108>:
     3a8:	e3a00036 	mov	r0, #54	; 0x36

000003ac <l109>:
     3ac:	e11db0d0 	ldrsb	fp, [sp, -r0]

000003b0 <l110>:
     3b0:	e15d80f6 	ldrsh	r8, [sp, #-6]

000003b4 <l111>:
     3b4:	e3a0c04b 	mov	ip, #75	; 0x4b

000003b8 <l112>:
     3b8:	211d30dc 	ldrsbcs	r3, [sp, -ip]

000003bc <l113>:
     3bc:	e15d44b8 	ldrh	r4, [sp, #-72]	; 0xffffffb8

000003c0 <l114>:
     3c0:	e3a0e008 	mov	lr, #8

000003c4 <l115>:
     3c4:	e11d80fe 	ldrsh	r8, [sp, -lr]

000003c8 <l116>:
     3c8:	e15d83fe 	ldrsh	r8, [sp, #-62]	; 0xffffffc2

000003cc <l117>:
     3cc:	b15d93da 	ldrsblt	r9, [sp, #-58]	; 0xffffffc6

000003d0 <l118>:
     3d0:	e14d51bc 	strh	r5, [sp, #-28]	; 0xffffffe4

000003d4 <l119>:
     3d4:	e3a0b050 	mov	fp, #80	; 0x50

000003d8 <l120>:
     3d8:	611d20db 	ldrsbvs	r2, [sp, -fp]

000003dc <l121>:
     3dc:	714d43b4 	strhvc	r4, [sp, #-52]	; 0xffffffcc

000003e0 <l122>:
     3e0:	714d11b6 	strhvc	r1, [sp, #-22]	; 0xffffffea

000003e4 <l123>:
     3e4:	815d84d0 	ldrsbhi	r8, [sp, #-64]	; 0xffffffc0

000003e8 <l124>:
     3e8:	915d42b0 	ldrhls	r4, [sp, #-32]	; 0xffffffe0

000003ec <l125>:
     3ec:	515d00f6 	ldrshpl	r0, [sp, #-6]

000003f0 <l126>:
     3f0:	615d61f2 	ldrshvs	r6, [sp, #-18]	; 0xffffffee

000003f4 <l127>:
     3f4:	e15de5f0 	ldrsh	lr, [sp, #-80]	; 0xffffffb0

000003f8 <l128>:
     3f8:	e3a04016 	mov	r4, #22

000003fc <l129>:
     3fc:	c11d80f4 	ldrshgt	r8, [sp, -r4]

00000400 <l130>:
     400:	e15d31f4 	ldrsh	r3, [sp, #-20]	; 0xffffffec

00000404 <l131>:
     404:	a15d83d4 	ldrsbge	r8, [sp, #-52]	; 0xffffffcc

00000408 <l132>:
     408:	e3a07040 	mov	r7, #64	; 0x40

0000040c <l133>:
     40c:	210d00b7 	strhcs	r0, [sp, -r7]

00000410 <l134>:
     410:	e15de1da 	ldrsb	lr, [sp, #-26]	; 0xffffffe6

00000414 <l135>:
     414:	e3a01008 	mov	r1, #8

00000418 <l136>:
     418:	b10db0b1 	strhlt	fp, [sp, -r1]

0000041c <l137>:
     41c:	e3a0304e 	mov	r3, #78	; 0x4e

00000420 <l138>:
     420:	e10d00b3 	strh	r0, [sp, -r3]

00000424 <l139>:
     424:	815da4d0 	ldrsbhi	sl, [sp, #-64]	; 0xffffffc0

00000428 <l140>:
     428:	e3a02022 	mov	r2, #34	; 0x22

0000042c <l141>:
     42c:	d10d70b2 	strhle	r7, [sp, -r2]

00000430 <l142>:
     430:	e3a0104e 	mov	r1, #78	; 0x4e

00000434 <l143>:
     434:	110d90b1 	strhne	r9, [sp, -r1]

00000438 <l144>:
     438:	e15d93db 	ldrsb	r9, [sp, #-59]	; 0xffffffc5

0000043c <l145>:
     43c:	e15db5b0 	ldrh	fp, [sp, #-80]	; 0xffffffb0

00000440 <l146>:
     440:	015dc4d3 	ldrsbeq	ip, [sp, #-67]	; 0xffffffbd

00000444 <l147>:
     444:	e15d52d6 	ldrsb	r5, [sp, #-38]	; 0xffffffda

00000448 <l148>:
     448:	e3a05006 	mov	r5, #6

0000044c <l149>:
     44c:	e10d10b5 	strh	r1, [sp, -r5]

00000450 <l150>:
     450:	e3a0202d 	mov	r2, #45	; 0x2d

00000454 <l151>:
     454:	e11d10d2 	ldrsb	r1, [sp, -r2]

00000458 <l152>:
     458:	e14d73b6 	strh	r7, [sp, #-54]	; 0xffffffca

0000045c <l153>:
     45c:	e3a06014 	mov	r6, #20

00000460 <l154>:
     460:	e11d50b6 	ldrh	r5, [sp, -r6]

00000464 <l155>:
     464:	e3a0b028 	mov	fp, #40	; 0x28

00000468 <l156>:
     468:	e10d90bb 	strh	r9, [sp, -fp]

0000046c <l157>:
     46c:	e3a0300c 	mov	r3, #12

00000470 <l158>:
     470:	111d00b3 	ldrhne	r0, [sp, -r3]

00000474 <l159>:
     474:	e3a03014 	mov	r3, #20

00000478 <l160>:
     478:	611d40b3 	ldrhvs	r4, [sp, -r3]

0000047c <l161>:
     47c:	e3a0b02a 	mov	fp, #42	; 0x2a

00000480 <l162>:
     480:	111db0bb 	ldrhne	fp, [sp, -fp]

00000484 <l163>:
     484:	815de3b2 	ldrhhi	lr, [sp, #-50]	; 0xffffffce

00000488 <l164>:
     488:	e3a00029 	mov	r0, #41	; 0x29

0000048c <l165>:
     48c:	d11d90d0 	ldrsble	r9, [sp, -r0]

00000490 <l166>:
     490:	e15d32b4 	ldrh	r3, [sp, #-36]	; 0xffffffdc

00000494 <l167>:
     494:	e3a04042 	mov	r4, #66	; 0x42

00000498 <l168>:
     498:	e11d30b4 	ldrh	r3, [sp, -r4]

0000049c <l169>:
     49c:	e3a02015 	mov	r2, #21

000004a0 <l170>:
     4a0:	611dc0d2 	ldrsbvs	ip, [sp, -r2]

000004a4 <l171>:
     4a4:	e15d04d6 	ldrsb	r0, [sp, #-70]	; 0xffffffba

000004a8 <l172>:
     4a8:	e15da4db 	ldrsb	sl, [sp, #-75]	; 0xffffffb5

000004ac <l173>:
     4ac:	e15d62d5 	ldrsb	r6, [sp, #-37]	; 0xffffffdb

000004b0 <l174>:
     4b0:	e3a0703e 	mov	r7, #62	; 0x3e

000004b4 <l175>:
     4b4:	211d30f7 	ldrshcs	r3, [sp, -r7]

000004b8 <l176>:
     4b8:	415d62de 	ldrsbmi	r6, [sp, #-46]	; 0xffffffd2

000004bc <l177>:
     4bc:	e3a03044 	mov	r3, #68	; 0x44

000004c0 <l178>:
     4c0:	e11d10f3 	ldrsh	r1, [sp, -r3]

000004c4 <l179>:
     4c4:	e3a0e022 	mov	lr, #34	; 0x22

000004c8 <l180>:
     4c8:	e10dc0be 	strh	ip, [sp, -lr]

000004cc <l181>:
     4cc:	e3a0b014 	mov	fp, #20

000004d0 <l182>:
     4d0:	a11d20fb 	ldrshge	r2, [sp, -fp]

000004d4 <l183>:
     4d4:	e15d21d3 	ldrsb	r2, [sp, #-19]	; 0xffffffed

000004d8 <l184>:
     4d8:	e3a02030 	mov	r2, #48	; 0x30

000004dc <l185>:
     4dc:	c11de0b2 	ldrhgt	lr, [sp, -r2]

000004e0 <l186>:
     4e0:	e3a02030 	mov	r2, #48	; 0x30

000004e4 <l187>:
     4e4:	611d60b2 	ldrhvs	r6, [sp, -r2]

000004e8 <l188>:
     4e8:	015db3f8 	ldrsheq	fp, [sp, #-56]	; 0xffffffc8

000004ec <l189>:
     4ec:	e3a0a036 	mov	sl, #54	; 0x36

000004f0 <l190>:
     4f0:	111d70fa 	ldrshne	r7, [sp, -sl]

000004f4 <l191>:
     4f4:	e3a04050 	mov	r4, #80	; 0x50

000004f8 <l192>:
     4f8:	e11d20f4 	ldrsh	r2, [sp, -r4]

000004fc <l193>:
     4fc:	d15da2dd 	ldrsble	sl, [sp, #-45]	; 0xffffffd3

00000500 <l194>:
     500:	e15de2ba 	ldrh	lr, [sp, #-42]	; 0xffffffd6

00000504 <l195>:
     504:	e3a07028 	mov	r7, #40	; 0x28

00000508 <l196>:
     508:	e11d90f7 	ldrsh	r9, [sp, -r7]

0000050c <l197>:
     50c:	e3a02006 	mov	r2, #6

00000510 <l198>:
     510:	311d80b2 	ldrhcc	r8, [sp, -r2]

00000514 <l199>:
     514:	e3a08024 	mov	r8, #36	; 0x24

00000518 <l200>:
     518:	810d80b8 	strhhi	r8, [sp, -r8]

0000051c <l201>:
     51c:	e15de2ba 	ldrh	lr, [sp, #-42]	; 0xffffffd6

00000520 <l202>:
     520:	e15d52fe 	ldrsh	r5, [sp, #-46]	; 0xffffffd2

00000524 <l203>:
     524:	315d20bc 	ldrhcc	r2, [sp, #-12]

00000528 <l204>:
     528:	615d12de 	ldrsbvs	r1, [sp, #-46]	; 0xffffffd2

0000052c <l205>:
     52c:	215d24d9 	ldrsbcs	r2, [sp, #-73]	; 0xffffffb7

00000530 <l206>:
     530:	e3a02014 	mov	r2, #20

00000534 <l207>:
     534:	e10d40b2 	strh	r4, [sp, -r2]

00000538 <l208>:
     538:	e3a06036 	mov	r6, #54	; 0x36

0000053c <l209>:
     53c:	711d70f6 	ldrshvc	r7, [sp, -r6]

00000540 <l210>:
     540:	e3a0700c 	mov	r7, #12

00000544 <l211>:
     544:	b11d40f7 	ldrshlt	r4, [sp, -r7]

00000548 <l212>:
     548:	e3a0704a 	mov	r7, #74	; 0x4a

0000054c <l213>:
     54c:	810d30b7 	strhhi	r3, [sp, -r7]

00000550 <l214>:
     550:	215da4b2 	ldrhcs	sl, [sp, #-66]	; 0xffffffbe

00000554 <l215>:
     554:	e15d13d6 	ldrsb	r1, [sp, #-54]	; 0xffffffca

00000558 <l216>:
     558:	e15d72d9 	ldrsb	r7, [sp, #-41]	; 0xffffffd7

0000055c <l217>:
     55c:	e3a0c034 	mov	ip, #52	; 0x34

00000560 <l218>:
     560:	e11d00dc 	ldrsb	r0, [sp, -ip]

00000564 <l219>:
     564:	e3a01015 	mov	r1, #21

00000568 <l220>:
     568:	211de0d1 	ldrsbcs	lr, [sp, -r1]

0000056c <l221>:
     56c:	e3a03024 	mov	r3, #36	; 0x24

00000570 <l222>:
     570:	c11d80f3 	ldrshgt	r8, [sp, -r3]

00000574 <l223>:
     574:	415d22fa 	ldrshmi	r2, [sp, #-42]	; 0xffffffd6

00000578 <l224>:
     578:	e3a0401e 	mov	r4, #30

0000057c <l225>:
     57c:	211d20f4 	ldrshcs	r2, [sp, -r4]

00000580 <l226>:
     580:	e3a0a014 	mov	sl, #20

00000584 <l227>:
     584:	211db0fa 	ldrshcs	fp, [sp, -sl]

00000588 <l228>:
     588:	814d04bc 	strhhi	r0, [sp, #-76]	; 0xffffffb4

0000058c <l229>:
     58c:	e3a0e04a 	mov	lr, #74	; 0x4a

00000590 <l230>:
     590:	c11d70be 	ldrhgt	r7, [sp, -lr]

00000594 <l231>:
     594:	e3a04006 	mov	r4, #6

00000598 <l232>:
     598:	811de0d4 	ldrsbhi	lr, [sp, -r4]

0000059c <l233>:
     59c:	e14d61bc 	strh	r6, [sp, #-28]	; 0xffffffe4

000005a0 <l234>:
     5a0:	615d83b6 	ldrhvs	r8, [sp, #-54]	; 0xffffffca

000005a4 <l235>:
     5a4:	015d94f6 	ldrsheq	r9, [sp, #-70]	; 0xffffffba

000005a8 <l236>:
     5a8:	e3a09020 	mov	r9, #32

000005ac <l237>:
     5ac:	c11dc0f9 	ldrshgt	ip, [sp, -r9]

000005b0 <l238>:
     5b0:	e3a04036 	mov	r4, #54	; 0x36

000005b4 <l239>:
     5b4:	810d40b4 	strhhi	r4, [sp, -r4]

000005b8 <l240>:
     5b8:	e3a05024 	mov	r5, #36	; 0x24

000005bc <l241>:
     5bc:	e11d70b5 	ldrh	r7, [sp, -r5]

000005c0 <l242>:
     5c0:	114d21b4 	strhne	r2, [sp, #-20]	; 0xffffffec

000005c4 <l243>:
     5c4:	814d91b6 	strhhi	r9, [sp, #-22]	; 0xffffffea

000005c8 <l244>:
     5c8:	e15d34f2 	ldrsh	r3, [sp, #-66]	; 0xffffffbe

000005cc <l245>:
     5cc:	e3a0e04e 	mov	lr, #78	; 0x4e

000005d0 <l246>:
     5d0:	411db0fe 	ldrshmi	fp, [sp, -lr]

000005d4 <l247>:
     5d4:	e15d11d3 	ldrsb	r1, [sp, #-19]	; 0xffffffed

000005d8 <l248>:
     5d8:	e15d71b6 	ldrh	r7, [sp, #-22]	; 0xffffffea

000005dc <l249>:
     5dc:	e3a0502f 	mov	r5, #47	; 0x2f

000005e0 <l250>:
     5e0:	d11d60d5 	ldrsble	r6, [sp, -r5]

000005e4 <l251>:
     5e4:	e14d12b4 	strh	r1, [sp, #-36]	; 0xffffffdc

000005e8 <l252>:
     5e8:	615d54d7 	ldrsbvs	r5, [sp, #-71]	; 0xffffffb9

000005ec <l253>:
     5ec:	e3a0b00f 	mov	fp, #15

000005f0 <l254>:
     5f0:	211db0db 	ldrsbcs	fp, [sp, -fp]

000005f4 <l255>:
     5f4:	515db4dd 	ldrsbpl	fp, [sp, #-77]	; 0xffffffb3

000005f8 <l256>:
     5f8:	e14d02bc 	strh	r0, [sp, #-44]	; 0xffffffd4

000005fc <l257>:
     5fc:	314dc3b4 	strhcc	ip, [sp, #-52]	; 0xffffffcc

00000600 <l258>:
     600:	e3a0404a 	mov	r4, #74	; 0x4a

00000604 <l259>:
     604:	e10d20b4 	strh	r2, [sp, -r4]

00000608 <l260>:
     608:	415db4de 	ldrsbmi	fp, [sp, #-78]	; 0xffffffb2

0000060c <l261>:
     60c:	e3a0b048 	mov	fp, #72	; 0x48

00000610 <l262>:
     610:	710dc0bb 	strhvc	ip, [sp, -fp]

00000614 <l263>:
     614:	e3a06038 	mov	r6, #56	; 0x38

00000618 <l264>:
     618:	e10d80b6 	strh	r8, [sp, -r6]

0000061c <l265>:
     61c:	e15dc2b2 	ldrh	ip, [sp, #-34]	; 0xffffffde

00000620 <l266>:
     620:	515d22b8 	ldrhpl	r2, [sp, #-40]	; 0xffffffd8

00000624 <l267>:
     624:	e3a0202d 	mov	r2, #45	; 0x2d

00000628 <l268>:
     628:	e11d40d2 	ldrsb	r4, [sp, -r2]

0000062c <l269>:
     62c:	e3a05009 	mov	r5, #9

00000630 <l270>:
     630:	011d00d5 	ldrsbeq	r0, [sp, -r5]

00000634 <l271>:
     634:	b15dc3b0 	ldrhlt	ip, [sp, #-48]	; 0xffffffd0

00000638 <l272>:
     638:	e3a0004a 	mov	r0, #74	; 0x4a

0000063c <l273>:
     63c:	410d90b0 	strhmi	r9, [sp, -r0]

00000640 <l274>:
     640:	e15d53db 	ldrsb	r5, [sp, #-59]	; 0xffffffc5

00000644 <l275>:
     644:	e3a0404c 	mov	r4, #76	; 0x4c

00000648 <l276>:
     648:	810dc0b4 	strhhi	ip, [sp, -r4]

0000064c <l277>:
     64c:	e3a02010 	mov	r2, #16

00000650 <l278>:
     650:	211db0d2 	ldrsbcs	fp, [sp, -r2]

00000654 <l279>:
     654:	915d73b6 	ldrhls	r7, [sp, #-54]	; 0xffffffca

00000658 <l280>:
     658:	e3a04050 	mov	r4, #80	; 0x50

0000065c <l281>:
     65c:	e11d50f4 	ldrsh	r5, [sp, -r4]

00000660 <l282>:
     660:	e3a0e01c 	mov	lr, #28

00000664 <l283>:
     664:	a11d80de 	ldrsbge	r8, [sp, -lr]

00000668 <l284>:
     668:	615d74fa 	ldrshvs	r7, [sp, #-74]	; 0xffffffb6

0000066c <l285>:
     66c:	e3a07048 	mov	r7, #72	; 0x48

00000670 <l286>:
     670:	410d70b7 	strhmi	r7, [sp, -r7]

00000674 <l287>:
     674:	e3a0104c 	mov	r1, #76	; 0x4c

00000678 <l288>:
     678:	e11d50b1 	ldrh	r5, [sp, -r1]

0000067c <l289>:
     67c:	e3a01029 	mov	r1, #41	; 0x29

00000680 <l290>:
     680:	e11d60d1 	ldrsb	r6, [sp, -r1]

00000684 <l291>:
     684:	c14dc3b0 	strhgt	ip, [sp, #-48]	; 0xffffffd0

00000688 <l292>:
     688:	e3a05049 	mov	r5, #73	; 0x49

0000068c <l293>:
     68c:	e11d00d5 	ldrsb	r0, [sp, -r5]

00000690 <l294>:
     690:	d15d72b6 	ldrhle	r7, [sp, #-38]	; 0xffffffda

00000694 <l295>:
     694:	e3a0004f 	mov	r0, #79	; 0x4f

00000698 <l296>:
     698:	a11d40d0 	ldrsbge	r4, [sp, -r0]

0000069c <l297>:
     69c:	914d13be 	strhls	r1, [sp, #-62]	; 0xffffffc2

000006a0 <l298>:
     6a0:	a15dc2f6 	ldrshge	ip, [sp, #-38]	; 0xffffffda

000006a4 <l299>:
     6a4:	e14d24be 	strh	r2, [sp, #-78]	; 0xffffffb2

000006a8 <l300>:
     6a8:	e15d13bc 	ldrh	r1, [sp, #-60]	; 0xffffffc4

000006ac <l301>:
     6ac:	e3a00012 	mov	r0, #18

000006b0 <l302>:
     6b0:	b11d50b0 	ldrhlt	r5, [sp, -r0]

000006b4 <l303>:
     6b4:	e15de2d9 	ldrsb	lr, [sp, #-41]	; 0xffffffd7

000006b8 <l304>:
     6b8:	e14d80be 	strh	r8, [sp, #-14]

000006bc <l305>:
     6bc:	015d83ba 	ldrheq	r8, [sp, #-58]	; 0xffffffc6

000006c0 <l306>:
     6c0:	e3a08050 	mov	r8, #80	; 0x50

000006c4 <l307>:
     6c4:	a10de0b8 	strhge	lr, [sp, -r8]

000006c8 <l308>:
     6c8:	e15d13d4 	ldrsb	r1, [sp, #-52]	; 0xffffffcc

000006cc <l309>:
     6cc:	e3a07042 	mov	r7, #66	; 0x42

000006d0 <l310>:
     6d0:	010d40b7 	strheq	r4, [sp, -r7]

000006d4 <l311>:
     6d4:	d15d62b0 	ldrhle	r6, [sp, #-32]	; 0xffffffe0

000006d8 <l312>:
     6d8:	e3a0102e 	mov	r1, #46	; 0x2e

000006dc <l313>:
     6dc:	b10dc0b1 	strhlt	ip, [sp, -r1]

000006e0 <l314>:
     6e0:	b15d84b0 	ldrhlt	r8, [sp, #-64]	; 0xffffffc0

000006e4 <l315>:
     6e4:	e14d84ba 	strh	r8, [sp, #-74]	; 0xffffffb6

000006e8 <l316>:
     6e8:	e3a0b00c 	mov	fp, #12

000006ec <l317>:
     6ec:	511d90bb 	ldrhpl	r9, [sp, -fp]

000006f0 <l318>:
     6f0:	b14d42b6 	strhlt	r4, [sp, #-38]	; 0xffffffda

000006f4 <l319>:
     6f4:	e15d11d7 	ldrsb	r1, [sp, #-23]	; 0xffffffe9

000006f8 <l320>:
     6f8:	e3a02040 	mov	r2, #64	; 0x40

000006fc <l321>:
     6fc:	e11da0f2 	ldrsh	sl, [sp, -r2]

00000700 <l322>:
     700:	e3a0b019 	mov	fp, #25

00000704 <l323>:
     704:	e11d80db 	ldrsb	r8, [sp, -fp]

00000708 <l324>:
     708:	e15d02f4 	ldrsh	r0, [sp, #-36]	; 0xffffffdc

0000070c <l325>:
     70c:	e15dc3ba 	ldrh	ip, [sp, #-58]	; 0xffffffc6

00000710 <l326>:
     710:	e3a05026 	mov	r5, #38	; 0x26

00000714 <l327>:
     714:	e11d10d5 	ldrsb	r1, [sp, -r5]

00000718 <l328>:
     718:	415d50b6 	ldrhmi	r5, [sp, #-6]

0000071c <l329>:
     71c:	e3a0502e 	mov	r5, #46	; 0x2e

00000720 <l330>:
     720:	d11d30d5 	ldrsble	r3, [sp, -r5]

00000724 <l331>:
     724:	a15de3d9 	ldrsbge	lr, [sp, #-57]	; 0xffffffc7

00000728 <l332>:
     728:	e3a0b008 	mov	fp, #8

0000072c <l333>:
     72c:	510db0bb 	strhpl	fp, [sp, -fp]

00000730 <l334>:
     730:	e15d60b6 	ldrh	r6, [sp, #-6]

00000734 <l335>:
     734:	e15d44d1 	ldrsb	r4, [sp, #-65]	; 0xffffffbf

00000738 <l336>:
     738:	e3a0e036 	mov	lr, #54	; 0x36

0000073c <l337>:
     73c:	e11d00fe 	ldrsh	r0, [sp, -lr]

00000740 <l338>:
     740:	e3a07008 	mov	r7, #8

00000744 <l339>:
     744:	411d70b7 	ldrhmi	r7, [sp, -r7]

00000748 <l340>:
     748:	e3a06016 	mov	r6, #22

0000074c <l341>:
     74c:	d11d50d6 	ldrsble	r5, [sp, -r6]

00000750 <l342>:
     750:	e3a0901e 	mov	r9, #30

00000754 <l343>:
     754:	610de0b9 	strhvs	lr, [sp, -r9]

00000758 <l344>:
     758:	e3a06038 	mov	r6, #56	; 0x38

0000075c <l345>:
     75c:	e11d10d6 	ldrsb	r1, [sp, -r6]

00000760 <l346>:
     760:	014d11b6 	strheq	r1, [sp, #-22]	; 0xffffffea

00000764 <l347>:
     764:	014d34b0 	strheq	r3, [sp, #-64]	; 0xffffffc0

00000768 <l348>:
     768:	e3a02037 	mov	r2, #55	; 0x37

0000076c <l349>:
     76c:	e11d90d2 	ldrsb	r9, [sp, -r2]

00000770 <l350>:
     770:	e3a01030 	mov	r1, #48	; 0x30

00000774 <l351>:
     774:	e10d30b1 	strh	r3, [sp, -r1]

00000778 <l352>:
     778:	e3a0803f 	mov	r8, #63	; 0x3f

0000077c <l353>:
     77c:	011d70d8 	ldrsbeq	r7, [sp, -r8]

00000780 <l354>:
     780:	e3a0e02e 	mov	lr, #46	; 0x2e

00000784 <l355>:
     784:	911d60de 	ldrsbls	r6, [sp, -lr]

00000788 <l356>:
     788:	e3a04026 	mov	r4, #38	; 0x26

0000078c <l357>:
     78c:	a11d00d4 	ldrsbge	r0, [sp, -r4]

00000790 <l358>:
     790:	e3a00008 	mov	r0, #8

00000794 <l359>:
     794:	111d70f0 	ldrshne	r7, [sp, -r0]

00000798 <l360>:
     798:	e14db3b4 	strh	fp, [sp, #-52]	; 0xffffffcc

0000079c <l361>:
     79c:	e15d12f2 	ldrsh	r1, [sp, #-34]	; 0xffffffde

000007a0 <l362>:
     7a0:	e3a09050 	mov	r9, #80	; 0x50

000007a4 <l363>:
     7a4:	b11da0f9 	ldrshlt	sl, [sp, -r9]

000007a8 <l364>:
     7a8:	e15d20f8 	ldrsh	r2, [sp, #-8]

000007ac <l365>:
     7ac:	214d25b0 	strhcs	r2, [sp, #-80]	; 0xffffffb0

000007b0 <l366>:
     7b0:	e3a0a042 	mov	sl, #66	; 0x42

000007b4 <l367>:
     7b4:	911da0fa 	ldrshls	sl, [sp, -sl]

000007b8 <l368>:
     7b8:	e3a0700a 	mov	r7, #10

000007bc <l369>:
     7bc:	710d60b7 	strhvc	r6, [sp, -r7]

000007c0 <l370>:
     7c0:	e3a0b042 	mov	fp, #66	; 0x42

000007c4 <l371>:
     7c4:	311d90fb 	ldrshcc	r9, [sp, -fp]

000007c8 <l372>:
     7c8:	e3a0902a 	mov	r9, #42	; 0x2a

000007cc <l373>:
     7cc:	c11d60b9 	ldrhgt	r6, [sp, -r9]

000007d0 <l374>:
     7d0:	d15d81d6 	ldrsble	r8, [sp, #-22]	; 0xffffffea

000007d4 <l375>:
     7d4:	915d32d6 	ldrsbls	r3, [sp, #-38]	; 0xffffffda

000007d8 <l376>:
     7d8:	715d62d1 	ldrsbvc	r6, [sp, #-33]	; 0xffffffdf

000007dc <l377>:
     7dc:	e3a0b044 	mov	fp, #68	; 0x44

000007e0 <l378>:
     7e0:	111d00fb 	ldrshne	r0, [sp, -fp]

000007e4 <l379>:
     7e4:	e3a0004c 	mov	r0, #76	; 0x4c

000007e8 <l380>:
     7e8:	e11d00d0 	ldrsb	r0, [sp, -r0]

000007ec <l381>:
     7ec:	c15d03fc 	ldrshgt	r0, [sp, #-60]	; 0xffffffc4

000007f0 <l382>:
     7f0:	e15d23f4 	ldrsh	r2, [sp, #-52]	; 0xffffffcc

000007f4 <l383>:
     7f4:	e15d41bc 	ldrh	r4, [sp, #-28]	; 0xffffffe4

000007f8 <l384>:
     7f8:	e3a02048 	mov	r2, #72	; 0x48

000007fc <l385>:
     7fc:	611d80b2 	ldrhvs	r8, [sp, -r2]

00000800 <l386>:
     800:	e3a0b01e 	mov	fp, #30

00000804 <l387>:
     804:	d11d30bb 	ldrhle	r3, [sp, -fp]

00000808 <l388>:
     808:	e3a0100c 	mov	r1, #12

0000080c <l389>:
     80c:	211d60f1 	ldrshcs	r6, [sp, -r1]

00000810 <l390>:
     810:	e3a06038 	mov	r6, #56	; 0x38

00000814 <l391>:
     814:	e11da0d6 	ldrsb	sl, [sp, -r6]

00000818 <l392>:
     818:	e3a0302c 	mov	r3, #44	; 0x2c

0000081c <l393>:
     81c:	611d70f3 	ldrshvs	r7, [sp, -r3]

00000820 <l394>:
     820:	e3a01016 	mov	r1, #22

00000824 <l395>:
     824:	a11d50f1 	ldrshge	r5, [sp, -r1]

00000828 <l396>:
     828:	e3a02018 	mov	r2, #24

0000082c <l397>:
     82c:	c11d50d2 	ldrsbgt	r5, [sp, -r2]

00000830 <l398>:
     830:	e3a06045 	mov	r6, #69	; 0x45

00000834 <l399>:
     834:	e11da0d6 	ldrsb	sl, [sp, -r6]

00000838 <l400>:
     838:	e3a0903a 	mov	r9, #58	; 0x3a

0000083c <l401>:
     83c:	c11de0b9 	ldrhgt	lr, [sp, -r9]

00000840 <l402>:
     840:	e3a0b040 	mov	fp, #64	; 0x40

00000844 <l403>:
     844:	410d10bb 	strhmi	r1, [sp, -fp]

00000848 <l404>:
     848:	214db4be 	strhcs	fp, [sp, #-78]	; 0xffffffb2

0000084c <l405>:
     84c:	c15d62b8 	ldrhgt	r6, [sp, #-40]	; 0xffffffd8

00000850 <l406>:
     850:	e3a0602c 	mov	r6, #44	; 0x2c

00000854 <l407>:
     854:	e11d90b6 	ldrh	r9, [sp, -r6]

00000858 <l408>:
     858:	e15dc0bc 	ldrh	ip, [sp, #-12]

0000085c <l409>:
     85c:	e3a0304a 	mov	r3, #74	; 0x4a

00000860 <l410>:
     860:	910db0b3 	strhls	fp, [sp, -r3]

00000864 <l411>:
     864:	e3a04016 	mov	r4, #22

00000868 <l412>:
     868:	811d40b4 	ldrhhi	r4, [sp, -r4]

0000086c <l413>:
     86c:	e3a01018 	mov	r1, #24

00000870 <l414>:
     870:	e10db0b1 	strh	fp, [sp, -r1]

00000874 <l415>:
     874:	e3a0e00c 	mov	lr, #12

00000878 <l416>:
     878:	510d00be 	strhpl	r0, [sp, -lr]

0000087c <l417>:
     87c:	814d31be 	strhhi	r3, [sp, #-30]	; 0xffffffe2

00000880 <l418>:
     880:	e15d60d7 	ldrsb	r6, [sp, #-7]

00000884 <l419>:
     884:	e15d40d9 	ldrsb	r4, [sp, #-9]

00000888 <l420>:
     888:	e3a0c02c 	mov	ip, #44	; 0x2c

0000088c <l421>:
     88c:	e10dc0bc 	strh	ip, [sp, -ip]

00000890 <l422>:
     890:	815d50b8 	ldrhhi	r5, [sp, #-8]

00000894 <l423>:
     894:	e3a0900c 	mov	r9, #12

00000898 <l424>:
     898:	c11d50b9 	ldrhgt	r5, [sp, -r9]

0000089c <l425>:
     89c:	e3a09021 	mov	r9, #33	; 0x21

000008a0 <l426>:
     8a0:	011d10d9 	ldrsbeq	r1, [sp, -r9]

000008a4 <l427>:
     8a4:	e15de3b0 	ldrh	lr, [sp, #-48]	; 0xffffffd0

000008a8 <l428>:
     8a8:	e3a00032 	mov	r0, #50	; 0x32

000008ac <l429>:
     8ac:	511d30f0 	ldrshpl	r3, [sp, -r0]

000008b0 <l430>:
     8b0:	e15de1b2 	ldrh	lr, [sp, #-18]	; 0xffffffee

000008b4 <l431>:
     8b4:	115d43d4 	ldrsbne	r4, [sp, #-52]	; 0xffffffcc

000008b8 <l432>:
     8b8:	e14de1bc 	strh	lr, [sp, #-28]	; 0xffffffe4

000008bc <l433>:
     8bc:	e15d82fa 	ldrsh	r8, [sp, #-42]	; 0xffffffd6

000008c0 <l434>:
     8c0:	c15d11fc 	ldrshgt	r1, [sp, #-28]	; 0xffffffe4

000008c4 <l435>:
     8c4:	614de0b8 	strhvs	lr, [sp, #-8]

000008c8 <l436>:
     8c8:	515d82d1 	ldrsbpl	r8, [sp, #-33]	; 0xffffffdf

000008cc <l437>:
     8cc:	e3a03046 	mov	r3, #70	; 0x46

000008d0 <l438>:
     8d0:	011d70b3 	ldrheq	r7, [sp, -r3]

000008d4 <l439>:
     8d4:	515d40dc 	ldrsbpl	r4, [sp, #-12]

000008d8 <l440>:
     8d8:	e3a01008 	mov	r1, #8

000008dc <l441>:
     8dc:	e11d00d1 	ldrsb	r0, [sp, -r1]

000008e0 <l442>:
     8e0:	e14d71be 	strh	r7, [sp, #-30]	; 0xffffffe2

000008e4 <l443>:
     8e4:	315d63db 	ldrsbcc	r6, [sp, #-59]	; 0xffffffc5

000008e8 <l444>:
     8e8:	e3a09038 	mov	r9, #56	; 0x38

000008ec <l445>:
     8ec:	e11d50f9 	ldrsh	r5, [sp, -r9]

000008f0 <l446>:
     8f0:	e3a06006 	mov	r6, #6

000008f4 <l447>:
     8f4:	811d10f6 	ldrshhi	r1, [sp, -r6]

000008f8 <l448>:
     8f8:	e3a0001e 	mov	r0, #30

000008fc <l449>:
     8fc:	e10d40b0 	strh	r4, [sp, -r0]

00000900 <l450>:
     900:	e3a0403c 	mov	r4, #60	; 0x3c

00000904 <l451>:
     904:	511da0d4 	ldrsbpl	sl, [sp, -r4]

00000908 <l452>:
     908:	815d00bc 	ldrhhi	r0, [sp, #-12]

0000090c <l453>:
     90c:	e15d42fa 	ldrsh	r4, [sp, #-42]	; 0xffffffd6

00000910 <l454>:
     910:	115d32b6 	ldrhne	r3, [sp, #-38]	; 0xffffffda

00000914 <l455>:
     914:	e3a0802a 	mov	r8, #42	; 0x2a

00000918 <l456>:
     918:	e10d40b8 	strh	r4, [sp, -r8]

0000091c <l457>:
     91c:	415d12da 	ldrsbmi	r1, [sp, #-42]	; 0xffffffd6

00000920 <l458>:
     920:	c14da0b8 	strhgt	sl, [sp, #-8]

00000924 <l459>:
     924:	e15de3b4 	ldrh	lr, [sp, #-52]	; 0xffffffcc

00000928 <l460>:
     928:	e3a08016 	mov	r8, #22

0000092c <l461>:
     92c:	e10d70b8 	strh	r7, [sp, -r8]

00000930 <l462>:
     930:	e15d51d3 	ldrsb	r5, [sp, #-19]	; 0xffffffed

00000934 <l463>:
     934:	915d83de 	ldrsbls	r8, [sp, #-62]	; 0xffffffc2

00000938 <l464>:
     938:	e3a0703a 	mov	r7, #58	; 0x3a

0000093c <l465>:
     93c:	910d30b7 	strhls	r3, [sp, -r7]

00000940 <l466>:
     940:	e3a02010 	mov	r2, #16

00000944 <l467>:
     944:	e11d90b2 	ldrh	r9, [sp, -r2]

00000948 <l468>:
     948:	e14d33ba 	strh	r3, [sp, #-58]	; 0xffffffc6

0000094c <l469>:
     94c:	e3a08020 	mov	r8, #32

00000950 <l470>:
     950:	511db0d8 	ldrsbpl	fp, [sp, -r8]

00000954 <l471>:
     954:	e15d93b8 	ldrh	r9, [sp, #-56]	; 0xffffffc8

00000958 <l472>:
     958:	e3a06030 	mov	r6, #48	; 0x30

0000095c <l473>:
     95c:	011d30b6 	ldrheq	r3, [sp, -r6]

00000960 <l474>:
     960:	915de4b0 	ldrhls	lr, [sp, #-64]	; 0xffffffc0

00000964 <l475>:
     964:	e3a0703c 	mov	r7, #60	; 0x3c

00000968 <l476>:
     968:	b11d00b7 	ldrhlt	r0, [sp, -r7]

0000096c <l477>:
     96c:	e3a0303c 	mov	r3, #60	; 0x3c

00000970 <l478>:
     970:	811d50f3 	ldrshhi	r5, [sp, -r3]

00000974 <l479>:
     974:	e15d14df 	ldrsb	r1, [sp, #-79]	; 0xffffffb1

00000978 <l480>:
     978:	e3a08048 	mov	r8, #72	; 0x48

0000097c <l481>:
     97c:	711d70d8 	ldrsbvc	r7, [sp, -r8]

00000980 <l482>:
     980:	e3a0b04a 	mov	fp, #74	; 0x4a

00000984 <l483>:
     984:	e11d70fb 	ldrsh	r7, [sp, -fp]

00000988 <l484>:
     988:	e3a0e038 	mov	lr, #56	; 0x38

0000098c <l485>:
     98c:	511da0fe 	ldrshpl	sl, [sp, -lr]

00000990 <l486>:
     990:	e15da3b6 	ldrh	sl, [sp, #-54]	; 0xffffffca

00000994 <l487>:
     994:	e3a01014 	mov	r1, #20

00000998 <l488>:
     998:	811d80f1 	ldrshhi	r8, [sp, -r1]

0000099c <l489>:
     99c:	e3a0c011 	mov	ip, #17

000009a0 <l490>:
     9a0:	e11d10dc 	ldrsb	r1, [sp, -ip]

000009a4 <l491>:
     9a4:	e3a0b045 	mov	fp, #69	; 0x45

000009a8 <l492>:
     9a8:	111d50db 	ldrsbne	r5, [sp, -fp]

000009ac <l493>:
     9ac:	615dc4f8 	ldrshvs	ip, [sp, #-72]	; 0xffffffb8

000009b0 <l494>:
     9b0:	e3a0602a 	mov	r6, #42	; 0x2a

000009b4 <l495>:
     9b4:	610d70b6 	strhvs	r7, [sp, -r6]

000009b8 <l496>:
     9b8:	e3a0003e 	mov	r0, #62	; 0x3e

000009bc <l497>:
     9bc:	511d60b0 	ldrhpl	r6, [sp, -r0]

000009c0 <l498>:
     9c0:	714da2b6 	strhvc	sl, [sp, #-38]	; 0xffffffda

000009c4 <l499>:
     9c4:	e3a0000e 	mov	r0, #14

000009c8 <l500>:
     9c8:	711d50b0 	ldrhvc	r5, [sp, -r0]

000009cc <l501>:
     9cc:	e3a0104c 	mov	r1, #76	; 0x4c

000009d0 <l502>:
     9d0:	e10d50b1 	strh	r5, [sp, -r1]

000009d4 <l503>:
     9d4:	414d52b6 	strhmi	r5, [sp, #-38]	; 0xffffffda

000009d8 <l504>:
     9d8:	e3a0b028 	mov	fp, #40	; 0x28

000009dc <l505>:
     9dc:	611d20bb 	ldrhvs	r2, [sp, -fp]

000009e0 <l506>:
     9e0:	e3a0300a 	mov	r3, #10

000009e4 <l507>:
     9e4:	d11dc0d3 	ldrsble	ip, [sp, -r3]

000009e8 <l508>:
     9e8:	e3a0a00e 	mov	sl, #14

000009ec <l509>:
     9ec:	511d70da 	ldrsbpl	r7, [sp, -sl]

000009f0 <l510>:
     9f0:	e3a0501e 	mov	r5, #30

000009f4 <l511>:
     9f4:	d11d40b5 	ldrhle	r4, [sp, -r5]

000009f8 <l512>:
     9f8:	e3a07006 	mov	r7, #6

000009fc <l513>:
     9fc:	610d80b7 	strhvs	r8, [sp, -r7]

00000a00 <l514>:
     a00:	e3a0c02e 	mov	ip, #46	; 0x2e

00000a04 <l515>:
     a04:	911d80fc 	ldrshls	r8, [sp, -ip]

00000a08 <l516>:
     a08:	115d30f6 	ldrshne	r3, [sp, #-6]

00000a0c <l517>:
     a0c:	e3a00036 	mov	r0, #54	; 0x36

00000a10 <l518>:
     a10:	610d70b0 	strhvs	r7, [sp, -r0]

00000a14 <l519>:
     a14:	e3a0404e 	mov	r4, #78	; 0x4e

00000a18 <l520>:
     a18:	e11d10b4 	ldrh	r1, [sp, -r4]

00000a1c <l521>:
     a1c:	615d32ba 	ldrhvs	r3, [sp, #-42]	; 0xffffffd6

00000a20 <l522>:
     a20:	e15d73b2 	ldrh	r7, [sp, #-50]	; 0xffffffce

00000a24 <l523>:
     a24:	e3a0b02c 	mov	fp, #44	; 0x2c

00000a28 <l524>:
     a28:	e11d90bb 	ldrh	r9, [sp, -fp]

00000a2c <l525>:
     a2c:	e3a0802e 	mov	r8, #46	; 0x2e

00000a30 <l526>:
     a30:	910d50b8 	strhls	r5, [sp, -r8]

00000a34 <l527>:
     a34:	e3a0b016 	mov	fp, #22

00000a38 <l528>:
     a38:	e11d00fb 	ldrsh	r0, [sp, -fp]

00000a3c <l529>:
     a3c:	e3a0b010 	mov	fp, #16

00000a40 <l530>:
     a40:	411d40bb 	ldrhmi	r4, [sp, -fp]

00000a44 <l531>:
     a44:	e3a0a04a 	mov	sl, #74	; 0x4a

00000a48 <l532>:
     a48:	b11d20ba 	ldrhlt	r2, [sp, -sl]

00000a4c <l533>:
     a4c:	e3a09042 	mov	r9, #66	; 0x42

00000a50 <l534>:
     a50:	e11d00d9 	ldrsb	r0, [sp, -r9]

00000a54 <l535>:
     a54:	e14da2b0 	strh	sl, [sp, #-32]	; 0xffffffe0

00000a58 <l536>:
     a58:	e3a00014 	mov	r0, #20

00000a5c <l537>:
     a5c:	e11d80b0 	ldrh	r8, [sp, -r0]

00000a60 <l538>:
     a60:	e3a0c01b 	mov	ip, #27

00000a64 <l539>:
     a64:	e11d90dc 	ldrsb	r9, [sp, -ip]

00000a68 <l540>:
     a68:	e15de2be 	ldrh	lr, [sp, #-46]	; 0xffffffd2

00000a6c <l541>:
     a6c:	e3a05046 	mov	r5, #70	; 0x46

00000a70 <l542>:
     a70:	e10d20b5 	strh	r2, [sp, -r5]

00000a74 <l543>:
     a74:	e15de1b8 	ldrh	lr, [sp, #-24]	; 0xffffffe8

00000a78 <l544>:
     a78:	e3a0200e 	mov	r2, #14

00000a7c <l545>:
     a7c:	e11d90b2 	ldrh	r9, [sp, -r2]

00000a80 <l546>:
     a80:	e15dc4be 	ldrh	ip, [sp, #-78]	; 0xffffffb2

00000a84 <l547>:
     a84:	e3a06047 	mov	r6, #71	; 0x47

00000a88 <l548>:
     a88:	311dc0d6 	ldrsbcc	ip, [sp, -r6]

00000a8c <l549>:
     a8c:	115da2f8 	ldrshne	sl, [sp, #-40]	; 0xffffffd8

00000a90 <l550>:
     a90:	e14d43b2 	strh	r4, [sp, #-50]	; 0xffffffce

00000a94 <l551>:
     a94:	e3a03009 	mov	r3, #9

00000a98 <l552>:
     a98:	811d90d3 	ldrsbhi	r9, [sp, -r3]

00000a9c <l553>:
     a9c:	e3a0900a 	mov	r9, #10

00000aa0 <l554>:
     aa0:	810db0b9 	strhhi	fp, [sp, -r9]

00000aa4 <l555>:
     aa4:	e3a0a04f 	mov	sl, #79	; 0x4f

00000aa8 <l556>:
     aa8:	e11d30da 	ldrsb	r3, [sp, -sl]

00000aac <l557>:
     aac:	e3a06032 	mov	r6, #50	; 0x32

00000ab0 <l558>:
     ab0:	e10d40b6 	strh	r4, [sp, -r6]

00000ab4 <l559>:
     ab4:	e3a0e04c 	mov	lr, #76	; 0x4c

00000ab8 <l560>:
     ab8:	a11d40fe 	ldrshge	r4, [sp, -lr]

00000abc <l561>:
     abc:	e3a04020 	mov	r4, #32

00000ac0 <l562>:
     ac0:	d11d70f4 	ldrshle	r7, [sp, -r4]

00000ac4 <l563>:
     ac4:	e3a0c042 	mov	ip, #66	; 0x42

00000ac8 <l564>:
     ac8:	c10d70bc 	strhgt	r7, [sp, -ip]

00000acc <l565>:
     acc:	615d44d3 	ldrsbvs	r4, [sp, #-67]	; 0xffffffbd

00000ad0 <l566>:
     ad0:	015d50d7 	ldrsbeq	r5, [sp, #-7]

00000ad4 <l567>:
     ad4:	e3a0a04a 	mov	sl, #74	; 0x4a

00000ad8 <l568>:
     ad8:	511da0da 	ldrsbpl	sl, [sp, -sl]

00000adc <l569>:
     adc:	715d12f0 	ldrshvc	r1, [sp, #-32]	; 0xffffffe0

00000ae0 <l570>:
     ae0:	e15db3d9 	ldrsb	fp, [sp, #-57]	; 0xffffffc7

00000ae4 <l571>:
     ae4:	e3a0c020 	mov	ip, #32

00000ae8 <l572>:
     ae8:	b10d60bc 	strhlt	r6, [sp, -ip]

00000aec <l573>:
     aec:	e3a01008 	mov	r1, #8

00000af0 <l574>:
     af0:	711d10b1 	ldrhvc	r1, [sp, -r1]

00000af4 <l575>:
     af4:	e3a0c034 	mov	ip, #52	; 0x34

00000af8 <l576>:
     af8:	e11d40fc 	ldrsh	r4, [sp, -ip]

00000afc <l577>:
     afc:	e14dc3be 	strh	ip, [sp, #-62]	; 0xffffffc2

00000b00 <l578>:
     b00:	e3a02006 	mov	r2, #6

00000b04 <l579>:
     b04:	911d60d2 	ldrsbls	r6, [sp, -r2]

00000b08 <l580>:
     b08:	e14d73b6 	strh	r7, [sp, #-54]	; 0xffffffca

00000b0c <l581>:
     b0c:	e3a0403d 	mov	r4, #61	; 0x3d

00000b10 <l582>:
     b10:	e11d20d4 	ldrsb	r2, [sp, -r4]

00000b14 <l583>:
     b14:	e3a0800a 	mov	r8, #10

00000b18 <l584>:
     b18:	e11d80f8 	ldrsh	r8, [sp, -r8]

00000b1c <l585>:
     b1c:	e3a09006 	mov	r9, #6

00000b20 <l586>:
     b20:	311d60b9 	ldrhcc	r6, [sp, -r9]

00000b24 <l587>:
     b24:	e3a0300a 	mov	r3, #10

00000b28 <l588>:
     b28:	610d90b3 	strhvs	r9, [sp, -r3]

00000b2c <l589>:
     b2c:	215dc2fe 	ldrshcs	ip, [sp, #-46]	; 0xffffffd2

00000b30 <l590>:
     b30:	815d22d6 	ldrsbhi	r2, [sp, #-38]	; 0xffffffda

00000b34 <l591>:
     b34:	e3a00010 	mov	r0, #16

00000b38 <l592>:
     b38:	711d80d0 	ldrsbvc	r8, [sp, -r0]

00000b3c <l593>:
     b3c:	e3a0102e 	mov	r1, #46	; 0x2e

00000b40 <l594>:
     b40:	411dc0d1 	ldrsbmi	ip, [sp, -r1]

00000b44 <l595>:
     b44:	615d01f4 	ldrshvs	r0, [sp, #-20]	; 0xffffffec

00000b48 <l596>:
     b48:	e3a0601a 	mov	r6, #26

00000b4c <l597>:
     b4c:	b10d40b6 	strhlt	r4, [sp, -r6]

00000b50 <l598>:
     b50:	e3a00048 	mov	r0, #72	; 0x48

00000b54 <l599>:
     b54:	e11d10b0 	ldrh	r1, [sp, -r0]

00000b58 <l600>:
     b58:	e3a0404f 	mov	r4, #79	; 0x4f

00000b5c <l601>:
     b5c:	e11d80d4 	ldrsb	r8, [sp, -r4]

00000b60 <l602>:
     b60:	e3a05046 	mov	r5, #70	; 0x46

00000b64 <l603>:
     b64:	411d00b5 	ldrhmi	r0, [sp, -r5]

00000b68 <l604>:
     b68:	e3a0b00c 	mov	fp, #12

00000b6c <l605>:
     b6c:	a10d00bb 	strhge	r0, [sp, -fp]

00000b70 <l606>:
     b70:	015d74da 	ldrsbeq	r7, [sp, #-74]	; 0xffffffb6

00000b74 <l607>:
     b74:	e3a0b006 	mov	fp, #6

00000b78 <l608>:
     b78:	811dc0fb 	ldrshhi	ip, [sp, -fp]

00000b7c <l609>:
     b7c:	e3a03042 	mov	r3, #66	; 0x42

00000b80 <l610>:
     b80:	911d60b3 	ldrhls	r6, [sp, -r3]

00000b84 <l611>:
     b84:	e15d84f6 	ldrsh	r8, [sp, #-70]	; 0xffffffba

00000b88 <l612>:
     b88:	e14da2b8 	strh	sl, [sp, #-40]	; 0xffffffd8

00000b8c <l613>:
     b8c:	114d62b6 	strhne	r6, [sp, #-38]	; 0xffffffda

00000b90 <l614>:
     b90:	e3a0e048 	mov	lr, #72	; 0x48

00000b94 <l615>:
     b94:	911d10be 	ldrhls	r1, [sp, -lr]

00000b98 <l616>:
     b98:	e3a0e020 	mov	lr, #32

00000b9c <l617>:
     b9c:	111da0be 	ldrhne	sl, [sp, -lr]

00000ba0 <l618>:
     ba0:	e15d32fe 	ldrsh	r3, [sp, #-46]	; 0xffffffd2

00000ba4 <l619>:
     ba4:	e14de1bc 	strh	lr, [sp, #-28]	; 0xffffffe4

00000ba8 <l620>:
     ba8:	e3a09018 	mov	r9, #24

00000bac <l621>:
     bac:	411d70b9 	ldrhmi	r7, [sp, -r9]

00000bb0 <l622>:
     bb0:	e3a05049 	mov	r5, #73	; 0x49

00000bb4 <l623>:
     bb4:	e11d90d5 	ldrsb	r9, [sp, -r5]

00000bb8 <l624>:
     bb8:	e3a0e049 	mov	lr, #73	; 0x49

00000bbc <l625>:
     bbc:	e11d20de 	ldrsb	r2, [sp, -lr]

00000bc0 <l626>:
     bc0:	e3a0c00d 	mov	ip, #13

00000bc4 <l627>:
     bc4:	b11da0dc 	ldrsblt	sl, [sp, -ip]

00000bc8 <l628>:
     bc8:	e3a0b022 	mov	fp, #34	; 0x22

00000bcc <l629>:
     bcc:	e11d60db 	ldrsb	r6, [sp, -fp]

00000bd0 <l630>:
     bd0:	e3a0c010 	mov	ip, #16

00000bd4 <l631>:
     bd4:	d11d20bc 	ldrhle	r2, [sp, -ip]

00000bd8 <l632>:
     bd8:	e3a0100e 	mov	r1, #14

00000bdc <l633>:
     bdc:	e11d90b1 	ldrh	r9, [sp, -r1]

00000be0 <l634>:
     be0:	e3a0b025 	mov	fp, #37	; 0x25

00000be4 <l635>:
     be4:	e11d20db 	ldrsb	r2, [sp, -fp]

00000be8 <l636>:
     be8:	e3a03020 	mov	r3, #32

00000bec <l637>:
     bec:	e11d20b3 	ldrh	r2, [sp, -r3]

00000bf0 <l638>:
     bf0:	e3a0304c 	mov	r3, #76	; 0x4c

00000bf4 <l639>:
     bf4:	911da0b3 	ldrhls	sl, [sp, -r3]

00000bf8 <l640>:
     bf8:	214d20bc 	strhcs	r2, [sp, #-12]

00000bfc <l641>:
     bfc:	e14d80be 	strh	r8, [sp, #-14]

00000c00 <l642>:
     c00:	e3a03050 	mov	r3, #80	; 0x50

00000c04 <l643>:
     c04:	e10d40b3 	strh	r4, [sp, -r3]

00000c08 <l644>:
     c08:	115d05d0 	ldrsbne	r0, [sp, #-80]	; 0xffffffb0

00000c0c <l645>:
     c0c:	c15d82b0 	ldrhgt	r8, [sp, #-32]	; 0xffffffe0

00000c10 <l646>:
     c10:	e3a00020 	mov	r0, #32

00000c14 <l647>:
     c14:	611d40f0 	ldrshvs	r4, [sp, -r0]

00000c18 <l648>:
     c18:	215da1be 	ldrhcs	sl, [sp, #-30]	; 0xffffffe2

00000c1c <l649>:
     c1c:	415d43ba 	ldrhmi	r4, [sp, #-58]	; 0xffffffc6

00000c20 <l650>:
     c20:	e3a0a036 	mov	sl, #54	; 0x36

00000c24 <l651>:
     c24:	e10d10ba 	strh	r1, [sp, -sl]

00000c28 <l652>:
     c28:	e3a09044 	mov	r9, #68	; 0x44

00000c2c <l653>:
     c2c:	811da0f9 	ldrshhi	sl, [sp, -r9]

00000c30 <l654>:
     c30:	715db0bc 	ldrhvc	fp, [sp, #-12]

00000c34 <l655>:
     c34:	215da4d6 	ldrsbcs	sl, [sp, #-70]	; 0xffffffba

00000c38 <l656>:
     c38:	e14d24b6 	strh	r2, [sp, #-70]	; 0xffffffba

00000c3c <l657>:
     c3c:	e15d70bc 	ldrh	r7, [sp, #-12]

00000c40 <l658>:
     c40:	e3a03007 	mov	r3, #7

00000c44 <l659>:
     c44:	411d50d3 	ldrsbmi	r5, [sp, -r3]

00000c48 <l660>:
     c48:	e3a02050 	mov	r2, #80	; 0x50

00000c4c <l661>:
     c4c:	d11d90f2 	ldrshle	r9, [sp, -r2]

00000c50 <l662>:
     c50:	e3a0c00a 	mov	ip, #10

00000c54 <l663>:
     c54:	511dc0bc 	ldrhpl	ip, [sp, -ip]

00000c58 <l664>:
     c58:	e3a0e040 	mov	lr, #64	; 0x40

00000c5c <l665>:
     c5c:	611d20de 	ldrsbvs	r2, [sp, -lr]

00000c60 <l666>:
     c60:	815d44bc 	ldrhhi	r4, [sp, #-76]	; 0xffffffb4

00000c64 <l667>:
     c64:	e3a02025 	mov	r2, #37	; 0x25

00000c68 <l668>:
     c68:	111d70d2 	ldrsbne	r7, [sp, -r2]

00000c6c <l669>:
     c6c:	e3a04012 	mov	r4, #18

00000c70 <l670>:
     c70:	710d70b4 	strhvc	r7, [sp, -r4]

00000c74 <l671>:
     c74:	015db4f0 	ldrsheq	fp, [sp, #-64]	; 0xffffffc0

00000c78 <l672>:
     c78:	e15d41d5 	ldrsb	r4, [sp, #-21]	; 0xffffffeb

00000c7c <l673>:
     c7c:	e3a0e02c 	mov	lr, #44	; 0x2c

00000c80 <l674>:
     c80:	e10db0be 	strh	fp, [sp, -lr]

00000c84 <l675>:
     c84:	e3a0e01b 	mov	lr, #27

00000c88 <l676>:
     c88:	c11d70de 	ldrsbgt	r7, [sp, -lr]

00000c8c <l677>:
     c8c:	815de2b8 	ldrhhi	lr, [sp, #-40]	; 0xffffffd8

00000c90 <l678>:
     c90:	215de0b8 	ldrhcs	lr, [sp, #-8]

00000c94 <l679>:
     c94:	e3a08046 	mov	r8, #70	; 0x46

00000c98 <l680>:
     c98:	c11d10f8 	ldrshgt	r1, [sp, -r8]

00000c9c <l681>:
     c9c:	015d81be 	ldrheq	r8, [sp, #-30]	; 0xffffffe2

00000ca0 <l682>:
     ca0:	c14d84b2 	strhgt	r8, [sp, #-66]	; 0xffffffbe

00000ca4 <l683>:
     ca4:	e3a0a03c 	mov	sl, #60	; 0x3c

00000ca8 <l684>:
     ca8:	311d40ba 	ldrhcc	r4, [sp, -sl]

00000cac <l685>:
     cac:	d15d23bc 	ldrhle	r2, [sp, #-60]	; 0xffffffc4

00000cb0 <l686>:
     cb0:	e3a00024 	mov	r0, #36	; 0x24

00000cb4 <l687>:
     cb4:	c11d10f0 	ldrshgt	r1, [sp, -r0]

00000cb8 <l688>:
     cb8:	e15d42d4 	ldrsb	r4, [sp, #-36]	; 0xffffffdc

00000cbc <l689>:
     cbc:	e15d13b8 	ldrh	r1, [sp, #-56]	; 0xffffffc8

00000cc0 <l690>:
     cc0:	e15db4fc 	ldrsh	fp, [sp, #-76]	; 0xffffffb4

00000cc4 <l691>:
     cc4:	e15db1db 	ldrsb	fp, [sp, #-27]	; 0xffffffe5

00000cc8 <l692>:
     cc8:	515d52f4 	ldrshpl	r5, [sp, #-36]	; 0xffffffdc

00000ccc <l693>:
     ccc:	e3a0703e 	mov	r7, #62	; 0x3e

00000cd0 <l694>:
     cd0:	011da0d7 	ldrsbeq	sl, [sp, -r7]

00000cd4 <l695>:
     cd4:	915d70ba 	ldrhls	r7, [sp, #-10]

00000cd8 <l696>:
     cd8:	a15db3fe 	ldrshge	fp, [sp, #-62]	; 0xffffffc2

00000cdc <l697>:
     cdc:	a15d81fe 	ldrshge	r8, [sp, #-30]	; 0xffffffe2

00000ce0 <l698>:
     ce0:	715d93b0 	ldrhvc	r9, [sp, #-48]	; 0xffffffd0

00000ce4 <l699>:
     ce4:	e3a00016 	mov	r0, #22

00000ce8 <l700>:
     ce8:	611d10b0 	ldrhvs	r1, [sp, -r0]

00000cec <l701>:
     cec:	e3a09044 	mov	r9, #68	; 0x44

00000cf0 <l702>:
     cf0:	611d10f9 	ldrshvs	r1, [sp, -r9]

00000cf4 <l703>:
     cf4:	e3a08030 	mov	r8, #48	; 0x30

00000cf8 <l704>:
     cf8:	b10d60b8 	strhlt	r6, [sp, -r8]

00000cfc <l705>:
     cfc:	615d33ba 	ldrhvs	r3, [sp, #-58]	; 0xffffffc6

00000d00 <l706>:
     d00:	e3a09022 	mov	r9, #34	; 0x22

00000d04 <l707>:
     d04:	c11de0f9 	ldrshgt	lr, [sp, -r9]

00000d08 <l708>:
     d08:	215db4ba 	ldrhcs	fp, [sp, #-74]	; 0xffffffb6

00000d0c <l709>:
     d0c:	e3a05044 	mov	r5, #68	; 0x44

00000d10 <l710>:
     d10:	711db0b5 	ldrhvc	fp, [sp, -r5]

00000d14 <l711>:
     d14:	e15d54b0 	ldrh	r5, [sp, #-64]	; 0xffffffc0

00000d18 <l712>:
     d18:	e15d72d9 	ldrsb	r7, [sp, #-41]	; 0xffffffd7

00000d1c <l713>:
     d1c:	e3a0904a 	mov	r9, #74	; 0x4a

00000d20 <l714>:
     d20:	911d70b9 	ldrhls	r7, [sp, -r9]

00000d24 <l715>:
     d24:	e3a0900e 	mov	r9, #14

00000d28 <l716>:
     d28:	e11d90b9 	ldrh	r9, [sp, -r9]

00000d2c <l717>:
     d2c:	e15de2fa 	ldrsh	lr, [sp, #-42]	; 0xffffffd6

00000d30 <l718>:
     d30:	e14da4b0 	strh	sl, [sp, #-64]	; 0xffffffc0

00000d34 <l719>:
     d34:	e14db4b4 	strh	fp, [sp, #-68]	; 0xffffffbc

00000d38 <l720>:
     d38:	e14db1b8 	strh	fp, [sp, #-24]	; 0xffffffe8

00000d3c <l721>:
     d3c:	e15d03f0 	ldrsh	r0, [sp, #-48]	; 0xffffffd0

00000d40 <l722>:
     d40:	e3a09034 	mov	r9, #52	; 0x34

00000d44 <l723>:
     d44:	610d10b9 	strhvs	r1, [sp, -r9]

00000d48 <l724>:
     d48:	e3a0b01e 	mov	fp, #30

00000d4c <l725>:
     d4c:	411d60bb 	ldrhmi	r6, [sp, -fp]

00000d50 <l726>:
     d50:	e3a0c024 	mov	ip, #36	; 0x24

00000d54 <l727>:
     d54:	711d70fc 	ldrshvc	r7, [sp, -ip]

00000d58 <l728>:
     d58:	e15de0b6 	ldrh	lr, [sp, #-6]

00000d5c <l729>:
     d5c:	e3a03032 	mov	r3, #50	; 0x32

00000d60 <l730>:
     d60:	b11d20d3 	ldrsblt	r2, [sp, -r3]

00000d64 <l731>:
     d64:	e3a04026 	mov	r4, #38	; 0x26

00000d68 <l732>:
     d68:	e11d70b4 	ldrh	r7, [sp, -r4]

00000d6c <l733>:
     d6c:	e3a0301a 	mov	r3, #26

00000d70 <l734>:
     d70:	e11d50b3 	ldrh	r5, [sp, -r3]

00000d74 <l735>:
     d74:	e3a0b046 	mov	fp, #70	; 0x46

00000d78 <l736>:
     d78:	e10d80bb 	strh	r8, [sp, -fp]

00000d7c <l737>:
     d7c:	e15d34b8 	ldrh	r3, [sp, #-72]	; 0xffffffb8

00000d80 <l738>:
     d80:	e3a0a028 	mov	sl, #40	; 0x28

00000d84 <l739>:
     d84:	e10dc0ba 	strh	ip, [sp, -sl]

00000d88 <l740>:
     d88:	e3a0e04a 	mov	lr, #74	; 0x4a

00000d8c <l741>:
     d8c:	c11d90fe 	ldrshgt	r9, [sp, -lr]

00000d90 <l742>:
     d90:	e14dc4b6 	strh	ip, [sp, #-70]	; 0xffffffba

00000d94 <l743>:
     d94:	e15d81be 	ldrh	r8, [sp, #-30]	; 0xffffffe2

00000d98 <l744>:
     d98:	e15de2f6 	ldrsh	lr, [sp, #-38]	; 0xffffffda

00000d9c <l745>:
     d9c:	e3a04046 	mov	r4, #70	; 0x46

00000da0 <l746>:
     da0:	a11d00b4 	ldrhge	r0, [sp, -r4]

00000da4 <l747>:
     da4:	c15db0b6 	ldrhgt	fp, [sp, #-6]

00000da8 <l748>:
     da8:	e15d54fc 	ldrsh	r5, [sp, #-76]	; 0xffffffb4

00000dac <l749>:
     dac:	e3a0204c 	mov	r2, #76	; 0x4c

00000db0 <l750>:
     db0:	e11d80d2 	ldrsb	r8, [sp, -r2]

00000db4 <l751>:
     db4:	e3a01042 	mov	r1, #66	; 0x42

00000db8 <l752>:
     db8:	110db0b1 	strhne	fp, [sp, -r1]

00000dbc <l753>:
     dbc:	e3a02018 	mov	r2, #24

00000dc0 <l754>:
     dc0:	e11d00f2 	ldrsh	r0, [sp, -r2]

00000dc4 <l755>:
     dc4:	e3a0e035 	mov	lr, #53	; 0x35

00000dc8 <l756>:
     dc8:	e11de0de 	ldrsb	lr, [sp, -lr]

00000dcc <l757>:
     dcc:	e3a0703e 	mov	r7, #62	; 0x3e

00000dd0 <l758>:
     dd0:	311d30f7 	ldrshcc	r3, [sp, -r7]

00000dd4 <l759>:
     dd4:	c15da1ba 	ldrhgt	sl, [sp, #-26]	; 0xffffffe6

00000dd8 <l760>:
     dd8:	514da1b4 	strhpl	sl, [sp, #-20]	; 0xffffffec

00000ddc <l761>:
     ddc:	e3a09026 	mov	r9, #38	; 0x26

00000de0 <l762>:
     de0:	a10d00b9 	strhge	r0, [sp, -r9]

00000de4 <l763>:
     de4:	e3a00027 	mov	r0, #39	; 0x27

00000de8 <l764>:
     de8:	e11d10d0 	ldrsb	r1, [sp, -r0]

00000dec <l765>:
     dec:	515d21df 	ldrsbpl	r2, [sp, #-31]	; 0xffffffe1

00000df0 <l766>:
     df0:	e3a04046 	mov	r4, #70	; 0x46

00000df4 <l767>:
     df4:	e11d50d4 	ldrsb	r5, [sp, -r4]

00000df8 <l768>:
     df8:	e15da2f4 	ldrsh	sl, [sp, #-36]	; 0xffffffdc

00000dfc <l769>:
     dfc:	e3a06026 	mov	r6, #38	; 0x26

00000e00 <l770>:
     e00:	911dc0f6 	ldrshls	ip, [sp, -r6]

00000e04 <l771>:
     e04:	e3a0302c 	mov	r3, #44	; 0x2c

00000e08 <l772>:
     e08:	e10d50b3 	strh	r5, [sp, -r3]

00000e0c <l773>:
     e0c:	715d33be 	ldrhvc	r3, [sp, #-62]	; 0xffffffc2

00000e10 <l774>:
     e10:	e3a04012 	mov	r4, #18

00000e14 <l775>:
     e14:	e11d50b4 	ldrh	r5, [sp, -r4]

00000e18 <l776>:
     e18:	e3a0a018 	mov	sl, #24

00000e1c <l777>:
     e1c:	811da0fa 	ldrshhi	sl, [sp, -sl]

00000e20 <l778>:
     e20:	e3a0c04c 	mov	ip, #76	; 0x4c

00000e24 <l779>:
     e24:	411d50bc 	ldrhmi	r5, [sp, -ip]

00000e28 <l780>:
     e28:	e3a05016 	mov	r5, #22

00000e2c <l781>:
     e2c:	e11d50f5 	ldrsh	r5, [sp, -r5]

00000e30 <l782>:
     e30:	e14d13be 	strh	r1, [sp, #-62]	; 0xffffffc2

00000e34 <l783>:
     e34:	a14d74b2 	strhge	r7, [sp, #-66]	; 0xffffffbe

00000e38 <l784>:
     e38:	e14d54b2 	strh	r5, [sp, #-66]	; 0xffffffbe

00000e3c <l785>:
     e3c:	e15da0dc 	ldrsb	sl, [sp, #-12]

00000e40 <l786>:
     e40:	e3a05048 	mov	r5, #72	; 0x48

00000e44 <l787>:
     e44:	e11d70b5 	ldrh	r7, [sp, -r5]

00000e48 <l788>:
     e48:	e3a08032 	mov	r8, #50	; 0x32

00000e4c <l789>:
     e4c:	e11d80f8 	ldrsh	r8, [sp, -r8]

00000e50 <l790>:
     e50:	e3a01006 	mov	r1, #6

00000e54 <l791>:
     e54:	811d80b1 	ldrhhi	r8, [sp, -r1]

00000e58 <l792>:
     e58:	514d51b2 	strhpl	r5, [sp, #-18]	; 0xffffffee

00000e5c <l793>:
     e5c:	e3a06005 	mov	r6, #5

00000e60 <l794>:
     e60:	e11dc0d6 	ldrsb	ip, [sp, -r6]

00000e64 <l795>:
     e64:	e15d11fe 	ldrsh	r1, [sp, #-30]	; 0xffffffe2

00000e68 <l796>:
     e68:	e3a08008 	mov	r8, #8

00000e6c <l797>:
     e6c:	311d00d8 	ldrsbcc	r0, [sp, -r8]

00000e70 <l798>:
     e70:	e15d20b6 	ldrh	r2, [sp, #-6]

00000e74 <l799>:
     e74:	e3a0c03a 	mov	ip, #58	; 0x3a

00000e78 <l800>:
     e78:	711d80bc 	ldrhvc	r8, [sp, -ip]

00000e7c <l801>:
     e7c:	e3a0b034 	mov	fp, #52	; 0x34

00000e80 <l802>:
     e80:	e11d60fb 	ldrsh	r6, [sp, -fp]

00000e84 <l803>:
     e84:	e3a08048 	mov	r8, #72	; 0x48

00000e88 <l804>:
     e88:	e10d40b8 	strh	r4, [sp, -r8]

00000e8c <l805>:
     e8c:	715d73d0 	ldrsbvc	r7, [sp, #-48]	; 0xffffffd0

00000e90 <l806>:
     e90:	e3a03011 	mov	r3, #17

00000e94 <l807>:
     e94:	811de0d3 	ldrsbhi	lr, [sp, -r3]

00000e98 <l808>:
     e98:	e3a0c04a 	mov	ip, #74	; 0x4a

00000e9c <l809>:
     e9c:	e11d30fc 	ldrsh	r3, [sp, -ip]

00000ea0 <l810>:
     ea0:	a15d61ba 	ldrhge	r6, [sp, #-26]	; 0xffffffe6

00000ea4 <l811>:
     ea4:	e3a0201e 	mov	r2, #30

00000ea8 <l812>:
     ea8:	811d90b2 	ldrhhi	r9, [sp, -r2]

00000eac <l813>:
     eac:	e3a05042 	mov	r5, #66	; 0x42

00000eb0 <l814>:
     eb0:	e11d60b5 	ldrh	r6, [sp, -r5]

00000eb4 <l815>:
     eb4:	e3a07048 	mov	r7, #72	; 0x48

00000eb8 <l816>:
     eb8:	610dc0b7 	strhvs	ip, [sp, -r7]

00000ebc <l817>:
     ebc:	a15d72d1 	ldrsbge	r7, [sp, #-33]	; 0xffffffdf

00000ec0 <l818>:
     ec0:	c14d04bc 	strhgt	r0, [sp, #-76]	; 0xffffffb4

00000ec4 <l819>:
     ec4:	e15de4d0 	ldrsb	lr, [sp, #-64]	; 0xffffffc0

00000ec8 <l820>:
     ec8:	e3a07026 	mov	r7, #38	; 0x26

00000ecc <l821>:
     ecc:	e11d00d7 	ldrsb	r0, [sp, -r7]

00000ed0 <l822>:
     ed0:	715d14bc 	ldrhvc	r1, [sp, #-76]	; 0xffffffb4

00000ed4 <l823>:
     ed4:	e3a0401a 	mov	r4, #26

00000ed8 <l824>:
     ed8:	b10dc0b4 	strhlt	ip, [sp, -r4]

00000edc <l825>:
     edc:	315d83d3 	ldrsbcc	r8, [sp, #-51]	; 0xffffffcd

00000ee0 <l826>:
     ee0:	d15de4fa 	ldrshle	lr, [sp, #-74]	; 0xffffffb6

00000ee4 <l827>:
     ee4:	e3a0c030 	mov	ip, #48	; 0x30

00000ee8 <l828>:
     ee8:	611d50fc 	ldrshvs	r5, [sp, -ip]

00000eec <l829>:
     eec:	e14d60be 	strh	r6, [sp, #-14]

00000ef0 <l830>:
     ef0:	e3a08044 	mov	r8, #68	; 0x44

00000ef4 <l831>:
     ef4:	e10de0b8 	strh	lr, [sp, -r8]

00000ef8 <l832>:
     ef8:	e3a0503a 	mov	r5, #58	; 0x3a

00000efc <l833>:
     efc:	811d70b5 	ldrhhi	r7, [sp, -r5]

00000f00 <l834>:
     f00:	e3a06050 	mov	r6, #80	; 0x50

00000f04 <l835>:
     f04:	611d80d6 	ldrsbvs	r8, [sp, -r6]

00000f08 <l836>:
     f08:	e15d92b8 	ldrh	r9, [sp, #-40]	; 0xffffffd8

00000f0c <l837>:
     f0c:	e3a04008 	mov	r4, #8

00000f10 <l838>:
     f10:	e11d20b4 	ldrh	r2, [sp, -r4]

00000f14 <l839>:
     f14:	e3a0703c 	mov	r7, #60	; 0x3c

00000f18 <l840>:
     f18:	e11d80d7 	ldrsb	r8, [sp, -r7]

00000f1c <l841>:
     f1c:	015d11f0 	ldrsheq	r1, [sp, #-16]

00000f20 <l842>:
     f20:	e3a00042 	mov	r0, #66	; 0x42

00000f24 <l843>:
     f24:	411d80f0 	ldrshmi	r8, [sp, -r0]

00000f28 <l844>:
     f28:	e3a02048 	mov	r2, #72	; 0x48

00000f2c <l845>:
     f2c:	e11d10f2 	ldrsh	r1, [sp, -r2]

00000f30 <l846>:
     f30:	e15d21d4 	ldrsb	r2, [sp, #-20]	; 0xffffffec

00000f34 <l847>:
     f34:	e15d50d6 	ldrsb	r5, [sp, #-6]

00000f38 <l848>:
     f38:	e3a04038 	mov	r4, #56	; 0x38

00000f3c <l849>:
     f3c:	b11d90b4 	ldrhlt	r9, [sp, -r4]

00000f40 <l850>:
     f40:	e3a01029 	mov	r1, #41	; 0x29

00000f44 <l851>:
     f44:	a11db0d1 	ldrsbge	fp, [sp, -r1]

00000f48 <l852>:
     f48:	e14d33b6 	strh	r3, [sp, #-54]	; 0xffffffca

00000f4c <l853>:
     f4c:	e3a0003a 	mov	r0, #58	; 0x3a

00000f50 <l854>:
     f50:	111d40b0 	ldrhne	r4, [sp, -r0]

00000f54 <l855>:
     f54:	c14d13b2 	strhgt	r1, [sp, #-50]	; 0xffffffce

00000f58 <l856>:
     f58:	e3a0704e 	mov	r7, #78	; 0x4e

00000f5c <l857>:
     f5c:	510d50b7 	strhpl	r5, [sp, -r7]

00000f60 <l858>:
     f60:	c14d71bc 	strhgt	r7, [sp, #-28]	; 0xffffffe4

00000f64 <l859>:
     f64:	e3a0800c 	mov	r8, #12

00000f68 <l860>:
     f68:	e11d80b8 	ldrh	r8, [sp, -r8]

00000f6c <l861>:
     f6c:	e3a0c024 	mov	ip, #36	; 0x24

00000f70 <l862>:
     f70:	e11d80dc 	ldrsb	r8, [sp, -ip]

00000f74 <l863>:
     f74:	815d11bc 	ldrhhi	r1, [sp, #-28]	; 0xffffffe4

00000f78 <l864>:
     f78:	e14da5b0 	strh	sl, [sp, #-80]	; 0xffffffb0

00000f7c <l865>:
     f7c:	e14dc2b0 	strh	ip, [sp, #-32]	; 0xffffffe0

00000f80 <l866>:
     f80:	e3a08014 	mov	r8, #20

00000f84 <l867>:
     f84:	910d30b8 	strhls	r3, [sp, -r8]

00000f88 <l868>:
     f88:	e15da1d1 	ldrsb	sl, [sp, #-17]	; 0xffffffef

00000f8c <l869>:
     f8c:	e3a0504c 	mov	r5, #76	; 0x4c

00000f90 <l870>:
     f90:	e11d70f5 	ldrsh	r7, [sp, -r5]

00000f94 <l871>:
     f94:	e3a06022 	mov	r6, #34	; 0x22

00000f98 <l872>:
     f98:	c11d60f6 	ldrshgt	r6, [sp, -r6]

00000f9c <l873>:
     f9c:	e3a0202e 	mov	r2, #46	; 0x2e

00000fa0 <l874>:
     fa0:	911d00d2 	ldrsbls	r0, [sp, -r2]

00000fa4 <l875>:
     fa4:	e3a0b03e 	mov	fp, #62	; 0x3e

00000fa8 <l876>:
     fa8:	b10d60bb 	strhlt	r6, [sp, -fp]

00000fac <l877>:
     fac:	e3a0401e 	mov	r4, #30

00000fb0 <l878>:
     fb0:	811d00f4 	ldrshhi	r0, [sp, -r4]

00000fb4 <l879>:
     fb4:	215d32f6 	ldrshcs	r3, [sp, #-38]	; 0xffffffda

00000fb8 <l880>:
     fb8:	e3a0202a 	mov	r2, #42	; 0x2a

00000fbc <l881>:
     fbc:	e10d80b2 	strh	r8, [sp, -r2]

00000fc0 <l882>:
     fc0:	e3a0400a 	mov	r4, #10

00000fc4 <l883>:
     fc4:	e11d00f4 	ldrsh	r0, [sp, -r4]

00000fc8 <l884>:
     fc8:	e3a07048 	mov	r7, #72	; 0x48

00000fcc <l885>:
     fcc:	b10d70b7 	strhlt	r7, [sp, -r7]

00000fd0 <l886>:
     fd0:	e3a00014 	mov	r0, #20

00000fd4 <l887>:
     fd4:	211d30f0 	ldrshcs	r3, [sp, -r0]

00000fd8 <l888>:
     fd8:	e15d60d6 	ldrsb	r6, [sp, #-6]

00000fdc <l889>:
     fdc:	e15d93de 	ldrsb	r9, [sp, #-62]	; 0xffffffc2

00000fe0 <l890>:
     fe0:	e3a08018 	mov	r8, #24

00000fe4 <l891>:
     fe4:	e11d50f8 	ldrsh	r5, [sp, -r8]

00000fe8 <l892>:
     fe8:	e14d51be 	strh	r5, [sp, #-30]	; 0xffffffe2

00000fec <l893>:
     fec:	e15d44dd 	ldrsb	r4, [sp, #-77]	; 0xffffffb3

00000ff0 <l894>:
     ff0:	e3a0e048 	mov	lr, #72	; 0x48

00000ff4 <l895>:
     ff4:	e11dc0be 	ldrh	ip, [sp, -lr]

00000ff8 <l896>:
     ff8:	e3a0604c 	mov	r6, #76	; 0x4c

00000ffc <l897>:
     ffc:	e10d00b6 	strh	r0, [sp, -r6]

00001000 <l898>:
    1000:	b15d91d5 	ldrsblt	r9, [sp, #-21]	; 0xffffffeb

00001004 <l899>:
    1004:	e3a09046 	mov	r9, #70	; 0x46

00001008 <l900>:
    1008:	311d20f9 	ldrshcc	r2, [sp, -r9]

0000100c <l901>:
    100c:	e3a0303a 	mov	r3, #58	; 0x3a

00001010 <l902>:
    1010:	e11dc0b3 	ldrh	ip, [sp, -r3]

00001014 <l903>:
    1014:	e3a09030 	mov	r9, #48	; 0x30

00001018 <l904>:
    1018:	311da0b9 	ldrhcc	sl, [sp, -r9]

0000101c <l905>:
    101c:	e3a09021 	mov	r9, #33	; 0x21

00001020 <l906>:
    1020:	011d10d9 	ldrsbeq	r1, [sp, -r9]

00001024 <l907>:
    1024:	e3a0e04a 	mov	lr, #74	; 0x4a

00001028 <l908>:
    1028:	611da0fe 	ldrshvs	sl, [sp, -lr]

0000102c <l909>:
    102c:	e14d60bc 	strh	r6, [sp, #-12]

00001030 <l910>:
    1030:	e15d30d9 	ldrsb	r3, [sp, #-9]

00001034 <l911>:
    1034:	e3a08020 	mov	r8, #32

00001038 <l912>:
    1038:	e11da0b8 	ldrh	sl, [sp, -r8]

0000103c <l913>:
    103c:	e3a0c014 	mov	ip, #20

00001040 <l914>:
    1040:	511db0fc 	ldrshpl	fp, [sp, -ip]

00001044 <l915>:
    1044:	e15d40fe 	ldrsh	r4, [sp, #-14]

00001048 <l916>:
    1048:	215d60d9 	ldrsbcs	r6, [sp, #-9]

0000104c <l917>:
    104c:	e15d05f0 	ldrsh	r0, [sp, #-80]	; 0xffffffb0

00001050 <l918>:
    1050:	e3a0204c 	mov	r2, #76	; 0x4c

00001054 <l919>:
    1054:	d11d30f2 	ldrshle	r3, [sp, -r2]

00001058 <l920>:
    1058:	e15d83d9 	ldrsb	r8, [sp, #-57]	; 0xffffffc7

0000105c <l921>:
    105c:	e14d04b6 	strh	r0, [sp, #-70]	; 0xffffffba

00001060 <l922>:
    1060:	e15de4ba 	ldrh	lr, [sp, #-74]	; 0xffffffb6

00001064 <l923>:
    1064:	e15dc4f4 	ldrsh	ip, [sp, #-68]	; 0xffffffbc

00001068 <l924>:
    1068:	e3a0703c 	mov	r7, #60	; 0x3c

0000106c <l925>:
    106c:	710d30b7 	strhvc	r3, [sp, -r7]

00001070 <l926>:
    1070:	b15d90be 	ldrhlt	r9, [sp, #-14]

00001074 <l927>:
    1074:	e3a0300e 	mov	r3, #14

00001078 <l928>:
    1078:	e11d30f3 	ldrsh	r3, [sp, -r3]

0000107c <l929>:
    107c:	e15d20ba 	ldrh	r2, [sp, #-10]

00001080 <l930>:
    1080:	a15da1f6 	ldrshge	sl, [sp, #-22]	; 0xffffffea

00001084 <l931>:
    1084:	e3a08010 	mov	r8, #16

00001088 <l932>:
    1088:	e11d20b8 	ldrh	r2, [sp, -r8]

0000108c <l933>:
    108c:	915d63b8 	ldrhls	r6, [sp, #-56]	; 0xffffffc8

00001090 <l934>:
    1090:	e15d24de 	ldrsb	r2, [sp, #-78]	; 0xffffffb2

00001094 <l935>:
    1094:	e3a09028 	mov	r9, #40	; 0x28

00001098 <l936>:
    1098:	c11da0d9 	ldrsbgt	sl, [sp, -r9]

0000109c <l937>:
    109c:	815d44d9 	ldrsbhi	r4, [sp, #-73]	; 0xffffffb7

000010a0 <l938>:
    10a0:	e3a0700c 	mov	r7, #12

000010a4 <l939>:
    10a4:	a11db0b7 	ldrhge	fp, [sp, -r7]

000010a8 <l940>:
    10a8:	e3a02028 	mov	r2, #40	; 0x28

000010ac <l941>:
    10ac:	711d40f2 	ldrshvc	r4, [sp, -r2]

000010b0 <l942>:
    10b0:	e3a05042 	mov	r5, #66	; 0x42

000010b4 <l943>:
    10b4:	b11de0f5 	ldrshlt	lr, [sp, -r5]

000010b8 <l944>:
    10b8:	e3a0903c 	mov	r9, #60	; 0x3c

000010bc <l945>:
    10bc:	e11d00f9 	ldrsh	r0, [sp, -r9]

000010c0 <l946>:
    10c0:	915d90ba 	ldrhls	r9, [sp, #-10]

000010c4 <l947>:
    10c4:	e3a0401f 	mov	r4, #31

000010c8 <l948>:
    10c8:	e11d00d4 	ldrsb	r0, [sp, -r4]

000010cc <l949>:
    10cc:	e3a0903c 	mov	r9, #60	; 0x3c

000010d0 <l950>:
    10d0:	211d30f9 	ldrshcs	r3, [sp, -r9]

000010d4 <l951>:
    10d4:	315dc2fa 	ldrshcc	ip, [sp, #-42]	; 0xffffffd6

000010d8 <l952>:
    10d8:	e3a08010 	mov	r8, #16

000010dc <l953>:
    10dc:	a10d80b8 	strhge	r8, [sp, -r8]

000010e0 <l954>:
    10e0:	e15d41d6 	ldrsb	r4, [sp, #-22]	; 0xffffffea

000010e4 <l955>:
    10e4:	914d03b4 	strhls	r0, [sp, #-52]	; 0xffffffcc

000010e8 <l956>:
    10e8:	e3a0700e 	mov	r7, #14

000010ec <l957>:
    10ec:	211d30b7 	ldrhcs	r3, [sp, -r7]

000010f0 <l958>:
    10f0:	e15db3f4 	ldrsh	fp, [sp, #-52]	; 0xffffffcc

000010f4 <l959>:
    10f4:	e3a0e038 	mov	lr, #56	; 0x38

000010f8 <l960>:
    10f8:	d11dc0de 	ldrsble	ip, [sp, -lr]

000010fc <l961>:
    10fc:	c14d73b6 	strhgt	r7, [sp, #-54]	; 0xffffffca

00001100 <l962>:
    1100:	e15db1f4 	ldrsh	fp, [sp, #-20]	; 0xffffffec

00001104 <l963>:
    1104:	e15d51b6 	ldrh	r5, [sp, #-22]	; 0xffffffea

00001108 <l964>:
    1108:	e3a0c041 	mov	ip, #65	; 0x41

0000110c <l965>:
    110c:	e11db0dc 	ldrsb	fp, [sp, -ip]

00001110 <l966>:
    1110:	e3a0e024 	mov	lr, #36	; 0x24

00001114 <l967>:
    1114:	311d00fe 	ldrshcc	r0, [sp, -lr]

00001118 <l968>:
    1118:	e3a03014 	mov	r3, #20

0000111c <l969>:
    111c:	511d40f3 	ldrshpl	r4, [sp, -r3]

00001120 <l970>:
    1120:	415d11f6 	ldrshmi	r1, [sp, #-22]	; 0xffffffea

00001124 <l971>:
    1124:	e3a04030 	mov	r4, #48	; 0x30

00001128 <l972>:
    1128:	711d70b4 	ldrhvc	r7, [sp, -r4]

0000112c <l973>:
    112c:	e15dc1be 	ldrh	ip, [sp, #-30]	; 0xffffffe2

00001130 <l974>:
    1130:	e3a0204f 	mov	r2, #79	; 0x4f

00001134 <l975>:
    1134:	411d10d2 	ldrsbmi	r1, [sp, -r2]

00001138 <l976>:
    1138:	e3a09024 	mov	r9, #36	; 0x24

0000113c <l977>:
    113c:	d10d10b9 	strhle	r1, [sp, -r9]

00001140 <l978>:
    1140:	e3a01048 	mov	r1, #72	; 0x48

00001144 <l979>:
    1144:	e11dc0f1 	ldrsh	ip, [sp, -r1]

00001148 <l980>:
    1148:	e3a05030 	mov	r5, #48	; 0x30

0000114c <l981>:
    114c:	311d40f5 	ldrshcc	r4, [sp, -r5]

00001150 <l982>:
    1150:	e3a0800e 	mov	r8, #14

00001154 <l983>:
    1154:	e11d60d8 	ldrsb	r6, [sp, -r8]

00001158 <l984>:
    1158:	e15d61f2 	ldrsh	r6, [sp, #-18]	; 0xffffffee

0000115c <l985>:
    115c:	e3a0b010 	mov	fp, #16

00001160 <l986>:
    1160:	d11d50bb 	ldrhle	r5, [sp, -fp]

00001164 <l987>:
    1164:	e3a09020 	mov	r9, #32

00001168 <l988>:
    1168:	411d60b9 	ldrhmi	r6, [sp, -r9]

0000116c <l989>:
    116c:	a14d34b6 	strhge	r3, [sp, #-70]	; 0xffffffba

00001170 <l990>:
    1170:	315d54b4 	ldrhcc	r5, [sp, #-68]	; 0xffffffbc

00001174 <l991>:
    1174:	e3a0b018 	mov	fp, #24

00001178 <l992>:
    1178:	e11de0bb 	ldrh	lr, [sp, -fp]

0000117c <l993>:
    117c:	915d83f6 	ldrshls	r8, [sp, #-54]	; 0xffffffca

00001180 <l994>:
    1180:	c15da1d9 	ldrsbgt	sl, [sp, #-25]	; 0xffffffe7

00001184 <l995>:
    1184:	e3a01028 	mov	r1, #40	; 0x28

00001188 <l996>:
    1188:	011d00f1 	ldrsheq	r0, [sp, -r1]

0000118c <l997>:
    118c:	e3a02020 	mov	r2, #32

00001190 <l998>:
    1190:	e11db0f2 	ldrsh	fp, [sp, -r2]

00001194 <l999>:
    1194:	e14d01be 	strh	r0, [sp, #-30]	; 0xffffffe2

00001198 <l1000>:
    1198:	e3a06034 	mov	r6, #52	; 0x34

0000119c <l1001>:
    119c:	e10d90b6 	strh	r9, [sp, -r6]

000011a0 <l1002>:
    11a0:	e3a06008 	mov	r6, #8

000011a4 <l1003>:
    11a4:	e11dc0b6 	ldrh	ip, [sp, -r6]

000011a8 <l1004>:
    11a8:	e3a01022 	mov	r1, #34	; 0x22

000011ac <l1005>:
    11ac:	e11d20d1 	ldrsb	r2, [sp, -r1]

000011b0 <l1006>:
    11b0:	c15d51be 	ldrhgt	r5, [sp, #-30]	; 0xffffffe2

000011b4 <l1007>:
    11b4:	e15d74b6 	ldrh	r7, [sp, #-70]	; 0xffffffba

000011b8 <l1008>:
    11b8:	e3a09015 	mov	r9, #21

000011bc <l1009>:
    11bc:	511d50d9 	ldrsbpl	r5, [sp, -r9]

000011c0 <l1010>:
    11c0:	e3a0502c 	mov	r5, #44	; 0x2c

000011c4 <l1011>:
    11c4:	e10d40b5 	strh	r4, [sp, -r5]

000011c8 <l1012>:
    11c8:	e3a03016 	mov	r3, #22

000011cc <l1013>:
    11cc:	011db0f3 	ldrsheq	fp, [sp, -r3]

000011d0 <l1014>:
    11d0:	e3a02046 	mov	r2, #70	; 0x46

000011d4 <l1015>:
    11d4:	e11d20b2 	ldrh	r2, [sp, -r2]

000011d8 <l1016>:
    11d8:	e3a0a00e 	mov	sl, #14

000011dc <l1017>:
    11dc:	611d10da 	ldrsbvs	r1, [sp, -sl]

000011e0 <l1018>:
    11e0:	e3a0502e 	mov	r5, #46	; 0x2e

000011e4 <l1019>:
    11e4:	e10de0b5 	strh	lr, [sp, -r5]

000011e8 <l1020>:
    11e8:	415da4bc 	ldrhmi	sl, [sp, #-76]	; 0xffffffb4

000011ec <l1021>:
    11ec:	e3a0c032 	mov	ip, #50	; 0x32

000011f0 <l1022>:
    11f0:	e11de0fc 	ldrsh	lr, [sp, -ip]

000011f4 <l1023>:
    11f4:	e3a0e024 	mov	lr, #36	; 0x24

000011f8 <l1024>:
    11f8:	e11d10fe 	ldrsh	r1, [sp, -lr]

000011fc <l1025>:
    11fc:	d15da5f0 	ldrshle	sl, [sp, #-80]	; 0xffffffb0

00001200 <l1026>:
    1200:	e15d04ba 	ldrh	r0, [sp, #-74]	; 0xffffffb6

00001204 <l1027>:
    1204:	e14dc4b6 	strh	ip, [sp, #-70]	; 0xffffffba

00001208 <l1028>:
    1208:	715d03b8 	ldrhvc	r0, [sp, #-56]	; 0xffffffc8

0000120c <l1029>:
    120c:	e3a01014 	mov	r1, #20

00001210 <l1030>:
    1210:	e10da0b1 	strh	sl, [sp, -r1]

00001214 <l1031>:
    1214:	e3a0201a 	mov	r2, #26

00001218 <l1032>:
    1218:	011d00d2 	ldrsbeq	r0, [sp, -r2]

0000121c <l1033>:
    121c:	015d40da 	ldrsbeq	r4, [sp, #-10]

00001220 <l1034>:
    1220:	e3a0e028 	mov	lr, #40	; 0x28

00001224 <l1035>:
    1224:	411d50de 	ldrsbmi	r5, [sp, -lr]

00001228 <l1036>:
    1228:	e3a0101a 	mov	r1, #26

0000122c <l1037>:
    122c:	410d20b1 	strhmi	r2, [sp, -r1]

00001230 <l1038>:
    1230:	e3a01050 	mov	r1, #80	; 0x50

00001234 <l1039>:
    1234:	111da0f1 	ldrshne	sl, [sp, -r1]

00001238 <l1040>:
    1238:	e3a0c00c 	mov	ip, #12

0000123c <l1041>:
    123c:	e10d70bc 	strh	r7, [sp, -ip]

00001240 <l1042>:
    1240:	e3a05026 	mov	r5, #38	; 0x26

00001244 <l1043>:
    1244:	a10dc0b5 	strhge	ip, [sp, -r5]

00001248 <l1044>:
    1248:	e14d11b2 	strh	r1, [sp, #-18]	; 0xffffffee

0000124c <l1045>:
    124c:	e3a0a048 	mov	sl, #72	; 0x48

00001250 <l1046>:
    1250:	e10d30ba 	strh	r3, [sp, -sl]

00001254 <l1047>:
    1254:	e3a03012 	mov	r3, #18

00001258 <l1048>:
    1258:	d11d30f3 	ldrshle	r3, [sp, -r3]

0000125c <l1049>:
    125c:	e3a05020 	mov	r5, #32

00001260 <l1050>:
    1260:	e11d30f5 	ldrsh	r3, [sp, -r5]

00001264 <l1051>:
    1264:	e3a0e019 	mov	lr, #25

00001268 <l1052>:
    1268:	711de0de 	ldrsbvc	lr, [sp, -lr]

0000126c <l1053>:
    126c:	414d44ba 	strhmi	r4, [sp, #-74]	; 0xffffffb6

00001270 <l1054>:
    1270:	e3a06024 	mov	r6, #36	; 0x24

00001274 <l1055>:
    1274:	e11d00f6 	ldrsh	r0, [sp, -r6]

00001278 <l1056>:
    1278:	e3a02046 	mov	r2, #70	; 0x46

0000127c <l1057>:
    127c:	e10d10b2 	strh	r1, [sp, -r2]

00001280 <l1058>:
    1280:	e3a0c01a 	mov	ip, #26

00001284 <l1059>:
    1284:	511d80dc 	ldrsbpl	r8, [sp, -ip]

00001288 <l1060>:
    1288:	e3a0504b 	mov	r5, #75	; 0x4b

0000128c <l1061>:
    128c:	111d60d5 	ldrsbne	r6, [sp, -r5]

00001290 <l1062>:
    1290:	e3a0b00a 	mov	fp, #10

00001294 <l1063>:
    1294:	511d20fb 	ldrshpl	r2, [sp, -fp]

00001298 <l1064>:
    1298:	e3a0e01a 	mov	lr, #26

0000129c <l1065>:
    129c:	c10d00be 	strhgt	r0, [sp, -lr]

000012a0 <l1066>:
    12a0:	e15d80d9 	ldrsb	r8, [sp, #-9]

000012a4 <l1067>:
    12a4:	e3a0600a 	mov	r6, #10

000012a8 <l1068>:
    12a8:	911d40b6 	ldrhls	r4, [sp, -r6]

000012ac <l1069>:
    12ac:	214d43b6 	strhcs	r4, [sp, #-54]	; 0xffffffca

000012b0 <l1070>:
    12b0:	e3a0503e 	mov	r5, #62	; 0x3e

000012b4 <l1071>:
    12b4:	811de0d5 	ldrsbhi	lr, [sp, -r5]

000012b8 <l1072>:
    12b8:	e3a0b008 	mov	fp, #8

000012bc <l1073>:
    12bc:	e11d40bb 	ldrh	r4, [sp, -fp]

000012c0 <l1074>:
    12c0:	e3a01034 	mov	r1, #52	; 0x34

000012c4 <l1075>:
    12c4:	111d10d1 	ldrsbne	r1, [sp, -r1]

000012c8 <l1076>:
    12c8:	e3a05038 	mov	r5, #56	; 0x38

000012cc <l1077>:
    12cc:	b10d30b5 	strhlt	r3, [sp, -r5]

000012d0 <l1078>:
    12d0:	514d23b6 	strhpl	r2, [sp, #-54]	; 0xffffffca

000012d4 <l1079>:
    12d4:	e15d40f8 	ldrsh	r4, [sp, #-8]

000012d8 <l1080>:
    12d8:	e15d01fe 	ldrsh	r0, [sp, #-30]	; 0xffffffe2

000012dc <l1081>:
    12dc:	e15d63b2 	ldrh	r6, [sp, #-50]	; 0xffffffce

000012e0 <l1082>:
    12e0:	e3a06042 	mov	r6, #66	; 0x42

000012e4 <l1083>:
    12e4:	210d00b6 	strhcs	r0, [sp, -r6]

000012e8 <l1084>:
    12e8:	e15d13d4 	ldrsb	r1, [sp, #-52]	; 0xffffffcc

000012ec <l1085>:
    12ec:	914d81b2 	strhls	r8, [sp, #-18]	; 0xffffffee

000012f0 <l1086>:
    12f0:	e3a0703e 	mov	r7, #62	; 0x3e

000012f4 <l1087>:
    12f4:	c11d20b7 	ldrhgt	r2, [sp, -r7]

000012f8 <l1088>:
    12f8:	e3a0502a 	mov	r5, #42	; 0x2a

000012fc <l1089>:
    12fc:	911d40f5 	ldrshls	r4, [sp, -r5]

00001300 <l1090>:
    1300:	d14d20b8 	strhle	r2, [sp, #-8]

00001304 <l1091>:
    1304:	e3a02008 	mov	r2, #8

00001308 <l1092>:
    1308:	c10d50b2 	strhgt	r5, [sp, -r2]

0000130c <l1093>:
    130c:	615d12ba 	ldrhvs	r1, [sp, #-42]	; 0xffffffd6

00001310 <l1094>:
    1310:	e14d21ba 	strh	r2, [sp, #-26]	; 0xffffffe6

00001314 <l1095>:
    1314:	e3a0c03e 	mov	ip, #62	; 0x3e

00001318 <l1096>:
    1318:	e11d00dc 	ldrsb	r0, [sp, -ip]

0000131c <l1097>:
    131c:	e15d74dd 	ldrsb	r7, [sp, #-77]	; 0xffffffb3

00001320 <l1098>:
    1320:	e3a0102a 	mov	r1, #42	; 0x2a

00001324 <l1099>:
    1324:	111dc0f1 	ldrshne	ip, [sp, -r1]

00001328 <l1100>:
    1328:	814d54be 	strhhi	r5, [sp, #-78]	; 0xffffffb2

0000132c <l1101>:
    132c:	e3a0404e 	mov	r4, #78	; 0x4e

00001330 <l1102>:
    1330:	b11d50f4 	ldrshlt	r5, [sp, -r4]

00001334 <l1103>:
    1334:	e15d93df 	ldrsb	r9, [sp, #-63]	; 0xffffffc1

00001338 <l1104>:
    1338:	e15d64df 	ldrsb	r6, [sp, #-79]	; 0xffffffb1

0000133c <l1105>:
    133c:	c15d52be 	ldrhgt	r5, [sp, #-46]	; 0xffffffd2

00001340 <l1106>:
    1340:	e3a0a010 	mov	sl, #16

00001344 <l1107>:
    1344:	e11d40fa 	ldrsh	r4, [sp, -sl]

00001348 <l1108>:
    1348:	e3a01035 	mov	r1, #53	; 0x35

0000134c <l1109>:
    134c:	a11d70d1 	ldrsbge	r7, [sp, -r1]

00001350 <l1110>:
    1350:	e3a0a044 	mov	sl, #68	; 0x44

00001354 <l1111>:
    1354:	d10d20ba 	strhle	r2, [sp, -sl]

00001358 <l1112>:
    1358:	e3a0e00a 	mov	lr, #10

0000135c <l1113>:
    135c:	e11d60fe 	ldrsh	r6, [sp, -lr]

00001360 <l1114>:
    1360:	e14d91b2 	strh	r9, [sp, #-18]	; 0xffffffee

00001364 <l1115>:
    1364:	e14d23b0 	strh	r2, [sp, #-48]	; 0xffffffd0

00001368 <l1116>:
    1368:	414d24b2 	strhmi	r2, [sp, #-66]	; 0xffffffbe

0000136c <l1117>:
    136c:	d15dc4d4 	ldrsble	ip, [sp, #-68]	; 0xffffffbc

00001370 <l1118>:
    1370:	e3a0102e 	mov	r1, #46	; 0x2e

00001374 <l1119>:
    1374:	e10dc0b1 	strh	ip, [sp, -r1]

00001378 <l1120>:
    1378:	e15dc3b6 	ldrh	ip, [sp, #-54]	; 0xffffffca

0000137c <l1121>:
    137c:	e14d93b2 	strh	r9, [sp, #-50]	; 0xffffffce

00001380 <l1122>:
    1380:	215dc1d6 	ldrsbcs	ip, [sp, #-22]	; 0xffffffea

00001384 <l1123>:
    1384:	e3a07020 	mov	r7, #32

00001388 <l1124>:
    1388:	911db0b7 	ldrhls	fp, [sp, -r7]

0000138c <l1125>:
    138c:	e3a0503c 	mov	r5, #60	; 0x3c

00001390 <l1126>:
    1390:	910db0b5 	strhls	fp, [sp, -r5]

00001394 <l1127>:
    1394:	e15d64d5 	ldrsb	r6, [sp, #-69]	; 0xffffffbb

00001398 <l1128>:
    1398:	514d70b8 	strhpl	r7, [sp, #-8]

0000139c <l1129>:
    139c:	e3a0401e 	mov	r4, #30

000013a0 <l1130>:
    13a0:	111d60f4 	ldrshne	r6, [sp, -r4]

000013a4 <l1131>:
    13a4:	015d12b6 	ldrheq	r1, [sp, #-38]	; 0xffffffda

000013a8 <l1132>:
    13a8:	e3a0504c 	mov	r5, #76	; 0x4c

000013ac <l1133>:
    13ac:	710d10b5 	strhvc	r1, [sp, -r5]

000013b0 <l1134>:
    13b0:	e3a07032 	mov	r7, #50	; 0x32

000013b4 <l1135>:
    13b4:	d11de0b7 	ldrhle	lr, [sp, -r7]

000013b8 <l1136>:
    13b8:	e3a0703c 	mov	r7, #60	; 0x3c

000013bc <l1137>:
    13bc:	c10d70b7 	strhgt	r7, [sp, -r7]

000013c0 <l1138>:
    13c0:	014d30bc 	strheq	r3, [sp, #-12]

000013c4 <l1139>:
    13c4:	e3a0103a 	mov	r1, #58	; 0x3a

000013c8 <l1140>:
    13c8:	e11da0b1 	ldrh	sl, [sp, -r1]

000013cc <l1141>:
    13cc:	e3a00014 	mov	r0, #20

000013d0 <l1142>:
    13d0:	e11da0b0 	ldrh	sl, [sp, -r0]

000013d4 <l1143>:
    13d4:	e3a05038 	mov	r5, #56	; 0x38

000013d8 <l1144>:
    13d8:	e11d50f5 	ldrsh	r5, [sp, -r5]

000013dc <l1145>:
    13dc:	e3a07032 	mov	r7, #50	; 0x32

000013e0 <l1146>:
    13e0:	a11d80f7 	ldrshge	r8, [sp, -r7]

000013e4 <l1147>:
    13e4:	c15d71b6 	ldrhgt	r7, [sp, #-22]	; 0xffffffea

000013e8 <l1148>:
    13e8:	e3a0a044 	mov	sl, #68	; 0x44

000013ec <l1149>:
    13ec:	e10d20ba 	strh	r2, [sp, -sl]

000013f0 <l1150>:
    13f0:	e3a09036 	mov	r9, #54	; 0x36

000013f4 <l1151>:
    13f4:	e10d80b9 	strh	r8, [sp, -r9]

000013f8 <l1152>:
    13f8:	e3a0002e 	mov	r0, #46	; 0x2e

000013fc <l1153>:
    13fc:	e11d70f0 	ldrsh	r7, [sp, -r0]

00001400 <l1154>:
    1400:	e3a06034 	mov	r6, #52	; 0x34

00001404 <l1155>:
    1404:	e11d60d6 	ldrsb	r6, [sp, -r6]

00001408 <l1156>:
    1408:	e3a0b01e 	mov	fp, #30

0000140c <l1157>:
    140c:	e10d70bb 	strh	r7, [sp, -fp]

00001410 <l1158>:
    1410:	e3a0b008 	mov	fp, #8

00001414 <l1159>:
    1414:	b10d00bb 	strhlt	r0, [sp, -fp]

00001418 <l1160>:
    1418:	e3a0503e 	mov	r5, #62	; 0x3e

0000141c <l1161>:
    141c:	e10d90b5 	strh	r9, [sp, -r5]

00001420 <l1162>:
    1420:	c15d84dc 	ldrsbgt	r8, [sp, #-76]	; 0xffffffb4

00001424 <l1163>:
    1424:	a15d24d0 	ldrsbge	r2, [sp, #-64]	; 0xffffffc0

00001428 <l1164>:
    1428:	e3a0200c 	mov	r2, #12

0000142c <l1165>:
    142c:	e11d20d2 	ldrsb	r2, [sp, -r2]

00001430 <l1166>:
    1430:	814d00bc 	strhhi	r0, [sp, #-12]

00001434 <l1167>:
    1434:	715d71b8 	ldrhvc	r7, [sp, #-24]	; 0xffffffe8

00001438 <l1168>:
    1438:	a14d91b0 	strhge	r9, [sp, #-16]

0000143c <l1169>:
    143c:	e3a00040 	mov	r0, #64	; 0x40

00001440 <l1170>:
    1440:	e11d50f0 	ldrsh	r5, [sp, -r0]

00001444 <l1171>:
    1444:	915d44d9 	ldrsbls	r4, [sp, #-73]	; 0xffffffb7

00001448 <l1172>:
    1448:	914d90bc 	strhls	r9, [sp, #-12]

0000144c <l1173>:
    144c:	e15db4da 	ldrsb	fp, [sp, #-74]	; 0xffffffb6

00001450 <l1174>:
    1450:	e3a0104c 	mov	r1, #76	; 0x4c

00001454 <l1175>:
    1454:	e11db0b1 	ldrh	fp, [sp, -r1]

00001458 <l1176>:
    1458:	e3a0e048 	mov	lr, #72	; 0x48

0000145c <l1177>:
    145c:	e11d20be 	ldrh	r2, [sp, -lr]

00001460 <l1178>:
    1460:	d14d83b2 	strhle	r8, [sp, #-50]	; 0xffffffce

00001464 <l1179>:
    1464:	e3a04040 	mov	r4, #64	; 0x40

00001468 <l1180>:
    1468:	611dc0f4 	ldrshvs	ip, [sp, -r4]

0000146c <l1181>:
    146c:	e3a0701c 	mov	r7, #28

00001470 <l1182>:
    1470:	e11d70d7 	ldrsb	r7, [sp, -r7]

00001474 <l1183>:
    1474:	e3a0000a 	mov	r0, #10

00001478 <l1184>:
    1478:	c11d30f0 	ldrshgt	r3, [sp, -r0]

0000147c <l1185>:
    147c:	e3a04012 	mov	r4, #18

00001480 <l1186>:
    1480:	811d30f4 	ldrshhi	r3, [sp, -r4]

00001484 <l1187>:
    1484:	515da3da 	ldrsbpl	sl, [sp, #-58]	; 0xffffffc6

00001488 <l1188>:
    1488:	e15de1fa 	ldrsh	lr, [sp, #-26]	; 0xffffffe6

0000148c <l1189>:
    148c:	e3a0801a 	mov	r8, #26

00001490 <l1190>:
    1490:	e11db0b8 	ldrh	fp, [sp, -r8]

00001494 <l1191>:
    1494:	c14db3ba 	strhgt	fp, [sp, #-58]	; 0xffffffc6

00001498 <l1192>:
    1498:	115db0b8 	ldrhne	fp, [sp, #-8]

0000149c <l1193>:
    149c:	e3a06044 	mov	r6, #68	; 0x44

000014a0 <l1194>:
    14a0:	e11d40b6 	ldrh	r4, [sp, -r6]

000014a4 <l1195>:
    14a4:	e3a03046 	mov	r3, #70	; 0x46

000014a8 <l1196>:
    14a8:	710d30b3 	strhvc	r3, [sp, -r3]

000014ac <l1197>:
    14ac:	e3a03020 	mov	r3, #32

000014b0 <l1198>:
    14b0:	311dc0d3 	ldrsbcc	ip, [sp, -r3]

000014b4 <l1199>:
    14b4:	514d04b4 	strhpl	r0, [sp, #-68]	; 0xffffffbc

000014b8 <l1200>:
    14b8:	515d80bc 	ldrhpl	r8, [sp, #-12]

000014bc <l1201>:
    14bc:	e3a0c04a 	mov	ip, #74	; 0x4a

000014c0 <l1202>:
    14c0:	e10d50bc 	strh	r5, [sp, -ip]

000014c4 <l1203>:
    14c4:	e3a00012 	mov	r0, #18

000014c8 <l1204>:
    14c8:	e11de0d0 	ldrsb	lr, [sp, -r0]

000014cc <l1205>:
    14cc:	e14dc1ba 	strh	ip, [sp, #-26]	; 0xffffffe6

000014d0 <l1206>:
    14d0:	e14d14b8 	strh	r1, [sp, #-72]	; 0xffffffb8

000014d4 <l1207>:
    14d4:	e3a0b024 	mov	fp, #36	; 0x24

000014d8 <l1208>:
    14d8:	810d60bb 	strhhi	r6, [sp, -fp]

000014dc <l1209>:
    14dc:	e3a0a008 	mov	sl, #8

000014e0 <l1210>:
    14e0:	111d20ba 	ldrhne	r2, [sp, -sl]

000014e4 <l1211>:
    14e4:	515de1be 	ldrhpl	lr, [sp, #-30]	; 0xffffffe2

000014e8 <l1212>:
    14e8:	e3a0700d 	mov	r7, #13

000014ec <l1213>:
    14ec:	e11d70d7 	ldrsb	r7, [sp, -r7]

000014f0 <l1214>:
    14f0:	e15de3ba 	ldrh	lr, [sp, #-58]	; 0xffffffc6

000014f4 <l1215>:
    14f4:	e14db3b2 	strh	fp, [sp, #-50]	; 0xffffffce

000014f8 <l1216>:
    14f8:	215d01b2 	ldrhcs	r0, [sp, #-18]	; 0xffffffee

000014fc <l1217>:
    14fc:	214d00bc 	strhcs	r0, [sp, #-12]

00001500 <l1218>:
    1500:	e15d02d0 	ldrsb	r0, [sp, #-32]	; 0xffffffe0

00001504 <l1219>:
    1504:	615d93f2 	ldrshvs	r9, [sp, #-50]	; 0xffffffce

00001508 <l1220>:
    1508:	e3a05041 	mov	r5, #65	; 0x41

0000150c <l1221>:
    150c:	111d60d5 	ldrsbne	r6, [sp, -r5]

00001510 <l1222>:
    1510:	e3a06005 	mov	r6, #5

00001514 <l1223>:
    1514:	511d50d6 	ldrsbpl	r5, [sp, -r6]

00001518 <l1224>:
    1518:	115dc2f0 	ldrshne	ip, [sp, #-32]	; 0xffffffe0

0000151c <l1225>:
    151c:	e3a00026 	mov	r0, #38	; 0x26

00001520 <l1226>:
    1520:	e11dc0b0 	ldrh	ip, [sp, -r0]

00001524 <l1227>:
    1524:	e14d10b8 	strh	r1, [sp, #-8]

00001528 <l1228>:
    1528:	e3a00043 	mov	r0, #67	; 0x43

0000152c <l1229>:
    152c:	011de0d0 	ldrsbeq	lr, [sp, -r0]

00001530 <l1230>:
    1530:	e14d85b0 	strh	r8, [sp, #-80]	; 0xffffffb0

00001534 <l1231>:
    1534:	e3a0001b 	mov	r0, #27

00001538 <l1232>:
    1538:	a11d30d0 	ldrsbge	r3, [sp, -r0]

0000153c <l1233>:
    153c:	e15d73f6 	ldrsh	r7, [sp, #-54]	; 0xffffffca

00001540 <l1234>:
    1540:	915dc3d3 	ldrsbls	ip, [sp, #-51]	; 0xffffffcd

00001544 <l1235>:
    1544:	e3a0c050 	mov	ip, #80	; 0x50

00001548 <l1236>:
    1548:	211d80dc 	ldrsbcs	r8, [sp, -ip]

0000154c <l1237>:
    154c:	c14dc1b2 	strhgt	ip, [sp, #-18]	; 0xffffffee

00001550 <l1238>:
    1550:	e3a0e047 	mov	lr, #71	; 0x47

00001554 <l1239>:
    1554:	b11db0de 	ldrsblt	fp, [sp, -lr]

00001558 <l1240>:
    1558:	a15da1d5 	ldrsbge	sl, [sp, #-21]	; 0xffffffeb

0000155c <l1241>:
    155c:	415d52de 	ldrsbmi	r5, [sp, #-46]	; 0xffffffd2

00001560 <l1242>:
    1560:	e3a03050 	mov	r3, #80	; 0x50

00001564 <l1243>:
    1564:	d10d10b3 	strhle	r1, [sp, -r3]

00001568 <l1244>:
    1568:	e3a08038 	mov	r8, #56	; 0x38

0000156c <l1245>:
    156c:	c11db0b8 	ldrhgt	fp, [sp, -r8]

00001570 <l1246>:
    1570:	e15d65d0 	ldrsb	r6, [sp, #-80]	; 0xffffffb0

00001574 <l1247>:
    1574:	e3a0401c 	mov	r4, #28

00001578 <l1248>:
    1578:	e11d90d4 	ldrsb	r9, [sp, -r4]

0000157c <l1249>:
    157c:	e3a03010 	mov	r3, #16

00001580 <l1250>:
    1580:	e11db0d3 	ldrsb	fp, [sp, -r3]

00001584 <l1251>:
    1584:	e15de3f4 	ldrsh	lr, [sp, #-52]	; 0xffffffcc

00001588 <l1252>:
    1588:	e15dc3f6 	ldrsh	ip, [sp, #-54]	; 0xffffffca

0000158c <l1253>:
    158c:	e3a0402c 	mov	r4, #44	; 0x2c

00001590 <l1254>:
    1590:	e11d90b4 	ldrh	r9, [sp, -r4]

00001594 <l1255>:
    1594:	e3a0101e 	mov	r1, #30

00001598 <l1256>:
    1598:	e11d00f1 	ldrsh	r0, [sp, -r1]

0000159c <l1257>:
    159c:	e3a00012 	mov	r0, #18

000015a0 <l1258>:
    15a0:	e11d10f0 	ldrsh	r1, [sp, -r0]

000015a4 <l1259>:
    15a4:	e14de4bc 	strh	lr, [sp, #-76]	; 0xffffffb4

000015a8 <l1260>:
    15a8:	e3a08020 	mov	r8, #32

000015ac <l1261>:
    15ac:	511d50b8 	ldrhpl	r5, [sp, -r8]

000015b0 <l1262>:
    15b0:	e3a04018 	mov	r4, #24

000015b4 <l1263>:
    15b4:	e11d70f4 	ldrsh	r7, [sp, -r4]

000015b8 <l1264>:
    15b8:	e3a0c03a 	mov	ip, #58	; 0x3a

000015bc <l1265>:
    15bc:	711d20bc 	ldrhvc	r2, [sp, -ip]

000015c0 <l1266>:
    15c0:	e3a0e02e 	mov	lr, #46	; 0x2e

000015c4 <l1267>:
    15c4:	611d80fe 	ldrshvs	r8, [sp, -lr]

000015c8 <l1268>:
    15c8:	e15d92fa 	ldrsh	r9, [sp, #-42]	; 0xffffffd6

000015cc <l1269>:
    15cc:	e3a06018 	mov	r6, #24

000015d0 <l1270>:
    15d0:	511dc0f6 	ldrshpl	ip, [sp, -r6]

000015d4 <l1271>:
    15d4:	e3a06024 	mov	r6, #36	; 0x24

000015d8 <l1272>:
    15d8:	b11d00b6 	ldrhlt	r0, [sp, -r6]

000015dc <l1273>:
    15dc:	b15da3f2 	ldrshlt	sl, [sp, #-50]	; 0xffffffce

000015e0 <l1274>:
    15e0:	215d24fc 	ldrshcs	r2, [sp, #-76]	; 0xffffffb4

000015e4 <l1275>:
    15e4:	e15dc3b8 	ldrh	ip, [sp, #-56]	; 0xffffffc8

000015e8 <l1276>:
    15e8:	e3a07015 	mov	r7, #21

000015ec <l1277>:
    15ec:	e11dc0d7 	ldrsb	ip, [sp, -r7]

000015f0 <l1278>:
    15f0:	e15d33bc 	ldrh	r3, [sp, #-60]	; 0xffffffc4

000015f4 <l1279>:
    15f4:	e3a0103a 	mov	r1, #58	; 0x3a

000015f8 <l1280>:
    15f8:	711da0d1 	ldrsbvc	sl, [sp, -r1]

000015fc <l1281>:
    15fc:	e15d30dd 	ldrsb	r3, [sp, #-13]

00001600 <l1282>:
    1600:	e3a05030 	mov	r5, #48	; 0x30

00001604 <l1283>:
    1604:	e11d80b5 	ldrh	r8, [sp, -r5]

00001608 <l1284>:
    1608:	e3a01010 	mov	r1, #16

0000160c <l1285>:
    160c:	810d30b1 	strhhi	r3, [sp, -r1]

00001610 <l1286>:
    1610:	e3a00046 	mov	r0, #70	; 0x46

00001614 <l1287>:
    1614:	810d80b0 	strhhi	r8, [sp, -r0]

00001618 <l1288>:
    1618:	e14d43b2 	strh	r4, [sp, #-50]	; 0xffffffce

0000161c <l1289>:
    161c:	e3a06028 	mov	r6, #40	; 0x28

00001620 <l1290>:
    1620:	011d70b6 	ldrheq	r7, [sp, -r6]

00001624 <l1291>:
    1624:	e3a0b028 	mov	fp, #40	; 0x28

00001628 <l1292>:
    1628:	e10d00bb 	strh	r0, [sp, -fp]

0000162c <l1293>:
    162c:	e3a0403c 	mov	r4, #60	; 0x3c

00001630 <l1294>:
    1630:	e11d40f4 	ldrsh	r4, [sp, -r4]

00001634 <l1295>:
    1634:	e3a0a00a 	mov	sl, #10

00001638 <l1296>:
    1638:	111d30ba 	ldrhne	r3, [sp, -sl]

0000163c <l1297>:
    163c:	e3a0304e 	mov	r3, #78	; 0x4e

00001640 <l1298>:
    1640:	311d70d3 	ldrsbcc	r7, [sp, -r3]

00001644 <l1299>:
    1644:	e3a06010 	mov	r6, #16

00001648 <l1300>:
    1648:	d10d70b6 	strhle	r7, [sp, -r6]

0000164c <l1301>:
    164c:	e3a00034 	mov	r0, #52	; 0x34

00001650 <l1302>:
    1650:	e11d50b0 	ldrh	r5, [sp, -r0]

00001654 <l1303>:
    1654:	615d70da 	ldrsbvs	r7, [sp, #-10]

00001658 <l1304>:
    1658:	e15d31d9 	ldrsb	r3, [sp, #-25]	; 0xffffffe7

0000165c <l1305>:
    165c:	e3a0303a 	mov	r3, #58	; 0x3a

00001660 <l1306>:
    1660:	e11d20b3 	ldrh	r2, [sp, -r3]

00001664 <l1307>:
    1664:	015d04be 	ldrheq	r0, [sp, #-78]	; 0xffffffb2

00001668 <l1308>:
    1668:	e15d83d3 	ldrsb	r8, [sp, #-51]	; 0xffffffcd

0000166c <l1309>:
    166c:	e3a0104c 	mov	r1, #76	; 0x4c

00001670 <l1310>:
    1670:	d10d00b1 	strhle	r0, [sp, -r1]

00001674 <l1311>:
    1674:	e14db1b2 	strh	fp, [sp, #-18]	; 0xffffffee

00001678 <l1312>:
    1678:	e3a03022 	mov	r3, #34	; 0x22

0000167c <l1313>:
    167c:	e11de0f3 	ldrsh	lr, [sp, -r3]

00001680 <l1314>:
    1680:	e3a0503d 	mov	r5, #61	; 0x3d

00001684 <l1315>:
    1684:	b11de0d5 	ldrsblt	lr, [sp, -r5]

00001688 <l1316>:
    1688:	115d21f2 	ldrshne	r2, [sp, #-18]	; 0xffffffee

0000168c <l1317>:
    168c:	e3a04030 	mov	r4, #48	; 0x30

00001690 <l1318>:
    1690:	511d60b4 	ldrhpl	r6, [sp, -r4]

00001694 <l1319>:
    1694:	e15de4d2 	ldrsb	lr, [sp, #-66]	; 0xffffffbe

00001698 <l1320>:
    1698:	e15d62d7 	ldrsb	r6, [sp, #-39]	; 0xffffffd9

0000169c <l1321>:
    169c:	e3a0a048 	mov	sl, #72	; 0x48

000016a0 <l1322>:
    16a0:	111d00ba 	ldrhne	r0, [sp, -sl]

000016a4 <l1323>:
    16a4:	915d31f4 	ldrshls	r3, [sp, #-20]	; 0xffffffec

000016a8 <l1324>:
    16a8:	515d03d0 	ldrsbpl	r0, [sp, #-48]	; 0xffffffd0

000016ac <l1325>:
    16ac:	a15d64b8 	ldrhge	r6, [sp, #-72]	; 0xffffffb8

000016b0 <l1326>:
    16b0:	715de3d5 	ldrsbvc	lr, [sp, #-53]	; 0xffffffcb

000016b4 <l1327>:
    16b4:	515d13b6 	ldrhpl	r1, [sp, #-54]	; 0xffffffca

000016b8 <l1328>:
    16b8:	215d52f8 	ldrshcs	r5, [sp, #-40]	; 0xffffffd8

000016bc <l1329>:
    16bc:	715d13ba 	ldrhvc	r1, [sp, #-58]	; 0xffffffc6

000016c0 <l1330>:
    16c0:	e3a08028 	mov	r8, #40	; 0x28

000016c4 <l1331>:
    16c4:	311da0d8 	ldrsbcc	sl, [sp, -r8]

000016c8 <l1332>:
    16c8:	e3a04039 	mov	r4, #57	; 0x39

000016cc <l1333>:
    16cc:	e11d60d4 	ldrsb	r6, [sp, -r4]

000016d0 <l1334>:
    16d0:	115d32ba 	ldrhne	r3, [sp, #-42]	; 0xffffffd6

000016d4 <l1335>:
    16d4:	e3a05046 	mov	r5, #70	; 0x46

000016d8 <l1336>:
    16d8:	511dc0d5 	ldrsbpl	ip, [sp, -r5]

000016dc <l1337>:
    16dc:	415da3d1 	ldrsbmi	sl, [sp, #-49]	; 0xffffffcf

000016e0 <l1338>:
    16e0:	e14da1ba 	strh	sl, [sp, #-26]	; 0xffffffe6

000016e4 <l1339>:
    16e4:	e3a05040 	mov	r5, #64	; 0x40

000016e8 <l1340>:
    16e8:	711d90b5 	ldrhvc	r9, [sp, -r5]

000016ec <l1341>:
    16ec:	115d20b6 	ldrhne	r2, [sp, #-6]

000016f0 <l1342>:
    16f0:	515d14f4 	ldrshpl	r1, [sp, #-68]	; 0xffffffbc

000016f4 <l1343>:
    16f4:	e14d04b0 	strh	r0, [sp, #-64]	; 0xffffffc0

000016f8 <l1344>:
    16f8:	715da2b2 	ldrhvc	sl, [sp, #-34]	; 0xffffffde

000016fc <l1345>:
    16fc:	515da3d2 	ldrsbpl	sl, [sp, #-50]	; 0xffffffce

00001700 <l1346>:
    1700:	e3a0e012 	mov	lr, #18

00001704 <l1347>:
    1704:	e11d00be 	ldrh	r0, [sp, -lr]

00001708 <l1348>:
    1708:	e3a08035 	mov	r8, #53	; 0x35

0000170c <l1349>:
    170c:	911d20d8 	ldrsbls	r2, [sp, -r8]

00001710 <l1350>:
    1710:	e3a0e006 	mov	lr, #6

00001714 <l1351>:
    1714:	e11d00be 	ldrh	r0, [sp, -lr]

00001718 <l1352>:
    1718:	e15d53d1 	ldrsb	r5, [sp, #-49]	; 0xffffffcf

0000171c <l1353>:
    171c:	e3a01012 	mov	r1, #18

00001720 <l1354>:
    1720:	e11d60f1 	ldrsh	r6, [sp, -r1]

00001724 <l1355>:
    1724:	e3a0003d 	mov	r0, #61	; 0x3d

00001728 <l1356>:
    1728:	811da0d0 	ldrsbhi	sl, [sp, -r0]

0000172c <l1357>:
    172c:	b15db0fe 	ldrshlt	fp, [sp, #-14]

00001730 <l1358>:
    1730:	e3a0600c 	mov	r6, #12

00001734 <l1359>:
    1734:	211d30b6 	ldrhcs	r3, [sp, -r6]

00001738 <l1360>:
    1738:	e3a0900a 	mov	r9, #10

0000173c <l1361>:
    173c:	210d50b9 	strhcs	r5, [sp, -r9]

00001740 <l1362>:
    1740:	e14d41ba 	strh	r4, [sp, #-26]	; 0xffffffe6

00001744 <l1363>:
    1744:	e15d90b6 	ldrh	r9, [sp, #-6]

00001748 <l1364>:
    1748:	e15d44fa 	ldrsh	r4, [sp, #-74]	; 0xffffffb6

0000174c <l1365>:
    174c:	e3a05010 	mov	r5, #16

00001750 <l1366>:
    1750:	811dc0b5 	ldrhhi	ip, [sp, -r5]

00001754 <l1367>:
    1754:	e3a06022 	mov	r6, #34	; 0x22

00001758 <l1368>:
    1758:	e11d10b6 	ldrh	r1, [sp, -r6]

0000175c <l1369>:
    175c:	e3a0303a 	mov	r3, #58	; 0x3a

00001760 <l1370>:
    1760:	e11d30f3 	ldrsh	r3, [sp, -r3]

00001764 <l1371>:
    1764:	e14d53b4 	strh	r5, [sp, #-52]	; 0xffffffcc

00001768 <l1372>:
    1768:	a15d84fe 	ldrshge	r8, [sp, #-78]	; 0xffffffb2

0000176c <l1373>:
    176c:	e3a03043 	mov	r3, #67	; 0x43

00001770 <l1374>:
    1770:	e11d60d3 	ldrsb	r6, [sp, -r3]

00001774 <l1375>:
    1774:	715de2b6 	ldrhvc	lr, [sp, #-38]	; 0xffffffda

00001778 <l1376>:
    1778:	215d13f0 	ldrshcs	r1, [sp, #-48]	; 0xffffffd0

0000177c <l1377>:
    177c:	e3a0b032 	mov	fp, #50	; 0x32

00001780 <l1378>:
    1780:	e10da0bb 	strh	sl, [sp, -fp]

00001784 <l1379>:
    1784:	e3a0502e 	mov	r5, #46	; 0x2e

00001788 <l1380>:
    1788:	e10d10b5 	strh	r1, [sp, -r5]

0000178c <l1381>:
    178c:	e3a05034 	mov	r5, #52	; 0x34

00001790 <l1382>:
    1790:	811de0b5 	ldrhhi	lr, [sp, -r5]

00001794 <l1383>:
    1794:	e15d81fe 	ldrsh	r8, [sp, #-30]	; 0xffffffe2

00001798 <l1384>:
    1798:	e3a0502c 	mov	r5, #44	; 0x2c

0000179c <l1385>:
    179c:	e11d20d5 	ldrsb	r2, [sp, -r5]

000017a0 <l1386>:
    17a0:	515d73f4 	ldrshpl	r7, [sp, #-52]	; 0xffffffcc

000017a4 <l1387>:
    17a4:	315d51d8 	ldrsbcc	r5, [sp, #-24]	; 0xffffffe8

000017a8 <l1388>:
    17a8:	e15d33b0 	ldrh	r3, [sp, #-48]	; 0xffffffd0

000017ac <l1389>:
    17ac:	e3a02012 	mov	r2, #18

000017b0 <l1390>:
    17b0:	c11d80f2 	ldrshgt	r8, [sp, -r2]

000017b4 <l1391>:
    17b4:	e14dc2bc 	strh	ip, [sp, #-44]	; 0xffffffd4

000017b8 <l1392>:
    17b8:	414db3ba 	strhmi	fp, [sp, #-58]	; 0xffffffc6

000017bc <l1393>:
    17bc:	915d74db 	ldrsbls	r7, [sp, #-75]	; 0xffffffb5

000017c0 <l1394>:
    17c0:	d15d00db 	ldrsble	r0, [sp, #-11]

000017c4 <l1395>:
    17c4:	e3a0102a 	mov	r1, #42	; 0x2a

000017c8 <l1396>:
    17c8:	e11d60f1 	ldrsh	r6, [sp, -r1]

000017cc <l1397>:
    17cc:	b15d72d7 	ldrsblt	r7, [sp, #-39]	; 0xffffffd9

000017d0 <l1398>:
    17d0:	e15db4d6 	ldrsb	fp, [sp, #-70]	; 0xffffffba

000017d4 <l1399>:
    17d4:	e3a0102a 	mov	r1, #42	; 0x2a

000017d8 <l1400>:
    17d8:	911da0f1 	ldrshls	sl, [sp, -r1]

000017dc <l1401>:
    17dc:	e3a04019 	mov	r4, #25

000017e0 <l1402>:
    17e0:	e11dc0d4 	ldrsb	ip, [sp, -r4]

000017e4 <l1403>:
    17e4:	e3a0303a 	mov	r3, #58	; 0x3a

000017e8 <l1404>:
    17e8:	011dc0d3 	ldrsbeq	ip, [sp, -r3]

000017ec <l1405>:
    17ec:	e3a0a03e 	mov	sl, #62	; 0x3e

000017f0 <l1406>:
    17f0:	511da0ba 	ldrhpl	sl, [sp, -sl]

000017f4 <l1407>:
    17f4:	e3a0001c 	mov	r0, #28

000017f8 <l1408>:
    17f8:	c11dc0b0 	ldrhgt	ip, [sp, -r0]

000017fc <l1409>:
    17fc:	515d21fc 	ldrshpl	r2, [sp, #-28]	; 0xffffffe4

00001800 <l1410>:
    1800:	e3a0c041 	mov	ip, #65	; 0x41

00001804 <l1411>:
    1804:	a11d80dc 	ldrsbge	r8, [sp, -ip]

00001808 <l1412>:
    1808:	715de4b4 	ldrhvc	lr, [sp, #-68]	; 0xffffffbc

0000180c <l1413>:
    180c:	115d32b8 	ldrhne	r3, [sp, #-40]	; 0xffffffd8

00001810 <l1414>:
    1810:	e3a00026 	mov	r0, #38	; 0x26

00001814 <l1415>:
    1814:	610db0b0 	strhvs	fp, [sp, -r0]

00001818 <l1416>:
    1818:	e3a04034 	mov	r4, #52	; 0x34

0000181c <l1417>:
    181c:	410d60b4 	strhmi	r6, [sp, -r4]

00001820 <l1418>:
    1820:	a14d73be 	strhge	r7, [sp, #-62]	; 0xffffffc2

00001824 <l1419>:
    1824:	e3a0601c 	mov	r6, #28

00001828 <l1420>:
    1828:	810d50b6 	strhhi	r5, [sp, -r6]

0000182c <l1421>:
    182c:	415d54db 	ldrsbmi	r5, [sp, #-75]	; 0xffffffb5

00001830 <l1422>:
    1830:	e3a05042 	mov	r5, #66	; 0x42

00001834 <l1423>:
    1834:	e11de0f5 	ldrsh	lr, [sp, -r5]

00001838 <l1424>:
    1838:	e14d32b6 	strh	r3, [sp, #-38]	; 0xffffffda

0000183c <l1425>:
    183c:	e14db1bc 	strh	fp, [sp, #-28]	; 0xffffffe4

00001840 <l1426>:
    1840:	e3a02018 	mov	r2, #24

00001844 <l1427>:
    1844:	610d90b2 	strhvs	r9, [sp, -r2]

00001848 <l1428>:
    1848:	e3a0204e 	mov	r2, #78	; 0x4e

0000184c <l1429>:
    184c:	811d10b2 	ldrhhi	r1, [sp, -r2]

00001850 <l1430>:
    1850:	e3a0504a 	mov	r5, #74	; 0x4a

00001854 <l1431>:
    1854:	e10d50b5 	strh	r5, [sp, -r5]

00001858 <l1432>:
    1858:	e14d34b4 	strh	r3, [sp, #-68]	; 0xffffffbc

0000185c <l1433>:
    185c:	e15de4b6 	ldrh	lr, [sp, #-70]	; 0xffffffba

00001860 <l1434>:
    1860:	e3a0c028 	mov	ip, #40	; 0x28

00001864 <l1435>:
    1864:	e11d60bc 	ldrh	r6, [sp, -ip]

00001868 <l1436>:
    1868:	715da0fa 	ldrshvc	sl, [sp, #-10]

0000186c <l1437>:
    186c:	e3a08038 	mov	r8, #56	; 0x38

00001870 <l1438>:
    1870:	311d80b8 	ldrhcc	r8, [sp, -r8]

00001874 <l1439>:
    1874:	e14d83b8 	strh	r8, [sp, #-56]	; 0xffffffc8

00001878 <l1440>:
    1878:	e3a04038 	mov	r4, #56	; 0x38

0000187c <l1441>:
    187c:	211d40b4 	ldrhcs	r4, [sp, -r4]

00001880 <l1442>:
    1880:	015dc2d6 	ldrsbeq	ip, [sp, #-38]	; 0xffffffda

00001884 <l1443>:
    1884:	e15da2db 	ldrsb	sl, [sp, #-43]	; 0xffffffd5

00001888 <l1444>:
    1888:	e3a0c047 	mov	ip, #71	; 0x47

0000188c <l1445>:
    188c:	411d80dc 	ldrsbmi	r8, [sp, -ip]

00001890 <l1446>:
    1890:	014d70b8 	strheq	r7, [sp, #-8]

00001894 <l1447>:
    1894:	e3a09026 	mov	r9, #38	; 0x26

00001898 <l1448>:
    1898:	e10d20b9 	strh	r2, [sp, -r9]

0000189c <l1449>:
    189c:	e15dc3dd 	ldrsb	ip, [sp, #-61]	; 0xffffffc3

000018a0 <l1450>:
    18a0:	a14de3b2 	strhge	lr, [sp, #-50]	; 0xffffffce

000018a4 <l1451>:
    18a4:	e3a05039 	mov	r5, #57	; 0x39

000018a8 <l1452>:
    18a8:	e11d50d5 	ldrsb	r5, [sp, -r5]

000018ac <l1453>:
    18ac:	e3a0b014 	mov	fp, #20

000018b0 <l1454>:
    18b0:	a10d90bb 	strhge	r9, [sp, -fp]

000018b4 <l1455>:
    18b4:	e3a07044 	mov	r7, #68	; 0x44

000018b8 <l1456>:
    18b8:	e11d90b7 	ldrh	r9, [sp, -r7]

000018bc <l1457>:
    18bc:	e3a0804a 	mov	r8, #74	; 0x4a

000018c0 <l1458>:
    18c0:	911dc0f8 	ldrshls	ip, [sp, -r8]

000018c4 <l1459>:
    18c4:	e3a04046 	mov	r4, #70	; 0x46

000018c8 <l1460>:
    18c8:	e11d80b4 	ldrh	r8, [sp, -r4]

000018cc <l1461>:
    18cc:	a15d52b6 	ldrhge	r5, [sp, #-38]	; 0xffffffda

000018d0 <l1462>:
    18d0:	e3a0e024 	mov	lr, #36	; 0x24

000018d4 <l1463>:
    18d4:	e11d90fe 	ldrsh	r9, [sp, -lr]

000018d8 <l1464>:
    18d8:	c15d01f4 	ldrshgt	r0, [sp, #-20]	; 0xffffffec

000018dc <l1465>:
    18dc:	e15d34fc 	ldrsh	r3, [sp, #-76]	; 0xffffffb4

000018e0 <l1466>:
    18e0:	515de0fa 	ldrshpl	lr, [sp, #-10]

000018e4 <l1467>:
    18e4:	e3a0604a 	mov	r6, #74	; 0x4a

000018e8 <l1468>:
    18e8:	311d80f6 	ldrshcc	r8, [sp, -r6]

000018ec <l1469>:
    18ec:	514d01ba 	strhpl	r0, [sp, #-26]	; 0xffffffe6

000018f0 <l1470>:
    18f0:	915de4b0 	ldrhls	lr, [sp, #-64]	; 0xffffffc0

000018f4 <l1471>:
    18f4:	e3a01032 	mov	r1, #50	; 0x32

000018f8 <l1472>:
    18f8:	e11d90b1 	ldrh	r9, [sp, -r1]

000018fc <l1473>:
    18fc:	915d41b4 	ldrhls	r4, [sp, #-20]	; 0xffffffec

00001900 <l1474>:
    1900:	e3a05036 	mov	r5, #54	; 0x36

00001904 <l1475>:
    1904:	811d10f5 	ldrshhi	r1, [sp, -r5]

00001908 <l1476>:
    1908:	e14d82b0 	strh	r8, [sp, #-32]	; 0xffffffe0

0000190c <l1477>:
    190c:	e3a05040 	mov	r5, #64	; 0x40

00001910 <l1478>:
    1910:	e11d30f5 	ldrsh	r3, [sp, -r5]

00001914 <l1479>:
    1914:	e14d22b8 	strh	r2, [sp, #-40]	; 0xffffffd8

00001918 <l1480>:
    1918:	e3a0200a 	mov	r2, #10

0000191c <l1481>:
    191c:	e11d30f2 	ldrsh	r3, [sp, -r2]

00001920 <l1482>:
    1920:	e3a00048 	mov	r0, #72	; 0x48

00001924 <l1483>:
    1924:	710d30b0 	strhvc	r3, [sp, -r0]

00001928 <l1484>:
    1928:	e14d22b2 	strh	r2, [sp, #-34]	; 0xffffffde

0000192c <l1485>:
    192c:	e3a01020 	mov	r1, #32

00001930 <l1486>:
    1930:	810d00b1 	strhhi	r0, [sp, -r1]

00001934 <l1487>:
    1934:	515d34d5 	ldrsbpl	r3, [sp, #-69]	; 0xffffffbb

00001938 <l1488>:
    1938:	e3a0e030 	mov	lr, #48	; 0x30

0000193c <l1489>:
    193c:	910d50be 	strhls	r5, [sp, -lr]

00001940 <l1490>:
    1940:	e3a0c01c 	mov	ip, #28

00001944 <l1491>:
    1944:	e11d60bc 	ldrh	r6, [sp, -ip]

00001948 <l1492>:
    1948:	e3a07010 	mov	r7, #16

0000194c <l1493>:
    194c:	e11d90f7 	ldrsh	r9, [sp, -r7]

00001950 <l1494>:
    1950:	e14d80b8 	strh	r8, [sp, #-8]

00001954 <l1495>:
    1954:	e3a0c04e 	mov	ip, #78	; 0x4e

00001958 <l1496>:
    1958:	e11d20bc 	ldrh	r2, [sp, -ip]

0000195c <l1497>:
    195c:	415d91d5 	ldrsbmi	r9, [sp, #-21]	; 0xffffffeb

00001960 <l1498>:
    1960:	114d54b0 	strhne	r5, [sp, #-64]	; 0xffffffc0

00001964 <l1499>:
    1964:	e3a05031 	mov	r5, #49	; 0x31

00001968 <l1500>:
    1968:	e11d40d5 	ldrsb	r4, [sp, -r5]

0000196c <l1501>:
    196c:	b14db4b8 	strhlt	fp, [sp, #-72]	; 0xffffffb8

00001970 <l1502>:
    1970:	e3a06046 	mov	r6, #70	; 0x46

00001974 <l1503>:
    1974:	e11d30f6 	ldrsh	r3, [sp, -r6]

00001978 <l1504>:
    1978:	e3a0b050 	mov	fp, #80	; 0x50

0000197c <l1505>:
    197c:	911d40db 	ldrsbls	r4, [sp, -fp]

00001980 <l1506>:
    1980:	e15d10fe 	ldrsh	r1, [sp, #-14]

00001984 <l1507>:
    1984:	e3a06030 	mov	r6, #48	; 0x30

00001988 <l1508>:
    1988:	e11da0b6 	ldrh	sl, [sp, -r6]

0000198c <l1509>:
    198c:	815d54f4 	ldrshhi	r5, [sp, #-68]	; 0xffffffbc

00001990 <l1510>:
    1990:	215d95d0 	ldrsbcs	r9, [sp, #-80]	; 0xffffffb0

00001994 <l1511>:
    1994:	e3a05016 	mov	r5, #22

00001998 <l1512>:
    1998:	e11de0b5 	ldrh	lr, [sp, -r5]

0000199c <l1513>:
    199c:	e15dc1de 	ldrsb	ip, [sp, #-30]	; 0xffffffe2

000019a0 <l1514>:
    19a0:	515d22bc 	ldrhpl	r2, [sp, #-44]	; 0xffffffd4

000019a4 <l1515>:
    19a4:	e3a0a00c 	mov	sl, #12

000019a8 <l1516>:
    19a8:	111d60ba 	ldrhne	r6, [sp, -sl]

000019ac <l1517>:
    19ac:	415d22f2 	ldrshmi	r2, [sp, #-34]	; 0xffffffde

000019b0 <l1518>:
    19b0:	e3a07018 	mov	r7, #24

000019b4 <l1519>:
    19b4:	e11d90f7 	ldrsh	r9, [sp, -r7]

000019b8 <l1520>:
    19b8:	e15d41ba 	ldrh	r4, [sp, #-26]	; 0xffffffe6

000019bc <l1521>:
    19bc:	e3a0e01a 	mov	lr, #26

000019c0 <l1522>:
    19c0:	310d70be 	strhcc	r7, [sp, -lr]

000019c4 <l1523>:
    19c4:	c15d74b4 	ldrhgt	r7, [sp, #-68]	; 0xffffffbc

000019c8 <l1524>:
    19c8:	e14d32b2 	strh	r3, [sp, #-34]	; 0xffffffde

000019cc <l1525>:
    19cc:	715de1b8 	ldrhvc	lr, [sp, #-24]	; 0xffffffe8

000019d0 <l1526>:
    19d0:	e3a0b049 	mov	fp, #73	; 0x49

000019d4 <l1527>:
    19d4:	e11d00db 	ldrsb	r0, [sp, -fp]

000019d8 <l1528>:
    19d8:	e15d61b0 	ldrh	r6, [sp, #-16]

000019dc <l1529>:
    19dc:	e3a03012 	mov	r3, #18

000019e0 <l1530>:
    19e0:	c11da0b3 	ldrhgt	sl, [sp, -r3]

000019e4 <l1531>:
    19e4:	e15d81f0 	ldrsh	r8, [sp, #-16]

000019e8 <l1532>:
    19e8:	e3a0e016 	mov	lr, #22

000019ec <l1533>:
    19ec:	d10d10be 	strhle	r1, [sp, -lr]

000019f0 <l1534>:
    19f0:	e15da4d3 	ldrsb	sl, [sp, #-67]	; 0xffffffbd

000019f4 <l1535>:
    19f4:	c15d03bc 	ldrhgt	r0, [sp, #-60]	; 0xffffffc4

000019f8 <l1536>:
    19f8:	e3a09034 	mov	r9, #52	; 0x34

000019fc <l1537>:
    19fc:	e10d70b9 	strh	r7, [sp, -r9]

00001a00 <l1538>:
    1a00:	e3a0e00e 	mov	lr, #14

00001a04 <l1539>:
    1a04:	911d90be 	ldrhls	r9, [sp, -lr]

00001a08 <l1540>:
    1a08:	015d74f2 	ldrsheq	r7, [sp, #-66]	; 0xffffffbe

00001a0c <l1541>:
    1a0c:	e3a01045 	mov	r1, #69	; 0x45

00001a10 <l1542>:
    1a10:	e11da0d1 	ldrsb	sl, [sp, -r1]

00001a14 <l1543>:
    1a14:	e15db1b6 	ldrh	fp, [sp, #-22]	; 0xffffffea

00001a18 <l1544>:
    1a18:	e3a06048 	mov	r6, #72	; 0x48

00001a1c <l1545>:
    1a1c:	911d50f6 	ldrshls	r5, [sp, -r6]

00001a20 <l1546>:
    1a20:	214d92b2 	strhcs	r9, [sp, #-34]	; 0xffffffde

00001a24 <l1547>:
    1a24:	515d44d7 	ldrsbpl	r4, [sp, #-71]	; 0xffffffb9

00001a28 <l1548>:
    1a28:	e3a07023 	mov	r7, #35	; 0x23

00001a2c <l1549>:
    1a2c:	211d70d7 	ldrsbcs	r7, [sp, -r7]

00001a30 <l1550>:
    1a30:	c15d71f8 	ldrshgt	r7, [sp, #-24]	; 0xffffffe8

00001a34 <l1551>:
    1a34:	e3a0b006 	mov	fp, #6

00001a38 <l1552>:
    1a38:	a11d50fb 	ldrshge	r5, [sp, -fp]

00001a3c <l1553>:
    1a3c:	b14d64b8 	strhlt	r6, [sp, #-72]	; 0xffffffb8

00001a40 <l1554>:
    1a40:	715de4fc 	ldrshvc	lr, [sp, #-76]	; 0xffffffb4

00001a44 <l1555>:
    1a44:	614dc4b2 	strhvs	ip, [sp, #-66]	; 0xffffffbe

00001a48 <l1556>:
    1a48:	d14d81b0 	strhle	r8, [sp, #-16]

00001a4c <l1557>:
    1a4c:	e15db3fa 	ldrsh	fp, [sp, #-58]	; 0xffffffc6

00001a50 <l1558>:
    1a50:	214db2b8 	strhcs	fp, [sp, #-40]	; 0xffffffd8

00001a54 <l1559>:
    1a54:	c14d20b6 	strhgt	r2, [sp, #-6]

00001a58 <l1560>:
    1a58:	514d04bc 	strhpl	r0, [sp, #-76]	; 0xffffffb4

00001a5c <l1561>:
    1a5c:	e3a08014 	mov	r8, #20

00001a60 <l1562>:
    1a60:	e11de0f8 	ldrsh	lr, [sp, -r8]

00001a64 <l1563>:
    1a64:	b14dc5b0 	strhlt	ip, [sp, #-80]	; 0xffffffb0

00001a68 <l1564>:
    1a68:	e3a0302c 	mov	r3, #44	; 0x2c

00001a6c <l1565>:
    1a6c:	111d40b3 	ldrhne	r4, [sp, -r3]

00001a70 <l1566>:
    1a70:	e15d30fc 	ldrsh	r3, [sp, #-12]

00001a74 <l1567>:
    1a74:	414da4b6 	strhmi	sl, [sp, #-70]	; 0xffffffba

00001a78 <l1568>:
    1a78:	915d52d1 	ldrsbls	r5, [sp, #-33]	; 0xffffffdf

00001a7c <l1569>:
    1a7c:	c14d32b0 	strhgt	r3, [sp, #-32]	; 0xffffffe0

00001a80 <l1570>:
    1a80:	e3a09040 	mov	r9, #64	; 0x40

00001a84 <l1571>:
    1a84:	e11db0f9 	ldrsh	fp, [sp, -r9]

00001a88 <l1572>:
    1a88:	e3a0a01c 	mov	sl, #28

00001a8c <l1573>:
    1a8c:	210d30ba 	strhcs	r3, [sp, -sl]

00001a90 <l1574>:
    1a90:	e3a00006 	mov	r0, #6

00001a94 <l1575>:
    1a94:	d10d20b0 	strhle	r2, [sp, -r0]

00001a98 <l1576>:
    1a98:	e3a06050 	mov	r6, #80	; 0x50

00001a9c <l1577>:
    1a9c:	e11d40b6 	ldrh	r4, [sp, -r6]

00001aa0 <l1578>:
    1aa0:	315d54fa 	ldrshcc	r5, [sp, #-74]	; 0xffffffb6

00001aa4 <l1579>:
    1aa4:	e3a06050 	mov	r6, #80	; 0x50

00001aa8 <l1580>:
    1aa8:	511da0b6 	ldrhpl	sl, [sp, -r6]

00001aac <l1581>:
    1aac:	e14d51bc 	strh	r5, [sp, #-28]	; 0xffffffe4

00001ab0 <l1582>:
    1ab0:	e3a0602a 	mov	r6, #42	; 0x2a

00001ab4 <l1583>:
    1ab4:	e11d40b6 	ldrh	r4, [sp, -r6]

00001ab8 <l1584>:
    1ab8:	e3a0c03c 	mov	ip, #60	; 0x3c

00001abc <l1585>:
    1abc:	e11de0fc 	ldrsh	lr, [sp, -ip]

00001ac0 <l1586>:
    1ac0:	115d81b2 	ldrhne	r8, [sp, #-18]	; 0xffffffee

00001ac4 <l1587>:
    1ac4:	e3a0604e 	mov	r6, #78	; 0x4e

00001ac8 <l1588>:
    1ac8:	e11d60b6 	ldrh	r6, [sp, -r6]

00001acc <l1589>:
    1acc:	e3a05010 	mov	r5, #16

00001ad0 <l1590>:
    1ad0:	e11d20f5 	ldrsh	r2, [sp, -r5]

00001ad4 <l1591>:
    1ad4:	e15d64d1 	ldrsb	r6, [sp, #-65]	; 0xffffffbf

00001ad8 <l1592>:
    1ad8:	515d64fa 	ldrshpl	r6, [sp, #-74]	; 0xffffffb6

00001adc <l1593>:
    1adc:	e3a0a006 	mov	sl, #6

00001ae0 <l1594>:
    1ae0:	911d30ba 	ldrhls	r3, [sp, -sl]

00001ae4 <l1595>:
    1ae4:	e3a06038 	mov	r6, #56	; 0x38

00001ae8 <l1596>:
    1ae8:	811dc0f6 	ldrshhi	ip, [sp, -r6]

00001aec <l1597>:
    1aec:	e15d20b8 	ldrh	r2, [sp, #-8]

00001af0 <l1598>:
    1af0:	c15d82d4 	ldrsbgt	r8, [sp, #-36]	; 0xffffffdc

00001af4 <l1599>:
    1af4:	e3a07022 	mov	r7, #34	; 0x22

00001af8 <l1600>:
    1af8:	611d10d7 	ldrsbvs	r1, [sp, -r7]

00001afc <l1601>:
    1afc:	e3a0b02c 	mov	fp, #44	; 0x2c

00001b00 <l1602>:
    1b00:	e11db0bb 	ldrh	fp, [sp, -fp]

00001b04 <l1603>:
    1b04:	e3a0a038 	mov	sl, #56	; 0x38

00001b08 <l1604>:
    1b08:	e11dc0fa 	ldrsh	ip, [sp, -sl]

00001b0c <l1605>:
    1b0c:	e14dc3be 	strh	ip, [sp, #-62]	; 0xffffffc2

00001b10 <l1606>:
    1b10:	e15de3da 	ldrsb	lr, [sp, #-58]	; 0xffffffc6

00001b14 <l1607>:
    1b14:	e15d12f2 	ldrsh	r1, [sp, #-34]	; 0xffffffde

00001b18 <l1608>:
    1b18:	e3a0a040 	mov	sl, #64	; 0x40

00001b1c <l1609>:
    1b1c:	e10d30ba 	strh	r3, [sp, -sl]

00001b20 <l1610>:
    1b20:	e3a09016 	mov	r9, #22

00001b24 <l1611>:
    1b24:	e11d40b9 	ldrh	r4, [sp, -r9]

00001b28 <l1612>:
    1b28:	e3a0c04f 	mov	ip, #79	; 0x4f

00001b2c <l1613>:
    1b2c:	011d90dc 	ldrsbeq	r9, [sp, -ip]

00001b30 <l1614>:
    1b30:	e3a09032 	mov	r9, #50	; 0x32

00001b34 <l1615>:
    1b34:	711d10f9 	ldrshvc	r1, [sp, -r9]

00001b38 <l1616>:
    1b38:	e3a0200a 	mov	r2, #10

00001b3c <l1617>:
    1b3c:	511d90b2 	ldrhpl	r9, [sp, -r2]

00001b40 <l1618>:
    1b40:	e3a0b01a 	mov	fp, #26

00001b44 <l1619>:
    1b44:	e11d80fb 	ldrsh	r8, [sp, -fp]

00001b48 <l1620>:
    1b48:	a15d71f8 	ldrshge	r7, [sp, #-24]	; 0xffffffe8

00001b4c <l1621>:
    1b4c:	e3a06023 	mov	r6, #35	; 0x23

00001b50 <l1622>:
    1b50:	c11d60d6 	ldrsbgt	r6, [sp, -r6]

00001b54 <l1623>:
    1b54:	e3a0e04e 	mov	lr, #78	; 0x4e

00001b58 <l1624>:
    1b58:	e11da0fe 	ldrsh	sl, [sp, -lr]

00001b5c <l1625>:
    1b5c:	115db3b2 	ldrhne	fp, [sp, #-50]	; 0xffffffce

00001b60 <l1626>:
    1b60:	e14db1ba 	strh	fp, [sp, #-26]	; 0xffffffe6

00001b64 <l1627>:
    1b64:	314d51b4 	strhcc	r5, [sp, #-20]	; 0xffffffec

00001b68 <l1628>:
    1b68:	e3a0a042 	mov	sl, #66	; 0x42

00001b6c <l1629>:
    1b6c:	911d00fa 	ldrshls	r0, [sp, -sl]

00001b70 <l1630>:
    1b70:	e3a05034 	mov	r5, #52	; 0x34

00001b74 <l1631>:
    1b74:	611d90b5 	ldrhvs	r9, [sp, -r5]

00001b78 <l1632>:
    1b78:	e3a07020 	mov	r7, #32

00001b7c <l1633>:
    1b7c:	e10d70b7 	strh	r7, [sp, -r7]

00001b80 <l1634>:
    1b80:	e15db4f2 	ldrsh	fp, [sp, #-66]	; 0xffffffbe

00001b84 <l1635>:
    1b84:	e3a04010 	mov	r4, #16

00001b88 <l1636>:
    1b88:	b10d00b4 	strhlt	r0, [sp, -r4]

00001b8c <l1637>:
    1b8c:	e3a05036 	mov	r5, #54	; 0x36

00001b90 <l1638>:
    1b90:	e10d10b5 	strh	r1, [sp, -r5]

00001b94 <l1639>:
    1b94:	e15d42be 	ldrh	r4, [sp, #-46]	; 0xffffffd2

00001b98 <l1640>:
    1b98:	e3a0c022 	mov	ip, #34	; 0x22

00001b9c <l1641>:
    1b9c:	e10d00bc 	strh	r0, [sp, -ip]

00001ba0 <l1642>:
    1ba0:	e3a0104c 	mov	r1, #76	; 0x4c

00001ba4 <l1643>:
    1ba4:	911d60b1 	ldrhls	r6, [sp, -r1]

00001ba8 <l1644>:
    1ba8:	e3a0b016 	mov	fp, #22

00001bac <l1645>:
    1bac:	e10db0bb 	strh	fp, [sp, -fp]

00001bb0 <l1646>:
    1bb0:	e3a01038 	mov	r1, #56	; 0x38

00001bb4 <l1647>:
    1bb4:	e11d70f1 	ldrsh	r7, [sp, -r1]

00001bb8 <l1648>:
    1bb8:	e3a0202a 	mov	r2, #42	; 0x2a

00001bbc <l1649>:
    1bbc:	e10d40b2 	strh	r4, [sp, -r2]

00001bc0 <l1650>:
    1bc0:	e3a0e030 	mov	lr, #48	; 0x30

00001bc4 <l1651>:
    1bc4:	e11d30fe 	ldrsh	r3, [sp, -lr]

00001bc8 <l1652>:
    1bc8:	e3a0901a 	mov	r9, #26

00001bcc <l1653>:
    1bcc:	c11d70f9 	ldrshgt	r7, [sp, -r9]

00001bd0 <l1654>:
    1bd0:	e15db2b6 	ldrh	fp, [sp, #-38]	; 0xffffffda

00001bd4 <l1655>:
    1bd4:	e3a07026 	mov	r7, #38	; 0x26

00001bd8 <l1656>:
    1bd8:	e10d30b7 	strh	r3, [sp, -r7]

00001bdc <l1657>:
    1bdc:	e15da0df 	ldrsb	sl, [sp, #-15]

00001be0 <l1658>:
    1be0:	a15db2d2 	ldrsbge	fp, [sp, #-34]	; 0xffffffde

00001be4 <l1659>:
    1be4:	e3a0e04a 	mov	lr, #74	; 0x4a

00001be8 <l1660>:
    1be8:	e11de0be 	ldrh	lr, [sp, -lr]

00001bec <l1661>:
    1bec:	e3a0103e 	mov	r1, #62	; 0x3e

00001bf0 <l1662>:
    1bf0:	210d00b1 	strhcs	r0, [sp, -r1]

00001bf4 <l1663>:
    1bf4:	e3a02032 	mov	r2, #50	; 0x32

00001bf8 <l1664>:
    1bf8:	e10d10b2 	strh	r1, [sp, -r2]

00001bfc <l1665>:
    1bfc:	e3a00030 	mov	r0, #48	; 0x30

00001c00 <l1666>:
    1c00:	e10d30b0 	strh	r3, [sp, -r0]

00001c04 <l1667>:
    1c04:	e3a00022 	mov	r0, #34	; 0x22

00001c08 <l1668>:
    1c08:	011db0d0 	ldrsbeq	fp, [sp, -r0]

00001c0c <l1669>:
    1c0c:	d15db0b6 	ldrhle	fp, [sp, #-6]

00001c10 <l1670>:
    1c10:	e3a0203e 	mov	r2, #62	; 0x3e

00001c14 <l1671>:
    1c14:	e11d90b2 	ldrh	r9, [sp, -r2]

00001c18 <l1672>:
    1c18:	e3a04048 	mov	r4, #72	; 0x48

00001c1c <l1673>:
    1c1c:	111da0f4 	ldrshne	sl, [sp, -r4]

00001c20 <l1674>:
    1c20:	e15d94b8 	ldrh	r9, [sp, #-72]	; 0xffffffb8

00001c24 <l1675>:
    1c24:	e3a06026 	mov	r6, #38	; 0x26

00001c28 <l1676>:
    1c28:	510d30b6 	strhpl	r3, [sp, -r6]

00001c2c <l1677>:
    1c2c:	615db1fe 	ldrshvs	fp, [sp, #-30]	; 0xffffffe2

00001c30 <l1678>:
    1c30:	e15d63be 	ldrh	r6, [sp, #-62]	; 0xffffffc2

00001c34 <l1679>:
    1c34:	e3a08024 	mov	r8, #36	; 0x24

00001c38 <l1680>:
    1c38:	e10d00b8 	strh	r0, [sp, -r8]

00001c3c <l1681>:
    1c3c:	b15d61f6 	ldrshlt	r6, [sp, #-22]	; 0xffffffea

00001c40 <l1682>:
    1c40:	e15d23ba 	ldrh	r2, [sp, #-58]	; 0xffffffc6

00001c44 <l1683>:
    1c44:	115de3fe 	ldrshne	lr, [sp, #-62]	; 0xffffffc2

00001c48 <l1684>:
    1c48:	e3a0b008 	mov	fp, #8

00001c4c <l1685>:
    1c4c:	b10d10bb 	strhlt	r1, [sp, -fp]

00001c50 <l1686>:
    1c50:	415de1bc 	ldrhmi	lr, [sp, #-28]	; 0xffffffe4

00001c54 <l1687>:
    1c54:	e3a0800a 	mov	r8, #10

00001c58 <l1688>:
    1c58:	e11d70d8 	ldrsb	r7, [sp, -r8]

00001c5c <l1689>:
    1c5c:	415d84f0 	ldrshmi	r8, [sp, #-64]	; 0xffffffc0

00001c60 <l1690>:
    1c60:	814d34b0 	strhhi	r3, [sp, #-64]	; 0xffffffc0

00001c64 <l1691>:
    1c64:	e3a0b01a 	mov	fp, #26

00001c68 <l1692>:
    1c68:	e11db0bb 	ldrh	fp, [sp, -fp]

00001c6c <l1693>:
    1c6c:	e3a0e038 	mov	lr, #56	; 0x38

00001c70 <l1694>:
    1c70:	711d80be 	ldrhvc	r8, [sp, -lr]

00001c74 <l1695>:
    1c74:	e3a0e036 	mov	lr, #54	; 0x36

00001c78 <l1696>:
    1c78:	211d70fe 	ldrshcs	r7, [sp, -lr]

00001c7c <l1697>:
    1c7c:	e3a0900e 	mov	r9, #14

00001c80 <l1698>:
    1c80:	010d70b9 	strheq	r7, [sp, -r9]

00001c84 <l1699>:
    1c84:	e3a0e014 	mov	lr, #20

00001c88 <l1700>:
    1c88:	411d10be 	ldrhmi	r1, [sp, -lr]

00001c8c <l1701>:
    1c8c:	815d50f8 	ldrshhi	r5, [sp, #-8]

00001c90 <l1702>:
    1c90:	e3a0b028 	mov	fp, #40	; 0x28

00001c94 <l1703>:
    1c94:	a11d00fb 	ldrshge	r0, [sp, -fp]

00001c98 <l1704>:
    1c98:	e15db0d5 	ldrsb	fp, [sp, #-5]

00001c9c <l1705>:
    1c9c:	e3a00018 	mov	r0, #24

00001ca0 <l1706>:
    1ca0:	e11d20b0 	ldrh	r2, [sp, -r0]

00001ca4 <l1707>:
    1ca4:	e3a0003a 	mov	r0, #58	; 0x3a

00001ca8 <l1708>:
    1ca8:	011d70b0 	ldrheq	r7, [sp, -r0]

00001cac <l1709>:
    1cac:	815d04ba 	ldrhhi	r0, [sp, #-74]	; 0xffffffb6

00001cb0 <l1710>:
    1cb0:	e15d93fe 	ldrsh	r9, [sp, #-62]	; 0xffffffc2

00001cb4 <l1711>:
    1cb4:	e3a08012 	mov	r8, #18

00001cb8 <l1712>:
    1cb8:	010d20b8 	strheq	r2, [sp, -r8]

00001cbc <l1713>:
    1cbc:	115d10fe 	ldrshne	r1, [sp, #-14]

00001cc0 <l1714>:
    1cc0:	e3a0904c 	mov	r9, #76	; 0x4c

00001cc4 <l1715>:
    1cc4:	011d70d9 	ldrsbeq	r7, [sp, -r9]

00001cc8 <l1716>:
    1cc8:	415dc3b6 	ldrhmi	ip, [sp, #-54]	; 0xffffffca

00001ccc <l1717>:
    1ccc:	e3a06014 	mov	r6, #20

00001cd0 <l1718>:
    1cd0:	a11dc0f6 	ldrshge	ip, [sp, -r6]

00001cd4 <l1719>:
    1cd4:	e3a01028 	mov	r1, #40	; 0x28

00001cd8 <l1720>:
    1cd8:	a10d60b1 	strhge	r6, [sp, -r1]

00001cdc <l1721>:
    1cdc:	e3a0603e 	mov	r6, #62	; 0x3e

00001ce0 <l1722>:
    1ce0:	011d70b6 	ldrheq	r7, [sp, -r6]

00001ce4 <l1723>:
    1ce4:	e3a04010 	mov	r4, #16

00001ce8 <l1724>:
    1ce8:	c10d20b4 	strhgt	r2, [sp, -r4]

00001cec <l1725>:
    1cec:	015d53d5 	ldrsbeq	r5, [sp, #-53]	; 0xffffffcb

00001cf0 <l1726>:
    1cf0:	015d61d5 	ldrsbeq	r6, [sp, #-21]	; 0xffffffeb

00001cf4 <l1727>:
    1cf4:	115d02dc 	ldrsbne	r0, [sp, #-44]	; 0xffffffd4

00001cf8 <l1728>:
    1cf8:	e3a0c042 	mov	ip, #66	; 0x42

00001cfc <l1729>:
    1cfc:	e10d50bc 	strh	r5, [sp, -ip]

00001d00 <l1730>:
    1d00:	114d91bc 	strhne	r9, [sp, #-28]	; 0xffffffe4

00001d04 <l1731>:
    1d04:	e15d02fc 	ldrsh	r0, [sp, #-44]	; 0xffffffd4

00001d08 <l1732>:
    1d08:	e15d62d4 	ldrsb	r6, [sp, #-36]	; 0xffffffdc

00001d0c <l1733>:
    1d0c:	e15dc1b2 	ldrh	ip, [sp, #-18]	; 0xffffffee

00001d10 <l1734>:
    1d10:	e15d22d0 	ldrsb	r2, [sp, #-32]	; 0xffffffe0

00001d14 <l1735>:
    1d14:	e15d00da 	ldrsb	r0, [sp, #-10]

00001d18 <l1736>:
    1d18:	e3a0b026 	mov	fp, #38	; 0x26

00001d1c <l1737>:
    1d1c:	811de0fb 	ldrshhi	lr, [sp, -fp]

00001d20 <l1738>:
    1d20:	e14d65b0 	strh	r6, [sp, #-80]	; 0xffffffb0

00001d24 <l1739>:
    1d24:	e3a0b014 	mov	fp, #20

00001d28 <l1740>:
    1d28:	e11d70bb 	ldrh	r7, [sp, -fp]

00001d2c <l1741>:
    1d2c:	e3a04026 	mov	r4, #38	; 0x26

00001d30 <l1742>:
    1d30:	e11d00f4 	ldrsh	r0, [sp, -r4]

00001d34 <l1743>:
    1d34:	e3a05011 	mov	r5, #17

00001d38 <l1744>:
    1d38:	811dc0d5 	ldrsbhi	ip, [sp, -r5]

00001d3c <l1745>:
    1d3c:	e3a03008 	mov	r3, #8

00001d40 <l1746>:
    1d40:	110d10b3 	strhne	r1, [sp, -r3]

00001d44 <l1747>:
    1d44:	e3a0c00f 	mov	ip, #15

00001d48 <l1748>:
    1d48:	e11db0dc 	ldrsb	fp, [sp, -ip]

00001d4c <l1749>:
    1d4c:	e15db4fa 	ldrsh	fp, [sp, #-74]	; 0xffffffb6

00001d50 <l1750>:
    1d50:	a15d30be 	ldrhge	r3, [sp, #-14]

00001d54 <l1751>:
    1d54:	e3a04037 	mov	r4, #55	; 0x37

00001d58 <l1752>:
    1d58:	e11d70d4 	ldrsb	r7, [sp, -r4]

00001d5c <l1753>:
    1d5c:	e14d43b4 	strh	r4, [sp, #-52]	; 0xffffffcc

00001d60 <l1754>:
    1d60:	515db4b0 	ldrhpl	fp, [sp, #-64]	; 0xffffffc0

00001d64 <l1755>:
    1d64:	e15d74b4 	ldrh	r7, [sp, #-68]	; 0xffffffbc

00001d68 <l1756>:
    1d68:	e3a03030 	mov	r3, #48	; 0x30

00001d6c <l1757>:
    1d6c:	b10d30b3 	strhlt	r3, [sp, -r3]

00001d70 <l1758>:
    1d70:	e15da2ba 	ldrh	sl, [sp, #-42]	; 0xffffffd6

00001d74 <l1759>:
    1d74:	e3a0b020 	mov	fp, #32

00001d78 <l1760>:
    1d78:	e10d90bb 	strh	r9, [sp, -fp]

00001d7c <l1761>:
    1d7c:	b15db1bc 	ldrhlt	fp, [sp, #-28]	; 0xffffffe4

00001d80 <l1762>:
    1d80:	e15da1f0 	ldrsh	sl, [sp, #-16]

00001d84 <l1763>:
    1d84:	a14dc3b4 	strhge	ip, [sp, #-52]	; 0xffffffcc

00001d88 <l1764>:
    1d88:	e3a0300e 	mov	r3, #14

00001d8c <l1765>:
    1d8c:	d11de0d3 	ldrsble	lr, [sp, -r3]

00001d90 <l1766>:
    1d90:	e3a09044 	mov	r9, #68	; 0x44

00001d94 <l1767>:
    1d94:	811d00f9 	ldrshhi	r0, [sp, -r9]

00001d98 <l1768>:
    1d98:	815d32f6 	ldrshhi	r3, [sp, #-38]	; 0xffffffda

00001d9c <l1769>:
    1d9c:	e15d53d9 	ldrsb	r5, [sp, #-57]	; 0xffffffc7

00001da0 <l1770>:
    1da0:	e15d50df 	ldrsb	r5, [sp, #-15]

00001da4 <l1771>:
    1da4:	e3a0b032 	mov	fp, #50	; 0x32

00001da8 <l1772>:
    1da8:	e10d90bb 	strh	r9, [sp, -fp]

00001dac <l1773>:
    1dac:	e3a07034 	mov	r7, #52	; 0x34

00001db0 <l1774>:
    1db0:	e11d10b7 	ldrh	r1, [sp, -r7]

00001db4 <l1775>:
    1db4:	e15d54b4 	ldrh	r5, [sp, #-68]	; 0xffffffbc

00001db8 <l1776>:
    1db8:	e15da2b8 	ldrh	sl, [sp, #-40]	; 0xffffffd8

00001dbc <l1777>:
    1dbc:	814dc4b2 	strhhi	ip, [sp, #-66]	; 0xffffffbe

00001dc0 <l1778>:
    1dc0:	e3a0502b 	mov	r5, #43	; 0x2b

00001dc4 <l1779>:
    1dc4:	d11db0d5 	ldrsble	fp, [sp, -r5]

00001dc8 <l1780>:
    1dc8:	e3a0601a 	mov	r6, #26

00001dcc <l1781>:
    1dcc:	011da0f6 	ldrsheq	sl, [sp, -r6]

00001dd0 <l1782>:
    1dd0:	e3a01033 	mov	r1, #51	; 0x33

00001dd4 <l1783>:
    1dd4:	e11d90d1 	ldrsb	r9, [sp, -r1]

00001dd8 <l1784>:
    1dd8:	515d84b6 	ldrhpl	r8, [sp, #-70]	; 0xffffffba

00001ddc <l1785>:
    1ddc:	e3a04018 	mov	r4, #24

00001de0 <l1786>:
    1de0:	e10dc0b4 	strh	ip, [sp, -r4]

00001de4 <l1787>:
    1de4:	e3a00016 	mov	r0, #22

00001de8 <l1788>:
    1de8:	011d40d0 	ldrsbeq	r4, [sp, -r0]

00001dec <l1789>:
    1dec:	e3a0e030 	mov	lr, #48	; 0x30

00001df0 <l1790>:
    1df0:	e10db0be 	strh	fp, [sp, -lr]

00001df4 <l1791>:
    1df4:	e3a0601e 	mov	r6, #30

00001df8 <l1792>:
    1df8:	a10d00b6 	strhge	r0, [sp, -r6]

00001dfc <l1793>:
    1dfc:	715dc4f4 	ldrshvc	ip, [sp, #-68]	; 0xffffffbc

00001e00 <l1794>:
    1e00:	e3a0403a 	mov	r4, #58	; 0x3a

00001e04 <l1795>:
    1e04:	e11d80d4 	ldrsb	r8, [sp, -r4]

00001e08 <l1796>:
    1e08:	115d41d1 	ldrsbne	r4, [sp, #-17]	; 0xffffffef

00001e0c <l1797>:
    1e0c:	a15d30bc 	ldrhge	r3, [sp, #-12]

00001e10 <l1798>:
    1e10:	e15d02d0 	ldrsb	r0, [sp, #-32]	; 0xffffffe0

00001e14 <l1799>:
    1e14:	e3a04032 	mov	r4, #50	; 0x32

00001e18 <l1800>:
    1e18:	d10d00b4 	strhle	r0, [sp, -r4]

00001e1c <l1801>:
    1e1c:	e15d41f2 	ldrsh	r4, [sp, #-18]	; 0xffffffee

00001e20 <l1802>:
    1e20:	e14da5b0 	strh	sl, [sp, #-80]	; 0xffffffb0

00001e24 <l1803>:
    1e24:	415da3d8 	ldrsbmi	sl, [sp, #-56]	; 0xffffffc8

00001e28 <l1804>:
    1e28:	e3a01048 	mov	r1, #72	; 0x48

00001e2c <l1805>:
    1e2c:	910db0b1 	strhls	fp, [sp, -r1]

00001e30 <l1806>:
    1e30:	e3a0c01c 	mov	ip, #28

00001e34 <l1807>:
    1e34:	e11da0bc 	ldrh	sl, [sp, -ip]

00001e38 <l1808>:
    1e38:	415de2d2 	ldrsbmi	lr, [sp, #-34]	; 0xffffffde

00001e3c <l1809>:
    1e3c:	a15d72fa 	ldrshge	r7, [sp, #-42]	; 0xffffffd6

00001e40 <l1810>:
    1e40:	515d83f4 	ldrshpl	r8, [sp, #-52]	; 0xffffffcc

00001e44 <l1811>:
    1e44:	e3a0901c 	mov	r9, #28

00001e48 <l1812>:
    1e48:	e10d40b9 	strh	r4, [sp, -r9]

00001e4c <l1813>:
    1e4c:	e3a0c050 	mov	ip, #80	; 0x50

00001e50 <l1814>:
    1e50:	311de0fc 	ldrshcc	lr, [sp, -ip]

00001e54 <l1815>:
    1e54:	e3a00034 	mov	r0, #52	; 0x34

00001e58 <l1816>:
    1e58:	711dc0d0 	ldrsbvc	ip, [sp, -r0]

00001e5c <l1817>:
    1e5c:	e3a0c02c 	mov	ip, #44	; 0x2c

00001e60 <l1818>:
    1e60:	310de0bc 	strhcc	lr, [sp, -ip]

00001e64 <l1819>:
    1e64:	e3a02028 	mov	r2, #40	; 0x28

00001e68 <l1820>:
    1e68:	e10d70b2 	strh	r7, [sp, -r2]

00001e6c <l1821>:
    1e6c:	e15d30fc 	ldrsh	r3, [sp, #-12]

00001e70 <l1822>:
    1e70:	e3a01046 	mov	r1, #70	; 0x46

00001e74 <l1823>:
    1e74:	e10dc0b1 	strh	ip, [sp, -r1]

00001e78 <l1824>:
    1e78:	e3a04034 	mov	r4, #52	; 0x34

00001e7c <l1825>:
    1e7c:	e11d10f4 	ldrsh	r1, [sp, -r4]

00001e80 <l1826>:
    1e80:	b15dc4d6 	ldrsblt	ip, [sp, #-70]	; 0xffffffba

00001e84 <l1827>:
    1e84:	e3a05042 	mov	r5, #66	; 0x42

00001e88 <l1828>:
    1e88:	311d20f5 	ldrshcc	r2, [sp, -r5]

00001e8c <l1829>:
    1e8c:	e3a00014 	mov	r0, #20

00001e90 <l1830>:
    1e90:	b11d20d0 	ldrsblt	r2, [sp, -r0]

00001e94 <l1831>:
    1e94:	e3a0902e 	mov	r9, #46	; 0x2e

00001e98 <l1832>:
    1e98:	411d50f9 	ldrshmi	r5, [sp, -r9]

00001e9c <l1833>:
    1e9c:	e15d43f4 	ldrsh	r4, [sp, #-52]	; 0xffffffcc

00001ea0 <l1834>:
    1ea0:	e15de1f4 	ldrsh	lr, [sp, #-20]	; 0xffffffec

00001ea4 <l1835>:
    1ea4:	314d72bc 	strhcc	r7, [sp, #-44]	; 0xffffffd4

00001ea8 <l1836>:
    1ea8:	514d22be 	strhpl	r2, [sp, #-46]	; 0xffffffd2

00001eac <l1837>:
    1eac:	915d84da 	ldrsbls	r8, [sp, #-74]	; 0xffffffb6

00001eb0 <l1838>:
    1eb0:	314d01b0 	strhcc	r0, [sp, #-16]

00001eb4 <l1839>:
    1eb4:	e3a0902e 	mov	r9, #46	; 0x2e

00001eb8 <l1840>:
    1eb8:	211d20f9 	ldrshcs	r2, [sp, -r9]

00001ebc <l1841>:
    1ebc:	e14d64b4 	strh	r6, [sp, #-68]	; 0xffffffbc

00001ec0 <l1842>:
    1ec0:	e15dc4f8 	ldrsh	ip, [sp, #-72]	; 0xffffffb8

00001ec4 <l1843>:
    1ec4:	314db1b4 	strhcc	fp, [sp, #-20]	; 0xffffffec

00001ec8 <l1844>:
    1ec8:	415d10de 	ldrsbmi	r1, [sp, #-14]

00001ecc <l1845>:
    1ecc:	e3a08028 	mov	r8, #40	; 0x28

00001ed0 <l1846>:
    1ed0:	e11da0b8 	ldrh	sl, [sp, -r8]

00001ed4 <l1847>:
    1ed4:	e14d54b8 	strh	r5, [sp, #-72]	; 0xffffffb8

00001ed8 <l1848>:
    1ed8:	e3a08040 	mov	r8, #64	; 0x40

00001edc <l1849>:
    1edc:	e10dc0b8 	strh	ip, [sp, -r8]

00001ee0 <l1850>:
    1ee0:	e15d30d7 	ldrsb	r3, [sp, #-7]

00001ee4 <l1851>:
    1ee4:	e3a0c03e 	mov	ip, #62	; 0x3e

00001ee8 <l1852>:
    1ee8:	310d50bc 	strhcc	r5, [sp, -ip]

00001eec <l1853>:
    1eec:	e15dc0f8 	ldrsh	ip, [sp, #-8]

00001ef0 <l1854>:
    1ef0:	e3a02020 	mov	r2, #32

00001ef4 <l1855>:
    1ef4:	a10d40b2 	strhge	r4, [sp, -r2]

00001ef8 <l1856>:
    1ef8:	d15d61d2 	ldrsble	r6, [sp, #-18]	; 0xffffffee

00001efc <l1857>:
    1efc:	e15d61fc 	ldrsh	r6, [sp, #-28]	; 0xffffffe4

00001f00 <l1858>:
    1f00:	615da2f0 	ldrshvs	sl, [sp, #-32]	; 0xffffffe0

00001f04 <l1859>:
    1f04:	e3a01038 	mov	r1, #56	; 0x38

00001f08 <l1860>:
    1f08:	a11d50b1 	ldrhge	r5, [sp, -r1]

00001f0c <l1861>:
    1f0c:	615d82b8 	ldrhvs	r8, [sp, #-40]	; 0xffffffd8

00001f10 <l1862>:
    1f10:	e3a08039 	mov	r8, #57	; 0x39

00001f14 <l1863>:
    1f14:	011de0d8 	ldrsbeq	lr, [sp, -r8]

00001f18 <l1864>:
    1f18:	015d01dc 	ldrsbeq	r0, [sp, #-28]	; 0xffffffe4

00001f1c <l1865>:
    1f1c:	e3a06032 	mov	r6, #50	; 0x32

00001f20 <l1866>:
    1f20:	610d90b6 	strhvs	r9, [sp, -r6]

00001f24 <l1867>:
    1f24:	e15de3da 	ldrsb	lr, [sp, #-58]	; 0xffffffc6

00001f28 <l1868>:
    1f28:	914d74b2 	strhls	r7, [sp, #-66]	; 0xffffffbe

00001f2c <l1869>:
    1f2c:	e3a05022 	mov	r5, #34	; 0x22

00001f30 <l1870>:
    1f30:	011d70d5 	ldrsbeq	r7, [sp, -r5]

00001f34 <l1871>:
    1f34:	e15d93d0 	ldrsb	r9, [sp, #-48]	; 0xffffffd0

00001f38 <l1872>:
    1f38:	e3a0403a 	mov	r4, #58	; 0x3a

00001f3c <l1873>:
    1f3c:	e11d40d4 	ldrsb	r4, [sp, -r4]

00001f40 <l1874>:
    1f40:	e3a02026 	mov	r2, #38	; 0x26

00001f44 <l1875>:
    1f44:	e11db0b2 	ldrh	fp, [sp, -r2]

00001f48 <l1876>:
    1f48:	c15d34b0 	ldrhgt	r3, [sp, #-64]	; 0xffffffc0

00001f4c <l1877>:
    1f4c:	815de2b4 	ldrhhi	lr, [sp, #-36]	; 0xffffffdc

00001f50 <l1878>:
    1f50:	715de2f0 	ldrshvc	lr, [sp, #-32]	; 0xffffffe0

00001f54 <l1879>:
    1f54:	e3a0b04f 	mov	fp, #79	; 0x4f

00001f58 <l1880>:
    1f58:	d11d80db 	ldrsble	r8, [sp, -fp]

00001f5c <l1881>:
    1f5c:	e14d20ba 	strh	r2, [sp, #-10]

00001f60 <l1882>:
    1f60:	e3a02012 	mov	r2, #18

00001f64 <l1883>:
    1f64:	211de0b2 	ldrhcs	lr, [sp, -r2]

00001f68 <l1884>:
    1f68:	e15d81f4 	ldrsh	r8, [sp, #-20]	; 0xffffffec

00001f6c <l1885>:
    1f6c:	e3a0601c 	mov	r6, #28

00001f70 <l1886>:
    1f70:	e11d50b6 	ldrh	r5, [sp, -r6]

00001f74 <l1887>:
    1f74:	e15d71d5 	ldrsb	r7, [sp, #-21]	; 0xffffffeb

00001f78 <l1888>:
    1f78:	e3a06015 	mov	r6, #21

00001f7c <l1889>:
    1f7c:	d11d90d6 	ldrsble	r9, [sp, -r6]

00001f80 <l1890>:
    1f80:	e14d22bc 	strh	r2, [sp, #-44]	; 0xffffffd4

00001f84 <l1891>:
    1f84:	e15d12d5 	ldrsb	r1, [sp, #-37]	; 0xffffffdb

00001f88 <l1892>:
    1f88:	e15db4d3 	ldrsb	fp, [sp, #-67]	; 0xffffffbd

00001f8c <l1893>:
    1f8c:	e15de1b8 	ldrh	lr, [sp, #-24]	; 0xffffffe8

00001f90 <l1894>:
    1f90:	e3a0001c 	mov	r0, #28

00001f94 <l1895>:
    1f94:	711d50f0 	ldrshvc	r5, [sp, -r0]

00001f98 <l1896>:
    1f98:	e3a0b020 	mov	fp, #32

00001f9c <l1897>:
    1f9c:	211da0db 	ldrsbcs	sl, [sp, -fp]

00001fa0 <l1898>:
    1fa0:	e3a0e046 	mov	lr, #70	; 0x46

00001fa4 <l1899>:
    1fa4:	211d50be 	ldrhcs	r5, [sp, -lr]

00001fa8 <l1900>:
    1fa8:	e3a07012 	mov	r7, #18

00001fac <l1901>:
    1fac:	111d20d7 	ldrsbne	r2, [sp, -r7]

00001fb0 <l1902>:
    1fb0:	214dc1b4 	strhcs	ip, [sp, #-20]	; 0xffffffec

00001fb4 <l1903>:
    1fb4:	e3a0600e 	mov	r6, #14

00001fb8 <l1904>:
    1fb8:	e11d30f6 	ldrsh	r3, [sp, -r6]

00001fbc <l1905>:
    1fbc:	e3a07028 	mov	r7, #40	; 0x28

00001fc0 <l1906>:
    1fc0:	011de0d7 	ldrsbeq	lr, [sp, -r7]

00001fc4 <l1907>:
    1fc4:	414d62b2 	strhmi	r6, [sp, #-34]	; 0xffffffde

00001fc8 <l1908>:
    1fc8:	615d71fe 	ldrshvs	r7, [sp, #-30]	; 0xffffffe2

00001fcc <l1909>:
    1fcc:	e3a0901c 	mov	r9, #28

00001fd0 <l1910>:
    1fd0:	711d20b9 	ldrhvc	r2, [sp, -r9]

00001fd4 <l1911>:
    1fd4:	e3a07010 	mov	r7, #16

00001fd8 <l1912>:
    1fd8:	e11d60f7 	ldrsh	r6, [sp, -r7]

00001fdc <l1913>:
    1fdc:	715d03f8 	ldrshvc	r0, [sp, #-56]	; 0xffffffc8

00001fe0 <l1914>:
    1fe0:	e3a04036 	mov	r4, #54	; 0x36

00001fe4 <l1915>:
    1fe4:	e10d30b4 	strh	r3, [sp, -r4]

00001fe8 <l1916>:
    1fe8:	e3a01026 	mov	r1, #38	; 0x26

00001fec <l1917>:
    1fec:	c11dc0f1 	ldrshgt	ip, [sp, -r1]

00001ff0 <l1918>:
    1ff0:	e3a0a00d 	mov	sl, #13

00001ff4 <l1919>:
    1ff4:	e11db0da 	ldrsb	fp, [sp, -sl]

00001ff8 <l1920>:
    1ff8:	814d54b8 	strhhi	r5, [sp, #-72]	; 0xffffffb8

00001ffc <l1921>:
    1ffc:	e3a0b034 	mov	fp, #52	; 0x34

00002000 <l1922>:
    2000:	e11d00bb 	ldrh	r0, [sp, -fp]

00002004 <l1923>:
    2004:	e3a06028 	mov	r6, #40	; 0x28

00002008 <l1924>:
    2008:	d10d90b6 	strhle	r9, [sp, -r6]

0000200c <l1925>:
    200c:	e14d71b4 	strh	r7, [sp, #-20]	; 0xffffffec

00002010 <l1926>:
    2010:	e15da1f0 	ldrsh	sl, [sp, #-16]

00002014 <l1927>:
    2014:	e3a0401b 	mov	r4, #27

00002018 <l1928>:
    2018:	b11d30d4 	ldrsblt	r3, [sp, -r4]

0000201c <l1929>:
    201c:	415d53d8 	ldrsbmi	r5, [sp, #-56]	; 0xffffffc8

00002020 <l1930>:
    2020:	b14d92ba 	strhlt	r9, [sp, #-42]	; 0xffffffd6

00002024 <l1931>:
    2024:	e3a06014 	mov	r6, #20

00002028 <l1932>:
    2028:	e11d80f6 	ldrsh	r8, [sp, -r6]

0000202c <l1933>:
    202c:	615d62f0 	ldrshvs	r6, [sp, #-32]	; 0xffffffe0

00002030 <l1934>:
    2030:	e3a03018 	mov	r3, #24

00002034 <l1935>:
    2034:	e11d30b3 	ldrh	r3, [sp, -r3]

00002038 <l1936>:
    2038:	e3a0801a 	mov	r8, #26

0000203c <l1937>:
    203c:	311d10f8 	ldrshcc	r1, [sp, -r8]

00002040 <l1938>:
    2040:	e3a06020 	mov	r6, #32

00002044 <l1939>:
    2044:	211d80b6 	ldrhcs	r8, [sp, -r6]

00002048 <l1940>:
    2048:	e15dc2f0 	ldrsh	ip, [sp, #-32]	; 0xffffffe0

0000204c <l1941>:
    204c:	515d63b8 	ldrhpl	r6, [sp, #-56]	; 0xffffffc8

00002050 <l1942>:
    2050:	815d84ba 	ldrhhi	r8, [sp, #-74]	; 0xffffffb6

00002054 <l1943>:
    2054:	e15d14fc 	ldrsh	r1, [sp, #-76]	; 0xffffffb4

00002058 <l1944>:
    2058:	b14d11ba 	strhlt	r1, [sp, #-26]	; 0xffffffe6

0000205c <l1945>:
    205c:	e15dc1fc 	ldrsh	ip, [sp, #-28]	; 0xffffffe4

00002060 <l1946>:
    2060:	e3a0b039 	mov	fp, #57	; 0x39

00002064 <l1947>:
    2064:	e11da0db 	ldrsb	sl, [sp, -fp]

00002068 <l1948>:
    2068:	e3a02040 	mov	r2, #64	; 0x40

0000206c <l1949>:
    206c:	e11d10f2 	ldrsh	r1, [sp, -r2]

00002070 <l1950>:
    2070:	e3a0701c 	mov	r7, #28

00002074 <l1951>:
    2074:	e10db0b7 	strh	fp, [sp, -r7]

00002078 <l1952>:
    2078:	e15dc2b2 	ldrh	ip, [sp, #-34]	; 0xffffffde

0000207c <l1953>:
    207c:	a14d40ba 	strhge	r4, [sp, #-10]

00002080 <l1954>:
    2080:	315d31fe 	ldrshcc	r3, [sp, #-30]	; 0xffffffe2

00002084 <l1955>:
    2084:	e3a09036 	mov	r9, #54	; 0x36

00002088 <l1956>:
    2088:	e11d00f9 	ldrsh	r0, [sp, -r9]

0000208c <l1957>:
    208c:	e3a0a03a 	mov	sl, #58	; 0x3a

00002090 <l1958>:
    2090:	e11d30ba 	ldrh	r3, [sp, -sl]

00002094 <l1959>:
    2094:	514d54b0 	strhpl	r5, [sp, #-64]	; 0xffffffc0

00002098 <l1960>:
    2098:	e3a05008 	mov	r5, #8

0000209c <l1961>:
    209c:	510d70b5 	strhpl	r7, [sp, -r5]

000020a0 <l1962>:
    20a0:	e3a07022 	mov	r7, #34	; 0x22

000020a4 <l1963>:
    20a4:	411d80f7 	ldrshmi	r8, [sp, -r7]

000020a8 <l1964>:
    20a8:	214d81be 	strhcs	r8, [sp, #-30]	; 0xffffffe2

000020ac <l1965>:
    20ac:	515dc1fc 	ldrshpl	ip, [sp, #-28]	; 0xffffffe4

000020b0 <l1966>:
    20b0:	815d92be 	ldrhhi	r9, [sp, #-46]	; 0xffffffd2

000020b4 <l1967>:
    20b4:	e15d52be 	ldrh	r5, [sp, #-46]	; 0xffffffd2

000020b8 <l1968>:
    20b8:	e3a06042 	mov	r6, #66	; 0x42

000020bc <l1969>:
    20bc:	e10da0b6 	strh	sl, [sp, -r6]

000020c0 <l1970>:
    20c0:	e3a03030 	mov	r3, #48	; 0x30

000020c4 <l1971>:
    20c4:	211d50b3 	ldrhcs	r5, [sp, -r3]

000020c8 <l1972>:
    20c8:	e3a0400c 	mov	r4, #12

000020cc <l1973>:
    20cc:	811d90d4 	ldrsbhi	r9, [sp, -r4]

000020d0 <l1974>:
    20d0:	e3a0a012 	mov	sl, #18

000020d4 <l1975>:
    20d4:	410da0ba 	strhmi	sl, [sp, -sl]

000020d8 <l1976>:
    20d8:	e3a04024 	mov	r4, #36	; 0x24

000020dc <l1977>:
    20dc:	d10da0b4 	strhle	sl, [sp, -r4]

000020e0 <l1978>:
    20e0:	e15dc3d9 	ldrsb	ip, [sp, #-57]	; 0xffffffc7

000020e4 <l1979>:
    20e4:	915da1f8 	ldrshls	sl, [sp, #-24]	; 0xffffffe8

000020e8 <l1980>:
    20e8:	e3a0e04c 	mov	lr, #76	; 0x4c

000020ec <l1981>:
    20ec:	e11de0de 	ldrsb	lr, [sp, -lr]

000020f0 <l1982>:
    20f0:	e3a09019 	mov	r9, #25

000020f4 <l1983>:
    20f4:	e11db0d9 	ldrsb	fp, [sp, -r9]

000020f8 <l1984>:
    20f8:	e3a0e031 	mov	lr, #49	; 0x31

000020fc <l1985>:
    20fc:	911d50de 	ldrsbls	r5, [sp, -lr]

00002100 <l1986>:
    2100:	e14d52b6 	strh	r5, [sp, #-38]	; 0xffffffda

00002104 <l1987>:
    2104:	e3a0404c 	mov	r4, #76	; 0x4c

00002108 <l1988>:
    2108:	e10da0b4 	strh	sl, [sp, -r4]

0000210c <l1989>:
    210c:	b15d10b6 	ldrhlt	r1, [sp, #-6]

00002110 <l1990>:
    2110:	c15d02d3 	ldrsbgt	r0, [sp, #-35]	; 0xffffffdd

00002114 <l1991>:
    2114:	e3a03008 	mov	r3, #8

00002118 <l1992>:
    2118:	610de0b3 	strhvs	lr, [sp, -r3]

0000211c <l1993>:
    211c:	e3a07014 	mov	r7, #20

00002120 <l1994>:
    2120:	611d20b7 	ldrhvs	r2, [sp, -r7]

00002124 <l1995>:
    2124:	915db3d1 	ldrsbls	fp, [sp, #-49]	; 0xffffffcf

00002128 <l1996>:
    2128:	e3a09048 	mov	r9, #72	; 0x48

0000212c <l1997>:
    212c:	411db0b9 	ldrhmi	fp, [sp, -r9]

00002130 <l1998>:
    2130:	c14db0b8 	strhgt	fp, [sp, #-8]

00002134 <l1999>:
    2134:	515d50f6 	ldrshpl	r5, [sp, #-6]

00002138 <l2000>:
    2138:	e3a00038 	mov	r0, #56	; 0x38

0000213c <l2001>:
    213c:	c10db0b0 	strhgt	fp, [sp, -r0]

00002140 <l2002>:
    2140:	e15db0be 	ldrh	fp, [sp, #-14]

00002144 <l2003>:
    2144:	e3a0302a 	mov	r3, #42	; 0x2a

00002148 <l2004>:
    2148:	e10d70b3 	strh	r7, [sp, -r3]

0000214c <l2005>:
    214c:	915d52d3 	ldrsbls	r5, [sp, #-35]	; 0xffffffdd

00002150 <l2006>:
    2150:	e3a0500a 	mov	r5, #10

00002154 <l2007>:
    2154:	311d30f5 	ldrshcc	r3, [sp, -r5]

00002158 <l2008>:
    2158:	e15db4b2 	ldrh	fp, [sp, #-66]	; 0xffffffbe

0000215c <l2009>:
    215c:	e3a0403b 	mov	r4, #59	; 0x3b

00002160 <l2010>:
    2160:	811d30d4 	ldrsbhi	r3, [sp, -r4]

00002164 <l2011>:
    2164:	114dc2b6 	strhne	ip, [sp, #-38]	; 0xffffffda

00002168 <l2012>:
    2168:	c15d00be 	ldrhgt	r0, [sp, #-14]

0000216c <l2013>:
    216c:	e3a05036 	mov	r5, #54	; 0x36

00002170 <l2014>:
    2170:	e10d30b5 	strh	r3, [sp, -r5]

00002174 <l2015>:
    2174:	015d00df 	ldrsbeq	r0, [sp, #-15]

00002178 <l2016>:
    2178:	e15de3fc 	ldrsh	lr, [sp, #-60]	; 0xffffffc4

0000217c <l2017>:
    217c:	315d50f6 	ldrshcc	r5, [sp, #-6]

00002180 <l2018>:
    2180:	e3a0b00a 	mov	fp, #10

00002184 <l2019>:
    2184:	e10d10bb 	strh	r1, [sp, -fp]

00002188 <l2020>:
    2188:	e15d04bc 	ldrh	r0, [sp, #-76]	; 0xffffffb4

0000218c <l2021>:
    218c:	e3a0501e 	mov	r5, #30

00002190 <l2022>:
    2190:	e10d30b5 	strh	r3, [sp, -r5]

00002194 <l2023>:
    2194:	e3a0a012 	mov	sl, #18

00002198 <l2024>:
    2198:	e11d40ba 	ldrh	r4, [sp, -sl]

0000219c <l2025>:
    219c:	e3a0701a 	mov	r7, #26

000021a0 <l2026>:
    21a0:	610dc0b7 	strhvs	ip, [sp, -r7]

000021a4 <l2027>:
    21a4:	e3a05028 	mov	r5, #40	; 0x28

000021a8 <l2028>:
    21a8:	911d70b5 	ldrhls	r7, [sp, -r5]

000021ac <l2029>:
    21ac:	e3a04016 	mov	r4, #22

000021b0 <l2030>:
    21b0:	e11db0b4 	ldrh	fp, [sp, -r4]

000021b4 <l2031>:
    21b4:	e3a04016 	mov	r4, #22

000021b8 <l2032>:
    21b8:	e11db0b4 	ldrh	fp, [sp, -r4]

000021bc <l2033>:
    21bc:	e3a04026 	mov	r4, #38	; 0x26

000021c0 <l2034>:
    21c0:	511d50f4 	ldrshpl	r5, [sp, -r4]

000021c4 <l2035>:
    21c4:	d15d23be 	ldrhle	r2, [sp, #-62]	; 0xffffffc2

000021c8 <l2036>:
    21c8:	e3a0004f 	mov	r0, #79	; 0x4f

000021cc <l2037>:
    21cc:	e11d40d0 	ldrsb	r4, [sp, -r0]

000021d0 <l2038>:
    21d0:	d15d00bc 	ldrhle	r0, [sp, #-12]

000021d4 <l2039>:
    21d4:	e3a01044 	mov	r1, #68	; 0x44

000021d8 <l2040>:
    21d8:	e11d50f1 	ldrsh	r5, [sp, -r1]

000021dc <l2041>:
    21dc:	e14d04b4 	strh	r0, [sp, #-68]	; 0xffffffbc

000021e0 <l2042>:
    21e0:	415de1ba 	ldrhmi	lr, [sp, #-26]	; 0xffffffe6

000021e4 <l2043>:
    21e4:	e3a0703d 	mov	r7, #61	; 0x3d

000021e8 <l2044>:
    21e8:	511d20d7 	ldrsbpl	r2, [sp, -r7]

000021ec <l2045>:
    21ec:	e3a09039 	mov	r9, #57	; 0x39

000021f0 <l2046>:
    21f0:	e11d00d9 	ldrsb	r0, [sp, -r9]

000021f4 <l2047>:
    21f4:	e3a07036 	mov	r7, #54	; 0x36

000021f8 <l2048>:
    21f8:	b11d40f7 	ldrshlt	r4, [sp, -r7]

000021fc <l2049>:
    21fc:	e3a0b01e 	mov	fp, #30

00002200 <l2050>:
    2200:	e11d70bb 	ldrh	r7, [sp, -fp]

00002204 <l2051>:
    2204:	e3a01005 	mov	r1, #5

00002208 <l2052>:
    2208:	511de0d1 	ldrsbpl	lr, [sp, -r1]

0000220c <l2053>:
    220c:	e14d32b4 	strh	r3, [sp, #-36]	; 0xffffffdc

00002210 <l2054>:
    2210:	414da1b6 	strhmi	sl, [sp, #-22]	; 0xffffffea

00002214 <l2055>:
    2214:	e3a0404e 	mov	r4, #78	; 0x4e

00002218 <l2056>:
    2218:	510d10b4 	strhpl	r1, [sp, -r4]

0000221c <l2057>:
    221c:	e3a08008 	mov	r8, #8

00002220 <l2058>:
    2220:	e11db0d8 	ldrsb	fp, [sp, -r8]

00002224 <l2059>:
    2224:	e3a09044 	mov	r9, #68	; 0x44

00002228 <l2060>:
    2228:	111d30f9 	ldrshne	r3, [sp, -r9]

0000222c <l2061>:
    222c:	615d03b8 	ldrhvs	r0, [sp, #-56]	; 0xffffffc8

00002230 <l2062>:
    2230:	315d31fe 	ldrshcc	r3, [sp, #-30]	; 0xffffffe2

00002234 <l2063>:
    2234:	a15db0ba 	ldrhge	fp, [sp, #-10]

00002238 <l2064>:
    2238:	d15d90df 	ldrsble	r9, [sp, #-15]

0000223c <l2065>:
    223c:	e3a0e02c 	mov	lr, #44	; 0x2c

00002240 <l2066>:
    2240:	010d10be 	strheq	r1, [sp, -lr]

00002244 <l2067>:
    2244:	415d43b6 	ldrhmi	r4, [sp, #-54]	; 0xffffffca

00002248 <l2068>:
    2248:	515dc3f8 	ldrshpl	ip, [sp, #-56]	; 0xffffffc8

0000224c <l2069>:
    224c:	e3a00032 	mov	r0, #50	; 0x32

00002250 <l2070>:
    2250:	e11db0b0 	ldrh	fp, [sp, -r0]

00002254 <l2071>:
    2254:	a15d81df 	ldrsbge	r8, [sp, #-31]	; 0xffffffe1

00002258 <l2072>:
    2258:	e15d81d1 	ldrsb	r8, [sp, #-17]	; 0xffffffef

0000225c <l2073>:
    225c:	a15da0be 	ldrhge	sl, [sp, #-14]

00002260 <l2074>:
    2260:	e3a08028 	mov	r8, #40	; 0x28

00002264 <l2075>:
    2264:	310d60b8 	strhcc	r6, [sp, -r8]

00002268 <l2076>:
    2268:	e3a09028 	mov	r9, #40	; 0x28

0000226c <l2077>:
    226c:	311d60d9 	ldrsbcc	r6, [sp, -r9]

00002270 <l2078>:
    2270:	e14d90b6 	strh	r9, [sp, #-6]

00002274 <l2079>:
    2274:	e3a0c00e 	mov	ip, #14

00002278 <l2080>:
    2278:	811d30bc 	ldrhhi	r3, [sp, -ip]

0000227c <l2081>:
    227c:	e3a01025 	mov	r1, #37	; 0x25

00002280 <l2082>:
    2280:	e11d60d1 	ldrsb	r6, [sp, -r1]

00002284 <l2083>:
    2284:	515d63d1 	ldrsbpl	r6, [sp, #-49]	; 0xffffffcf

00002288 <l2084>:
    2288:	514d01b8 	strhpl	r0, [sp, #-24]	; 0xffffffe8

0000228c <l2085>:
    228c:	e3a0c019 	mov	ip, #25

00002290 <l2086>:
    2290:	e11db0dc 	ldrsb	fp, [sp, -ip]

00002294 <l2087>:
    2294:	e3a0e044 	mov	lr, #68	; 0x44

00002298 <l2088>:
    2298:	311d60de 	ldrsbcc	r6, [sp, -lr]

0000229c <l2089>:
    229c:	014dc4ba 	strheq	ip, [sp, #-74]	; 0xffffffb6

000022a0 <l2090>:
    22a0:	e15d71bc 	ldrh	r7, [sp, #-28]	; 0xffffffe4

000022a4 <l2091>:
    22a4:	514d41b4 	strhpl	r4, [sp, #-20]	; 0xffffffec

000022a8 <l2092>:
    22a8:	715da0dc 	ldrsbvc	sl, [sp, #-12]

000022ac <l2093>:
    22ac:	e3a0b020 	mov	fp, #32

000022b0 <l2094>:
    22b0:	710d40bb 	strhvc	r4, [sp, -fp]

000022b4 <l2095>:
    22b4:	e15d14b6 	ldrh	r1, [sp, #-70]	; 0xffffffba

000022b8 <l2096>:
    22b8:	815d63ba 	ldrhhi	r6, [sp, #-58]	; 0xffffffc6

000022bc <l2097>:
    22bc:	415d94b8 	ldrhmi	r9, [sp, #-72]	; 0xffffffb8

000022c0 <l2098>:
    22c0:	314d52ba 	strhcc	r5, [sp, #-42]	; 0xffffffd6

000022c4 <l2099>:
    22c4:	414d50bc 	strhmi	r5, [sp, #-12]

000022c8 <l2100>:
    22c8:	114da2b8 	strhne	sl, [sp, #-40]	; 0xffffffd8

000022cc <l2101>:
    22cc:	e14de3ba 	strh	lr, [sp, #-58]	; 0xffffffc6

000022d0 <l2102>:
    22d0:	e3a0803f 	mov	r8, #63	; 0x3f

000022d4 <l2103>:
    22d4:	e11d50d8 	ldrsb	r5, [sp, -r8]

000022d8 <l2104>:
    22d8:	015d50da 	ldrsbeq	r5, [sp, #-10]

000022dc <l2105>:
    22dc:	e3a0603e 	mov	r6, #62	; 0x3e

000022e0 <l2106>:
    22e0:	a10d60b6 	strhge	r6, [sp, -r6]

000022e4 <l2107>:
    22e4:	e3a06010 	mov	r6, #16

000022e8 <l2108>:
    22e8:	411d70f6 	ldrshmi	r7, [sp, -r6]

000022ec <l2109>:
    22ec:	e3a0b02a 	mov	fp, #42	; 0x2a

000022f0 <l2110>:
    22f0:	e11d20db 	ldrsb	r2, [sp, -fp]

000022f4 <l2111>:
    22f4:	615d12b0 	ldrhvs	r1, [sp, #-32]	; 0xffffffe0

000022f8 <l2112>:
    22f8:	e14d24b6 	strh	r2, [sp, #-70]	; 0xffffffba

000022fc <l2113>:
    22fc:	e3a02034 	mov	r2, #52	; 0x34

00002300 <l2114>:
    2300:	e11de0f2 	ldrsh	lr, [sp, -r2]

00002304 <l2115>:
    2304:	315d01f6 	ldrshcc	r0, [sp, #-22]	; 0xffffffea

00002308 <l2116>:
    2308:	e3a03047 	mov	r3, #71	; 0x47

0000230c <l2117>:
    230c:	e11d60d3 	ldrsb	r6, [sp, -r3]

00002310 <l2118>:
    2310:	e15d61f4 	ldrsh	r6, [sp, #-20]	; 0xffffffec

00002314 <l2119>:
    2314:	e3a0002c 	mov	r0, #44	; 0x2c

00002318 <l2120>:
    2318:	e11de0d0 	ldrsb	lr, [sp, -r0]

0000231c <l2121>:
    231c:	e15d61dd 	ldrsb	r6, [sp, #-29]	; 0xffffffe3

00002320 <l2122>:
    2320:	e3a09014 	mov	r9, #20

00002324 <l2123>:
    2324:	611d60f9 	ldrshvs	r6, [sp, -r9]

00002328 <l2124>:
    2328:	e14dc3b4 	strh	ip, [sp, #-52]	; 0xffffffcc

0000232c <l2125>:
    232c:	e3a0701e 	mov	r7, #30

00002330 <l2126>:
    2330:	811d20b7 	ldrhhi	r2, [sp, -r7]

00002334 <l2127>:
    2334:	c15d34f2 	ldrshgt	r3, [sp, #-66]	; 0xffffffbe

00002338 <l2128>:
    2338:	e3a03044 	mov	r3, #68	; 0x44

0000233c <l2129>:
    233c:	e11d70d3 	ldrsb	r7, [sp, -r3]

00002340 <l2130>:
    2340:	515dc2f0 	ldrshpl	ip, [sp, #-32]	; 0xffffffe0

00002344 <l2131>:
    2344:	e3a0203d 	mov	r2, #61	; 0x3d

00002348 <l2132>:
    2348:	611db0d2 	ldrsbvs	fp, [sp, -r2]

0000234c <l2133>:
    234c:	e3a00042 	mov	r0, #66	; 0x42

00002350 <l2134>:
    2350:	511d40b0 	ldrhpl	r4, [sp, -r0]

00002354 <l2135>:
    2354:	214d53b6 	strhcs	r5, [sp, #-54]	; 0xffffffca

00002358 <l2136>:
    2358:	e3a00015 	mov	r0, #21

0000235c <l2137>:
    235c:	e11d80d0 	ldrsb	r8, [sp, -r0]

00002360 <l2138>:
    2360:	e3a0600e 	mov	r6, #14

00002364 <l2139>:
    2364:	510d50b6 	strhpl	r5, [sp, -r6]

00002368 <l2140>:
    2368:	e15db1ba 	ldrh	fp, [sp, #-26]	; 0xffffffe6

0000236c <l2141>:
    236c:	315d74fc 	ldrshcc	r7, [sp, #-76]	; 0xffffffb4

00002370 <l2142>:
    2370:	e3a0104b 	mov	r1, #75	; 0x4b

00002374 <l2143>:
    2374:	e11d60d1 	ldrsb	r6, [sp, -r1]

00002378 <l2144>:
    2378:	314d94bc 	strhcc	r9, [sp, #-76]	; 0xffffffb4

0000237c <l2145>:
    237c:	315d50ba 	ldrhcc	r5, [sp, #-10]

00002380 <l2146>:
    2380:	e3a0e034 	mov	lr, #52	; 0x34

00002384 <l2147>:
    2384:	e11dc0be 	ldrh	ip, [sp, -lr]

00002388 <l2148>:
    2388:	e3a07010 	mov	r7, #16

0000238c <l2149>:
    238c:	810d00b7 	strhhi	r0, [sp, -r7]

00002390 <l2150>:
    2390:	e3a03030 	mov	r3, #48	; 0x30

00002394 <l2151>:
    2394:	d10d40b3 	strhle	r4, [sp, -r3]

00002398 <l2152>:
    2398:	e3a0a046 	mov	sl, #70	; 0x46

0000239c <l2153>:
    239c:	411d20fa 	ldrshmi	r2, [sp, -sl]

000023a0 <l2154>:
    23a0:	615d83b0 	ldrhvs	r8, [sp, #-48]	; 0xffffffd0

000023a4 <l2155>:
    23a4:	b15db3be 	ldrhlt	fp, [sp, #-62]	; 0xffffffc2

000023a8 <l2156>:
    23a8:	e3a0502c 	mov	r5, #44	; 0x2c

000023ac <l2157>:
    23ac:	e10d50b5 	strh	r5, [sp, -r5]

000023b0 <l2158>:
    23b0:	e3a09026 	mov	r9, #38	; 0x26

000023b4 <l2159>:
    23b4:	d11d10f9 	ldrshle	r1, [sp, -r9]

000023b8 <l2160>:
    23b8:	e3a07024 	mov	r7, #36	; 0x24

000023bc <l2161>:
    23bc:	d11d10b7 	ldrhle	r1, [sp, -r7]

000023c0 <l2162>:
    23c0:	314d71b0 	strhcc	r7, [sp, #-16]

000023c4 <l2163>:
    23c4:	e3a08021 	mov	r8, #33	; 0x21

000023c8 <l2164>:
    23c8:	111dc0d8 	ldrsbne	ip, [sp, -r8]

000023cc <l2165>:
    23cc:	e3a0500a 	mov	r5, #10

000023d0 <l2166>:
    23d0:	711da0b5 	ldrhvc	sl, [sp, -r5]

000023d4 <l2167>:
    23d4:	e3a00030 	mov	r0, #48	; 0x30

000023d8 <l2168>:
    23d8:	e11d40d0 	ldrsb	r4, [sp, -r0]

000023dc <l2169>:
    23dc:	e3a04036 	mov	r4, #54	; 0x36

000023e0 <l2170>:
    23e0:	411d10f4 	ldrshmi	r1, [sp, -r4]

000023e4 <l2171>:
    23e4:	e15d32fa 	ldrsh	r3, [sp, #-42]	; 0xffffffd6

000023e8 <l2172>:
    23e8:	415d74f4 	ldrshmi	r7, [sp, #-68]	; 0xffffffbc

000023ec <l2173>:
    23ec:	e3a0e03c 	mov	lr, #60	; 0x3c

000023f0 <l2174>:
    23f0:	c10d50be 	strhgt	r5, [sp, -lr]

000023f4 <l2175>:
    23f4:	d15d42d0 	ldrsble	r4, [sp, #-32]	; 0xffffffe0

000023f8 <l2176>:
    23f8:	615d94b8 	ldrhvs	r9, [sp, #-72]	; 0xffffffb8

000023fc <l2177>:
    23fc:	e14d70b8 	strh	r7, [sp, #-8]

00002400 <l2178>:
    2400:	e3a02044 	mov	r2, #68	; 0x44

00002404 <l2179>:
    2404:	e11d10f2 	ldrsh	r1, [sp, -r2]

00002408 <l2180>:
    2408:	e15d21ba 	ldrh	r2, [sp, #-26]	; 0xffffffe6

0000240c <l2181>:
    240c:	e3a0704a 	mov	r7, #74	; 0x4a

00002410 <l2182>:
    2410:	711d60f7 	ldrshvc	r6, [sp, -r7]

00002414 <l2183>:
    2414:	e15dc1b2 	ldrh	ip, [sp, #-18]	; 0xffffffee

00002418 <l2184>:
    2418:	215d42f4 	ldrshcs	r4, [sp, #-36]	; 0xffffffdc

0000241c <l2185>:
    241c:	715d64d7 	ldrsbvc	r6, [sp, #-71]	; 0xffffffb9

00002420 <l2186>:
    2420:	e3a0a034 	mov	sl, #52	; 0x34

00002424 <l2187>:
    2424:	211d30fa 	ldrshcs	r3, [sp, -sl]

00002428 <l2188>:
    2428:	c15da1f2 	ldrshgt	sl, [sp, #-18]	; 0xffffffee

0000242c <l2189>:
    242c:	915d31dd 	ldrsbls	r3, [sp, #-29]	; 0xffffffe3

00002430 <l2190>:
    2430:	e3a0003c 	mov	r0, #60	; 0x3c

00002434 <l2191>:
    2434:	e11db0b0 	ldrh	fp, [sp, -r0]

00002438 <l2192>:
    2438:	e3a06032 	mov	r6, #50	; 0x32

0000243c <l2193>:
    243c:	e11d90f6 	ldrsh	r9, [sp, -r6]

00002440 <l2194>:
    2440:	e3a01034 	mov	r1, #52	; 0x34

00002444 <l2195>:
    2444:	e10de0b1 	strh	lr, [sp, -r1]

00002448 <l2196>:
    2448:	e3a0e012 	mov	lr, #18

0000244c <l2197>:
    244c:	911d40fe 	ldrshls	r4, [sp, -lr]

00002450 <l2198>:
    2450:	e3a09018 	mov	r9, #24

00002454 <l2199>:
    2454:	c11db0d9 	ldrsbgt	fp, [sp, -r9]

00002458 <l2200>:
    2458:	215d90d5 	ldrsbcs	r9, [sp, #-5]

0000245c <l2201>:
    245c:	a15db4f0 	ldrshge	fp, [sp, #-64]	; 0xffffffc0

00002460 <l2202>:
    2460:	e15db3df 	ldrsb	fp, [sp, #-63]	; 0xffffffc1

00002464 <l2203>:
    2464:	e15d61f0 	ldrsh	r6, [sp, #-16]

00002468 <l2204>:
    2468:	b15d03f6 	ldrshlt	r0, [sp, #-54]	; 0xffffffca

0000246c <l2205>:
    246c:	e3a0101c 	mov	r1, #28

00002470 <l2206>:
    2470:	511d10d1 	ldrsbpl	r1, [sp, -r1]

00002474 <l2207>:
    2474:	e3a0b047 	mov	fp, #71	; 0x47

00002478 <l2208>:
    2478:	e11d50db 	ldrsb	r5, [sp, -fp]

0000247c <l2209>:
    247c:	715d24d4 	ldrsbvc	r2, [sp, #-68]	; 0xffffffbc

00002480 <l2210>:
    2480:	915d02d9 	ldrsbls	r0, [sp, #-41]	; 0xffffffd7

00002484 <l2211>:
    2484:	e15d21f2 	ldrsh	r2, [sp, #-18]	; 0xffffffee

00002488 <l2212>:
    2488:	e3a0602c 	mov	r6, #44	; 0x2c

0000248c <l2213>:
    248c:	111d00f6 	ldrshne	r0, [sp, -r6]

00002490 <l2214>:
    2490:	715d92da 	ldrsbvc	r9, [sp, #-42]	; 0xffffffd6

00002494 <l2215>:
    2494:	e3a07045 	mov	r7, #69	; 0x45

00002498 <l2216>:
    2498:	e11d70d7 	ldrsb	r7, [sp, -r7]

0000249c <l2217>:
    249c:	e15de4f2 	ldrsh	lr, [sp, #-66]	; 0xffffffbe

000024a0 <l2218>:
    24a0:	b15d82f8 	ldrshlt	r8, [sp, #-40]	; 0xffffffd8

000024a4 <l2219>:
    24a4:	e3a0802a 	mov	r8, #42	; 0x2a

000024a8 <l2220>:
    24a8:	211dc0b8 	ldrhcs	ip, [sp, -r8]

000024ac <l2221>:
    24ac:	e3a0804e 	mov	r8, #78	; 0x4e

000024b0 <l2222>:
    24b0:	111d60f8 	ldrshne	r6, [sp, -r8]

000024b4 <l2223>:
    24b4:	e3a0601a 	mov	r6, #26

000024b8 <l2224>:
    24b8:	e11d40d6 	ldrsb	r4, [sp, -r6]

000024bc <l2225>:
    24bc:	e3a0a038 	mov	sl, #56	; 0x38

000024c0 <l2226>:
    24c0:	111d60fa 	ldrshne	r6, [sp, -sl]

000024c4 <l2227>:
    24c4:	e3a0c034 	mov	ip, #52	; 0x34

000024c8 <l2228>:
    24c8:	711d30fc 	ldrshvc	r3, [sp, -ip]

000024cc <l2229>:
    24cc:	e3a0700c 	mov	r7, #12

000024d0 <l2230>:
    24d0:	411db0f7 	ldrshmi	fp, [sp, -r7]

000024d4 <l2231>:
    24d4:	e3a0e04a 	mov	lr, #74	; 0x4a

000024d8 <l2232>:
    24d8:	b10d10be 	strhlt	r1, [sp, -lr]

000024dc <l2233>:
    24dc:	b14de3b4 	strhlt	lr, [sp, #-52]	; 0xffffffcc

000024e0 <l2234>:
    24e0:	b15dc0fa 	ldrshlt	ip, [sp, #-10]

000024e4 <l2235>:
    24e4:	515d52f4 	ldrshpl	r5, [sp, #-36]	; 0xffffffdc

000024e8 <l2236>:
    24e8:	c15d10b8 	ldrhgt	r1, [sp, #-8]

000024ec <l2237>:
    24ec:	514de3bc 	strhpl	lr, [sp, #-60]	; 0xffffffc4

000024f0 <l2238>:
    24f0:	915d74d7 	ldrsbls	r7, [sp, #-71]	; 0xffffffb9

000024f4 <l2239>:
    24f4:	e14d22ba 	strh	r2, [sp, #-42]	; 0xffffffd6

000024f8 <l2240>:
    24f8:	e3a07008 	mov	r7, #8

000024fc <l2241>:
    24fc:	e11de0f7 	ldrsh	lr, [sp, -r7]

00002500 <l2242>:
    2500:	e3a0504a 	mov	r5, #74	; 0x4a

00002504 <l2243>:
    2504:	e10d10b5 	strh	r1, [sp, -r5]

00002508 <l2244>:
    2508:	915d50d7 	ldrsbls	r5, [sp, #-7]

0000250c <l2245>:
    250c:	e14d74be 	strh	r7, [sp, #-78]	; 0xffffffb2

00002510 <l2246>:
    2510:	415dc3f0 	ldrshmi	ip, [sp, #-48]	; 0xffffffd0

00002514 <l2247>:
    2514:	b15d20d6 	ldrsblt	r2, [sp, #-6]

00002518 <l2248>:
    2518:	e3a0100c 	mov	r1, #12

0000251c <l2249>:
    251c:	711dc0d1 	ldrsbvc	ip, [sp, -r1]

00002520 <l2250>:
    2520:	d14d84bc 	strhle	r8, [sp, #-76]	; 0xffffffb4

00002524 <l2251>:
    2524:	e15d63b2 	ldrh	r6, [sp, #-50]	; 0xffffffce

00002528 <l2252>:
    2528:	114d43bc 	strhne	r4, [sp, #-60]	; 0xffffffc4

0000252c <l2253>:
    252c:	e14de1b8 	strh	lr, [sp, #-24]	; 0xffffffe8

00002530 <l2254>:
    2530:	e3a04008 	mov	r4, #8

00002534 <l2255>:
    2534:	e11d30b4 	ldrh	r3, [sp, -r4]

00002538 <l2256>:
    2538:	e3a00036 	mov	r0, #54	; 0x36

0000253c <l2257>:
    253c:	e11de0d0 	ldrsb	lr, [sp, -r0]

00002540 <l2258>:
    2540:	e3a0b02c 	mov	fp, #44	; 0x2c

00002544 <l2259>:
    2544:	e10d30bb 	strh	r3, [sp, -fp]

00002548 <l2260>:
    2548:	e3a02012 	mov	r2, #18

0000254c <l2261>:
    254c:	d10d80b2 	strhle	r8, [sp, -r2]

00002550 <l2262>:
    2550:	e3a0b036 	mov	fp, #54	; 0x36

00002554 <l2263>:
    2554:	e11d20bb 	ldrh	r2, [sp, -fp]

00002558 <l2264>:
    2558:	415d13d4 	ldrsbmi	r1, [sp, #-52]	; 0xffffffcc

0000255c <l2265>:
    255c:	a15de1b8 	ldrhge	lr, [sp, #-24]	; 0xffffffe8

00002560 <l2266>:
    2560:	e3a00025 	mov	r0, #37	; 0x25

00002564 <l2267>:
    2564:	e11db0d0 	ldrsb	fp, [sp, -r0]

00002568 <l2268>:
    2568:	315d21b0 	ldrhcc	r2, [sp, #-16]

0000256c <l2269>:
    256c:	a15db2f6 	ldrshge	fp, [sp, #-38]	; 0xffffffda

00002570 <l2270>:
    2570:	e3a0c007 	mov	ip, #7

00002574 <l2271>:
    2574:	e11dc0dc 	ldrsb	ip, [sp, -ip]

00002578 <l2272>:
    2578:	515d72be 	ldrhpl	r7, [sp, #-46]	; 0xffffffd2

0000257c <l2273>:
    257c:	e3a0502c 	mov	r5, #44	; 0x2c

00002580 <l2274>:
    2580:	e10d90b5 	strh	r9, [sp, -r5]

00002584 <l2275>:
    2584:	e15de4f4 	ldrsh	lr, [sp, #-68]	; 0xffffffbc

00002588 <l2276>:
    2588:	e15d04fa 	ldrsh	r0, [sp, #-74]	; 0xffffffb6

0000258c <l2277>:
    258c:	714dc4b8 	strhvc	ip, [sp, #-72]	; 0xffffffb8

00002590 <l2278>:
    2590:	e15d54f8 	ldrsh	r5, [sp, #-72]	; 0xffffffb8

00002594 <l2279>:
    2594:	e3a0504c 	mov	r5, #76	; 0x4c

00002598 <l2280>:
    2598:	e10d90b5 	strh	r9, [sp, -r5]

0000259c <l2281>:
    259c:	e3a0503a 	mov	r5, #58	; 0x3a

000025a0 <l2282>:
    25a0:	511d90d5 	ldrsbpl	r9, [sp, -r5]

000025a4 <l2283>:
    25a4:	415d02bc 	ldrhmi	r0, [sp, #-44]	; 0xffffffd4

000025a8 <l2284>:
    25a8:	e3a02049 	mov	r2, #73	; 0x49

000025ac <l2285>:
    25ac:	e11d00d2 	ldrsb	r0, [sp, -r2]

000025b0 <l2286>:
    25b0:	c14db1ba 	strhgt	fp, [sp, #-26]	; 0xffffffe6

000025b4 <l2287>:
    25b4:	e3a06036 	mov	r6, #54	; 0x36

000025b8 <l2288>:
    25b8:	d11da0d6 	ldrsble	sl, [sp, -r6]

000025bc <l2289>:
    25bc:	e15d93bc 	ldrh	r9, [sp, #-60]	; 0xffffffc4

000025c0 <l2290>:
    25c0:	615d23fa 	ldrshvs	r2, [sp, #-58]	; 0xffffffc6

000025c4 <l2291>:
    25c4:	e15d82b8 	ldrh	r8, [sp, #-40]	; 0xffffffd8

000025c8 <l2292>:
    25c8:	e15d21f6 	ldrsh	r2, [sp, #-22]	; 0xffffffea

000025cc <l2293>:
    25cc:	e3a08012 	mov	r8, #18

000025d0 <l2294>:
    25d0:	111de0f8 	ldrshne	lr, [sp, -r8]

000025d4 <l2295>:
    25d4:	e14d61ba 	strh	r6, [sp, #-26]	; 0xffffffe6

000025d8 <l2296>:
    25d8:	e15d10fa 	ldrsh	r1, [sp, #-10]

000025dc <l2297>:
    25dc:	615d13f8 	ldrshvs	r1, [sp, #-56]	; 0xffffffc8

000025e0 <l2298>:
    25e0:	e3a0900c 	mov	r9, #12

000025e4 <l2299>:
    25e4:	c10d50b9 	strhgt	r5, [sp, -r9]

000025e8 <l2300>:
    25e8:	615d41fc 	ldrshvs	r4, [sp, #-28]	; 0xffffffe4

000025ec <l2301>:
    25ec:	915d60b6 	ldrhls	r6, [sp, #-6]

000025f0 <l2302>:
    25f0:	e3a08020 	mov	r8, #32

000025f4 <l2303>:
    25f4:	e11d20b8 	ldrh	r2, [sp, -r8]

000025f8 <l2304>:
    25f8:	e3a0c028 	mov	ip, #40	; 0x28

000025fc <l2305>:
    25fc:	e11d90bc 	ldrh	r9, [sp, -ip]

00002600 <l2306>:
    2600:	e14d22ba 	strh	r2, [sp, #-42]	; 0xffffffd6

00002604 <l2307>:
    2604:	e3a0c006 	mov	ip, #6

00002608 <l2308>:
    2608:	a11d50bc 	ldrhge	r5, [sp, -ip]

0000260c <l2309>:
    260c:	514d82b2 	strhpl	r8, [sp, #-34]	; 0xffffffde

00002610 <l2310>:
    2610:	e3a08050 	mov	r8, #80	; 0x50

00002614 <l2311>:
    2614:	e10d40b8 	strh	r4, [sp, -r8]

00002618 <l2312>:
    2618:	e3a0e01e 	mov	lr, #30

0000261c <l2313>:
    261c:	011d70be 	ldrheq	r7, [sp, -lr]

00002620 <l2314>:
    2620:	e3a0e046 	mov	lr, #70	; 0x46

00002624 <l2315>:
    2624:	e11d90be 	ldrh	r9, [sp, -lr]

00002628 <l2316>:
    2628:	e3a0b03a 	mov	fp, #58	; 0x3a

0000262c <l2317>:
    262c:	e11d80db 	ldrsb	r8, [sp, -fp]

00002630 <l2318>:
    2630:	c15d62b0 	ldrhgt	r6, [sp, #-32]	; 0xffffffe0

00002634 <l2319>:
    2634:	e15d24ba 	ldrh	r2, [sp, #-74]	; 0xffffffb6

00002638 <l2320>:
    2638:	e3a02038 	mov	r2, #56	; 0x38

0000263c <l2321>:
    263c:	e11d40b2 	ldrh	r4, [sp, -r2]

00002640 <l2322>:
    2640:	e3a0701a 	mov	r7, #26

00002644 <l2323>:
    2644:	e11de0d7 	ldrsb	lr, [sp, -r7]

00002648 <l2324>:
    2648:	e3a0200f 	mov	r2, #15

0000264c <l2325>:
    264c:	311dc0d2 	ldrsbcc	ip, [sp, -r2]

00002650 <l2326>:
    2650:	415d20dc 	ldrsbmi	r2, [sp, #-12]

00002654 <l2327>:
    2654:	e3a0e050 	mov	lr, #80	; 0x50

00002658 <l2328>:
    2658:	e10d10be 	strh	r1, [sp, -lr]

0000265c <l2329>:
    265c:	e15d94b8 	ldrh	r9, [sp, #-72]	; 0xffffffb8

00002660 <l2330>:
    2660:	615d83fc 	ldrshvs	r8, [sp, #-60]	; 0xffffffc4

00002664 <l2331>:
    2664:	e3a0200e 	mov	r2, #14

00002668 <l2332>:
    2668:	e10d80b2 	strh	r8, [sp, -r2]

0000266c <l2333>:
    266c:	815d22d2 	ldrsbhi	r2, [sp, #-34]	; 0xffffffde

00002670 <l2334>:
    2670:	e15d74fa 	ldrsh	r7, [sp, #-74]	; 0xffffffb6

00002674 <l2335>:
    2674:	e3a05026 	mov	r5, #38	; 0x26

00002678 <l2336>:
    2678:	711d40b5 	ldrhvc	r4, [sp, -r5]

0000267c <l2337>:
    267c:	e3a03042 	mov	r3, #66	; 0x42

00002680 <l2338>:
    2680:	d10d90b3 	strhle	r9, [sp, -r3]

00002684 <l2339>:
    2684:	e3a0803a 	mov	r8, #58	; 0x3a

00002688 <l2340>:
    2688:	411de0f8 	ldrshmi	lr, [sp, -r8]

0000268c <l2341>:
    268c:	e3a0e036 	mov	lr, #54	; 0x36

00002690 <l2342>:
    2690:	e11d90fe 	ldrsh	r9, [sp, -lr]

00002694 <l2343>:
    2694:	e15d63dd 	ldrsb	r6, [sp, #-61]	; 0xffffffc3

00002698 <l2344>:
    2698:	e15d84ba 	ldrh	r8, [sp, #-74]	; 0xffffffb6

0000269c <l2345>:
    269c:	e3a0e01c 	mov	lr, #28

000026a0 <l2346>:
    26a0:	e11dc0be 	ldrh	ip, [sp, -lr]

000026a4 <l2347>:
    26a4:	e15d64fe 	ldrsh	r6, [sp, #-78]	; 0xffffffb2

000026a8 <l2348>:
    26a8:	e3a02022 	mov	r2, #34	; 0x22

000026ac <l2349>:
    26ac:	a11d90b2 	ldrhge	r9, [sp, -r2]

000026b0 <l2350>:
    26b0:	e14d73bc 	strh	r7, [sp, #-60]	; 0xffffffc4

000026b4 <l2351>:
    26b4:	e15db3dc 	ldrsb	fp, [sp, #-60]	; 0xffffffc4

000026b8 <l2352>:
    26b8:	015d02b0 	ldrheq	r0, [sp, #-32]	; 0xffffffe0

000026bc <l2353>:
    26bc:	e3a0e04d 	mov	lr, #77	; 0x4d

000026c0 <l2354>:
    26c0:	d11d30de 	ldrsble	r3, [sp, -lr]

000026c4 <l2355>:
    26c4:	e3a07030 	mov	r7, #48	; 0x30

000026c8 <l2356>:
    26c8:	e11d00f7 	ldrsh	r0, [sp, -r7]

000026cc <l2357>:
    26cc:	e14d93b6 	strh	r9, [sp, #-54]	; 0xffffffca

000026d0 <l2358>:
    26d0:	e3a0403a 	mov	r4, #58	; 0x3a

000026d4 <l2359>:
    26d4:	511d80b4 	ldrhpl	r8, [sp, -r4]

000026d8 <l2360>:
    26d8:	114d64b6 	strhne	r6, [sp, #-70]	; 0xffffffba

000026dc <l2361>:
    26dc:	515de0ba 	ldrhpl	lr, [sp, #-10]

000026e0 <l2362>:
    26e0:	e3a0e038 	mov	lr, #56	; 0x38

000026e4 <l2363>:
    26e4:	010d80be 	strheq	r8, [sp, -lr]

000026e8 <l2364>:
    26e8:	615da0f6 	ldrshvs	sl, [sp, #-6]

000026ec <l2365>:
    26ec:	e3a0501a 	mov	r5, #26

000026f0 <l2366>:
    26f0:	e11de0d5 	ldrsb	lr, [sp, -r5]

000026f4 <l2367>:
    26f4:	e15d14f0 	ldrsh	r1, [sp, #-64]	; 0xffffffc0

000026f8 <l2368>:
    26f8:	e3a06038 	mov	r6, #56	; 0x38

000026fc <l2369>:
    26fc:	011d80d6 	ldrsbeq	r8, [sp, -r6]

00002700 <l2370>:
    2700:	915d42f8 	ldrshls	r4, [sp, #-40]	; 0xffffffd8

00002704 <l2371>:
    2704:	215d04b4 	ldrhcs	r0, [sp, #-68]	; 0xffffffbc

00002708 <l2372>:
    2708:	e14d63b4 	strh	r6, [sp, #-52]	; 0xffffffcc

0000270c <l2373>:
    270c:	e3a06046 	mov	r6, #70	; 0x46

00002710 <l2374>:
    2710:	e11dc0b6 	ldrh	ip, [sp, -r6]

00002714 <l2375>:
    2714:	e15db1b6 	ldrh	fp, [sp, #-22]	; 0xffffffea

00002718 <l2376>:
    2718:	115d41f0 	ldrshne	r4, [sp, #-16]

0000271c <l2377>:
    271c:	e15da0ba 	ldrh	sl, [sp, #-10]

00002720 <l2378>:
    2720:	e3a02010 	mov	r2, #16

00002724 <l2379>:
    2724:	b10d70b2 	strhlt	r7, [sp, -r2]

00002728 <l2380>:
    2728:	715db0de 	ldrsbvc	fp, [sp, #-14]

0000272c <l2381>:
    272c:	e3a0103e 	mov	r1, #62	; 0x3e

00002730 <l2382>:
    2730:	910de0b1 	strhls	lr, [sp, -r1]

00002734 <l2383>:
    2734:	e3a0504e 	mov	r5, #78	; 0x4e

00002738 <l2384>:
    2738:	e10d70b5 	strh	r7, [sp, -r5]

0000273c <l2385>:
    273c:	a15de1b0 	ldrhge	lr, [sp, #-16]

00002740 <l2386>:
    2740:	e3a0902c 	mov	r9, #44	; 0x2c

00002744 <l2387>:
    2744:	b11db0f9 	ldrshlt	fp, [sp, -r9]

00002748 <l2388>:
    2748:	e3a0102a 	mov	r1, #42	; 0x2a

0000274c <l2389>:
    274c:	711da0b1 	ldrhvc	sl, [sp, -r1]

00002750 <l2390>:
    2750:	e3a0800a 	mov	r8, #10

00002754 <l2391>:
    2754:	611d80b8 	ldrhvs	r8, [sp, -r8]

00002758 <l2392>:
    2758:	e3a0404c 	mov	r4, #76	; 0x4c

0000275c <l2393>:
    275c:	c11d70b4 	ldrhgt	r7, [sp, -r4]

00002760 <l2394>:
    2760:	e3a0304c 	mov	r3, #76	; 0x4c

00002764 <l2395>:
    2764:	e11d70b3 	ldrh	r7, [sp, -r3]

00002768 <l2396>:
    2768:	e3a01014 	mov	r1, #20

0000276c <l2397>:
    276c:	711dc0b1 	ldrhvc	ip, [sp, -r1]

00002770 <l2398>:
    2770:	e3a06042 	mov	r6, #66	; 0x42

00002774 <l2399>:
    2774:	310dc0b6 	strhcc	ip, [sp, -r6]

00002778 <l2400>:
    2778:	e3a08033 	mov	r8, #51	; 0x33

0000277c <l2401>:
    277c:	211d20d8 	ldrsbcs	r2, [sp, -r8]

00002780 <l2402>:
    2780:	615d00d9 	ldrsbvs	r0, [sp, #-9]

00002784 <l2403>:
    2784:	414d74b6 	strhmi	r7, [sp, #-70]	; 0xffffffba

00002788 <l2404>:
    2788:	e15d32fa 	ldrsh	r3, [sp, #-42]	; 0xffffffd6

0000278c <l2405>:
    278c:	d15da3b4 	ldrhle	sl, [sp, #-52]	; 0xffffffcc

00002790 <l2406>:
    2790:	e15da3b6 	ldrh	sl, [sp, #-54]	; 0xffffffca

00002794 <l2407>:
    2794:	015d62fe 	ldrsheq	r6, [sp, #-46]	; 0xffffffd2

00002798 <l2408>:
    2798:	e15d74d0 	ldrsb	r7, [sp, #-64]	; 0xffffffc0

0000279c <l2409>:
    279c:	e3a09012 	mov	r9, #18

000027a0 <l2410>:
    27a0:	c11de0b9 	ldrhgt	lr, [sp, -r9]

000027a4 <l2411>:
    27a4:	a15d44df 	ldrsbge	r4, [sp, #-79]	; 0xffffffb1

000027a8 <l2412>:
    27a8:	e3a06040 	mov	r6, #64	; 0x40

000027ac <l2413>:
    27ac:	611d10b6 	ldrhvs	r1, [sp, -r6]

000027b0 <l2414>:
    27b0:	e3a04010 	mov	r4, #16

000027b4 <l2415>:
    27b4:	e11dc0f4 	ldrsh	ip, [sp, -r4]

000027b8 <l2416>:
    27b8:	e15d33f8 	ldrsh	r3, [sp, #-56]	; 0xffffffc8

000027bc <l2417>:
    27bc:	a14db3ba 	strhge	fp, [sp, #-58]	; 0xffffffc6

000027c0 <l2418>:
    27c0:	e3a04026 	mov	r4, #38	; 0x26

000027c4 <l2419>:
    27c4:	011da0f4 	ldrsheq	sl, [sp, -r4]

000027c8 <l2420>:
    27c8:	e14db0b6 	strh	fp, [sp, #-6]

000027cc <l2421>:
    27cc:	e3a07010 	mov	r7, #16

000027d0 <l2422>:
    27d0:	e11de0f7 	ldrsh	lr, [sp, -r7]

000027d4 <l2423>:
    27d4:	e3a04020 	mov	r4, #32

000027d8 <l2424>:
    27d8:	e11d10f4 	ldrsh	r1, [sp, -r4]

000027dc <l2425>:
    27dc:	e3a0b024 	mov	fp, #36	; 0x24

000027e0 <l2426>:
    27e0:	910d40bb 	strhls	r4, [sp, -fp]

000027e4 <l2427>:
    27e4:	e3a0201a 	mov	r2, #26

000027e8 <l2428>:
    27e8:	e11d70f2 	ldrsh	r7, [sp, -r2]

000027ec <l2429>:
    27ec:	e3a0802d 	mov	r8, #45	; 0x2d

000027f0 <l2430>:
    27f0:	111d00d8 	ldrsbne	r0, [sp, -r8]

000027f4 <l2431>:
    27f4:	e3a07008 	mov	r7, #8

000027f8 <l2432>:
    27f8:	511d40f7 	ldrshpl	r4, [sp, -r7]

000027fc <l2433>:
    27fc:	015d40fc 	ldrsheq	r4, [sp, #-12]

00002800 <l2434>:
    2800:	915da2f8 	ldrshls	sl, [sp, #-40]	; 0xffffffd8

00002804 <l2435>:
    2804:	e15dc3f0 	ldrsh	ip, [sp, #-48]	; 0xffffffd0

00002808 <l2436>:
    2808:	e15d12be 	ldrh	r1, [sp, #-46]	; 0xffffffd2

0000280c <l2437>:
    280c:	715db1d6 	ldrsbvc	fp, [sp, #-22]	; 0xffffffea

00002810 <l2438>:
    2810:	e15d83be 	ldrh	r8, [sp, #-62]	; 0xffffffc2

00002814 <l2439>:
    2814:	e3a0402e 	mov	r4, #46	; 0x2e

00002818 <l2440>:
    2818:	811db0b4 	ldrhhi	fp, [sp, -r4]

0000281c <l2441>:
    281c:	e3a0101c 	mov	r1, #28

00002820 <l2442>:
    2820:	b11de0d1 	ldrsblt	lr, [sp, -r1]

00002824 <l2443>:
    2824:	e15d12d8 	ldrsb	r1, [sp, #-40]	; 0xffffffd8

00002828 <l2444>:
    2828:	415d21b2 	ldrhmi	r2, [sp, #-18]	; 0xffffffee

0000282c <l2445>:
    282c:	e3a0c01a 	mov	ip, #26

00002830 <l2446>:
    2830:	410d40bc 	strhmi	r4, [sp, -ip]

00002834 <l2447>:
    2834:	e14d42b0 	strh	r4, [sp, #-32]	; 0xffffffe0

00002838 <l2448>:
    2838:	915d11f2 	ldrshls	r1, [sp, #-18]	; 0xffffffee

0000283c <l2449>:
    283c:	715d53b2 	ldrhvc	r5, [sp, #-50]	; 0xffffffce

00002840 <l2450>:
    2840:	e3a0e032 	mov	lr, #50	; 0x32

00002844 <l2451>:
    2844:	e11d60de 	ldrsb	r6, [sp, -lr]

00002848 <l2452>:
    2848:	e3a04036 	mov	r4, #54	; 0x36

0000284c <l2453>:
    284c:	b10d10b4 	strhlt	r1, [sp, -r4]

00002850 <l2454>:
    2850:	315db2de 	ldrsbcc	fp, [sp, #-46]	; 0xffffffd2

00002854 <l2455>:
    2854:	314da1b8 	strhcc	sl, [sp, #-24]	; 0xffffffe8

00002858 <l2456>:
    2858:	e3a04014 	mov	r4, #20

0000285c <l2457>:
    285c:	111db0b4 	ldrhne	fp, [sp, -r4]

00002860 <l2458>:
    2860:	014d82b2 	strheq	r8, [sp, #-34]	; 0xffffffde

00002864 <l2459>:
    2864:	a15d64dc 	ldrsbge	r6, [sp, #-76]	; 0xffffffb4

00002868 <l2460>:
    2868:	e15d11b0 	ldrh	r1, [sp, #-16]

0000286c <l2461>:
    286c:	d15d94df 	ldrsble	r9, [sp, #-79]	; 0xffffffb1

00002870 <l2462>:
    2870:	015d43fc 	ldrsheq	r4, [sp, #-60]	; 0xffffffc4

00002874 <l2463>:
    2874:	e15da4b6 	ldrh	sl, [sp, #-70]	; 0xffffffba

00002878 <l2464>:
    2878:	e3a0b008 	mov	fp, #8

0000287c <l2465>:
    287c:	b11d80db 	ldrsblt	r8, [sp, -fp]

00002880 <l2466>:
    2880:	e3a0401e 	mov	r4, #30

00002884 <l2467>:
    2884:	311db0b4 	ldrhcc	fp, [sp, -r4]

00002888 <l2468>:
    2888:	e3a0101e 	mov	r1, #30

0000288c <l2469>:
    288c:	e11dc0f1 	ldrsh	ip, [sp, -r1]

00002890 <l2470>:
    2890:	e3a09050 	mov	r9, #80	; 0x50

00002894 <l2471>:
    2894:	e11d60b9 	ldrh	r6, [sp, -r9]

00002898 <l2472>:
    2898:	315d34da 	ldrsbcc	r3, [sp, #-74]	; 0xffffffb6

0000289c <l2473>:
    289c:	e3a08046 	mov	r8, #70	; 0x46

000028a0 <l2474>:
    28a0:	e11d20b8 	ldrh	r2, [sp, -r8]

000028a4 <l2475>:
    28a4:	714d63bc 	strhvc	r6, [sp, #-60]	; 0xffffffc4

000028a8 <l2476>:
    28a8:	515d34de 	ldrsbpl	r3, [sp, #-78]	; 0xffffffb2

000028ac <l2477>:
    28ac:	e3a05032 	mov	r5, #50	; 0x32

000028b0 <l2478>:
    28b0:	e11d80d5 	ldrsb	r8, [sp, -r5]

000028b4 <l2479>:
    28b4:	e15d51f2 	ldrsh	r5, [sp, #-18]	; 0xffffffee

000028b8 <l2480>:
    28b8:	b14d13b8 	strhlt	r1, [sp, #-56]	; 0xffffffc8

000028bc <l2481>:
    28bc:	e3a0a022 	mov	sl, #34	; 0x22

000028c0 <l2482>:
    28c0:	111d70ba 	ldrhne	r7, [sp, -sl]

000028c4 <l2483>:
    28c4:	e14d54b8 	strh	r5, [sp, #-72]	; 0xffffffb8

000028c8 <l2484>:
    28c8:	015d33fc 	ldrsheq	r3, [sp, #-60]	; 0xffffffc4

000028cc <l2485>:
    28cc:	e3a0104e 	mov	r1, #78	; 0x4e

000028d0 <l2486>:
    28d0:	e11d90f1 	ldrsh	r9, [sp, -r1]

000028d4 <l2487>:
    28d4:	415d63d8 	ldrsbmi	r6, [sp, #-56]	; 0xffffffc8

000028d8 <l2488>:
    28d8:	e3a0604e 	mov	r6, #78	; 0x4e

000028dc <l2489>:
    28dc:	310d30b6 	strhcc	r3, [sp, -r6]

000028e0 <l2490>:
    28e0:	715d04d9 	ldrsbvc	r0, [sp, #-73]	; 0xffffffb7

000028e4 <l2491>:
    28e4:	e3a08012 	mov	r8, #18

000028e8 <l2492>:
    28e8:	e11d10f8 	ldrsh	r1, [sp, -r8]

000028ec <l2493>:
    28ec:	e3a0c01a 	mov	ip, #26

000028f0 <l2494>:
    28f0:	e11d10bc 	ldrh	r1, [sp, -ip]

000028f4 <l2495>:
    28f4:	215d24fc 	ldrshcs	r2, [sp, #-76]	; 0xffffffb4

000028f8 <l2496>:
    28f8:	e3a02008 	mov	r2, #8

000028fc <l2497>:
    28fc:	e10d00b2 	strh	r0, [sp, -r2]

00002900 <l2498>:
    2900:	e15d92f6 	ldrsh	r9, [sp, #-38]	; 0xffffffda

00002904 <l2499>:
    2904:	e3a03036 	mov	r3, #54	; 0x36

00002908 <l2500>:
    2908:	111d60f3 	ldrshne	r6, [sp, -r3]

0000290c <l2501>:
    290c:	e3a04024 	mov	r4, #36	; 0x24

00002910 <l2502>:
    2910:	e11d00b4 	ldrh	r0, [sp, -r4]

00002914 <l2503>:
    2914:	e15d24fa 	ldrsh	r2, [sp, #-74]	; 0xffffffb6

00002918 <l2504>:
    2918:	e3a05036 	mov	r5, #54	; 0x36

0000291c <l2505>:
    291c:	010d10b5 	strheq	r1, [sp, -r5]

00002920 <l2506>:
    2920:	e3a04008 	mov	r4, #8

00002924 <l2507>:
    2924:	c10d50b4 	strhgt	r5, [sp, -r4]

00002928 <l2508>:
    2928:	e3a02040 	mov	r2, #64	; 0x40

0000292c <l2509>:
    292c:	e10d00b2 	strh	r0, [sp, -r2]

00002930 <l2510>:
    2930:	e3a0102c 	mov	r1, #44	; 0x2c

00002934 <l2511>:
    2934:	b10db0b1 	strhlt	fp, [sp, -r1]

00002938 <l2512>:
    2938:	715db4f8 	ldrshvc	fp, [sp, #-72]	; 0xffffffb8

0000293c <l2513>:
    293c:	e3a0703a 	mov	r7, #58	; 0x3a

00002940 <l2514>:
    2940:	e11d50f7 	ldrsh	r5, [sp, -r7]

00002944 <l2515>:
    2944:	e15d31ba 	ldrh	r3, [sp, #-26]	; 0xffffffe6

00002948 <l2516>:
    2948:	e3a0a020 	mov	sl, #32

0000294c <l2517>:
    294c:	e11d10da 	ldrsb	r1, [sp, -sl]

00002950 <l2518>:
    2950:	e3a0a018 	mov	sl, #24

00002954 <l2519>:
    2954:	e11d60fa 	ldrsh	r6, [sp, -sl]

00002958 <l2520>:
    2958:	e15d31dd 	ldrsb	r3, [sp, #-29]	; 0xffffffe3

0000295c <l2521>:
    295c:	a15de1db 	ldrsbge	lr, [sp, #-27]	; 0xffffffe5

00002960 <l2522>:
    2960:	e3a0001e 	mov	r0, #30

00002964 <l2523>:
    2964:	811d60f0 	ldrshhi	r6, [sp, -r0]

00002968 <l2524>:
    2968:	015d50be 	ldrheq	r5, [sp, #-14]

0000296c <l2525>:
    296c:	e3a0b006 	mov	fp, #6

00002970 <l2526>:
    2970:	411d10fb 	ldrshmi	r1, [sp, -fp]

00002974 <l2527>:
    2974:	e15d32f6 	ldrsh	r3, [sp, #-38]	; 0xffffffda

00002978 <l2528>:
    2978:	215d53f6 	ldrshcs	r5, [sp, #-54]	; 0xffffffca

0000297c <l2529>:
    297c:	e15da0db 	ldrsb	sl, [sp, #-11]

00002980 <l2530>:
    2980:	015d13bc 	ldrheq	r1, [sp, #-60]	; 0xffffffc4

00002984 <l2531>:
    2984:	e15d51d6 	ldrsb	r5, [sp, #-22]	; 0xffffffea

00002988 <l2532>:
    2988:	e3a05018 	mov	r5, #24

0000298c <l2533>:
    298c:	e11d60f5 	ldrsh	r6, [sp, -r5]

00002990 <l2534>:
    2990:	c15de5f0 	ldrshgt	lr, [sp, #-80]	; 0xffffffb0

00002994 <l2535>:
    2994:	915db2d6 	ldrsbls	fp, [sp, #-38]	; 0xffffffda

00002998 <l2536>:
    2998:	e15d91d3 	ldrsb	r9, [sp, #-19]	; 0xffffffed

0000299c <l2537>:
    299c:	314d64b0 	strhcc	r6, [sp, #-64]	; 0xffffffc0

000029a0 <l2538>:
    29a0:	e3a08020 	mov	r8, #32

000029a4 <l2539>:
    29a4:	510d40b8 	strhpl	r4, [sp, -r8]

000029a8 <l2540>:
    29a8:	e3a0e014 	mov	lr, #20

000029ac <l2541>:
    29ac:	e11d70fe 	ldrsh	r7, [sp, -lr]

000029b0 <l2542>:
    29b0:	e3a0a016 	mov	sl, #22

000029b4 <l2543>:
    29b4:	410d70ba 	strhmi	r7, [sp, -sl]

000029b8 <l2544>:
    29b8:	e15d72dd 	ldrsb	r7, [sp, #-45]	; 0xffffffd3

000029bc <l2545>:
    29bc:	215dc2d5 	ldrsbcs	ip, [sp, #-37]	; 0xffffffdb

000029c0 <l2546>:
    29c0:	e15d90f8 	ldrsh	r9, [sp, #-8]

000029c4 <l2547>:
    29c4:	e3a06017 	mov	r6, #23

000029c8 <l2548>:
    29c8:	811da0d6 	ldrsbhi	sl, [sp, -r6]

000029cc <l2549>:
    29cc:	e3a0400f 	mov	r4, #15

000029d0 <l2550>:
    29d0:	011d80d4 	ldrsbeq	r8, [sp, -r4]

000029d4 <l2551>:
    29d4:	215d12df 	ldrsbcs	r1, [sp, #-47]	; 0xffffffd1

000029d8 <l2552>:
    29d8:	b15da4bc 	ldrhlt	sl, [sp, #-76]	; 0xffffffb4

000029dc <l2553>:
    29dc:	e15db2ba 	ldrh	fp, [sp, #-42]	; 0xffffffd6

000029e0 <l2554>:
    29e0:	e3a00022 	mov	r0, #34	; 0x22

000029e4 <l2555>:
    29e4:	e11d00d0 	ldrsb	r0, [sp, -r0]

000029e8 <l2556>:
    29e8:	e3a0a02e 	mov	sl, #46	; 0x2e

000029ec <l2557>:
    29ec:	611d20da 	ldrsbvs	r2, [sp, -sl]

000029f0 <l2558>:
    29f0:	a15d32f6 	ldrshge	r3, [sp, #-38]	; 0xffffffda

000029f4 <l2559>:
    29f4:	e3a01016 	mov	r1, #22

000029f8 <l2560>:
    29f8:	e11d50b1 	ldrh	r5, [sp, -r1]

000029fc <l2561>:
    29fc:	e15d42fc 	ldrsh	r4, [sp, #-44]	; 0xffffffd4

00002a00 <l2562>:
    2a00:	315d74fe 	ldrshcc	r7, [sp, #-78]	; 0xffffffb2

00002a04 <l2563>:
    2a04:	e3a0403e 	mov	r4, #62	; 0x3e

00002a08 <l2564>:
    2a08:	e11dc0b4 	ldrh	ip, [sp, -r4]

00002a0c <l2565>:
    2a0c:	e3a0403c 	mov	r4, #60	; 0x3c

00002a10 <l2566>:
    2a10:	c11d50d4 	ldrsbgt	r5, [sp, -r4]

00002a14 <l2567>:
    2a14:	e3a0c028 	mov	ip, #40	; 0x28

00002a18 <l2568>:
    2a18:	e10d90bc 	strh	r9, [sp, -ip]

00002a1c <l2569>:
    2a1c:	e14de3b6 	strh	lr, [sp, #-54]	; 0xffffffca

00002a20 <l2570>:
    2a20:	415d82b2 	ldrhmi	r8, [sp, #-34]	; 0xffffffde

00002a24 <l2571>:
    2a24:	e3a03008 	mov	r3, #8

00002a28 <l2572>:
    2a28:	e11db0d3 	ldrsb	fp, [sp, -r3]

00002a2c <l2573>:
    2a2c:	e3a05038 	mov	r5, #56	; 0x38

00002a30 <l2574>:
    2a30:	a10d30b5 	strhge	r3, [sp, -r5]

00002a34 <l2575>:
    2a34:	c15dc4f0 	ldrshgt	ip, [sp, #-64]	; 0xffffffc0

00002a38 <l2576>:
    2a38:	e15db4da 	ldrsb	fp, [sp, #-74]	; 0xffffffb6

00002a3c <l2577>:
    2a3c:	e3a0b016 	mov	fp, #22

00002a40 <l2578>:
    2a40:	e11d80bb 	ldrh	r8, [sp, -fp]

00002a44 <l2579>:
    2a44:	e3a07018 	mov	r7, #24

00002a48 <l2580>:
    2a48:	e11d90f7 	ldrsh	r9, [sp, -r7]

00002a4c <l2581>:
    2a4c:	e3a0a00e 	mov	sl, #14

00002a50 <l2582>:
    2a50:	311dc0fa 	ldrshcc	ip, [sp, -sl]

00002a54 <l2583>:
    2a54:	e3a0904e 	mov	r9, #78	; 0x4e

00002a58 <l2584>:
    2a58:	e10da0b9 	strh	sl, [sp, -r9]

00002a5c <l2585>:
    2a5c:	e3a0c018 	mov	ip, #24

00002a60 <l2586>:
    2a60:	211dc0bc 	ldrhcs	ip, [sp, -ip]

00002a64 <l2587>:
    2a64:	e3a0a01c 	mov	sl, #28

00002a68 <l2588>:
    2a68:	d10d30ba 	strhle	r3, [sp, -sl]

00002a6c <l2589>:
    2a6c:	e15d01dc 	ldrsb	r0, [sp, #-28]	; 0xffffffe4

00002a70 <l2590>:
    2a70:	e14d13bc 	strh	r1, [sp, #-60]	; 0xffffffc4

00002a74 <l2591>:
    2a74:	c15d81fc 	ldrshgt	r8, [sp, #-28]	; 0xffffffe4

00002a78 <l2592>:
    2a78:	e15da1ba 	ldrh	sl, [sp, #-26]	; 0xffffffe6

00002a7c <l2593>:
    2a7c:	e3a0c02d 	mov	ip, #45	; 0x2d

00002a80 <l2594>:
    2a80:	b11d90dc 	ldrsblt	r9, [sp, -ip]

00002a84 <l2595>:
    2a84:	e3a0a050 	mov	sl, #80	; 0x50

00002a88 <l2596>:
    2a88:	e10db0ba 	strh	fp, [sp, -sl]

00002a8c <l2597>:
    2a8c:	e3a09018 	mov	r9, #24

00002a90 <l2598>:
    2a90:	e11d50f9 	ldrsh	r5, [sp, -r9]

00002a94 <l2599>:
    2a94:	415de2fe 	ldrshmi	lr, [sp, #-46]	; 0xffffffd2

00002a98 <l2600>:
    2a98:	e3a0b008 	mov	fp, #8

00002a9c <l2601>:
    2a9c:	e10d40bb 	strh	r4, [sp, -fp]

00002aa0 <l2602>:
    2aa0:	e3a0b014 	mov	fp, #20

00002aa4 <l2603>:
    2aa4:	210dc0bb 	strhcs	ip, [sp, -fp]

00002aa8 <l2604>:
    2aa8:	e15d52fc 	ldrsh	r5, [sp, #-44]	; 0xffffffd4

00002aac <l2605>:
    2aac:	d15d70f8 	ldrshle	r7, [sp, #-8]

00002ab0 <l2606>:
    2ab0:	b15d41da 	ldrsblt	r4, [sp, #-26]	; 0xffffffe6

00002ab4 <l2607>:
    2ab4:	e3a0501c 	mov	r5, #28

00002ab8 <l2608>:
    2ab8:	811de0f5 	ldrshhi	lr, [sp, -r5]

00002abc <l2609>:
    2abc:	e3a0704c 	mov	r7, #76	; 0x4c

00002ac0 <l2610>:
    2ac0:	e10d80b7 	strh	r8, [sp, -r7]

00002ac4 <l2611>:
    2ac4:	e15de4d7 	ldrsb	lr, [sp, #-71]	; 0xffffffb9

00002ac8 <l2612>:
    2ac8:	e3a07032 	mov	r7, #50	; 0x32

00002acc <l2613>:
    2acc:	510d40b7 	strhpl	r4, [sp, -r7]

00002ad0 <l2614>:
    2ad0:	e3a0402b 	mov	r4, #43	; 0x2b

00002ad4 <l2615>:
    2ad4:	111d80d4 	ldrsbne	r8, [sp, -r4]

00002ad8 <l2616>:
    2ad8:	e14da4b4 	strh	sl, [sp, #-68]	; 0xffffffbc

00002adc <l2617>:
    2adc:	e3a03014 	mov	r3, #20

00002ae0 <l2618>:
    2ae0:	411d20f3 	ldrshmi	r2, [sp, -r3]

00002ae4 <l2619>:
    2ae4:	e15d21bc 	ldrh	r2, [sp, #-28]	; 0xffffffe4

00002ae8 <l2620>:
    2ae8:	e3a04044 	mov	r4, #68	; 0x44

00002aec <l2621>:
    2aec:	210d30b4 	strhcs	r3, [sp, -r4]

00002af0 <l2622>:
    2af0:	e3a0b040 	mov	fp, #64	; 0x40

00002af4 <l2623>:
    2af4:	d11d90db 	ldrsble	r9, [sp, -fp]

00002af8 <l2624>:
    2af8:	e3a0a044 	mov	sl, #68	; 0x44

00002afc <l2625>:
    2afc:	e11db0ba 	ldrh	fp, [sp, -sl]

00002b00 <l2626>:
    2b00:	715d04b0 	ldrhvc	r0, [sp, #-64]	; 0xffffffc0

00002b04 <l2627>:
    2b04:	e3a06038 	mov	r6, #56	; 0x38

00002b08 <l2628>:
    2b08:	011d30b6 	ldrheq	r3, [sp, -r6]

00002b0c <l2629>:
    2b0c:	e3a0201e 	mov	r2, #30

00002b10 <l2630>:
    2b10:	810d10b2 	strhhi	r1, [sp, -r2]

00002b14 <l2631>:
    2b14:	114d11b8 	strhne	r1, [sp, #-24]	; 0xffffffe8

00002b18 <l2632>:
    2b18:	e15d82da 	ldrsb	r8, [sp, #-42]	; 0xffffffd6

00002b1c <l2633>:
    2b1c:	e3a02014 	mov	r2, #20

00002b20 <l2634>:
    2b20:	e10d10b2 	strh	r1, [sp, -r2]

00002b24 <l2635>:
    2b24:	e3a0000e 	mov	r0, #14

00002b28 <l2636>:
    2b28:	e10d20b0 	strh	r2, [sp, -r0]

00002b2c <l2637>:
    2b2c:	e3a0a026 	mov	sl, #38	; 0x26

00002b30 <l2638>:
    2b30:	e11dc0ba 	ldrh	ip, [sp, -sl]

00002b34 <l2639>:
    2b34:	e3a03016 	mov	r3, #22

00002b38 <l2640>:
    2b38:	d10d60b3 	strhle	r6, [sp, -r3]

00002b3c <l2641>:
    2b3c:	e3a07042 	mov	r7, #66	; 0x42

00002b40 <l2642>:
    2b40:	e11d90f7 	ldrsh	r9, [sp, -r7]

00002b44 <l2643>:
    2b44:	e15d93bc 	ldrh	r9, [sp, #-60]	; 0xffffffc4

00002b48 <l2644>:
    2b48:	e3a05015 	mov	r5, #21

00002b4c <l2645>:
    2b4c:	d11da0d5 	ldrsble	sl, [sp, -r5]

00002b50 <l2646>:
    2b50:	115d10fa 	ldrshne	r1, [sp, #-10]

00002b54 <l2647>:
    2b54:	e3a07011 	mov	r7, #17

00002b58 <l2648>:
    2b58:	d11d80d7 	ldrsble	r8, [sp, -r7]

00002b5c <l2649>:
    2b5c:	e3a0101a 	mov	r1, #26

00002b60 <l2650>:
    2b60:	510d70b1 	strhpl	r7, [sp, -r1]

00002b64 <l2651>:
    2b64:	e3a0004a 	mov	r0, #74	; 0x4a

00002b68 <l2652>:
    2b68:	e11d10f0 	ldrsh	r1, [sp, -r0]

00002b6c <l2653>:
    2b6c:	215da4d3 	ldrsbcs	sl, [sp, #-67]	; 0xffffffbd

00002b70 <l2654>:
    2b70:	115db3be 	ldrhne	fp, [sp, #-62]	; 0xffffffc2

00002b74 <l2655>:
    2b74:	e3a02044 	mov	r2, #68	; 0x44

00002b78 <l2656>:
    2b78:	111d90b2 	ldrhne	r9, [sp, -r2]

00002b7c <l2657>:
    2b7c:	e3a0e03e 	mov	lr, #62	; 0x3e

00002b80 <l2658>:
    2b80:	e11d00fe 	ldrsh	r0, [sp, -lr]

00002b84 <l2659>:
    2b84:	e14dc2b2 	strh	ip, [sp, #-34]	; 0xffffffde

00002b88 <l2660>:
    2b88:	e3a0e03d 	mov	lr, #61	; 0x3d

00002b8c <l2661>:
    2b8c:	e11d00de 	ldrsb	r0, [sp, -lr]

00002b90 <l2662>:
    2b90:	e15dc0b6 	ldrh	ip, [sp, #-6]

00002b94 <l2663>:
    2b94:	e3a06033 	mov	r6, #51	; 0x33

00002b98 <l2664>:
    2b98:	811d40d6 	ldrsbhi	r4, [sp, -r6]

00002b9c <l2665>:
    2b9c:	e3a00036 	mov	r0, #54	; 0x36

00002ba0 <l2666>:
    2ba0:	e11d30f0 	ldrsh	r3, [sp, -r0]

00002ba4 <l2667>:
    2ba4:	e3a0704f 	mov	r7, #79	; 0x4f

00002ba8 <l2668>:
    2ba8:	b11dc0d7 	ldrsblt	ip, [sp, -r7]

00002bac <l2669>:
    2bac:	a14d74b2 	strhge	r7, [sp, #-66]	; 0xffffffbe

00002bb0 <l2670>:
    2bb0:	515d60fa 	ldrshpl	r6, [sp, #-10]

00002bb4 <l2671>:
    2bb4:	e3a0c016 	mov	ip, #22

00002bb8 <l2672>:
    2bb8:	310da0bc 	strhcc	sl, [sp, -ip]

00002bbc <l2673>:
    2bbc:	e3a00034 	mov	r0, #52	; 0x34

00002bc0 <l2674>:
    2bc0:	a11d80b0 	ldrhge	r8, [sp, -r0]

00002bc4 <l2675>:
    2bc4:	e3a00041 	mov	r0, #65	; 0x41

00002bc8 <l2676>:
    2bc8:	211d40d0 	ldrsbcs	r4, [sp, -r0]

00002bcc <l2677>:
    2bcc:	e3a0800c 	mov	r8, #12

00002bd0 <l2678>:
    2bd0:	e10d50b8 	strh	r5, [sp, -r8]

00002bd4 <l2679>:
    2bd4:	e15d04be 	ldrh	r0, [sp, #-78]	; 0xffffffb2

00002bd8 <l2680>:
    2bd8:	e3a02020 	mov	r2, #32

00002bdc <l2681>:
    2bdc:	e10d50b2 	strh	r5, [sp, -r2]

00002be0 <l2682>:
    2be0:	e15d30be 	ldrh	r3, [sp, #-14]

00002be4 <l2683>:
    2be4:	815dc4d6 	ldrsbhi	ip, [sp, #-70]	; 0xffffffba

00002be8 <l2684>:
    2be8:	e3a03024 	mov	r3, #36	; 0x24

00002bec <l2685>:
    2bec:	e11d90b3 	ldrh	r9, [sp, -r3]

00002bf0 <l2686>:
    2bf0:	e3a05018 	mov	r5, #24

00002bf4 <l2687>:
    2bf4:	e10de0b5 	strh	lr, [sp, -r5]

00002bf8 <l2688>:
    2bf8:	b15d11ba 	ldrhlt	r1, [sp, #-26]	; 0xffffffe6

00002bfc <l2689>:
    2bfc:	e3a07036 	mov	r7, #54	; 0x36

00002c00 <l2690>:
    2c00:	811d10f7 	ldrshhi	r1, [sp, -r7]

00002c04 <l2691>:
    2c04:	a15d60bc 	ldrhge	r6, [sp, #-12]

00002c08 <l2692>:
    2c08:	e3a0e036 	mov	lr, #54	; 0x36

00002c0c <l2693>:
    2c0c:	e11db0be 	ldrh	fp, [sp, -lr]

00002c10 <l2694>:
    2c10:	e3a0a02a 	mov	sl, #42	; 0x2a

00002c14 <l2695>:
    2c14:	e10d80ba 	strh	r8, [sp, -sl]

00002c18 <l2696>:
    2c18:	e3a0e032 	mov	lr, #50	; 0x32

00002c1c <l2697>:
    2c1c:	e11d00de 	ldrsb	r0, [sp, -lr]

00002c20 <l2698>:
    2c20:	e3a0601a 	mov	r6, #26

00002c24 <l2699>:
    2c24:	411d80f6 	ldrshmi	r8, [sp, -r6]

00002c28 <l2700>:
    2c28:	e3a0804c 	mov	r8, #76	; 0x4c

00002c2c <l2701>:
    2c2c:	411dc0b8 	ldrhmi	ip, [sp, -r8]

00002c30 <l2702>:
    2c30:	e15d20b6 	ldrh	r2, [sp, #-6]

00002c34 <l2703>:
    2c34:	e3a06023 	mov	r6, #35	; 0x23

00002c38 <l2704>:
    2c38:	e11d60d6 	ldrsb	r6, [sp, -r6]

00002c3c <l2705>:
    2c3c:	e3a05032 	mov	r5, #50	; 0x32

00002c40 <l2706>:
    2c40:	e10d90b5 	strh	r9, [sp, -r5]

00002c44 <l2707>:
    2c44:	e3a0b01c 	mov	fp, #28

00002c48 <l2708>:
    2c48:	a11d50bb 	ldrhge	r5, [sp, -fp]

00002c4c <l2709>:
    2c4c:	e15d53fc 	ldrsh	r5, [sp, #-60]	; 0xffffffc4

00002c50 <l2710>:
    2c50:	e3a07038 	mov	r7, #56	; 0x38

00002c54 <l2711>:
    2c54:	e11dc0d7 	ldrsb	ip, [sp, -r7]

00002c58 <l2712>:
    2c58:	015dc2fc 	ldrsheq	ip, [sp, #-44]	; 0xffffffd4

00002c5c <l2713>:
    2c5c:	e3a0c02e 	mov	ip, #46	; 0x2e

00002c60 <l2714>:
    2c60:	e10d50bc 	strh	r5, [sp, -ip]

00002c64 <l2715>:
    2c64:	e15d54d0 	ldrsb	r5, [sp, #-64]	; 0xffffffc0

00002c68 <l2716>:
    2c68:	e3a07020 	mov	r7, #32

00002c6c <l2717>:
    2c6c:	c11d50b7 	ldrhgt	r5, [sp, -r7]

00002c70 <l2718>:
    2c70:	215d31d9 	ldrsbcs	r3, [sp, #-25]	; 0xffffffe7

00002c74 <l2719>:
    2c74:	e3a02007 	mov	r2, #7

00002c78 <l2720>:
    2c78:	011da0d2 	ldrsbeq	sl, [sp, -r2]

00002c7c <l2721>:
    2c7c:	e3a06028 	mov	r6, #40	; 0x28

00002c80 <l2722>:
    2c80:	d11d80f6 	ldrshle	r8, [sp, -r6]

00002c84 <l2723>:
    2c84:	715d14f6 	ldrshvc	r1, [sp, #-70]	; 0xffffffba

00002c88 <l2724>:
    2c88:	e14d63b0 	strh	r6, [sp, #-48]	; 0xffffffd0

00002c8c <l2725>:
    2c8c:	e3a0c034 	mov	ip, #52	; 0x34

00002c90 <l2726>:
    2c90:	b11d70fc 	ldrshlt	r7, [sp, -ip]

00002c94 <l2727>:
    2c94:	b15d33fa 	ldrshlt	r3, [sp, #-58]	; 0xffffffc6

00002c98 <l2728>:
    2c98:	e3a0e026 	mov	lr, #38	; 0x26

00002c9c <l2729>:
    2c9c:	111d20de 	ldrsbne	r2, [sp, -lr]

00002ca0 <l2730>:
    2ca0:	e3a09006 	mov	r9, #6

00002ca4 <l2731>:
    2ca4:	c10d20b9 	strhgt	r2, [sp, -r9]

00002ca8 <l2732>:
    2ca8:	e3a0a01a 	mov	sl, #26

00002cac <l2733>:
    2cac:	a11d20fa 	ldrshge	r2, [sp, -sl]

00002cb0 <l2734>:
    2cb0:	e3a03034 	mov	r3, #52	; 0x34

00002cb4 <l2735>:
    2cb4:	e11d30b3 	ldrh	r3, [sp, -r3]

00002cb8 <l2736>:
    2cb8:	e14d84b8 	strh	r8, [sp, #-72]	; 0xffffffb8

00002cbc <l2737>:
    2cbc:	e3a0700c 	mov	r7, #12

00002cc0 <l2738>:
    2cc0:	e11dc0f7 	ldrsh	ip, [sp, -r7]

00002cc4 <l2739>:
    2cc4:	e3a0303e 	mov	r3, #62	; 0x3e

00002cc8 <l2740>:
    2cc8:	e10d10b3 	strh	r1, [sp, -r3]

00002ccc <l2741>:
    2ccc:	e3a0702d 	mov	r7, #45	; 0x2d

00002cd0 <l2742>:
    2cd0:	e11d70d7 	ldrsb	r7, [sp, -r7]

00002cd4 <l2743>:
    2cd4:	e15d83f2 	ldrsh	r8, [sp, #-50]	; 0xffffffce

00002cd8 <l2744>:
    2cd8:	e3a01022 	mov	r1, #34	; 0x22

00002cdc <l2745>:
    2cdc:	c11d20f1 	ldrshgt	r2, [sp, -r1]

00002ce0 <l2746>:
    2ce0:	e3a08024 	mov	r8, #36	; 0x24

00002ce4 <l2747>:
    2ce4:	011d40b8 	ldrheq	r4, [sp, -r8]

00002ce8 <l2748>:
    2ce8:	e15d22fc 	ldrsh	r2, [sp, #-44]	; 0xffffffd4

00002cec <l2749>:
    2cec:	e3a0a016 	mov	sl, #22

00002cf0 <l2750>:
    2cf0:	e11d50da 	ldrsb	r5, [sp, -sl]

00002cf4 <l2751>:
    2cf4:	e3a0a04e 	mov	sl, #78	; 0x4e

00002cf8 <l2752>:
    2cf8:	a11de0fa 	ldrshge	lr, [sp, -sl]

00002cfc <l2753>:
    2cfc:	e15d90d9 	ldrsb	r9, [sp, #-9]

00002d00 <l2754>:
    2d00:	415d30fa 	ldrshmi	r3, [sp, #-10]

00002d04 <l2755>:
    2d04:	e3a0101e 	mov	r1, #30

00002d08 <l2756>:
    2d08:	b10d80b1 	strhlt	r8, [sp, -r1]

00002d0c <l2757>:
    2d0c:	e3a04034 	mov	r4, #52	; 0x34

00002d10 <l2758>:
    2d10:	d11d30f4 	ldrshle	r3, [sp, -r4]

00002d14 <l2759>:
    2d14:	d15d81b2 	ldrhle	r8, [sp, #-18]	; 0xffffffee

00002d18 <l2760>:
    2d18:	d15de1b4 	ldrhle	lr, [sp, #-20]	; 0xffffffec

00002d1c <l2761>:
    2d1c:	c15d13bc 	ldrhgt	r1, [sp, #-60]	; 0xffffffc4

00002d20 <l2762>:
    2d20:	514d60bc 	strhpl	r6, [sp, #-12]

00002d24 <l2763>:
    2d24:	e15d80da 	ldrsb	r8, [sp, #-10]

00002d28 <l2764>:
    2d28:	d14d23b4 	strhle	r2, [sp, #-52]	; 0xffffffcc

00002d2c <l2765>:
    2d2c:	e15d83ba 	ldrh	r8, [sp, #-58]	; 0xffffffc6

00002d30 <l2766>:
    2d30:	e3a00042 	mov	r0, #66	; 0x42

00002d34 <l2767>:
    2d34:	a11d20f0 	ldrshge	r2, [sp, -r0]

00002d38 <l2768>:
    2d38:	e3a0500e 	mov	r5, #14

00002d3c <l2769>:
    2d3c:	d11d90f5 	ldrshle	r9, [sp, -r5]

00002d40 <l2770>:
    2d40:	e3a07048 	mov	r7, #72	; 0x48

00002d44 <l2771>:
    2d44:	e11d50f7 	ldrsh	r5, [sp, -r7]

00002d48 <l2772>:
    2d48:	e3a01041 	mov	r1, #65	; 0x41

00002d4c <l2773>:
    2d4c:	e11d40d1 	ldrsb	r4, [sp, -r1]

00002d50 <l2774>:
    2d50:	e3a0b00e 	mov	fp, #14

00002d54 <l2775>:
    2d54:	e11d00bb 	ldrh	r0, [sp, -fp]

00002d58 <l2776>:
    2d58:	e15d51d6 	ldrsb	r5, [sp, #-22]	; 0xffffffea

00002d5c <l2777>:
    2d5c:	e3a03044 	mov	r3, #68	; 0x44

00002d60 <l2778>:
    2d60:	311d40b3 	ldrhcc	r4, [sp, -r3]

00002d64 <l2779>:
    2d64:	e3a0e02c 	mov	lr, #44	; 0x2c

00002d68 <l2780>:
    2d68:	310d00be 	strhcc	r0, [sp, -lr]

00002d6c <l2781>:
    2d6c:	315de2de 	ldrsbcc	lr, [sp, #-46]	; 0xffffffd2

00002d70 <l2782>:
    2d70:	e14d62bc 	strh	r6, [sp, #-44]	; 0xffffffd4

00002d74 <l2783>:
    2d74:	b15d60f8 	ldrshlt	r6, [sp, #-8]

00002d78 <l2784>:
    2d78:	e3a0e035 	mov	lr, #53	; 0x35

00002d7c <l2785>:
    2d7c:	111d90de 	ldrsbne	r9, [sp, -lr]

00002d80 <l2786>:
    2d80:	c14d04b8 	strhgt	r0, [sp, #-72]	; 0xffffffb8

00002d84 <l2787>:
    2d84:	e3a0e02d 	mov	lr, #45	; 0x2d

00002d88 <l2788>:
    2d88:	611de0de 	ldrsbvs	lr, [sp, -lr]

00002d8c <l2789>:
    2d8c:	e3a0803d 	mov	r8, #61	; 0x3d

00002d90 <l2790>:
    2d90:	c11db0d8 	ldrsbgt	fp, [sp, -r8]

00002d94 <l2791>:
    2d94:	e3a0200a 	mov	r2, #10

00002d98 <l2792>:
    2d98:	011d00f2 	ldrsheq	r0, [sp, -r2]

00002d9c <l2793>:
    2d9c:	815d91b8 	ldrhhi	r9, [sp, #-24]	; 0xffffffe8

00002da0 <l2794>:
    2da0:	e15db0fc 	ldrsh	fp, [sp, #-12]

00002da4 <l2795>:
    2da4:	d15d02f2 	ldrshle	r0, [sp, #-34]	; 0xffffffde

00002da8 <l2796>:
    2da8:	e3a08020 	mov	r8, #32

00002dac <l2797>:
    2dac:	810dc0b8 	strhhi	ip, [sp, -r8]

00002db0 <l2798>:
    2db0:	515d60ba 	ldrhpl	r6, [sp, #-10]

00002db4 <l2799>:
    2db4:	e15d24f0 	ldrsh	r2, [sp, #-64]	; 0xffffffc0

00002db8 <l2800>:
    2db8:	c15d61be 	ldrhgt	r6, [sp, #-30]	; 0xffffffe2

00002dbc <l2801>:
    2dbc:	015d22f2 	ldrsheq	r2, [sp, #-34]	; 0xffffffde

00002dc0 <l2802>:
    2dc0:	a14d82bc 	strhge	r8, [sp, #-44]	; 0xffffffd4

00002dc4 <l2803>:
    2dc4:	e3a00036 	mov	r0, #54	; 0x36

00002dc8 <l2804>:
    2dc8:	e10dc0b0 	strh	ip, [sp, -r0]

00002dcc <l2805>:
    2dcc:	e3a0e028 	mov	lr, #40	; 0x28

00002dd0 <l2806>:
    2dd0:	e11db0be 	ldrh	fp, [sp, -lr]

00002dd4 <l2807>:
    2dd4:	e3a0c02f 	mov	ip, #47	; 0x2f

00002dd8 <l2808>:
    2dd8:	011d30dc 	ldrsbeq	r3, [sp, -ip]

00002ddc <l2809>:
    2ddc:	615d75b0 	ldrhvs	r7, [sp, #-80]	; 0xffffffb0

00002de0 <l2810>:
    2de0:	e3a09016 	mov	r9, #22

00002de4 <l2811>:
    2de4:	411d20b9 	ldrhmi	r2, [sp, -r9]

00002de8 <l2812>:
    2de8:	315d52ba 	ldrhcc	r5, [sp, #-42]	; 0xffffffd6

00002dec <l2813>:
    2dec:	214d31b0 	strhcs	r3, [sp, #-16]

00002df0 <l2814>:
    2df0:	e15d84d5 	ldrsb	r8, [sp, #-69]	; 0xffffffbb

00002df4 <l2815>:
    2df4:	914d03b2 	strhls	r0, [sp, #-50]	; 0xffffffce

00002df8 <l2816>:
    2df8:	215d64df 	ldrsbcs	r6, [sp, #-79]	; 0xffffffb1

00002dfc <l2817>:
    2dfc:	e3a0803a 	mov	r8, #58	; 0x3a

00002e00 <l2818>:
    2e00:	211d40b8 	ldrhcs	r4, [sp, -r8]

00002e04 <l2819>:
    2e04:	e3a0c030 	mov	ip, #48	; 0x30

00002e08 <l2820>:
    2e08:	610da0bc 	strhvs	sl, [sp, -ip]

00002e0c <l2821>:
    2e0c:	615d51fa 	ldrshvs	r5, [sp, #-26]	; 0xffffffe6

00002e10 <l2822>:
    2e10:	e15d82ba 	ldrh	r8, [sp, #-42]	; 0xffffffd6

00002e14 <l2823>:
    2e14:	e14d73be 	strh	r7, [sp, #-62]	; 0xffffffc2

00002e18 <l2824>:
    2e18:	e14dc2ba 	strh	ip, [sp, #-42]	; 0xffffffd6

00002e1c <l2825>:
    2e1c:	e3a01026 	mov	r1, #38	; 0x26

00002e20 <l2826>:
    2e20:	e11d10d1 	ldrsb	r1, [sp, -r1]

00002e24 <l2827>:
    2e24:	e3a02046 	mov	r2, #70	; 0x46

00002e28 <l2828>:
    2e28:	e11d40f2 	ldrsh	r4, [sp, -r2]

00002e2c <l2829>:
    2e2c:	e3a0b050 	mov	fp, #80	; 0x50

00002e30 <l2830>:
    2e30:	211de0bb 	ldrhcs	lr, [sp, -fp]

00002e34 <l2831>:
    2e34:	e15da4be 	ldrh	sl, [sp, #-78]	; 0xffffffb2

00002e38 <l2832>:
    2e38:	e3a0504e 	mov	r5, #78	; 0x4e

00002e3c <l2833>:
    2e3c:	e11d60f5 	ldrsh	r6, [sp, -r5]

00002e40 <l2834>:
    2e40:	e3a0a038 	mov	sl, #56	; 0x38

00002e44 <l2835>:
    2e44:	911da0ba 	ldrhls	sl, [sp, -sl]

00002e48 <l2836>:
    2e48:	e15d74d0 	ldrsb	r7, [sp, #-64]	; 0xffffffc0

00002e4c <l2837>:
    2e4c:	715d01ba 	ldrhvc	r0, [sp, #-26]	; 0xffffffe6

00002e50 <l2838>:
    2e50:	e3a08040 	mov	r8, #64	; 0x40

00002e54 <l2839>:
    2e54:	c10d70b8 	strhgt	r7, [sp, -r8]

00002e58 <l2840>:
    2e58:	815d02d0 	ldrsbhi	r0, [sp, #-32]	; 0xffffffe0

00002e5c <l2841>:
    2e5c:	e3a00038 	mov	r0, #56	; 0x38

00002e60 <l2842>:
    2e60:	d10de0b0 	strhle	lr, [sp, -r0]

00002e64 <l2843>:
    2e64:	e15d42d0 	ldrsb	r4, [sp, #-32]	; 0xffffffe0

00002e68 <l2844>:
    2e68:	315d72db 	ldrsbcc	r7, [sp, #-43]	; 0xffffffd5

00002e6c <l2845>:
    2e6c:	e3a05034 	mov	r5, #52	; 0x34

00002e70 <l2846>:
    2e70:	e11d80b5 	ldrh	r8, [sp, -r5]

00002e74 <l2847>:
    2e74:	e14d64ba 	strh	r6, [sp, #-74]	; 0xffffffb6

00002e78 <l2848>:
    2e78:	e3a09048 	mov	r9, #72	; 0x48

00002e7c <l2849>:
    2e7c:	e11d30f9 	ldrsh	r3, [sp, -r9]

00002e80 <l2850>:
    2e80:	715d22b0 	ldrhvc	r2, [sp, #-32]	; 0xffffffe0

00002e84 <l2851>:
    2e84:	e3a0104d 	mov	r1, #77	; 0x4d

00002e88 <l2852>:
    2e88:	e11d40d1 	ldrsb	r4, [sp, -r1]

00002e8c <l2853>:
    2e8c:	515d50d8 	ldrsbpl	r5, [sp, #-8]

00002e90 <l2854>:
    2e90:	e3a03008 	mov	r3, #8

00002e94 <l2855>:
    2e94:	511d50d3 	ldrsbpl	r5, [sp, -r3]

00002e98 <l2856>:
    2e98:	e3a00040 	mov	r0, #64	; 0x40

00002e9c <l2857>:
    2e9c:	b10d70b0 	strhlt	r7, [sp, -r0]

00002ea0 <l2858>:
    2ea0:	e3a0404c 	mov	r4, #76	; 0x4c

00002ea4 <l2859>:
    2ea4:	e11d90f4 	ldrsh	r9, [sp, -r4]

00002ea8 <l2860>:
    2ea8:	e3a09018 	mov	r9, #24

00002eac <l2861>:
    2eac:	411d20b9 	ldrhmi	r2, [sp, -r9]

00002eb0 <l2862>:
    2eb0:	e15d22fa 	ldrsh	r2, [sp, #-42]	; 0xffffffd6

00002eb4 <l2863>:
    2eb4:	615da1b6 	ldrhvs	sl, [sp, #-22]	; 0xffffffea

00002eb8 <l2864>:
    2eb8:	e3a02034 	mov	r2, #52	; 0x34

00002ebc <l2865>:
    2ebc:	c11d50f2 	ldrshgt	r5, [sp, -r2]

00002ec0 <l2866>:
    2ec0:	e3a0202f 	mov	r2, #47	; 0x2f

00002ec4 <l2867>:
    2ec4:	411d30d2 	ldrsbmi	r3, [sp, -r2]

00002ec8 <l2868>:
    2ec8:	e3a0e025 	mov	lr, #37	; 0x25

00002ecc <l2869>:
    2ecc:	011de0de 	ldrsbeq	lr, [sp, -lr]

00002ed0 <l2870>:
    2ed0:	615da1f0 	ldrshvs	sl, [sp, #-16]

00002ed4 <l2871>:
    2ed4:	514d52bc 	strhpl	r5, [sp, #-44]	; 0xffffffd4

00002ed8 <l2872>:
    2ed8:	e3a0e00e 	mov	lr, #14

00002edc <l2873>:
    2edc:	e11d00fe 	ldrsh	r0, [sp, -lr]

00002ee0 <l2874>:
    2ee0:	e14d44b2 	strh	r4, [sp, #-66]	; 0xffffffbe

00002ee4 <l2875>:
    2ee4:	e3a00032 	mov	r0, #50	; 0x32

00002ee8 <l2876>:
    2ee8:	e11d40b0 	ldrh	r4, [sp, -r0]

00002eec <l2877>:
    2eec:	015db4de 	ldrsbeq	fp, [sp, #-78]	; 0xffffffb2

00002ef0 <l2878>:
    2ef0:	815de3d0 	ldrsbhi	lr, [sp, #-48]	; 0xffffffd0

00002ef4 <l2879>:
    2ef4:	e3a07040 	mov	r7, #64	; 0x40

00002ef8 <l2880>:
    2ef8:	910db0b7 	strhls	fp, [sp, -r7]

00002efc <l2881>:
    2efc:	e3a02006 	mov	r2, #6

00002f00 <l2882>:
    2f00:	411d10b2 	ldrhmi	r1, [sp, -r2]

00002f04 <l2883>:
    2f04:	d14d13b8 	strhle	r1, [sp, #-56]	; 0xffffffc8

00002f08 <l2884>:
    2f08:	e3a03036 	mov	r3, #54	; 0x36

00002f0c <l2885>:
    2f0c:	e10d20b3 	strh	r2, [sp, -r3]

00002f10 <l2886>:
    2f10:	e3a0703c 	mov	r7, #60	; 0x3c

00002f14 <l2887>:
    2f14:	911d60f7 	ldrshls	r6, [sp, -r7]

00002f18 <l2888>:
    2f18:	e15d83fa 	ldrsh	r8, [sp, #-58]	; 0xffffffc6

00002f1c <l2889>:
    2f1c:	e3a0002a 	mov	r0, #42	; 0x2a

00002f20 <l2890>:
    2f20:	711d00d0 	ldrsbvc	r0, [sp, -r0]

00002f24 <l2891>:
    2f24:	415dc2f0 	ldrshmi	ip, [sp, #-32]	; 0xffffffe0

00002f28 <l2892>:
    2f28:	015de2b0 	ldrheq	lr, [sp, #-32]	; 0xffffffe0

00002f2c <l2893>:
    2f2c:	e3a08026 	mov	r8, #38	; 0x26

00002f30 <l2894>:
    2f30:	e11dc0f8 	ldrsh	ip, [sp, -r8]

00002f34 <l2895>:
    2f34:	115d64f4 	ldrshne	r6, [sp, #-68]	; 0xffffffbc

00002f38 <l2896>:
    2f38:	e3a0400e 	mov	r4, #14

00002f3c <l2897>:
    2f3c:	a11d10f4 	ldrshge	r1, [sp, -r4]

00002f40 <l2898>:
    2f40:	e3a0602e 	mov	r6, #46	; 0x2e

00002f44 <l2899>:
    2f44:	b10d00b6 	strhlt	r0, [sp, -r6]

00002f48 <l2900>:
    2f48:	e3a0a03e 	mov	sl, #62	; 0x3e

00002f4c <l2901>:
    2f4c:	e11d00da 	ldrsb	r0, [sp, -sl]

00002f50 <l2902>:
    2f50:	e3a08020 	mov	r8, #32

00002f54 <l2903>:
    2f54:	410d80b8 	strhmi	r8, [sp, -r8]

00002f58 <l2904>:
    2f58:	e15d71fe 	ldrsh	r7, [sp, #-30]	; 0xffffffe2

00002f5c <l2905>:
    2f5c:	115dc0b6 	ldrhne	ip, [sp, #-6]

00002f60 <l2906>:
    2f60:	e3a0200e 	mov	r2, #14

00002f64 <l2907>:
    2f64:	e11db0f2 	ldrsh	fp, [sp, -r2]

00002f68 <l2908>:
    2f68:	e3a0800a 	mov	r8, #10

00002f6c <l2909>:
    2f6c:	911d30b8 	ldrhls	r3, [sp, -r8]

00002f70 <l2910>:
    2f70:	e3a02018 	mov	r2, #24

00002f74 <l2911>:
    2f74:	e11d00f2 	ldrsh	r0, [sp, -r2]

00002f78 <l2912>:
    2f78:	e15d11b0 	ldrh	r1, [sp, #-16]

00002f7c <l2913>:
    2f7c:	e3a01040 	mov	r1, #64	; 0x40

00002f80 <l2914>:
    2f80:	e11d80f1 	ldrsh	r8, [sp, -r1]

00002f84 <l2915>:
    2f84:	e3a0a01e 	mov	sl, #30

00002f88 <l2916>:
    2f88:	811d70ba 	ldrhhi	r7, [sp, -sl]

00002f8c <l2917>:
    2f8c:	e3a02022 	mov	r2, #34	; 0x22

00002f90 <l2918>:
    2f90:	e11d90b2 	ldrh	r9, [sp, -r2]

00002f94 <l2919>:
    2f94:	414d33b2 	strhmi	r3, [sp, #-50]	; 0xffffffce

00002f98 <l2920>:
    2f98:	e3a05029 	mov	r5, #41	; 0x29

00002f9c <l2921>:
    2f9c:	611d40d5 	ldrsbvs	r4, [sp, -r5]

00002fa0 <l2922>:
    2fa0:	e3a0602e 	mov	r6, #46	; 0x2e

00002fa4 <l2923>:
    2fa4:	e11dc0f6 	ldrsh	ip, [sp, -r6]

00002fa8 <l2924>:
    2fa8:	715d91b0 	ldrhvc	r9, [sp, #-16]

00002fac <l2925>:
    2fac:	815d90ba 	ldrhhi	r9, [sp, #-10]

00002fb0 <l2926>:
    2fb0:	e14d72b8 	strh	r7, [sp, #-40]	; 0xffffffd8

00002fb4 <l2927>:
    2fb4:	e3a0702e 	mov	r7, #46	; 0x2e

00002fb8 <l2928>:
    2fb8:	011d60f7 	ldrsheq	r6, [sp, -r7]

00002fbc <l2929>:
    2fbc:	e3a0103b 	mov	r1, #59	; 0x3b

00002fc0 <l2930>:
    2fc0:	e11d20d1 	ldrsb	r2, [sp, -r1]

00002fc4 <l2931>:
    2fc4:	e15db1b0 	ldrh	fp, [sp, #-16]

00002fc8 <l2932>:
    2fc8:	a15db2df 	ldrsbge	fp, [sp, #-47]	; 0xffffffd1

00002fcc <l2933>:
    2fcc:	e15d83f0 	ldrsh	r8, [sp, #-48]	; 0xffffffd0

00002fd0 <l2934>:
    2fd0:	e15d54fc 	ldrsh	r5, [sp, #-76]	; 0xffffffb4

00002fd4 <l2935>:
    2fd4:	e3a08022 	mov	r8, #34	; 0x22

00002fd8 <l2936>:
    2fd8:	e11de0b8 	ldrh	lr, [sp, -r8]

00002fdc <l2937>:
    2fdc:	e3a0002e 	mov	r0, #46	; 0x2e

00002fe0 <l2938>:
    2fe0:	011d50d0 	ldrsbeq	r5, [sp, -r0]

00002fe4 <l2939>:
    2fe4:	e15dc0ba 	ldrh	ip, [sp, #-10]

00002fe8 <l2940>:
    2fe8:	e3a08050 	mov	r8, #80	; 0x50

00002fec <l2941>:
    2fec:	e11d40d8 	ldrsb	r4, [sp, -r8]

00002ff0 <l2942>:
    2ff0:	e3a0e022 	mov	lr, #34	; 0x22

00002ff4 <l2943>:
    2ff4:	710d50be 	strhvc	r5, [sp, -lr]

00002ff8 <l2944>:
    2ff8:	e3a0c014 	mov	ip, #20

00002ffc <l2945>:
    2ffc:	211d00bc 	ldrhcs	r0, [sp, -ip]

00003000 <l2946>:
    3000:	e3a09020 	mov	r9, #32

00003004 <l2947>:
    3004:	e11d30d9 	ldrsb	r3, [sp, -r9]

00003008 <l2948>:
    3008:	e15dc3fe 	ldrsh	ip, [sp, #-62]	; 0xffffffc2

0000300c <l2949>:
    300c:	e3a0401a 	mov	r4, #26

00003010 <l2950>:
    3010:	011dc0b4 	ldrheq	ip, [sp, -r4]

00003014 <l2951>:
    3014:	e3a0c020 	mov	ip, #32

00003018 <l2952>:
    3018:	e10dc0bc 	strh	ip, [sp, -ip]

0000301c <l2953>:
    301c:	e3a0b03a 	mov	fp, #58	; 0x3a

00003020 <l2954>:
    3020:	d11d10bb 	ldrhle	r1, [sp, -fp]

00003024 <l2955>:
    3024:	e3a04033 	mov	r4, #51	; 0x33

00003028 <l2956>:
    3028:	a11d90d4 	ldrsbge	r9, [sp, -r4]

0000302c <l2957>:
    302c:	e15da2de 	ldrsb	sl, [sp, #-46]	; 0xffffffd2

00003030 <l2958>:
    3030:	e15d01f2 	ldrsh	r0, [sp, #-18]	; 0xffffffee

00003034 <l2959>:
    3034:	e14d63ba 	strh	r6, [sp, #-58]	; 0xffffffc6

00003038 <l2960>:
    3038:	e3a0b021 	mov	fp, #33	; 0x21

0000303c <l2961>:
    303c:	a11d90db 	ldrsbge	r9, [sp, -fp]

00003040 <l2962>:
    3040:	e3a06043 	mov	r6, #67	; 0x43

00003044 <l2963>:
    3044:	e11db0d6 	ldrsb	fp, [sp, -r6]

00003048 <l2964>:
    3048:	e3a04009 	mov	r4, #9

0000304c <l2965>:
    304c:	a11db0d4 	ldrsbge	fp, [sp, -r4]

00003050 <l2966>:
    3050:	d15de2b2 	ldrhle	lr, [sp, #-34]	; 0xffffffde

00003054 <l2967>:
    3054:	e15d12be 	ldrh	r1, [sp, #-46]	; 0xffffffd2

00003058 <l2968>:
    3058:	e3a0104a 	mov	r1, #74	; 0x4a

0000305c <l2969>:
    305c:	e11d90d1 	ldrsb	r9, [sp, -r1]

00003060 <l2970>:
    3060:	e3a04015 	mov	r4, #21

00003064 <l2971>:
    3064:	111db0d4 	ldrsbne	fp, [sp, -r4]

00003068 <l2972>:
    3068:	e3a0a049 	mov	sl, #73	; 0x49

0000306c <l2973>:
    306c:	e11d50da 	ldrsb	r5, [sp, -sl]

00003070 <l2974>:
    3070:	e3a0901a 	mov	r9, #26

00003074 <l2975>:
    3074:	e11d40f9 	ldrsh	r4, [sp, -r9]

00003078 <l2976>:
    3078:	e15d21bc 	ldrh	r2, [sp, #-28]	; 0xffffffe4

0000307c <l2977>:
    307c:	e3a0a016 	mov	sl, #22

00003080 <l2978>:
    3080:	a11d50da 	ldrsbge	r5, [sp, -sl]

00003084 <l2979>:
    3084:	e15dc1f0 	ldrsh	ip, [sp, #-16]

00003088 <l2980>:
    3088:	e3a0602c 	mov	r6, #44	; 0x2c

0000308c <l2981>:
    308c:	411de0d6 	ldrsbmi	lr, [sp, -r6]

00003090 <l2982>:
    3090:	d15d02d3 	ldrsble	r0, [sp, #-35]	; 0xffffffdd

00003094 <l2983>:
    3094:	e15d44fe 	ldrsh	r4, [sp, #-78]	; 0xffffffb2

00003098 <l2984>:
    3098:	e3a07042 	mov	r7, #66	; 0x42

0000309c <l2985>:
    309c:	e11de0b7 	ldrh	lr, [sp, -r7]

000030a0 <l2986>:
    30a0:	e3a0a00c 	mov	sl, #12

000030a4 <l2987>:
    30a4:	411d40fa 	ldrshmi	r4, [sp, -sl]

000030a8 <l2988>:
    30a8:	e3a07017 	mov	r7, #23

000030ac <l2989>:
    30ac:	211d60d7 	ldrsbcs	r6, [sp, -r7]

000030b0 <l2990>:
    30b0:	915d82d3 	ldrsbls	r8, [sp, #-35]	; 0xffffffdd

000030b4 <l2991>:
    30b4:	e3a0b03a 	mov	fp, #58	; 0x3a

000030b8 <l2992>:
    30b8:	e10da0bb 	strh	sl, [sp, -fp]

000030bc <l2993>:
    30bc:	714d23b0 	strhvc	r2, [sp, #-48]	; 0xffffffd0

000030c0 <l2994>:
    30c0:	615d22f2 	ldrshvs	r2, [sp, #-34]	; 0xffffffde

000030c4 <l2995>:
    30c4:	e3a08018 	mov	r8, #24

000030c8 <l2996>:
    30c8:	711db0f8 	ldrshvc	fp, [sp, -r8]

000030cc <l2997>:
    30cc:	e3a07023 	mov	r7, #35	; 0x23

000030d0 <l2998>:
    30d0:	e11d50d7 	ldrsb	r5, [sp, -r7]

000030d4 <l2999>:
    30d4:	014d73b2 	strheq	r7, [sp, #-50]	; 0xffffffce

000030d8 <l3000>:
    30d8:	e3a07008 	mov	r7, #8

000030dc <l3001>:
    30dc:	e11de0d7 	ldrsb	lr, [sp, -r7]

000030e0 <l3002>:
    30e0:	e3a07040 	mov	r7, #64	; 0x40

000030e4 <l3003>:
    30e4:	d10d60b7 	strhle	r6, [sp, -r7]

000030e8 <l3004>:
    30e8:	e3a02016 	mov	r2, #22

000030ec <l3005>:
    30ec:	a10de0b2 	strhge	lr, [sp, -r2]

000030f0 <l3006>:
    30f0:	e3a02020 	mov	r2, #32

000030f4 <l3007>:
    30f4:	611d00b2 	ldrhvs	r0, [sp, -r2]

000030f8 <l3008>:
    30f8:	815de4b6 	ldrhhi	lr, [sp, #-70]	; 0xffffffba

000030fc <l3009>:
    30fc:	e3a0c04e 	mov	ip, #78	; 0x4e

00003100 <l3010>:
    3100:	d11d30fc 	ldrshle	r3, [sp, -ip]

00003104 <l3011>:
    3104:	e3a0b042 	mov	fp, #66	; 0x42

00003108 <l3012>:
    3108:	411d30fb 	ldrshmi	r3, [sp, -fp]

0000310c <l3013>:
    310c:	e3a08030 	mov	r8, #48	; 0x30

00003110 <l3014>:
    3110:	e11d10b8 	ldrh	r1, [sp, -r8]

00003114 <l3015>:
    3114:	e3a02022 	mov	r2, #34	; 0x22

00003118 <l3016>:
    3118:	411d20b2 	ldrhmi	r2, [sp, -r2]

0000311c <l3017>:
    311c:	e3a0a008 	mov	sl, #8

00003120 <l3018>:
    3120:	e11da0fa 	ldrsh	sl, [sp, -sl]

00003124 <l3019>:
    3124:	615d04f2 	ldrshvs	r0, [sp, #-66]	; 0xffffffbe

00003128 <l3020>:
    3128:	015d20da 	ldrsbeq	r2, [sp, #-10]

0000312c <l3021>:
    312c:	e15d80ba 	ldrh	r8, [sp, #-10]

00003130 <l3022>:
    3130:	e3a08010 	mov	r8, #16

00003134 <l3023>:
    3134:	e10d20b8 	strh	r2, [sp, -r8]

00003138 <l3024>:
    3138:	a15d32de 	ldrsbge	r3, [sp, #-46]	; 0xffffffd2

0000313c <l3025>:
    313c:	e3a0c03e 	mov	ip, #62	; 0x3e

00003140 <l3026>:
    3140:	e10d00bc 	strh	r0, [sp, -ip]

00003144 <l3027>:
    3144:	514d10ba 	strhpl	r1, [sp, #-10]

00003148 <l3028>:
    3148:	e3a01036 	mov	r1, #54	; 0x36

0000314c <l3029>:
    314c:	710dc0b1 	strhvc	ip, [sp, -r1]

00003150 <l3030>:
    3150:	e3a03032 	mov	r3, #50	; 0x32

00003154 <l3031>:
    3154:	611da0b3 	ldrhvs	sl, [sp, -r3]

00003158 <l3032>:
    3158:	215de2d6 	ldrsbcs	lr, [sp, #-38]	; 0xffffffda

0000315c <l3033>:
    315c:	e15da1b4 	ldrh	sl, [sp, #-20]	; 0xffffffec

00003160 <l3034>:
    3160:	e15d83d9 	ldrsb	r8, [sp, #-57]	; 0xffffffc7

00003164 <l3035>:
    3164:	e3a0c00c 	mov	ip, #12

00003168 <l3036>:
    3168:	e11db0bc 	ldrh	fp, [sp, -ip]

0000316c <l3037>:
    316c:	e3a0400a 	mov	r4, #10

00003170 <l3038>:
    3170:	411d00f4 	ldrshmi	r0, [sp, -r4]

00003174 <l3039>:
    3174:	c15d74d8 	ldrsbgt	r7, [sp, #-72]	; 0xffffffb8

00003178 <l3040>:
    3178:	e3a04029 	mov	r4, #41	; 0x29

0000317c <l3041>:
    317c:	411de0d4 	ldrsbmi	lr, [sp, -r4]

00003180 <l3042>:
    3180:	e3a04042 	mov	r4, #66	; 0x42

00003184 <l3043>:
    3184:	b11d30f4 	ldrshlt	r3, [sp, -r4]

00003188 <l3044>:
    3188:	c14d80ba 	strhgt	r8, [sp, #-10]

0000318c <l3045>:
    318c:	e14d51b0 	strh	r5, [sp, #-16]

00003190 <l3046>:
    3190:	e15dc2f0 	ldrsh	ip, [sp, #-32]	; 0xffffffe0

00003194 <l3047>:
    3194:	515d91b4 	ldrhpl	r9, [sp, #-20]	; 0xffffffec

00003198 <l3048>:
    3198:	e15d81ba 	ldrh	r8, [sp, #-26]	; 0xffffffe6

0000319c <l3049>:
    319c:	e3a0902c 	mov	r9, #44	; 0x2c

000031a0 <l3050>:
    31a0:	111d00d9 	ldrsbne	r0, [sp, -r9]

000031a4 <l3051>:
    31a4:	a15d61d1 	ldrsbge	r6, [sp, #-17]	; 0xffffffef

000031a8 <l3052>:
    31a8:	e3a0504e 	mov	r5, #78	; 0x4e

000031ac <l3053>:
    31ac:	e11d30b5 	ldrh	r3, [sp, -r5]

000031b0 <l3054>:
    31b0:	715d02da 	ldrsbvc	r0, [sp, #-42]	; 0xffffffd6

000031b4 <l3055>:
    31b4:	e3a07008 	mov	r7, #8

000031b8 <l3056>:
    31b8:	e11d00b7 	ldrh	r0, [sp, -r7]

000031bc <l3057>:
    31bc:	515db3f8 	ldrshpl	fp, [sp, #-56]	; 0xffffffc8

000031c0 <l3058>:
    31c0:	e3a05028 	mov	r5, #40	; 0x28

000031c4 <l3059>:
    31c4:	e11dc0d5 	ldrsb	ip, [sp, -r5]

000031c8 <l3060>:
    31c8:	e3a03018 	mov	r3, #24

000031cc <l3061>:
    31cc:	e11d40b3 	ldrh	r4, [sp, -r3]

000031d0 <l3062>:
    31d0:	e3a06032 	mov	r6, #50	; 0x32

000031d4 <l3063>:
    31d4:	e10d00b6 	strh	r0, [sp, -r6]

000031d8 <l3064>:
    31d8:	415d42df 	ldrsbmi	r4, [sp, #-47]	; 0xffffffd1

000031dc <l3065>:
    31dc:	e3a0700c 	mov	r7, #12

000031e0 <l3066>:
    31e0:	e11d80d7 	ldrsb	r8, [sp, -r7]

000031e4 <l3067>:
    31e4:	215d62fc 	ldrshcs	r6, [sp, #-44]	; 0xffffffd4

000031e8 <l3068>:
    31e8:	e3a0e037 	mov	lr, #55	; 0x37

000031ec <l3069>:
    31ec:	211d10de 	ldrsbcs	r1, [sp, -lr]

000031f0 <l3070>:
    31f0:	e15de1fa 	ldrsh	lr, [sp, #-26]	; 0xffffffe6

000031f4 <l3071>:
    31f4:	e3a0a00e 	mov	sl, #14

000031f8 <l3072>:
    31f8:	e11d90ba 	ldrh	r9, [sp, -sl]

000031fc <l3073>:
    31fc:	215d20d7 	ldrsbcs	r2, [sp, #-7]

00003200 <l3074>:
    3200:	e3a08048 	mov	r8, #72	; 0x48

00003204 <l3075>:
    3204:	e11d50b8 	ldrh	r5, [sp, -r8]

00003208 <l3076>:
    3208:	e15d42f0 	ldrsh	r4, [sp, #-32]	; 0xffffffe0

0000320c <l3077>:
    320c:	e3a0c010 	mov	ip, #16

00003210 <l3078>:
    3210:	e11db0fc 	ldrsh	fp, [sp, -ip]

00003214 <l3079>:
    3214:	e3a0502a 	mov	r5, #42	; 0x2a

00003218 <l3080>:
    3218:	310d00b5 	strhcc	r0, [sp, -r5]

0000321c <l3081>:
    321c:	e3a0100a 	mov	r1, #10

00003220 <l3082>:
    3220:	e11d90f1 	ldrsh	r9, [sp, -r1]

00003224 <l3083>:
    3224:	e14dc0ba 	strh	ip, [sp, #-10]

00003228 <l3084>:
    3228:	e3a01010 	mov	r1, #16

0000322c <l3085>:
    322c:	e11da0b1 	ldrh	sl, [sp, -r1]

00003230 <l3086>:
    3230:	e14dc3b4 	strh	ip, [sp, #-52]	; 0xffffffcc

00003234 <l3087>:
    3234:	e3a0702a 	mov	r7, #42	; 0x2a

00003238 <l3088>:
    3238:	e11d90b7 	ldrh	r9, [sp, -r7]

0000323c <l3089>:
    323c:	e15d83f0 	ldrsh	r8, [sp, #-48]	; 0xffffffd0

00003240 <l3090>:
    3240:	e3a02044 	mov	r2, #68	; 0x44

00003244 <l3091>:
    3244:	011d70d2 	ldrsbeq	r7, [sp, -r2]

00003248 <l3092>:
    3248:	e3a0404f 	mov	r4, #79	; 0x4f

0000324c <l3093>:
    324c:	511d30d4 	ldrsbpl	r3, [sp, -r4]

00003250 <l3094>:
    3250:	e3a02034 	mov	r2, #52	; 0x34

00003254 <l3095>:
    3254:	611d60b2 	ldrhvs	r6, [sp, -r2]

00003258 <l3096>:
    3258:	e3a0003f 	mov	r0, #63	; 0x3f

0000325c <l3097>:
    325c:	511d50d0 	ldrsbpl	r5, [sp, -r0]

00003260 <l3098>:
    3260:	014dc3b8 	strheq	ip, [sp, #-56]	; 0xffffffc8

00003264 <l3099>:
    3264:	e3a01016 	mov	r1, #22

00003268 <l3100>:
    3268:	311d50f1 	ldrshcc	r5, [sp, -r1]

0000326c <l3101>:
    326c:	e3a0203e 	mov	r2, #62	; 0x3e

00003270 <l3102>:
    3270:	e10dc0b2 	strh	ip, [sp, -r2]

00003274 <l3103>:
    3274:	e3a08010 	mov	r8, #16

00003278 <l3104>:
    3278:	411d90b8 	ldrhmi	r9, [sp, -r8]

0000327c <l3105>:
    327c:	e3a0300c 	mov	r3, #12

00003280 <l3106>:
    3280:	511d00d3 	ldrsbpl	r0, [sp, -r3]

00003284 <l3107>:
    3284:	e3a0e038 	mov	lr, #56	; 0x38

00003288 <l3108>:
    3288:	711db0de 	ldrsbvc	fp, [sp, -lr]

0000328c <l3109>:
    328c:	e15da1d5 	ldrsb	sl, [sp, #-21]	; 0xffffffeb

00003290 <l3110>:
    3290:	e15d31d3 	ldrsb	r3, [sp, #-19]	; 0xffffffed

00003294 <l3111>:
    3294:	e15d22f0 	ldrsh	r2, [sp, #-32]	; 0xffffffe0

00003298 <l3112>:
    3298:	e15d51dc 	ldrsb	r5, [sp, #-28]	; 0xffffffe4

0000329c <l3113>:
    329c:	e3a0604a 	mov	r6, #74	; 0x4a

000032a0 <l3114>:
    32a0:	e11db0b6 	ldrh	fp, [sp, -r6]

000032a4 <l3115>:
    32a4:	015d12b6 	ldrheq	r1, [sp, #-38]	; 0xffffffda

000032a8 <l3116>:
    32a8:	e3a0700c 	mov	r7, #12

000032ac <l3117>:
    32ac:	410d10b7 	strhmi	r1, [sp, -r7]

000032b0 <l3118>:
    32b0:	e3a00014 	mov	r0, #20

000032b4 <l3119>:
    32b4:	910d50b0 	strhls	r5, [sp, -r0]

000032b8 <l3120>:
    32b8:	615de3fe 	ldrshvs	lr, [sp, #-62]	; 0xffffffc2

000032bc <l3121>:
    32bc:	d15d91f8 	ldrshle	r9, [sp, #-24]	; 0xffffffe8

000032c0 <l3122>:
    32c0:	e3a0e014 	mov	lr, #20

000032c4 <l3123>:
    32c4:	e11d00fe 	ldrsh	r0, [sp, -lr]

000032c8 <l3124>:
    32c8:	615d51f8 	ldrshvs	r5, [sp, #-24]	; 0xffffffe8

000032cc <l3125>:
    32cc:	e3a0b02c 	mov	fp, #44	; 0x2c

000032d0 <l3126>:
    32d0:	e10d00bb 	strh	r0, [sp, -fp]

000032d4 <l3127>:
    32d4:	e3a0e040 	mov	lr, #64	; 0x40

000032d8 <l3128>:
    32d8:	910d00be 	strhls	r0, [sp, -lr]

000032dc <l3129>:
    32dc:	e3a0b010 	mov	fp, #16

000032e0 <l3130>:
    32e0:	e10d90bb 	strh	r9, [sp, -fp]

000032e4 <l3131>:
    32e4:	e3a0b04a 	mov	fp, #74	; 0x4a

000032e8 <l3132>:
    32e8:	211d50bb 	ldrhcs	r5, [sp, -fp]

000032ec <l3133>:
    32ec:	e3a0c006 	mov	ip, #6

000032f0 <l3134>:
    32f0:	e11d40dc 	ldrsb	r4, [sp, -ip]

000032f4 <l3135>:
    32f4:	e3a05019 	mov	r5, #25

000032f8 <l3136>:
    32f8:	e11d70d5 	ldrsb	r7, [sp, -r5]

000032fc <l3137>:
    32fc:	e3a0a006 	mov	sl, #6

00003300 <l3138>:
    3300:	e11d80fa 	ldrsh	r8, [sp, -sl]

00003304 <l3139>:
    3304:	e3a0204f 	mov	r2, #79	; 0x4f

00003308 <l3140>:
    3308:	111d70d2 	ldrsbne	r7, [sp, -r2]

0000330c <l3141>:
    330c:	e3a07042 	mov	r7, #66	; 0x42

00003310 <l3142>:
    3310:	e11d30d7 	ldrsb	r3, [sp, -r7]

00003314 <l3143>:
    3314:	414d30b6 	strhmi	r3, [sp, #-6]

00003318 <l3144>:
    3318:	815d21df 	ldrsbhi	r2, [sp, #-31]	; 0xffffffe1

0000331c <l3145>:
    331c:	e3a03044 	mov	r3, #68	; 0x44

00003320 <l3146>:
    3320:	111d40b3 	ldrhne	r4, [sp, -r3]

00003324 <l3147>:
    3324:	e15da2d0 	ldrsb	sl, [sp, #-32]	; 0xffffffe0

00003328 <l3148>:
    3328:	215db3df 	ldrsbcs	fp, [sp, #-63]	; 0xffffffc1

0000332c <l3149>:
    332c:	e3a0a04e 	mov	sl, #78	; 0x4e

00003330 <l3150>:
    3330:	d10de0ba 	strhle	lr, [sp, -sl]

00003334 <l3151>:
    3334:	e3a06014 	mov	r6, #20

00003338 <l3152>:
    3338:	e10d50b6 	strh	r5, [sp, -r6]

0000333c <l3153>:
    333c:	e3a0004f 	mov	r0, #79	; 0x4f

00003340 <l3154>:
    3340:	811da0d0 	ldrsbhi	sl, [sp, -r0]

00003344 <l3155>:
    3344:	e14de4b6 	strh	lr, [sp, #-70]	; 0xffffffba

00003348 <l3156>:
    3348:	e3a0a018 	mov	sl, #24

0000334c <l3157>:
    334c:	e10d30ba 	strh	r3, [sp, -sl]

00003350 <l3158>:
    3350:	e3a0304c 	mov	r3, #76	; 0x4c

00003354 <l3159>:
    3354:	e11de0b3 	ldrh	lr, [sp, -r3]

00003358 <l3160>:
    3358:	e3a05028 	mov	r5, #40	; 0x28

0000335c <l3161>:
    335c:	e11d20b5 	ldrh	r2, [sp, -r5]

00003360 <l3162>:
    3360:	e14d23bc 	strh	r2, [sp, #-60]	; 0xffffffc4

00003364 <l3163>:
    3364:	e3a0c015 	mov	ip, #21

00003368 <l3164>:
    3368:	c11de0dc 	ldrsbgt	lr, [sp, -ip]

0000336c <l3165>:
    336c:	715de3f2 	ldrshvc	lr, [sp, #-50]	; 0xffffffce

00003370 <l3166>:
    3370:	e3a03042 	mov	r3, #66	; 0x42

00003374 <l3167>:
    3374:	711d60d3 	ldrsbvc	r6, [sp, -r3]

00003378 <l3168>:
    3378:	e3a0901c 	mov	r9, #28

0000337c <l3169>:
    337c:	110d40b9 	strhne	r4, [sp, -r9]

00003380 <l3170>:
    3380:	e3a0902e 	mov	r9, #46	; 0x2e

00003384 <l3171>:
    3384:	e11d00f9 	ldrsh	r0, [sp, -r9]

00003388 <l3172>:
    3388:	215d60d5 	ldrsbcs	r6, [sp, #-5]

0000338c <l3173>:
    338c:	e3a0a032 	mov	sl, #50	; 0x32

00003390 <l3174>:
    3390:	e11d10ba 	ldrh	r1, [sp, -sl]

00003394 <l3175>:
    3394:	c14dc3b0 	strhgt	ip, [sp, #-48]	; 0xffffffd0

00003398 <l3176>:
    3398:	715d11ba 	ldrhvc	r1, [sp, #-26]	; 0xffffffe6

0000339c <l3177>:
    339c:	e3a01025 	mov	r1, #37	; 0x25

000033a0 <l3178>:
    33a0:	711d90d1 	ldrsbvc	r9, [sp, -r1]

000033a4 <l3179>:
    33a4:	b15da3d4 	ldrsblt	sl, [sp, #-52]	; 0xffffffcc

000033a8 <l3180>:
    33a8:	e15d21f2 	ldrsh	r2, [sp, #-18]	; 0xffffffee

000033ac <l3181>:
    33ac:	e15d31d8 	ldrsb	r3, [sp, #-24]	; 0xffffffe8

000033b0 <l3182>:
    33b0:	e14de3be 	strh	lr, [sp, #-62]	; 0xffffffc2

000033b4 <l3183>:
    33b4:	e3a0c03e 	mov	ip, #62	; 0x3e

000033b8 <l3184>:
    33b8:	e10d40bc 	strh	r4, [sp, -ip]

000033bc <l3185>:
    33bc:	e15d70fe 	ldrsh	r7, [sp, #-14]

000033c0 <l3186>:
    33c0:	e3a09022 	mov	r9, #34	; 0x22

000033c4 <l3187>:
    33c4:	e11d50f9 	ldrsh	r5, [sp, -r9]

000033c8 <l3188>:
    33c8:	e3a0e01e 	mov	lr, #30

000033cc <l3189>:
    33cc:	e11d80be 	ldrh	r8, [sp, -lr]

000033d0 <l3190>:
    33d0:	e15d12d7 	ldrsb	r1, [sp, #-39]	; 0xffffffd9

000033d4 <l3191>:
    33d4:	e3a06018 	mov	r6, #24

000033d8 <l3192>:
    33d8:	110d90b6 	strhne	r9, [sp, -r6]

000033dc <l3193>:
    33dc:	e3a07048 	mov	r7, #72	; 0x48

000033e0 <l3194>:
    33e0:	610d80b7 	strhvs	r8, [sp, -r7]

000033e4 <l3195>:
    33e4:	e15d23f2 	ldrsh	r2, [sp, #-50]	; 0xffffffce

000033e8 <l3196>:
    33e8:	e3a01009 	mov	r1, #9

000033ec <l3197>:
    33ec:	e11d00d1 	ldrsb	r0, [sp, -r1]

000033f0 <l3198>:
    33f0:	e3a08048 	mov	r8, #72	; 0x48

000033f4 <l3199>:
    33f4:	c11d70f8 	ldrshgt	r7, [sp, -r8]

000033f8 <l3200>:
    33f8:	e15d14f4 	ldrsh	r1, [sp, #-68]	; 0xffffffbc

000033fc <l3201>:
    33fc:	e3a01012 	mov	r1, #18

00003400 <l3202>:
    3400:	211d60d1 	ldrsbcs	r6, [sp, -r1]

00003404 <l3203>:
    3404:	c14d12b0 	strhgt	r1, [sp, #-32]	; 0xffffffe0

00003408 <l3204>:
    3408:	e3a03046 	mov	r3, #70	; 0x46

0000340c <l3205>:
    340c:	e10d80b3 	strh	r8, [sp, -r3]

00003410 <l3206>:
    3410:	315da2f6 	ldrshcc	sl, [sp, #-38]	; 0xffffffda

00003414 <l3207>:
    3414:	e3a02018 	mov	r2, #24

00003418 <l3208>:
    3418:	e10da0b2 	strh	sl, [sp, -r2]

0000341c <l3209>:
    341c:	e3a0703e 	mov	r7, #62	; 0x3e

00003420 <l3210>:
    3420:	510d10b7 	strhpl	r1, [sp, -r7]

00003424 <l3211>:
    3424:	e15d54f6 	ldrsh	r5, [sp, #-70]	; 0xffffffba

00003428 <l3212>:
    3428:	e15d74ba 	ldrh	r7, [sp, #-74]	; 0xffffffb6

0000342c <l3213>:
    342c:	e15d20b8 	ldrh	r2, [sp, #-8]

00003430 <l3214>:
    3430:	e3a0e00a 	mov	lr, #10

00003434 <l3215>:
    3434:	811d10be 	ldrhhi	r1, [sp, -lr]

00003438 <l3216>:
    3438:	e3a0601e 	mov	r6, #30

0000343c <l3217>:
    343c:	e11da0b6 	ldrh	sl, [sp, -r6]

00003440 <l3218>:
    3440:	215d81b8 	ldrhcs	r8, [sp, #-24]	; 0xffffffe8

00003444 <l3219>:
    3444:	e15de1ba 	ldrh	lr, [sp, #-26]	; 0xffffffe6

00003448 <l3220>:
    3448:	e3a09020 	mov	r9, #32

0000344c <l3221>:
    344c:	e11d70f9 	ldrsh	r7, [sp, -r9]

00003450 <l3222>:
    3450:	e3a01012 	mov	r1, #18

00003454 <l3223>:
    3454:	e10de0b1 	strh	lr, [sp, -r1]

00003458 <l3224>:
    3458:	e15d21b4 	ldrh	r2, [sp, #-20]	; 0xffffffec

0000345c <l3225>:
    345c:	e14d93ba 	strh	r9, [sp, #-58]	; 0xffffffc6

00003460 <l3226>:
    3460:	014de4ba 	strheq	lr, [sp, #-74]	; 0xffffffb6

00003464 <l3227>:
    3464:	e3a0500e 	mov	r5, #14

00003468 <l3228>:
    3468:	211d10f5 	ldrshcs	r1, [sp, -r5]

0000346c <l3229>:
    346c:	e15d42f6 	ldrsh	r4, [sp, #-38]	; 0xffffffda

00003470 <l3230>:
    3470:	e3a06034 	mov	r6, #52	; 0x34

00003474 <l3231>:
    3474:	e11db0b6 	ldrh	fp, [sp, -r6]

00003478 <l3232>:
    3478:	e3a0c014 	mov	ip, #20

0000347c <l3233>:
    347c:	711d00fc 	ldrshvc	r0, [sp, -ip]

00003480 <l3234>:
    3480:	c15d30da 	ldrsbgt	r3, [sp, #-10]

00003484 <l3235>:
    3484:	e15d31d8 	ldrsb	r3, [sp, #-24]	; 0xffffffe8

00003488 <l3236>:
    3488:	e3a0904e 	mov	r9, #78	; 0x4e

0000348c <l3237>:
    348c:	c10d20b9 	strhgt	r2, [sp, -r9]

00003490 <l3238>:
    3490:	e3a0301b 	mov	r3, #27

00003494 <l3239>:
    3494:	111d60d3 	ldrsbne	r6, [sp, -r3]

00003498 <l3240>:
    3498:	215d64de 	ldrsbcs	r6, [sp, #-78]	; 0xffffffb2

0000349c <l3241>:
    349c:	e15db3f6 	ldrsh	fp, [sp, #-54]	; 0xffffffca

000034a0 <l3242>:
    34a0:	715d71be 	ldrhvc	r7, [sp, #-30]	; 0xffffffe2

000034a4 <l3243>:
    34a4:	e3a0b018 	mov	fp, #24

000034a8 <l3244>:
    34a8:	e10d90bb 	strh	r9, [sp, -fp]

000034ac <l3245>:
    34ac:	e15d31db 	ldrsb	r3, [sp, #-27]	; 0xffffffe5

000034b0 <l3246>:
    34b0:	e3a0300e 	mov	r3, #14

000034b4 <l3247>:
    34b4:	e10d60b3 	strh	r6, [sp, -r3]

000034b8 <l3248>:
    34b8:	314d53b4 	strhcc	r5, [sp, #-52]	; 0xffffffcc

000034bc <l3249>:
    34bc:	415d43fa 	ldrshmi	r4, [sp, #-58]	; 0xffffffc6

000034c0 <l3250>:
    34c0:	e15d21d5 	ldrsb	r2, [sp, #-21]	; 0xffffffeb

000034c4 <l3251>:
    34c4:	e3a01012 	mov	r1, #18

000034c8 <l3252>:
    34c8:	e11d50b1 	ldrh	r5, [sp, -r1]

000034cc <l3253>:
    34cc:	e3a02028 	mov	r2, #40	; 0x28

000034d0 <l3254>:
    34d0:	a11de0d2 	ldrsbge	lr, [sp, -r2]

000034d4 <l3255>:
    34d4:	e15d03b6 	ldrh	r0, [sp, #-54]	; 0xffffffca

000034d8 <l3256>:
    34d8:	e15d40ba 	ldrh	r4, [sp, #-10]

000034dc <l3257>:
    34dc:	e3a04022 	mov	r4, #34	; 0x22

000034e0 <l3258>:
    34e0:	011d30f4 	ldrsheq	r3, [sp, -r4]

000034e4 <l3259>:
    34e4:	515d43f2 	ldrshpl	r4, [sp, #-50]	; 0xffffffce

000034e8 <l3260>:
    34e8:	015da4df 	ldrsbeq	sl, [sp, #-79]	; 0xffffffb1

000034ec <l3261>:
    34ec:	a15d64ba 	ldrhge	r6, [sp, #-74]	; 0xffffffb6

000034f0 <l3262>:
    34f0:	e3a06010 	mov	r6, #16

000034f4 <l3263>:
    34f4:	911de0d6 	ldrsbls	lr, [sp, -r6]

000034f8 <l3264>:
    34f8:	e3a00032 	mov	r0, #50	; 0x32

000034fc <l3265>:
    34fc:	e10de0b0 	strh	lr, [sp, -r0]

00003500 <l3266>:
    3500:	e3a0904c 	mov	r9, #76	; 0x4c

00003504 <l3267>:
    3504:	e11d30d9 	ldrsb	r3, [sp, -r9]

00003508 <l3268>:
    3508:	e15da3f6 	ldrsh	sl, [sp, #-54]	; 0xffffffca

0000350c <l3269>:
    350c:	e3a05007 	mov	r5, #7

00003510 <l3270>:
    3510:	211d00d5 	ldrsbcs	r0, [sp, -r5]

00003514 <l3271>:
    3514:	e3a04044 	mov	r4, #68	; 0x44

00003518 <l3272>:
    3518:	e11d60f4 	ldrsh	r6, [sp, -r4]

0000351c <l3273>:
    351c:	e15d41b0 	ldrh	r4, [sp, #-16]

00003520 <l3274>:
    3520:	c15dc2bc 	ldrhgt	ip, [sp, #-44]	; 0xffffffd4

00003524 <l3275>:
    3524:	e15d83b8 	ldrh	r8, [sp, #-56]	; 0xffffffc8

00003528 <l3276>:
    3528:	e3a02038 	mov	r2, #56	; 0x38

0000352c <l3277>:
    352c:	d11d20f2 	ldrshle	r2, [sp, -r2]

00003530 <l3278>:
    3530:	e3a00020 	mov	r0, #32

00003534 <l3279>:
    3534:	e10d80b0 	strh	r8, [sp, -r0]

00003538 <l3280>:
    3538:	e3a01050 	mov	r1, #80	; 0x50

0000353c <l3281>:
    353c:	a11d20f1 	ldrshge	r2, [sp, -r1]

00003540 <l3282>:
    3540:	e3a0c036 	mov	ip, #54	; 0x36

00003544 <l3283>:
    3544:	711d90bc 	ldrhvc	r9, [sp, -ip]

00003548 <l3284>:
    3548:	e3a09022 	mov	r9, #34	; 0x22

0000354c <l3285>:
    354c:	e11d00f9 	ldrsh	r0, [sp, -r9]

00003550 <l3286>:
    3550:	e14d82b2 	strh	r8, [sp, #-34]	; 0xffffffde

00003554 <l3287>:
    3554:	515d64db 	ldrsbpl	r6, [sp, #-75]	; 0xffffffb5

00003558 <l3288>:
    3558:	e3a09048 	mov	r9, #72	; 0x48

0000355c <l3289>:
    355c:	d11dc0d9 	ldrsble	ip, [sp, -r9]

00003560 <l3290>:
    3560:	e15da0d7 	ldrsb	sl, [sp, #-7]

00003564 <l3291>:
    3564:	e15d24fa 	ldrsh	r2, [sp, #-74]	; 0xffffffb6

00003568 <l3292>:
    3568:	e15d83f2 	ldrsh	r8, [sp, #-50]	; 0xffffffce

0000356c <l3293>:
    356c:	915da3d6 	ldrsbls	sl, [sp, #-54]	; 0xffffffca

00003570 <l3294>:
    3570:	315d61d3 	ldrsbcc	r6, [sp, #-19]	; 0xffffffed

00003574 <l3295>:
    3574:	714d04b8 	strhvc	r0, [sp, #-72]	; 0xffffffb8

00003578 <l3296>:
    3578:	e14d43b2 	strh	r4, [sp, #-50]	; 0xffffffce

0000357c <l3297>:
    357c:	e3a05012 	mov	r5, #18

00003580 <l3298>:
    3580:	e11d90f5 	ldrsh	r9, [sp, -r5]

00003584 <l3299>:
    3584:	015da2b0 	ldrheq	sl, [sp, #-32]	; 0xffffffe0

00003588 <l3300>:
    3588:	615de1d3 	ldrsbvs	lr, [sp, #-19]	; 0xffffffed

0000358c <l3301>:
    358c:	e3a06026 	mov	r6, #38	; 0x26

00003590 <l3302>:
    3590:	e10d90b6 	strh	r9, [sp, -r6]

00003594 <l3303>:
    3594:	e3a0a020 	mov	sl, #32

00003598 <l3304>:
    3598:	111d70fa 	ldrshne	r7, [sp, -sl]

0000359c <l3305>:
    359c:	e3a0a009 	mov	sl, #9

000035a0 <l3306>:
    35a0:	311de0da 	ldrsbcc	lr, [sp, -sl]

000035a4 <l3307>:
    35a4:	a14d10bc 	strhge	r1, [sp, #-12]

000035a8 <l3308>:
    35a8:	114d74ba 	strhne	r7, [sp, #-74]	; 0xffffffb6

000035ac <l3309>:
    35ac:	215de0d5 	ldrsbcs	lr, [sp, #-5]

000035b0 <l3310>:
    35b0:	e3a06044 	mov	r6, #68	; 0x44

000035b4 <l3311>:
    35b4:	e11d30f6 	ldrsh	r3, [sp, -r6]

000035b8 <l3312>:
    35b8:	e14d43b0 	strh	r4, [sp, #-48]	; 0xffffffd0

000035bc <l3313>:
    35bc:	e14de3b4 	strh	lr, [sp, #-52]	; 0xffffffcc

000035c0 <l3314>:
    35c0:	e3a08032 	mov	r8, #50	; 0x32

000035c4 <l3315>:
    35c4:	e11d50f8 	ldrsh	r5, [sp, -r8]

000035c8 <l3316>:
    35c8:	b15d03d6 	ldrsblt	r0, [sp, #-54]	; 0xffffffca

000035cc <l3317>:
    35cc:	e3a0b01a 	mov	fp, #26

000035d0 <l3318>:
    35d0:	111d30fb 	ldrshne	r3, [sp, -fp]

000035d4 <l3319>:
    35d4:	e3a0801b 	mov	r8, #27

000035d8 <l3320>:
    35d8:	d11d40d8 	ldrsble	r4, [sp, -r8]

000035dc <l3321>:
    35dc:	e3a04034 	mov	r4, #52	; 0x34

000035e0 <l3322>:
    35e0:	a11d10b4 	ldrhge	r1, [sp, -r4]

000035e4 <l3323>:
    35e4:	b15d62be 	ldrhlt	r6, [sp, #-46]	; 0xffffffd2

000035e8 <l3324>:
    35e8:	e15d24b8 	ldrh	r2, [sp, #-72]	; 0xffffffb8

000035ec <l3325>:
    35ec:	e14d84b8 	strh	r8, [sp, #-72]	; 0xffffffb8

000035f0 <l3326>:
    35f0:	e15d34ba 	ldrh	r3, [sp, #-74]	; 0xffffffb6

000035f4 <l3327>:
    35f4:	e3a07028 	mov	r7, #40	; 0x28

000035f8 <l3328>:
    35f8:	e10d70b7 	strh	r7, [sp, -r7]

000035fc <l3329>:
    35fc:	115d43fe 	ldrshne	r4, [sp, #-62]	; 0xffffffc2

00003600 <l3330>:
    3600:	e3a05030 	mov	r5, #48	; 0x30

00003604 <l3331>:
    3604:	c11da0b5 	ldrhgt	sl, [sp, -r5]

00003608 <l3332>:
    3608:	e3a0000a 	mov	r0, #10

0000360c <l3333>:
    360c:	810da0b0 	strhhi	sl, [sp, -r0]

00003610 <l3334>:
    3610:	e15d31b8 	ldrh	r3, [sp, #-24]	; 0xffffffe8

00003614 <l3335>:
    3614:	515d42b0 	ldrhpl	r4, [sp, #-32]	; 0xffffffe0

00003618 <l3336>:
    3618:	c15de4d6 	ldrsbgt	lr, [sp, #-70]	; 0xffffffba

0000361c <l3337>:
    361c:	014d03b8 	strheq	r0, [sp, #-56]	; 0xffffffc8

00003620 <l3338>:
    3620:	e3a05048 	mov	r5, #72	; 0x48

00003624 <l3339>:
    3624:	411d80f5 	ldrshmi	r8, [sp, -r5]

00003628 <l3340>:
    3628:	e3a0e022 	mov	lr, #34	; 0x22

0000362c <l3341>:
    362c:	e11d50fe 	ldrsh	r5, [sp, -lr]

00003630 <l3342>:
    3630:	215d70dc 	ldrsbcs	r7, [sp, #-12]

00003634 <l3343>:
    3634:	e3a02045 	mov	r2, #69	; 0x45

00003638 <l3344>:
    3638:	e11d90d2 	ldrsb	r9, [sp, -r2]

0000363c <l3345>:
    363c:	e3a0500b 	mov	r5, #11

00003640 <l3346>:
    3640:	111d60d5 	ldrsbne	r6, [sp, -r5]

00003644 <l3347>:
    3644:	e14d92be 	strh	r9, [sp, #-46]	; 0xffffffd2

00003648 <l3348>:
    3648:	e3a08036 	mov	r8, #54	; 0x36

0000364c <l3349>:
    364c:	c11da0b8 	ldrhgt	sl, [sp, -r8]

00003650 <l3350>:
    3650:	e3a01016 	mov	r1, #22

00003654 <l3351>:
    3654:	911d60b1 	ldrhls	r6, [sp, -r1]

00003658 <l3352>:
    3658:	314db0be 	strhcc	fp, [sp, #-14]

0000365c <l3353>:
    365c:	e14d32b0 	strh	r3, [sp, #-32]	; 0xffffffe0

00003660 <l3354>:
    3660:	e3a0604e 	mov	r6, #78	; 0x4e

00003664 <l3355>:
    3664:	e10d80b6 	strh	r8, [sp, -r6]

00003668 <l3356>:
    3668:	515d04fa 	ldrshpl	r0, [sp, #-74]	; 0xffffffb6

0000366c <l3357>:
    366c:	e15d51df 	ldrsb	r5, [sp, #-31]	; 0xffffffe1

00003670 <l3358>:
    3670:	e15d51b0 	ldrh	r5, [sp, #-16]

00003674 <l3359>:
    3674:	e3a02028 	mov	r2, #40	; 0x28

00003678 <l3360>:
    3678:	b10db0b2 	strhlt	fp, [sp, -r2]

0000367c <l3361>:
    367c:	e15d33fa 	ldrsh	r3, [sp, #-58]	; 0xffffffc6

00003680 <l3362>:
    3680:	215d52da 	ldrsbcs	r5, [sp, #-42]	; 0xffffffd6

00003684 <l3363>:
    3684:	e3a03022 	mov	r3, #34	; 0x22

00003688 <l3364>:
    3688:	e11d10f3 	ldrsh	r1, [sp, -r3]

0000368c <l3365>:
    368c:	e15d23f8 	ldrsh	r2, [sp, #-56]	; 0xffffffc8

00003690 <l3366>:
    3690:	715d60bc 	ldrhvc	r6, [sp, #-12]

00003694 <l3367>:
    3694:	e15dc3be 	ldrh	ip, [sp, #-62]	; 0xffffffc2

00003698 <l3368>:
    3698:	e3a0a01d 	mov	sl, #29

0000369c <l3369>:
    369c:	311da0da 	ldrsbcc	sl, [sp, -sl]

000036a0 <l3370>:
    36a0:	e3a0c026 	mov	ip, #38	; 0x26

000036a4 <l3371>:
    36a4:	511d80bc 	ldrhpl	r8, [sp, -ip]

000036a8 <l3372>:
    36a8:	e3a07015 	mov	r7, #21

000036ac <l3373>:
    36ac:	811d60d7 	ldrsbhi	r6, [sp, -r7]

000036b0 <l3374>:
    36b0:	e15da2d3 	ldrsb	sl, [sp, #-35]	; 0xffffffdd

000036b4 <l3375>:
    36b4:	e3a0300d 	mov	r3, #13

000036b8 <l3376>:
    36b8:	411d60d3 	ldrsbmi	r6, [sp, -r3]

000036bc <l3377>:
    36bc:	b15d02ba 	ldrhlt	r0, [sp, #-42]	; 0xffffffd6

000036c0 <l3378>:
    36c0:	e14d92bc 	strh	r9, [sp, #-44]	; 0xffffffd4

000036c4 <l3379>:
    36c4:	a14d50ba 	strhge	r5, [sp, #-10]

000036c8 <l3380>:
    36c8:	615d04de 	ldrsbvs	r0, [sp, #-78]	; 0xffffffb2

000036cc <l3381>:
    36cc:	e3a01028 	mov	r1, #40	; 0x28

000036d0 <l3382>:
    36d0:	d10da0b1 	strhle	sl, [sp, -r1]

000036d4 <l3383>:
    36d4:	e3a08049 	mov	r8, #73	; 0x49

000036d8 <l3384>:
    36d8:	e11d00d8 	ldrsb	r0, [sp, -r8]

000036dc <l3385>:
    36dc:	e3a0b038 	mov	fp, #56	; 0x38

000036e0 <l3386>:
    36e0:	e11d30fb 	ldrsh	r3, [sp, -fp]

000036e4 <l3387>:
    36e4:	515d74fa 	ldrshpl	r7, [sp, #-74]	; 0xffffffb6

000036e8 <l3388>:
    36e8:	d15d21be 	ldrhle	r2, [sp, #-30]	; 0xffffffe2

000036ec <l3389>:
    36ec:	615da1d6 	ldrsbvs	sl, [sp, #-22]	; 0xffffffea

000036f0 <l3390>:
    36f0:	e3a0c026 	mov	ip, #38	; 0x26

000036f4 <l3391>:
    36f4:	e11d70bc 	ldrh	r7, [sp, -ip]

000036f8 <l3392>:
    36f8:	e15da3b0 	ldrh	sl, [sp, #-48]	; 0xffffffd0

000036fc <l3393>:
    36fc:	115d73da 	ldrsbne	r7, [sp, #-58]	; 0xffffffc6

00003700 <l3394>:
    3700:	e15d85f0 	ldrsh	r8, [sp, #-80]	; 0xffffffb0

00003704 <l3395>:
    3704:	615db4f8 	ldrshvs	fp, [sp, #-72]	; 0xffffffb8

00003708 <l3396>:
    3708:	914d51b4 	strhls	r5, [sp, #-20]	; 0xffffffec

0000370c <l3397>:
    370c:	e15d10b8 	ldrh	r1, [sp, #-8]

00003710 <l3398>:
    3710:	e3a0800a 	mov	r8, #10

00003714 <l3399>:
    3714:	e11d20f8 	ldrsh	r2, [sp, -r8]

00003718 <l3400>:
    3718:	315de1f0 	ldrshcc	lr, [sp, #-16]

0000371c <l3401>:
    371c:	e3a0204e 	mov	r2, #78	; 0x4e

00003720 <l3402>:
    3720:	e11de0d2 	ldrsb	lr, [sp, -r2]

00003724 <l3403>:
    3724:	715da2b4 	ldrhvc	sl, [sp, #-36]	; 0xffffffdc

00003728 <l3404>:
    3728:	e14d02ba 	strh	r0, [sp, #-42]	; 0xffffffd6

0000372c <l3405>:
    372c:	014d10bc 	strheq	r1, [sp, #-12]

00003730 <l3406>:
    3730:	e3a0a030 	mov	sl, #48	; 0x30

00003734 <l3407>:
    3734:	510d20ba 	strhpl	r2, [sp, -sl]

00003738 <l3408>:
    3738:	615da0ba 	ldrhvs	sl, [sp, #-10]

0000373c <l3409>:
    373c:	e3a0c028 	mov	ip, #40	; 0x28

00003740 <l3410>:
    3740:	e10d90bc 	strh	r9, [sp, -ip]

00003744 <l3411>:
    3744:	e15dc2be 	ldrh	ip, [sp, #-46]	; 0xffffffd2

00003748 <l3412>:
    3748:	c15d11d2 	ldrsbgt	r1, [sp, #-18]	; 0xffffffee

0000374c <l3413>:
    374c:	615d73bc 	ldrhvs	r7, [sp, #-60]	; 0xffffffc4

00003750 <l3414>:
    3750:	815db2b4 	ldrhhi	fp, [sp, #-36]	; 0xffffffdc

00003754 <l3415>:
    3754:	e3a04020 	mov	r4, #32

00003758 <l3416>:
    3758:	111d00f4 	ldrshne	r0, [sp, -r4]

0000375c <l3417>:
    375c:	e15de3b8 	ldrh	lr, [sp, #-56]	; 0xffffffc8

00003760 <l3418>:
    3760:	e15db0df 	ldrsb	fp, [sp, #-15]

00003764 <l3419>:
    3764:	e3a01050 	mov	r1, #80	; 0x50

00003768 <l3420>:
    3768:	e10de0b1 	strh	lr, [sp, -r1]

0000376c <l3421>:
    376c:	e3a09032 	mov	r9, #50	; 0x32

00003770 <l3422>:
    3770:	110d00b9 	strhne	r0, [sp, -r9]

00003774 <l3423>:
    3774:	e3a0b043 	mov	fp, #67	; 0x43

00003778 <l3424>:
    3778:	e11d60db 	ldrsb	r6, [sp, -fp]

0000377c <l3425>:
    377c:	e3a01022 	mov	r1, #34	; 0x22

00003780 <l3426>:
    3780:	e10d00b1 	strh	r0, [sp, -r1]

00003784 <l3427>:
    3784:	e3a04036 	mov	r4, #54	; 0x36

00003788 <l3428>:
    3788:	e11d40b4 	ldrh	r4, [sp, -r4]

0000378c <l3429>:
    378c:	e3a0104a 	mov	r1, #74	; 0x4a

00003790 <l3430>:
    3790:	e10d30b1 	strh	r3, [sp, -r1]

00003794 <l3431>:
    3794:	e3a05042 	mov	r5, #66	; 0x42

00003798 <l3432>:
    3798:	611dc0f5 	ldrshvs	ip, [sp, -r5]

0000379c <l3433>:
    379c:	e15d12db 	ldrsb	r1, [sp, #-43]	; 0xffffffd5

000037a0 <l3434>:
    37a0:	315dc4fc 	ldrshcc	ip, [sp, #-76]	; 0xffffffb4

000037a4 <l3435>:
    37a4:	e3a06038 	mov	r6, #56	; 0x38

000037a8 <l3436>:
    37a8:	a10d10b6 	strhge	r1, [sp, -r6]

000037ac <l3437>:
    37ac:	e3a07012 	mov	r7, #18

000037b0 <l3438>:
    37b0:	e11db0b7 	ldrh	fp, [sp, -r7]

000037b4 <l3439>:
    37b4:	e15d61f2 	ldrsh	r6, [sp, #-18]	; 0xffffffee

000037b8 <l3440>:
    37b8:	b15d90ba 	ldrhlt	r9, [sp, #-10]

000037bc <l3441>:
    37bc:	e3a0401a 	mov	r4, #26

000037c0 <l3442>:
    37c0:	e10d50b4 	strh	r5, [sp, -r4]

000037c4 <l3443>:
    37c4:	e14d83b8 	strh	r8, [sp, #-56]	; 0xffffffc8

000037c8 <l3444>:
    37c8:	e3a04030 	mov	r4, #48	; 0x30

000037cc <l3445>:
    37cc:	e11d70f4 	ldrsh	r7, [sp, -r4]

000037d0 <l3446>:
    37d0:	e15da4b0 	ldrh	sl, [sp, #-64]	; 0xffffffc0

000037d4 <l3447>:
    37d4:	e3a0e034 	mov	lr, #52	; 0x34

000037d8 <l3448>:
    37d8:	411d00fe 	ldrshmi	r0, [sp, -lr]

000037dc <l3449>:
    37dc:	e3a0304a 	mov	r3, #74	; 0x4a

000037e0 <l3450>:
    37e0:	211d10b3 	ldrhcs	r1, [sp, -r3]

000037e4 <l3451>:
    37e4:	e3a0600e 	mov	r6, #14

000037e8 <l3452>:
    37e8:	e10d60b6 	strh	r6, [sp, -r6]

000037ec <l3453>:
    37ec:	c15da2b2 	ldrhgt	sl, [sp, #-34]	; 0xffffffde

000037f0 <l3454>:
    37f0:	e3a0c006 	mov	ip, #6

000037f4 <l3455>:
    37f4:	110d40bc 	strhne	r4, [sp, -ip]

000037f8 <l3456>:
    37f8:	514d94ba 	strhpl	r9, [sp, #-74]	; 0xffffffb6

000037fc <l3457>:
    37fc:	e15d33df 	ldrsb	r3, [sp, #-63]	; 0xffffffc1

00003800 <l3458>:
    3800:	e14d03be 	strh	r0, [sp, #-62]	; 0xffffffc2

00003804 <l3459>:
    3804:	e15d54d6 	ldrsb	r5, [sp, #-70]	; 0xffffffba

00003808 <l3460>:
    3808:	e3a0a039 	mov	sl, #57	; 0x39

0000380c <l3461>:
    380c:	e11d80da 	ldrsb	r8, [sp, -sl]

00003810 <l3462>:
    3810:	e3a01048 	mov	r1, #72	; 0x48

00003814 <l3463>:
    3814:	511db0b1 	ldrhpl	fp, [sp, -r1]

00003818 <l3464>:
    3818:	715da3fe 	ldrshvc	sl, [sp, #-62]	; 0xffffffc2

0000381c <l3465>:
    381c:	e15de2f6 	ldrsh	lr, [sp, #-38]	; 0xffffffda

00003820 <l3466>:
    3820:	515d93bc 	ldrhpl	r9, [sp, #-60]	; 0xffffffc4

00003824 <l3467>:
    3824:	e3a0b050 	mov	fp, #80	; 0x50

00003828 <l3468>:
    3828:	e11d40fb 	ldrsh	r4, [sp, -fp]

0000382c <l3469>:
    382c:	e3a0304c 	mov	r3, #76	; 0x4c

00003830 <l3470>:
    3830:	e11d90f3 	ldrsh	r9, [sp, -r3]

00003834 <l3471>:
    3834:	e3a02026 	mov	r2, #38	; 0x26

00003838 <l3472>:
    3838:	e11d70b2 	ldrh	r7, [sp, -r2]

0000383c <l3473>:
    383c:	e3a0904a 	mov	r9, #74	; 0x4a

00003840 <l3474>:
    3840:	e10db0b9 	strh	fp, [sp, -r9]

00003844 <l3475>:
    3844:	e15d03d5 	ldrsb	r0, [sp, #-53]	; 0xffffffcb

00003848 <l3476>:
    3848:	e15d93b2 	ldrh	r9, [sp, #-50]	; 0xffffffce

0000384c <l3477>:
    384c:	e15d62bc 	ldrh	r6, [sp, #-44]	; 0xffffffd4

00003850 <l3478>:
    3850:	e15d03dd 	ldrsb	r0, [sp, #-61]	; 0xffffffc3

00003854 <l3479>:
    3854:	e14d91b4 	strh	r9, [sp, #-20]	; 0xffffffec

00003858 <l3480>:
    3858:	815da3f4 	ldrshhi	sl, [sp, #-52]	; 0xffffffcc

0000385c <l3481>:
    385c:	515d82b0 	ldrhpl	r8, [sp, #-32]	; 0xffffffe0

00003860 <l3482>:
    3860:	815d71be 	ldrhhi	r7, [sp, #-30]	; 0xffffffe2

00003864 <l3483>:
    3864:	e3a04014 	mov	r4, #20

00003868 <l3484>:
    3868:	610d70b4 	strhvs	r7, [sp, -r4]

0000386c <l3485>:
    386c:	e14d44be 	strh	r4, [sp, #-78]	; 0xffffffb2

00003870 <l3486>:
    3870:	115d61b2 	ldrhne	r6, [sp, #-18]	; 0xffffffee

00003874 <l3487>:
    3874:	e3a0502c 	mov	r5, #44	; 0x2c

00003878 <l3488>:
    3878:	210d70b5 	strhcs	r7, [sp, -r5]

0000387c <l3489>:
    387c:	c15dc1d8 	ldrsbgt	ip, [sp, #-24]	; 0xffffffe8

00003880 <l3490>:
    3880:	e15da3f8 	ldrsh	sl, [sp, #-56]	; 0xffffffc8

00003884 <l3491>:
    3884:	e3a0b006 	mov	fp, #6

00003888 <l3492>:
    3888:	e11d90fb 	ldrsh	r9, [sp, -fp]

0000388c <l3493>:
    388c:	e3a06050 	mov	r6, #80	; 0x50

00003890 <l3494>:
    3890:	c10d30b6 	strhgt	r3, [sp, -r6]

00003894 <l3495>:
    3894:	e14d70b6 	strh	r7, [sp, #-6]

00003898 <l3496>:
    3898:	e3a0a02d 	mov	sl, #45	; 0x2d

0000389c <l3497>:
    389c:	e11d20da 	ldrsb	r2, [sp, -sl]

000038a0 <l3498>:
    38a0:	b15d31b8 	ldrhlt	r3, [sp, #-24]	; 0xffffffe8

000038a4 <l3499>:
    38a4:	e3a07032 	mov	r7, #50	; 0x32

000038a8 <l3500>:
    38a8:	e11de0b7 	ldrh	lr, [sp, -r7]

000038ac <l3501>:
    38ac:	814db2b0 	strhhi	fp, [sp, #-32]	; 0xffffffe0

000038b0 <l3502>:
    38b0:	e15d53f6 	ldrsh	r5, [sp, #-54]	; 0xffffffca

000038b4 <l3503>:
    38b4:	e3a06048 	mov	r6, #72	; 0x48

000038b8 <l3504>:
    38b8:	911de0f6 	ldrshls	lr, [sp, -r6]

000038bc <l3505>:
    38bc:	e3a05038 	mov	r5, #56	; 0x38

000038c0 <l3506>:
    38c0:	311db0f5 	ldrshcc	fp, [sp, -r5]

000038c4 <l3507>:
    38c4:	e15d41d0 	ldrsb	r4, [sp, #-16]

000038c8 <l3508>:
    38c8:	715d12b8 	ldrhvc	r1, [sp, #-40]	; 0xffffffd8

000038cc <l3509>:
    38cc:	c15d44fa 	ldrshgt	r4, [sp, #-74]	; 0xffffffb6

000038d0 <l3510>:
    38d0:	e3a06030 	mov	r6, #48	; 0x30

000038d4 <l3511>:
    38d4:	e11d80b6 	ldrh	r8, [sp, -r6]

000038d8 <l3512>:
    38d8:	215d53df 	ldrsbcs	r5, [sp, #-63]	; 0xffffffc1

000038dc <l3513>:
    38dc:	e3a0b02a 	mov	fp, #42	; 0x2a

000038e0 <l3514>:
    38e0:	511d70db 	ldrsbpl	r7, [sp, -fp]

000038e4 <l3515>:
    38e4:	e3a0404c 	mov	r4, #76	; 0x4c

000038e8 <l3516>:
    38e8:	a10de0b4 	strhge	lr, [sp, -r4]

000038ec <l3517>:
    38ec:	e3a07048 	mov	r7, #72	; 0x48

000038f0 <l3518>:
    38f0:	d10db0b7 	strhle	fp, [sp, -r7]

000038f4 <l3519>:
    38f4:	e3a09015 	mov	r9, #21

000038f8 <l3520>:
    38f8:	e11d40d9 	ldrsb	r4, [sp, -r9]

000038fc <l3521>:
    38fc:	e15d73b0 	ldrh	r7, [sp, #-48]	; 0xffffffd0

00003900 <l3522>:
    3900:	e14d21b8 	strh	r2, [sp, #-24]	; 0xffffffe8

00003904 <l3523>:
    3904:	315d61fc 	ldrshcc	r6, [sp, #-28]	; 0xffffffe4

00003908 <l3524>:
    3908:	e3a0902e 	mov	r9, #46	; 0x2e

0000390c <l3525>:
    390c:	611d50f9 	ldrshvs	r5, [sp, -r9]

00003910 <l3526>:
    3910:	e3a0503b 	mov	r5, #59	; 0x3b

00003914 <l3527>:
    3914:	311d70d5 	ldrsbcc	r7, [sp, -r5]

00003918 <l3528>:
    3918:	e3a0e036 	mov	lr, #54	; 0x36

0000391c <l3529>:
    391c:	e10dc0be 	strh	ip, [sp, -lr]

00003920 <l3530>:
    3920:	e3a0a03e 	mov	sl, #62	; 0x3e

00003924 <l3531>:
    3924:	610d90ba 	strhvs	r9, [sp, -sl]

00003928 <l3532>:
    3928:	e15da5f0 	ldrsh	sl, [sp, #-80]	; 0xffffffb0

0000392c <l3533>:
    392c:	e3a0a016 	mov	sl, #22

00003930 <l3534>:
    3930:	e11d30da 	ldrsb	r3, [sp, -sl]

00003934 <l3535>:
    3934:	e3a08034 	mov	r8, #52	; 0x34

00003938 <l3536>:
    3938:	e11d70b8 	ldrh	r7, [sp, -r8]

0000393c <l3537>:
    393c:	e14d71be 	strh	r7, [sp, #-30]	; 0xffffffe2

00003940 <l3538>:
    3940:	e3a0204e 	mov	r2, #78	; 0x4e

00003944 <l3539>:
    3944:	e11d50b2 	ldrh	r5, [sp, -r2]

00003948 <l3540>:
    3948:	e3a0604c 	mov	r6, #76	; 0x4c

0000394c <l3541>:
    394c:	e11da0f6 	ldrsh	sl, [sp, -r6]

00003950 <l3542>:
    3950:	e3a02034 	mov	r2, #52	; 0x34

00003954 <l3543>:
    3954:	e11d50b2 	ldrh	r5, [sp, -r2]

00003958 <l3544>:
    3958:	e3a05048 	mov	r5, #72	; 0x48

0000395c <l3545>:
    395c:	a11d60f5 	ldrshge	r6, [sp, -r5]

00003960 <l3546>:
    3960:	d15d54bc 	ldrhle	r5, [sp, #-76]	; 0xffffffb4

00003964 <l3547>:
    3964:	615d52f0 	ldrshvs	r5, [sp, #-32]	; 0xffffffe0

00003968 <l3548>:
    3968:	e3a02029 	mov	r2, #41	; 0x29

0000396c <l3549>:
    396c:	e11d60d2 	ldrsb	r6, [sp, -r2]

00003970 <l3550>:
    3970:	e15d63fc 	ldrsh	r6, [sp, #-60]	; 0xffffffc4

00003974 <l3551>:
    3974:	e3a0700a 	mov	r7, #10

00003978 <l3552>:
    3978:	010de0b7 	strheq	lr, [sp, -r7]

0000397c <l3553>:
    397c:	115d64f0 	ldrshne	r6, [sp, #-64]	; 0xffffffc0

00003980 <l3554>:
    3980:	414d24b0 	strhmi	r2, [sp, #-64]	; 0xffffffc0

00003984 <l3555>:
    3984:	e3a04022 	mov	r4, #34	; 0x22

00003988 <l3556>:
    3988:	a11d90d4 	ldrsbge	r9, [sp, -r4]

0000398c <l3557>:
    398c:	e15d33be 	ldrh	r3, [sp, #-62]	; 0xffffffc2

00003990 <l3558>:
    3990:	215da1f0 	ldrshcs	sl, [sp, #-16]

00003994 <l3559>:
    3994:	e3a06044 	mov	r6, #68	; 0x44

00003998 <l3560>:
    3998:	c11d20b6 	ldrhgt	r2, [sp, -r6]

0000399c <l3561>:
    399c:	e3a0302e 	mov	r3, #46	; 0x2e

000039a0 <l3562>:
    39a0:	e10d20b3 	strh	r2, [sp, -r3]

000039a4 <l3563>:
    39a4:	e3a0b01a 	mov	fp, #26

000039a8 <l3564>:
    39a8:	511d10bb 	ldrhpl	r1, [sp, -fp]

000039ac <l3565>:
    39ac:	e15d11fa 	ldrsh	r1, [sp, #-26]	; 0xffffffe6

000039b0 <l3566>:
    39b0:	415d02fe 	ldrshmi	r0, [sp, #-46]	; 0xffffffd2

000039b4 <l3567>:
    39b4:	e3a0a050 	mov	sl, #80	; 0x50

000039b8 <l3568>:
    39b8:	e11d50da 	ldrsb	r5, [sp, -sl]

000039bc <l3569>:
    39bc:	e3a07027 	mov	r7, #39	; 0x27

000039c0 <l3570>:
    39c0:	b11d10d7 	ldrsblt	r1, [sp, -r7]

000039c4 <l3571>:
    39c4:	e3a0c00e 	mov	ip, #14

000039c8 <l3572>:
    39c8:	a10d10bc 	strhge	r1, [sp, -ip]

000039cc <l3573>:
    39cc:	e15d83b4 	ldrh	r8, [sp, #-52]	; 0xffffffcc

000039d0 <l3574>:
    39d0:	115d92ba 	ldrhne	r9, [sp, #-42]	; 0xffffffd6

000039d4 <l3575>:
    39d4:	e14d23b4 	strh	r2, [sp, #-52]	; 0xffffffcc

000039d8 <l3576>:
    39d8:	315d01f4 	ldrshcc	r0, [sp, #-20]	; 0xffffffec

000039dc <l3577>:
    39dc:	e15d03fc 	ldrsh	r0, [sp, #-60]	; 0xffffffc4

000039e0 <l3578>:
    39e0:	e3a07038 	mov	r7, #56	; 0x38

000039e4 <l3579>:
    39e4:	e11d00d7 	ldrsb	r0, [sp, -r7]

000039e8 <l3580>:
    39e8:	415d53b4 	ldrhmi	r5, [sp, #-52]	; 0xffffffcc

000039ec <l3581>:
    39ec:	c15d20fe 	ldrshgt	r2, [sp, #-14]

000039f0 <l3582>:
    39f0:	615d43d6 	ldrsbvs	r4, [sp, #-54]	; 0xffffffca

000039f4 <l3583>:
    39f4:	b15d53f8 	ldrshlt	r5, [sp, #-56]	; 0xffffffc8

000039f8 <l3584>:
    39f8:	e15d33b8 	ldrh	r3, [sp, #-56]	; 0xffffffc8

000039fc <l3585>:
    39fc:	e3a03038 	mov	r3, #56	; 0x38

00003a00 <l3586>:
    3a00:	e10d60b3 	strh	r6, [sp, -r3]

00003a04 <l3587>:
    3a04:	e15d42df 	ldrsb	r4, [sp, #-47]	; 0xffffffd1

00003a08 <l3588>:
    3a08:	c14d11be 	strhgt	r1, [sp, #-30]	; 0xffffffe2

00003a0c <l3589>:
    3a0c:	e3a04050 	mov	r4, #80	; 0x50

00003a10 <l3590>:
    3a10:	e11d70b4 	ldrh	r7, [sp, -r4]

00003a14 <l3591>:
    3a14:	e15d30fc 	ldrsh	r3, [sp, #-12]

00003a18 <l3592>:
    3a18:	e14d14bc 	strh	r1, [sp, #-76]	; 0xffffffb4

00003a1c <l3593>:
    3a1c:	e14d42b2 	strh	r4, [sp, #-34]	; 0xffffffde

00003a20 <l3594>:
    3a20:	e3a02024 	mov	r2, #36	; 0x24

00003a24 <l3595>:
    3a24:	811d70f2 	ldrshhi	r7, [sp, -r2]

00003a28 <l3596>:
    3a28:	e3a0003e 	mov	r0, #62	; 0x3e

00003a2c <l3597>:
    3a2c:	311d20f0 	ldrshcc	r2, [sp, -r0]

00003a30 <l3598>:
    3a30:	d15db0b8 	ldrhle	fp, [sp, #-8]

00003a34 <l3599>:
    3a34:	315d72f0 	ldrshcc	r7, [sp, #-32]	; 0xffffffe0

00003a38 <l3600>:
    3a38:	e15de3f8 	ldrsh	lr, [sp, #-56]	; 0xffffffc8

00003a3c <l3601>:
    3a3c:	d15de1be 	ldrhle	lr, [sp, #-30]	; 0xffffffe2

00003a40 <l3602>:
    3a40:	115d80b8 	ldrhne	r8, [sp, #-8]

00003a44 <l3603>:
    3a44:	915da4d0 	ldrsbls	sl, [sp, #-64]	; 0xffffffc0

00003a48 <l3604>:
    3a48:	e3a02036 	mov	r2, #54	; 0x36

00003a4c <l3605>:
    3a4c:	d11d00f2 	ldrshle	r0, [sp, -r2]

00003a50 <l3606>:
    3a50:	e3a0702a 	mov	r7, #42	; 0x2a

00003a54 <l3607>:
    3a54:	e11d00b7 	ldrh	r0, [sp, -r7]

00003a58 <l3608>:
    3a58:	e15d60bc 	ldrh	r6, [sp, #-12]

00003a5c <l3609>:
    3a5c:	e3a00045 	mov	r0, #69	; 0x45

00003a60 <l3610>:
    3a60:	411dc0d0 	ldrsbmi	ip, [sp, -r0]

00003a64 <l3611>:
    3a64:	e15db0f8 	ldrsh	fp, [sp, #-8]

00003a68 <l3612>:
    3a68:	e3a03046 	mov	r3, #70	; 0x46

00003a6c <l3613>:
    3a6c:	a11d10f3 	ldrshge	r1, [sp, -r3]

00003a70 <l3614>:
    3a70:	e3a01022 	mov	r1, #34	; 0x22

00003a74 <l3615>:
    3a74:	011d30f1 	ldrsheq	r3, [sp, -r1]

00003a78 <l3616>:
    3a78:	e3a02032 	mov	r2, #50	; 0x32

00003a7c <l3617>:
    3a7c:	311d30d2 	ldrsbcc	r3, [sp, -r2]

00003a80 <l3618>:
    3a80:	e3a09014 	mov	r9, #20

00003a84 <l3619>:
    3a84:	e11da0b9 	ldrh	sl, [sp, -r9]

00003a88 <l3620>:
    3a88:	e3a0903e 	mov	r9, #62	; 0x3e

00003a8c <l3621>:
    3a8c:	d11d00b9 	ldrhle	r0, [sp, -r9]

00003a90 <l3622>:
    3a90:	615de3db 	ldrsbvs	lr, [sp, #-59]	; 0xffffffc5

00003a94 <l3623>:
    3a94:	e3a01045 	mov	r1, #69	; 0x45

00003a98 <l3624>:
    3a98:	d11d70d1 	ldrsble	r7, [sp, -r1]

00003a9c <l3625>:
    3a9c:	e3a0704a 	mov	r7, #74	; 0x4a

00003aa0 <l3626>:
    3aa0:	211d50f7 	ldrshcs	r5, [sp, -r7]

00003aa4 <l3627>:
    3aa4:	a14d31ba 	strhge	r3, [sp, #-26]	; 0xffffffe6

00003aa8 <l3628>:
    3aa8:	e3a0a01b 	mov	sl, #27

00003aac <l3629>:
    3aac:	e11d00da 	ldrsb	r0, [sp, -sl]

00003ab0 <l3630>:
    3ab0:	e15da1f6 	ldrsh	sl, [sp, #-22]	; 0xffffffea

00003ab4 <l3631>:
    3ab4:	815d11f8 	ldrshhi	r1, [sp, #-24]	; 0xffffffe8

00003ab8 <l3632>:
    3ab8:	d15d84b0 	ldrhle	r8, [sp, #-64]	; 0xffffffc0

00003abc <l3633>:
    3abc:	e3a06036 	mov	r6, #54	; 0x36

00003ac0 <l3634>:
    3ac0:	e10da0b6 	strh	sl, [sp, -r6]

00003ac4 <l3635>:
    3ac4:	915db4be 	ldrhls	fp, [sp, #-78]	; 0xffffffb2

00003ac8 <l3636>:
    3ac8:	e3a0202e 	mov	r2, #46	; 0x2e

00003acc <l3637>:
    3acc:	010d10b2 	strheq	r1, [sp, -r2]

00003ad0 <l3638>:
    3ad0:	e15d01bc 	ldrh	r0, [sp, #-28]	; 0xffffffe4

00003ad4 <l3639>:
    3ad4:	e3a0802e 	mov	r8, #46	; 0x2e

00003ad8 <l3640>:
    3ad8:	e11d20b8 	ldrh	r2, [sp, -r8]

00003adc <l3641>:
    3adc:	e3a0503c 	mov	r5, #60	; 0x3c

00003ae0 <l3642>:
    3ae0:	210d10b5 	strhcs	r1, [sp, -r5]

00003ae4 <l3643>:
    3ae4:	e3a0c014 	mov	ip, #20

00003ae8 <l3644>:
    3ae8:	110d50bc 	strhne	r5, [sp, -ip]

00003aec <l3645>:
    3aec:	714d11b2 	strhvc	r1, [sp, #-18]	; 0xffffffee

00003af0 <l3646>:
    3af0:	815dc4b6 	ldrhhi	ip, [sp, #-70]	; 0xffffffba

00003af4 <l3647>:
    3af4:	e15d32b6 	ldrh	r3, [sp, #-38]	; 0xffffffda

00003af8 <l3648>:
    3af8:	e3a0102c 	mov	r1, #44	; 0x2c

00003afc <l3649>:
    3afc:	910dc0b1 	strhls	ip, [sp, -r1]

00003b00 <l3650>:
    3b00:	e3a06020 	mov	r6, #32

00003b04 <l3651>:
    3b04:	e11da0f6 	ldrsh	sl, [sp, -r6]

00003b08 <l3652>:
    3b08:	e3a01041 	mov	r1, #65	; 0x41

00003b0c <l3653>:
    3b0c:	c11d20d1 	ldrsbgt	r2, [sp, -r1]

00003b10 <l3654>:
    3b10:	e3a0301e 	mov	r3, #30

00003b14 <l3655>:
    3b14:	a11dc0d3 	ldrsbge	ip, [sp, -r3]

00003b18 <l3656>:
    3b18:	415d74fa 	ldrshmi	r7, [sp, #-74]	; 0xffffffb6

00003b1c <l3657>:
    3b1c:	e3a0e03e 	mov	lr, #62	; 0x3e

00003b20 <l3658>:
    3b20:	711db0be 	ldrhvc	fp, [sp, -lr]

00003b24 <l3659>:
    3b24:	915d71f2 	ldrshls	r7, [sp, #-18]	; 0xffffffee

00003b28 <l3660>:
    3b28:	e14d21b6 	strh	r2, [sp, #-22]	; 0xffffffea

00003b2c <l3661>:
    3b2c:	e3a07032 	mov	r7, #50	; 0x32

00003b30 <l3662>:
    3b30:	211da0b7 	ldrhcs	sl, [sp, -r7]

00003b34 <l3663>:
    3b34:	e3a05036 	mov	r5, #54	; 0x36

00003b38 <l3664>:
    3b38:	e11da0f5 	ldrsh	sl, [sp, -r5]

00003b3c <l3665>:
    3b3c:	615da1fe 	ldrshvs	sl, [sp, #-30]	; 0xffffffe2

00003b40 <l3666>:
    3b40:	e3a0703e 	mov	r7, #62	; 0x3e

00003b44 <l3667>:
    3b44:	e11dc0b7 	ldrh	ip, [sp, -r7]

00003b48 <l3668>:
    3b48:	e14d41bc 	strh	r4, [sp, #-28]	; 0xffffffe4

00003b4c <l3669>:
    3b4c:	e3a0b02e 	mov	fp, #46	; 0x2e

00003b50 <l3670>:
    3b50:	d11d40fb 	ldrshle	r4, [sp, -fp]

00003b54 <l3671>:
    3b54:	e15d13fe 	ldrsh	r1, [sp, #-62]	; 0xffffffc2

00003b58 <l3672>:
    3b58:	e3a02040 	mov	r2, #64	; 0x40

00003b5c <l3673>:
    3b5c:	e11dc0f2 	ldrsh	ip, [sp, -r2]

00003b60 <l3674>:
    3b60:	e3a0e04e 	mov	lr, #78	; 0x4e

00003b64 <l3675>:
    3b64:	e11d10be 	ldrh	r1, [sp, -lr]

00003b68 <l3676>:
    3b68:	e3a00020 	mov	r0, #32

00003b6c <l3677>:
    3b6c:	e11de0d0 	ldrsb	lr, [sp, -r0]

00003b70 <l3678>:
    3b70:	e3a01034 	mov	r1, #52	; 0x34

00003b74 <l3679>:
    3b74:	e11d10f1 	ldrsh	r1, [sp, -r1]

00003b78 <l3680>:
    3b78:	e3a01032 	mov	r1, #50	; 0x32

00003b7c <l3681>:
    3b7c:	211d70d1 	ldrsbcs	r7, [sp, -r1]

00003b80 <l3682>:
    3b80:	e15d70dd 	ldrsb	r7, [sp, #-13]

00003b84 <l3683>:
    3b84:	014da0b6 	strheq	sl, [sp, #-6]

00003b88 <l3684>:
    3b88:	515d20dc 	ldrsbpl	r2, [sp, #-12]

00003b8c <l3685>:
    3b8c:	e3a0204a 	mov	r2, #74	; 0x4a

00003b90 <l3686>:
    3b90:	b11da0b2 	ldrhlt	sl, [sp, -r2]

00003b94 <l3687>:
    3b94:	e3a04005 	mov	r4, #5

00003b98 <l3688>:
    3b98:	211d50d4 	ldrsbcs	r5, [sp, -r4]

00003b9c <l3689>:
    3b9c:	e14d60bc 	strh	r6, [sp, #-12]

00003ba0 <l3690>:
    3ba0:	114d34b8 	strhne	r3, [sp, #-72]	; 0xffffffb8

00003ba4 <l3691>:
    3ba4:	e3a0103c 	mov	r1, #60	; 0x3c

00003ba8 <l3692>:
    3ba8:	e11d10f1 	ldrsh	r1, [sp, -r1]

00003bac <l3693>:
    3bac:	e15de3f6 	ldrsh	lr, [sp, #-54]	; 0xffffffca

00003bb0 <l3694>:
    3bb0:	915d73f2 	ldrshls	r7, [sp, #-50]	; 0xffffffce

00003bb4 <l3695>:
    3bb4:	315d01d2 	ldrsbcc	r0, [sp, #-18]	; 0xffffffee

00003bb8 <l3696>:
    3bb8:	e3a05043 	mov	r5, #67	; 0x43

00003bbc <l3697>:
    3bbc:	911d80d5 	ldrsbls	r8, [sp, -r5]

00003bc0 <l3698>:
    3bc0:	e15de4b8 	ldrh	lr, [sp, #-72]	; 0xffffffb8

00003bc4 <l3699>:
    3bc4:	e3a0600c 	mov	r6, #12

00003bc8 <l3700>:
    3bc8:	e10d40b6 	strh	r4, [sp, -r6]

00003bcc <l3701>:
    3bcc:	e15d71f0 	ldrsh	r7, [sp, #-16]

00003bd0 <l3702>:
    3bd0:	715da1b6 	ldrhvc	sl, [sp, #-22]	; 0xffffffea

00003bd4 <l3703>:
    3bd4:	a15dc2da 	ldrsbge	ip, [sp, #-42]	; 0xffffffd6

00003bd8 <l3704>:
    3bd8:	615de3b0 	ldrhvs	lr, [sp, #-48]	; 0xffffffd0

00003bdc <l3705>:
    3bdc:	e3a09022 	mov	r9, #34	; 0x22

00003be0 <l3706>:
    3be0:	211d20d9 	ldrsbcs	r2, [sp, -r9]

00003be4 <l3707>:
    3be4:	e15d11fc 	ldrsh	r1, [sp, #-28]	; 0xffffffe4

00003be8 <l3708>:
    3be8:	214dc3be 	strhcs	ip, [sp, #-62]	; 0xffffffc2

00003bec <l3709>:
    3bec:	e3a0e02c 	mov	lr, #44	; 0x2c

00003bf0 <l3710>:
    3bf0:	711d40be 	ldrhvc	r4, [sp, -lr]

00003bf4 <l3711>:
    3bf4:	e3a0e03c 	mov	lr, #60	; 0x3c

00003bf8 <l3712>:
    3bf8:	e11d90fe 	ldrsh	r9, [sp, -lr]

00003bfc <l3713>:
    3bfc:	e15d92bc 	ldrh	r9, [sp, #-44]	; 0xffffffd4

00003c00 <l3714>:
    3c00:	e3a0e02e 	mov	lr, #46	; 0x2e

00003c04 <l3715>:
    3c04:	211d70be 	ldrhcs	r7, [sp, -lr]

00003c08 <l3716>:
    3c08:	e3a02049 	mov	r2, #73	; 0x49

00003c0c <l3717>:
    3c0c:	311d80d2 	ldrsbcc	r8, [sp, -r2]

00003c10 <l3718>:
    3c10:	e3a0204a 	mov	r2, #74	; 0x4a

00003c14 <l3719>:
    3c14:	111d60d2 	ldrsbne	r6, [sp, -r2]

00003c18 <l3720>:
    3c18:	d15d02d6 	ldrsble	r0, [sp, #-38]	; 0xffffffda

00003c1c <l3721>:
    3c1c:	e3a0800c 	mov	r8, #12

00003c20 <l3722>:
    3c20:	e11d50f8 	ldrsh	r5, [sp, -r8]

00003c24 <l3723>:
    3c24:	e3a0402a 	mov	r4, #42	; 0x2a

00003c28 <l3724>:
    3c28:	e11d40b4 	ldrh	r4, [sp, -r4]

00003c2c <l3725>:
    3c2c:	e3a08026 	mov	r8, #38	; 0x26

00003c30 <l3726>:
    3c30:	810db0b8 	strhhi	fp, [sp, -r8]

00003c34 <l3727>:
    3c34:	815d62b8 	ldrhhi	r6, [sp, #-40]	; 0xffffffd8

00003c38 <l3728>:
    3c38:	015dc4b2 	ldrheq	ip, [sp, #-66]	; 0xffffffbe

00003c3c <l3729>:
    3c3c:	e3a0a038 	mov	sl, #56	; 0x38

00003c40 <l3730>:
    3c40:	e11db0ba 	ldrh	fp, [sp, -sl]

00003c44 <l3731>:
    3c44:	e15d51f6 	ldrsh	r5, [sp, #-22]	; 0xffffffea

00003c48 <l3732>:
    3c48:	e3a0901c 	mov	r9, #28

00003c4c <l3733>:
    3c4c:	911de0f9 	ldrshls	lr, [sp, -r9]

00003c50 <l3734>:
    3c50:	e15dc3f6 	ldrsh	ip, [sp, #-54]	; 0xffffffca

00003c54 <l3735>:
    3c54:	e3a0902a 	mov	r9, #42	; 0x2a

00003c58 <l3736>:
    3c58:	010d90b9 	strheq	r9, [sp, -r9]

00003c5c <l3737>:
    3c5c:	015d73d3 	ldrsbeq	r7, [sp, #-51]	; 0xffffffcd

00003c60 <l3738>:
    3c60:	e15db1b0 	ldrh	fp, [sp, #-16]

00003c64 <l3739>:
    3c64:	015d81d0 	ldrsbeq	r8, [sp, #-16]

00003c68 <l3740>:
    3c68:	215d32da 	ldrsbcs	r3, [sp, #-42]	; 0xffffffd6

00003c6c <l3741>:
    3c6c:	e3a08038 	mov	r8, #56	; 0x38

00003c70 <l3742>:
    3c70:	e11d40b8 	ldrh	r4, [sp, -r8]

00003c74 <l3743>:
    3c74:	815d00da 	ldrsbhi	r0, [sp, #-10]

00003c78 <l3744>:
    3c78:	515d33b0 	ldrhpl	r3, [sp, #-48]	; 0xffffffd0

00003c7c <l3745>:
    3c7c:	815de0fa 	ldrshhi	lr, [sp, #-10]

00003c80 <l3746>:
    3c80:	e3a0704e 	mov	r7, #78	; 0x4e

00003c84 <l3747>:
    3c84:	611d20b7 	ldrhvs	r2, [sp, -r7]

00003c88 <l3748>:
    3c88:	e3a04028 	mov	r4, #40	; 0x28

00003c8c <l3749>:
    3c8c:	611d90d4 	ldrsbvs	r9, [sp, -r4]

00003c90 <l3750>:
    3c90:	e3a0500e 	mov	r5, #14

00003c94 <l3751>:
    3c94:	e11d70b5 	ldrh	r7, [sp, -r5]

00003c98 <l3752>:
    3c98:	e15d72f6 	ldrsh	r7, [sp, #-38]	; 0xffffffda

00003c9c <l3753>:
    3c9c:	e3a02006 	mov	r2, #6

00003ca0 <l3754>:
    3ca0:	711d30f2 	ldrshvc	r3, [sp, -r2]

00003ca4 <l3755>:
    3ca4:	315da4d4 	ldrsbcc	sl, [sp, #-68]	; 0xffffffbc

00003ca8 <l3756>:
    3ca8:	e3a0e050 	mov	lr, #80	; 0x50

00003cac <l3757>:
    3cac:	e11d50de 	ldrsb	r5, [sp, -lr]

00003cb0 <l3758>:
    3cb0:	315d70fa 	ldrshcc	r7, [sp, #-10]

00003cb4 <l3759>:
    3cb4:	e3a06010 	mov	r6, #16

00003cb8 <l3760>:
    3cb8:	511da0b6 	ldrhpl	sl, [sp, -r6]

00003cbc <l3761>:
    3cbc:	214de1b4 	strhcs	lr, [sp, #-20]	; 0xffffffec

00003cc0 <l3762>:
    3cc0:	e3a0b00c 	mov	fp, #12

00003cc4 <l3763>:
    3cc4:	e11d00fb 	ldrsh	r0, [sp, -fp]

00003cc8 <l3764>:
    3cc8:	814db4b6 	strhhi	fp, [sp, #-70]	; 0xffffffba

00003ccc <l3765>:
    3ccc:	e3a0800e 	mov	r8, #14

00003cd0 <l3766>:
    3cd0:	211d10b8 	ldrhcs	r1, [sp, -r8]

00003cd4 <l3767>:
    3cd4:	915de2fa 	ldrshls	lr, [sp, #-42]	; 0xffffffd6

00003cd8 <l3768>:
    3cd8:	e14db2b8 	strh	fp, [sp, #-40]	; 0xffffffd8

00003cdc <l3769>:
    3cdc:	614db4ba 	strhvs	fp, [sp, #-74]	; 0xffffffb6

00003ce0 <l3770>:
    3ce0:	e3a0b04c 	mov	fp, #76	; 0x4c

00003ce4 <l3771>:
    3ce4:	e11d10fb 	ldrsh	r1, [sp, -fp]

00003ce8 <l3772>:
    3ce8:	e3a0b04a 	mov	fp, #74	; 0x4a

00003cec <l3773>:
    3cec:	c11da0bb 	ldrhgt	sl, [sp, -fp]

00003cf0 <l3774>:
    3cf0:	e3a0e006 	mov	lr, #6

00003cf4 <l3775>:
    3cf4:	e11db0be 	ldrh	fp, [sp, -lr]

00003cf8 <l3776>:
    3cf8:	e3a00020 	mov	r0, #32

00003cfc <l3777>:
    3cfc:	c11d50d0 	ldrsbgt	r5, [sp, -r0]

00003d00 <l3778>:
    3d00:	e3a0300e 	mov	r3, #14

00003d04 <l3779>:
    3d04:	e11d80b3 	ldrh	r8, [sp, -r3]

00003d08 <l3780>:
    3d08:	e3a0002a 	mov	r0, #42	; 0x2a

00003d0c <l3781>:
    3d0c:	e11db0d0 	ldrsb	fp, [sp, -r0]

00003d10 <l3782>:
    3d10:	914de2b0 	strhls	lr, [sp, #-32]	; 0xffffffe0

00003d14 <l3783>:
    3d14:	e15d42b6 	ldrh	r4, [sp, #-38]	; 0xffffffda

00003d18 <l3784>:
    3d18:	e3a07007 	mov	r7, #7

00003d1c <l3785>:
    3d1c:	d11d10d7 	ldrsble	r1, [sp, -r7]

00003d20 <l3786>:
    3d20:	215d11b8 	ldrhcs	r1, [sp, #-24]	; 0xffffffe8

00003d24 <l3787>:
    3d24:	e3a00050 	mov	r0, #80	; 0x50

00003d28 <l3788>:
    3d28:	610dc0b0 	strhvs	ip, [sp, -r0]

00003d2c <l3789>:
    3d2c:	415d34f4 	ldrshmi	r3, [sp, #-68]	; 0xffffffbc

00003d30 <l3790>:
    3d30:	e3a0c012 	mov	ip, #18

00003d34 <l3791>:
    3d34:	e11d70fc 	ldrsh	r7, [sp, -ip]

00003d38 <l3792>:
    3d38:	a14d62ba 	strhge	r6, [sp, #-42]	; 0xffffffd6

00003d3c <l3793>:
    3d3c:	e3a0e016 	mov	lr, #22

00003d40 <l3794>:
    3d40:	811db0be 	ldrhhi	fp, [sp, -lr]

00003d44 <l3795>:
    3d44:	515db4d5 	ldrsbpl	fp, [sp, #-69]	; 0xffffffbb

00003d48 <l3796>:
    3d48:	a14db3bc 	strhge	fp, [sp, #-60]	; 0xffffffc4

00003d4c <l3797>:
    3d4c:	e3a06018 	mov	r6, #24

00003d50 <l3798>:
    3d50:	311d00d6 	ldrsbcc	r0, [sp, -r6]

00003d54 <l3799>:
    3d54:	e15d50fa 	ldrsh	r5, [sp, #-10]

00003d58 <l3800>:
    3d58:	e3a0c01e 	mov	ip, #30

00003d5c <l3801>:
    3d5c:	e11d90bc 	ldrh	r9, [sp, -ip]

00003d60 <l3802>:
    3d60:	015db2df 	ldrsbeq	fp, [sp, #-47]	; 0xffffffd1

00003d64 <l3803>:
    3d64:	e15db1b0 	ldrh	fp, [sp, #-16]

00003d68 <l3804>:
    3d68:	115d04d3 	ldrsbne	r0, [sp, #-67]	; 0xffffffbd

00003d6c <l3805>:
    3d6c:	e3a0403c 	mov	r4, #60	; 0x3c

00003d70 <l3806>:
    3d70:	a10da0b4 	strhge	sl, [sp, -r4]

00003d74 <l3807>:
    3d74:	e3a08042 	mov	r8, #66	; 0x42

00003d78 <l3808>:
    3d78:	b10d70b8 	strhlt	r7, [sp, -r8]

00003d7c <l3809>:
    3d7c:	d15d42fc 	ldrshle	r4, [sp, #-44]	; 0xffffffd4

00003d80 <l3810>:
    3d80:	315d64b6 	ldrhcc	r6, [sp, #-70]	; 0xffffffba

00003d84 <l3811>:
    3d84:	e15d82be 	ldrh	r8, [sp, #-46]	; 0xffffffd2

00003d88 <l3812>:
    3d88:	e3a0100c 	mov	r1, #12

00003d8c <l3813>:
    3d8c:	b11dc0b1 	ldrhlt	ip, [sp, -r1]

00003d90 <l3814>:
    3d90:	515d60d5 	ldrsbpl	r6, [sp, #-5]

00003d94 <l3815>:
    3d94:	e3a06026 	mov	r6, #38	; 0x26

00003d98 <l3816>:
    3d98:	910d70b6 	strhls	r7, [sp, -r6]

00003d9c <l3817>:
    3d9c:	814d63b2 	strhhi	r6, [sp, #-50]	; 0xffffffce

00003da0 <l3818>:
    3da0:	e3a0100a 	mov	r1, #10

00003da4 <l3819>:
    3da4:	e11db0b1 	ldrh	fp, [sp, -r1]

00003da8 <l3820>:
    3da8:	e3a0c048 	mov	ip, #72	; 0x48

00003dac <l3821>:
    3dac:	a11db0bc 	ldrhge	fp, [sp, -ip]

00003db0 <l3822>:
    3db0:	e3a0604f 	mov	r6, #79	; 0x4f

00003db4 <l3823>:
    3db4:	e11d80d6 	ldrsb	r8, [sp, -r6]

00003db8 <l3824>:
    3db8:	e3a05020 	mov	r5, #32

00003dbc <l3825>:
    3dbc:	e11d90d5 	ldrsb	r9, [sp, -r5]

00003dc0 <l3826>:
    3dc0:	e3a06010 	mov	r6, #16

00003dc4 <l3827>:
    3dc4:	e11d10f6 	ldrsh	r1, [sp, -r6]

00003dc8 <l3828>:
    3dc8:	e3a0e04e 	mov	lr, #78	; 0x4e

00003dcc <l3829>:
    3dcc:	e11d70fe 	ldrsh	r7, [sp, -lr]

00003dd0 <l3830>:
    3dd0:	e3a0701c 	mov	r7, #28

00003dd4 <l3831>:
    3dd4:	910d20b7 	strhls	r2, [sp, -r7]

00003dd8 <l3832>:
    3dd8:	d15d44d3 	ldrsble	r4, [sp, #-67]	; 0xffffffbd

00003ddc <l3833>:
    3ddc:	e3a0a046 	mov	sl, #70	; 0x46

00003de0 <l3834>:
    3de0:	411d90fa 	ldrshmi	r9, [sp, -sl]

00003de4 <l3835>:
    3de4:	e3a0700a 	mov	r7, #10

00003de8 <l3836>:
    3de8:	e10d80b7 	strh	r8, [sp, -r7]

00003dec <l3837>:
    3dec:	e15d40d7 	ldrsb	r4, [sp, #-7]

00003df0 <l3838>:
    3df0:	e15de2f4 	ldrsh	lr, [sp, #-36]	; 0xffffffdc

00003df4 <l3839>:
    3df4:	c15d51f8 	ldrshgt	r5, [sp, #-24]	; 0xffffffe8

00003df8 <l3840>:
    3df8:	e3a0c01a 	mov	ip, #26

00003dfc <l3841>:
    3dfc:	e11d00fc 	ldrsh	r0, [sp, -ip]

00003e00 <l3842>:
    3e00:	e3a0a015 	mov	sl, #21

00003e04 <l3843>:
    3e04:	e11d00da 	ldrsb	r0, [sp, -sl]

00003e08 <l3844>:
    3e08:	e3a0a020 	mov	sl, #32

00003e0c <l3845>:
    3e0c:	211d10ba 	ldrhcs	r1, [sp, -sl]

00003e10 <l3846>:
    3e10:	e15d61b6 	ldrh	r6, [sp, #-22]	; 0xffffffea

00003e14 <l3847>:
    3e14:	e3a0002c 	mov	r0, #44	; 0x2c

00003e18 <l3848>:
    3e18:	a11de0f0 	ldrshge	lr, [sp, -r0]

00003e1c <l3849>:
    3e1c:	e3a07038 	mov	r7, #56	; 0x38

00003e20 <l3850>:
    3e20:	e10d30b7 	strh	r3, [sp, -r7]

00003e24 <l3851>:
    3e24:	e3a0b042 	mov	fp, #66	; 0x42

00003e28 <l3852>:
    3e28:	711d00bb 	ldrhvc	r0, [sp, -fp]

00003e2c <l3853>:
    3e2c:	e3a00024 	mov	r0, #36	; 0x24

00003e30 <l3854>:
    3e30:	e11d90f0 	ldrsh	r9, [sp, -r0]

00003e34 <l3855>:
    3e34:	e15d91dd 	ldrsb	r9, [sp, #-29]	; 0xffffffe3

00003e38 <l3856>:
    3e38:	e14d34b0 	strh	r3, [sp, #-64]	; 0xffffffc0

00003e3c <l3857>:
    3e3c:	e3a06010 	mov	r6, #16

00003e40 <l3858>:
    3e40:	d10d90b6 	strhle	r9, [sp, -r6]

00003e44 <l3859>:
    3e44:	c15d43da 	ldrsbgt	r4, [sp, #-58]	; 0xffffffc6

00003e48 <l3860>:
    3e48:	e15db3fc 	ldrsh	fp, [sp, #-60]	; 0xffffffc4

00003e4c <l3861>:
    3e4c:	a15de0da 	ldrsbge	lr, [sp, #-10]

00003e50 <l3862>:
    3e50:	e3a0004c 	mov	r0, #76	; 0x4c

00003e54 <l3863>:
    3e54:	711d40f0 	ldrshvc	r4, [sp, -r0]

00003e58 <l3864>:
    3e58:	415dc1b2 	ldrhmi	ip, [sp, #-18]	; 0xffffffee

00003e5c <l3865>:
    3e5c:	e15d62bc 	ldrh	r6, [sp, #-44]	; 0xffffffd4

00003e60 <l3866>:
    3e60:	d15dc3f8 	ldrshle	ip, [sp, #-56]	; 0xffffffc8

00003e64 <l3867>:
    3e64:	e3a0a025 	mov	sl, #37	; 0x25

00003e68 <l3868>:
    3e68:	211d00da 	ldrsbcs	r0, [sp, -sl]

00003e6c <l3869>:
    3e6c:	115d83f0 	ldrshne	r8, [sp, #-48]	; 0xffffffd0

00003e70 <l3870>:
    3e70:	e3a0c024 	mov	ip, #36	; 0x24

00003e74 <l3871>:
    3e74:	211dc0fc 	ldrshcs	ip, [sp, -ip]

00003e78 <l3872>:
    3e78:	e15d04de 	ldrsb	r0, [sp, #-78]	; 0xffffffb2

00003e7c <l3873>:
    3e7c:	715db4ba 	ldrhvc	fp, [sp, #-74]	; 0xffffffb6

00003e80 <l3874>:
    3e80:	e15de1b4 	ldrh	lr, [sp, #-20]	; 0xffffffec

00003e84 <l3875>:
    3e84:	015db0d7 	ldrsbeq	fp, [sp, #-7]

00003e88 <l3876>:
    3e88:	e14d10b8 	strh	r1, [sp, #-8]

00003e8c <l3877>:
    3e8c:	e14d61bc 	strh	r6, [sp, #-28]	; 0xffffffe4

00003e90 <l3878>:
    3e90:	e3a03034 	mov	r3, #52	; 0x34

00003e94 <l3879>:
    3e94:	e10de0b3 	strh	lr, [sp, -r3]

00003e98 <l3880>:
    3e98:	a14d41ba 	strhge	r4, [sp, #-26]	; 0xffffffe6

00003e9c <l3881>:
    3e9c:	715d95d0 	ldrsbvc	r9, [sp, #-80]	; 0xffffffb0

00003ea0 <l3882>:
    3ea0:	e3a07006 	mov	r7, #6

00003ea4 <l3883>:
    3ea4:	610d70b7 	strhvs	r7, [sp, -r7]

00003ea8 <l3884>:
    3ea8:	914d92b4 	strhls	r9, [sp, #-36]	; 0xffffffdc

00003eac <l3885>:
    3eac:	e3a02016 	mov	r2, #22

00003eb0 <l3886>:
    3eb0:	911d10b2 	ldrhls	r1, [sp, -r2]

00003eb4 <l3887>:
    3eb4:	e14d84ba 	strh	r8, [sp, #-74]	; 0xffffffb6

00003eb8 <l3888>:
    3eb8:	e3a0c04e 	mov	ip, #78	; 0x4e

00003ebc <l3889>:
    3ebc:	211d50bc 	ldrhcs	r5, [sp, -ip]

00003ec0 <l3890>:
    3ec0:	d15d62b2 	ldrhle	r6, [sp, #-34]	; 0xffffffde

00003ec4 <l3891>:
    3ec4:	e3a07018 	mov	r7, #24

00003ec8 <l3892>:
    3ec8:	d10d90b7 	strhle	r9, [sp, -r7]

00003ecc <l3893>:
    3ecc:	e3a06038 	mov	r6, #56	; 0x38

00003ed0 <l3894>:
    3ed0:	b11d50f6 	ldrshlt	r5, [sp, -r6]

00003ed4 <l3895>:
    3ed4:	e14db4b6 	strh	fp, [sp, #-70]	; 0xffffffba

00003ed8 <l3896>:
    3ed8:	815d82d0 	ldrsbhi	r8, [sp, #-32]	; 0xffffffe0

00003edc <l3897>:
    3edc:	e3a01022 	mov	r1, #34	; 0x22

00003ee0 <l3898>:
    3ee0:	a11de0d1 	ldrsbge	lr, [sp, -r1]

00003ee4 <l3899>:
    3ee4:	214d84b0 	strhcs	r8, [sp, #-64]	; 0xffffffc0

00003ee8 <l3900>:
    3ee8:	e3a0700a 	mov	r7, #10

00003eec <l3901>:
    3eec:	e11d60f7 	ldrsh	r6, [sp, -r7]

00003ef0 <l3902>:
    3ef0:	915d62f2 	ldrshls	r6, [sp, #-34]	; 0xffffffde

00003ef4 <l3903>:
    3ef4:	814d31b6 	strhhi	r3, [sp, #-22]	; 0xffffffea

00003ef8 <l3904>:
    3ef8:	b15d82f6 	ldrshlt	r8, [sp, #-38]	; 0xffffffda

00003efc <l3905>:
    3efc:	015d11d9 	ldrsbeq	r1, [sp, #-25]	; 0xffffffe7

00003f00 <l3906>:
    3f00:	e3a0c016 	mov	ip, #22

00003f04 <l3907>:
    3f04:	e11d30fc 	ldrsh	r3, [sp, -ip]

00003f08 <l3908>:
    3f08:	e3a04042 	mov	r4, #66	; 0x42

00003f0c <l3909>:
    3f0c:	e10da0b4 	strh	sl, [sp, -r4]

00003f10 <l3910>:
    3f10:	e3a0601a 	mov	r6, #26

00003f14 <l3911>:
    3f14:	511d60f6 	ldrshpl	r6, [sp, -r6]

00003f18 <l3912>:
    3f18:	e3a03042 	mov	r3, #66	; 0x42

00003f1c <l3913>:
    3f1c:	011d40d3 	ldrsbeq	r4, [sp, -r3]

00003f20 <l3914>:
    3f20:	414dc0ba 	strhmi	ip, [sp, #-10]

00003f24 <l3915>:
    3f24:	214dc2be 	strhcs	ip, [sp, #-46]	; 0xffffffd2

00003f28 <l3916>:
    3f28:	e14d61bc 	strh	r6, [sp, #-28]	; 0xffffffe4

00003f2c <l3917>:
    3f2c:	e3a09048 	mov	r9, #72	; 0x48

00003f30 <l3918>:
    3f30:	e10db0b9 	strh	fp, [sp, -r9]

00003f34 <l3919>:
    3f34:	e3a06006 	mov	r6, #6

00003f38 <l3920>:
    3f38:	e10d00b6 	strh	r0, [sp, -r6]

00003f3c <l3921>:
    3f3c:	e15d81d5 	ldrsb	r8, [sp, #-21]	; 0xffffffeb

00003f40 <l3922>:
    3f40:	c14db0b6 	strhgt	fp, [sp, #-6]

00003f44 <l3923>:
    3f44:	e3a0801a 	mov	r8, #26

00003f48 <l3924>:
    3f48:	710d70b8 	strhvc	r7, [sp, -r8]

00003f4c <l3925>:
    3f4c:	e3a01050 	mov	r1, #80	; 0x50

00003f50 <l3926>:
    3f50:	910d80b1 	strhls	r8, [sp, -r1]

00003f54 <l3927>:
    3f54:	e15d21fc 	ldrsh	r2, [sp, #-28]	; 0xffffffe4

00003f58 <l3928>:
    3f58:	e3a0b050 	mov	fp, #80	; 0x50

00003f5c <l3929>:
    3f5c:	210d10bb 	strhcs	r1, [sp, -fp]

00003f60 <l3930>:
    3f60:	e14d02b0 	strh	r0, [sp, #-32]	; 0xffffffe0

00003f64 <l3931>:
    3f64:	e3a07030 	mov	r7, #48	; 0x30

00003f68 <l3932>:
    3f68:	411d90f7 	ldrshmi	r9, [sp, -r7]

00003f6c <l3933>:
    3f6c:	515d32bc 	ldrhpl	r3, [sp, #-44]	; 0xffffffd4

00003f70 <l3934>:
    3f70:	e15d50b6 	ldrh	r5, [sp, #-6]

00003f74 <l3935>:
    3f74:	e3a0b037 	mov	fp, #55	; 0x37

00003f78 <l3936>:
    3f78:	811d70db 	ldrsbhi	r7, [sp, -fp]

00003f7c <l3937>:
    3f7c:	e3a0a04e 	mov	sl, #78	; 0x4e

00003f80 <l3938>:
    3f80:	b11d40ba 	ldrhlt	r4, [sp, -sl]

00003f84 <l3939>:
    3f84:	e15d62d3 	ldrsb	r6, [sp, #-35]	; 0xffffffdd

00003f88 <l3940>:
    3f88:	e3a0e050 	mov	lr, #80	; 0x50

00003f8c <l3941>:
    3f8c:	e11d70be 	ldrh	r7, [sp, -lr]

00003f90 <l3942>:
    3f90:	e3a0200e 	mov	r2, #14

00003f94 <l3943>:
    3f94:	e11d00b2 	ldrh	r0, [sp, -r2]

00003f98 <l3944>:
    3f98:	914d74b0 	strhls	r7, [sp, #-64]	; 0xffffffc0

00003f9c <l3945>:
    3f9c:	215d81be 	ldrhcs	r8, [sp, #-30]	; 0xffffffe2

00003fa0 <l3946>:
    3fa0:	e3a0e020 	mov	lr, #32

00003fa4 <l3947>:
    3fa4:	211d50de 	ldrsbcs	r5, [sp, -lr]

