
interrupt_rand.o:     file format elf32-littlearm


Disassembly of section .text:

00000000 <vectors_start>:
       0:	eafffffe 	b	38 <main>
       4:	eafffffe 	b	4 <vectors_start+0x4>
       8:	eafffffe 	b	8 <vectors_start+0x8>
       c:	eafffffe 	b	c <vectors_start+0xc>
      10:	eafffffe 	b	10 <vectors_start+0x10>
      14:	eafffffe 	b	14 <vectors_start+0x14>
      18:	ea000001 	b	24 <irq_handler>
      1c:	eafffffe 	b	1c <vectors_start+0x1c>

00000020 <UART_DR>:
      20:	16000000 	.word	0x16000000

00000024 <irq_handler>:
      24:	e58d1000 	str	r1, [sp]
      28:	e51f1010 	ldr	r1, [pc, #-16]	; 20 <UART_DR>
      2c:	e5911000 	ldr	r1, [r1]
      30:	e59d1000 	ldr	r1, [sp]
      34:	e25ef004 	subs	pc, lr, #4

00000038 <main>:
      38:	e05f000f 	subs	r0, pc, pc
      3c:	e59fd000 	ldr	sp, [pc]	; 44 <val>
      40:	ea000000 	b	48 <next>

00000044 <val>:
      44:	000ffff0 	.word	0x000ffff0

00000048 <next>:
      48:	e59f1000 	ldr	r1, [pc]	; 50 <val1>
      4c:	ea000000 	b	54 <next1>

00000050 <val1>:
      50:	6585eb1c 	.word	0x6585eb1c

00000054 <next1>:
      54:	e59f2000 	ldr	r2, [pc]	; 5c <val2>
      58:	ea000000 	b	60 <next2>

0000005c <val2>:
      5c:	7c2963af 	.word	0x7c2963af

00000060 <next2>:
      60:	e59f3000 	ldr	r3, [pc]	; 68 <val3>
      64:	ea000000 	b	6c <next3>

00000068 <val3>:
      68:	024ee306 	.word	0x024ee306

0000006c <next3>:
      6c:	e59f4000 	ldr	r4, [pc]	; 74 <val4>
      70:	ea000000 	b	78 <next4>

00000074 <val4>:
      74:	7a54836d 	.word	0x7a54836d

00000078 <next4>:
      78:	e59f5000 	ldr	r5, [pc]	; 80 <val5>
      7c:	ea000000 	b	84 <next5>

00000080 <val5>:
      80:	caee6ed8 	.word	0xcaee6ed8

00000084 <next5>:
      84:	e59f6000 	ldr	r6, [pc]	; 8c <val6>
      88:	ea000000 	b	90 <next6>

0000008c <val6>:
      8c:	7a428e3d 	.word	0x7a428e3d

00000090 <next6>:
      90:	e59f7000 	ldr	r7, [pc]	; 98 <val7>
      94:	ea000000 	b	9c <next7>

00000098 <val7>:
      98:	795d3798 	.word	0x795d3798

0000009c <next7>:
      9c:	e59f8000 	ldr	r8, [pc]	; a4 <val8>
      a0:	ea000000 	b	a8 <next8>

000000a4 <val8>:
      a4:	feab3de9 	.word	0xfeab3de9

000000a8 <next8>:
      a8:	e59f9000 	ldr	r9, [pc]	; b0 <val9>
      ac:	ea000000 	b	b4 <next9>

000000b0 <val9>:
      b0:	b870c3cf 	.word	0xb870c3cf

000000b4 <next9>:
      b4:	e59fa000 	ldr	sl, [pc]	; bc <val10>
      b8:	ea000000 	b	c0 <next10>

000000bc <val10>:
      bc:	c4e88d85 	.word	0xc4e88d85

000000c0 <next10>:
      c0:	e59fb000 	ldr	fp, [pc]	; c8 <val11>
      c4:	ea000000 	b	cc <next11>

000000c8 <val11>:
      c8:	f16259f0 	.word	0xf16259f0

000000cc <next11>:
      cc:	e59fc000 	ldr	ip, [pc]	; d4 <val12>
      d0:	ea000000 	b	d8 <next12>

000000d4 <val12>:
      d4:	dcbbf68f 	.word	0xdcbbf68f

000000d8 <next12>:
      d8:	e59fe000 	ldr	lr, [pc]	; e0 <val14>
      dc:	ea000000 	b	e4 <next14>

000000e0 <val14>:
      e0:	9cd0786f 	.word	0x9cd0786f

000000e4 <next14>:
      e4:	e59f1000 	ldr	r1, [pc]	; ec <val15>
      e8:	ea000000 	b	f0 <next15>

000000ec <val15>:
      ec:	42064bca 	.word	0x42064bca

000000f0 <next15>:
      f0:	e58d1000 	str	r1, [sp]
      f4:	e59f1000 	ldr	r1, [pc]	; fc <val16>
      f8:	ea000000 	b	100 <next16>

000000fc <val16>:
      fc:	210a3b3b 	.word	0x210a3b3b

00000100 <next16>:
     100:	e50d1004 	str	r1, [sp, #-4]
     104:	e59f1000 	ldr	r1, [pc]	; 10c <val17>
     108:	ea000000 	b	110 <next17>

0000010c <val17>:
     10c:	c981def7 	.word	0xc981def7

00000110 <next17>:
     110:	e50d1008 	str	r1, [sp, #-8]
     114:	e59f1000 	ldr	r1, [pc]	; 11c <val18>
     118:	ea000000 	b	120 <next18>

0000011c <val18>:
     11c:	7ca48fa6 	.word	0x7ca48fa6

00000120 <next18>:
     120:	e50d100c 	str	r1, [sp, #-12]
     124:	e59f1000 	ldr	r1, [pc]	; 12c <val19>
     128:	ea000000 	b	130 <next19>

0000012c <val19>:
     12c:	0734b292 	.word	0x0734b292

00000130 <next19>:
     130:	e50d1010 	str	r1, [sp, #-16]
     134:	e59f1000 	ldr	r1, [pc]	; 13c <val20>
     138:	ea000000 	b	140 <next20>

0000013c <val20>:
     13c:	0f2f3c2b 	.word	0x0f2f3c2b

00000140 <next20>:
     140:	e50d1014 	str	r1, [sp, #-20]
     144:	e59f1000 	ldr	r1, [pc]	; 14c <val21>
     148:	ea000000 	b	150 <next21>

0000014c <val21>:
     14c:	e8fd8109 	.word	0xe8fd8109

00000150 <next21>:
     150:	e50d1018 	str	r1, [sp, #-24]
     154:	e59f1000 	ldr	r1, [pc]	; 15c <val22>
     158:	ea000000 	b	160 <next22>

0000015c <val22>:
     15c:	b44c336a 	.word	0xb44c336a

00000160 <next22>:
     160:	e50d101c 	str	r1, [sp, #-28]
     164:	e59f1000 	ldr	r1, [pc]	; 16c <val23>
     168:	ea000000 	b	170 <next23>

0000016c <val23>:
     16c:	f5fbd974 	.word	0xf5fbd974

00000170 <next23>:
     170:	e50d1020 	str	r1, [sp, #-32]
     174:	e59f1000 	ldr	r1, [pc]	; 17c <val24>
     178:	ea000000 	b	180 <next24>

0000017c <val24>:
     17c:	a027193a 	.word	0xa027193a

00000180 <next24>:
     180:	e50d1024 	str	r1, [sp, #-36]	; 0x24
     184:	e59f1000 	ldr	r1, [pc]	; 18c <val25>
     188:	ea000000 	b	190 <next25>

0000018c <val25>:
     18c:	69c6b8eb 	.word	0x69c6b8eb

00000190 <next25>:
     190:	e50d1028 	str	r1, [sp, #-40]	; 0x28
     194:	e59f1000 	ldr	r1, [pc]	; 19c <val26>
     198:	ea000000 	b	1a0 <next26>

0000019c <val26>:
     19c:	1a8ff180 	.word	0x1a8ff180

000001a0 <next26>:
     1a0:	e50d102c 	str	r1, [sp, #-44]	; 0x2c
     1a4:	e59f1000 	ldr	r1, [pc]	; 1ac <val27>
     1a8:	ea000000 	b	1b0 <next27>

000001ac <val27>:
     1ac:	d16a5bde 	.word	0xd16a5bde

000001b0 <next27>:
     1b0:	e50d1030 	str	r1, [sp, #-48]	; 0x30
     1b4:	e59f1000 	ldr	r1, [pc]	; 1bc <val28>
     1b8:	ea000000 	b	1c0 <next28>

000001bc <val28>:
     1bc:	804d8e92 	.word	0x804d8e92

000001c0 <next28>:
     1c0:	e50d1034 	str	r1, [sp, #-52]	; 0x34
     1c4:	e59f1000 	ldr	r1, [pc]	; 1cc <val29>
     1c8:	ea000000 	b	1d0 <next29>

000001cc <val29>:
     1cc:	99536b0d 	.word	0x99536b0d

000001d0 <next29>:
     1d0:	e50d1038 	str	r1, [sp, #-56]	; 0x38
     1d4:	e59f1000 	ldr	r1, [pc]	; 1dc <val30>
     1d8:	ea000000 	b	1e0 <next30>

000001dc <val30>:
     1dc:	750a02ad 	.word	0x750a02ad

000001e0 <next30>:
     1e0:	e50d103c 	str	r1, [sp, #-60]	; 0x3c
     1e4:	e59f1000 	ldr	r1, [pc]	; 1ec <val31>
     1e8:	ea000000 	b	1f0 <next31>

000001ec <val31>:
     1ec:	d59a9ed8 	.word	0xd59a9ed8

000001f0 <next31>:
     1f0:	e50d1040 	str	r1, [sp, #-64]	; 0x40
     1f4:	e59f1000 	ldr	r1, [pc]	; 1fc <val32>
     1f8:	ea000000 	b	200 <next32>

000001fc <val32>:
     1fc:	0f7be002 	.word	0x0f7be002

00000200 <next32>:
     200:	e50d1044 	str	r1, [sp, #-68]	; 0x44
     204:	e59f1000 	ldr	r1, [pc]	; 20c <val33>
     208:	ea000000 	b	210 <next33>

0000020c <val33>:
     20c:	2c17264f 	.word	0x2c17264f

00000210 <next33>:
     210:	e50d1048 	str	r1, [sp, #-72]	; 0x48
     214:	e59f1000 	ldr	r1, [pc]	; 21c <val34>
     218:	ea000000 	b	220 <next34>

0000021c <val34>:
     21c:	7d0cd40a 	.word	0x7d0cd40a

00000220 <next34>:
     220:	e50d104c 	str	r1, [sp, #-76]	; 0x4c
     224:	e59f1000 	ldr	r1, [pc]	; 22c <val35>
     228:	ea000000 	b	230 <next35>

0000022c <val35>:
     22c:	263ff3a2 	.word	0x263ff3a2

00000230 <next35>:
     230:	e50d1050 	str	r1, [sp, #-80]	; 0x50
     234:	ea000003 	b	248 <next36>

00000238 <val36>:
     238:	001ffff0 	.word	0x001ffff0

0000023c <PIC_IRQ_ENCLR>:
     23c:	1400000c 	.word	0x1400000c

00000240 <UART0_IMSC>:
     240:	16000038 	.word	0x16000038

00000244 <PIC_IRQ_ENSET>:
     244:	14000008 	.word	0x14000008

00000248 <next36>:
     248:	e10f0000 	mrs	r0, CPSR
     24c:	e3c0101f 	bic	r1, r0, #31
     250:	e3811012 	orr	r1, r1, #18
     254:	e129f001 	msr	CPSR_fc, r1
     258:	e51fd028 	ldr	sp, [pc, #-40]	; 238 <val36>
     25c:	e3c00080 	bic	r0, r0, #128	; 0x80
     260:	e129f000 	msr	CPSR_fc, r0
     264:	e51f3030 	ldr	r3, [pc, #-48]	; 23c <PIC_IRQ_ENCLR>
     268:	e3a02002 	mov	r2, #2
     26c:	e5832000 	str	r2, [r3]
     270:	e51f3038 	ldr	r3, [pc, #-56]	; 240 <UART0_IMSC>
     274:	e3a02010 	mov	r2, #16
     278:	e5832000 	str	r2, [r3]
     27c:	e51f3040 	ldr	r3, [pc, #-64]	; 244 <PIC_IRQ_ENSET>
     280:	e3a02002 	mov	r2, #2
     284:	e5832000 	str	r2, [r3]

00000288 <l1>:
     288:	e2599445 	subs	r9, r9, #1157627904	; 0x45000000

0000028c <l2>:
     28c:	e3a01020 	mov	r1, #32

00000290 <l3>:
     290:	e70d9001 	str	r9, [sp, -r1]

00000294 <interrupt_258>:
     294:	e0852002 	add	r2, r5, r2

00000298 <l5>:
     298:	816f7f1e 	clzhi	r7, lr

0000029c <l6>:
     29c:	e0685068 	rsb	r5, r8, r8, rrx

000002a0 <l7>:
     2a0:	317f018c 	cmncc	pc, ip, lsl #3

000002a4 <l8>:
     2a4:	e82de000 	stmda	sp!, {sp, lr, pc}

000002a8 <l9>:
     2a8:	1280218f 	addne	r2, r0, #-1073741789	; 0xc0000023

000002ac <l10>:
     2ac:	a072e277 	rsbsge	lr, r2, r7, ror r2

000002b0 <l11>:
     2b0:	63e0287d 	mvnvs	r2, #8192000	; 0x7d0000

000002b4 <l12>:
     2b4:	e59fb000 	ldr	fp, [pc]	; 2bc <l14>

000002b8 <l13>:
     2b8:	ea000000 	b	2c0 <interrupt_452>

000002bc <l14>:
     2bc:	000fffb4 	.word	0x000fffb4

000002c0 <interrupt_452>:
     2c0:	e10b9090 	swp	r9, r0, [fp]

000002c4 <l16>:
     2c4:	e8bd0080 	ldmfd	sp!, {r7}

000002c8 <interrupt_31>:
     2c8:	e16f1f18 	clz	r1, r8

000002cc <interrupt_322>:
     2cc:	e3a05010 	mov	r5, #16

000002d0 <l19>:
     2d0:	510d40b5 	strhpl	r4, [sp, -r5]

000002d4 <interrupt_394>:
     2d4:	e1a00000 	nop			; (mov r0, r0)

000002d8 <interrupt_25>:
     2d8:	e1a00000 	nop			; (mov r0, r0)

000002dc <interrupt_257>:
     2dc:	e3a06012 	mov	r6, #18

000002e0 <l23>:
     2e0:	e75d7006 	ldrb	r7, [sp, -r6]

000002e4 <l24>:
     2e4:	200c906e 	andcs	r9, ip, lr, rrx

000002e8 <l25>:
     2e8:	801a706e 	andshi	r7, sl, lr, rrx

000002ec <l26>:
     2ec:	a80d26b4 	stmdage	sp, {r2, r4, r5, r7, r9, sl, sp}

000002f0 <interrupt_979>:
     2f0:	e11e0006 	tst	lr, r6

000002f4 <l28>:
     2f4:	e358072a 	cmp	r8, #11010048	; 0xa80000

000002f8 <l29>:
     2f8:	93e0537f 	mvnls	r5, #-67108863	; 0xfc000001

000002fc <l30>:
     2fc:	e3a08047 	mov	r8, #71	; 0x47

00000300 <l31>:
     300:	e74dc008 	strb	ip, [sp, -r8]

00000304 <l32>:
     304:	e1d89b6f 	bics	r9, r8, pc, ror #22

00000308 <l33>:
     308:	01987007 	orrseq	r7, r8, r7

0000030c <l34>:
     30c:	11570005 	cmpne	r7, r5

00000310 <l35>:
     310:	e3a0702e 	mov	r7, #46	; 0x2e

00000314 <l36>:
     314:	911d40b7 	ldrhls	r4, [sp, -r7]

00000318 <interrupt_455>:
     318:	e1a0c004 	mov	ip, r4

0000031c <l38>:
     31c:	e55d1019 	ldrb	r1, [sp, #-25]

00000320 <interrupt_63>:
     320:	e3a0b010 	mov	fp, #16

00000324 <l40>:
     324:	474de00b 	strbmi	lr, [sp, -fp]

00000328 <l41>:
     328:	e59f8000 	ldr	r8, [pc]	; 330 <l43>

0000032c <l42>:
     32c:	ea000000 	b	334 <l44>

00000330 <l43>:
     330:	000fffbc 	.word	0x000fffbc

00000334 <l44>:
     334:	9148c093 	swpbls	ip, r3, [r8]

00000338 <l45>:
     338:	d0e0005b 	rscle	r0, r0, fp, asr r0

0000033c <l46>:
     33c:	e097171e 	adds	r1, r7, lr, lsl r7

00000340 <l47>:
     340:	207f4fa5 	rsbscs	r4, pc, r5, lsr #31

00000344 <l48>:
     344:	0a000002 	beq	354 <interrupt_64>

00000348 <l49>:
     348:	42af7445 	adcmi	r7, pc, #1157627904	; 0x45000000

0000034c <l50>:
     34c:	30139009 	andscc	r9, r3, r9

00000350 <l51>:
     350:	e0528209 	subs	r8, r2, r9, lsl #4

00000354 <interrupt_64>:
     354:	727521db 	rsbsvc	r2, r5, #-1073741770	; 0xc0000036

00000358 <l53>:
     358:	e93d1fe3 	ldmdb	sp!, {r0, r1, r5, r6, r7, r8, r9, sl, fp, ip}

0000035c <l54>:
     35c:	e2a67014 	adc	r7, r6, #20

00000360 <interrupt_788>:
     360:	e3a0c00e 	mov	ip, #14

00000364 <l56>:
     364:	e11da0dc 	ldrsb	sl, [sp, -ip]

00000368 <l57>:
     368:	3affffff 	bcc	36c <l58>

0000036c <l58>:
     36c:	c3500e2b 	cmpgt	r0, #688	; 0x2b0

00000370 <l59>:
     370:	3244559a 	subcc	r5, r4, #645922816	; 0x26800000

00000374 <l60>:
     374:	10e5000e 	rscne	r0, r5, lr

00000378 <l61>:
     378:	e0c978c8 	sbc	r7, r9, r8, asr #17

0000037c <l62>:
     37c:	e3a0a013 	mov	sl, #19

00000380 <l63>:
     380:	77dd900a 	ldrbvc	r9, [sp, sl]

00000384 <interrupt_650>:
     384:	e59f2000 	ldr	r2, [pc]	; 38c <l66>

00000388 <l65>:
     388:	ea000000 	b	390 <l67>

0000038c <l66>:
     38c:	000fffc4 	.word	0x000fffc4

00000390 <l67>:
     390:	e102909a 	swp	r9, sl, [r2]

00000394 <l68>:
     394:	e02c0e66 	eor	r0, ip, r6, ror #28

00000398 <l69>:
     398:	e3a0100d 	mov	r1, #13

0000039c <l70>:
     39c:	675d7001 	ldrbvs	r7, [sp, -r1]

000003a0 <interrupt_783>:
     3a0:	a15d30d1 	ldrsbge	r3, [sp, #-1]

000003a4 <l72>:
     3a4:	a1360d6c 	teqge	r6, ip, ror #26

000003a8 <l73>:
     3a8:	e0732502 	rsbs	r2, r3, r2, lsl #10

000003ac <l74>:
     3ac:	101c9354 	andsne	r9, ip, r4, asr r3

000003b0 <l75>:
     3b0:	e3a01021 	mov	r1, #33	; 0x21

000003b4 <l76>:
     3b4:	e7dd8001 	ldrb	r8, [sp, r1]

000003b8 <interrupt_11>:
     3b8:	b119000b 	tstlt	r9, fp

000003bc <l78>:
     3bc:	a3560ab9 	cmpge	r6, #757760	; 0xb9000

000003c0 <l79>:
     3c0:	b188a956 	orrlt	sl, r8, r6, asr r9

000003c4 <l80>:
     3c4:	e0711b77 	rsbs	r1, r1, r7, ror fp

000003c8 <interrupt_925>:
     3c8:	e1590174 	cmp	r9, r4, ror r1

000003cc <l82>:
     3cc:	81110778 	tsthi	r1, r8, ror r7

000003d0 <l83>:
     3d0:	e59f7000 	ldr	r7, [pc]	; 3d8 <l85>

000003d4 <interrupt_353>:
     3d4:	ea000000 	b	3dc <l86>

000003d8 <l85>:
     3d8:	000fffb0 	.word	0x000fffb0

000003dc <l86>:
     3dc:	41079094 	swpmi	r9, r4, [r7]

000003e0 <l87>:
     3e0:	e82d8a20 	stmda	sp!, {r5, r9, fp, pc}

000003e4 <l88>:
     3e4:	ea000003 	b	3f8 <l93>

000003e8 <l89>:
     3e8:	e2801044 	add	r1, r0, #68	; 0x44

000003ec <l90>:
     3ec:	e0c63000 	sbc	r3, r6, r0

000003f0 <l91>:
     3f0:	617a0002 	cmnvs	sl, r2

000003f4 <interrupt_647>:
     3f4:	ea000000 	b	3fc <l94>

000003f8 <l93>:
     3f8:	eafffffb 	b	3ec <l90>

000003fc <l94>:
     3fc:	72bc7fb5 	adcsvc	r7, ip, #724	; 0x2d4

00000400 <l95>:
     400:	e3cf23ad 	bic	r2, pc, #-1275068414	; 0xb4000002

00000404 <l96>:
     404:	e59f1000 	ldr	r1, [pc]	; 40c <l98>

00000408 <l97>:
     408:	ea000000 	b	410 <l99>

0000040c <l98>:
     40c:	000fffa8 	.word	0x000fffa8

00000410 <l99>:
     410:	21418096 	swpbcs	r8, r6, [r1]

00000414 <interrupt_272>:
     414:	a16f5f12 	clzge	r5, r2

00000418 <interrupt_907>:
     418:	e3a08034 	mov	r8, #52	; 0x34

0000041c <l102>:
     41c:	d79d2008 	ldrle	r2, [sp, r8]

00000420 <l103>:
     420:	100eab47 	andne	sl, lr, r7, asr #22

00000424 <interrupt_165>:
     424:	20e21008 	rsccs	r1, r2, r8

00000428 <l105>:
     428:	ea000005 	b	444 <interrupt_679>

0000042c <l106>:
     42c:	e280104a 	add	r1, r0, #74	; 0x4a

00000430 <interrupt_627>:
     430:	21a02353 	asrcs	r2, r3, r3

00000434 <l108>:
     434:	e0aeb006 	adc	fp, lr, r6

00000438 <l109>:
     438:	63b01c7f 	movsvs	r1, #32512	; 0x7f00

0000043c <interrupt_588>:
     43c:	00e30067 	rsceq	r0, r3, r7, rrx

00000440 <l111>:
     440:	ea000000 	b	448 <l113>

00000444 <interrupt_679>:
     444:	eafffff9 	b	430 <interrupt_627>

00000448 <l113>:
     448:	91cd12bc 	strhls	r1, [sp, #44]	; 0x2c

0000044c <l114>:
     44c:	e59f2000 	ldr	r2, [pc]	; 454 <l116>

00000450 <l115>:
     450:	ea000000 	b	458 <interrupt_814>

00000454 <l116>:
     454:	000fffb4 	.word	0x000fffb4

00000458 <interrupt_814>:
     458:	3102109b 	swpcc	r1, fp, [r2]

0000045c <l118>:
     45c:	698db973 	stmibvs	sp, {r0, r1, r4, r5, r6, r8, fp, ip, sp, pc}

00000460 <l119>:
     460:	e296b004 	adds	fp, r6, #4

00000464 <l120>:
     464:	e0b44063 	adcs	r4, r4, r3, rrx

00000468 <l121>:
     468:	ba000004 	blt	480 <l127>

0000046c <l122>:
     46c:	e28010c2 	add	r1, r0, #194	; 0xc2

00000470 <l123>:
     470:	516f4f13 	clzpl	r4, r3

00000474 <interrupt_490>:
     474:	40518063 	subsmi	r8, r1, r3, rrx

00000478 <interrupt_757>:
     478:	01e08006 	mvneq	r8, r6

0000047c <l126>:
     47c:	ea000000 	b	484 <l128>

00000480 <l127>:
     480:	eafffffa 	b	470 <l123>

00000484 <l128>:
     484:	e11e0886 	tst	lr, r6, lsl #17

00000488 <l129>:
     488:	d07e2061 	rsbsle	r2, lr, r1, rrx

0000048c <l130>:
     48c:	e59f5000 	ldr	r5, [pc]	; 494 <l132>

00000490 <l131>:
     490:	ea000000 	b	498 <l133>

00000494 <l132>:
     494:	000fffe4 	.word	0x000fffe4

00000498 <l133>:
     498:	6105c091 	swpvs	ip, r1, [r5]

0000049c <l134>:
     49c:	91150061 	tstls	r5, r1, rrx

000004a0 <l135>:
     4a0:	10d71a5b 	sbcsne	r1, r7, fp, asr sl

000004a4 <l136>:
     4a4:	e1ce4003 	bic	r4, lr, r3

000004a8 <interrupt_215>:
     4a8:	b5dd703b 	ldrblt	r7, [sp, #59]	; 0x3b

000004ac <interrupt_609>:
     4ac:	e16f3f19 	clz	r3, r9

000004b0 <l139>:
     4b0:	e3a0300a 	mov	r3, #10

000004b4 <l140>:
     4b4:	618d90b3 	strhvs	r9, [sp, r3]

000004b8 <l141>:
     4b8:	0178095b 	cmneq	r8, fp, asr r9

000004bc <l142>:
     4bc:	e5dd4032 	ldrb	r4, [sp, #50]	; 0x32

000004c0 <l143>:
     4c0:	e59fb000 	ldr	fp, [pc]	; 4c8 <l145>

000004c4 <interrupt_942>:
     4c4:	ea000000 	b	4cc <l146>

000004c8 <l145>:
     4c8:	000fffc4 	.word	0x000fffc4

000004cc <l146>:
     4cc:	814bc09c 	swpbhi	ip, ip, [fp]

000004d0 <l147>:
     4d0:	091d0002 	ldmdbeq	sp, {r1}

000004d4 <interrupt_554>:
     4d4:	e59f6000 	ldr	r6, [pc]	; 4dc <interrupt_500>

000004d8 <l149>:
     4d8:	ea000000 	b	4e0 <l151>

000004dc <interrupt_500>:
     4dc:	000fffa8 	.word	0x000fffa8

000004e0 <l151>:
     4e0:	41061092 	swpmi	r1, r2, [r6]

000004e4 <l152>:
     4e4:	715d80b4 	ldrhvc	r8, [sp, #-4]

000004e8 <l153>:
     4e8:	7196a06c 	orrsvc	sl, r6, ip, rrx

000004ec <l154>:
     4ec:	55cda019 	strbpl	sl, [sp, #25]

000004f0 <interrupt_189>:
     4f0:	61dd12bc 	ldrhvs	r1, [sp, #44]	; 0x2c

000004f4 <l156>:
     4f4:	e3a0102c 	mov	r1, #44	; 0x2c

000004f8 <l157>:
     4f8:	e68da001 	str	sl, [sp], r1

000004fc <l158>:
     4fc:	e3a02018 	mov	r2, #24

00000500 <l159>:
     500:	e11db0b2 	ldrh	fp, [sp, -r2]

00000504 <l160>:
     504:	e023206c 	eor	r2, r3, ip, rrx

00000508 <l161>:
     508:	a14d22b2 	strhge	r2, [sp, #-34]	; 0xffffffde

0000050c <interrupt_3>:
     50c:	e0ef2000 	rsc	r2, pc, r0

00000510 <l163>:
     510:	e3a0e016 	mov	lr, #22

00000514 <l164>:
     514:	610d70be 	strhvs	r7, [sp, -lr]

00000518 <l165>:
     518:	016f5f12 	clzeq	r5, r2

0000051c <l166>:
     51c:	e2c010ec 	sbc	r1, r0, #236	; 0xec

00000520 <l167>:
     520:	e14d01b4 	strh	r0, [sp, #-20]	; 0xffffffec

00000524 <l168>:
     524:	e51d2024 	ldr	r2, [sp, #-36]	; 0x24

00000528 <l169>:
     528:	e393269f 	orrs	r2, r3, #166723584	; 0x9f00000

0000052c <interrupt_102>:
     52c:	e0d9ec16 	sbcs	lr, r9, r6, lsl ip

00000530 <l171>:
     530:	e2d82a02 	sbcs	r2, r8, #8192	; 0x2000

00000534 <l172>:
     534:	e17e0e72 	cmn	lr, r2, ror lr

00000538 <l173>:
     538:	00ca2075 	sbceq	r2, sl, r5, ror r0

0000053c <interrupt_71>:
     53c:	e028e664 	eor	lr, r8, r4, ror #12

00000540 <l175>:
     540:	e027161a 	eor	r1, r7, sl, lsl r6

00000544 <interrupt_277>:
     544:	e330011f 	teq	r0, #-1073741817	; 0xc0000007

00000548 <l177>:
     548:	9040332c 	subls	r3, r0, ip, lsr #6

0000054c <l178>:
     54c:	81770254 	cmnhi	r7, r4, asr r2

00000550 <l179>:
     550:	e15d82ba 	ldrh	r8, [sp, #-42]	; 0xffffffd6

00000554 <l180>:
     554:	e3a01004 	mov	r1, #4

00000558 <l181>:
     558:	e7cda001 	strb	sl, [sp, r1]

0000055c <l182>:
     55c:	c0099a40 	andgt	r9, r9, r0, asr #20

00000560 <interrupt_932>:
     560:	e53d0030 	ldr	r0, [sp, #-48]!	; 0x30

00000564 <l184>:
     564:	c0ae8673 	adcgt	r8, lr, r3, ror r6

00000568 <interrupt_782>:
     568:	31c6200f 	biccc	r2, r6, pc

0000056c <l186>:
     56c:	e48dc018 	str	ip, [sp], #24

00000570 <interrupt_52>:
     570:	73c679f1 	bicvc	r7, r6, #3948544	; 0x3c4000

00000574 <interrupt_213>:
     574:	ea000006 	b	594 <l196>

00000578 <l189>:
     578:	e28010f5 	add	r1, r0, #245	; 0xf5

0000057c <interrupt_363>:
     57c:	a3f09c2b 	mvnsge	r9, #11008	; 0x2b00

00000580 <l191>:
     580:	10929460 	addsne	r9, r2, r0, ror #8

00000584 <l192>:
     584:	419c5236 	orrsmi	r5, ip, r6, lsr r2

00000588 <l193>:
     588:	e1f0517a 	mvns	r5, sl, ror r1

0000058c <interrupt_957>:
     58c:	e155027c 	cmp	r5, ip, ror r2

00000590 <interrupt_487>:
     590:	ea000000 	b	598 <l197>

00000594 <l196>:
     594:	eafffff8 	b	57c <interrupt_363>

00000598 <l197>:
     598:	216f3f10 	clzcs	r3, r0

0000059c <l198>:
     59c:	b1dd00d3 	ldrsblt	r0, [sp, #3]

000005a0 <l199>:
     5a0:	e2e12592 	rsc	r2, r1, #612368384	; 0x24800000

000005a4 <l200>:
     5a4:	e1160721 	tst	r6, r1, lsr #14

000005a8 <l201>:
     5a8:	42dc99d5 	sbcsmi	r9, ip, #3489792	; 0x354000

000005ac <l202>:
     5ac:	e3a08010 	mov	r8, #16

000005b0 <l203>:
     5b0:	e73de008 	ldr	lr, [sp, -r8]!

000005b4 <l204>:
     5b4:	4017a06c 	andsmi	sl, r7, ip, rrx

000005b8 <interrupt_836>:
     5b8:	e93d0100 	ldmdb	sp!, {r8}

000005bc <interrupt_156>:
     5bc:	505c90ac 	subspl	r9, ip, ip, lsr #1

000005c0 <l207>:
     5c0:	805c8b2c 	subshi	r8, ip, ip, lsr #22

000005c4 <interrupt_960>:
     5c4:	e59fb000 	ldr	fp, [pc]	; 5cc <l210>

000005c8 <l209>:
     5c8:	ea000000 	b	5d0 <l211>

000005cc <l210>:
     5cc:	000fffbc 	.word	0x000fffbc

000005d0 <l211>:
     5d0:	414b909a 	swpbmi	r9, sl, [fp]

000005d4 <interrupt_725>:
     5d4:	50c48009 	sbcpl	r8, r4, r9

000005d8 <l213>:
     5d8:	ea000006 	b	5f8 <l221>

000005dc <interrupt_562>:
     5dc:	e019cce5 	ands	ip, r9, r5, ror #25

000005e0 <interrupt_677>:
     5e0:	e16f1f15 	clz	r1, r5

000005e4 <l216>:
     5e4:	3137024b 	teqcc	r7, fp, asr #4

000005e8 <interrupt_676>:
     5e8:	e112006c 	tst	r2, ip, rrx

000005ec <l218>:
     5ec:	e11f0003 	tst	pc, r3

000005f0 <l219>:
     5f0:	e09c500e 	adds	r5, ip, lr

000005f4 <l220>:
     5f4:	e3a03906 	mov	r3, #98304	; 0x18000

000005f8 <l221>:
     5f8:	e13b0006 	teq	fp, r6

000005fc <interrupt_976>:
     5fc:	e3a0002c 	mov	r0, #44	; 0x2c

00000600 <l223>:
     600:	318dc0b0 	strhcc	ip, [sp, r0]

00000604 <interrupt_747>:
     604:	0a000006 	beq	624 <l232>

00000608 <l225>:
     608:	e28010a3 	add	r1, r0, #163	; 0xa3

0000060c <l226>:
     60c:	911e0065 	tstls	lr, r5, rrx

00000610 <interrupt_693>:
     610:	a17c0000 	cmnge	ip, r0

00000614 <l228>:
     614:	e0194556 	ands	r4, r9, r6, asr r5

00000618 <interrupt_851>:
     618:	531302bb 	tstpl	r3, #-1342177269	; 0xb000000b

0000061c <l230>:
     61c:	0288850a 	addeq	r8, r8, #41943040	; 0x2800000

00000620 <interrupt_408>:
     620:	ea000000 	b	628 <l233>

00000624 <l232>:
     624:	eafffff8 	b	60c <l226>

00000628 <l233>:
     628:	e1730b05 	cmn	r3, r5, lsl #22

0000062c <l234>:
     62c:	e0c6656c 	sbc	r6, r6, ip, ror #10

00000630 <l235>:
     630:	e098e81b 	adds	lr, r8, fp, lsl r8

00000634 <l236>:
     634:	e3a0c028 	mov	ip, #40	; 0x28

00000638 <l237>:
     638:	e79d000c 	ldr	r0, [sp, ip]

0000063c <l238>:
     63c:	319e700c 	orrscc	r7, lr, ip

00000640 <l239>:
     640:	a0425aaf 	subge	r5, r2, pc, lsr #21

00000644 <l240>:
     644:	11e0073a 	mvnne	r0, sl, lsr r7

00000648 <l241>:
     648:	ea000002 	b	658 <l245>

0000064c <l242>:
     64c:	e2801030 	add	r1, r0, #48	; 0x30

00000650 <l243>:
     650:	e079ea79 	rsbs	lr, r9, r9, ror sl

00000654 <interrupt_26>:
     654:	ea000000 	b	65c <l246>

00000658 <l245>:
     658:	eafffffc 	b	650 <l243>

0000065c <l246>:
     65c:	499d1fff 	ldmibmi	sp, {r0, r1, r2, r3, r4, r5, r6, r7, r8, r9, sl, fp, ip}

00000660 <l247>:
     660:	507b2002 	rsbspl	r2, fp, r2

00000664 <l248>:
     664:	90578603 	subsls	r8, r7, r3, lsl #12

00000668 <interrupt_483>:
     668:	31dda0f4 	ldrshcc	sl, [sp, #4]

0000066c <interrupt_684>:
     66c:	5031a135 	eorspl	sl, r1, r5, lsr r1

00000670 <l251>:
     670:	255d500d 	ldrbcs	r5, [sp, #-13]

00000674 <l252>:
     674:	e82d0020 	stmda	sp!, {r5}

00000678 <l253>:
     678:	e11a05ce 	tst	sl, lr, asr #11

0000067c <interrupt_822>:
     67c:	e3a02038 	mov	r2, #56	; 0x38

00000680 <l255>:
     680:	819db0b2 	ldrhhi	fp, [sp, r2]

00000684 <l256>:
     684:	e180b00b 	orr	fp, r0, fp

00000688 <l257>:
     688:	e1957236 	orrs	r7, r5, r6, lsr r2

0000068c <l258>:
     68c:	e0de9da8 	sbcs	r9, lr, r8, lsr #27

00000690 <l259>:
     690:	e3a0e02e 	mov	lr, #46	; 0x2e

00000694 <interrupt_985>:
     694:	219d10fe 	ldrshcs	r1, [sp, lr]

00000698 <l261>:
     698:	a1360c00 	teqge	r6, r0, lsl #24

0000069c <l262>:
     69c:	8affffff 	bhi	6a0 <l263>

000006a0 <l263>:
     6a0:	9090c006 	addsls	ip, r0, r6

000006a4 <interrupt_232>:
     6a4:	71cda0bc 	strhvc	sl, [sp, #12]

000006a8 <l265>:
     6a8:	e081ea74 	add	lr, r1, r4, ror sl

000006ac <l266>:
     6ac:	e17b00ac 	cmn	fp, ip, lsr #1

000006b0 <l267>:
     6b0:	ca000006 	bgt	6d0 <l275>

000006b4 <l268>:
     6b4:	513c0001 	teqpl	ip, r1

000006b8 <l269>:
     6b8:	611e0b7a 	tstvs	lr, sl, ror fp

000006bc <l270>:
     6bc:	40400e12 	submi	r0, r0, r2, lsl lr

000006c0 <l271>:
     6c0:	51c61bce 	bicpl	r1, r6, lr, asr #23

000006c4 <l272>:
     6c4:	e16f5f18 	clz	r5, r8

000006c8 <interrupt_642>:
     6c8:	d15e090c 	cmple	lr, ip, lsl #18

000006cc <interrupt_736>:
     6cc:	e1580002 	cmp	r8, r2

000006d0 <l275>:
     6d0:	1054b068 	subsne	fp, r4, r8, rrx

000006d4 <l276>:
     6d4:	e59f5000 	ldr	r5, [pc]	; 6dc <l278>

000006d8 <l277>:
     6d8:	ea000000 	b	6e0 <l279>

000006dc <l278>:
     6dc:	000fffe4 	.word	0x000fffe4

000006e0 <l279>:
     6e0:	3105e094 	swpcc	lr, r4, [r5]

000006e4 <l280>:
     6e4:	91cbc646 	bicls	ip, fp, r6, asr #12

000006e8 <l281>:
     6e8:	5272e877 	rsbspl	lr, r2, #7798784	; 0x770000

000006ec <l282>:
     6ec:	316f4f18 	clzcc	r4, r8

000006f0 <interrupt_210>:
     6f0:	b16f4f1c 	clzlt	r4, ip

000006f4 <l284>:
     6f4:	aa000008 	bge	71c <interrupt_221>

000006f8 <l285>:
     6f8:	20fb3001 	rscscs	r3, fp, r1

000006fc <l286>:
     6fc:	a056c061 	subsge	ip, r6, r1, rrx

00000700 <l287>:
     700:	c233240d 	eorsgt	r2, r3, #218103808	; 0xd000000

00000704 <l288>:
     704:	016f1f1c 	clzeq	r1, ip

00000708 <interrupt_863>:
     708:	53140243 	tstpl	r4, #805306372	; 0x30000004

0000070c <l290>:
     70c:	503cabe3 	eorspl	sl, ip, r3, ror #23

00000710 <l291>:
     710:	a0cbc000 	sbcge	ip, fp, r0

00000714 <l292>:
     714:	609fb680 	addsvs	fp, pc, r0, lsl #13

00000718 <l293>:
     718:	71a0ed09 	lslvc	lr, r9, #26

0000071c <interrupt_221>:
     71c:	e26566e6 	rsb	r6, r5, #241172480	; 0xe600000

00000720 <l295>:
     720:	23869df7 	orrcs	r9, r6, #15808	; 0x3dc0

00000724 <interrupt_132>:
     724:	90204007 	eorls	r4, r0, r7

00000728 <l297>:
     728:	a2d9e0e3 	sbcsge	lr, r9, #227	; 0xe3

0000072c <interrupt_720>:
     72c:	e3a06f46 	mov	r6, #280	; 0x118

00000730 <l299>:
     730:	e59f8000 	ldr	r8, [pc]	; 738 <interrupt_341>

00000734 <l300>:
     734:	ea000000 	b	73c <interrupt_755>

00000738 <interrupt_341>:
     738:	000fffdc 	.word	0x000fffdc

0000073c <interrupt_755>:
     73c:	21481090 	swpbcs	r1, r0, [r8]

00000740 <interrupt_689>:
     740:	e5ddb004 	ldrb	fp, [sp, #4]

00000744 <l304>:
     744:	e3a02006 	mov	r2, #6

00000748 <l305>:
     748:	e7dde002 	ldrb	lr, [sp, r2]

0000074c <l306>:
     74c:	e0859912 	add	r9, r5, r2, lsl r9

00000750 <interrupt_253>:
     750:	e1e03008 	mvn	r3, r8

00000754 <l308>:
     754:	e0834005 	add	r4, r3, r5

00000758 <l309>:
     758:	80be2002 	adcshi	r2, lr, r2

0000075c <l310>:
     75c:	e0a3406f 	adc	r4, r3, pc, rrx

00000760 <l311>:
     760:	918c8000 	orrls	r8, ip, r0

00000764 <l312>:
     764:	e59fa000 	ldr	sl, [pc]	; 76c <l314>

00000768 <l313>:
     768:	ea000000 	b	770 <l315>

0000076c <l314>:
     76c:	000fffc0 	.word	0x000fffc0

00000770 <l315>:
     770:	210a2096 	swpcs	r2, r6, [sl]

00000774 <l316>:
     774:	b37603c2 	cmnlt	r6, #134217731	; 0x8000003

00000778 <l317>:
     778:	503ea007 	eorspl	sl, lr, r7

0000077c <l318>:
     77c:	a269ae62 	rsbge	sl, r9, #1568	; 0x620

00000780 <l319>:
     780:	a1e08003 	mvnge	r8, r3

00000784 <l320>:
     784:	e3a09006 	mov	r9, #6

00000788 <l321>:
     788:	d11db0f9 	ldrshle	fp, [sp, -r9]

0000078c <l322>:
     78c:	e0025118 	and	r5, r2, r8, lsl r1

00000790 <l323>:
     790:	e3f00e9d 	mvns	r0, #2512	; 0x9d0

00000794 <l324>:
     794:	e5bd9028 	ldr	r9, [sp, #40]!	; 0x28

00000798 <l325>:
     798:	e2511837 	subs	r1, r1, #3604480	; 0x370000

0000079c <l326>:
     79c:	119e898b 	orrsne	r8, lr, fp, lsl #19

000007a0 <l327>:
     7a0:	e15d72b0 	ldrh	r7, [sp, #-32]	; 0xffffffe0

000007a4 <l328>:
     7a4:	e04b643c 	sub	r6, fp, ip, lsr r4

000007a8 <l329>:
     7a8:	555d2015 	ldrbpl	r2, [sp, #-21]

000007ac <l330>:
     7ac:	e3a0100e 	mov	r1, #14

000007b0 <l331>:
     7b0:	e7dd8001 	ldrb	r8, [sp, r1]

000007b4 <l332>:
     7b4:	ea000003 	b	7c8 <l337>

000007b8 <l333>:
     7b8:	e28010b8 	add	r1, r0, #184	; 0xb8

000007bc <l334>:
     7bc:	e029cc76 	eor	ip, r9, r6, ror ip

000007c0 <l335>:
     7c0:	e1390007 	teq	r9, r7

000007c4 <l336>:
     7c4:	ea000000 	b	7cc <interrupt_539>

000007c8 <l337>:
     7c8:	eafffffb 	b	7bc <l334>

000007cc <interrupt_539>:
     7cc:	e82ddba1 	stmda	sp!, {r0, r5, r7, r8, r9, fp, ip, lr, pc}

000007d0 <l339>:
     7d0:	61500682 	cmpvs	r0, r2, lsl #13

000007d4 <interrupt_723>:
     7d4:	e1c68003 	bic	r8, r6, r3

000007d8 <l341>:
     7d8:	50c37536 	sbcpl	r7, r3, r6, lsr r5

000007dc <l342>:
     7dc:	e2e64319 	rsc	r4, r6, #1677721600	; 0x64000000

000007e0 <l343>:
     7e0:	515a04c7 	cmppl	sl, r7, asr #9

000007e4 <l344>:
     7e4:	e399883e 	orrs	r8, r9, #4063232	; 0x3e0000

000007e8 <interrupt_669>:
     7e8:	70726001 	rsbsvc	r6, r2, r1

000007ec <l346>:
     7ec:	ba000005 	blt	808 <l353>

000007f0 <l347>:
     7f0:	e04e8b16 	sub	r8, lr, r6, lsl fp

000007f4 <l348>:
     7f4:	e28e52c9 	add	r5, lr, #-1879048180	; 0x9000000c

000007f8 <interrupt_603>:
     7f8:	e19a3001 	orrs	r3, sl, r1

000007fc <interrupt_395>:
     7fc:	c20c3fd1 	andgt	r3, ip, #836	; 0x344

00000800 <l351>:
     800:	10478730 	subne	r8, r7, r0, lsr r7

00000804 <interrupt_568>:
     804:	11100bc5 	tstne	r0, r5, asr #23

00000808 <l353>:
     808:	a15e000f 	cmpge	lr, pc

0000080c <l354>:
     80c:	20446834 	subcs	r6, r4, r4, lsr r8

00000810 <interrupt_157>:
     810:	e1790006 	cmn	r9, r6

00000814 <l356>:
     814:	e17e0009 	cmn	lr, r9

00000818 <l357>:
     818:	e3b017c5 	movs	r1, #51642368	; 0x3140000

0000081c <l358>:
     81c:	e3a0b020 	mov	fp, #32

00000820 <l359>:
     820:	e78d300b 	str	r3, [sp, fp]

00000824 <interrupt_94>:
     824:	ea000007 	b	848 <l369>

00000828 <interrupt_865>:
     828:	e28010ce 	add	r1, r0, #206	; 0xce

0000082c <interrupt_632>:
     82c:	41883235 	orrmi	r3, r8, r5, lsr r2

00000830 <l363>:
     830:	91e09002 	mvnls	r9, r2

00000834 <l364>:
     834:	e03ee956 	eors	lr, lr, r6, asr r9

00000838 <interrupt_618>:
     838:	7355000c 	cmpvc	r5, #12

0000083c <l366>:
     83c:	0247300c 	subeq	r3, r7, #12

00000840 <l367>:
     840:	e1140069 	tst	r4, r9, rrx

00000844 <l368>:
     844:	ea000000 	b	84c <l370>

00000848 <l369>:
     848:	eafffff7 	b	82c <interrupt_632>

0000084c <l370>:
     84c:	e1f0e002 	mvns	lr, r2

00000850 <l371>:
     850:	e54da001 	strb	sl, [sp, #-1]

00000854 <l372>:
     854:	e1a0e67a 	ror	lr, sl, r6

00000858 <l373>:
     858:	e11a0949 	tst	sl, r9, asr #18

0000085c <l374>:
     85c:	e49d5030 	ldr	r5, [sp], #48	; 0x30

00000860 <l375>:
     860:	e92d1ac6 	push	{r1, r2, r6, r7, r9, fp, ip}

00000864 <interrupt_61>:
     864:	e3890d53 	orr	r0, r9, #5312	; 0x14c0

00000868 <l377>:
     868:	935a0e53 	cmpls	sl, #1328	; 0x530

0000086c <interrupt_826>:
     86c:	691d144a 	ldmdbvs	sp, {r1, r3, r6, sl, ip}

00000870 <l379>:
     870:	d18e6432 	orrle	r6, lr, r2, lsr r4

00000874 <l380>:
     874:	e0c0c78a 	sbc	ip, r0, sl, lsl #15

00000878 <interrupt_528>:
     878:	e213bb56 	ands	fp, r3, #88064	; 0x15800

0000087c <l382>:
     87c:	c3d193ff 	bicsgt	r9, r1, #-67108861	; 0xfc000003

00000880 <l383>:
     880:	e138000a 	teq	r8, sl

00000884 <l384>:
     884:	ea000005 	b	8a0 <l391>

00000888 <l385>:
     888:	5044767c 	subpl	r7, r4, ip, ror r6

0000088c <l386>:
     88c:	917e0063 	cmnls	lr, r3, rrx

00000890 <l387>:
     890:	e24bc97f 	sub	ip, fp, #2080768	; 0x1fc000

00000894 <l388>:
     894:	804c906b 	subhi	r9, ip, fp, rrx

00000898 <l389>:
     898:	01e0400f 	mvneq	r4, pc

0000089c <interrupt_398>:
     89c:	32d0204e 	sbcscc	r2, r0, #78	; 0x4e

000008a0 <l391>:
     8a0:	e386a341 	orr	sl, r6, #67108865	; 0x4000001

000008a4 <l392>:
     8a4:	e8bd1240 	pop	{r6, r9, ip}

000008a8 <interrupt_915>:
     8a8:	d07e9b37 	rsbsle	r9, lr, r7, lsr fp

000008ac <l394>:
     8ac:	e05cb006 	subs	fp, ip, r6

000008b0 <interrupt_370>:
     8b0:	303a3004 	eorscc	r3, sl, r4

000008b4 <l396>:
     8b4:	03f01fe7 	mvnseq	r1, #924	; 0x39c

000008b8 <l397>:
     8b8:	e3a0100a 	mov	r1, #10

000008bc <interrupt_187>:
     8bc:	b11db0d1 	ldrsblt	fp, [sp, -r1]

000008c0 <l399>:
     8c0:	e13f0008 	teq	pc, r8

000008c4 <l400>:
     8c4:	e59fe000 	ldr	lr, [pc]	; 8cc <l402>

000008c8 <l401>:
     8c8:	ea000000 	b	8d0 <l403>

000008cc <l402>:
     8cc:	000fffd4 	.word	0x000fffd4

000008d0 <l403>:
     8d0:	610e8097 	swpvs	r8, r7, [lr]

000008d4 <l404>:
     8d4:	e1540c54 	cmp	r4, r4, asr ip

000008d8 <l405>:
     8d8:	307be00f 	rsbscc	lr, fp, pc

000008dc <l406>:
     8dc:	a1700374 	cmnge	r0, r4, ror r3

000008e0 <l407>:
     8e0:	31ca7c13 	biccc	r7, sl, r3, lsl ip

000008e4 <interrupt_877>:
     8e4:	791d0494 	ldmdbvc	sp, {r2, r4, r7, sl}

000008e8 <interrupt_110>:
     8e8:	e31b0dc2 	tst	fp, #12416	; 0x3080

000008ec <l410>:
     8ec:	c28164d2 	addgt	r6, r1, #-771751936	; 0xd2000000

000008f0 <l411>:
     8f0:	515d80b4 	ldrhpl	r8, [sp, #-4]

000008f4 <l412>:
     8f4:	c1b032ab 	lsrsgt	r3, fp, #5

000008f8 <l413>:
     8f8:	4a000008 	bmi	920 <l423>

000008fc <interrupt_914>:
     8fc:	e2a15235 	adc	r5, r1, #1342177283	; 0x50000003

00000900 <interrupt_711>:
     900:	e055ee1b 	subs	lr, r5, fp, lsl lr

00000904 <interrupt_805>:
     904:	b15c0bc4 	cmplt	ip, r4, asr #23

00000908 <l417>:
     908:	e019000e 	ands	r0, r9, lr

0000090c <interrupt_153>:
     90c:	e23312bd 	eors	r1, r3, #-805306357	; 0xd000000b

00000910 <interrupt_382>:
     910:	e0b9306a 	adcs	r3, r9, sl, rrx

00000914 <l420>:
     914:	e3b047a5 	movs	r4, #43253760	; 0x2940000

00000918 <l421>:
     918:	e060b5e5 	rsb	fp, r0, r5, ror #11

0000091c <l422>:
     91c:	e04698c1 	sub	r9, r6, r1, asr #17

00000920 <l423>:
     920:	d2881583 	addle	r1, r8, #549453824	; 0x20c00000

00000924 <l424>:
     924:	1affffff 	bne	928 <l425>

00000928 <l425>:
     928:	e091096b 	adds	r0, r1, fp, ror #18

0000092c <l426>:
     92c:	e59f2000 	ldr	r2, [pc]	; 934 <l428>

00000930 <interrupt_415>:
     930:	ea000000 	b	938 <l429>

00000934 <l428>:
     934:	000fffe8 	.word	0x000fffe8

00000938 <l429>:
     938:	21421093 	swpbcs	r1, r3, [r2]

0000093c <l430>:
     93c:	70206831 	eorvc	r6, r0, r1, lsr r8

00000940 <l431>:
     940:	e1780018 	cmn	r8, r8, lsl r0

00000944 <l432>:
     944:	e59f2000 	ldr	r2, [pc]	; 94c <l434>

00000948 <interrupt_293>:
     948:	ea000000 	b	950 <interrupt_290>

0000094c <l434>:
     94c:	000fffb0 	.word	0x000fffb0

00000950 <interrupt_290>:
     950:	c1023098 	swpgt	r3, r8, [r2]

00000954 <l436>:
     954:	e16f4f1a 	clz	r4, sl

00000958 <l437>:
     958:	e15e084b 	cmp	lr, fp, asr #16

0000095c <l438>:
     95c:	e3a03020 	mov	r3, #32

00000960 <l439>:
     960:	e73d4003 	ldr	r4, [sp, -r3]!

00000964 <l440>:
     964:	23d9bc66 	bicscs	fp, r9, #26112	; 0x6600

00000968 <l441>:
     968:	e49d102c 	ldr	r1, [sp], #44	; 0x2c

0000096c <l442>:
     96c:	d50d603c 	strle	r6, [sp, #-60]	; 0x3c

00000970 <interrupt_364>:
     970:	e92d0024 	push	{r2, r5}

00000974 <l444>:
     974:	e89d0800 	ldm	sp, {fp}

00000978 <l445>:
     978:	e266596e 	rsb	r5, r6, #1802240	; 0x1b8000

0000097c <l446>:
     97c:	e59f6000 	ldr	r6, [pc]	; 984 <l448>

00000980 <interrupt_733>:
     980:	ea000000 	b	988 <l449>

00000984 <l448>:
     984:	000fffc4 	.word	0x000fffc4

00000988 <l449>:
     988:	e146b09e 	swpb	fp, lr, [r6]

0000098c <l450>:
     98c:	a0282112 	eorge	r2, r8, r2, lsl r1

00000990 <l451>:
     990:	e59f8000 	ldr	r8, [pc]	; 998 <l453>

00000994 <l452>:
     994:	ea000000 	b	99c <l454>

00000998 <l453>:
     998:	000fffe4 	.word	0x000fffe4

0000099c <l454>:
     99c:	e108209a 	swp	r2, sl, [r8]

000009a0 <l455>:
     9a0:	d1a0800b 	movle	r8, fp

000009a4 <l456>:
     9a4:	6a000008 	bvs	9cc <l466>

000009a8 <l457>:
     9a8:	80a90737 	adchi	r0, r9, r7, lsr r7

000009ac <l458>:
     9ac:	d11b07e1 	tstle	fp, r1, ror #15

000009b0 <l459>:
     9b0:	61e0572f 	mvnvs	r5, pc, lsr #14

000009b4 <l460>:
     9b4:	e1f00b11 	mvns	r0, r1, lsl fp

000009b8 <l461>:
     9b8:	11e0200c 	mvnne	r2, ip

000009bc <l462>:
     9bc:	d097ac1a 	addsle	sl, r7, sl, lsl ip

000009c0 <l463>:
     9c0:	e0d0b064 	sbcs	fp, r0, r4, rrx

000009c4 <l464>:
     9c4:	e1906b4c 	orrs	r6, r0, ip, asr #22

000009c8 <l465>:
     9c8:	e1140d24 	tst	r4, r4, lsr #26

000009cc <l466>:
     9cc:	e0dcb00f 	sbcs	fp, ip, pc

000009d0 <l467>:
     9d0:	a1d3325a 	bicsge	r3, r3, sl, asr r2

000009d4 <l468>:
     9d4:	e2406991 	sub	r6, r0, #2375680	; 0x244000

000009d8 <l469>:
     9d8:	d1dd00f0 	ldrshle	r0, [sp]

000009dc <interrupt_585>:
     9dc:	416f5f11 	clzmi	r5, r1

000009e0 <interrupt_81>:
     9e0:	23a00787 	movcs	r0, #35389440	; 0x21c0000

000009e4 <l472>:
     9e4:	e59fa000 	ldr	sl, [pc]	; 9ec <l474>

000009e8 <l473>:
     9e8:	ea000000 	b	9f0 <l475>

000009ec <l474>:
     9ec:	000fffc4 	.word	0x000fffc4

000009f0 <l475>:
     9f0:	b10a6094 	swplt	r6, r4, [sl]

000009f4 <l476>:
     9f4:	788d1192 	stmvc	sp, {r1, r4, r7, r8, ip}

000009f8 <l477>:
     9f8:	e40de020 	str	lr, [sp], #-32

000009fc <l478>:
     9fc:	e0c21255 	sbc	r1, r2, r5, asr r2

00000a00 <l479>:
     a00:	316f1f1c 	clzcc	r1, ip

00000a04 <interrupt_243>:
     a04:	e3a0b01e 	mov	fp, #30

00000a08 <l481>:
     a08:	e19d90fb 	ldrsh	r9, [sp, fp]

00000a0c <interrupt_425>:
     a0c:	e59f4000 	ldr	r4, [pc]	; a14 <l484>

00000a10 <l483>:
     a10:	ea000000 	b	a18 <l485>

00000a14 <l484>:
     a14:	000fffc0 	.word	0x000fffc0

00000a18 <l485>:
     a18:	9144109a 	swpbls	r1, sl, [r4]

00000a1c <l486>:
     a1c:	e3a0202f 	mov	r2, #47	; 0x2f

00000a20 <l487>:
     a20:	e19dc0d2 	ldrsb	ip, [sp, r2]

00000a24 <l488>:
     a24:	e1350009 	teq	r5, r9

00000a28 <l489>:
     a28:	01cfe00b 	biceq	lr, pc, fp

00000a2c <l490>:
     a2c:	e0f18c75 	rscs	r8, r1, r5, ror ip

00000a30 <l491>:
     a30:	0025e675 	eoreq	lr, r5, r5, ror r6

00000a34 <l492>:
     a34:	e3a08030 	mov	r8, #48	; 0x30

00000a38 <l493>:
     a38:	919db0b8 	ldrhls	fp, [sp, r8]

00000a3c <l494>:
     a3c:	e3710c45 	cmn	r1, #17664	; 0x4500

00000a40 <l495>:
     a40:	e0e4e618 	rsc	lr, r4, r8, lsl r6

00000a44 <l496>:
     a44:	e0512421 	subs	r2, r1, r1, lsr #8

00000a48 <l497>:
     a48:	e3a0101e 	mov	r1, #30

00000a4c <l498>:
     a4c:	019de0f1 	ldrsheq	lr, [sp, r1]

00000a50 <l499>:
     a50:	416f0f12 	clzmi	r0, r2

00000a54 <l500>:
     a54:	215608e2 	cmpcs	r6, r2, ror #17

00000a58 <interrupt_18>:
     a58:	e11b000e 	tst	fp, lr

00000a5c <l502>:
     a5c:	e3a05026 	mov	r5, #38	; 0x26

00000a60 <l503>:
     a60:	77dd5005 	ldrbvc	r5, [sp, r5]

00000a64 <l504>:
     a64:	7a000008 	bvc	a8c <interrupt_994>

00000a68 <l505>:
     a68:	e2173076 	ands	r3, r7, #118	; 0x76

00000a6c <l506>:
     a6c:	024e0629 	subeq	r0, lr, #42991616	; 0x2900000

00000a70 <l507>:
     a70:	706c177b 	rsbvc	r1, ip, fp, ror r7

00000a74 <l508>:
     a74:	e046b00a 	sub	fp, r6, sl

00000a78 <l509>:
     a78:	60a46345 	adcvs	r6, r4, r5, asr #6

00000a7c <l510>:
     a7c:	01100000 	tsteq	r0, r0

00000a80 <interrupt_379>:
     a80:	21b0e175 	rorscs	lr, r5, r1

00000a84 <l512>:
     a84:	e1a05001 	mov	r5, r1

00000a88 <l513>:
     a88:	9158057a 	cmpls	r8, sl, ror r5

00000a8c <interrupt_994>:
     a8c:	e0fc6380 	rscs	r6, ip, r0, lsl #7

00000a90 <l515>:
     a90:	a190406b 	orrsge	r4, r0, fp, rrx

00000a94 <l516>:
     a94:	33c82020 	biccc	r2, r8, #32

00000a98 <l517>:
     a98:	ea000002 	b	aa8 <l521>

00000a9c <l518>:
     a9c:	e28010e8 	add	r1, r0, #232	; 0xe8

00000aa0 <l519>:
     aa0:	e2fc84f7 	rscs	r8, ip, #-150994944	; 0xf7000000

00000aa4 <interrupt_560>:
     aa4:	ea000000 	b	aac <l522>

00000aa8 <l521>:
     aa8:	eafffffc 	b	aa0 <l519>

00000aac <l522>:
     aac:	e3a09000 	mov	r9, #0

00000ab0 <l523>:
     ab0:	e78dc009 	str	ip, [sp, r9]

00000ab4 <l524>:
     ab4:	e3a03030 	mov	r3, #48	; 0x30

00000ab8 <l525>:
     ab8:	a7ddb003 	ldrbge	fp, [sp, r3]

00000abc <interrupt_104>:
     abc:	c111037b 	tstgt	r1, fp, ror r3

00000ac0 <l527>:
     ac0:	d0025064 	andle	r5, r2, r4, rrx

00000ac4 <interrupt_303>:
     ac4:	7078b000 	rsbsvc	fp, r8, r0

00000ac8 <l529>:
     ac8:	e3a03018 	mov	r3, #24

00000acc <l530>:
     acc:	c19de0f3 	ldrshgt	lr, [sp, r3]

00000ad0 <l531>:
     ad0:	e8ad14e0 	stmia	sp!, {r5, r6, r7, sl, ip}

00000ad4 <l532>:
     ad4:	e0405eee 	sub	r5, r0, lr, ror #29

00000ad8 <l533>:
     ad8:	01340001 	teqeq	r4, r1

00000adc <l534>:
     adc:	e3a01004 	mov	r1, #4

00000ae0 <l535>:
     ae0:	119d10b1 	ldrhne	r1, [sp, r1]

00000ae4 <l536>:
     ae4:	e1ddc1df 	ldrsb	ip, [sp, #31]

00000ae8 <l537>:
     ae8:	807fa4e2 	rsbshi	sl, pc, r2, ror #9

00000aec <l538>:
     aec:	e59f3000 	ldr	r3, [pc]	; af4 <l540>

00000af0 <l539>:
     af0:	ea000000 	b	af8 <l541>

00000af4 <l540>:
     af4:	000fffc0 	.word	0x000fffc0

00000af8 <l541>:
     af8:	01430099 	swpbeq	r0, r9, [r3]

00000afc <l542>:
     afc:	e0925f82 	adds	r5, r2, r2, lsl #31

00000b00 <l543>:
     b00:	e5dde006 	ldrb	lr, [sp, #6]

00000b04 <l544>:
     b04:	43e0ee1f 	mvnmi	lr, #496	; 0x1f0

00000b08 <l545>:
     b08:	e2564fd3 	subs	r4, r6, #844	; 0x34c

00000b0c <l546>:
     b0c:	32cce439 	sbccc	lr, ip, #956301312	; 0x39000000

00000b10 <l547>:
     b10:	3152000b 	cmpcc	r2, fp

00000b14 <l548>:
     b14:	6affffff 	bvs	b18 <l549>

00000b18 <l549>:
     b18:	72ef773a 	rscvc	r7, pc, #15204352	; 0xe80000

00000b1c <l550>:
     b1c:	c19ba0eb 	orrsgt	sl, fp, fp, ror #1

00000b20 <interrupt_743>:
     b20:	0137011b 	teqeq	r7, fp, lsl r1

00000b24 <l552>:
     b24:	390d6008 	stmdbcc	sp, {r3, sp, lr}

00000b28 <interrupt_563>:
     b28:	ea000008 	b	b50 <l563>

00000b2c <l554>:
     b2c:	93e07a9a 	mvnls	r7, #630784	; 0x9a000

00000b30 <l555>:
     b30:	e0ba63c2 	adcs	r6, sl, r2, asr #7

00000b34 <l556>:
     b34:	e13e0000 	teq	lr, r0

00000b38 <l557>:
     b38:	91a0a736 	lsrls	sl, r6, r7

00000b3c <l558>:
     b3c:	e2925102 	adds	r5, r2, #-2147483648	; 0x80000000

00000b40 <l559>:
     b40:	b0f52068 	rscslt	r2, r5, r8, rrx

00000b44 <l560>:
     b44:	e3560e92 	cmp	r6, #2336	; 0x920

00000b48 <l561>:
     b48:	32d7cd56 	sbcscc	ip, r7, #5504	; 0x1580

00000b4c <l562>:
     b4c:	d397104b 	orrsle	r1, r7, #75	; 0x4b

00000b50 <l563>:
     b50:	e0279368 	eor	r9, r7, r8, ror #6

00000b54 <l564>:
     b54:	e15b0b36 	cmp	fp, r6, lsr fp

00000b58 <l565>:
     b58:	031004b5 	tsteq	r0, #-1258291200	; 0xb5000000

00000b5c <l566>:
     b5c:	d0e81001 	rscle	r1, r8, r1

00000b60 <interrupt_840>:
     b60:	d378093e 	cmnle	r8, #1015808	; 0xf8000

00000b64 <l568>:
     b64:	b1370112 	teqlt	r7, r2, lsl r1

00000b68 <l569>:
     b68:	da000002 	ble	b78 <l573>

00000b6c <l570>:
     b6c:	e2801072 	add	r1, r0, #114	; 0x72

00000b70 <l571>:
     b70:	e172001c 	cmn	r2, ip, lsl r0

00000b74 <l572>:
     b74:	ea000000 	b	b7c <l574>

00000b78 <l573>:
     b78:	eafffffc 	b	b70 <l571>

00000b7c <l574>:
     b7c:	e5bd200c 	ldr	r2, [sp, #12]!

00000b80 <interrupt_140>:
     b80:	11f06553 	mvnsne	r6, r3, asr r5

00000b84 <l576>:
     b84:	e0967953 	adds	r7, r6, r3, asr r9

00000b88 <l577>:
     b88:	e59fc000 	ldr	ip, [pc]	; b90 <interrupt_386>

00000b8c <interrupt_428>:
     b8c:	ea000000 	b	b94 <interrupt_861>

00000b90 <interrupt_386>:
     b90:	000fffc8 	.word	0x000fffc8

00000b94 <interrupt_861>:
     b94:	310c5094 	swpcc	r5, r4, [ip]

00000b98 <l581>:
     b98:	e3a0c014 	mov	ip, #20

00000b9c <l582>:
     b9c:	271d000c 	ldrcs	r0, [sp, -ip]

00000ba0 <l583>:
     ba0:	d04c8b03 	suble	r8, ip, r3, lsl #22

00000ba4 <l584>:
     ba4:	e1e020e8 	mvn	r2, r8, ror #1

00000ba8 <interrupt_606>:
     ba8:	e3a0b004 	mov	fp, #4

00000bac <l586>:
     bac:	518da0bb 	strhpl	sl, [sp, fp]

00000bb0 <l587>:
     bb0:	698d2000 	stmibvs	sp, {sp}

00000bb4 <l588>:
     bb4:	c16fef1c 	clzgt	lr, ip

00000bb8 <interrupt_139>:
     bb8:	e59fc000 	ldr	ip, [pc]	; bc0 <interrupt_722>

00000bbc <l590>:
     bbc:	ea000000 	b	bc4 <l592>

00000bc0 <interrupt_722>:
     bc0:	000fffa8 	.word	0x000fffa8

00000bc4 <l592>:
     bc4:	b14cb09a 	swpblt	fp, sl, [ip]

00000bc8 <interrupt_978>:
     bc8:	ba000006 	blt	be8 <l601>

00000bcc <l594>:
     bcc:	e28010bb 	add	r1, r0, #187	; 0xbb

00000bd0 <l595>:
     bd0:	42e89b07 	rscmi	r9, r8, #7168	; 0x1c00

00000bd4 <l596>:
     bd4:	e1a07a55 	asr	r7, r5, sl

00000bd8 <l597>:
     bd8:	e29498f9 	adds	r9, r4, #16318464	; 0xf90000

00000bdc <l598>:
     bdc:	03e05369 	mvneq	r5, #-1543503871	; 0xa4000001

00000be0 <l599>:
     be0:	e0f13187 	rscs	r3, r1, r7, lsl #3

00000be4 <l600>:
     be4:	ea000000 	b	bec <l602>

00000be8 <l601>:
     be8:	eafffff8 	b	bd0 <l595>

00000bec <l602>:
     bec:	c043c007 	subgt	ip, r3, r7

00000bf0 <l603>:
     bf0:	e54d3032 	strb	r3, [sp, #-50]	; 0x32

00000bf4 <l604>:
     bf4:	e1f0300f 	mvns	r3, pc

00000bf8 <interrupt_449>:
     bf8:	e1160018 	tst	r6, r8, lsl r0

00000bfc <l606>:
     bfc:	11700005 	cmnne	r0, r5

00000c00 <l607>:
     c00:	d1f0c311 	mvnsle	ip, r1, lsl r3

00000c04 <interrupt_401>:
     c04:	e05c3069 	subs	r3, ip, r9, rrx

00000c08 <interrupt_5>:
     c08:	b0291e37 	eorlt	r1, r9, r7, lsr lr

00000c0c <l610>:
     c0c:	e3a0502e 	mov	r5, #46	; 0x2e

00000c10 <l611>:
     c10:	211d60f5 	ldrshcs	r6, [sp, -r5]

00000c14 <l612>:
     c14:	422c0225 	eormi	r0, ip, #1342177282	; 0x50000002

00000c18 <interrupt_380>:
     c18:	e3a08012 	mov	r8, #18

00000c1c <l614>:
     c1c:	719d60b8 	ldrhvc	r6, [sp, r8]

00000c20 <l615>:
     c20:	e112080a 	tst	r2, sl, lsl #16

00000c24 <interrupt_951>:
     c24:	e3a09004 	mov	r9, #4

00000c28 <l617>:
     c28:	b71d2009 	ldrlt	r2, [sp, -r9]

00000c2c <l618>:
     c2c:	31730065 	cmncc	r3, r5, rrx

00000c30 <l619>:
     c30:	c15d90d5 	ldrsbgt	r9, [sp, #-5]

00000c34 <l620>:
     c34:	30bf8004 	adcscc	r8, pc, r4

00000c38 <l621>:
     c38:	e91d4004 	ldmdb	sp, {r2, lr}

00000c3c <l622>:
     c3c:	090d3f3c 	stmdbeq	sp, {r2, r3, r4, r5, r8, r9, sl, fp, ip, sp}

00000c40 <l623>:
     c40:	e1da806b 	bics	r8, sl, fp, rrx

00000c44 <l624>:
     c44:	e3a04014 	mov	r4, #20

00000c48 <l625>:
     c48:	e68da004 	str	sl, [sp], r4

00000c4c <l626>:
     c4c:	0083e001 	addeq	lr, r3, r1

00000c50 <l627>:
     c50:	c2b7a427 	adcsgt	sl, r7, #654311424	; 0x27000000

00000c54 <l628>:
     c54:	e35c083f 	cmp	ip, #4128768	; 0x3f0000

00000c58 <l629>:
     c58:	e59f3000 	ldr	r3, [pc]	; c60 <l631>

00000c5c <l630>:
     c5c:	ea000000 	b	c64 <l632>

00000c60 <l631>:
     c60:	000fffc4 	.word	0x000fffc4

00000c64 <l632>:
     c64:	01036094 	swpeq	r6, r4, [r3]

00000c68 <l633>:
     c68:	b0422065 	sublt	r2, r2, r5, rrx

00000c6c <interrupt_327>:
     c6c:	e076e550 	rsbs	lr, r6, r0, asr r5

00000c70 <l635>:
     c70:	1a000002 	bne	c80 <l639>

00000c74 <l636>:
     c74:	e280100e 	add	r1, r0, #14

00000c78 <l637>:
     c78:	737a097a 	cmnvc	sl, #1998848	; 0x1e8000

00000c7c <l638>:
     c7c:	ea000000 	b	c84 <l640>

00000c80 <l639>:
     c80:	eafffffc 	b	c78 <l637>

00000c84 <l640>:
     c84:	e0c5206f 	sbc	r2, r5, pc, rrx

00000c88 <l641>:
     c88:	e59f7000 	ldr	r7, [pc]	; c90 <l643>

00000c8c <l642>:
     c8c:	ea000000 	b	c94 <l644>

00000c90 <l643>:
     c90:	000fffb4 	.word	0x000fffb4

00000c94 <l644>:
     c94:	41075096 	swpmi	r5, r6, [r7]

00000c98 <interrupt_134>:
     c98:	5a000002 	bpl	ca8 <interrupt_798>

00000c9c <l646>:
     c9c:	e2801039 	add	r1, r0, #57	; 0x39

00000ca0 <l647>:
     ca0:	e1190214 	tst	r9, r4, lsl r2

00000ca4 <interrupt_454>:
     ca4:	ea000000 	b	cac <interrupt_158>

00000ca8 <interrupt_798>:
     ca8:	eafffffc 	b	ca0 <l647>

00000cac <interrupt_158>:
     cac:	327fba3b 	rsbscc	fp, pc, #241664	; 0x3b000

00000cb0 <l651>:
     cb0:	e55d1009 	ldrb	r1, [sp, #-9]

00000cb4 <interrupt_136>:
     cb4:	e0a75007 	adc	r5, r7, r7

00000cb8 <l653>:
     cb8:	c15b068b 	cmpgt	fp, fp, lsl #13

00000cbc <l654>:
     cbc:	ea000006 	b	cdc <interrupt_273>

00000cc0 <l655>:
     cc0:	439f3b1a 	orrsmi	r3, pc, #26624	; 0x6800

00000cc4 <l656>:
     cc4:	a1f08007 	mvnsge	r8, r7

00000cc8 <l657>:
     cc8:	50cae067 	sbcpl	lr, sl, r7, rrx

00000ccc <l658>:
     ccc:	e0940c37 	adds	r0, r4, r7, lsr ip

00000cd0 <l659>:
     cd0:	e0da000b 	sbcs	r0, sl, fp

00000cd4 <l660>:
     cd4:	e1540075 	cmp	r4, r5, ror r0

00000cd8 <l661>:
     cd8:	d021106e 	eorle	r1, r1, lr, rrx

00000cdc <interrupt_273>:
     cdc:	2005c062 	andcs	ip, r5, r2, rrx

00000ce0 <l663>:
     ce0:	e229639d 	eor	r6, r9, #1946157058	; 0x74000002

00000ce4 <l664>:
     ce4:	e1a00000 	nop			; (mov r0, r0)

00000ce8 <interrupt_315>:
     ce8:	e15d51b6 	ldrh	r5, [sp, #-22]	; 0xffffffea

00000cec <l666>:
     cec:	e54d3048 	strb	r3, [sp, #-72]	; 0x48

00000cf0 <l667>:
     cf0:	e40d801c 	str	r8, [sp], #-28

00000cf4 <l668>:
     cf4:	e92d0099 	push	{r0, r3, r4, r7}

00000cf8 <l669>:
     cf8:	e08f8002 	add	r8, pc, r2

00000cfc <l670>:
     cfc:	e1a00000 	nop			; (mov r0, r0)

00000d00 <l671>:
     d00:	717f00ef 	cmnvc	pc, pc, ror #1

00000d04 <l672>:
     d04:	20b44254 	adcscs	r4, r4, r4, asr r2

00000d08 <l673>:
     d08:	d2b6c42e 	adcsle	ip, r6, #771751936	; 0x2e000000

00000d0c <l674>:
     d0c:	e1190644 	tst	r9, r4, asr #12

00000d10 <interrupt_699>:
     d10:	1310012d 	tstne	r0, #1073741835	; 0x4000000b

00000d14 <interrupt_354>:
     d14:	c17c0069 	cmngt	ip, r9, rrx

00000d18 <l677>:
     d18:	654d7004 	strbvs	r7, [sp, #-4]

00000d1c <l678>:
     d1c:	e59f8000 	ldr	r8, [pc]	; d24 <interrupt_357>

00000d20 <l679>:
     d20:	ea000000 	b	d28 <l681>

00000d24 <interrupt_357>:
     d24:	000fffd4 	.word	0x000fffd4

00000d28 <l681>:
     d28:	81480097 	swpbhi	r0, r7, [r8]

00000d2c <l682>:
     d2c:	5054a637 	subspl	sl, r4, r7, lsr r6

00000d30 <l683>:
     d30:	e0048061 	and	r8, r4, r1, rrx

00000d34 <l684>:
     d34:	a1c6a063 	bicge	sl, r6, r3, rrx

00000d38 <l685>:
     d38:	e9bd0c02 	ldmib	sp!, {r1, sl, fp}

00000d3c <l686>:
     d3c:	e04242c7 	sub	r4, r2, r7, asr #5

00000d40 <l687>:
     d40:	e3a07018 	mov	r7, #24

00000d44 <l688>:
     d44:	e19d90b7 	ldrh	r9, [sp, r7]

00000d48 <l689>:
     d48:	e3a0601f 	mov	r6, #31

00000d4c <l690>:
     d4c:	c19d50d6 	ldrsbgt	r5, [sp, r6]

00000d50 <l691>:
     d50:	60469c18 	subvs	r9, r6, r8, lsl ip

00000d54 <l692>:
     d54:	92e5309f 	rscls	r3, r5, #159	; 0x9f

00000d58 <l693>:
     d58:	e3a01012 	mov	r1, #18

00000d5c <l694>:
     d5c:	e19da0f1 	ldrsh	sl, [sp, r1]

00000d60 <interrupt_786>:
     d60:	e0429813 	sub	r9, r2, r3, lsl r8

00000d64 <l696>:
     d64:	e0ea4c81 	rsc	r4, sl, r1, lsl #25

00000d68 <l697>:
     d68:	554db003 	strbpl	fp, [sp, #-3]

00000d6c <l698>:
     d6c:	e118071c 	tst	r8, ip, lsl r7

00000d70 <l699>:
     d70:	d3993c37 	orrsle	r3, r9, #14080	; 0x3700

00000d74 <l700>:
     d74:	b16f2f1c 	clzlt	r2, ip

00000d78 <interrupt_472>:
     d78:	4082660f 	addmi	r6, r2, pc, lsl #12

00000d7c <l702>:
     d7c:	43dc0946 	bicsmi	r0, ip, #1146880	; 0x118000

00000d80 <l703>:
     d80:	7a000004 	bvc	d98 <l709>

00000d84 <l704>:
     d84:	e28010c9 	add	r1, r0, #201	; 0xc9

00000d88 <l705>:
     d88:	a21f5b2e 	andsge	r5, pc, #47104	; 0xb800

00000d8c <l706>:
     d8c:	5238c7ca 	eorspl	ip, r8, #52953088	; 0x3280000

00000d90 <interrupt_444>:
     d90:	e238bbaf 	eors	fp, r8, #179200	; 0x2bc00

00000d94 <l708>:
     d94:	ea000000 	b	d9c <l710>

00000d98 <l709>:
     d98:	eafffffa 	b	d88 <l705>

00000d9c <l710>:
     d9c:	e1e0564f 	mvn	r5, pc, asr #12

00000da0 <l711>:
     da0:	d05e967a 	subsle	r9, lr, sl, ror r6

00000da4 <l712>:
     da4:	e52d701c 	str	r7, [sp, #-28]!

00000da8 <l713>:
     da8:	b1a0a9a4 	lsrlt	sl, r4, #19

00000dac <interrupt_700>:
     dac:	e3a0101a 	mov	r1, #26

00000db0 <l715>:
     db0:	47cd9001 	strbmi	r9, [sp, r1]

00000db4 <l716>:
     db4:	7180cea5 	orrvc	ip, r0, r5, lsr #29

00000db8 <interrupt_262>:
     db8:	3a000005 	bcc	dd4 <l724>

00000dbc <l718>:
     dbc:	e2801051 	add	r1, r0, #81	; 0x51

00000dc0 <l719>:
     dc0:	b1540622 	cmplt	r4, r2, lsr #12

00000dc4 <interrupt_148>:
     dc4:	90aba150 	adcls	sl, fp, r0, asr r1

00000dc8 <l721>:
     dc8:	e00cab53 	and	sl, ip, r3, asr fp

00000dcc <l722>:
     dcc:	e0c0b6a1 	sbc	fp, r0, r1, lsr #13

00000dd0 <l723>:
     dd0:	ea000000 	b	dd8 <l725>

00000dd4 <l724>:
     dd4:	eafffff9 	b	dc0 <l719>

00000dd8 <l725>:
     dd8:	e59f6000 	ldr	r6, [pc]	; de0 <interrupt_146>

00000ddc <l726>:
     ddc:	ea000000 	b	de4 <l728>

00000de0 <interrupt_146>:
     de0:	000fffd4 	.word	0x000fffd4

00000de4 <l728>:
     de4:	b1062094 	swplt	r2, r4, [r6]

00000de8 <l729>:
     de8:	d18fa003 	orrle	sl, pc, r3

00000dec <l730>:
     dec:	e3a0501f 	mov	r5, #31

00000df0 <l731>:
     df0:	c7cdb005 	strbgt	fp, [sp, r5]

00000df4 <l732>:
     df4:	40921212 	addsmi	r1, r2, r2, lsl r2

00000df8 <interrupt_521>:
     df8:	da000005 	ble	e14 <l740>

00000dfc <interrupt_347>:
     dfc:	e2801015 	add	r1, r0, #21

00000e00 <l735>:
     e00:	c1e0406c 	mvngt	r4, ip, rrx

00000e04 <l736>:
     e04:	91927635 	orrsls	r7, r2, r5, lsr r6

00000e08 <l737>:
     e08:	135e021a 	cmpne	lr, #-1610612735	; 0xa0000001

00000e0c <l738>:
     e0c:	e243bb1d 	sub	fp, r3, #29696	; 0x7400

00000e10 <interrupt_369>:
     e10:	ea000000 	b	e18 <l741>

00000e14 <l740>:
     e14:	eafffff9 	b	e00 <l735>

00000e18 <l741>:
     e18:	e046a069 	sub	sl, r6, r9, rrx

00000e1c <l742>:
     e1c:	e3a0301e 	mov	r3, #30

00000e20 <l743>:
     e20:	e7cd5003 	strb	r5, [sp, r3]

00000e24 <l744>:
     e24:	e82d0010 	stmda	sp!, {r4}

00000e28 <l745>:
     e28:	e094400e 	adds	r4, r4, lr

00000e2c <l746>:
     e2c:	e59f4000 	ldr	r4, [pc]	; e34 <l748>

00000e30 <l747>:
     e30:	ea000000 	b	e38 <l749>

00000e34 <l748>:
     e34:	000fffb4 	.word	0x000fffb4

00000e38 <l749>:
     e38:	e144109a 	swpb	r1, sl, [r4]

00000e3c <l750>:
     e3c:	71dd20d0 	ldrsbvc	r2, [sp]

00000e40 <l751>:
     e40:	e02035a3 	eor	r3, r0, r3, lsr #11

00000e44 <interrupt_954>:
     e44:	e0f72514 	rscs	r2, r7, r4, lsl r5

00000e48 <l753>:
     e48:	e053506f 	subs	r5, r3, pc, rrx

00000e4c <l754>:
     e4c:	e3a08013 	mov	r8, #19

00000e50 <l755>:
     e50:	019d20d8 	ldrsbeq	r2, [sp, r8]

00000e54 <l756>:
     e54:	c1ddb4d3 	ldrsbgt	fp, [sp, #67]	; 0x43

00000e58 <interrupt_530>:
     e58:	e3a0e01c 	mov	lr, #28

00000e5c <l758>:
     e5c:	e7ade00e 	str	lr, [sp, lr]!

00000e60 <l759>:
     e60:	e18f1001 	orr	r1, pc, r1

00000e64 <l760>:
     e64:	40e85a76 	rscmi	r5, r8, r6, ror sl

00000e68 <l761>:
     e68:	a0904759 	addsge	r4, r0, r9, asr r7

00000e6c <l762>:
     e6c:	e55da006 	ldrb	sl, [sp, #-6]

00000e70 <l763>:
     e70:	e1cd91bc 	strh	r9, [sp, #28]

00000e74 <interrupt_427>:
     e74:	a1a01001 	movge	r1, r1

00000e78 <l765>:
     e78:	e92d0800 	stmfd	sp!, {fp}

00000e7c <l766>:
     e7c:	a59d5008 	ldrge	r5, [sp, #8]

00000e80 <l767>:
     e80:	a02c54a6 	eorge	r5, ip, r6, lsr #9

00000e84 <l768>:
     e84:	e59f4000 	ldr	r4, [pc]	; e8c <interrupt_760>

00000e88 <interrupt_574>:
     e88:	ea000000 	b	e90 <interrupt_686>

00000e8c <interrupt_760>:
     e8c:	000fffb0 	.word	0x000fffb0

00000e90 <interrupt_686>:
     e90:	1104e091 	swpne	lr, r1, [r4]

00000e94 <l772>:
     e94:	6064008b 	rsbvs	r0, r4, fp, lsl #1

00000e98 <interrupt_92>:
     e98:	e5ad0024 	str	r0, [sp, #36]!	; 0x24

00000e9c <interrupt_839>:
     e9c:	e82de000 	stmda	sp!, {sp, lr, pc}

00000ea0 <l775>:
     ea0:	ea000007 	b	ec4 <interrupt_288>

00000ea4 <l776>:
     ea4:	e28010be 	add	r1, r0, #190	; 0xbe

00000ea8 <interrupt_750>:
     ea8:	716f4f13 	clzvc	r4, r3

00000eac <l778>:
     eac:	e3b00811 	movs	r0, #1114112	; 0x110000

00000eb0 <l779>:
     eb0:	227496cb 	rsbscs	r9, r4, #212860928	; 0xcb00000

00000eb4 <l780>:
     eb4:	e11206e4 	tst	r2, r4, ror #13

00000eb8 <l781>:
     eb8:	d090b002 	addsle	fp, r0, r2

00000ebc <l782>:
     ebc:	e16f5f15 	clz	r5, r5

00000ec0 <interrupt_748>:
     ec0:	ea000000 	b	ec8 <l785>

00000ec4 <interrupt_288>:
     ec4:	eafffff7 	b	ea8 <interrupt_750>

00000ec8 <l785>:
     ec8:	e0571c17 	subs	r1, r7, r7, lsl ip

00000ecc <l786>:
     ecc:	20f4112f 	rscscs	r1, r4, pc, lsr #2

00000ed0 <interrupt_735>:
     ed0:	e0030005 	and	r0, r3, r5

00000ed4 <l788>:
     ed4:	d00b1a08 	andle	r1, fp, r8, lsl #20

00000ed8 <l789>:
     ed8:	1a000006 	bne	ef8 <l797>

00000edc <l790>:
     edc:	e2801021 	add	r1, r0, #33	; 0x21

00000ee0 <l791>:
     ee0:	e24c67e5 	sub	r6, ip, #60030976	; 0x3940000

00000ee4 <l792>:
     ee4:	71f0400c 	mvnsvc	r4, ip

00000ee8 <l793>:
     ee8:	e3540441 	cmp	r4, #1090519040	; 0x41000000

00000eec <l794>:
     eec:	804e373c 	subhi	r3, lr, ip, lsr r7

00000ef0 <l795>:
     ef0:	41e07009 	mvnmi	r7, r9

00000ef4 <l796>:
     ef4:	ea000000 	b	efc <l798>

00000ef8 <l797>:
     ef8:	eafffff8 	b	ee0 <l791>

00000efc <l798>:
     efc:	b0ebc000 	rsclt	ip, fp, r0

00000f00 <interrupt_482>:
     f00:	e3a0e01c 	mov	lr, #28

00000f04 <l800>:
     f04:	574d700e 	strbpl	r7, [sp, -lr]

00000f08 <l801>:
     f08:	a33e065f 	teqge	lr, #99614720	; 0x5f00000

00000f0c <l802>:
     f0c:	01110734 	tsteq	r1, r4, lsr r7

00000f10 <l803>:
     f10:	e0e6a856 	rsc	sl, r6, r6, asr r8

00000f14 <l804>:
     f14:	e18a861a 	orr	r8, sl, sl, lsl r6

00000f18 <l805>:
     f18:	e15d71b4 	ldrh	r7, [sp, #-20]	; 0xffffffec

00000f1c <l806>:
     f1c:	e1a00000 	nop			; (mov r0, r0)

00000f20 <l807>:
     f20:	e40d8024 	str	r8, [sp], #-36	; 0x24

00000f24 <l808>:
     f24:	ca000002 	bgt	f34 <l812>

00000f28 <l809>:
     f28:	e0517008 	subs	r7, r1, r8

00000f2c <interrupt_16>:
     f2c:	b117000c 	tstlt	r7, ip

00000f30 <l811>:
     f30:	31560ea1 	cmpcc	r6, r1, lsr #29

00000f34 <l812>:
     f34:	516f5f16 	clzpl	r5, r6

00000f38 <l813>:
     f38:	61964775 	orrsvs	r4, r6, r5, ror r7

00000f3c <l814>:
     f3c:	e032500b 	eors	r5, r2, fp

00000f40 <interrupt_196>:
     f40:	e48d700c 	str	r7, [sp], #12

00000f44 <l816>:
     f44:	e83d4040 	ldmda	sp!, {r6, lr}

00000f48 <interrupt_648>:
     f48:	c0091006 	andgt	r1, r9, r6

00000f4c <interrupt_313>:
     f4c:	e3a0c010 	mov	ip, #16

00000f50 <l819>:
     f50:	611d30bc 	ldrhvs	r3, [sp, -ip]

00000f54 <l820>:
     f54:	d3390689 	teqle	r9, #143654912	; 0x8900000

00000f58 <l821>:
     f58:	e1dd52d4 	ldrsb	r5, [sp, #36]	; 0x24

00000f5c <l822>:
     f5c:	e0047671 	and	r7, r4, r1, ror r6

00000f60 <l823>:
     f60:	83a05702 	movhi	r5, #524288	; 0x80000

00000f64 <l824>:
     f64:	e59f2000 	ldr	r2, [pc]	; f6c <l826>

00000f68 <l825>:
     f68:	ea000000 	b	f70 <l827>

00000f6c <l826>:
     f6c:	000fffb0 	.word	0x000fffb0

00000f70 <l827>:
     f70:	11020091 	swpne	r0, r1, [r2]

00000f74 <l828>:
     f74:	e3a0200a 	mov	r2, #10

00000f78 <l829>:
     f78:	911d60f2 	ldrshls	r6, [sp, -r2]

00000f7c <l830>:
     f7c:	e1790416 	cmn	r9, r6, lsl r4

00000f80 <l831>:
     f80:	e59f8000 	ldr	r8, [pc]	; f88 <interrupt_622>

00000f84 <l832>:
     f84:	ea000000 	b	f8c <interrupt_832>

00000f88 <interrupt_622>:
     f88:	000fffd4 	.word	0x000fffd4

00000f8c <interrupt_832>:
     f8c:	1148009e 	swpbne	r0, lr, [r8]

00000f90 <l835>:
     f90:	9a000000 	bls	f98 <l837>

00000f94 <l836>:
     f94:	e2776889 	rsbs	r6, r7, #8978432	; 0x890000

00000f98 <l837>:
     f98:	e08a5009 	add	r5, sl, r9

00000f9c <l838>:
     f9c:	e3a0b006 	mov	fp, #6

00000fa0 <l839>:
     fa0:	b11db0fb 	ldrshlt	fp, [sp, -fp]

00000fa4 <interrupt_225>:
     fa4:	e59f2000 	ldr	r2, [pc]	; fac <l842>

00000fa8 <l841>:
     fa8:	ea000000 	b	fb0 <l843>

00000fac <l842>:
     fac:	000fffb8 	.word	0x000fffb8

00000fb0 <l843>:
     fb0:	e1428096 	swpb	r8, r6, [r2]

00000fb4 <l844>:
     fb4:	01d74003 	bicseq	r4, r7, r3

00000fb8 <l845>:
     fb8:	e1c0e008 	bic	lr, r0, r8

00000fbc <l846>:
     fbc:	e3a0300c 	mov	r3, #12

00000fc0 <l847>:
     fc0:	018da0b3 	strheq	sl, [sp, r3]

00000fc4 <interrupt_856>:
     fc4:	a134007b 	teqge	r4, fp, ror r0

00000fc8 <l849>:
     fc8:	03b00147 	movseq	r0, #-1073741807	; 0xc0000011

00000fcc <l850>:
     fcc:	ba000004 	blt	fe4 <l856>

00000fd0 <l851>:
     fd0:	e0844002 	add	r4, r4, r2

00000fd4 <interrupt_527>:
     fd4:	e2d6bd0b 	sbcs	fp, r6, #704	; 0x2c0

00000fd8 <interrupt_145>:
     fd8:	2243293b 	subcs	r2, r3, #966656	; 0xec000

00000fdc <l854>:
     fdc:	e1f0b876 	mvns	fp, r6, ror r8

00000fe0 <l855>:
     fe0:	e26cb013 	rsb	fp, ip, #19

00000fe4 <l856>:
     fe4:	61540675 	cmpvs	r4, r5, ror r6

00000fe8 <l857>:
     fe8:	e057615e 	subs	r6, r7, lr, asr r1

00000fec <l858>:
     fec:	d2a2a0a1 	adcle	sl, r2, #161	; 0xa1

00000ff0 <l859>:
     ff0:	e3a04024 	mov	r4, #36	; 0x24

00000ff4 <interrupt_631>:
     ff4:	e18d20b4 	strh	r2, [sp, r4]

00000ff8 <l861>:
     ff8:	e3a0a012 	mov	sl, #18

00000ffc <l862>:
     ffc:	e19de0fa 	ldrsh	lr, [sp, sl]

00001000 <interrupt_597>:
    1000:	e5ddc030 	ldrb	ip, [sp, #48]	; 0x30

00001004 <l864>:
    1004:	e3a0e004 	mov	lr, #4

00001008 <l865>:
    1008:	e7bd100e 	ldr	r1, [sp, lr]!

0000100c <l866>:
    100c:	005b2956 	subseq	r2, fp, r6, asr r9

00001010 <l867>:
    1010:	e8bd4339 	pop	{r0, r3, r4, r5, r8, r9, lr}

00001014 <l868>:
    1014:	e032700c 	eors	r7, r2, ip

00001018 <l869>:
    1018:	e3a0202e 	mov	r2, #46	; 0x2e

0000101c <l870>:
    101c:	e11d70f2 	ldrsh	r7, [sp, -r2]

00001020 <l871>:
    1020:	916f4f10 	clzls	r4, r0

00001024 <l872>:
    1024:	715d30bc 	ldrhvc	r3, [sp, #-12]

00001028 <l873>:
    1028:	e15d80db 	ldrsb	r8, [sp, #-11]

0000102c <l874>:
    102c:	e154061b 	cmp	r4, fp, lsl r6

00001030 <l875>:
    1030:	4a000003 	bmi	1044 <l880>

00001034 <l876>:
    1034:	e1780ae3 	cmn	r8, r3, ror #21

00001038 <l877>:
    1038:	11a0100c 	movne	r1, ip

0000103c <l878>:
    103c:	d0cec006 	sbcle	ip, lr, r6

00001040 <l879>:
    1040:	e388e83f 	orr	lr, r8, #4128768	; 0x3f0000

00001044 <l880>:
    1044:	b3580a62 	cmplt	r8, #401408	; 0x62000

00001048 <l881>:
    1048:	e89d0110 	ldm	sp, {r4, r8}

0000104c <l882>:
    104c:	e3877433 	orr	r7, r7, #855638016	; 0x33000000

00001050 <interrupt_855>:
    1050:	23780b6e 	cmncs	r8, #112640	; 0x1b800

00001054 <l884>:
    1054:	e11e0375 	tst	lr, r5, ror r3

00001058 <l885>:
    1058:	30021001 	andcc	r1, r2, r1

0000105c <l886>:
    105c:	e3a0a02c 	mov	sl, #44	; 0x2c

00001060 <interrupt_835>:
    1060:	111d80ba 	ldrhne	r8, [sp, -sl]

00001064 <interrupt_714>:
    1064:	b23a9e7d 	eorslt	r9, sl, #2000	; 0x7d0

00001068 <l889>:
    1068:	e3c51a87 	bic	r1, r5, #552960	; 0x87000

0000106c <l890>:
    106c:	e83d0400 	ldmda	sp!, {sl}

00001070 <l891>:
    1070:	c14de1b4 	strhgt	lr, [sp, #-20]	; 0xffffffec

00001074 <l892>:
    1074:	e3a0502a 	mov	r5, #42	; 0x2a

00001078 <l893>:
    1078:	511d00f5 	ldrshpl	r0, [sp, -r5]

0000107c <l894>:
    107c:	e292b121 	adds	fp, r2, #1073741832	; 0x40000008

00001080 <interrupt_475>:
    1080:	314d42b2 	strhcc	r4, [sp, #-34]	; 0xffffffde

00001084 <interrupt_781>:
    1084:	e2deca0a 	sbcs	ip, lr, #40960	; 0xa000

00001088 <l897>:
    1088:	8182c251 	orrhi	ip, r2, r1, asr r2

0000108c <l898>:
    108c:	32486263 	subcc	r6, r8, #805306374	; 0x30000006

00001090 <l899>:
    1090:	70a28067 	adcvc	r8, r2, r7, rrx

00001094 <l900>:
    1094:	513a0006 	teqpl	sl, r6

00001098 <l901>:
    1098:	e14de0bc 	strh	lr, [sp, #-12]

0000109c <l902>:
    109c:	e15b0064 	cmp	fp, r4, rrx

000010a0 <interrupt_731>:
    10a0:	155d6015 	ldrbne	r6, [sp, #-21]

000010a4 <l904>:
    10a4:	e3520053 	cmp	r2, #83	; 0x53

000010a8 <interrupt_682>:
    10a8:	e3a0c032 	mov	ip, #50	; 0x32

000010ac <l906>:
    10ac:	a11dc0bc 	ldrhge	ip, [sp, -ip]

000010b0 <interrupt_124>:
    10b0:	e8ad8445 	stmia	sp!, {r0, r2, r6, sl, pc}

000010b4 <l908>:
    10b4:	e0f51669 	rscs	r1, r5, r9, ror #12

000010b8 <interrupt_575>:
    10b8:	715d64b8 	ldrhvc	r6, [sp, #-72]	; 0xffffffb8

000010bc <l910>:
    10bc:	8024617b 	eorhi	r6, r4, fp, ror r1

000010c0 <l911>:
    10c0:	a04c0c16 	subge	r0, ip, r6, lsl ip

000010c4 <interrupt_531>:
    10c4:	e1f09000 	mvns	r9, r0

000010c8 <l913>:
    10c8:	61a042ec 	rorvs	r4, ip, #5

000010cc <l914>:
    10cc:	2176050c 	cmncs	r6, ip, lsl #10

000010d0 <l915>:
    10d0:	e0ab3179 	adc	r3, fp, r9, ror r1

000010d4 <interrupt_219>:
    10d4:	e15d31b8 	ldrh	r3, [sp, #-24]	; 0xffffffe8

000010d8 <l917>:
    10d8:	e3a0402c 	mov	r4, #44	; 0x2c

000010dc <l918>:
    10dc:	c10d00b4 	strhgt	r0, [sp, -r4]

000010e0 <interrupt_973>:
    10e0:	e0d90127 	sbcs	r0, r9, r7, lsr #2

000010e4 <l920>:
    10e4:	615d24b6 	ldrhvs	r2, [sp, #-70]	; 0xffffffba

000010e8 <l921>:
    10e8:	d55d8033 	ldrble	r8, [sp, #-51]	; 0x33

000010ec <l922>:
    10ec:	e15d32b0 	ldrh	r3, [sp, #-32]	; 0xffffffe0

000010f0 <l923>:
    10f0:	ea000006 	b	1110 <l931>

000010f4 <l924>:
    10f4:	6382059b 	orrvs	r0, r2, #650117120	; 0x26c00000

000010f8 <l925>:
    10f8:	a3854025 	orrge	r4, r5, #37	; 0x25

000010fc <l926>:
    10fc:	e33f0513 	teq	pc, #79691776	; 0x4c00000

00001100 <l927>:
    1100:	d22f62d7 	eorle	r6, pc, #1879048205	; 0x7000000d

00001104 <l928>:
    1104:	01700a37 	cmneq	r0, r7, lsr sl

00001108 <l929>:
    1108:	c297118b 	addsgt	r1, r7, #-1073741790	; 0xc0000022

0000110c <l930>:
    110c:	d0a34e3c 	adcle	r4, r3, ip, lsr lr

00001110 <l931>:
    1110:	e13a0f09 	teq	sl, r9, lsl #30

00001114 <l932>:
    1114:	43e0b0b9 	mvnmi	fp, #185	; 0xb9

00001118 <l933>:
    1118:	e04997e7 	sub	r9, r9, r7, ror #15

0000111c <l934>:
    111c:	e199907e 	orrs	r9, r9, lr, ror r0

00001120 <l935>:
    1120:	317c0357 	cmncc	ip, r7, asr r3

00001124 <l936>:
    1124:	e2405033 	sub	r5, r0, #51	; 0x33

00001128 <interrupt_297>:
    1128:	ea000000 	b	1130 <l939>

0000112c <l938>:
    112c:	61837001 	orrvs	r7, r3, r1

00001130 <l939>:
    1130:	e0c5206a 	sbc	r2, r5, sl, rrx

00001134 <interrupt_457>:
    1134:	e003b068 	and	fp, r3, r8, rrx

00001138 <l941>:
    1138:	e3a05044 	mov	r5, #68	; 0x44

0000113c <l942>:
    113c:	a11d20b5 	ldrhge	r2, [sp, -r5]

00001140 <l943>:
    1140:	20b22009 	adcscs	r2, r2, r9

00001144 <interrupt_305>:
    1144:	e59fc000 	ldr	ip, [pc]	; 114c <interrupt_715>

00001148 <interrupt_345>:
    1148:	ea000000 	b	1150 <l947>

0000114c <interrupt_715>:
    114c:	000fffd8 	.word	0x000fffd8

00001150 <l947>:
    1150:	e14c1098 	swpb	r1, r8, [ip]

00001154 <l948>:
    1154:	41e0006f 	mvnmi	r0, pc, rrx

00001158 <interrupt_296>:
    1158:	e3a06044 	mov	r6, #68	; 0x44

0000115c <l950>:
    115c:	e11d20f6 	ldrsh	r2, [sp, -r6]

00001160 <l951>:
    1160:	51958068 	orrspl	r8, r5, r8, rrx

00001164 <l952>:
    1164:	0159013a 	cmpeq	r9, sl, lsr r1

00001168 <l953>:
    1168:	7213c8e2 	andsvc	ip, r3, #14811136	; 0xe20000

0000116c <l954>:
    116c:	237b07ce 	cmncs	fp, #54001664	; 0x3380000

00001170 <l955>:
    1170:	ea000003 	b	1184 <interrupt_922>

00001174 <l956>:
    1174:	e2801042 	add	r1, r0, #66	; 0x42

00001178 <l957>:
    1178:	a131000b 	teqge	r1, fp

0000117c <l958>:
    117c:	8080800e 	addhi	r8, r0, lr

00001180 <l959>:
    1180:	ea000000 	b	1188 <l961>

00001184 <interrupt_922>:
    1184:	eafffffb 	b	1178 <l957>

00001188 <l961>:
    1188:	e16f7f17 	clz	r7, r7

0000118c <l962>:
    118c:	4188bc0b 	orrmi	fp, r8, fp, lsl #24

00001190 <l963>:
    1190:	e0c33064 	sbc	r3, r3, r4, rrx

00001194 <l964>:
    1194:	615d02f2 	ldrshvs	r0, [sp, #-34]	; 0xffffffde

00001198 <interrupt_103>:
    1198:	e15d83ba 	ldrh	r8, [sp, #-58]	; 0xffffffc6

0000119c <l966>:
    119c:	e2135f53 	ands	r5, r3, #332	; 0x14c

000011a0 <l967>:
    11a0:	e1720005 	cmn	r2, r5

000011a4 <interrupt_616>:
    11a4:	054de03c 	strbeq	lr, [sp, #-60]	; 0x3c

000011a8 <l969>:
    11a8:	e40d1048 	str	r1, [sp], #-72	; 0x48

000011ac <l970>:
    11ac:	e5bd001c 	ldr	r0, [sp, #28]!

000011b0 <l971>:
    11b0:	d1f0a06f 	mvnsle	sl, pc, rrx

000011b4 <l972>:
    11b4:	c1d19068 	bicsgt	r9, r1, r8, rrx

000011b8 <l973>:
    11b8:	e0141932 	ands	r1, r4, r2, lsr r9

000011bc <l974>:
    11bc:	61dd02f6 	ldrshvs	r0, [sp, #38]	; 0x26

000011c0 <l975>:
    11c0:	e49d8018 	ldr	r8, [sp], #24

000011c4 <l976>:
    11c4:	815d90b4 	ldrhhi	r9, [sp, #-4]

000011c8 <l977>:
    11c8:	e3dfed66 	bics	lr, pc, #6528	; 0x1980

000011cc <l978>:
    11cc:	e0c7000a 	sbc	r0, r7, sl

000011d0 <l979>:
    11d0:	e1cfc068 	bic	ip, pc, r8, rrx

000011d4 <l980>:
    11d4:	e3a02015 	mov	r2, #21

000011d8 <l981>:
    11d8:	e11d70d2 	ldrsb	r7, [sp, -r2]

000011dc <l982>:
    11dc:	e3a0a014 	mov	sl, #20

000011e0 <l983>:
    11e0:	e61d000a 	ldr	r0, [sp], -sl

000011e4 <l984>:
    11e4:	e3a0a002 	mov	sl, #2

000011e8 <l985>:
    11e8:	37dd300a 	ldrbcc	r3, [sp, sl]

000011ec <l986>:
    11ec:	e19e106e 	orrs	r1, lr, lr, rrx

000011f0 <l987>:
    11f0:	016f8f1a 	clzeq	r8, sl

000011f4 <l988>:
    11f4:	52462e9e 	subpl	r2, r6, #2528	; 0x9e0

000011f8 <l989>:
    11f8:	e23a7483 	eors	r7, sl, #-2097152000	; 0x83000000

000011fc <l990>:
    11fc:	ea000001 	b	1208 <l993>

00001200 <l991>:
    1200:	e16f8f15 	clz	r8, r5

00001204 <l992>:
    1204:	e16faf14 	clz	sl, r4

00001208 <l993>:
    1208:	516fcf13 	clzpl	ip, r3

0000120c <l994>:
    120c:	817b006f 	cmnhi	fp, pc, rrx

00001210 <l995>:
    1210:	71120005 	tstvc	r2, r5

00001214 <l996>:
    1214:	7063000b 	rsbvc	r0, r3, fp

00001218 <l997>:
    1218:	e59f9000 	ldr	r9, [pc]	; 1220 <l999>

0000121c <l998>:
    121c:	ea000000 	b	1224 <l1000>

00001220 <l999>:
    1220:	000fffc4 	.word	0x000fffc4

00001224 <l1000>:
    1224:	b1092092 	swplt	r2, r2, [r9]

00001228 <interrupt_644>:
    1228:	e191af2a 	orrs	sl, r1, sl, lsr #30

0000122c <l1002>:
    122c:	e3a00004 	mov	r0, #4

00001230 <l1003>:
    1230:	a7ddc000 	ldrbge	ip, [sp, r0]

00001234 <l1004>:
    1234:	51560000 	cmppl	r6, r0

00001238 <l1005>:
    1238:	e59f3000 	ldr	r3, [pc]	; 1240 <l1007>

0000123c <l1006>:
    123c:	ea000000 	b	1244 <l1008>

00001240 <l1007>:
    1240:	000fffa4 	.word	0x000fffa4

00001244 <l1008>:
    1244:	b103609e 	swplt	r6, lr, [r3]

00001248 <l1009>:
    1248:	e1dd10ba 	ldrh	r1, [sp, #10]

0000124c <l1010>:
    124c:	e02b393b 	eor	r3, fp, fp, lsr r9

00001250 <l1011>:
    1250:	e82dc431 	stmda	sp!, {r0, r4, r5, sl, lr, pc}

00001254 <l1012>:
    1254:	05cde042 	strbeq	lr, [sp, #66]	; 0x42

00001258 <l1013>:
    1258:	e59f1000 	ldr	r1, [pc]	; 1260 <l1015>

0000125c <l1014>:
    125c:	ea000000 	b	1264 <l1016>

00001260 <l1015>:
    1260:	000fffc8 	.word	0x000fffc8

00001264 <l1016>:
    1264:	e141209b 	swpb	r2, fp, [r1]

00001268 <l1017>:
    1268:	a1dd62bc 	ldrhge	r6, [sp, #44]	; 0x2c

0000126c <l1018>:
    126c:	e1d63001 	bics	r3, r6, r1

00001270 <interrupt_630>:
    1270:	e279b525 	rsbs	fp, r9, #155189248	; 0x9400000

00001274 <l1020>:
    1274:	e04b82af 	sub	r8, fp, pc, lsr #5

00001278 <l1021>:
    1278:	e3a0301e 	mov	r3, #30

0000127c <l1022>:
    127c:	819da0b3 	ldrhhi	sl, [sp, r3]

00001280 <interrupt_633>:
    1280:	e59f3000 	ldr	r3, [pc]	; 1288 <l1025>

00001284 <l1024>:
    1284:	ea000000 	b	128c <l1026>

00001288 <l1025>:
    1288:	000fffcc 	.word	0x000fffcc

0000128c <l1026>:
    128c:	d143e09b 	swpble	lr, fp, [r3]

00001290 <l1027>:
    1290:	e58da034 	str	sl, [sp, #52]	; 0x34

00001294 <l1028>:
    1294:	e3a0303c 	mov	r3, #60	; 0x3c

00001298 <l1029>:
    1298:	e7bd9003 	ldr	r9, [sp, r3]!

0000129c <l1030>:
    129c:	d17c0063 	cmnle	ip, r3, rrx

000012a0 <l1031>:
    12a0:	e93d4e6e 	ldmdb	sp!, {r1, r2, r3, r5, r6, r9, sl, fp, lr}

000012a4 <l1032>:
    12a4:	e15c0069 	cmp	ip, r9, rrx

000012a8 <l1033>:
    12a8:	e5ddb016 	ldrb	fp, [sp, #22]

000012ac <l1034>:
    12ac:	c1c4ae72 	bicgt	sl, r4, r2, ror lr

000012b0 <l1035>:
    12b0:	e0361eca 	eors	r1, r6, sl, asr #29

000012b4 <l1036>:
    12b4:	e59f7000 	ldr	r7, [pc]	; 12bc <l1038>

000012b8 <l1037>:
    12b8:	ea000000 	b	12c0 <l1039>

000012bc <l1038>:
    12bc:	000fffa0 	.word	0x000fffa0

000012c0 <l1039>:
    12c0:	e1478091 	swpb	r8, r1, [r7]

000012c4 <l1040>:
    12c4:	5069e94a 	rsbpl	lr, r9, sl, asr #18

000012c8 <l1041>:
    12c8:	e1f01358 	mvns	r1, r8, asr r3

000012cc <l1042>:
    12cc:	e16f0f1b 	clz	r0, fp

000012d0 <l1043>:
    12d0:	31d01440 	bicscc	r1, r0, r0, asr #8

000012d4 <l1044>:
    12d4:	71f00437 	mvnsvc	r0, r7, lsr r4

000012d8 <l1045>:
    12d8:	e8bd0021 	pop	{r0, r5}

000012dc <l1046>:
    12dc:	71b075a4 	lsrsvc	r7, r4, #11

000012e0 <l1047>:
    12e0:	a203bbe5 	andge	fp, r3, #234496	; 0x39400

000012e4 <interrupt_314>:
    12e4:	e3a06008 	mov	r6, #8

000012e8 <l1049>:
    12e8:	87dd3006 	ldrbhi	r3, [sp, r6]

000012ec <l1050>:
    12ec:	e1520a19 	cmp	r2, r9, lsl sl

000012f0 <l1051>:
    12f0:	60509007 	subsvs	r9, r0, r7

000012f4 <interrupt_649>:
    12f4:	e0750055 	rsbs	r0, r5, r5, asr r0

000012f8 <l1053>:
    12f8:	e0cce903 	sbc	lr, ip, r3, lsl #18

000012fc <l1054>:
    12fc:	e82d6000 	stmda	sp!, {sp, lr}

00001300 <l1055>:
    1300:	e0e6c11e 	rsc	ip, r6, lr, lsl r1

00001304 <l1056>:
    1304:	851de004 	ldrhi	lr, [sp, #-4]

00001308 <interrupt_873>:
    1308:	61370e47 	teqvs	r7, r7, asr #28

0000130c <l1058>:
    130c:	e3a07010 	mov	r7, #16

00001310 <interrupt_489>:
    1310:	e10d70b7 	strh	r7, [sp, -r7]

00001314 <interrupt_208>:
    1314:	e026b065 	eor	fp, r6, r5, rrx

00001318 <l1061>:
    1318:	50d9345c 	sbcspl	r3, r9, ip, asr r4

0000131c <l1062>:
    131c:	e59f3000 	ldr	r3, [pc]	; 1324 <l1064>

00001320 <l1063>:
    1320:	ea000000 	b	1328 <l1065>

00001324 <l1064>:
    1324:	000fffb8 	.word	0x000fffb8

00001328 <l1065>:
    1328:	e103009c 	swp	r0, ip, [r3]

0000132c <l1066>:
    132c:	e3a04008 	mov	r4, #8

00001330 <l1067>:
    1330:	e68d9004 	str	r9, [sp], r4

00001334 <l1068>:
    1334:	717f0c06 	cmnvc	pc, r6, lsl #24

00001338 <l1069>:
    1338:	204f7009 	subcs	r7, pc, r9

0000133c <l1070>:
    133c:	e1f05313 	mvns	r5, r3, lsl r3

00001340 <l1071>:
    1340:	915b02e4 	cmpls	fp, r4, ror #5

00001344 <interrupt_246>:
    1344:	6244bb99 	subvs	fp, r4, #156672	; 0x26400

00001348 <l1073>:
    1348:	e3a05020 	mov	r5, #32

0000134c <l1074>:
    134c:	e19d80b5 	ldrh	r8, [sp, r5]

00001350 <l1075>:
    1350:	e0abc00f 	adc	ip, fp, pc

00001354 <l1076>:
    1354:	e24b9812 	sub	r9, fp, #1179648	; 0x120000

00001358 <l1077>:
    1358:	e0665362 	rsb	r5, r6, r2, ror #6

0000135c <interrupt_190>:
    135c:	e3a0100a 	mov	r1, #10

00001360 <interrupt_787>:
    1360:	e7cd2001 	strb	r2, [sp, r1]

00001364 <l1080>:
    1364:	e1d64007 	bics	r4, r6, r7

00001368 <l1081>:
    1368:	0111000a 	tsteq	r1, sl

0000136c <l1082>:
    136c:	e59fe000 	ldr	lr, [pc]	; 1374 <l1084>

00001370 <l1083>:
    1370:	ea000000 	b	1378 <l1085>

00001374 <l1084>:
    1374:	000fffd0 	.word	0x000fffd0

00001378 <l1085>:
    1378:	810e409a 	swphi	r4, sl, [lr]

0000137c <l1086>:
    137c:	e04a9064 	sub	r9, sl, r4, rrx

00001380 <l1087>:
    1380:	e3a0c012 	mov	ip, #18

00001384 <l1088>:
    1384:	911db0dc 	ldrsbls	fp, [sp, -ip]

00001388 <l1089>:
    1388:	3a000001 	bcc	1394 <l1092>

0000138c <l1090>:
    138c:	90da5471 	sbcsls	r5, sl, r1, ror r4

00001390 <l1091>:
    1390:	b04b4666 	sublt	r4, fp, r6, ror #12

00001394 <l1092>:
    1394:	5022600a 	eorpl	r6, r2, sl

00001398 <l1093>:
    1398:	e16f9f15 	clz	r9, r5

0000139c <l1094>:
    139c:	70ea4b1a 	rscvc	r4, sl, sl, lsl fp

000013a0 <interrupt_168>:
    13a0:	e013300c 	ands	r3, r3, ip

000013a4 <l1096>:
    13a4:	e59fa000 	ldr	sl, [pc]	; 13ac <interrupt_502>

000013a8 <l1097>:
    13a8:	ea000000 	b	13b0 <l1099>

000013ac <interrupt_502>:
    13ac:	000fffa4 	.word	0x000fffa4

000013b0 <l1099>:
    13b0:	610a9098 	swpvs	r9, r8, [sl]

000013b4 <l1100>:
    13b4:	e335001f 	teq	r5, #31

000013b8 <l1101>:
    13b8:	d02f1001 	eorle	r1, pc, r1

000013bc <l1102>:
    13bc:	e59f1000 	ldr	r1, [pc]	; 13c4 <l1104>

000013c0 <l1103>:
    13c0:	ea000000 	b	13c8 <interrupt_122>

000013c4 <l1104>:
    13c4:	000fffe0 	.word	0x000fffe0

000013c8 <interrupt_122>:
    13c8:	e141a09a 	swpb	sl, sl, [r1]

000013cc <l1106>:
    13cc:	e82d4840 	stmda	sp!, {r6, fp, lr}

000013d0 <interrupt_962>:
    13d0:	e132000a 	teq	r2, sl

000013d4 <l1108>:
    13d4:	e3a0101a 	mov	r1, #26

000013d8 <interrupt_40>:
    13d8:	e11dc0b1 	ldrh	ip, [sp, -r1]

000013dc <l1110>:
    13dc:	e2b87512 	adcs	r7, r8, #75497472	; 0x4800000

000013e0 <interrupt_109>:
    13e0:	ea000003 	b	13f4 <l1116>

000013e4 <l1112>:
    13e4:	e28010eb 	add	r1, r0, #235	; 0xeb

000013e8 <l1113>:
    13e8:	e039b36f 	eors	fp, r9, pc, ror #6

000013ec <l1114>:
    13ec:	e1a04000 	mov	r4, r0

000013f0 <l1115>:
    13f0:	ea000000 	b	13f8 <l1117>

000013f4 <l1116>:
    13f4:	eafffffb 	b	13e8 <l1113>

000013f8 <l1117>:
    13f8:	e54dc01c 	strb	ip, [sp, #-28]

000013fc <l1118>:
    13fc:	51dd51b8 	ldrhpl	r5, [sp, #24]

00001400 <interrupt_404>:
    1400:	e3a09008 	mov	r9, #8

00001404 <l1120>:
    1404:	419d60f9 	ldrshmi	r6, [sp, r9]

00001408 <l1121>:
    1408:	70924459 	addsvc	r4, r2, r9, asr r4

0000140c <l1122>:
    140c:	d0afe007 	adcle	lr, pc, r7

00001410 <interrupt_522>:
    1410:	e3a0001c 	mov	r0, #28

00001414 <l1124>:
    1414:	e69d5000 	ldr	r5, [sp], r0

00001418 <l1125>:
    1418:	e16f3f1e 	clz	r3, lr

0000141c <interrupt_966>:
    141c:	e3a0a00e 	mov	sl, #14

00001420 <l1127>:
    1420:	e19d90fa 	ldrsh	r9, [sp, sl]

00001424 <interrupt_987>:
    1424:	e59f3000 	ldr	r3, [pc]	; 142c <l1130>

00001428 <l1129>:
    1428:	ea000000 	b	1430 <l1131>

0000142c <l1130>:
    142c:	000fffd8 	.word	0x000fffd8

00001430 <l1131>:
    1430:	81438099 	swpbhi	r8, r9, [r3]

00001434 <l1132>:
    1434:	51a00aca 	asrpl	r0, sl, #21

00001438 <interrupt_860>:
    1438:	91dde0d3 	ldrsbls	lr, [sp, #3]

0000143c <interrupt_175>:
    143c:	e0cbca1e 	sbc	ip, fp, lr, lsl sl

00001440 <l1135>:
    1440:	00d92b60 	sbcseq	r2, r9, r0, ror #22

00001444 <l1136>:
    1444:	81dd10dd 	ldrsbhi	r1, [sp, #13]

00001448 <l1137>:
    1448:	a238581e 	eorsge	r5, r8, #1966080	; 0x1e0000

0000144c <l1138>:
    144c:	e0ce937a 	sbc	r9, lr, sl, ror r3

00001450 <l1139>:
    1450:	30e94006 	rsccc	r4, r9, r6

00001454 <l1140>:
    1454:	e3a0600c 	mov	r6, #12

00001458 <l1141>:
    1458:	d11d90f6 	ldrshle	r9, [sp, -r6]

0000145c <l1142>:
    145c:	e09ec004 	adds	ip, lr, r4

00001460 <l1143>:
    1460:	201a1004 	andscs	r1, sl, r4

00001464 <interrupt_879>:
    1464:	e3a0101e 	mov	r1, #30

00001468 <interrupt_87>:
    1468:	e75d1001 	ldrb	r1, [sp, -r1]

0000146c <l1146>:
    146c:	71e05316 	mvnvc	r5, r6, lsl r3

00001470 <l1147>:
    1470:	71e0eb77 	mvnvc	lr, r7, ror fp

00001474 <l1148>:
    1474:	519042c2 	orrspl	r4, r0, r2, asr #5

00001478 <l1149>:
    1478:	305a5d04 	subscc	r5, sl, r4, lsl #26

0000147c <interrupt_965>:
    147c:	e54d3019 	strb	r3, [sp, #-25]

00001480 <l1151>:
    1480:	ea000003 	b	1494 <l1156>

00001484 <l1152>:
    1484:	e110006f 	tst	r0, pc, rrx

00001488 <interrupt_611>:
    1488:	e3d920f7 	bics	r2, r9, #247	; 0xf7

0000148c <l1154>:
    148c:	e0a04004 	adc	r4, r0, r4

00001490 <l1155>:
    1490:	e07cc279 	rsbs	ip, ip, r9, ror r2

00001494 <l1156>:
    1494:	61160931 	tstvs	r6, r1, lsr r9

00001498 <l1157>:
    1498:	50cf000b 	sbcpl	r0, pc, fp

0000149c <interrupt_434>:
    149c:	e59f3000 	ldr	r3, [pc]	; 14a4 <l1160>

000014a0 <l1159>:
    14a0:	ea000000 	b	14a8 <l1161>

000014a4 <l1160>:
    14a4:	000fffd0 	.word	0x000fffd0

000014a8 <l1161>:
    14a8:	e103b091 	swp	fp, r1, [r3]

000014ac <l1162>:
    14ac:	e3a0800c 	mov	r8, #12

000014b0 <l1163>:
    14b0:	a11d80d8 	ldrsbge	r8, [sp, -r8]

000014b4 <l1164>:
    14b4:	81b0e00e 	movshi	lr, lr

000014b8 <l1165>:
    14b8:	52d41a0f 	sbcspl	r1, r4, #61440	; 0xf000

000014bc <l1166>:
    14bc:	e17b000e 	cmn	fp, lr

000014c0 <l1167>:
    14c0:	e1f0090c 	mvns	r0, ip, lsl #18

000014c4 <l1168>:
    14c4:	e0b58b5c 	adcs	r8, r5, ip, asr fp

000014c8 <interrupt_535>:
    14c8:	e37c05f3 	cmn	ip, #1019215872	; 0x3cc00000

000014cc <l1170>:
    14cc:	e0f22474 	rscs	r2, r2, r4, ror r4

000014d0 <l1171>:
    14d0:	ea000004 	b	14e8 <l1177>

000014d4 <l1172>:
    14d4:	e280108e 	add	r1, r0, #142	; 0x8e

000014d8 <l1173>:
    14d8:	4006c25a 	andmi	ip, r6, sl, asr r2

000014dc <l1174>:
    14dc:	e1e06d23 	mvn	r6, r3, lsr #26

000014e0 <l1175>:
    14e0:	d0de1fa8 	sbcsle	r1, lr, r8, lsr #31

000014e4 <l1176>:
    14e4:	ea000000 	b	14ec <interrupt_67>

000014e8 <l1177>:
    14e8:	eafffffa 	b	14d8 <l1173>

000014ec <interrupt_67>:
    14ec:	e93d11fa 	ldmdb	sp!, {r1, r3, r4, r5, r6, r7, r8, ip}

000014f0 <l1179>:
    14f0:	e3a0600d 	mov	r6, #13

000014f4 <l1180>:
    14f4:	e19da0d6 	ldrsb	sl, [sp, r6]

000014f8 <l1181>:
    14f8:	e59f0000 	ldr	r0, [pc]	; 1500 <interrupt_870>

000014fc <l1182>:
    14fc:	ea000000 	b	1504 <l1184>

00001500 <interrupt_870>:
    1500:	000fffb0 	.word	0x000fffb0

00001504 <l1184>:
    1504:	d100a091 	swple	sl, r1, [r0]

00001508 <interrupt_533>:
    1508:	e3a0400e 	mov	r4, #14

0000150c <interrupt_641>:
    150c:	d11d60b4 	ldrhle	r6, [sp, -r4]

00001510 <interrupt_919>:
    1510:	50d1200e 	sbcspl	r2, r1, lr

00001514 <l1188>:
    1514:	4078a919 	rsbsmi	sl, r8, r9, lsl r9

00001518 <l1189>:
    1518:	aa000004 	bge	1530 <interrupt_45>

0000151c <l1190>:
    151c:	e16f3f1c 	clz	r3, ip

00001520 <l1191>:
    1520:	a194eb1a 	orrsge	lr, r4, sl, lsl fp

00001524 <l1192>:
    1524:	41d0c264 	bicsmi	ip, r0, r4, ror #4

00001528 <interrupt_545>:
    1528:	e17f006f 	cmn	pc, pc, rrx

0000152c <l1194>:
    152c:	72ac418f 	adcvc	r4, ip, #-1073741789	; 0xc0000023

00001530 <interrupt_45>:
    1530:	e175062c 	cmn	r5, ip, lsr #12

00001534 <l1196>:
    1534:	e3f0bc95 	mvns	fp, #38144	; 0x9500

00001538 <l1197>:
    1538:	21790063 	cmncs	r9, r3, rrx

0000153c <interrupt_238>:
    153c:	e3a0c004 	mov	ip, #4

00001540 <l1199>:
    1540:	e75d400c 	ldrb	r4, [sp, -ip]

00001544 <l1200>:
    1544:	e1947512 	orrs	r7, r4, r2, lsl r5

00001548 <interrupt_948>:
    1548:	e59f3000 	ldr	r3, [pc]	; 1550 <l1203>

0000154c <l1202>:
    154c:	ea000000 	b	1554 <l1204>

00001550 <l1203>:
    1550:	000fffb4 	.word	0x000fffb4

00001554 <l1204>:
    1554:	11430094 	swpbne	r0, r4, [r3]

00001558 <l1205>:
    1558:	e59fe000 	ldr	lr, [pc]	; 1560 <l1207>

0000155c <l1206>:
    155c:	ea000000 	b	1564 <l1208>

00001560 <l1207>:
    1560:	000fffc0 	.word	0x000fffc0

00001564 <l1208>:
    1564:	d10e7091 	swple	r7, r1, [lr]

00001568 <interrupt_270>:
    1568:	e3a06030 	mov	r6, #48	; 0x30

0000156c <l1210>:
    156c:	a19db0b6 	ldrhge	fp, [sp, r6]

00001570 <l1211>:
    1570:	801f4dc2 	andshi	r4, pc, r2, asr #27

00001574 <l1212>:
    1574:	e3a0102f 	mov	r1, #47	; 0x2f

00001578 <l1213>:
    1578:	57dd0001 	ldrbpl	r0, [sp, r1]

0000157c <l1214>:
    157c:	e3a06027 	mov	r6, #39	; 0x27

00001580 <interrupt_378>:
    1580:	e19d40d6 	ldrsb	r4, [sp, r6]

00001584 <l1216>:
    1584:	5a000005 	bpl	15a0 <l1223>

00001588 <l1217>:
    1588:	e280109a 	add	r1, r0, #154	; 0x9a

0000158c <l1218>:
    158c:	e05f7003 	subs	r7, pc, r3

00001590 <interrupt_897>:
    1590:	e16f4f1e 	clz	r4, lr

00001594 <l1220>:
    1594:	e38b1b5a 	orr	r1, fp, #92160	; 0x16800

00001598 <interrupt_377>:
    1598:	d15f0004 	cmple	pc, r4

0000159c <l1222>:
    159c:	ea000000 	b	15a4 <l1224>

000015a0 <l1223>:
    15a0:	eafffff9 	b	158c <l1218>

000015a4 <l1224>:
    15a4:	d1e0a06a 	mvnle	sl, sl, rrx

000015a8 <l1225>:
    15a8:	da000004 	ble	15c0 <l1231>

000015ac <interrupt_795>:
    15ac:	e280104f 	add	r1, r0, #79	; 0x4f

000015b0 <l1227>:
    15b0:	c1b03463 	rorsgt	r3, r3, #8

000015b4 <l1228>:
    15b4:	c3390eb2 	teqgt	r9, #2848	; 0xb20

000015b8 <l1229>:
    15b8:	616f5f19 	clzvs	r5, r9

000015bc <interrupt_217>:
    15bc:	ea000000 	b	15c4 <interrupt_712>

000015c0 <l1231>:
    15c0:	eafffffa 	b	15b0 <l1227>

000015c4 <interrupt_712>:
    15c4:	e0803c29 	add	r3, r0, r9, lsr #24

000015c8 <l1233>:
    15c8:	e2502b16 	subs	r2, r0, #22528	; 0x5800

000015cc <interrupt_918>:
    15cc:	e3a0800a 	mov	r8, #10

000015d0 <l1235>:
    15d0:	811dc0d8 	ldrsbhi	ip, [sp, -r8]

000015d4 <interrupt_458>:
    15d4:	e2518e7a 	subs	r8, r1, #1952	; 0x7a0

000015d8 <interrupt_65>:
    15d8:	9093ca00 	addsls	ip, r3, r0, lsl #20

000015dc <l1238>:
    15dc:	d074a001 	rsbsle	sl, r4, r1

000015e0 <l1239>:
    15e0:	e93d1061 	ldmdb	sp!, {r0, r5, r6, ip}

000015e4 <interrupt_224>:
    15e4:	e0a5400e 	adc	r4, r5, lr

000015e8 <l1241>:
    15e8:	e1cd21b2 	strh	r2, [sp, #18]

000015ec <interrupt_429>:
    15ec:	00548839 	subseq	r8, r4, r9, lsr r8

000015f0 <interrupt_790>:
    15f0:	e032800f 	eors	r8, r2, pc

000015f4 <l1244>:
    15f4:	a1dd92fc 	ldrshge	r9, [sp, #44]	; 0x2c

000015f8 <interrupt_93>:
    15f8:	e9ade000 	stmib	sp!, {sp, lr, pc}

000015fc <l1246>:
    15fc:	c54d300a 	strbgt	r3, [sp, #-10]

00001600 <l1247>:
    1600:	e16f5f19 	clz	r5, r9

00001604 <interrupt_520>:
    1604:	e59f3000 	ldr	r3, [pc]	; 160c <l1250>

00001608 <l1249>:
    1608:	ea000000 	b	1610 <l1251>

0000160c <l1250>:
    160c:	000fffcc 	.word	0x000fffcc

00001610 <l1251>:
    1610:	11030095 	swpne	r0, r5, [r3]

00001614 <l1252>:
    1614:	e3a00008 	mov	r0, #8

00001618 <l1253>:
    1618:	575d4000 	ldrbpl	r4, [sp, -r0]

0000161c <l1254>:
    161c:	222c7cb9 	eorcs	r7, ip, #47360	; 0xb900

00001620 <l1255>:
    1620:	5a000006 	bpl	1640 <l1263>

00001624 <l1256>:
    1624:	e18f3000 	orr	r3, pc, r0

00001628 <l1257>:
    1628:	e04b1001 	sub	r1, fp, r1

0000162c <l1258>:
    162c:	916f1f16 	clzls	r1, r6

00001630 <interrupt_728>:
    1630:	e354007d 	cmp	r4, #125	; 0x7d

00001634 <interrupt_744>:
    1634:	e1e06002 	mvn	r6, r2

00001638 <l1261>:
    1638:	e018a007 	ands	sl, r8, r7

0000163c <l1262>:
    163c:	23dc6731 	bicscs	r6, ip, #12845056	; 0xc40000

00001640 <l1263>:
    1640:	024869f3 	subeq	r6, r8, #3981312	; 0x3cc000

00001644 <interrupt_497>:
    1644:	e19e7ae4 	orrs	r7, lr, r4, ror #21

00001648 <interrupt_375>:
    1648:	e1b0aee8 	rors	sl, r8, #29

0000164c <l1266>:
    164c:	e3a0100c 	mov	r1, #12

00001650 <l1267>:
    1650:	e19da0d1 	ldrsb	sl, [sp, r1]

00001654 <interrupt_295>:
    1654:	e3a0a032 	mov	sl, #50	; 0x32

00001658 <l1269>:
    1658:	e19d70da 	ldrsb	r7, [sp, sl]

0000165c <l1270>:
    165c:	ea000003 	b	1670 <l1275>

00001660 <l1271>:
    1660:	e2801040 	add	r1, r0, #64	; 0x40

00001664 <l1272>:
    1664:	e15f0843 	cmp	pc, r3, asr #16

00001668 <l1273>:
    1668:	e1310008 	teq	r1, r8

0000166c <interrupt_671>:
    166c:	ea000000 	b	1674 <interrupt_467>

00001670 <l1275>:
    1670:	eafffffb 	b	1664 <l1272>

00001674 <interrupt_467>:
    1674:	e1827184 	orr	r7, r2, r4, lsl #3

00001678 <l1277>:
    1678:	e1310a14 	teq	r1, r4, lsl sl

0000167c <l1278>:
    167c:	a5dde007 	ldrbge	lr, [sp, #7]

00001680 <l1279>:
    1680:	0affffff 	beq	1684 <interrupt_625>

00001684 <interrupt_625>:
    1684:	70228004 	eorvc	r8, r2, r4

00001688 <l1281>:
    1688:	d1cd40b2 	strhle	r4, [sp, #2]

0000168c <l1282>:
    168c:	e051c06a 	subs	ip, r1, sl, rrx

00001690 <l1283>:
    1690:	e3b05b19 	movs	r5, #25600	; 0x6400

00001694 <interrupt_629>:
    1694:	e59fb000 	ldr	fp, [pc]	; 169c <l1286>

00001698 <l1285>:
    1698:	ea000000 	b	16a0 <l1287>

0000169c <l1286>:
    169c:	000fffc0 	.word	0x000fffc0

000016a0 <l1287>:
    16a0:	710b0094 	swpvc	r0, r4, [fp]

000016a4 <interrupt_586>:
    16a4:	10e3b06b 	rscne	fp, r3, fp, rrx

000016a8 <l1289>:
    16a8:	0a000006 	beq	16c8 <l1297>

000016ac <l1290>:
    16ac:	e28010f9 	add	r1, r0, #249	; 0xf9

000016b0 <interrupt_858>:
    16b0:	e1e007ee 	mvn	r0, lr, ror #15

000016b4 <interrupt_758>:
    16b4:	539ab8e3 	orrspl	fp, sl, #14876672	; 0xe30000

000016b8 <l1293>:
    16b8:	82c5be4d 	sbchi	fp, r5, #1232	; 0x4d0

000016bc <l1294>:
    16bc:	40c3706f 	sbcmi	r7, r3, pc, rrx

000016c0 <l1295>:
    16c0:	e1710005 	cmn	r1, r5

000016c4 <l1296>:
    16c4:	ea000000 	b	16cc <l1298>

000016c8 <l1297>:
    16c8:	eafffff8 	b	16b0 <interrupt_858>

000016cc <l1298>:
    16cc:	e3a0301e 	mov	r3, #30

000016d0 <l1299>:
    16d0:	319d40d3 	ldrsbcc	r4, [sp, r3]

000016d4 <l1300>:
    16d4:	e1f05460 	mvns	r5, r0, ror #8

000016d8 <l1301>:
    16d8:	e3d0bf66 	bics	fp, r0, #408	; 0x198

000016dc <l1302>:
    16dc:	ea000007 	b	1700 <l1311>

000016e0 <interrupt_615>:
    16e0:	e28010e8 	add	r1, r0, #232	; 0xe8

000016e4 <l1304>:
    16e4:	b0703849 	rsbslt	r3, r0, r9, asr #16

000016e8 <l1305>:
    16e8:	c0f10002 	rscsgt	r0, r1, r2

000016ec <l1306>:
    16ec:	002c300b 	eoreq	r3, ip, fp

000016f0 <l1307>:
    16f0:	e0cb9060 	sbc	r9, fp, r0, rrx

000016f4 <interrupt_159>:
    16f4:	b1878830 	orrlt	r8, r7, r0, lsr r8

000016f8 <l1309>:
    16f8:	e1f06063 	mvns	r6, r3, rrx

000016fc <l1310>:
    16fc:	ea000000 	b	1704 <l1312>

00001700 <l1311>:
    1700:	eafffff7 	b	16e4 <l1304>

00001704 <l1312>:
    1704:	e3a0e004 	mov	lr, #4

00001708 <l1313>:
    1708:	819db0de 	ldrsbhi	fp, [sp, lr]

0000170c <interrupt_70>:
    170c:	e3a03004 	mov	r3, #4

00001710 <l1315>:
    1710:	e7ad1003 	str	r1, [sp, r3]!

00001714 <l1316>:
    1714:	e59f1000 	ldr	r1, [pc]	; 171c <interrupt_621>

00001718 <interrupt_453>:
    1718:	ea000000 	b	1720 <l1319>

0000171c <interrupt_621>:
    171c:	000fffe0 	.word	0x000fffe0

00001720 <l1319>:
    1720:	71017090 	swpvc	r7, r0, [r1]

00001724 <l1320>:
    1724:	e2ba4401 	adcs	r4, sl, #16777216	; 0x1000000

00001728 <interrupt_209>:
    1728:	31a00fe2 	rorcc	r0, r2, #31

0000172c <interrupt_595>:
    172c:	21e01003 	mvncs	r1, r3

00001730 <l1323>:
    1730:	e59f9000 	ldr	r9, [pc]	; 1738 <l1325>

00001734 <l1324>:
    1734:	ea000000 	b	173c <l1326>

00001738 <l1325>:
    1738:	000fffe4 	.word	0x000fffe4

0000173c <l1326>:
    173c:	e1090095 	swp	r0, r5, [r9]

00001740 <l1327>:
    1740:	e3a0300c 	mov	r3, #12

00001744 <l1328>:
    1744:	e7ade003 	str	lr, [sp, r3]!

00001748 <l1329>:
    1748:	d1730633 	cmnle	r3, r3, lsr r6

0000174c <l1330>:
    174c:	e3a0b003 	mov	fp, #3

00001750 <l1331>:
    1750:	e19d80db 	ldrsb	r8, [sp, fp]

00001754 <interrupt_312>:
    1754:	750df004 	strvc	pc, [sp, #-4]

00001758 <l1333>:
    1758:	e0c7700f 	sbc	r7, r7, pc

0000175c <l1334>:
    175c:	9a000007 	bls	1780 <l1343>

00001760 <l1335>:
    1760:	2048831b 	subcs	r8, r8, fp, lsl r3

00001764 <l1336>:
    1764:	c201a4ed 	andgt	sl, r1, #-318767104	; 0xed000000

00001768 <interrupt_388>:
    1768:	73d9a703 	bicsvc	sl, r9, #786432	; 0xc0000

0000176c <l1338>:
    176c:	e0f99007 	rscs	r9, r9, r7

00001770 <l1339>:
    1770:	d16faf14 	clzle	sl, r4

00001774 <l1340>:
    1774:	e1b0c007 	movs	ip, r7

00001778 <l1341>:
    1778:	e0979004 	adds	r9, r7, r4

0000177c <l1342>:
    177c:	e11b0516 	tst	fp, r6, lsl r5

00001780 <l1343>:
    1780:	a06a8e73 	rsbge	r8, sl, r3, ror lr

00001784 <l1344>:
    1784:	b0eb9061 	rsclt	r9, fp, r1, rrx

00001788 <l1345>:
    1788:	d1dd01d3 	ldrsble	r0, [sp, #19]

0000178c <interrupt_281>:
    178c:	7052e3a4 	subsvc	lr, r2, r4, lsr #7

00001790 <interrupt_509>:
    1790:	e1dd50f2 	ldrsh	r5, [sp, #2]

00001794 <l1348>:
    1794:	71130075 	tstvc	r3, r5, ror r0

00001798 <interrupt_807>:
    1798:	e0014006 	and	r4, r1, r6

0000179c <l1350>:
    179c:	b2b8e507 	adcslt	lr, r8, #29360128	; 0x1c00000

000017a0 <l1351>:
    17a0:	31dd12d5 	ldrsbcc	r1, [sp, #37]	; 0x25

000017a4 <interrupt_367>:
    17a4:	3158006a 	cmpcc	r8, sl, rrx

000017a8 <l1353>:
    17a8:	e3a05006 	mov	r5, #6

000017ac <l1354>:
    17ac:	219de0b5 	ldrhcs	lr, [sp, r5]

000017b0 <l1355>:
    17b0:	e59de018 	ldr	lr, [sp, #24]

000017b4 <l1356>:
    17b4:	e334092a 	teq	r4, #688128	; 0xa8000

000017b8 <l1357>:
    17b8:	e16fcf13 	clz	ip, r3

000017bc <interrupt_229>:
    17bc:	a05e9610 	subsge	r9, lr, r0, lsl r6

000017c0 <interrupt_280>:
    17c0:	a0c319e9 	sbcge	r1, r3, r9, ror #19

000017c4 <interrupt_930>:
    17c4:	b135095b 	teqlt	r5, fp, asr r9

000017c8 <l1361>:
    17c8:	b05eab70 	subslt	sl, lr, r0, ror fp

000017cc <l1362>:
    17cc:	31d01672 	bicscc	r1, r0, r2, ror r6

000017d0 <l1363>:
    17d0:	e3a0e00e 	mov	lr, #14

000017d4 <interrupt_602>:
    17d4:	e18de0be 	strh	lr, [sp, lr]

000017d8 <l1365>:
    17d8:	ea000005 	b	17f4 <l1372>

000017dc <interrupt_613>:
    17dc:	e280105b 	add	r1, r0, #91	; 0x5b

000017e0 <l1367>:
    17e0:	11550552 	cmpne	r5, r2, asr r5

000017e4 <l1368>:
    17e4:	81f08004 	mvnshi	r8, r4

000017e8 <l1369>:
    17e8:	c2f01736 	rscsgt	r1, r0, #14155776	; 0xd80000

000017ec <l1370>:
    17ec:	d1190d82 	tstle	r9, r2, lsl #27

000017f0 <l1371>:
    17f0:	ea000000 	b	17f8 <l1373>

000017f4 <l1372>:
    17f4:	eafffff9 	b	17e0 <l1367>

000017f8 <l1373>:
    17f8:	e0352001 	eors	r2, r5, r1

000017fc <l1374>:
    17fc:	53dbadf2 	bicspl	sl, fp, #15488	; 0x3c80

00001800 <l1375>:
    1800:	91180c5a 	tstls	r8, sl, asr ip

00001804 <l1376>:
    1804:	e3a01018 	mov	r1, #24

00001808 <l1377>:
    1808:	e7ad9001 	str	r9, [sp, r1]!

0000180c <l1378>:
    180c:	e1360c5c 	teq	r6, ip, asr ip

00001810 <interrupt_971>:
    1810:	e3a05008 	mov	r5, #8

00001814 <l1380>:
    1814:	718d80b5 	strhvc	r8, [sp, r5]

00001818 <l1381>:
    1818:	20292ea4 	eorcs	r2, r9, r4, lsr #29

0000181c <l1382>:
    181c:	d09fbf09 	addsle	fp, pc, r9, lsl #30

00001820 <interrupt_344>:
    1820:	93d61af9 	bicsls	r1, r6, #1019904	; 0xf9000

00001824 <l1384>:
    1824:	903535ac 	eorsls	r3, r5, ip, lsr #11

00001828 <l1385>:
    1828:	e17c0002 	cmn	ip, r2

0000182c <l1386>:
    182c:	c0e5ab10 	rscgt	sl, r5, r0, lsl fp

00001830 <l1387>:
    1830:	e194b003 	orrs	fp, r4, r3

00001834 <interrupt_990>:
    1834:	a003006e 	andge	r0, r3, lr, rrx

00001838 <l1389>:
    1838:	408e000c 	addmi	r0, lr, ip

0000183c <l1390>:
    183c:	e1e0cc87 	mvn	ip, r7, lsl #25

00001840 <l1391>:
    1840:	e41d9034 	ldr	r9, [sp], #-52	; 0x34

00001844 <l1392>:
    1844:	ea000003 	b	1858 <l1397>

00001848 <l1393>:
    1848:	11720564 	cmnne	r2, r4, ror #10

0000184c <l1394>:
    184c:	90984a6a 	addsls	r4, r8, sl, ror #20

00001850 <interrupt_323>:
    1850:	e16fef1a 	clz	lr, sl

00001854 <l1396>:
    1854:	51847001 	orrpl	r7, r4, r1

00001858 <l1397>:
    1858:	e1841a55 	orr	r1, r4, r5, asr sl

0000185c <l1398>:
    185c:	52afc939 	adcpl	ip, pc, #933888	; 0xe4000

00001860 <l1399>:
    1860:	e1b00619 	lsls	r0, r9, r6

00001864 <l1400>:
    1864:	e3530f82 	cmp	r3, #520	; 0x208

00001868 <l1401>:
    1868:	e1dde3be 	ldrh	lr, [sp, #62]	; 0x3e

0000186c <interrupt_13>:
    186c:	e11a083b 	tst	sl, fp, lsr r8

00001870 <interrupt_390>:
    1870:	904b0061 	subls	r0, fp, r1, rrx

00001874 <l1404>:
    1874:	e14d70b6 	strh	r7, [sp, #-6]

00001878 <l1405>:
    1878:	e1db900e 	bics	r9, fp, lr

0000187c <interrupt_939>:
    187c:	e3a02011 	mov	r2, #17

00001880 <l1407>:
    1880:	97dd5002 	ldrbls	r5, [sp, r2]

00001884 <l1408>:
    1884:	008e4003 	addeq	r4, lr, r3

00001888 <interrupt_193>:
    1888:	e59fe000 	ldr	lr, [pc]	; 1890 <l1411>

0000188c <interrupt_319>:
    188c:	ea000000 	b	1894 <l1412>

00001890 <l1411>:
    1890:	000fffc0 	.word	0x000fffc0

00001894 <l1412>:
    1894:	e14ea097 	swpb	sl, r7, [lr]

00001898 <l1413>:
    1898:	2211561f 	andscs	r5, r1, #32505856	; 0x1f00000

0000189c <interrupt_660>:
    189c:	e59f1000 	ldr	r1, [pc]	; 18a4 <l1416>

000018a0 <l1415>:
    18a0:	ea000000 	b	18a8 <l1417>

000018a4 <l1416>:
    18a4:	000fffd8 	.word	0x000fffd8

000018a8 <l1417>:
    18a8:	e101c09b 	swp	ip, fp, [r1]

000018ac <interrupt_309>:
    18ac:	e59f8000 	ldr	r8, [pc]	; 18b4 <l1420>

000018b0 <l1419>:
    18b0:	ea000000 	b	18b8 <l1421>

000018b4 <l1420>:
    18b4:	000fffb0 	.word	0x000fffb0

000018b8 <l1421>:
    18b8:	e108309b 	swp	r3, fp, [r8]

000018bc <l1422>:
    18bc:	816faf10 	clzhi	sl, r0

000018c0 <l1423>:
    18c0:	e1c0a630 	bic	sl, r0, r0, lsr r6

000018c4 <l1424>:
    18c4:	ea000006 	b	18e4 <l1432>

000018c8 <l1425>:
    18c8:	00732008 	rsbseq	r2, r3, r8

000018cc <l1426>:
    18cc:	437b0ed9 	cmnmi	fp, #3472	; 0xd90

000018d0 <interrupt_756>:
    18d0:	e3f0923a 	mvns	r9, #-1610612733	; 0xa0000003

000018d4 <l1428>:
    18d4:	c0ec206a 	rscgt	r2, ip, sl, rrx

000018d8 <l1429>:
    18d8:	11b0e733 	lsrsne	lr, r3, r7

000018dc <l1430>:
    18dc:	d03a8064 	eorsle	r8, sl, r4, rrx

000018e0 <l1431>:
    18e0:	e1a09a3b 	lsr	r9, fp, sl

000018e4 <l1432>:
    18e4:	80518901 	subshi	r8, r1, r1, lsl #18

000018e8 <interrupt_763>:
    18e8:	e3a05036 	mov	r5, #54	; 0x36

000018ec <l1434>:
    18ec:	119d50f5 	ldrshne	r5, [sp, r5]

000018f0 <l1435>:
    18f0:	81c07715 	bichi	r7, r0, r5, lsl r7

000018f4 <l1436>:
    18f4:	d1dd33f8 	ldrshle	r3, [sp, #56]	; 0x38

000018f8 <l1437>:
    18f8:	e3e0b83d 	mvn	fp, #3997696	; 0x3d0000

000018fc <l1438>:
    18fc:	e59f4000 	ldr	r4, [pc]	; 1904 <l1440>

00001900 <l1439>:
    1900:	ea000000 	b	1908 <interrupt_507>

00001904 <l1440>:
    1904:	000fffe4 	.word	0x000fffe4

00001908 <interrupt_507>:
    1908:	e104b095 	swp	fp, r5, [r4]

0000190c <interrupt_628>:
    190c:	e0b5306a 	adcs	r3, r5, sl, rrx

00001910 <l1443>:
    1910:	e99d4a49 	ldmib	sp, {r0, r3, r6, r9, fp, lr}

00001914 <l1444>:
    1914:	e1dd12bc 	ldrh	r1, [sp, #44]	; 0x2c

00001918 <l1445>:
    1918:	e0119003 	ands	r9, r1, r3

0000191c <l1446>:
    191c:	e3a09020 	mov	r9, #32

00001920 <l1447>:
    1920:	e19de0b9 	ldrh	lr, [sp, r9]

00001924 <l1448>:
    1924:	e3a05014 	mov	r5, #20

00001928 <interrupt_14>:
    1928:	e79d1005 	ldr	r1, [sp, r5]

0000192c <l1450>:
    192c:	72a0803a 	adcvc	r8, r0, #58	; 0x3a

00001930 <l1451>:
    1930:	a1b09003 	movsge	r9, r3

00001934 <l1452>:
    1934:	b007a06f 	andlt	sl, r7, pc, rrx

00001938 <interrupt_685>:
    1938:	e1120517 	tst	r2, r7, lsl r5

0000193c <interrupt_777>:
    193c:	e5dd7027 	ldrb	r7, [sp, #39]	; 0x27

00001940 <l1455>:
    1940:	e1a00000 	nop			; (mov r0, r0)

00001944 <l1456>:
    1944:	d0c9c06a 	sbcle	ip, r9, sl, rrx

00001948 <l1457>:
    1948:	e3a0301e 	mov	r3, #30

0000194c <l1458>:
    194c:	e19d50d3 	ldrsb	r5, [sp, r3]

00001950 <interrupt_688>:
    1950:	b18441a8 	orrlt	r4, r4, r8, lsr #3

00001954 <l1460>:
    1954:	e59fb000 	ldr	fp, [pc]	; 195c <l1462>

00001958 <l1461>:
    1958:	ea000000 	b	1960 <l1463>

0000195c <l1462>:
    195c:	000fffbc 	.word	0x000fffbc

00001960 <l1463>:
    1960:	210b9093 	swpcs	r9, r3, [fp]

00001964 <l1464>:
    1964:	61a07003 	movvs	r7, r3

00001968 <interrupt_38>:
    1968:	7a000008 	bvc	1990 <l1475>

0000196c <l1466>:
    196c:	429cb9e6 	addsmi	fp, ip, #3768320	; 0x398000

00001970 <interrupt_360>:
    1970:	800e4006 	andhi	r4, lr, r6

00001974 <l1468>:
    1974:	6077200e 	rsbsvs	r2, r7, lr

00001978 <l1469>:
    1978:	a15401ec 	cmpge	r4, ip, ror #3

0000197c <l1470>:
    197c:	404b7a44 	submi	r7, fp, r4, asr #20

00001980 <l1471>:
    1980:	e2fe3547 	rscs	r3, lr, #297795584	; 0x11c00000

00001984 <l1472>:
    1984:	e0c94009 	sbc	r4, r9, r9

00001988 <l1473>:
    1988:	e3e07f91 	mvn	r7, #580	; 0x244

0000198c <interrupt_333>:
    198c:	b21e7316 	andslt	r7, lr, #1476395008	; 0x58000000

00001990 <l1475>:
    1990:	017a0002 	cmneq	sl, r2

00001994 <l1476>:
    1994:	13e08839 	mvnne	r8, #3735552	; 0x390000

00001998 <l1477>:
    1998:	55cd803e 	strbpl	r8, [sp, #62]	; 0x3e

0000199c <l1478>:
    199c:	e1a00000 	nop			; (mov r0, r0)

000019a0 <l1479>:
    19a0:	e1dda3b4 	ldrh	sl, [sp, #52]	; 0x34

000019a4 <l1480>:
    19a4:	61a06f85 	lslvs	r6, r5, #31

000019a8 <interrupt_842>:
    19a8:	e3a04035 	mov	r4, #53	; 0x35

000019ac <l1482>:
    19ac:	27dd8004 	ldrbcs	r8, [sp, r4]

000019b0 <l1483>:
    19b0:	e3a0c030 	mov	ip, #48	; 0x30

000019b4 <l1484>:
    19b4:	e18de0bc 	strh	lr, [sp, ip]

000019b8 <l1485>:
    19b8:	e1740977 	cmn	r4, r7, ror r9

000019bc <l1486>:
    19bc:	81b06c1b 	lslshi	r6, fp, ip

000019c0 <l1487>:
    19c0:	a0582443 	subsge	r2, r8, r3, asr #8

000019c4 <l1488>:
    19c4:	ea000007 	b	19e8 <l1497>

000019c8 <l1489>:
    19c8:	e1c2300b 	bic	r3, r2, fp

000019cc <l1490>:
    19cc:	c0d85526 	sbcsgt	r5, r8, r6, lsr #10

000019d0 <l1491>:
    19d0:	e1b04069 	rrxs	r4, r9

000019d4 <l1492>:
    19d4:	e040e068 	sub	lr, r0, r8, rrx

000019d8 <l1493>:
    19d8:	62729084 	rsbsvs	r9, r2, #132	; 0x84

000019dc <l1494>:
    19dc:	516f1f1e 	clzpl	r1, lr

000019e0 <l1495>:
    19e0:	c33f0b2f 	teqgt	pc, #48128	; 0xbc00

000019e4 <l1496>:
    19e4:	e1110203 	tst	r1, r3, lsl #4

000019e8 <l1497>:
    19e8:	6072b001 	rsbsvs	fp, r2, r1

000019ec <l1498>:
    19ec:	ea000004 	b	1a04 <l1504>

000019f0 <l1499>:
    19f0:	e28010d3 	add	r1, r0, #211	; 0xd3

000019f4 <interrupt_412>:
    19f4:	e1a0837e 	ror	r8, lr, r3

000019f8 <interrupt_0>:
    19f8:	50fb7003 	rscspl	r7, fp, r3

000019fc <l1502>:
    19fc:	e352055f 	cmp	r2, #398458880	; 0x17c00000

00001a00 <interrupt_265>:
    1a00:	ea000000 	b	1a08 <l1505>

00001a04 <l1504>:
    1a04:	eafffffa 	b	19f4 <interrupt_412>

00001a08 <l1505>:
    1a08:	e59f5000 	ldr	r5, [pc]	; 1a10 <l1507>

00001a0c <l1506>:
    1a0c:	ea000000 	b	1a14 <l1508>

00001a10 <l1507>:
    1a10:	000fffb4 	.word	0x000fffb4

00001a14 <l1508>:
    1a14:	e1054093 	swp	r4, r3, [r5]

00001a18 <l1509>:
    1a18:	e0b0bd47 	adcs	fp, r0, r7, asr #26

00001a1c <l1510>:
    1a1c:	e3a04004 	mov	r4, #4

00001a20 <l1511>:
    1a20:	e71d4004 	ldr	r4, [sp, -r4]

00001a24 <l1512>:
    1a24:	e1500a0e 	cmp	r0, lr, lsl #20

00001a28 <interrupt_726>:
    1a28:	e15db0d8 	ldrsb	fp, [sp, #-8]

00001a2c <l1514>:
    1a2c:	716f6f1e 	clzvc	r6, lr

00001a30 <interrupt_581>:
    1a30:	458d3038 	strmi	r3, [sp, #56]	; 0x38

00001a34 <l1516>:
    1a34:	e8ad0044 	stmia	sp!, {r2, r6}

00001a38 <interrupt_100>:
    1a38:	e59f5000 	ldr	r5, [pc]	; 1a40 <l1519>

00001a3c <l1518>:
    1a3c:	ea000000 	b	1a44 <l1520>

00001a40 <l1519>:
    1a40:	000fffd0 	.word	0x000fffd0

00001a44 <l1520>:
    1a44:	e105409b 	swp	r4, fp, [r5]

00001a48 <l1521>:
    1a48:	e3160725 	tst	r6, #9699328	; 0x940000

00001a4c <interrupt_771>:
    1a4c:	204fc002 	subcs	ip, pc, r2

00001a50 <interrupt_552>:
    1a50:	6055b3ee 	subsvs	fp, r5, lr, ror #7

00001a54 <l1524>:
    1a54:	01720001 	cmneq	r2, r1

00001a58 <l1525>:
    1a58:	e3a0400c 	mov	r4, #12

00001a5c <l1526>:
    1a5c:	e68d6004 	str	r6, [sp], r4

00001a60 <l1527>:
    1a60:	e3a0c018 	mov	ip, #24

00001a64 <l1528>:
    1a64:	e19de0dc 	ldrsb	lr, [sp, ip]

00001a68 <interrupt_126>:
    1a68:	d1720178 	cmnle	r2, r8, ror r1

00001a6c <l1530>:
    1a6c:	e1110577 	tst	r1, r7, ror r5

00001a70 <interrupt_440>:
    1a70:	a1dd41db 	ldrsbge	r4, [sp, #27]

00001a74 <l1532>:
    1a74:	e0da206e 	sbcs	r2, sl, lr, rrx

00001a78 <l1533>:
    1a78:	11f09854 	mvnsne	r9, r4, asr r8

00001a7c <l1534>:
    1a7c:	e59f1000 	ldr	r1, [pc]	; 1a84 <l1536>

00001a80 <l1535>:
    1a80:	ea000000 	b	1a88 <l1537>

00001a84 <l1536>:
    1a84:	000fffc0 	.word	0x000fffc0

00001a88 <l1537>:
    1a88:	a101e09e 	swpge	lr, lr, [r1]

00001a8c <l1538>:
    1a8c:	015b0001 	cmpeq	fp, r1

00001a90 <interrupt_524>:
    1a90:	e16f0f13 	clz	r0, r3

00001a94 <interrupt_933>:
    1a94:	e59fa000 	ldr	sl, [pc]	; 1a9c <l1542>

00001a98 <l1541>:
    1a98:	ea000000 	b	1aa0 <l1543>

00001a9c <l1542>:
    1a9c:	000fffb8 	.word	0x000fffb8

00001aa0 <l1543>:
    1aa0:	614a9098 	swpbvs	r9, r8, [sl]

00001aa4 <l1544>:
    1aa4:	3affffff 	bcc	1aa8 <l1545>

00001aa8 <l1545>:
    1aa8:	50445a87 	subpl	r5, r4, r7, lsl #21

00001aac <l1546>:
    1aac:	e19e600f 	orrs	r6, lr, pc

00001ab0 <l1547>:
    1ab0:	e3a03028 	mov	r3, #40	; 0x28

00001ab4 <l1548>:
    1ab4:	a19d90d3 	ldrsbge	r9, [sp, r3]

00001ab8 <l1549>:
    1ab8:	e59f3000 	ldr	r3, [pc]	; 1ac0 <interrupt_605>

00001abc <l1550>:
    1abc:	ea000000 	b	1ac4 <l1552>

00001ac0 <interrupt_605>:
    1ac0:	000fffb4 	.word	0x000fffb4

00001ac4 <l1552>:
    1ac4:	6103509c 	swpvs	r5, ip, [r3]

00001ac8 <l1553>:
    1ac8:	e59f1000 	ldr	r1, [pc]	; 1ad0 <l1555>

00001acc <l1554>:
    1acc:	ea000000 	b	1ad4 <interrupt_766>

00001ad0 <l1555>:
    1ad0:	000fffc8 	.word	0x000fffc8

00001ad4 <interrupt_766>:
    1ad4:	e1014093 	swp	r4, r3, [r1]

00001ad8 <l1557>:
    1ad8:	e1c0406b 	bic	r4, r0, fp, rrx

00001adc <l1558>:
    1adc:	61c77a3b 	bicvs	r7, r7, fp, lsr sl

00001ae0 <l1559>:
    1ae0:	50542064 	subspl	r2, r4, r4, rrx

00001ae4 <l1560>:
    1ae4:	e31606f2 	tst	r6, #253755392	; 0xf200000

00001ae8 <l1561>:
    1ae8:	e019e9aa 	ands	lr, r9, sl, lsr #19

00001aec <l1562>:
    1aec:	e80d2708 	stmda	sp, {r3, r8, r9, sl, sp}

00001af0 <l1563>:
    1af0:	e3a01004 	mov	r1, #4

00001af4 <l1564>:
    1af4:	e7adf001 	str	pc, [sp, r1]!

00001af8 <l1565>:
    1af8:	618c0e72 	orrvs	r0, ip, r2, ror lr

00001afc <l1566>:
    1afc:	e03eb069 	eors	fp, lr, r9, rrx

00001b00 <l1567>:
    1b00:	b041c002 	sublt	ip, r1, r2

00001b04 <l1568>:
    1b04:	ea000006 	b	1b24 <l1576>

00001b08 <l1569>:
    1b08:	e28010a3 	add	r1, r0, #163	; 0xa3

00001b0c <l1570>:
    1b0c:	e117000f 	tst	r7, pc

00001b10 <l1571>:
    1b10:	931a0d83 	tstls	sl, #8384	; 0x20c0

00001b14 <l1572>:
    1b14:	e0e06739 	rsc	r6, r0, r9, lsr r7

00001b18 <interrupt_991>:
    1b18:	e1c26d28 	bic	r6, r2, r8, lsr #26

00001b1c <l1574>:
    1b1c:	c1360427 	teqgt	r6, r7, lsr #8

00001b20 <l1575>:
    1b20:	ea000000 	b	1b28 <interrupt_716>

00001b24 <l1576>:
    1b24:	eafffff8 	b	1b0c <l1570>

00001b28 <interrupt_716>:
    1b28:	716f2f1a 	clzvc	r2, sl

00001b2c <l1578>:
    1b2c:	c16f2f12 	clzgt	r2, r2

00001b30 <l1579>:
    1b30:	e0436000 	sub	r6, r3, r0

00001b34 <l1580>:
    1b34:	ea000006 	b	1b54 <l1588>

00001b38 <interrupt_754>:
    1b38:	011c0084 	tsteq	ip, r4, lsl #1

00001b3c <l1582>:
    1b3c:	91c7a000 	bicls	sl, r7, r0

00001b40 <l1583>:
    1b40:	20c78710 	sbccs	r8, r7, r0, lsl r7

00001b44 <l1584>:
    1b44:	404e2e00 	submi	r2, lr, r0, lsl #28

00001b48 <l1585>:
    1b48:	e2b5b3c1 	adcs	fp, r5, #67108867	; 0x4000003

00001b4c <l1586>:
    1b4c:	c3720e2a 	cmngt	r2, #672	; 0x2a0

00001b50 <l1587>:
    1b50:	9008ec37 	andls	lr, r8, r7, lsr ip

00001b54 <l1588>:
    1b54:	70e52065 	rscvc	r2, r5, r5, rrx

00001b58 <l1589>:
    1b58:	d11b000f 	tstle	fp, pc

00001b5c <l1590>:
    1b5c:	e3a0a004 	mov	sl, #4

00001b60 <l1591>:
    1b60:	e7bd500a 	ldr	r5, [sp, sl]!

00001b64 <interrupt_506>:
    1b64:	e19eb00a 	orrs	fp, lr, sl

00001b68 <l1593>:
    1b68:	91e0cc8e 	mvnls	ip, lr, lsl #25

00001b6c <l1594>:
    1b6c:	e1310ce1 	teq	r1, r1, ror #25

00001b70 <l1595>:
    1b70:	e3a0200e 	mov	r2, #14

00001b74 <l1596>:
    1b74:	519d20f2 	ldrshpl	r2, [sp, r2]

00001b78 <l1597>:
    1b78:	e0590ee6 	subs	r0, r9, r6, ror #29

00001b7c <interrupt_828>:
    1b7c:	e1c2800a 	bic	r8, r2, sl

00001b80 <l1599>:
    1b80:	525bec0d 	subspl	lr, fp, #3328	; 0xd00

00001b84 <l1600>:
    1b84:	e0e18006 	rsc	r8, r1, r6

00001b88 <interrupt_883>:
    1b88:	e9ad2000 	stmib	sp!, {sp}

00001b8c <interrupt_749>:
    1b8c:	e1a00000 	nop			; (mov r0, r0)

00001b90 <l1603>:
    1b90:	e217133a 	ands	r1, r7, #-402653184	; 0xe8000000

00001b94 <l1604>:
    1b94:	680d0089 	stmdavs	sp, {r0, r3, r7}

00001b98 <l1605>:
    1b98:	a0d08860 	sbcsge	r8, r0, r0, ror #16

00001b9c <l1606>:
    1b9c:	e1d41a53 	bics	r1, r4, r3, asr sl

00001ba0 <l1607>:
    1ba0:	10fb600e 	rscsne	r6, fp, lr

00001ba4 <l1608>:
    1ba4:	01958002 	orrseq	r8, r5, r2

00001ba8 <l1609>:
    1ba8:	e1b09da8 	lsrs	r9, r8, #27

00001bac <l1610>:
    1bac:	e003e000 	and	lr, r3, r0

00001bb0 <l1611>:
    1bb0:	ba000004 	blt	1bc8 <interrupt_742>

00001bb4 <l1612>:
    1bb4:	b0fe100b 	rscslt	r1, lr, fp

00001bb8 <l1613>:
    1bb8:	e2c832d7 	sbc	r3, r8, #1879048205	; 0x7000000d

00001bbc <l1614>:
    1bbc:	e1360557 	teq	r6, r7, asr r5

00001bc0 <l1615>:
    1bc0:	41360357 	teqmi	r6, r7, asr r3

00001bc4 <interrupt_890>:
    1bc4:	e0994006 	adds	r4, r9, r6

00001bc8 <interrupt_742>:
    1bc8:	916f8f1a 	clzls	r8, sl

00001bcc <l1618>:
    1bcc:	e98d4400 	stmib	sp, {sl, lr}

00001bd0 <l1619>:
    1bd0:	8a000002 	bhi	1be0 <l1623>

00001bd4 <l1620>:
    1bd4:	e280108c 	add	r1, r0, #140	; 0x8c

00001bd8 <interrupt_675>:
    1bd8:	e19a400b 	orrs	r4, sl, fp

00001bdc <l1622>:
    1bdc:	ea000000 	b	1be4 <l1624>

00001be0 <l1623>:
    1be0:	eafffffc 	b	1bd8 <interrupt_675>

00001be4 <l1624>:
    1be4:	e59f4000 	ldr	r4, [pc]	; 1bec <l1626>

00001be8 <l1625>:
    1be8:	ea000000 	b	1bf0 <l1627>

00001bec <l1626>:
    1bec:	000fffcc 	.word	0x000fffcc

00001bf0 <l1627>:
    1bf0:	e104b096 	swp	fp, r6, [r4]

00001bf4 <l1628>:
    1bf4:	e1b08471 	rors	r8, r1, r4

00001bf8 <l1629>:
    1bf8:	31e09001 	mvncc	r9, r1

00001bfc <interrupt_938>:
    1bfc:	b18ba009 	orrlt	sl, fp, r9

00001c00 <l1631>:
    1c00:	e1a00000 	nop			; (mov r0, r0)

00001c04 <l1632>:
    1c04:	e3a0c018 	mov	ip, #24

00001c08 <interrupt_881>:
    1c08:	911d60bc 	ldrhls	r6, [sp, -ip]

00001c0c <l1634>:
    1c0c:	e16f0f18 	clz	r0, r8

00001c10 <interrupt_537>:
    1c10:	e1cde0b8 	strh	lr, [sp, #8]

00001c14 <l1636>:
    1c14:	000e9987 	andeq	r9, lr, r7, lsl #19

00001c18 <l1637>:
    1c18:	e1b0e068 	rrxs	lr, r8

00001c1c <l1638>:
    1c1c:	404cc076 	submi	ip, ip, r6, ror r0

00001c20 <l1639>:
    1c20:	91110006 	tstls	r1, r6

00001c24 <l1640>:
    1c24:	e59f8000 	ldr	r8, [pc]	; 1c2c <interrupt_77>

00001c28 <l1641>:
    1c28:	ea000000 	b	1c30 <l1643>

00001c2c <interrupt_77>:
    1c2c:	000fffbc 	.word	0x000fffbc

00001c30 <l1643>:
    1c30:	e148b093 	swpb	fp, r3, [r8]

00001c34 <interrupt_22>:
    1c34:	b2f19baf 	rscslt	r9, r1, #179200	; 0x2bc00

00001c38 <l1645>:
    1c38:	007b3066 	rsbseq	r3, fp, r6, rrx

00001c3c <interrupt_491>:
    1c3c:	71b0e217 	lslsvc	lr, r7, r2

00001c40 <l1647>:
    1c40:	e3a0c00c 	mov	ip, #12

00001c44 <l1648>:
    1c44:	c11d20bc 	ldrhgt	r2, [sp, -ip]

00001c48 <l1649>:
    1c48:	c3a0bebf 	movgt	fp, #3056	; 0xbf0

00001c4c <l1650>:
    1c4c:	e009900e 	and	r9, r9, lr

00001c50 <l1651>:
    1c50:	e1720068 	cmn	r2, r8, rrx

00001c54 <l1652>:
    1c54:	e5ad6010 	str	r6, [sp, #16]!

00001c58 <interrupt_227>:
    1c58:	e3a00008 	mov	r0, #8

00001c5c <l1654>:
    1c5c:	e19d40b0 	ldrh	r4, [sp, r0]

00001c60 <l1655>:
    1c60:	815e0017 	cmphi	lr, r7, lsl r0

00001c64 <l1656>:
    1c64:	e93d5b7f 	ldmdb	sp!, {r0, r1, r2, r3, r4, r5, r6, r8, r9, fp, ip, lr}

00001c68 <l1657>:
    1c68:	41ddb0dd 	ldrsbmi	fp, [sp, #13]

00001c6c <interrupt_399>:
    1c6c:	e1a00000 	nop			; (mov r0, r0)

00001c70 <l1659>:
    1c70:	e1f0e238 	mvns	lr, r8, lsr r2

00001c74 <l1660>:
    1c74:	71c15724 	bicvc	r5, r1, r4, lsr #14

00001c78 <l1661>:
    1c78:	e48d102c 	str	r1, [sp], #44	; 0x2c

00001c7c <l1662>:
    1c7c:	aa000007 	bge	1ca0 <l1671>

00001c80 <l1663>:
    1c80:	e2801048 	add	r1, r0, #72	; 0x48

00001c84 <l1664>:
    1c84:	50646f2f 	rsbpl	r6, r4, pc, lsr #30

00001c88 <l1665>:
    1c88:	e3d0c61b 	bics	ip, r0, #28311552	; 0x1b00000

00001c8c <l1666>:
    1c8c:	90e867a8 	rscls	r6, r8, r8, lsr #15

00001c90 <l1667>:
    1c90:	01350006 	teqeq	r5, r6

00001c94 <l1668>:
    1c94:	30933d45 	addscc	r3, r3, r5, asr #26

00001c98 <l1669>:
    1c98:	b13c0003 	teqlt	ip, r3

00001c9c <l1670>:
    1c9c:	ea000000 	b	1ca4 <l1672>

00001ca0 <l1671>:
    1ca0:	eafffff7 	b	1c84 <l1664>

00001ca4 <l1672>:
    1ca4:	e1f09001 	mvns	r9, r1

00001ca8 <l1673>:
    1ca8:	988d5340 	stmls	sp, {r6, r8, r9, ip, lr}

00001cac <l1674>:
    1cac:	e1770ec6 	cmn	r7, r6, asr #29

00001cb0 <l1675>:
    1cb0:	e3e0e47d 	mvn	lr, #2097152000	; 0x7d000000

00001cb4 <l1676>:
    1cb4:	e3a0e010 	mov	lr, #16

00001cb8 <l1677>:
    1cb8:	e19d30fe 	ldrsh	r3, [sp, lr]

00001cbc <interrupt_692>:
    1cbc:	d0152819 	andsle	r2, r5, r9, lsl r8

00001cc0 <l1679>:
    1cc0:	e3a02008 	mov	r2, #8

00001cc4 <interrupt_123>:
    1cc4:	e73db002 	ldr	fp, [sp, -r2]!

00001cc8 <interrupt_927>:
    1cc8:	31120c51 	tstcc	r2, r1, asr ip

00001ccc <interrupt_964>:
    1ccc:	ea000002 	b	1cdc <interrupt_815>

00001cd0 <l1683>:
    1cd0:	e28010dd 	add	r1, r0, #221	; 0xdd

00001cd4 <l1684>:
    1cd4:	e3770109 	cmn	r7, #1073741826	; 0x40000002

00001cd8 <l1685>:
    1cd8:	ea000000 	b	1ce0 <interrupt_841>

00001cdc <interrupt_815>:
    1cdc:	eafffffc 	b	1cd4 <l1684>

00001ce0 <interrupt_841>:
    1ce0:	e05c2b05 	subs	r2, ip, r5, lsl #22

00001ce4 <l1688>:
    1ce4:	e15e0c55 	cmp	lr, r5, asr ip

00001ce8 <l1689>:
    1ce8:	e3a0100b 	mov	r1, #11

00001cec <l1690>:
    1cec:	e75d1001 	ldrb	r1, [sp, -r1]

00001cf0 <l1691>:
    1cf0:	a02b2068 	eorge	r2, fp, r8, rrx

00001cf4 <l1692>:
    1cf4:	0257e56b 	subseq	lr, r7, #448790528	; 0x1ac00000

00001cf8 <l1693>:
    1cf8:	e3a09823 	mov	r9, #2293760	; 0x230000

00001cfc <l1694>:
    1cfc:	61310003 	teqvs	r1, r3

00001d00 <interrupt_806>:
    1d00:	6018700c 	andsvs	r7, r8, ip

00001d04 <interrupt_50>:
    1d04:	c09b6002 	addsgt	r6, fp, r2

00001d08 <l1697>:
    1d08:	e1dd71fa 	ldrsh	r7, [sp, #26]

00001d0c <l1698>:
    1d0c:	ea000002 	b	1d1c <l1702>

00001d10 <l1699>:
    1d10:	e280108b 	add	r1, r0, #139	; 0x8b

00001d14 <l1700>:
    1d14:	e047a003 	sub	sl, r7, r3

00001d18 <l1701>:
    1d18:	ea000000 	b	1d20 <l1703>

00001d1c <l1702>:
    1d1c:	eafffffc 	b	1d14 <l1700>

00001d20 <l1703>:
    1d20:	90ab2352 	adcls	r2, fp, r2, asr r3

00001d24 <l1704>:
    1d24:	51e02759 	mvnpl	r2, r9, asr r7

00001d28 <l1705>:
    1d28:	91e06068 	mvnls	r6, r8, rrx

00001d2c <l1706>:
    1d2c:	a017a00a 	andsge	sl, r7, sl

00001d30 <l1707>:
    1d30:	ea000003 	b	1d44 <l1712>

00001d34 <l1708>:
    1d34:	e2801075 	add	r1, r0, #117	; 0x75

00001d38 <l1709>:
    1d38:	e063ca32 	rsb	ip, r3, r2, lsr sl

00001d3c <l1710>:
    1d3c:	017006c6 	cmneq	r0, r6, asr #13

00001d40 <interrupt_587>:
    1d40:	ea000000 	b	1d48 <l1713>

00001d44 <l1712>:
    1d44:	eafffffb 	b	1d38 <l1709>

00001d48 <l1713>:
    1d48:	e59f2000 	ldr	r2, [pc]	; 1d50 <l1715>

00001d4c <l1714>:
    1d4c:	ea000000 	b	1d54 <interrupt_135>

00001d50 <l1715>:
    1d50:	000fffd4 	.word	0x000fffd4

00001d54 <interrupt_135>:
    1d54:	d102909b 	swple	r9, fp, [r2]

00001d58 <l1717>:
    1d58:	b16fef18 	clzlt	lr, r8

00001d5c <l1718>:
    1d5c:	80496002 	subhi	r6, r9, r2

00001d60 <l1719>:
    1d60:	e3a09010 	mov	r9, #16

00001d64 <l1720>:
    1d64:	411d60f9 	ldrshmi	r6, [sp, -r9]

00001d68 <l1721>:
    1d68:	4067400c 	rsbmi	r4, r7, ip

00001d6c <interrupt_871>:
    1d6c:	81e0b064 	mvnhi	fp, r4, rrx

00001d70 <l1723>:
    1d70:	ea000006 	b	1d90 <interrupt_113>

00001d74 <l1724>:
    1d74:	e28010e8 	add	r1, r0, #232	; 0xe8

00001d78 <interrupt_339>:
    1d78:	62f6bc85 	rscsvs	fp, r6, #34048	; 0x8500

00001d7c <interrupt_658>:
    1d7c:	809c1003 	addshi	r1, ip, r3

00001d80 <l1727>:
    1d80:	e1b0c007 	movs	ip, r7

00001d84 <l1728>:
    1d84:	41b05b3e 	lsrsmi	r5, lr, fp

00001d88 <l1729>:
    1d88:	e1c2e003 	bic	lr, r2, r3

00001d8c <interrupt_889>:
    1d8c:	ea000000 	b	1d94 <l1732>

00001d90 <interrupt_113>:
    1d90:	eafffff8 	b	1d78 <interrupt_339>

00001d94 <l1732>:
    1d94:	e3a04027 	mov	r4, #39	; 0x27

00001d98 <l1733>:
    1d98:	e75d6004 	ldrb	r6, [sp, -r4]

00001d9c <l1734>:
    1d9c:	ca000005 	bgt	1db8 <l1741>

00001da0 <l1735>:
    1da0:	e2801020 	add	r1, r0, #32

00001da4 <l1736>:
    1da4:	100f64c1 	andne	r6, pc, r1, asr #9

00001da8 <interrupt_340>:
    1da8:	c134000b 	teqgt	r4, fp

00001dac <l1738>:
    1dac:	e3740435 	cmn	r4, #889192448	; 0x35000000

00001db0 <l1739>:
    1db0:	01340068 	teqeq	r4, r8, rrx

00001db4 <l1740>:
    1db4:	ea000000 	b	1dbc <l1742>

00001db8 <l1741>:
    1db8:	eafffff9 	b	1da4 <l1736>

00001dbc <l1742>:
    1dbc:	c15d22b6 	ldrhgt	r2, [sp, #-38]	; 0xffffffda

00001dc0 <l1743>:
    1dc0:	e93d5c00 	ldmdb	sp!, {sl, fp, ip, lr}

00001dc4 <l1744>:
    1dc4:	e33b0737 	teq	fp, #14417920	; 0xdc0000

00001dc8 <l1745>:
    1dc8:	e1cd50b6 	strh	r5, [sp, #6]

00001dcc <l1746>:
    1dcc:	055da013 	ldrbeq	sl, [sp, #-19]

00001dd0 <interrupt_268>:
    1dd0:	e27669af 	rsbs	r6, r6, #2867200	; 0x2bc000

00001dd4 <l1748>:
    1dd4:	30f47005 	rscscc	r7, r4, r5

00001dd8 <l1749>:
    1dd8:	82715cf7 	rsbshi	r5, r1, #63232	; 0xf700

00001ddc <interrupt_79>:
    1ddc:	20e21807 	rsccs	r1, r2, r7, lsl #16

00001de0 <interrupt_138>:
    1de0:	b0bf59e3 	adcslt	r5, pc, r3, ror #19

00001de4 <l1752>:
    1de4:	e3510795 	cmp	r1, #39059456	; 0x2540000

00001de8 <l1753>:
    1de8:	e1a0900f 	mov	r9, pc

00001dec <l1754>:
    1dec:	e16faf1c 	clz	sl, ip

00001df0 <l1755>:
    1df0:	007a1e80 	rsbseq	r1, sl, r0, lsl #29

00001df4 <interrupt_690>:
    1df4:	03700efe 	cmneq	r0, #4064	; 0xfe0

00001df8 <l1757>:
    1df8:	6179081a 	cmnvs	r9, sl, lsl r8

00001dfc <l1758>:
    1dfc:	605a1060 	subsvs	r1, sl, r0, rrx

00001e00 <l1759>:
    1e00:	689d5b41 	ldmvs	sp, {r0, r6, r8, r9, fp, ip, lr}

00001e04 <interrupt_342>:
    1e04:	113a0064 	teqne	sl, r4, rrx

00001e08 <l1761>:
    1e08:	61b04a5e 	asrsvs	r4, lr, sl

00001e0c <l1762>:
    1e0c:	900f0005 	andls	r0, pc, r5

00001e10 <l1763>:
    1e10:	e3720e3d 	cmn	r2, #976	; 0x3d0

00001e14 <l1764>:
    1e14:	e92d2000 	stmfd	sp!, {sp}

00001e18 <interrupt_129>:
    1e18:	41dd02ba 	ldrhmi	r0, [sp, #42]	; 0x2a

00001e1c <l1766>:
    1e1c:	2a000004 	bcs	1e34 <l1772>

00001e20 <l1767>:
    1e20:	e2801088 	add	r1, r0, #136	; 0x88

00001e24 <l1768>:
    1e24:	e02ac00f 	eor	ip, sl, pc

00001e28 <l1769>:
    1e28:	633b0d6d 	teqvs	fp, #6976	; 0x1b40

00001e2c <interrupt_78>:
    1e2c:	a11f0001 	tstge	pc, r1

00001e30 <interrupt_923>:
    1e30:	ea000000 	b	1e38 <interrupt_254>

00001e34 <l1772>:
    1e34:	eafffffa 	b	1e24 <l1768>

00001e38 <interrupt_254>:
    1e38:	71b06b19 	lslsvc	r6, r9, fp

00001e3c <l1774>:
    1e3c:	c047c008 	subgt	ip, r7, r8

00001e40 <interrupt_484>:
    1e40:	e5dd1018 	ldrb	r1, [sp, #24]

00001e44 <l1776>:
    1e44:	b14db0b2 	strhlt	fp, [sp, #-2]

00001e48 <interrupt_768>:
    1e48:	e0557004 	subs	r7, r5, r4

00001e4c <l1778>:
    1e4c:	e59f7000 	ldr	r7, [pc]	; 1e54 <l1780>

00001e50 <l1779>:
    1e50:	ea000000 	b	1e58 <l1781>

00001e54 <l1780>:
    1e54:	000fffb8 	.word	0x000fffb8

00001e58 <l1781>:
    1e58:	b1473091 	swpblt	r3, r1, [r7]

00001e5c <interrupt_724>:
    1e5c:	816f7f14 	clzhi	r7, r4

00001e60 <l1783>:
    1e60:	e1dd80f6 	ldrsh	r8, [sp, #6]

00001e64 <l1784>:
    1e64:	41cd31b0 	strhmi	r3, [sp, #16]

00001e68 <interrupt_447>:
    1e68:	e1c25006 	bic	r5, r2, r6

00001e6c <l1786>:
    1e6c:	e59f2000 	ldr	r2, [pc]	; 1e74 <interrupt_901>

00001e70 <interrupt_356>:
    1e70:	ea000000 	b	1e78 <l1789>

00001e74 <interrupt_901>:
    1e74:	000fffd4 	.word	0x000fffd4

00001e78 <l1789>:
    1e78:	81025095 	swphi	r5, r5, [r2]

00001e7c <interrupt_529>:
    1e7c:	b3590dfb 	cmplt	r9, #16064	; 0x3ec0

00001e80 <interrupt_494>:
    1e80:	e59fe000 	ldr	lr, [pc]	; 1e88 <interrupt_765>

00001e84 <interrupt_751>:
    1e84:	ea000000 	b	1e8c <l1794>

00001e88 <interrupt_765>:
    1e88:	000fffbc 	.word	0x000fffbc

00001e8c <l1794>:
    1e8c:	610e809b 	swpvs	r8, fp, [lr]

00001e90 <interrupt_86>:
    1e90:	05cd3020 	strbeq	r3, [sp, #32]

00001e94 <l1796>:
    1e94:	e5bdc010 	ldr	ip, [sp, #16]!

00001e98 <l1797>:
    1e98:	e3a0e001 	mov	lr, #1

00001e9c <l1798>:
    1e9c:	919d50de 	ldrsbls	r5, [sp, lr]

00001ea0 <l1799>:
    1ea0:	e3a01001 	mov	r1, #1

00001ea4 <l1800>:
    1ea4:	e74d0001 	strb	r0, [sp, -r1]

00001ea8 <interrupt_469>:
    1ea8:	8352089a 	cmphi	r2, #10092544	; 0x9a0000

00001eac <l1802>:
    1eac:	e0c34008 	sbc	r4, r3, r8

00001eb0 <interrupt_532>:
    1eb0:	e35c0b3a 	cmp	ip, #59392	; 0xe800

00001eb4 <l1804>:
    1eb4:	b3790347 	cmnlt	r9, #469762049	; 0x1c000001

00001eb8 <interrupt_538>:
    1eb8:	431e0755 	tstmi	lr, #22282240	; 0x1540000

00001ebc <interrupt_121>:
    1ebc:	e59fc000 	ldr	ip, [pc]	; 1ec4 <l1808>

00001ec0 <l1807>:
    1ec0:	ea000000 	b	1ec8 <l1809>

00001ec4 <l1808>:
    1ec4:	000fffdc 	.word	0x000fffdc

00001ec8 <l1809>:
    1ec8:	614c2093 	swpbvs	r2, r3, [ip]

00001ecc <l1810>:
    1ecc:	e59fe000 	ldr	lr, [pc]	; 1ed4 <l1812>

00001ed0 <l1811>:
    1ed0:	ea000000 	b	1ed8 <interrupt_576>

00001ed4 <l1812>:
    1ed4:	000fffbc 	.word	0x000fffbc

00001ed8 <interrupt_576>:
    1ed8:	e10e809b 	swp	r8, fp, [lr]

00001edc <l1814>:
    1edc:	e083100e 	add	r1, r3, lr

00001ee0 <interrupt_252>:
    1ee0:	a15dc0fa 	ldrshge	ip, [sp, #-10]

00001ee4 <l1816>:
    1ee4:	2197a182 	orrscs	sl, r7, r2, lsl #3

00001ee8 <interrupt_729>:
    1ee8:	e1e0a870 	mvn	sl, r0, ror r8

00001eec <l1818>:
    1eec:	c1e0a069 	mvngt	sl, r9, rrx

00001ef0 <interrupt_125>:
    1ef0:	10691007 	rsbne	r1, r9, r7

00001ef4 <interrupt_73>:
    1ef4:	e92d8840 	push	{r6, fp, pc}

00001ef8 <l1821>:
    1ef8:	e16f1f15 	clz	r1, r5

00001efc <l1822>:
    1efc:	c1e0cd6a 	mvngt	ip, sl, ror #26

00001f00 <l1823>:
    1f00:	e2980d19 	adds	r0, r8, #1600	; 0x640

00001f04 <l1824>:
    1f04:	12ecc81e 	rscne	ip, ip, #1966080	; 0x1e0000

00001f08 <l1825>:
    1f08:	e1a00000 	nop			; (mov r0, r0)

00001f0c <l1826>:
    1f0c:	e0f80d08 	rscs	r0, r8, r8, lsl #26

00001f10 <interrupt_479>:
    1f10:	125e2b15 	subsne	r2, lr, #21504	; 0x5400

00001f14 <l1828>:
    1f14:	e19ee3a3 	orrs	lr, lr, r3, lsr #7

00001f18 <interrupt_407>:
    1f18:	e04f9006 	sub	r9, pc, r6

00001f1c <l1830>:
    1f1c:	41a0b00c 	movmi	fp, ip

00001f20 <l1831>:
    1f20:	e3a0e018 	mov	lr, #24

00001f24 <l1832>:
    1f24:	b10d30be 	strhlt	r3, [sp, -lr]

00001f28 <l1833>:
    1f28:	e3a04011 	mov	r4, #17

00001f2c <l1834>:
    1f2c:	019d70d4 	ldrsbeq	r7, [sp, r4]

00001f30 <l1835>:
    1f30:	33b0353d 	movscc	r3, #255852544	; 0xf400000

00001f34 <l1836>:
    1f34:	ea000006 	b	1f54 <l1844>

00001f38 <l1837>:
    1f38:	e280100d 	add	r1, r0, #13

00001f3c <l1838>:
    1f3c:	e15e0065 	cmp	lr, r5, rrx

00001f40 <l1839>:
    1f40:	9119086a 	tstls	r9, sl, ror #16

00001f44 <l1840>:
    1f44:	435c0d42 	cmpmi	ip, #4224	; 0x1080

00001f48 <l1841>:
    1f48:	e1a0084f 	asr	r0, pc, #16

00001f4c <l1842>:
    1f4c:	e0a51000 	adc	r1, r5, r0

00001f50 <l1843>:
    1f50:	ea000000 	b	1f58 <l1845>

00001f54 <l1844>:
    1f54:	eafffff8 	b	1f3c <l1838>

00001f58 <l1845>:
    1f58:	70a6e009 	adcvc	lr, r6, r9

00001f5c <l1846>:
    1f5c:	e0821571 	add	r1, r2, r1, ror r5

00001f60 <l1847>:
    1f60:	b1e03917 	mvnlt	r3, r7, lsl r9

00001f64 <l1848>:
    1f64:	e9ad13fb 	stmib	sp!, {r0, r1, r3, r4, r5, r6, r7, r8, r9, ip}

00001f68 <interrupt_949>:
    1f68:	e0a36b80 	adc	r6, r3, r0, lsl #23

00001f6c <interrupt_884>:
    1f6c:	e04f000f 	sub	r0, pc, pc

00001f70 <l1851>:
    1f70:	52a95752 	adcpl	r5, r9, #21495808	; 0x1480000

00001f74 <l1852>:
    1f74:	e40d702c 	str	r7, [sp], #-44	; 0x2c

00001f78 <l1853>:
    1f78:	e9ad01d8 	stmib	sp!, {r3, r4, r6, r7, r8}

00001f7c <l1854>:
    1f7c:	85ddc001 	ldrbhi	ip, [sp, #1]

00001f80 <l1855>:
    1f80:	e1140ce5 	tst	r4, r5, ror #25

00001f84 <l1856>:
    1f84:	e59f6000 	ldr	r6, [pc]	; 1f8c <l1858>

00001f88 <l1857>:
    1f88:	ea000000 	b	1f90 <l1859>

00001f8c <l1858>:
    1f8c:	000fffd8 	.word	0x000fffd8

00001f90 <l1859>:
    1f90:	e106709e 	swp	r7, lr, [r6]

00001f94 <l1860>:
    1f94:	e1a00000 	nop			; (mov r0, r0)

00001f98 <l1861>:
    1f98:	e1a00000 	nop			; (mov r0, r0)

00001f9c <l1862>:
    1f9c:	61f09067 	mvnsvs	r9, r7, rrx

00001fa0 <l1863>:
    1fa0:	e8bd4c3a 	pop	{r1, r3, r4, r5, sl, fp, lr}

00001fa4 <interrupt_505>:
    1fa4:	c0d16785 	sbcsgt	r6, r1, r5, lsl #15

00001fa8 <l1865>:
    1fa8:	e1a00000 	nop			; (mov r0, r0)

00001fac <l1866>:
    1fac:	615d82d7 	ldrsbvs	r8, [sp, #-39]	; 0xffffffd9

00001fb0 <l1867>:
    1fb0:	e005b00f 	and	fp, r5, pc

00001fb4 <l1868>:
    1fb4:	ea000004 	b	1fcc <l1874>

00001fb8 <interrupt_820>:
    1fb8:	e2801035 	add	r1, r0, #53	; 0x35

00001fbc <l1870>:
    1fbc:	90e9000a 	rscls	r0, r9, sl

00001fc0 <l1871>:
    1fc0:	a13b0000 	teqge	fp, r0

00001fc4 <interrupt_579>:
    1fc4:	302f100b 	eorcc	r1, pc, fp

00001fc8 <l1873>:
    1fc8:	ea000000 	b	1fd0 <l1875>

00001fcc <l1874>:
    1fcc:	eafffffa 	b	1fbc <l1870>

00001fd0 <l1875>:
    1fd0:	e3a03020 	mov	r3, #32

00001fd4 <interrupt_797>:
    1fd4:	e11d90f3 	ldrsh	r9, [sp, -r3]

00001fd8 <l1877>:
    1fd8:	e1b00000 	movs	r0, r0

00001fdc <l1878>:
    1fdc:	e52de044 	str	lr, [sp, #-68]!	; 0x44

00001fe0 <l1879>:
    1fe0:	e98d4d95 	stmib	sp, {r0, r2, r4, r7, r8, sl, fp, lr}

00001fe4 <l1880>:
    1fe4:	e11c0a34 	tst	ip, r4, lsr sl

00001fe8 <l1881>:
    1fe8:	e1f0900f 	mvns	r9, pc

00001fec <interrupt_510>:
    1fec:	e1a00000 	nop			; (mov r0, r0)

00001ff0 <l1883>:
    1ff0:	816f2f10 	clzhi	r2, r0

00001ff4 <l1884>:
    1ff4:	ea000005 	b	2010 <l1891>

00001ff8 <interrupt_282>:
    1ff8:	e0e25063 	rsc	r5, r2, r3, rrx

00001ffc <interrupt_501>:
    1ffc:	10564002 	subsne	r4, r6, r2

00002000 <l1887>:
    2000:	d29964b9 	addsle	r6, r9, #-1191182336	; 0xb9000000

00002004 <l1888>:
    2004:	e0f71141 	rscs	r1, r7, r1, asr #2

00002008 <l1889>:
    2008:	e13b01cf 	teq	fp, pc, asr #3

0000200c <l1890>:
    200c:	213f000a 	teqcs	pc, sl

00002010 <l1891>:
    2010:	a15207e5 	cmpge	r2, r5, ror #15

00002014 <l1892>:
    2014:	e59f7000 	ldr	r7, [pc]	; 201c <l1894>

00002018 <l1893>:
    2018:	ea000000 	b	2020 <l1895>

0000201c <l1894>:
    201c:	000fffa8 	.word	0x000fffa8

00002020 <l1895>:
    2020:	a1470099 	swpbge	r0, r9, [r7]

00002024 <l1896>:
    2024:	e0ef106a 	rsc	r1, pc, sl, rrx

00002028 <l1897>:
    2028:	e59f9000 	ldr	r9, [pc]	; 2030 <l1899>

0000202c <l1898>:
    202c:	ea000000 	b	2034 <l1900>

00002030 <l1899>:
    2030:	000fffb4 	.word	0x000fffb4

00002034 <l1900>:
    2034:	4109609b 	swpmi	r6, fp, [r9]

00002038 <l1901>:
    2038:	e3c6143d 	bic	r1, r6, #1023410176	; 0x3d000000

0000203c <l1902>:
    203c:	e3a0903e 	mov	r9, #62	; 0x3e

00002040 <l1903>:
    2040:	e7cde009 	strb	lr, [sp, r9]

00002044 <l1904>:
    2044:	9a000007 	bls	2068 <l1913>

00002048 <l1905>:
    2048:	e2801087 	add	r1, r0, #135	; 0x87

0000204c <interrupt_368>:
    204c:	e16f4f1a 	clz	r4, sl

00002050 <interrupt_245>:
    2050:	e1e0644c 	mvn	r6, ip, asr #8

00002054 <l1908>:
    2054:	e19524e5 	orrs	r2, r5, r5, ror #9

00002058 <l1909>:
    2058:	c1b0813b 	lsrsgt	r8, fp, r1

0000205c <l1910>:
    205c:	c0ee7005 	rscgt	r7, lr, r5

00002060 <interrupt_294>:
    2060:	004ae687 	subeq	lr, sl, r7, lsl #13

00002064 <interrupt_908>:
    2064:	ea000000 	b	206c <l1914>

00002068 <l1913>:
    2068:	eafffff7 	b	204c <interrupt_368>

0000206c <l1914>:
    206c:	ea000002 	b	207c <l1918>

00002070 <l1915>:
    2070:	c1310247 	teqgt	r1, r7, asr #4

00002074 <interrupt_19>:
    2074:	e25a5dfe 	subs	r5, sl, #16256	; 0x3f80

00002078 <interrupt_935>:
    2078:	11710050 	cmnne	r1, r0, asr r0

0000207c <l1918>:
    207c:	e2f376f7 	rscs	r7, r3, #258998272	; 0xf700000

00002080 <l1919>:
    2080:	e59fa000 	ldr	sl, [pc]	; 2088 <l1921>

00002084 <l1920>:
    2084:	ea000000 	b	208c <interrupt_921>

00002088 <l1921>:
    2088:	000fffb0 	.word	0x000fffb0

0000208c <interrupt_921>:
    208c:	314ac099 	swpbcc	ip, r9, [sl]

00002090 <l1923>:
    2090:	e88dca5a 	stm	sp, {r1, r3, r4, r6, r9, fp, lr, pc}

00002094 <l1924>:
    2094:	d0c8c912 	sbcle	ip, r8, r2, lsl r9

00002098 <l1925>:
    2098:	95dd1028 	ldrbls	r1, [sp, #40]	; 0x28

0000209c <interrupt_418>:
    209c:	009ea006 	addseq	sl, lr, r6

000020a0 <l1927>:
    20a0:	e1d7600b 	bics	r6, r7, fp

000020a4 <l1928>:
    20a4:	309a35a2 	addscc	r3, sl, r2, lsr #11

000020a8 <interrupt_559>:
    20a8:	6247a91e 	subvs	sl, r7, #491520	; 0x78000

000020ac <l1930>:
    20ac:	e1e00072 	mvn	r0, r2, ror r0

000020b0 <l1931>:
    20b0:	41500008 	cmpmi	r0, r8

000020b4 <l1932>:
    20b4:	63330919 	teqvs	r3, #409600	; 0x64000

000020b8 <l1933>:
    20b8:	a1cda2ba 	strhge	sl, [sp, #42]	; 0x2a

000020bc <l1934>:
    20bc:	e051500f 	subs	r5, r1, pc

000020c0 <interrupt_464>:
    20c0:	e0409813 	sub	r9, r0, r3, lsl r8

000020c4 <interrupt_518>:
    20c4:	e1dd52b6 	ldrh	r5, [sp, #38]	; 0x26

000020c8 <l1937>:
    20c8:	e5bdc004 	ldr	ip, [sp, #4]!

000020cc <interrupt_371>:
    20cc:	91da7008 	bicsls	r7, sl, r8

000020d0 <l1939>:
    20d0:	c1370007 	teqgt	r7, r7

000020d4 <interrupt_242>:
    20d4:	e229b429 	eor	fp, r9, #687865856	; 0x29000000

000020d8 <l1941>:
    20d8:	e074ac32 	rsbs	sl, r4, r2, lsr ip

000020dc <l1942>:
    20dc:	e3a03034 	mov	r3, #52	; 0x34

000020e0 <l1943>:
    20e0:	e19d10b3 	ldrh	r1, [sp, r3]

000020e4 <interrupt_171>:
    20e4:	e0631007 	rsb	r1, r3, r7

000020e8 <l1945>:
    20e8:	e3a0b03e 	mov	fp, #62	; 0x3e

000020ec <l1946>:
    20ec:	818d10bb 	strhhi	r1, [sp, fp]

000020f0 <interrupt_437>:
    20f0:	e3a0e025 	mov	lr, #37	; 0x25

000020f4 <l1948>:
    20f4:	e19d80de 	ldrsb	r8, [sp, lr]

000020f8 <l1949>:
    20f8:	e05c3277 	subs	r3, ip, r7, ror r2

000020fc <l1950>:
    20fc:	ea000008 	b	2124 <l1960>

00002100 <l1951>:
    2100:	e05c9001 	subs	r9, ip, r1

00002104 <l1952>:
    2104:	c1da19c0 	bicsgt	r1, sl, r0, asr #19

00002108 <l1953>:
    2108:	e02e1065 	eor	r1, lr, r5, rrx

0000210c <interrupt_913>:
    210c:	a096ec75 	addsge	lr, r6, r5, ror ip

00002110 <l1955>:
    2110:	e25acccd 	subs	ip, sl, #52480	; 0xcd00

00002114 <interrupt_151>:
    2114:	e18e6067 	orr	r6, lr, r7, rrx

00002118 <l1957>:
    2118:	92c6900f 	sbcls	r9, r6, #15

0000211c <l1958>:
    211c:	a1e03007 	mvnge	r3, r7

00002120 <l1959>:
    2120:	e1390006 	teq	r9, r6

00002124 <l1960>:
    2124:	80523001 	subshi	r3, r2, r1

00002128 <interrupt_240>:
    2128:	81dda1d0 	ldrsbhi	sl, [sp, #16]

0000212c <l1962>:
    212c:	137e0d92 	cmnne	lr, #9344	; 0x2480

00002130 <interrupt_46>:
    2130:	e59f5000 	ldr	r5, [pc]	; 2138 <l1965>

00002134 <l1964>:
    2134:	ea000000 	b	213c <interrupt_945>

00002138 <l1965>:
    2138:	000fffdc 	.word	0x000fffdc

0000213c <interrupt_945>:
    213c:	e1453097 	swpb	r3, r7, [r5]

00002140 <interrupt_583>:
    2140:	e3160107 	tst	r6, #-1073741823	; 0xc0000001

00002144 <l1968>:
    2144:	019ae06e 	orrseq	lr, sl, lr, rrx

00002148 <interrupt_986>:
    2148:	b16f1f1c 	clzlt	r1, ip

0000214c <l1970>:
    214c:	e17a006a 	cmn	sl, sl, rrx

00002150 <l1971>:
    2150:	e0a26063 	adc	r6, r2, r3, rrx

00002154 <l1972>:
    2154:	e3a0500a 	mov	r5, #10

00002158 <interrupt_325>:
    2158:	67dd7005 	ldrbvs	r7, [sp, r5]

0000215c <interrupt_968>:
    215c:	b080500a 	addlt	r5, r0, sl

00002160 <l1975>:
    2160:	91b05d67 	rorsls	r5, r7, #26

00002164 <l1976>:
    2164:	0098900c 	addseq	r9, r8, ip

00002168 <l1977>:
    2168:	e5ad6014 	str	r6, [sp, #20]!

0000216c <l1978>:
    216c:	e3a00002 	mov	r0, #2

00002170 <interrupt_817>:
    2170:	e75d5000 	ldrb	r5, [sp, -r0]

00002174 <l1980>:
    2174:	ea000002 	b	2184 <l1984>

00002178 <interrupt_261>:
    2178:	11510a2c 	cmpne	r1, ip, lsr #20

0000217c <l1982>:
    217c:	92ee6305 	rscls	r6, lr, #335544320	; 0x14000000

00002180 <l1983>:
    2180:	e0993007 	adds	r3, r9, r7

00002184 <l1984>:
    2184:	217a063e 	cmncs	sl, lr, lsr r6

00002188 <l1985>:
    2188:	e83d0002 	ldmda	sp!, {r1}

0000218c <l1986>:
    218c:	5053a86f 	subspl	sl, r3, pc, ror #16

00002190 <l1987>:
    2190:	506248eb 	rsbpl	r4, r2, fp, ror #17

00002194 <l1988>:
    2194:	c1923006 	orrsgt	r3, r2, r6

00002198 <interrupt_617>:
    2198:	e1a0300f 	mov	r3, pc

0000219c <interrupt_668>:
    219c:	816fef17 	clzhi	lr, r7

000021a0 <interrupt_900>:
    21a0:	50a45e7a 	adcpl	r5, r4, sl, ror lr

000021a4 <l1992>:
    21a4:	916fbf19 	clzls	fp, r9

000021a8 <l1993>:
    21a8:	e49d8028 	ldr	r8, [sp], #40	; 0x28

000021ac <l1994>:
    21ac:	914d91bc 	strhls	r9, [sp, #-28]	; 0xffffffe4

000021b0 <l1995>:
    21b0:	e134064b 	teq	r4, fp, asr #12

000021b4 <l1996>:
    21b4:	e3390966 	teq	r9, #1671168	; 0x198000

000021b8 <l1997>:
    21b8:	816f8f17 	clzhi	r8, r7

000021bc <l1998>:
    21bc:	e3a0e00c 	mov	lr, #12

000021c0 <l1999>:
    21c0:	e61d400e 	ldr	r4, [sp], -lr

000021c4 <interrupt_149>:
    21c4:	e9bd0523 	ldmib	sp!, {r0, r1, r5, r8, sl}

000021c8 <interrupt_866>:
    21c8:	21b0300e 	movscs	r3, lr

000021cc <l2002>:
    21cc:	e59f4000 	ldr	r4, [pc]	; 21d4 <interrupt_984>

000021d0 <l2003>:
    21d0:	ea000000 	b	21d8 <l2005>

000021d4 <interrupt_984>:
    21d4:	000fffa4 	.word	0x000fffa4

000021d8 <l2005>:
    21d8:	e144309e 	swpb	r3, lr, [r4]

000021dc <l2006>:
    21dc:	b1170252 	tstlt	r7, r2, asr r2

000021e0 <l2007>:
    21e0:	e1a00000 	nop			; (mov r0, r0)

000021e4 <l2008>:
    21e4:	023a2b3a 	eorseq	r2, sl, #59392	; 0xe800

000021e8 <l2009>:
    21e8:	e16fbf1c 	clz	fp, ip

000021ec <l2010>:
    21ec:	280dffea 	stmdacs	sp, {r1, r3, r5, r6, r7, r8, r9, sl, fp, ip, sp, lr, pc}

000021f0 <l2011>:
    21f0:	e1cd00b0 	strh	r0, [sp]

000021f4 <l2012>:
    21f4:	533c092f 	teqpl	ip, #770048	; 0xbc000

000021f8 <l2013>:
    21f8:	b2e10a0d 	rsclt	r0, r1, #53248	; 0xd000

000021fc <l2014>:
    21fc:	e3a0302f 	mov	r3, #47	; 0x2f

00002200 <l2015>:
    2200:	b74d4003 	strblt	r4, [sp, -r3]

00002204 <interrupt_546>:
    2204:	e3a0100c 	mov	r1, #12

00002208 <l2017>:
    2208:	e72d4001 	str	r4, [sp, -r1]!

0000220c <l2018>:
    220c:	e3f0af63 	mvns	sl, #396	; 0x18c

00002210 <interrupt_30>:
    2210:	e3a03028 	mov	r3, #40	; 0x28

00002214 <l2020>:
    2214:	e75d4003 	ldrb	r4, [sp, -r3]

00002218 <interrupt_131>:
    2218:	e3a0600c 	mov	r6, #12

0000221c <l2022>:
    221c:	e69d1006 	ldr	r1, [sp], r6

00002220 <l2023>:
    2220:	e3a08040 	mov	r8, #64	; 0x40

00002224 <l2024>:
    2224:	e70d1008 	str	r1, [sp, -r8]

00002228 <interrupt_90>:
    2228:	3116006b 	tstcc	r6, fp, rrx

0000222c <interrupt_68>:
    222c:	c15de0b6 	ldrhgt	lr, [sp, #-6]

00002230 <l2027>:
    2230:	e53d4008 	ldr	r4, [sp, #-8]!

00002234 <l2028>:
    2234:	e3590dff 	cmp	r9, #16320	; 0x3fc0

00002238 <l2029>:
    2238:	e1e0271b 	mvn	r2, fp, lsl r7

0000223c <interrupt_214>:
    223c:	e1a0653e 	lsr	r6, lr, r5

00002240 <l2031>:
    2240:	72b31d72 	adcsvc	r1, r3, #7296	; 0x1c80

00002244 <l2032>:
    2244:	e059000b 	subs	r0, r9, fp

00002248 <l2033>:
    2248:	d19f7008 	orrsle	r7, pc, r8

0000224c <l2034>:
    224c:	115d00fe 	ldrshne	r0, [sp, #-14]

00002250 <l2035>:
    2250:	e59f5000 	ldr	r5, [pc]	; 2258 <l2037>

00002254 <l2036>:
    2254:	ea000000 	b	225c <l2038>

00002258 <l2037>:
    2258:	000fffd4 	.word	0x000fffd4

0000225c <l2038>:
    225c:	01456093 	swpbeq	r6, r3, [r5]

00002260 <l2039>:
    2260:	75ddc00b 	ldrbvc	ip, [sp, #11]

00002264 <l2040>:
    2264:	e3a0e008 	mov	lr, #8

00002268 <l2041>:
    2268:	e7bd100e 	ldr	r1, [sp, lr]!

0000226c <l2042>:
    226c:	e3a0701e 	mov	r7, #30

00002270 <l2043>:
    2270:	e10d00b7 	strh	r0, [sp, -r7]

00002274 <l2044>:
    2274:	e59fa000 	ldr	sl, [pc]	; 227c <l2046>

00002278 <l2045>:
    2278:	ea000000 	b	2280 <l2047>

0000227c <l2046>:
    227c:	000fffc0 	.word	0x000fffc0

00002280 <l2047>:
    2280:	310a9096 	swpcc	r9, r6, [sl]

00002284 <l2048>:
    2284:	e59f4000 	ldr	r4, [pc]	; 228c <l2050>

00002288 <l2049>:
    2288:	ea000000 	b	2290 <l2051>

0000228c <l2050>:
    228c:	000fffcc 	.word	0x000fffcc

00002290 <l2051>:
    2290:	81046090 	swphi	r6, r0, [r4]

00002294 <l2052>:
    2294:	e3a0000a 	mov	r0, #10

00002298 <l2053>:
    2298:	211da0f0 	ldrshcs	sl, [sp, -r0]

0000229c <l2054>:
    229c:	c02be007 	eorgt	lr, fp, r7

000022a0 <l2055>:
    22a0:	e1770067 	cmn	r7, r7, rrx

000022a4 <l2056>:
    22a4:	a0725f26 	rsbsge	r5, r2, r6, lsr #30

000022a8 <l2057>:
    22a8:	e028b010 	eor	fp, r8, r0, lsl r0

000022ac <l2058>:
    22ac:	011e000c 	tsteq	lr, ip

000022b0 <l2059>:
    22b0:	e3a03002 	mov	r3, #2

000022b4 <interrupt_594>:
    22b4:	e10d40b3 	strh	r4, [sp, -r3]

000022b8 <l2061>:
    22b8:	e3a08201 	mov	r8, #268435456	; 0x10000000

000022bc <l2062>:
    22bc:	e59f0000 	ldr	r0, [pc]	; 22c4 <l2064>

000022c0 <l2063>:
    22c0:	ea000000 	b	22c8 <l2065>

000022c4 <l2064>:
    22c4:	000fffc0 	.word	0x000fffc0

000022c8 <l2065>:
    22c8:	e100e099 	swp	lr, r9, [r0]

000022cc <l2066>:
    22cc:	703353c2 	eorsvc	r5, r3, r2, asr #7

000022d0 <l2067>:
    22d0:	950de034 	strls	lr, [sp, #-52]	; 0x34

000022d4 <l2068>:
    22d4:	e59f2000 	ldr	r2, [pc]	; 22dc <l2070>

000022d8 <interrupt_54>:
    22d8:	ea000000 	b	22e0 <interrupt_624>

000022dc <l2070>:
    22dc:	000fffa0 	.word	0x000fffa0

000022e0 <interrupt_624>:
    22e0:	b1424094 	swpblt	r4, r4, [r2]

000022e4 <l2072>:
    22e4:	904e5061 	subls	r5, lr, r1, rrx

000022e8 <interrupt_753>:
    22e8:	b1e0b005 	mvnlt	fp, r5

000022ec <interrupt_598>:
    22ec:	e358091e 	cmp	r8, #491520	; 0x78000

000022f0 <l2075>:
    22f0:	409fb36c 	addsmi	fp, pc, ip, ror #6

000022f4 <interrupt_169>:
    22f4:	815dc3dc 	ldrsbhi	ip, [sp, #-60]	; 0xffffffc4

000022f8 <l2077>:
    22f8:	515d70fe 	ldrshpl	r7, [sp, #-14]

000022fc <interrupt_687>:
    22fc:	e3a0b029 	mov	fp, #41	; 0x29

00002300 <interrupt_206>:
    2300:	075d400b 	ldrbeq	r4, [sp, -fp]

00002304 <l2080>:
    2304:	5043e00e 	subpl	lr, r3, lr

00002308 <l2081>:
    2308:	e0325420 	eors	r5, r2, r0, lsr #8

0000230c <l2082>:
    230c:	480df6af 	stmdami	sp, {r0, r1, r2, r3, r5, r7, r9, sl, ip, sp, lr, pc}

00002310 <interrupt_361>:
    2310:	a3730403 	cmnge	r3, #50331648	; 0x3000000

00002314 <interrupt_608>:
    2314:	416f1f1e 	clzmi	r1, lr

00002318 <interrupt_534>:
    2318:	e1840ea7 	orr	r0, r4, r7, lsr #29

0000231c <l2086>:
    231c:	2069e101 	rsbcs	lr, r9, r1, lsl #2

00002320 <l2087>:
    2320:	e40db044 	str	fp, [sp], #-68	; 0x44

00002324 <interrupt_416>:
    2324:	11dd72b2 	ldrhne	r7, [sp, #34]	; 0x22

00002328 <l2089>:
    2328:	e3a0102e 	mov	r1, #46	; 0x2e

0000232c <l2090>:
    232c:	519d60f1 	ldrshpl	r6, [sp, r1]

00002330 <l2091>:
    2330:	ea000003 	b	2344 <l2096>

00002334 <l2092>:
    2334:	7254328f 	subsvc	r3, r4, #-268435448	; 0xf0000008

00002338 <l2093>:
    2338:	100a400f 	andne	r4, sl, pc

0000233c <l2094>:
    233c:	103aa6e6 	eorsne	sl, sl, r6, ror #13

00002340 <interrupt_142>:
    2340:	7112011b 	tstvc	r2, fp, lsl r1

00002344 <l2096>:
    2344:	e2779222 	rsbs	r9, r7, #536870914	; 0x20000002

00002348 <l2097>:
    2348:	e59f2000 	ldr	r2, [pc]	; 2350 <l2099>

0000234c <l2098>:
    234c:	ea000000 	b	2354 <interrupt_178>

00002350 <l2099>:
    2350:	000fffa0 	.word	0x000fffa0

00002354 <interrupt_178>:
    2354:	81420099 	swpbhi	r0, r9, [r2]

00002358 <l2101>:
    2358:	b115006a 	tstlt	r5, sl, rrx

0000235c <l2102>:
    235c:	c2a7811f 	adcgt	r8, r7, #-1073741817	; 0xc0000007

00002360 <l2103>:
    2360:	e1d11f20 	bics	r1, r1, r0, lsr #30

00002364 <l2104>:
    2364:	e16f1f13 	clz	r1, r3

00002368 <l2105>:
    2368:	71c6000a 	bicvc	r0, r6, sl

0000236c <l2106>:
    236c:	7051777b 	subsvc	r7, r1, fp, ror r7

00002370 <l2107>:
    2370:	215f0068 	cmpcs	pc, r8, rrx

00002374 <l2108>:
    2374:	104e801b 	subne	r8, lr, fp, lsl r0

00002378 <interrupt_600>:
    2378:	e1f0600b 	mvns	r6, fp

0000237c <l2110>:
    237c:	e313051d 	tst	r3, #121634816	; 0x7400000

00002380 <l2111>:
    2380:	b0fc8064 	rscslt	r8, ip, r4, rrx

00002384 <l2112>:
    2384:	499d5ffb 	ldmibmi	sp, {r0, r1, r3, r4, r5, r6, r7, r8, r9, sl, fp, ip, lr}

00002388 <l2113>:
    2388:	e0c3535e 	sbc	r5, r3, lr, asr r3

0000238c <l2114>:
    238c:	e0828065 	add	r8, r2, r5, rrx

00002390 <l2115>:
    2390:	e8ad9077 	stmia	sp!, {r0, r1, r2, r4, r5, r6, ip, pc}

00002394 <l2116>:
    2394:	da000003 	ble	23a8 <l2121>

00002398 <l2117>:
    2398:	e28010e7 	add	r1, r0, #231	; 0xe7

0000239c <l2118>:
    239c:	7113011c 	tstvc	r3, ip, lsl r1

000023a0 <l2119>:
    23a0:	d3540633 	cmple	r4, #53477376	; 0x3300000

000023a4 <l2120>:
    23a4:	ea000000 	b	23ac <l2122>

000023a8 <l2121>:
    23a8:	eafffffb 	b	239c <l2118>

000023ac <l2122>:
    23ac:	e5dd0018 	ldrb	r0, [sp, #24]

000023b0 <interrupt_970>:
    23b0:	50fb5901 	rscspl	r5, fp, r1, lsl #18

000023b4 <l2124>:
    23b4:	e82d5040 	stmda	sp!, {r6, ip, lr}

000023b8 <l2125>:
    23b8:	e93d020c 	ldmdb	sp!, {r2, r3, r9}

000023bc <l2126>:
    23bc:	e59f6000 	ldr	r6, [pc]	; 23c4 <l2128>

000023c0 <l2127>:
    23c0:	ea000000 	b	23c8 <l2129>

000023c4 <l2128>:
    23c4:	000fffd4 	.word	0x000fffd4

000023c8 <l2129>:
    23c8:	5106909e 	swppl	r9, lr, [r6]

000023cc <l2130>:
    23cc:	e93d0008 	ldmdb	sp!, {r3}

000023d0 <l2131>:
    23d0:	401646c8 	andsmi	r4, r6, r8, asr #13

000023d4 <interrupt_694>:
    23d4:	d5cdc019 	strble	ip, [sp, #25]

000023d8 <l2133>:
    23d8:	0a000002 	beq	23e8 <interrupt_172>

000023dc <l2134>:
    23dc:	e1190000 	tst	r9, r0

000023e0 <l2135>:
    23e0:	316f7f1c 	clzcc	r7, ip

000023e4 <interrupt_473>:
    23e4:	d04a5882 	suble	r5, sl, r2, lsl #17

000023e8 <interrupt_172>:
    23e8:	e2677807 	rsb	r7, r7, #458752	; 0x70000

000023ec <l2138>:
    23ec:	e2a824b9 	adc	r2, r8, #-1191182336	; 0xb9000000

000023f0 <l2139>:
    23f0:	60467002 	subvs	r7, r6, r2

000023f4 <l2140>:
    23f4:	216f2f1c 	clzcs	r2, ip

000023f8 <l2141>:
    23f8:	e59f4000 	ldr	r4, [pc]	; 2400 <interrupt_438>

000023fc <l2142>:
    23fc:	ea000000 	b	2404 <l2144>

00002400 <interrupt_438>:
    2400:	000fffa0 	.word	0x000fffa0

00002404 <l2144>:
    2404:	e1049098 	swp	r9, r8, [r4]

00002408 <l2145>:
    2408:	e3a03022 	mov	r3, #34	; 0x22

0000240c <l2146>:
    240c:	e19d60d3 	ldrsb	r6, [sp, r3]

00002410 <interrupt_596>:
    2410:	ea000003 	b	2424 <interrupt_759>

00002414 <interrupt_850>:
    2414:	e2801025 	add	r1, r0, #37	; 0x25

00002418 <interrupt_180>:
    2418:	40d4394a 	sbcsmi	r3, r4, sl, asr #18

0000241c <l2150>:
    241c:	e009400a 	and	r4, r9, sl

00002420 <interrupt_876>:
    2420:	ea000000 	b	2428 <interrupt_226>

00002424 <interrupt_759>:
    2424:	eafffffb 	b	2418 <interrupt_180>

00002428 <interrupt_226>:
    2428:	5a000003 	bpl	243c <l2158>

0000242c <interrupt_442>:
    242c:	e2801090 	add	r1, r0, #144	; 0x90

00002430 <l2155>:
    2430:	e00c7b1a 	and	r7, ip, sl, lsl fp

00002434 <l2156>:
    2434:	e1e07007 	mvn	r7, r7

00002438 <l2157>:
    2438:	ea000000 	b	2440 <l2159>

0000243c <l2158>:
    243c:	eafffffb 	b	2430 <l2155>

00002440 <l2159>:
    2440:	e59f0000 	ldr	r0, [pc]	; 2448 <l2161>

00002444 <l2160>:
    2444:	ea000000 	b	244c <l2162>

00002448 <l2161>:
    2448:	000fffe8 	.word	0x000fffe8

0000244c <l2162>:
    244c:	e100909c 	swp	r9, ip, [r0]

00002450 <l2163>:
    2450:	20dee7cc 	sbcscs	lr, lr, ip, asr #15

00002454 <l2164>:
    2454:	1090ac32 	addsne	sl, r0, r2, lsr ip

00002458 <l2165>:
    2458:	11994002 	orrsne	r4, r9, r2

0000245c <interrupt_298>:
    245c:	e48de034 	str	lr, [sp], #52	; 0x34

00002460 <l2167>:
    2460:	e0fb6e35 	rscs	r6, fp, r5, lsr lr

00002464 <l2168>:
    2464:	e3a0800b 	mov	r8, #11

00002468 <l2169>:
    2468:	e7cd6008 	strb	r6, [sp, r8]

0000246c <l2170>:
    246c:	b1120061 	tstlt	r2, r1, rrx

00002470 <l2171>:
    2470:	e15d11be 	ldrh	r1, [sp, #-30]	; 0xffffffe2

00002474 <l2172>:
    2474:	e0594003 	subs	r4, r9, r3

00002478 <l2173>:
    2478:	e2f734cf 	rscs	r3, r7, #-822083584	; 0xcf000000

0000247c <l2174>:
    247c:	5a000002 	bpl	248c <l2178>

00002480 <l2175>:
    2480:	616f3f1b 	clzvs	r3, fp

00002484 <l2176>:
    2484:	6078b001 	rsbsvs	fp, r8, r1

00002488 <l2177>:
    2488:	e2a72692 	adc	r2, r7, #153092096	; 0x9200000

0000248c <l2178>:
    248c:	01e03363 	mvneq	r3, r3, ror #6

00002490 <l2179>:
    2490:	e15d22dd 	ldrsb	r2, [sp, #-45]	; 0xffffffd3

00002494 <l2180>:
    2494:	e1140003 	tst	r4, r3

00002498 <l2181>:
    2498:	3a000005 	bcc	24b4 <l2188>

0000249c <l2182>:
    249c:	e2801099 	add	r1, r0, #153	; 0x99

000024a0 <l2183>:
    24a0:	e08a100b 	add	r1, sl, fp

000024a4 <l2184>:
    24a4:	e178000c 	cmn	r8, ip

000024a8 <l2185>:
    24a8:	031c0eed 	tsteq	ip, #3792	; 0xed0

000024ac <l2186>:
    24ac:	80e8406c 	rschi	r4, r8, ip, rrx

000024b0 <l2187>:
    24b0:	ea000000 	b	24b8 <interrupt_834>

000024b4 <l2188>:
    24b4:	eafffff9 	b	24a0 <l2183>

000024b8 <interrupt_834>:
    24b8:	e0673066 	rsb	r3, r7, r6, rrx

000024bc <l2190>:
    24bc:	e338023a 	teq	r8, #-1610612733	; 0xa0000003

000024c0 <interrupt_119>:
    24c0:	e59f3000 	ldr	r3, [pc]	; 24c8 <l2193>

000024c4 <interrupt_612>:
    24c4:	ea000000 	b	24cc <l2194>

000024c8 <l2193>:
    24c8:	000fffac 	.word	0x000fffac

000024cc <l2194>:
    24cc:	e1434095 	swpb	r4, r5, [r3]

000024d0 <l2195>:
    24d0:	0a000005 	beq	24ec <interrupt_328>

000024d4 <l2196>:
    24d4:	e28010cd 	add	r1, r0, #205	; 0xcd

000024d8 <l2197>:
    24d8:	335b0da3 	cmpcc	fp, #10432	; 0x28c0

000024dc <l2198>:
    24dc:	81e0b77c 	mvnhi	fp, ip, ror r7

000024e0 <l2199>:
    24e0:	90936ea0 	addsls	r6, r3, r0, lsr #29

000024e4 <l2200>:
    24e4:	10e32004 	rscne	r2, r3, r4

000024e8 <l2201>:
    24e8:	ea000000 	b	24f0 <l2203>

000024ec <interrupt_328>:
    24ec:	eafffff9 	b	24d8 <l2197>

000024f0 <l2203>:
    24f0:	a5cd900d 	strbge	r9, [sp, #13]

000024f4 <l2204>:
    24f4:	c2f60f46 	rscsgt	r0, r6, #280	; 0x118

000024f8 <interrupt_228>:
    24f8:	b23f201f 	eorslt	r2, pc, #31

000024fc <l2206>:
    24fc:	115d81f2 	ldrshne	r8, [sp, #-18]	; 0xffffffee

00002500 <interrupt_569>:
    2500:	019c064f 	orrseq	r0, ip, pc, asr #12

00002504 <l2208>:
    2504:	51dd70d7 	ldrsbpl	r7, [sp, #7]

00002508 <interrupt_198>:
    2508:	e3a0c002 	mov	ip, #2

0000250c <interrupt_443>:
    250c:	e11db0bc 	ldrh	fp, [sp, -ip]

00002510 <l2211>:
    2510:	e055100a 	subs	r1, r5, sl

00002514 <l2212>:
    2514:	61901513 	orrsvs	r1, r0, r3, lsl r5

00002518 <l2213>:
    2518:	e59f2000 	ldr	r2, [pc]	; 2520 <l2215>

0000251c <l2214>:
    251c:	ea000000 	b	2524 <l2216>

00002520 <l2215>:
    2520:	000fffc8 	.word	0x000fffc8

00002524 <l2216>:
    2524:	a102809c 	swpge	r8, ip, [r2]

00002528 <l2217>:
    2528:	10eb1062 	rscne	r1, fp, r2, rrx

0000252c <l2218>:
    252c:	e9ad4404 	stmib	sp!, {r2, sl, lr}

00002530 <l2219>:
    2530:	e1730233 	cmn	r3, r3, lsr r2

00002534 <l2220>:
    2534:	e134000e 	teq	r4, lr

00002538 <interrupt_241>:
    2538:	e50d903c 	str	r9, [sp, #-60]	; 0x3c

0000253c <interrupt_946>:
    253c:	e0717008 	rsbs	r7, r1, r8

00002540 <l2223>:
    2540:	e59f1000 	ldr	r1, [pc]	; 2548 <l2225>

00002544 <interrupt_247>:
    2544:	ea000000 	b	254c <l2226>

00002548 <l2225>:
    2548:	000fffe4 	.word	0x000fffe4

0000254c <l2226>:
    254c:	61019097 	swpvs	r9, r7, [r1]

00002550 <l2227>:
    2550:	52bfbec7 	adcspl	fp, pc, #3184	; 0xc70

00002554 <l2228>:
    2554:	e1350a39 	teq	r5, r9, lsr sl

00002558 <l2229>:
    2558:	7a000007 	bvc	257c <l2238>

0000255c <interrupt_82>:
    255c:	e2801063 	add	r1, r0, #99	; 0x63

00002560 <l2231>:
    2560:	d1170000 	tstle	r7, r0

00002564 <l2232>:
    2564:	817c000b 	cmnhi	ip, fp

00002568 <l2233>:
    2568:	e393c15e 	orrs	ip, r3, #-2147483625	; 0x80000017

0000256c <l2234>:
    256c:	e1720005 	cmn	r2, r5

00002570 <l2235>:
    2570:	e0476335 	sub	r6, r7, r5, lsr r3

00002574 <l2236>:
    2574:	23f09b21 	mvnscs	r9, #33792	; 0x8400

00002578 <interrupt_674>:
    2578:	ea000000 	b	2580 <l2239>

0000257c <l2238>:
    257c:	eafffff7 	b	2560 <l2231>

00002580 <l2239>:
    2580:	e3a04045 	mov	r4, #69	; 0x45

00002584 <l2240>:
    2584:	e75d3004 	ldrb	r3, [sp, -r4]

00002588 <l2241>:
    2588:	e3a05048 	mov	r5, #72	; 0x48

0000258c <interrupt_738>:
    258c:	e61d0005 	ldr	r0, [sp], -r5

00002590 <interrupt_740>:
    2590:	e0118b42 	ands	r8, r1, r2, asr #22

00002594 <l2244>:
    2594:	e1db300f 	bics	r3, fp, pc

00002598 <l2245>:
    2598:	702b9000 	eorvc	r9, fp, r0

0000259c <l2246>:
    259c:	e8bd0240 	pop	{r6, r9}

000025a0 <l2247>:
    25a0:	50c21000 	sbcpl	r1, r2, r0

000025a4 <l2248>:
    25a4:	e59f9000 	ldr	r9, [pc]	; 25ac <l2250>

000025a8 <l2249>:
    25a8:	ea000000 	b	25b0 <l2251>

000025ac <l2250>:
    25ac:	000fffac 	.word	0x000fffac

000025b0 <l2251>:
    25b0:	e109c094 	swp	ip, r4, [r9]

000025b4 <interrupt_421>:
    25b4:	e0eb9065 	rsc	r9, fp, r5, rrx

000025b8 <interrupt_542>:
    25b8:	713e0a33 	teqvc	lr, r3, lsr sl

000025bc <l2254>:
    25bc:	e03ee064 	eors	lr, lr, r4, rrx

000025c0 <l2255>:
    25c0:	e1a00000 	nop			; (mov r0, r0)

000025c4 <l2256>:
    25c4:	e59f5000 	ldr	r5, [pc]	; 25cc <interrupt_51>

000025c8 <l2257>:
    25c8:	ea000000 	b	25d0 <l2259>

000025cc <interrupt_51>:
    25cc:	000fffe0 	.word	0x000fffe0

000025d0 <l2259>:
    25d0:	e1052092 	swp	r2, r2, [r5]

000025d4 <l2260>:
    25d4:	e5cd001e 	strb	r0, [sp, #30]

000025d8 <interrupt_867>:
    25d8:	53e0182b 	mvnpl	r1, #2818048	; 0x2b0000

000025dc <l2262>:
    25dc:	e3a01014 	mov	r1, #20

000025e0 <interrupt_707>:
    25e0:	e68d7001 	str	r7, [sp], r1

000025e4 <l2264>:
    25e4:	31540b69 	cmpcc	r4, r9, ror #22

000025e8 <l2265>:
    25e8:	e3a01000 	mov	r1, #0

000025ec <l2266>:
    25ec:	879d1001 	ldrhi	r1, [sp, r1]

000025f0 <l2267>:
    25f0:	e1b08067 	rrxs	r8, r7

000025f4 <interrupt_432>:
    25f4:	ea000007 	b	2618 <l2277>

000025f8 <l2269>:
    25f8:	73f080ff 	mvnsvc	r8, #255	; 0xff

000025fc <l2270>:
    25fc:	e0193006 	ands	r3, r9, r6

00002600 <l2271>:
    2600:	20d0a3a1 	sbcscs	sl, r0, r1, lsr #7

00002604 <l2272>:
    2604:	01cf7001 	biceq	r7, pc, r1

00002608 <l2273>:
    2608:	a3b02007 	movsge	r2, #7

0000260c <l2274>:
    260c:	e1110350 	tst	r1, r0, asr r3

00002610 <l2275>:
    2610:	8075673a 	rsbshi	r6, r5, sl, lsr r7

00002614 <l2276>:
    2614:	e00a3cca 	and	r3, sl, sl, asr #25

00002618 <l2277>:
    2618:	b31a04bb 	tstlt	sl, #-1157627904	; 0xbb000000

0000261c <l2278>:
    261c:	e059e065 	subs	lr, r9, r5, rrx

00002620 <l2279>:
    2620:	30c27001 	sbccc	r7, r2, r1

00002624 <l2280>:
    2624:	e59f6000 	ldr	r6, [pc]	; 262c <l2282>

00002628 <l2281>:
    2628:	ea000000 	b	2630 <l2283>

0000262c <l2282>:
    262c:	000fffa8 	.word	0x000fffa8

00002630 <l2283>:
    2630:	5146b095 	swpbpl	fp, r5, [r6]

00002634 <interrupt_471>:
    2634:	e55de00b 	ldrb	lr, [sp, #-11]

00002638 <l2285>:
    2638:	e83d1046 	ldmda	sp!, {r1, r2, r6, ip}

0000263c <l2286>:
    263c:	e3a05000 	mov	r5, #0

00002640 <l2287>:
    2640:	77cd3005 	strbvc	r3, [sp, r5]

00002644 <l2288>:
    2644:	02fa9aa5 	rscseq	r9, sl, #675840	; 0xa5000

00002648 <interrupt_847>:
    2648:	213a0557 	teqcs	sl, r7, asr r5

0000264c <l2290>:
    264c:	51a08141 	asrpl	r8, r1, #2

00002650 <l2291>:
    2650:	e3a0601e 	mov	r6, #30

00002654 <l2292>:
    2654:	b19d60b6 	ldrhlt	r6, [sp, r6]

00002658 <l2293>:
    2658:	83a002d2 	movhi	r0, #536870925	; 0x2000000d

0000265c <l2294>:
    265c:	51cd22be 	strhpl	r2, [sp, #46]	; 0x2e

00002660 <interrupt_551>:
    2660:	e0b8906c 	adcs	r9, r8, ip, rrx

00002664 <interrupt_778>:
    2664:	e92d0008 	stmfd	sp!, {r3}

00002668 <l2297>:
    2668:	80646c75 	rsbhi	r6, r4, r5, ror ip

0000266c <l2298>:
    266c:	80176005 	andshi	r6, r7, r5

00002670 <l2299>:
    2670:	e01f8069 	ands	r8, pc, r9, rrx

00002674 <l2300>:
    2674:	e04b0d2a 	sub	r0, fp, sl, lsr #26

00002678 <l2301>:
    2678:	20bc106f 	adcscs	r1, ip, pc, rrx

0000267c <l2302>:
    267c:	c1dd81f2 	ldrshgt	r8, [sp, #18]

00002680 <interrupt_324>:
    2680:	e39218a9 	orrs	r1, r2, #11075584	; 0xa90000

00002684 <interrupt_154>:
    2684:	8203051e 	andhi	r0, r3, #125829120	; 0x7800000

00002688 <l2305>:
    2688:	e15e02cc 	cmp	lr, ip, asr #5

0000268c <l2306>:
    268c:	5a000008 	bpl	26b4 <l2316>

00002690 <interrupt_207>:
    2690:	81a05000 	movhi	r5, r0

00002694 <interrupt_332>:
    2694:	60dea668 	sbcsvs	sl, lr, r8, ror #12

00002698 <interrupt_302>:
    2698:	e35c0322 	cmp	ip, #-2013265920	; 0x88000000

0000269c <l2310>:
    269c:	e1dae3e8 	bics	lr, sl, r8, ror #7

000026a0 <l2311>:
    26a0:	216f5f16 	clzcs	r5, r6

000026a4 <l2312>:
    26a4:	e09e1000 	adds	r1, lr, r0

000026a8 <l2313>:
    26a8:	e25ac2c3 	subs	ip, sl, #805306380	; 0x3000000c

000026ac <l2314>:
    26ac:	e0932005 	adds	r2, r3, r5

000026b0 <l2315>:
    26b0:	e22b91db 	eor	r9, fp, #-1073741770	; 0xc0000036

000026b4 <l2316>:
    26b4:	91560008 	cmpls	r6, r8

000026b8 <interrupt_969>:
    26b8:	da000002 	ble	26c8 <l2321>

000026bc <l2318>:
    26bc:	e28010d4 	add	r1, r0, #212	; 0xd4

000026c0 <l2319>:
    26c0:	423e250e 	eorsmi	r2, lr, #58720256	; 0x3800000

000026c4 <l2320>:
    26c4:	ea000000 	b	26cc <l2322>

000026c8 <l2321>:
    26c8:	eafffffc 	b	26c0 <l2319>

000026cc <l2322>:
    26cc:	e16f6f17 	clz	r6, r7

000026d0 <l2323>:
    26d0:	e0515360 	subs	r5, r1, r0, ror #6

000026d4 <l2324>:
    26d4:	e0384e32 	eors	r4, r8, r2, lsr lr

000026d8 <l2325>:
    26d8:	01380164 	teqeq	r8, r4, ror #2

000026dc <l2326>:
    26dc:	2a000005 	bcs	26f8 <interrupt_593>

000026e0 <l2327>:
    26e0:	e2801086 	add	r1, r0, #134	; 0x86

000026e4 <l2328>:
    26e4:	e33f0008 	teq	pc, #8

000026e8 <l2329>:
    26e8:	e21f2cc3 	ands	r2, pc, #49920	; 0xc300

000026ec <l2330>:
    26ec:	20cf1ca6 	sbccs	r1, pc, r6, lsr #25

000026f0 <l2331>:
    26f0:	603fa865 	eorsvs	sl, pc, r5, ror #16

000026f4 <l2332>:
    26f4:	ea000000 	b	26fc <l2334>

000026f8 <interrupt_593>:
    26f8:	eafffff9 	b	26e4 <l2328>

000026fc <l2334>:
    26fc:	e3a08038 	mov	r8, #56	; 0x38

00002700 <l2335>:
    2700:	e69d8008 	ldr	r8, [sp], r8

00002704 <l2336>:
    2704:	c150000b 	cmpgt	r0, fp

00002708 <l2337>:
    2708:	e59f2000 	ldr	r2, [pc]	; 2710 <l2339>

0000270c <l2338>:
    270c:	ea000000 	b	2714 <l2340>

00002710 <l2339>:
    2710:	000fffd8 	.word	0x000fffd8

00002714 <l2340>:
    2714:	6102709e 	swpvs	r7, lr, [r2]

00002718 <l2341>:
    2718:	e0361b51 	eors	r1, r6, r1, asr fp

0000271c <l2342>:
    271c:	d15d00fa 	ldrshle	r0, [sp, #-10]

00002720 <l2343>:
    2720:	d2617000 	rsble	r7, r1, #0

00002724 <l2344>:
    2724:	c2ee176a 	rscgt	r1, lr, #27787264	; 0x1a80000

00002728 <l2345>:
    2728:	01e06008 	mvneq	r6, r8

0000272c <interrupt_992>:
    272c:	081d55fd 	ldmdaeq	sp, {r0, r2, r3, r4, r5, r6, r7, r8, sl, ip, lr}

00002730 <l2347>:
    2730:	115d80f4 	ldrshne	r8, [sp, #-4]

00002734 <l2348>:
    2734:	e3a09005 	mov	r9, #5

00002738 <l2349>:
    2738:	674d5009 	strbvs	r5, [sp, -r9]

0000273c <interrupt_544>:
    273c:	e077c005 	rsbs	ip, r7, r5

00002740 <l2351>:
    2740:	e59fc000 	ldr	ip, [pc]	; 2748 <l2353>

00002744 <l2352>:
    2744:	ea000000 	b	274c <l2354>

00002748 <l2353>:
    2748:	000fffd4 	.word	0x000fffd4

0000274c <l2354>:
    274c:	e10c5091 	swp	r5, r1, [ip]

00002750 <l2355>:
    2750:	0058cb11 	subseq	ip, r8, r1, lsl fp

00002754 <l2356>:
    2754:	e0c60007 	sbc	r0, r6, r7

00002758 <interrupt_638>:
    2758:	e16f7f18 	clz	r7, r8

0000275c <l2358>:
    275c:	e9ad0200 	stmib	sp!, {r9}

00002760 <l2359>:
    2760:	b15d44f0 	ldrshlt	r4, [sp, #-64]	; 0xffffffc0

00002764 <l2360>:
    2764:	e0e8306e 	rsc	r3, r8, lr, rrx

00002768 <l2361>:
    2768:	e59fa000 	ldr	sl, [pc]	; 2770 <l2363>

0000276c <interrupt_185>:
    276c:	ea000000 	b	2774 <l2364>

00002770 <l2363>:
    2770:	000fffd4 	.word	0x000fffd4

00002774 <l2364>:
    2774:	e14a1093 	swpb	r1, r3, [sl]

00002778 <l2365>:
    2778:	e0e7300b 	rsc	r3, r7, fp

0000277c <l2366>:
    277c:	e0665009 	rsb	r5, r6, r9

00002780 <l2367>:
    2780:	e3f0a5d6 	mvns	sl, #897581056	; 0x35800000

00002784 <l2368>:
    2784:	22190028 	andscs	r0, r9, #40	; 0x28

00002788 <l2369>:
    2788:	60ee7174 	rscvs	r7, lr, r4, ror r1

0000278c <l2370>:
    278c:	e59fb000 	ldr	fp, [pc]	; 2794 <l2372>

00002790 <interrupt_875>:
    2790:	ea000000 	b	2798 <l2373>

00002794 <l2372>:
    2794:	000fffd0 	.word	0x000fffd0

00002798 <l2373>:
    2798:	014ba091 	swpbeq	sl, r1, [fp]

0000279c <interrupt_523>:
    279c:	025c5605 	subseq	r5, ip, #5242880	; 0x500000

000027a0 <l2375>:
    27a0:	b13c0005 	teqlt	ip, r5

000027a4 <l2376>:
    27a4:	e59f2000 	ldr	r2, [pc]	; 27ac <interrupt_589>

000027a8 <l2377>:
    27a8:	ea000000 	b	27b0 <l2379>

000027ac <interrupt_589>:
    27ac:	000fffe4 	.word	0x000fffe4

000027b0 <l2379>:
    27b0:	a1023093 	swpge	r3, r3, [r2]

000027b4 <l2380>:
    27b4:	e1ca9c50 	bic	r9, sl, r0, asr ip

000027b8 <l2381>:
    27b8:	83e080e2 	mvnhi	r8, #226	; 0xe2

000027bc <l2382>:
    27bc:	a080906e 	addge	r9, r0, lr, rrx

000027c0 <l2383>:
    27c0:	400cc068 	andmi	ip, ip, r8, rrx

000027c4 <l2384>:
    27c4:	d54d1038 	strble	r1, [sp, #-56]	; 0x38

000027c8 <interrupt_862>:
    27c8:	52cf462f 	sbcpl	r4, pc, #49283072	; 0x2f00000

000027cc <l2386>:
    27cc:	e1120003 	tst	r2, r3

000027d0 <l2387>:
    27d0:	d1330063 	teqle	r3, r3, rrx

000027d4 <l2388>:
    27d4:	e3520b0a 	cmp	r2, #10240	; 0x2800

000027d8 <l2389>:
    27d8:	41540239 	cmpmi	r4, r9, lsr r2

000027dc <interrupt_181>:
    27dc:	e3a0c00c 	mov	ip, #12

000027e0 <interrupt_410>:
    27e0:	e11d30bc 	ldrh	r3, [sp, -ip]

000027e4 <l2392>:
    27e4:	52f83cf7 	rscspl	r3, r8, #63232	; 0xf700

000027e8 <l2393>:
    27e8:	e59f0000 	ldr	r0, [pc]	; 27f0 <l2395>

000027ec <l2394>:
    27ec:	ea000000 	b	27f4 <l2396>

000027f0 <l2395>:
    27f0:	000fffd8 	.word	0x000fffd8

000027f4 <l2396>:
    27f4:	9140209e 	swpbls	r2, lr, [r0]

000027f8 <interrupt_950>:
    27f8:	e3a0601c 	mov	r6, #28

000027fc <interrupt_49>:
    27fc:	e11d40b6 	ldrh	r4, [sp, -r6]

00002800 <interrupt_906>:
    2800:	e1c0a068 	bic	sl, r0, r8, rrx

00002804 <interrupt_56>:
    2804:	e41d0004 	ldr	r0, [sp], #-4

00002808 <l2401>:
    2808:	65dde003 	ldrbvs	lr, [sp, #3]

0000280c <interrupt_393>:
    280c:	d059000a 	subsle	r0, r9, sl

00002810 <interrupt_553>:
    2810:	e0e8b004 	rsc	fp, r8, r4

00002814 <l2404>:
    2814:	015dc1d3 	ldrsbeq	ip, [sp, #-19]	; 0xffffffed

00002818 <interrupt_653>:
    2818:	416f8f19 	clzmi	r8, r9

0000281c <l2406>:
    281c:	e82d8004 	stmda	sp!, {r2, pc}

00002820 <l2407>:
    2820:	e3a05013 	mov	r5, #19

00002824 <l2408>:
    2824:	d7cd2005 	strble	r2, [sp, r5]

00002828 <interrupt_802>:
    2828:	015d90d8 	ldrsbeq	r9, [sp, #-8]

0000282c <l2410>:
    282c:	40b75339 	adcsmi	r5, r7, r9, lsr r3

00002830 <l2411>:
    2830:	e216b06c 	ands	fp, r6, #108	; 0x6c

00002834 <l2412>:
    2834:	914d31b6 	strhls	r3, [sp, #-22]	; 0xffffffea

00002838 <l2413>:
    2838:	e1510069 	cmp	r1, r9, rrx

0000283c <l2414>:
    283c:	31b07068 	rrxscc	r7, r8

00002840 <l2415>:
    2840:	25dd7008 	ldrbcs	r7, [sp, #8]

00002844 <l2416>:
    2844:	e3a04031 	mov	r4, #49	; 0x31

00002848 <l2417>:
    2848:	c75db004 	ldrbgt	fp, [sp, -r4]

0000284c <interrupt_307>:
    284c:	816f1f12 	clzhi	r1, r2

00002850 <l2419>:
    2850:	0180b000 	orreq	fp, r0, r0

00002854 <interrupt_203>:
    2854:	715a0e8a 	cmpvc	sl, sl, lsl #29

00002858 <l2421>:
    2858:	e40d5018 	str	r5, [sp], #-24

0000285c <l2422>:
    285c:	c16f3f14 	clzgt	r3, r4

00002860 <l2423>:
    2860:	8affffff 	bhi	2864 <interrupt_764>

00002864 <interrupt_764>:
    2864:	601a3008 	andsvs	r3, sl, r8

00002868 <l2425>:
    2868:	e9bd4889 	ldmib	sp!, {r0, r3, r7, fp, lr}

0000286c <l2426>:
    286c:	00751954 	rsbseq	r1, r5, r4, asr r9

00002870 <l2427>:
    2870:	e8bd4114 	pop	{r2, r4, r8, lr}

00002874 <interrupt_601>:
    2874:	e2926309 	adds	r6, r2, #603979776	; 0x24000000

00002878 <l2429>:
    2878:	40f4ab52 	rscsmi	sl, r4, r2, asr fp

0000287c <l2430>:
    287c:	e17f000a 	cmn	pc, sl

00002880 <l2431>:
    2880:	916f7f10 	clzls	r7, r0

00002884 <interrupt_430>:
    2884:	e1360b5c 	teq	r6, ip, asr fp

00002888 <interrupt_496>:
    2888:	00450f85 	subeq	r0, r5, r5, lsl #31

0000288c <l2434>:
    288c:	55dd3007 	ldrbpl	r3, [sp, #7]

00002890 <l2435>:
    2890:	e0262bcf 	eor	r2, r6, pc, asr #23

00002894 <l2436>:
    2894:	e2b05c0d 	adcs	r5, r0, #3328	; 0xd00

00002898 <l2437>:
    2898:	c018b009 	andsgt	fp, r8, r9

0000289c <l2438>:
    289c:	e59f9000 	ldr	r9, [pc]	; 28a4 <l2440>

000028a0 <l2439>:
    28a0:	ea000000 	b	28a8 <l2441>

000028a4 <l2440>:
    28a4:	000fffb8 	.word	0x000fffb8

000028a8 <l2441>:
    28a8:	e149a09e 	swpb	sl, lr, [r9]

000028ac <l2442>:
    28ac:	416fcf19 	clzmi	ip, r9

000028b0 <l2443>:
    28b0:	e1842000 	orr	r2, r4, r0

000028b4 <l2444>:
    28b4:	d0e56069 	rscle	r6, r5, r9, rrx

000028b8 <l2445>:
    28b8:	e077800a 	rsbs	r8, r7, sl

000028bc <l2446>:
    28bc:	704b200e 	subvc	r2, fp, lr

000028c0 <l2447>:
    28c0:	405c600c 	subsmi	r6, ip, ip

000028c4 <l2448>:
    28c4:	d15d00b4 	ldrhle	r0, [sp, #-4]

000028c8 <l2449>:
    28c8:	1a000003 	bne	28dc <l2454>

000028cc <l2450>:
    28cc:	e28010bc 	add	r1, r0, #188	; 0xbc

000028d0 <l2451>:
    28d0:	c1f05003 	mvnsgt	r5, r3

000028d4 <interrupt_200>:
    28d4:	70479b4c 	subvc	r9, r7, ip, asr #22

000028d8 <interrupt_374>:
    28d8:	ea000000 	b	28e0 <l2455>

000028dc <l2454>:
    28dc:	eafffffb 	b	28d0 <l2451>

000028e0 <l2455>:
    28e0:	e1100051 	tst	r0, r1, asr r0

000028e4 <l2456>:
    28e4:	524eba3f 	subpl	fp, lr, #258048	; 0x3f000

000028e8 <l2457>:
    28e8:	e3a0b038 	mov	fp, #56	; 0x38

000028ec <l2458>:
    28ec:	e60dc00b 	str	ip, [sp], -fp

000028f0 <l2459>:
    28f0:	91700066 	cmnls	r0, r6, rrx

000028f4 <l2460>:
    28f4:	31790000 	cmncc	r9, r0

000028f8 <l2461>:
    28f8:	416fbf11 	clzmi	fp, r1

000028fc <l2462>:
    28fc:	31c92a0f 	biccc	r2, r9, pc, lsl #20

00002900 <l2463>:
    2900:	e5dd802d 	ldrb	r8, [sp, #45]	; 0x2d

00002904 <interrupt_864>:
    2904:	e0fbb00c 	rscs	fp, fp, ip

00002908 <l2465>:
    2908:	b80d8000 	stmdalt	sp, {pc}

0000290c <l2466>:
    290c:	e3a0602c 	mov	r6, #44	; 0x2c

00002910 <l2467>:
    2910:	a19de0b6 	ldrhge	lr, [sp, r6]

00002914 <l2468>:
    2914:	e59f4000 	ldr	r4, [pc]	; 291c <l2470>

00002918 <l2469>:
    2918:	ea000000 	b	2920 <l2471>

0000291c <l2470>:
    291c:	000fffe0 	.word	0x000fffe0

00002920 <l2471>:
    2920:	d104b092 	swple	fp, r2, [r4]

00002924 <l2472>:
    2924:	e3a00008 	mov	r0, #8

00002928 <l2473>:
    2928:	e70df000 	str	pc, [sp, -r0]

0000292c <l2474>:
    292c:	71dd13d3 	ldrsbvc	r1, [sp, #51]	; 0x33

00002930 <l2475>:
    2930:	a11f0440 	tstge	pc, r0, asr #8

00002934 <l2476>:
    2934:	a199a23e 	orrsge	sl, r9, lr, lsr r2

00002938 <l2477>:
    2938:	e290b513 	adds	fp, r0, #79691776	; 0x4c00000

0000293c <l2478>:
    293c:	e3a0601e 	mov	r6, #30

00002940 <interrupt_98>:
    2940:	c7cde006 	strbgt	lr, [sp, r6]

00002944 <l2480>:
    2944:	92e85952 	rscls	r5, r8, #1343488	; 0x148000

00002948 <l2481>:
    2948:	e1a00000 	nop			; (mov r0, r0)

0000294c <l2482>:
    294c:	e3a0c03a 	mov	ip, #58	; 0x3a

00002950 <interrupt_955>:
    2950:	518d30bc 	strhpl	r3, [sp, ip]

00002954 <l2484>:
    2954:	82c66a0e 	sbchi	r6, r6, #57344	; 0xe000

00002958 <l2485>:
    2958:	e3a0600e 	mov	r6, #14

0000295c <interrupt_164>:
    295c:	e19d50b6 	ldrh	r5, [sp, r6]

00002960 <l2487>:
    2960:	90d38735 	sbcsls	r8, r3, r5, lsr r7

00002964 <l2488>:
    2964:	e01e6006 	ands	r6, lr, r6

00002968 <l2489>:
    2968:	a04e4511 	subge	r4, lr, r1, lsl r5

0000296c <l2490>:
    296c:	e5ad3014 	str	r3, [sp, #20]!

00002970 <l2491>:
    2970:	e1d37972 	bics	r7, r3, r2, ror r9

00002974 <l2492>:
    2974:	e3a0a024 	mov	sl, #36	; 0x24

00002978 <l2493>:
    2978:	178d800a 	strne	r8, [sp, sl]

0000297c <l2494>:
    297c:	e59fa000 	ldr	sl, [pc]	; 2984 <l2496>

00002980 <l2495>:
    2980:	ea000000 	b	2988 <l2497>

00002984 <l2496>:
    2984:	000fffd0 	.word	0x000fffd0

00002988 <l2497>:
    2988:	e10a609e 	swp	r6, lr, [sl]

0000298c <l2498>:
    298c:	e54d5001 	strb	r5, [sp, #-1]

00002990 <interrupt_874>:
    2990:	d0615174 	rsble	r5, r1, r4, ror r1

00002994 <l2500>:
    2994:	5a000005 	bpl	29b0 <l2507>

00002998 <l2501>:
    2998:	916f7f10 	clzls	r7, r0

0000299c <l2502>:
    299c:	e1e00005 	mvn	r0, r5

000029a0 <l2503>:
    29a0:	509b518e 	addspl	r5, fp, lr, lsl #3

000029a4 <interrupt_857>:
    29a4:	c159078f 	cmpgt	r9, pc, lsl #15

000029a8 <l2505>:
    29a8:	d0440009 	suble	r0, r4, r9

000029ac <l2506>:
    29ac:	e092875a 	adds	r8, r2, sl, asr r7

000029b0 <l2507>:
    29b0:	70f6be1e 	rscsvc	fp, r6, lr, lsl lr

000029b4 <l2508>:
    29b4:	e3940a15 	orrs	r0, r4, #86016	; 0x15000

000029b8 <interrupt_183>:
    29b8:	e82d5840 	stmda	sp!, {r6, fp, ip, lr}

000029bc <l2510>:
    29bc:	e3963339 	orrs	r3, r6, #-469762048	; 0xe4000000

000029c0 <l2511>:
    29c0:	e59fe000 	ldr	lr, [pc]	; 29c8 <l2513>

000029c4 <l2512>:
    29c4:	ea000000 	b	29cc <interrupt_105>

000029c8 <l2513>:
    29c8:	000fffe4 	.word	0x000fffe4

000029cc <interrupt_105>:
    29cc:	214ec092 	swpbcs	ip, r2, [lr]

000029d0 <interrupt_236>:
    29d0:	71f07005 	mvnsvc	r7, r5

000029d4 <l2516>:
    29d4:	80951063 	addshi	r1, r5, r3, rrx

000029d8 <l2517>:
    29d8:	015db0b4 	ldrheq	fp, [sp, #-4]

000029dc <l2518>:
    29dc:	da000001 	ble	29e8 <l2521>

000029e0 <interrupt_167>:
    29e0:	e1130433 	tst	r3, r3, lsr r4

000029e4 <l2520>:
    29e4:	31d5ca2c 	bicscc	ip, r5, ip, lsr #20

000029e8 <l2521>:
    29e8:	c33e0e3e 	teqgt	lr, #992	; 0x3e0

000029ec <interrupt_792>:
    29ec:	a1700001 	cmnge	r0, r1

000029f0 <l2523>:
    29f0:	75cd4029 	strbvc	r4, [sp, #41]	; 0x29

000029f4 <l2524>:
    29f4:	50ec6069 	rscpl	r6, ip, r9, rrx

000029f8 <l2525>:
    29f8:	e59f9000 	ldr	r9, [pc]	; 2a00 <l2527>

000029fc <l2526>:
    29fc:	ea000000 	b	2a04 <l2528>

00002a00 <l2527>:
    2a00:	000fffa4 	.word	0x000fffa4

00002a04 <l2528>:
    2a04:	21496095 	swpbcs	r6, r5, [r9]

00002a08 <l2529>:
    2a08:	e3a0100c 	mov	r1, #12

00002a0c <l2530>:
    2a0c:	b71d7001 	ldrlt	r7, [sp, -r1]

00002a10 <l2531>:
    2a10:	e1780610 	cmn	r8, r0, lsl r6

00002a14 <l2532>:
    2a14:	c044205e 	subgt	r2, r4, lr, asr r0

00002a18 <interrupt_84>:
    2a18:	e3a0e017 	mov	lr, #23

00002a1c <l2534>:
    2a1c:	17dd100e 	ldrbne	r1, [sp, lr]

00002a20 <l2535>:
    2a20:	908c300e 	addls	r3, ip, lr

00002a24 <l2536>:
    2a24:	e59fe000 	ldr	lr, [pc]	; 2a2c <interrupt_599>

00002a28 <l2537>:
    2a28:	ea000000 	b	2a30 <l2539>

00002a2c <interrupt_599>:
    2a2c:	000fffd0 	.word	0x000fffd0

00002a30 <l2539>:
    2a30:	b10e109c 	swplt	r1, ip, [lr]

00002a34 <interrupt_39>:
    2a34:	3a000004 	bcc	2a4c <l2546>

00002a38 <l2541>:
    2a38:	e28010ea 	add	r1, r0, #234	; 0xea

00002a3c <l2542>:
    2a3c:	e1720c5b 	cmn	r2, fp, asr ip

00002a40 <l2543>:
    2a40:	b1e0900f 	mvnlt	r9, pc

00002a44 <l2544>:
    2a44:	137508dd 	cmnne	r5, #14483456	; 0xdd0000

00002a48 <l2545>:
    2a48:	ea000000 	b	2a50 <l2547>

00002a4c <l2546>:
    2a4c:	eafffffa 	b	2a3c <l2542>

00002a50 <l2547>:
    2a50:	e3a02004 	mov	r2, #4

00002a54 <l2548>:
    2a54:	e10d40b2 	strh	r4, [sp, -r2]

00002a58 <l2549>:
    2a58:	e3a0700c 	mov	r7, #12

00002a5c <l2550>:
    2a5c:	e70d8007 	str	r8, [sp, -r7]

00002a60 <l2551>:
    2a60:	c114086f 	tstgt	r4, pc, ror #16

00002a64 <l2552>:
    2a64:	e3a01036 	mov	r1, #54	; 0x36

00002a68 <l2553>:
    2a68:	e18d10b1 	strh	r1, [sp, r1]

00002a6c <l2554>:
    2a6c:	d08a8b51 	addle	r8, sl, r1, asr fp

00002a70 <l2555>:
    2a70:	ea000006 	b	2a90 <l2563>

00002a74 <l2556>:
    2a74:	61a05006 	movvs	r5, r6

00002a78 <interrupt_414>:
    2a78:	406bc005 	rsbmi	ip, fp, r5

00002a7c <interrupt_460>:
    2a7c:	935e02eb 	cmpls	lr, #-1342177266	; 0xb000000e

00002a80 <l2559>:
    2a80:	e1e0e919 	mvn	lr, r9, lsl r9

00002a84 <l2560>:
    2a84:	01e000e7 	mvneq	r0, r7, ror #1

00002a88 <l2561>:
    2a88:	e0293476 	eor	r3, r9, r6, ror r4

00002a8c <l2562>:
    2a8c:	e1370988 	teq	r7, r8, lsl #19

00002a90 <l2563>:
    2a90:	60fc7000 	rscsvs	r7, ip, r0

00002a94 <l2564>:
    2a94:	e3a0b018 	mov	fp, #24

00002a98 <l2565>:
    2a98:	e7dd700b 	ldrb	r7, [sp, fp]

00002a9c <l2566>:
    2a9c:	e3a03022 	mov	r3, #34	; 0x22

00002aa0 <l2567>:
    2aa0:	719d80d3 	ldrsbvc	r8, [sp, r3]

00002aa4 <l2568>:
    2aa4:	e9ad4000 	stmib	sp!, {lr}

00002aa8 <l2569>:
    2aa8:	e3a06028 	mov	r6, #40	; 0x28

00002aac <l2570>:
    2aac:	e69de006 	ldr	lr, [sp], r6

00002ab0 <l2571>:
    2ab0:	825ac6db 	subshi	ip, sl, #229638144	; 0xdb00000

00002ab4 <l2572>:
    2ab4:	e0811009 	add	r1, r1, r9

00002ab8 <l2573>:
    2ab8:	555dc001 	ldrbpl	ip, [sp, #-1]

00002abc <l2574>:
    2abc:	e59f2000 	ldr	r2, [pc]	; 2ac4 <l2576>

00002ac0 <interrupt_590>:
    2ac0:	ea000000 	b	2ac8 <interrupt_652>

00002ac4 <l2576>:
    2ac4:	000fffc8 	.word	0x000fffc8

00002ac8 <interrupt_652>:
    2ac8:	41029090 	swpmi	r9, r0, [r2]

00002acc <l2578>:
    2acc:	e59f5000 	ldr	r5, [pc]	; 2ad4 <l2580>

00002ad0 <l2579>:
    2ad0:	ea000000 	b	2ad8 <l2581>

00002ad4 <l2580>:
    2ad4:	000fffc8 	.word	0x000fffc8

00002ad8 <l2581>:
    2ad8:	0105a099 	swpeq	sl, r9, [r5]

00002adc <l2582>:
    2adc:	e3a05022 	mov	r5, #34	; 0x22

00002ae0 <l2583>:
    2ae0:	211d20b5 	ldrhcs	r2, [sp, -r5]

00002ae4 <l2584>:
    2ae4:	317c0001 	cmncc	ip, r1

00002ae8 <l2585>:
    2ae8:	e3f0bad2 	mvns	fp, #860160	; 0xd2000

00002aec <l2586>:
    2aec:	e045400b 	sub	r4, r5, fp

00002af0 <l2587>:
    2af0:	e0e3e93c 	rsc	lr, r3, ip, lsr r9

00002af4 <l2588>:
    2af4:	71590b3b 	cmpvc	r9, fp, lsr fp

00002af8 <l2589>:
    2af8:	73310d3d 	teqvc	r1, #3904	; 0xf40

00002afc <l2590>:
    2afc:	925cb011 	subsls	fp, ip, #17

00002b00 <l2591>:
    2b00:	b1e0400e 	mvnlt	r4, lr

00002b04 <interrupt_525>:
    2b04:	e246c32b 	sub	ip, r6, #-1409286144	; 0xac000000

00002b08 <l2593>:
    2b08:	23310711 	teqcs	r1, #4456448	; 0x440000

00002b0c <l2594>:
    2b0c:	e3a06027 	mov	r6, #39	; 0x27

00002b10 <l2595>:
    2b10:	e11de0d6 	ldrsb	lr, [sp, -r6]

00002b14 <l2596>:
    2b14:	d16f4f15 	clzle	r4, r5

00002b18 <l2597>:
    2b18:	315709ca 	cmpcc	r7, sl, asr #19

00002b1c <interrupt_567>:
    2b1c:	4061406c 	rsbmi	r4, r1, ip, rrx

00002b20 <l2599>:
    2b20:	e2cccc3b 	sbc	ip, ip, #15104	; 0x3b00

00002b24 <l2600>:
    2b24:	e0dbe05c 	sbcs	lr, fp, ip, asr r0

00002b28 <l2601>:
    2b28:	a0000007 	andge	r0, r0, r7

00002b2c <l2602>:
    2b2c:	e0513902 	subs	r3, r1, r2, lsl #18

00002b30 <l2603>:
    2b30:	e0568763 	subs	r8, r6, r3, ror #14

00002b34 <l2604>:
    2b34:	e82d2000 	stmda	sp!, {sp}

00002b38 <l2605>:
    2b38:	ea000002 	b	2b48 <interrupt_431>

00002b3c <l2606>:
    2b3c:	e28010f4 	add	r1, r0, #244	; 0xf4

00002b40 <interrupt_943>:
    2b40:	6078600c 	rsbsvs	r6, r8, ip

00002b44 <l2608>:
    2b44:	ea000000 	b	2b4c <l2610>

00002b48 <interrupt_431>:
    2b48:	eafffffc 	b	2b40 <interrupt_943>

00002b4c <l2610>:
    2b4c:	a0712008 	rsbsge	r2, r1, r8

00002b50 <l2611>:
    2b50:	e07b4c14 	rsbs	r4, fp, r4, lsl ip

00002b54 <l2612>:
    2b54:	e54d100e 	strb	r1, [sp, #-14]

00002b58 <l2613>:
    2b58:	c0e58001 	rscgt	r8, r5, r1

00002b5c <l2614>:
    2b5c:	e3a0a004 	mov	sl, #4

00002b60 <l2615>:
    2b60:	e7bd100a 	ldr	r1, [sp, sl]!

00002b64 <l2616>:
    2b64:	91dd30b0 	ldrhls	r3, [sp]

00002b68 <l2617>:
    2b68:	00443000 	subeq	r3, r4, r0

00002b6c <l2618>:
    2b6c:	82d730c5 	sbcshi	r3, r7, #197	; 0xc5

00002b70 <l2619>:
    2b70:	e90d7ffc 	stmdb	sp, {r2, r3, r4, r5, r6, r7, r8, r9, sl, fp, ip, sp, lr}

00002b74 <l2620>:
    2b74:	c0a4e33e 	adcgt	lr, r4, lr, lsr r3

00002b78 <l2621>:
    2b78:	61b0e431 	lsrsvs	lr, r1, r4

00002b7c <l2622>:
    2b7c:	e59fc000 	ldr	ip, [pc]	; 2b84 <l2624>

00002b80 <interrupt_767>:
    2b80:	ea000000 	b	2b88 <l2625>

00002b84 <l2624>:
    2b84:	000fffb8 	.word	0x000fffb8

00002b88 <l2625>:
    2b88:	e14c2091 	swpb	r2, r1, [ip]

00002b8c <l2626>:
    2b8c:	1a000008 	bne	2bb4 <l2636>

00002b90 <l2627>:
    2b90:	e0dc6062 	sbcs	r6, ip, r2, rrx

00002b94 <interrupt_880>:
    2b94:	e1530068 	cmp	r3, r8, rrx

00002b98 <l2629>:
    2b98:	63c28054 	bicvs	r8, r2, #84	; 0x54

00002b9c <l2630>:
    2b9c:	e018aa05 	ands	sl, r8, r5, lsl #20

00002ba0 <l2631>:
    2ba0:	e25a18d5 	subs	r1, sl, #13959168	; 0xd50000

00002ba4 <l2632>:
    2ba4:	21f0500b 	mvnscs	r5, fp

00002ba8 <l2633>:
    2ba8:	e2805005 	add	r5, r0, #5

00002bac <l2634>:
    2bac:	e1e042ce 	mvn	r4, lr, asr #5

00002bb0 <l2635>:
    2bb0:	01750009 	cmneq	r5, r9

00002bb4 <l2636>:
    2bb4:	81a00002 	movhi	r0, r2

00002bb8 <l2637>:
    2bb8:	8a000005 	bhi	2bd4 <interrupt_60>

00002bbc <l2638>:
    2bbc:	e2801012 	add	r1, r0, #18

00002bc0 <l2639>:
    2bc0:	b1e058a9 	mvnlt	r5, r9, lsr #17

00002bc4 <interrupt_776>:
    2bc4:	e0b27148 	adcs	r7, r2, r8, asr #2

00002bc8 <l2641>:
    2bc8:	409aac10 	addsmi	sl, sl, r0, lsl ip

00002bcc <l2642>:
    2bcc:	e218b837 	ands	fp, r8, #3604480	; 0x370000

00002bd0 <l2643>:
    2bd0:	ea000000 	b	2bd8 <l2645>

00002bd4 <interrupt_60>:
    2bd4:	eafffff9 	b	2bc0 <l2639>

00002bd8 <l2645>:
    2bd8:	e88d4082 	stm	sp, {r1, r7, lr}

00002bdc <l2646>:
    2bdc:	b055100a 	subslt	r1, r5, sl

00002be0 <l2647>:
    2be0:	b14db1ba 	strhlt	fp, [sp, #-26]	; 0xffffffe6

00002be4 <l2648>:
    2be4:	e48db00c 	str	fp, [sp], #12

00002be8 <interrupt_413>:
    2be8:	ba000005 	blt	2c04 <l2656>

00002bec <l2650>:
    2bec:	e28010c0 	add	r1, r0, #192	; 0xc0

00002bf0 <l2651>:
    2bf0:	0049a731 	subeq	sl, r9, r1, lsr r7

00002bf4 <l2652>:
    2bf4:	e087c009 	add	ip, r7, r9

00002bf8 <l2653>:
    2bf8:	e3a08ea7 	mov	r8, #2672	; 0xa70

00002bfc <interrupt_762>:
    2bfc:	e092e975 	adds	lr, r2, r5, ror r9

00002c00 <interrupt_470>:
    2c00:	ea000000 	b	2c08 <interrupt_582>

00002c04 <l2656>:
    2c04:	eafffff9 	b	2bf0 <l2651>

00002c08 <interrupt_582>:
    2c08:	e1f0c2eb 	mvns	ip, fp, ror #5

00002c0c <l2658>:
    2c0c:	e41da00c 	ldr	sl, [sp], #-12

00002c10 <interrupt_21>:
    2c10:	e14d10b2 	strh	r1, [sp, #-2]

00002c14 <l2660>:
    2c14:	e0f95918 	rscs	r5, r9, r8, lsl r9

00002c18 <l2661>:
    2c18:	71d3c066 	bicsvc	ip, r3, r6, rrx

00002c1c <interrupt_619>:
    2c1c:	71160003 	tstvc	r6, r3

00002c20 <interrupt_703>:
    2c20:	a35700cb 	cmpge	r7, #203	; 0xcb

00002c24 <l2664>:
    2c24:	e0a9e80c 	adc	lr, r9, ip, lsl #16

00002c28 <l2665>:
    2c28:	ea000004 	b	2c40 <interrupt_62>

00002c2c <l2666>:
    2c2c:	e0911c48 	adds	r1, r1, r8, asr #24

00002c30 <l2667>:
    2c30:	40392063 	eorsmi	r2, r9, r3, rrx

00002c34 <l2668>:
    2c34:	e3e00ba6 	mvn	r0, #169984	; 0x29800

00002c38 <l2669>:
    2c38:	12c1afd3 	sbcne	sl, r1, #844	; 0x34c

00002c3c <l2670>:
    2c3c:	70e8c07c 	rscvc	ip, r8, ip, ror r0

00002c40 <interrupt_62>:
    2c40:	e1130112 	tst	r3, r2, lsl r1

00002c44 <l2672>:
    2c44:	e82da000 	stmda	sp!, {sp, pc}

00002c48 <l2673>:
    2c48:	e3a0b016 	mov	fp, #22

00002c4c <l2674>:
    2c4c:	910da0bb 	strhls	sl, [sp, -fp]

00002c50 <l2675>:
    2c50:	40ba3061 	adcsmi	r3, sl, r1, rrx

00002c54 <l2676>:
    2c54:	216fef10 	clzcs	lr, r0

00002c58 <l2677>:
    2c58:	e91d0940 	ldmdb	sp, {r6, r8, fp}

00002c5c <l2678>:
    2c5c:	c0630007 	rsbgt	r0, r3, r7

00002c60 <l2679>:
    2c60:	e3a03032 	mov	r3, #50	; 0x32

00002c64 <l2680>:
    2c64:	011d60d3 	ldrsbeq	r6, [sp, -r3]

00002c68 <interrupt_474>:
    2c68:	ea000003 	b	2c7c <l2686>

00002c6c <interrupt_76>:
    2c6c:	e280108a 	add	r1, r0, #138	; 0x8a

00002c70 <l2683>:
    2c70:	02525016 	subseq	r5, r2, #22

00002c74 <l2684>:
    2c74:	30804065 	addcc	r4, r0, r5, rrx

00002c78 <l2685>:
    2c78:	ea000000 	b	2c80 <l2687>

00002c7c <l2686>:
    2c7c:	eafffffb 	b	2c70 <l2683>

00002c80 <l2687>:
    2c80:	e1d69000 	bics	r9, r6, r0

00002c84 <l2688>:
    2c84:	e59fb000 	ldr	fp, [pc]	; 2c8c <l2690>

00002c88 <l2689>:
    2c88:	ea000000 	b	2c90 <l2691>

00002c8c <l2690>:
    2c8c:	000fffd8 	.word	0x000fffd8

00002c90 <l2691>:
    2c90:	e10bc091 	swp	ip, r1, [fp]

00002c94 <l2692>:
    2c94:	e08eca74 	add	ip, lr, r4, ror sl

00002c98 <interrupt_894>:
    2c98:	4299323f 	addsmi	r3, r9, #-268435453	; 0xf0000003

00002c9c <l2694>:
    2c9c:	e0624e7b 	rsb	r4, r2, fp, ror lr

00002ca0 <l2695>:
    2ca0:	53de9501 	bicspl	r9, lr, #4194304	; 0x400000

00002ca4 <l2696>:
    2ca4:	e82d0e07 	stmda	sp!, {r0, r1, r2, r9, sl, fp}

00002ca8 <l2697>:
    2ca8:	5054c007 	subspl	ip, r4, r7

00002cac <l2698>:
    2cac:	e3a0401a 	mov	r4, #26

00002cb0 <l2699>:
    2cb0:	018d70b4 	strheq	r7, [sp, r4]

00002cb4 <interrupt_480>:
    2cb4:	e9ada000 	stmib	sp!, {sp, pc}

00002cb8 <l2701>:
    2cb8:	e3d213f5 	bics	r1, r2, #-738197501	; 0xd4000003

00002cbc <l2702>:
    2cbc:	81120b30 	tsthi	r2, r0, lsr fp

00002cc0 <interrupt_406>:
    2cc0:	e0b67008 	adcs	r7, r6, r8

00002cc4 <l2704>:
    2cc4:	e59fe000 	ldr	lr, [pc]	; 2ccc <l2706>

00002cc8 <l2705>:
    2cc8:	ea000000 	b	2cd0 <interrupt_891>

00002ccc <l2706>:
    2ccc:	000fffdc 	.word	0x000fffdc

00002cd0 <interrupt_891>:
    2cd0:	310e909b 	swpcc	r9, fp, [lr]

00002cd4 <l2708>:
    2cd4:	11a0a934 	lsrne	sl, r4, r9

00002cd8 <l2709>:
    2cd8:	03390d1b 	teqeq	r9, #1728	; 0x6c0

00002cdc <interrupt_317>:
    2cdc:	c1180f22 	tstgt	r8, r2, lsr #30

00002ce0 <interrupt_58>:
    2ce0:	e2daeacb 	sbcs	lr, sl, #831488	; 0xcb000

00002ce4 <l2712>:
    2ce4:	21871237 	orrcs	r1, r7, r7, lsr r2

00002ce8 <l2713>:
    2ce8:	b16f1f13 	clzlt	r1, r3

00002cec <l2714>:
    2cec:	72ec1645 	rscvc	r1, ip, #72351744	; 0x4500000

00002cf0 <l2715>:
    2cf0:	3186606b 	orrcc	r6, r6, fp, rrx

00002cf4 <interrupt_391>:
    2cf4:	e3a0701c 	mov	r7, #28

00002cf8 <l2717>:
    2cf8:	e18d90b7 	strh	r9, [sp, r7]

00002cfc <l2718>:
    2cfc:	b1590531 	cmplt	r9, r1, lsr r5

00002d00 <l2719>:
    2d00:	e59f2000 	ldr	r2, [pc]	; 2d08 <l2721>

00002d04 <l2720>:
    2d04:	ea000000 	b	2d0c <l2722>

00002d08 <l2721>:
    2d08:	000fffa4 	.word	0x000fffa4

00002d0c <l2722>:
    2d0c:	e1020097 	swp	r0, r7, [r2]

00002d10 <l2723>:
    2d10:	e3a05004 	mov	r5, #4

00002d14 <l2724>:
    2d14:	e11d30f5 	ldrsh	r3, [sp, -r5]

00002d18 <l2725>:
    2d18:	e3180da2 	tst	r8, #10368	; 0x2880

00002d1c <l2726>:
    2d1c:	ba000003 	blt	2d30 <l2731>

00002d20 <l2727>:
    2d20:	e280103f 	add	r1, r0, #63	; 0x3f

00002d24 <l2728>:
    2d24:	2059e87e 	subscs	lr, r9, lr, ror r8

00002d28 <l2729>:
    2d28:	a06f1dc2 	rsbge	r1, pc, r2, asr #27

00002d2c <l2730>:
    2d2c:	ea000000 	b	2d34 <interrupt_194>

00002d30 <l2731>:
    2d30:	eafffffb 	b	2d24 <l2728>

00002d34 <interrupt_194>:
    2d34:	e27129f7 	rsbs	r2, r1, #4046848	; 0x3dc000

00002d38 <l2733>:
    2d38:	015d01fe 	ldrsheq	r0, [sp, #-30]	; 0xffffffe2

00002d3c <l2734>:
    2d3c:	e3a0b018 	mov	fp, #24

00002d40 <l2735>:
    2d40:	e11da0db 	ldrsb	sl, [sp, -fp]

00002d44 <l2736>:
    2d44:	e16f1f1c 	clz	r1, ip

00002d48 <l2737>:
    2d48:	e59f5000 	ldr	r5, [pc]	; 2d50 <l2739>

00002d4c <interrupt_24>:
    2d4c:	ea000000 	b	2d54 <l2740>

00002d50 <l2739>:
    2d50:	000fffcc 	.word	0x000fffcc

00002d54 <l2740>:
    2d54:	e1459099 	swpb	r9, r9, [r5]

00002d58 <l2741>:
    2d58:	e9ad8cbe 	stmib	sp!, {r1, r2, r3, r4, r5, r7, sl, fp, pc}

00002d5c <l2742>:
    2d5c:	e59fb000 	ldr	fp, [pc]	; 2d64 <l2744>

00002d60 <interrupt_772>:
    2d60:	ea000000 	b	2d68 <l2745>

00002d64 <l2744>:
    2d64:	000fffc8 	.word	0x000fffc8

00002d68 <l2745>:
    2d68:	810be094 	swphi	lr, r4, [fp]

00002d6c <l2746>:
    2d6c:	2a000005 	bcs	2d88 <l2753>

00002d70 <l2747>:
    2d70:	31f0e92c 	mvnscc	lr, ip, lsr #18

00002d74 <interrupt_101>:
    2d74:	e029900e 	eor	r9, r9, lr

00002d78 <l2749>:
    2d78:	3013706a 	andscc	r7, r3, sl, rrx

00002d7c <l2750>:
    2d7c:	e190c009 	orrs	ip, r0, r9

00002d80 <l2751>:
    2d80:	e20cbcae 	and	fp, ip, #44544	; 0xae00

00002d84 <l2752>:
    2d84:	e046c006 	sub	ip, r6, r6

00002d88 <l2753>:
    2d88:	e1c3800c 	bic	r8, r3, ip

00002d8c <l2754>:
    2d8c:	c55d800d 	ldrbgt	r8, [sp, #-13]

00002d90 <l2755>:
    2d90:	e040e06e 	sub	lr, r0, lr, rrx

00002d94 <l2756>:
    2d94:	e1c7ea2e 	bic	lr, r7, lr, lsr #20

00002d98 <interrupt_441>:
    2d98:	e281eaa7 	add	lr, r1, #684032	; 0xa7000

00002d9c <interrupt_95>:
    2d9c:	e54db03e 	strb	fp, [sp, #-62]	; 0x3e

00002da0 <l2759>:
    2da0:	e0060077 	and	r0, r6, r7, ror r0

00002da4 <l2760>:
    2da4:	e3a00008 	mov	r0, #8

00002da8 <interrupt_27>:
    2da8:	e72d1000 	str	r1, [sp, -r0]!

00002dac <l2762>:
    2dac:	e3a0c028 	mov	ip, #40	; 0x28

00002db0 <l2763>:
    2db0:	e60dc00c 	str	ip, [sp], -ip

00002db4 <l2764>:
    2db4:	e08686c7 	add	r8, r6, r7, asr #13

00002db8 <l2765>:
    2db8:	e3a01012 	mov	r1, #18

00002dbc <interrupt_904>:
    2dbc:	c19d00b1 	ldrhgt	r0, [sp, r1]

00002dc0 <l2767>:
    2dc0:	e3a0200c 	mov	r2, #12

00002dc4 <l2768>:
    2dc4:	97cdc002 	strbls	ip, [sp, r2]

00002dc8 <interrupt_888>:
    2dc8:	50c9600e 	sbcpl	r6, r9, lr

00002dcc <l2770>:
    2dcc:	ea000002 	b	2ddc <l2774>

00002dd0 <l2771>:
    2dd0:	d16fcf17 	clzle	ip, r7

00002dd4 <l2772>:
    2dd4:	e08c366e 	add	r3, ip, lr, ror #12

00002dd8 <l2773>:
    2dd8:	e2e2899d 	rsc	r8, r2, #2572288	; 0x274000

00002ddc <l2774>:
    2ddc:	20284068 	eorcs	r4, r8, r8, rrx

00002de0 <l2775>:
    2de0:	e59f9000 	ldr	r9, [pc]	; 2de8 <l2777>

00002de4 <l2776>:
    2de4:	ea000000 	b	2dec <l2778>

00002de8 <l2777>:
    2de8:	000fffbc 	.word	0x000fffbc

00002dec <l2778>:
    2dec:	61095098 	swpvs	r5, r8, [r9]

00002df0 <interrupt_503>:
    2df0:	4a000007 	bmi	2e14 <l2788>

00002df4 <l2780>:
    2df4:	e280105c 	add	r1, r0, #92	; 0x5c

00002df8 <l2781>:
    2df8:	e3570f79 	cmp	r7, #484	; 0x1e4

00002dfc <l2782>:
    2dfc:	2039600b 	eorscs	r6, r9, fp

00002e00 <l2783>:
    2e00:	e3a08b19 	mov	r8, #25600	; 0x6400

00002e04 <l2784>:
    2e04:	8075b856 	rsbshi	fp, r5, r6, asr r8

00002e08 <interrupt_819>:
    2e08:	5028b00b 	eorpl	fp, r8, fp

00002e0c <l2786>:
    2e0c:	e16f0f13 	clz	r0, r3

00002e10 <l2787>:
    2e10:	ea000000 	b	2e18 <l2789>

00002e14 <l2788>:
    2e14:	eafffff7 	b	2df8 <l2781>

00002e18 <l2789>:
    2e18:	504a6c1a 	subpl	r6, sl, sl, lsl ip

00002e1c <l2790>:
    2e1c:	e15e0d6e 	cmp	lr, lr, ror #26

00002e20 <l2791>:
    2e20:	e3a08030 	mov	r8, #48	; 0x30

00002e24 <l2792>:
    2e24:	97cdb008 	strbls	fp, [sp, r8]

00002e28 <l2793>:
    2e28:	e157006f 	cmp	r7, pc, rrx

00002e2c <l2794>:
    2e2c:	70787b15 	rsbsvc	r7, r8, r5, lsl fp

00002e30 <l2795>:
    2e30:	52f1a13a 	rscspl	sl, r1, #-2147483634	; 0x8000000e

00002e34 <interrupt_996>:
    2e34:	6a000004 	bvs	2e4c <l2802>

00002e38 <l2797>:
    2e38:	e1730009 	cmn	r3, r9

00002e3c <interrupt_910>:
    2e3c:	e11c000e 	tst	ip, lr

00002e40 <l2799>:
    2e40:	e01a0062 	ands	r0, sl, r2, rrx

00002e44 <l2800>:
    2e44:	503ac979 	eorspl	ip, sl, r9, ror r9

00002e48 <l2801>:
    2e48:	50cb492f 	sbcpl	r4, fp, pc, lsr #18

00002e4c <l2802>:
    2e4c:	30795e0c 	rsbscc	r5, r9, ip, lsl #28

00002e50 <l2803>:
    2e50:	b0d7101a 	sbcslt	r1, r7, sl, lsl r0

00002e54 <l2804>:
    2e54:	013904ea 	teqeq	r9, sl, ror #9

00002e58 <l2805>:
    2e58:	e1dd71b4 	ldrh	r7, [sp, #20]

00002e5c <l2806>:
    2e5c:	e3a0100c 	mov	r1, #12

00002e60 <l2807>:
    2e60:	475d3001 	ldrbmi	r3, [sp, -r1]

00002e64 <l2808>:
    2e64:	90b0700f 	adcsls	r7, r0, pc

00002e68 <interrupt_558>:
    2e68:	e1a00000 	nop			; (mov r0, r0)

00002e6c <l2810>:
    2e6c:	ea000004 	b	2e84 <l2816>

00002e70 <l2811>:
    2e70:	e280107f 	add	r1, r0, #127	; 0x7f

00002e74 <l2812>:
    2e74:	31110004 	tstcc	r1, r4

00002e78 <l2813>:
    2e78:	e02f7068 	eor	r7, pc, r8, rrx

00002e7c <l2814>:
    2e7c:	a038503c 	eorsge	r5, r8, ip, lsr r0

00002e80 <l2815>:
    2e80:	ea000000 	b	2e88 <l2817>

00002e84 <l2816>:
    2e84:	eafffffa 	b	2e74 <l2812>

00002e88 <l2817>:
    2e88:	e0d912e0 	sbcs	r1, r9, r0, ror #5

00002e8c <interrupt_981>:
    2e8c:	e59fb000 	ldr	fp, [pc]	; 2e94 <l2820>

00002e90 <interrupt_515>:
    2e90:	ea000000 	b	2e98 <l2821>

00002e94 <l2820>:
    2e94:	000fffc4 	.word	0x000fffc4

00002e98 <l2821>:
    2e98:	614b5093 	swpbvs	r5, r3, [fp]

00002e9c <l2822>:
    2e9c:	3155001b 	cmpcc	r5, fp, lsl r0

00002ea0 <l2823>:
    2ea0:	e054c007 	subs	ip, r4, r7

00002ea4 <interrupt_708>:
    2ea4:	e0a42005 	adc	r2, r4, r5

00002ea8 <interrupt_278>:
    2ea8:	3040296f 	subcc	r2, r0, pc, ror #18

00002eac <l2826>:
    2eac:	31b0800f 	movscc	r8, pc

00002eb0 <l2827>:
    2eb0:	e81d0020 	ldmda	sp, {r5}

00002eb4 <l2828>:
    2eb4:	150db008 	strne	fp, [sp, #-8]

00002eb8 <l2829>:
    2eb8:	a11e006b 	tstge	lr, fp, rrx

00002ebc <l2830>:
    2ebc:	ea000007 	b	2ee0 <interrupt_311>

00002ec0 <l2831>:
    2ec0:	e28010ce 	add	r1, r0, #206	; 0xce

00002ec4 <l2832>:
    2ec4:	e0d97e60 	sbcs	r7, r9, r0, ror #28

00002ec8 <l2833>:
    2ec8:	e16faf14 	clz	sl, r4

00002ecc <l2834>:
    2ecc:	c1d70007 	bicsgt	r0, r7, r7

00002ed0 <l2835>:
    2ed0:	e1866c20 	orr	r6, r6, r0, lsr #24

00002ed4 <l2836>:
    2ed4:	e3e05105 	mvn	r5, #1073741825	; 0x40000001

00002ed8 <interrupt_486>:
    2ed8:	915a0408 	cmpls	sl, r8, lsl #8

00002edc <l2838>:
    2edc:	ea000000 	b	2ee4 <l2840>

00002ee0 <interrupt_311>:
    2ee0:	eafffff7 	b	2ec4 <l2832>

00002ee4 <l2840>:
    2ee4:	71c49004 	bicvc	r9, r4, r4

00002ee8 <l2841>:
    2ee8:	c90d0008 	stmdbgt	sp, {r3}

00002eec <l2842>:
    2eec:	30a11c5e 	adccc	r1, r1, lr, asr ip

00002ef0 <l2843>:
    2ef0:	e18a9003 	orr	r9, sl, r3

00002ef4 <l2844>:
    2ef4:	259d400c 	ldrcs	r4, [sp, #12]

00002ef8 <l2845>:
    2ef8:	e0d1a004 	sbcs	sl, r1, r4

00002efc <l2846>:
    2efc:	52947451 	addspl	r7, r4, #1358954496	; 0x51000000

00002f00 <l2847>:
    2f00:	e3a0302c 	mov	r3, #44	; 0x2c

00002f04 <l2848>:
    2f04:	618db0b3 	strhvs	fp, [sp, r3]

00002f08 <interrupt_829>:
    2f08:	e0fbc004 	rscs	ip, fp, r4

00002f0c <l2850>:
    2f0c:	e042158e 	sub	r1, r2, lr, lsl #11

00002f10 <interrupt_137>:
    2f10:	604fa00b 	subvs	sl, pc, fp

00002f14 <l2852>:
    2f14:	e3a0802e 	mov	r8, #46	; 0x2e

00002f18 <l2853>:
    2f18:	e18db0b8 	strh	fp, [sp, r8]

00002f1c <l2854>:
    2f1c:	401489a7 	andsmi	r8, r4, r7, lsr #19

00002f20 <l2855>:
    2f20:	b11c000c 	tstlt	ip, ip

00002f24 <interrupt_192>:
    2f24:	b0f8b9a1 	rscslt	fp, r8, r1, lsr #19

00002f28 <l2857>:
    2f28:	e3a02014 	mov	r2, #20

00002f2c <l2858>:
    2f2c:	e61d1002 	ldr	r1, [sp], -r2

00002f30 <interrupt_905>:
    2f30:	e0b90001 	adcs	r0, r9, r1

00002f34 <l2860>:
    2f34:	e99d523a 	ldmib	sp, {r1, r3, r4, r5, r9, ip, lr}

00002f38 <interrupt_620>:
    2f38:	c1e06069 	mvngt	r6, r9, rrx

00002f3c <l2862>:
    2f3c:	11d6324f 	bicsne	r3, r6, pc, asr #4

00002f40 <l2863>:
    2f40:	e59fb000 	ldr	fp, [pc]	; 2f48 <l2865>

00002f44 <interrupt_498>:
    2f44:	ea000000 	b	2f4c <interrupt_793>

00002f48 <l2865>:
    2f48:	000fffb4 	.word	0x000fffb4

00002f4c <interrupt_793>:
    2f4c:	b14b5097 	swpblt	r5, r7, [fp]

00002f50 <l2867>:
    2f50:	e02c5002 	eor	r5, ip, r2

00002f54 <l2868>:
    2f54:	e1b07d41 	asrs	r7, r1, #26

00002f58 <l2869>:
    2f58:	c16f6f18 	clzgt	r6, r8

00002f5c <interrupt_816>:
    2f5c:	516fbf1e 	clzpl	fp, lr

00002f60 <interrupt_941>:
    2f60:	e3a04018 	mov	r4, #24

00002f64 <l2872>:
    2f64:	678d2004 	strvs	r2, [sp, r4]

00002f68 <l2873>:
    2f68:	e15a000f 	cmp	sl, pc

00002f6c <l2874>:
    2f6c:	e3a08040 	mov	r8, #64	; 0x40

00002f70 <l2875>:
    2f70:	e69d4008 	ldr	r4, [sp], r8

00002f74 <interrupt_42>:
    2f74:	415d62fc 	ldrshmi	r6, [sp, #-44]	; 0xffffffd4

00002f78 <l2877>:
    2f78:	e1a00000 	nop			; (mov r0, r0)

00002f7c <interrupt_678>:
    2f7c:	e1140007 	tst	r4, r7

00002f80 <l2879>:
    2f80:	e3a0602b 	mov	r6, #43	; 0x2b

00002f84 <l2880>:
    2f84:	911d90d6 	ldrsbls	r9, [sp, -r6]

00002f88 <interrupt_308>:
    2f88:	10943005 	addsne	r3, r4, r5

00002f8c <l2882>:
    2f8c:	e0c91001 	sbc	r1, r9, r1

00002f90 <l2883>:
    2f90:	e3a01043 	mov	r1, #67	; 0x43

00002f94 <l2884>:
    2f94:	e75d7001 	ldrb	r7, [sp, -r1]

00002f98 <l2885>:
    2f98:	e3a00010 	mov	r0, #16

00002f9c <l2886>:
    2f9c:	d74d4000 	strble	r4, [sp, -r0]

00002fa0 <l2887>:
    2fa0:	e3a07032 	mov	r7, #50	; 0x32

00002fa4 <l2888>:
    2fa4:	e11dc0b7 	ldrh	ip, [sp, -r7]

00002fa8 <interrupt_663>:
    2fa8:	e3a0e033 	mov	lr, #51	; 0x33

00002fac <l2890>:
    2fac:	d11d70de 	ldrsble	r7, [sp, -lr]

00002fb0 <l2891>:
    2fb0:	ea000004 	b	2fc8 <l2897>

00002fb4 <l2892>:
    2fb4:	e2801099 	add	r1, r0, #153	; 0x99

00002fb8 <l2893>:
    2fb8:	4053c50c 	subsmi	ip, r3, ip, lsl #10

00002fbc <l2894>:
    2fbc:	a35908bf 	cmpge	r9, #12517376	; 0xbf0000

00002fc0 <interrupt_271>:
    2fc0:	4158007c 	cmpmi	r8, ip, ror r0

00002fc4 <l2896>:
    2fc4:	ea000000 	b	2fcc <interrupt_275>

00002fc8 <l2897>:
    2fc8:	eafffffa 	b	2fb8 <l2893>

00002fcc <interrupt_275>:
    2fcc:	707a1d21 	rsbsvc	r1, sl, r1, lsr #26

00002fd0 <l2899>:
    2fd0:	e55de006 	ldrb	lr, [sp, #-6]

00002fd4 <l2900>:
    2fd4:	4056c319 	subsmi	ip, r6, r9, lsl r3

00002fd8 <l2901>:
    2fd8:	e51d901c 	ldr	r9, [sp, #-28]

00002fdc <l2902>:
    2fdc:	b3a0031a 	movlt	r0, #1744830464	; 0x68000000

00002fe0 <l2903>:
    2fe0:	2049b059 	subcs	fp, r9, r9, asr r0

00002fe4 <l2904>:
    2fe4:	71f07002 	mvnsvc	r7, r2

00002fe8 <l2905>:
    2fe8:	e04b9753 	sub	r9, fp, r3, asr r7

00002fec <l2906>:
    2fec:	d1c61008 	bicle	r1, r6, r8

00002ff0 <interrupt_48>:
    2ff0:	e3a0a024 	mov	sl, #36	; 0x24

00002ff4 <l2908>:
    2ff4:	e73d800a 	ldr	r8, [sp, -sl]!

00002ff8 <l2909>:
    2ff8:	23550909 	cmpcs	r5, #147456	; 0x24000

00002ffc <interrupt_734>:
    2ffc:	e9ad04f5 	stmib	sp!, {r0, r2, r4, r5, r6, r7, sl}

00003000 <l2911>:
    3000:	354de029 	strbcc	lr, [sp, #-41]	; 0x29

00003004 <l2912>:
    3004:	a13f000f 	teqge	pc, pc

00003008 <l2913>:
    3008:	d11a0005 	tstle	sl, r5

0000300c <l2914>:
    300c:	e3a0701c 	mov	r7, #28

00003010 <interrupt_854>:
    3010:	211dc0b7 	ldrhcs	ip, [sp, -r7]

00003014 <l2916>:
    3014:	e3a0b03c 	mov	fp, #60	; 0x3c

00003018 <interrupt_184>:
    3018:	e11db0bb 	ldrh	fp, [sp, -fp]

0000301c <l2918>:
    301c:	e49de000 	ldr	lr, [sp], #0

00003020 <l2919>:
    3020:	e41d9024 	ldr	r9, [sp], #-36	; 0x24

00003024 <l2920>:
    3024:	e1e0141b 	mvn	r1, fp, lsl r4

00003028 <l2921>:
    3028:	82d87d9b 	sbcshi	r7, r8, #9920	; 0x26c0

0000302c <interrupt_66>:
    302c:	e01c5e19 	ands	r5, ip, r9, lsl lr

00003030 <l2923>:
    3030:	c1d99062 	bicsgt	r9, r9, r2, rrx

00003034 <l2924>:
    3034:	e3a01004 	mov	r1, #4

00003038 <l2925>:
    3038:	b11d60f1 	ldrshlt	r6, [sp, -r1]

0000303c <l2926>:
    303c:	e93d4424 	ldmdb	sp!, {r2, r5, sl, lr}

00003040 <l2927>:
    3040:	e59f2000 	ldr	r2, [pc]	; 3048 <l2929>

00003044 <l2928>:
    3044:	ea000000 	b	304c <interrupt_741>

00003048 <l2929>:
    3048:	000fffd8 	.word	0x000fffd8

0000304c <interrupt_741>:
    304c:	6102c094 	swpvs	ip, r4, [r2]

00003050 <l2931>:
    3050:	215d20b8 	ldrhcs	r2, [sp, #-8]

00003054 <interrupt_234>:
    3054:	a139016e 	teqge	r9, lr, ror #2

00003058 <l2933>:
    3058:	e1c89914 	bic	r9, r8, r4, lsl r9

0000305c <interrupt_745>:
    305c:	e15d40d8 	ldrsb	r4, [sp, #-8]

00003060 <l2935>:
    3060:	e19a6723 	orrs	r6, sl, r3, lsr #14

00003064 <interrupt_373>:
    3064:	41f04068 	mvnsmi	r4, r8, rrx

00003068 <l2937>:
    3068:	e1db6065 	bics	r6, fp, r5, rrx

0000306c <l2938>:
    306c:	6a000002 	bvs	307c <l2942>

00003070 <l2939>:
    3070:	e2801031 	add	r1, r0, #49	; 0x31

00003074 <l2940>:
    3074:	d052c005 	subsle	ip, r2, r5

00003078 <l2941>:
    3078:	ea000000 	b	3080 <l2943>

0000307c <l2942>:
    307c:	eafffffc 	b	3074 <l2940>

00003080 <l2943>:
    3080:	309987c5 	addscc	r8, r9, r5, asr #15

00003084 <l2944>:
    3084:	92fa9936 	rscsls	r9, sl, #884736	; 0xd8000

00003088 <l2945>:
    3088:	e3a04008 	mov	r4, #8

0000308c <l2946>:
    308c:	218d10b4 	strhcs	r1, [sp, r4]

00003090 <l2947>:
    3090:	e3b05305 	movs	r5, #335544320	; 0x14000000

00003094 <l2948>:
    3094:	e3a0700c 	mov	r7, #12

00003098 <l2949>:
    3098:	e7bd7007 	ldr	r7, [sp, r7]!

0000309c <l2950>:
    309c:	e59f0000 	ldr	r0, [pc]	; 30a4 <l2952>

000030a0 <l2951>:
    30a0:	ea000000 	b	30a8 <l2953>

000030a4 <l2952>:
    30a4:	000fffc4 	.word	0x000fffc4

000030a8 <l2953>:
    30a8:	21409099 	swpbcs	r9, r9, [r0]

000030ac <l2954>:
    30ac:	e3a0c024 	mov	ip, #36	; 0x24

000030b0 <l2955>:
    30b0:	e19da0dc 	ldrsb	sl, [sp, ip]

000030b4 <l2956>:
    30b4:	0258c55e 	subseq	ip, r8, #394264576	; 0x17800000

000030b8 <interrupt_306>:
    30b8:	e3a02004 	mov	r2, #4

000030bc <l2958>:
    30bc:	d19d10b2 	ldrhle	r1, [sp, r2]

000030c0 <l2959>:
    30c0:	92d21b52 	sbcsls	r1, r2, #83968	; 0x14800

000030c4 <l2960>:
    30c4:	8198e000 	orrshi	lr, r8, r0

000030c8 <interrupt_188>:
    30c8:	e3a0902f 	mov	r9, #47	; 0x2f

000030cc <interrupt_336>:
    30cc:	87cd6009 	strbhi	r6, [sp, r9]

000030d0 <l2963>:
    30d0:	c03aa08a 	eorsgt	sl, sl, sl, lsl #1

000030d4 <interrupt_926>:
    30d4:	80403069 	subhi	r3, r0, r9, rrx

000030d8 <interrupt_384>:
    30d8:	e1c18ae5 	bic	r8, r1, r5, ror #21

000030dc <l2966>:
    30dc:	e15d00d5 	ldrsb	r0, [sp, #-5]

000030e0 <l2967>:
    30e0:	e1d7100f 	bics	r1, r7, pc

000030e4 <l2968>:
    30e4:	e59fa000 	ldr	sl, [pc]	; 30ec <l2970>

000030e8 <interrupt_665>:
    30e8:	ea000000 	b	30f0 <l2971>

000030ec <l2970>:
    30ec:	000fffa8 	.word	0x000fffa8

000030f0 <l2971>:
    30f0:	b10a0090 	swplt	r0, r0, [sl]

000030f4 <interrupt_799>:
    30f4:	e0ebc00e 	rsc	ip, fp, lr

000030f8 <l2973>:
    30f8:	e1c6b00b 	bic	fp, r6, fp

000030fc <l2974>:
    30fc:	e1130b53 	tst	r3, r3, asr fp

00003100 <l2975>:
    3100:	e3a0e022 	mov	lr, #34	; 0x22

00003104 <l2976>:
    3104:	719d60be 	ldrhvc	r6, [sp, lr]

00003108 <l2977>:
    3108:	e3a0e026 	mov	lr, #38	; 0x26

0000310c <l2978>:
    310c:	819d20de 	ldrsbhi	r2, [sp, lr]

00003110 <l2979>:
    3110:	e5cdc011 	strb	ip, [sp, #17]

00003114 <l2980>:
    3114:	e3a06010 	mov	r6, #16

00003118 <l2981>:
    3118:	719d10d6 	ldrsbvc	r1, [sp, r6]

0000311c <l2982>:
    311c:	a135006e 	teqge	r5, lr, rrx

00003120 <l2983>:
    3120:	e3a03008 	mov	r3, #8

00003124 <l2984>:
    3124:	e69d8003 	ldr	r8, [sp], r3

00003128 <l2985>:
    3128:	e1b0726b 	rors	r7, fp, #4

0000312c <l2986>:
    312c:	e04c4e88 	sub	r4, ip, r8, lsl #29

00003130 <l2987>:
    3130:	e1a0036e 	ror	r0, lr, #6

00003134 <l2988>:
    3134:	e80d5045 	stmda	sp, {r0, r2, r6, ip, lr}

00003138 <l2989>:
    3138:	d89d0008 	ldmle	sp, {r3}

0000313c <l2990>:
    313c:	25cd102f 	strbcs	r1, [sp, #47]	; 0x2f

00003140 <interrupt_359>:
    3140:	e5bdc018 	ldr	ip, [sp, #24]!

00003144 <l2992>:
    3144:	1003b060 	andne	fp, r3, r0, rrx

00003148 <l2993>:
    3148:	e0c27759 	sbc	r7, r2, r9, asr r7

0000314c <l2994>:
    314c:	616f9f13 	clzvs	r9, r3

00003150 <l2995>:
    3150:	c2d39cca 	sbcsgt	r9, r3, #51712	; 0xca00

00003154 <l2996>:
    3154:	e3570521 	cmp	r7, #138412032	; 0x8400000

00003158 <l2997>:
    3158:	ea000003 	b	316c <l3002>

0000315c <l2998>:
    315c:	e0c4317e 	sbc	r3, r4, lr, ror r1

00003160 <interrupt_555>:
    3160:	c155000e 	cmpgt	r5, lr

00003164 <l3000>:
    3164:	63e03c2a 	mvnvs	r3, #10752	; 0x2a00

00003168 <l3001>:
    3168:	e01296a1 	ands	r9, r2, r1, lsr #13

0000316c <l3002>:
    316c:	e219e313 	ands	lr, r9, #1275068416	; 0x4c000000

00003170 <l3003>:
    3170:	e3a0900c 	mov	r9, #12

00003174 <l3004>:
    3174:	671dc009 	ldrvs	ip, [sp, -r9]

00003178 <l3005>:
    3178:	e1b09a4f 	asrs	r9, pc, #20

0000317c <l3006>:
    317c:	655de00e 	ldrbvs	lr, [sp, #-14]

00003180 <l3007>:
    3180:	e37802c9 	cmn	r8, #-1879048180	; 0x9000000c

00003184 <l3008>:
    3184:	e179000e 	cmn	r9, lr

00003188 <l3009>:
    3188:	e3370773 	teq	r7, #30146560	; 0x1cc0000

0000318c <l3010>:
    318c:	8244e313 	subhi	lr, r4, #1275068416	; 0x4c000000

00003190 <interrupt_163>:
    3190:	e59fb000 	ldr	fp, [pc]	; 3198 <interrupt_17>

00003194 <l3012>:
    3194:	ea000000 	b	319c <l3014>

00003198 <interrupt_17>:
    3198:	000fffdc 	.word	0x000fffdc

0000319c <l3014>:
    319c:	710b309e 	swpvc	r3, lr, [fp]

000031a0 <l3015>:
    31a0:	5000000e 	andpl	r0, r0, lr

000031a4 <interrupt_952>:
    31a4:	e0ca306e 	sbc	r3, sl, lr, rrx

000031a8 <l3017>:
    31a8:	62795015 	rsbsvs	r5, r9, #21

000031ac <l3018>:
    31ac:	e2ef4e77 	rsc	r4, pc, #1904	; 0x770

000031b0 <l3019>:
    31b0:	e3a0401e 	mov	r4, #30

000031b4 <interrupt_9>:
    31b4:	275d9004 	ldrbcs	r9, [sp, -r4]

000031b8 <l3021>:
    31b8:	01f0233a 	mvnseq	r2, sl, lsr r3

000031bc <interrupt_706>:
    31bc:	ea000006 	b	31dc <l3030>

000031c0 <l3023>:
    31c0:	519193c0 	orrspl	r9, r1, r0, asr #7

000031c4 <l3024>:
    31c4:	13170176 	tstne	r7, #-2147483619	; 0x8000001d

000031c8 <l3025>:
    31c8:	017b0005 	cmneq	fp, r5

000031cc <l3026>:
    31cc:	c2cf4054 	sbcgt	r4, pc, #84	; 0x54

000031d0 <l3027>:
    31d0:	e0b2b1a0 	adcs	fp, r2, r0, lsr #3

000031d4 <interrupt_348>:
    31d4:	b2d67ca7 	sbcslt	r7, r6, #42752	; 0xa700

000031d8 <l3029>:
    31d8:	e0253054 	eor	r3, r5, r4, asr r0

000031dc <l3030>:
    31dc:	91550002 	cmpls	r5, r2

000031e0 <l3031>:
    31e0:	e16faf17 	clz	sl, r7

000031e4 <l3032>:
    31e4:	e3180986 	tst	r8, #2195456	; 0x218000

000031e8 <interrupt_869>:
    31e8:	e80d0115 	stmda	sp, {r0, r2, r4, r8}

000031ec <interrupt_548>:
    31ec:	e0d3c001 	sbcs	ip, r3, r1

000031f0 <l3035>:
    31f0:	c0175b36 	andsgt	r5, r7, r6, lsr fp

000031f4 <l3036>:
    31f4:	e3a09010 	mov	r9, #16

000031f8 <l3037>:
    31f8:	c78d2009 	strgt	r2, [sp, r9]

000031fc <l3038>:
    31fc:	e3a0900f 	mov	r9, #15

00003200 <l3039>:
    3200:	e7cd2009 	strb	r2, [sp, r9]

00003204 <interrupt_59>:
    3204:	6a000002 	bvs	3214 <l3044>

00003208 <l3041>:
    3208:	73cf24f9 	bicvc	r2, pc, #-117440512	; 0xf9000000

0000320c <l3042>:
    320c:	b1160175 	tstlt	r6, r5, ror r1

00003210 <l3043>:
    3210:	e2eb641f 	rsc	r6, fp, #520093696	; 0x1f000000

00003214 <l3044>:
    3214:	c196b070 	orrsgt	fp, r6, r0, ror r0

00003218 <interrupt_75>:
    3218:	82c985b5 	sbchi	r8, r9, #759169024	; 0x2d400000

0000321c <l3046>:
    321c:	e0407c58 	sub	r7, r0, r8, asr ip

00003220 <l3047>:
    3220:	e59fb000 	ldr	fp, [pc]	; 3228 <interrupt_651>

00003224 <l3048>:
    3224:	ea000000 	b	322c <interrupt_667>

00003228 <interrupt_651>:
    3228:	000fffd0 	.word	0x000fffd0

0000322c <interrupt_667>:
    322c:	e10b109c 	swp	r1, ip, [fp]

00003230 <interrupt_465>:
    3230:	72d236f7 	sbcsvc	r3, r2, #258998272	; 0xf700000

00003234 <l3052>:
    3234:	e0f5b003 	rscs	fp, r5, r3

00003238 <l3053>:
    3238:	e3e00f4d 	mvn	r0, #308	; 0x134

0000323c <l3054>:
    323c:	115108a3 	cmpne	r1, r3, lsr #17

00003240 <l3055>:
    3240:	93a06591 	movls	r6, #608174080	; 0x24400000

00003244 <l3056>:
    3244:	ea000006 	b	3264 <l3064>

00003248 <l3057>:
    3248:	20b52501 	adcscs	r2, r5, r1, lsl #10

0000324c <l3058>:
    324c:	208c0ec1 	addcs	r0, ip, r1, asr #29

00003250 <l3059>:
    3250:	20506310 	subscs	r6, r0, r0, lsl r3

00003254 <l3060>:
    3254:	c0eb3563 	rscgt	r3, fp, r3, ror #10

00003258 <l3061>:
    3258:	e0350061 	eors	r0, r5, r1, rrx

0000325c <l3062>:
    325c:	e3e00d5f 	mvn	r0, #6080	; 0x17c0

00003260 <interrupt_499>:
    3260:	e1350fec 	teq	r5, ip, ror #31

00003264 <l3064>:
    3264:	e1580dc8 	cmp	r8, r8, asr #27

00003268 <l3065>:
    3268:	909fe063 	addsls	lr, pc, r3, rrx

0000326c <l3066>:
    326c:	e90dfcb6 	stmdb	sp, {r1, r2, r4, r5, r7, sl, fp, ip, sp, lr, pc}

00003270 <interrupt_683>:
    3270:	d0fe5b0f 	rscsle	r5, lr, pc, lsl #22

00003274 <l3068>:
    3274:	b0fbb273 	rscslt	fp, fp, r3, ror r2

00003278 <l3069>:
    3278:	b3d65106 	bicslt	r5, r6, #-2147483647	; 0x80000001

0000327c <l3070>:
    327c:	e9ad0486 	stmib	sp!, {r1, r2, r7, sl}

00003280 <interrupt_556>:
    3280:	e1f0a066 	mvns	sl, r6, rrx

00003284 <l3072>:
    3284:	d1b02005 	movsle	r2, r5

00003288 <l3073>:
    3288:	e3a04008 	mov	r4, #8

0000328c <l3074>:
    328c:	e11d90b4 	ldrh	r9, [sp, -r4]

00003290 <l3075>:
    3290:	781d4044 	ldmdavc	sp, {r2, r6, lr}

00003294 <l3076>:
    3294:	90c63007 	sbcls	r3, r6, r7

00003298 <l3077>:
    3298:	e33705f7 	teq	r7, #1035993088	; 0x3dc00000

0000329c <interrupt_549>:
    329c:	c14de1b0 	strhgt	lr, [sp, #-16]

000032a0 <l3079>:
    32a0:	51d94063 	bicspl	r4, r9, r3, rrx

000032a4 <l3080>:
    32a4:	e3a0b026 	mov	fp, #38	; 0x26

000032a8 <l3081>:
    32a8:	011d30fb 	ldrsheq	r3, [sp, -fp]

000032ac <l3082>:
    32ac:	615db1b6 	ldrhvs	fp, [sp, #-22]	; 0xffffffea

000032b0 <l3083>:
    32b0:	1190598a 	orrsne	r5, r0, sl, lsl #19

000032b4 <l3084>:
    32b4:	e9ad0002 	stmib	sp!, {r1}

000032b8 <l3085>:
    32b8:	e1780009 	cmn	r8, r9

000032bc <l3086>:
    32bc:	7009ea01 	andvc	lr, r9, r1, lsl #20

000032c0 <l3087>:
    32c0:	23f040b7 	mvnscs	r4, #183	; 0xb7

000032c4 <l3088>:
    32c4:	7a000005 	bvc	32e0 <l3095>

000032c8 <l3089>:
    32c8:	e2801024 	add	r1, r0, #36	; 0x24

000032cc <interrupt_422>:
    32cc:	d0f26a8e 	rscsle	r6, r2, lr, lsl #21

000032d0 <l3091>:
    32d0:	50e2297e 	rscpl	r2, r2, lr, ror r9

000032d4 <l3092>:
    32d4:	e1b07003 	movs	r7, r3

000032d8 <l3093>:
    32d8:	e1cb7009 	bic	r7, fp, r9

000032dc <l3094>:
    32dc:	ea000000 	b	32e4 <interrupt_29>

000032e0 <l3095>:
    32e0:	eafffff9 	b	32cc <interrupt_422>

000032e4 <interrupt_29>:
    32e4:	a1310008 	teqge	r1, r8

000032e8 <l3097>:
    32e8:	e1100002 	tst	r0, r2

000032ec <l3098>:
    32ec:	1a000002 	bne	32fc <interrupt_893>

000032f0 <l3099>:
    32f0:	e28010d9 	add	r1, r0, #217	; 0xd9

000032f4 <interrupt_821>:
    32f4:	e0da8c88 	sbcs	r8, sl, r8, lsl #25

000032f8 <l3101>:
    32f8:	ea000000 	b	3300 <l3103>

000032fc <interrupt_893>:
    32fc:	eafffffc 	b	32f4 <interrupt_821>

00003300 <l3103>:
    3300:	e3a0b026 	mov	fp, #38	; 0x26

00003304 <interrupt_895>:
    3304:	e11dc0db 	ldrsb	ip, [sp, -fp]

00003308 <l3105>:
    3308:	20479a67 	subcs	r9, r7, r7, ror #20

0000330c <l3106>:
    330c:	e3a0e01c 	mov	lr, #28

00003310 <l3107>:
    3310:	e11da0be 	ldrh	sl, [sp, -lr]

00003314 <l3108>:
    3314:	e59f9000 	ldr	r9, [pc]	; 331c <l3110>

00003318 <l3109>:
    3318:	ea000000 	b	3320 <interrupt_231>

0000331c <l3110>:
    331c:	000fffb4 	.word	0x000fffb4

00003320 <interrupt_231>:
    3320:	4149c09b 	swpbmi	ip, fp, [r9]

00003324 <l3112>:
    3324:	e1100005 	tst	r0, r5

00003328 <l3113>:
    3328:	a01b100e 	andsge	r1, fp, lr

0000332c <l3114>:
    332c:	e1a00000 	nop			; (mov r0, r0)

00003330 <l3115>:
    3330:	e59f9000 	ldr	r9, [pc]	; 3338 <l3117>

00003334 <l3116>:
    3334:	ea000000 	b	333c <l3118>

00003338 <l3117>:
    3338:	000fffd8 	.word	0x000fffd8

0000333c <l3118>:
    333c:	7109e093 	swpvc	lr, r3, [r9]

00003340 <l3119>:
    3340:	e1a00000 	nop			; (mov r0, r0)

00003344 <l3120>:
    3344:	315db0b4 	ldrhcc	fp, [sp, #-4]

00003348 <l3121>:
    3348:	e02e4153 	eor	r4, lr, r3, asr r1

0000334c <l3122>:
    334c:	a0a6595a 	adcge	r5, r6, sl, asr r9

00003350 <l3123>:
    3350:	e029100a 	eor	r1, r9, sl

00003354 <l3124>:
    3354:	e59f3000 	ldr	r3, [pc]	; 335c <l3126>

00003358 <l3125>:
    3358:	ea000000 	b	3360 <l3127>

0000335c <l3126>:
    335c:	000fffa8 	.word	0x000fffa8

00003360 <l3127>:
    3360:	c143109a 	swpbgt	r1, sl, [r3]

00003364 <l3128>:
    3364:	e1e09e05 	mvn	r9, r5, lsl #28

00003368 <interrupt_635>:
    3368:	e3a03021 	mov	r3, #33	; 0x21

0000336c <interrupt_177>:
    336c:	e11db0d3 	ldrsb	fp, [sp, -r3]

00003370 <l3131>:
    3370:	e59fb000 	ldr	fp, [pc]	; 3378 <l3133>

00003374 <l3132>:
    3374:	ea000000 	b	337c <l3134>

00003378 <l3133>:
    3378:	000fffdc 	.word	0x000fffdc

0000337c <l3134>:
    337c:	e10b7092 	swp	r7, r2, [fp]

00003380 <l3135>:
    3380:	5a000003 	bpl	3394 <l3140>

00003384 <l3136>:
    3384:	1296ec1e 	addsne	lr, r6, #7680	; 0x1e00

00003388 <l3137>:
    3388:	b26a5d63 	rsblt	r5, sl, #6336	; 0x18c0

0000338c <l3138>:
    338c:	20c7e33c 	sbccs	lr, r7, ip, lsr r3

00003390 <interrupt_235>:
    3390:	e068947e 	rsb	r9, r8, lr, ror r4

00003394 <l3140>:
    3394:	e0502450 	subs	r2, r0, r0, asr r4

00003398 <l3141>:
    3398:	e1740009 	cmn	r4, r9

0000339c <interrupt_661>:
    339c:	c0591b59 	subsgt	r1, r9, r9, asr fp

000033a0 <l3143>:
    33a0:	c0c5803b 	sbcgt	r8, r5, fp, lsr r0

000033a4 <l3144>:
    33a4:	e1130003 	tst	r3, r3

000033a8 <l3145>:
    33a8:	e15db1d2 	ldrsb	fp, [sp, #-18]	; 0xffffffee

000033ac <l3146>:
    33ac:	2088718b 	addcs	r7, r8, fp, lsl #3

000033b0 <l3147>:
    33b0:	4068400e 	rsbmi	r4, r8, lr

000033b4 <l3148>:
    33b4:	75cd2001 	strbvc	r2, [sp, #1]

000033b8 <l3149>:
    33b8:	0137000e 	teqeq	r7, lr

000033bc <l3150>:
    33bc:	e3a0e02e 	mov	lr, #46	; 0x2e

000033c0 <l3151>:
    33c0:	174da00e 	strbne	sl, [sp, -lr]

000033c4 <l3152>:
    33c4:	e044a952 	sub	sl, r4, r2, asr r9

000033c8 <l3153>:
    33c8:	e3a0b008 	mov	fp, #8

000033cc <l3154>:
    33cc:	e73db00b 	ldr	fp, [sp, -fp]!

000033d0 <l3155>:
    33d0:	e0d83d8a 	sbcs	r3, r8, sl, lsl #27

000033d4 <l3156>:
    33d4:	31f06739 	mvnscc	r6, r9, lsr r7

000033d8 <interrupt_476>:
    33d8:	c15d90b8 	ldrhgt	r9, [sp, #-8]

000033dc <interrupt_12>:
    33dc:	e3a08000 	mov	r8, #0

000033e0 <l3159>:
    33e0:	e69d4008 	ldr	r4, [sp], r8

000033e4 <l3160>:
    33e4:	e0525065 	subs	r5, r2, r5, rrx

000033e8 <interrupt_780>:
    33e8:	05cd600b 	strbeq	r6, [sp, #11]

000033ec <l3162>:
    33ec:	e3a07003 	mov	r7, #3

000033f0 <l3163>:
    33f0:	e75d1007 	ldrb	r1, [sp, -r7]

000033f4 <l3164>:
    33f4:	e1500008 	cmp	r0, r8

000033f8 <l3165>:
    33f8:	e022806e 	eor	r8, r2, lr, rrx

000033fc <interrupt_670>:
    33fc:	e15d73df 	ldrsb	r7, [sp, #-63]	; 0xffffffc1

00003400 <l3167>:
    3400:	e3a0a032 	mov	sl, #50	; 0x32

00003404 <l3168>:
    3404:	074de00a 	strbeq	lr, [sp, -sl]

00003408 <l3169>:
    3408:	e15dc2da 	ldrsb	ip, [sp, #-42]	; 0xffffffd6

0000340c <l3170>:
    340c:	ea000003 	b	3420 <interrupt_752>

00003410 <l3171>:
    3410:	e2801089 	add	r1, r0, #137	; 0x89

00003414 <l3172>:
    3414:	a0c8c06e 	sbcge	ip, r8, lr, rrx

00003418 <l3173>:
    3418:	d16f9f10 	clzle	r9, r0

0000341c <l3174>:
    341c:	ea000000 	b	3424 <l3176>

00003420 <interrupt_752>:
    3420:	eafffffb 	b	3414 <l3172>

00003424 <l3176>:
    3424:	91580004 	cmpls	r8, r4

00003428 <interrupt_160>:
    3428:	754d0019 	strbvc	r0, [sp, #-25]

0000342c <l3178>:
    342c:	81e02001 	mvnhi	r2, r1

00003430 <interrupt_4>:
    3430:	e3a0602d 	mov	r6, #45	; 0x2d

00003434 <l3180>:
    3434:	e75d9006 	ldrb	r9, [sp, -r6]

00003438 <interrupt_147>:
    3438:	11cca607 	bicne	sl, ip, r7, lsl #12

0000343c <l3182>:
    343c:	e0e22f63 	rsc	r2, r2, r3, ror #30

00003440 <l3183>:
    3440:	b21c629b 	andslt	r6, ip, #-1342177271	; 0xb0000009

00003444 <interrupt_592>:
    3444:	b358085a 	cmplt	r8, #5898240	; 0x5a0000

00003448 <l3185>:
    3448:	e13e0516 	teq	lr, r6, lsl r5

0000344c <interrupt_274>:
    344c:	c24191f1 	subgt	r9, r1, #1073741884	; 0x4000003c

00003450 <l3187>:
    3450:	e119000f 	tst	r9, pc

00003454 <l3188>:
    3454:	e3a03008 	mov	r3, #8

00003458 <l3189>:
    3458:	e18d10b3 	strh	r1, [sp, r3]

0000345c <l3190>:
    345c:	ea000004 	b	3474 <l3196>

00003460 <l3191>:
    3460:	e28010bd 	add	r1, r0, #189	; 0xbd

00003464 <l3192>:
    3464:	e16f6f13 	clz	r6, r3

00003468 <interrupt_492>:
    3468:	e170068b 	cmn	r0, fp, lsl #13

0000346c <l3194>:
    346c:	53770552 	cmnpl	r7, #343932928	; 0x14800000

00003470 <l3195>:
    3470:	ea000000 	b	3478 <l3197>

00003474 <l3196>:
    3474:	eafffffa 	b	3464 <l3192>

00003478 <l3197>:
    3478:	d05e3061 	subsle	r3, lr, r1, rrx

0000347c <l3198>:
    347c:	e59fb000 	ldr	fp, [pc]	; 3484 <interrupt_111>

00003480 <l3199>:
    3480:	ea000000 	b	3488 <l3201>

00003484 <interrupt_111>:
    3484:	000fffd0 	.word	0x000fffd0

00003488 <l3201>:
    3488:	a14ba092 	swpbge	sl, r2, [fp]

0000348c <l3202>:
    348c:	e93d0c9c 	ldmdb	sp!, {r2, r3, r4, r7, sl, fp}

00003490 <l3203>:
    3490:	e3a0200a 	mov	r2, #10

00003494 <l3204>:
    3494:	319d90f2 	ldrshcc	r9, [sp, r2]

00003498 <interrupt_903>:
    3498:	000eac39 	andeq	sl, lr, r9, lsr ip

0000349c <l3206>:
    349c:	e59f5000 	ldr	r5, [pc]	; 34a4 <l3208>

000034a0 <l3207>:
    34a0:	ea000000 	b	34a8 <l3209>

000034a4 <l3208>:
    34a4:	000fffa0 	.word	0x000fffa0

000034a8 <l3209>:
    34a8:	81451094 	swpbhi	r1, r4, [r5]

000034ac <l3210>:
    34ac:	e92d0802 	push	{r1, fp}

000034b0 <l3211>:
    34b0:	e5dd3014 	ldrb	r3, [sp, #20]

000034b4 <l3212>:
    34b4:	e1d8a907 	bics	sl, r8, r7, lsl #18

000034b8 <l3213>:
    34b8:	e15b028e 	cmp	fp, lr, lsl #5

000034bc <l3214>:
    34bc:	23360893 	teqcs	r6, #9633792	; 0x930000

000034c0 <l3215>:
    34c0:	e0c01066 	sbc	r1, r0, r6, rrx

000034c4 <l3216>:
    34c4:	e26b20e8 	rsb	r2, fp, #232	; 0xe8

000034c8 <l3217>:
    34c8:	e0a9621c 	adc	r6, r9, ip, lsl r2

000034cc <l3218>:
    34cc:	e15d30b6 	ldrh	r3, [sp, #-6]

000034d0 <l3219>:
    34d0:	e93d1000 	ldmdb	sp!, {ip}

000034d4 <l3220>:
    34d4:	e16f9f1c 	clz	r9, ip

000034d8 <interrupt_746>:
    34d8:	e16fcf10 	clz	ip, r0

000034dc <l3222>:
    34dc:	3affffff 	bcc	34e0 <l3223>

000034e0 <l3223>:
    34e0:	627e3ef5 	rsbsvs	r3, lr, #3920	; 0xf50

000034e4 <l3224>:
    34e4:	904bc375 	subls	ip, fp, r5, ror r3

000034e8 <l3225>:
    34e8:	aa000005 	bge	3504 <l3232>

000034ec <l3226>:
    34ec:	e2801097 	add	r1, r0, #151	; 0x97

000034f0 <l3227>:
    34f0:	61801009 	orrvs	r1, r0, r9

000034f4 <l3228>:
    34f4:	516f7f12 	clzpl	r7, r2

000034f8 <interrupt_540>:
    34f8:	e0942c18 	adds	r2, r4, r8, lsl ip

000034fc <l3230>:
    34fc:	01f07e72 	mvnseq	r7, r2, ror lr

00003500 <interrupt_276>:
    3500:	ea000000 	b	3508 <l3233>

00003504 <l3232>:
    3504:	eafffff9 	b	34f0 <l3227>

00003508 <l3233>:
    3508:	e5bd2018 	ldr	r2, [sp, #24]!

0000350c <l3234>:
    350c:	e079c150 	rsbs	ip, r9, r0, asr r1

00003510 <l3235>:
    3510:	e3a0b019 	mov	fp, #25

00003514 <l3236>:
    3514:	211da0db 	ldrsbcs	sl, [sp, -fp]

00003518 <l3237>:
    3518:	e1a00000 	nop			; (mov r0, r0)

0000351c <l3238>:
    351c:	e3a01018 	mov	r1, #24

00003520 <l3239>:
    3520:	e72d7001 	str	r7, [sp, -r1]!

00003524 <interrupt_997>:
    3524:	b2297602 	eorlt	r7, r9, #2097152	; 0x200000

00003528 <l3241>:
    3528:	a1926063 	orrsge	r6, r2, r3, rrx

0000352c <l3242>:
    352c:	e14d51b6 	strh	r5, [sp, #-22]	; 0xffffffea

00003530 <l3243>:
    3530:	e3a07004 	mov	r7, #4

00003534 <l3244>:
    3534:	e72d7007 	str	r7, [sp, -r7]!

00003538 <l3245>:
    3538:	c3f0eac3 	mvnsgt	lr, #798720	; 0xc3000

0000353c <l3246>:
    353c:	e5cd000c 	strb	r0, [sp, #12]

00003540 <l3247>:
    3540:	e16f3f1b 	clz	r3, fp

00003544 <l3248>:
    3544:	e1e09006 	mvn	r9, r6

00003548 <l3249>:
    3548:	22338015 	eorscs	r8, r3, #21

0000354c <l3250>:
    354c:	20944006 	addscs	r4, r4, r6

00003550 <l3251>:
    3550:	b112000c 	tstlt	r2, ip

00003554 <interrupt_672>:
    3554:	e11a0003 	tst	sl, r3

00003558 <l3253>:
    3558:	b14d50b2 	strhlt	r5, [sp, #-2]

0000355c <l3254>:
    355c:	e3a01014 	mov	r1, #20

00003560 <l3255>:
    3560:	111d80b1 	ldrhne	r8, [sp, -r1]

00003564 <l3256>:
    3564:	e1100c25 	tst	r0, r5, lsr #24

00003568 <l3257>:
    3568:	e0892834 	add	r2, r9, r4, lsr r8

0000356c <interrupt_89>:
    356c:	e1a00000 	nop			; (mov r0, r0)

00003570 <l3259>:
    3570:	e8bd0d48 	pop	{r3, r6, r8, sl, fp}

00003574 <interrupt_565>:
    3574:	2217b819 	andscs	fp, r7, #1638400	; 0x190000

00003578 <l3261>:
    3578:	e1dd81fc 	ldrsh	r8, [sp, #28]

0000357c <l3262>:
    357c:	e59f2000 	ldr	r2, [pc]	; 3584 <interrupt_41>

00003580 <l3263>:
    3580:	ea000000 	b	3588 <l3265>

00003584 <interrupt_41>:
    3584:	000fffa8 	.word	0x000fffa8

00003588 <l3265>:
    3588:	e1426093 	swpb	r6, r3, [r2]

0000358c <l3266>:
    358c:	e59f0000 	ldr	r0, [pc]	; 3594 <l3268>

00003590 <l3267>:
    3590:	ea000000 	b	3598 <interrupt_337>

00003594 <l3268>:
    3594:	000fffd8 	.word	0x000fffd8

00003598 <interrupt_337>:
    3598:	e1001093 	swp	r1, r3, [r0]

0000359c <l3270>:
    359c:	550d302c 	strpl	r3, [sp, #-44]	; 0x2c

000035a0 <l3271>:
    35a0:	e50df020 	str	pc, [sp, #-32]

000035a4 <interrupt_292>:
    35a4:	25dd5007 	ldrbcs	r5, [sp, #7]

000035a8 <l3273>:
    35a8:	e0383918 	eors	r3, r8, r8, lsl r9

000035ac <l3274>:
    35ac:	e17b0127 	cmn	fp, r7, lsr #2

000035b0 <l3275>:
    35b0:	731005f7 	tstvc	r0, #1035993088	; 0x3dc00000

000035b4 <l3276>:
    35b4:	e51dc028 	ldr	ip, [sp, #-40]	; 0x28

000035b8 <l3277>:
    35b8:	e59fa000 	ldr	sl, [pc]	; 35c0 <interrupt_223>

000035bc <l3278>:
    35bc:	ea000000 	b	35c4 <interrupt_128>

000035c0 <interrupt_223>:
    35c0:	000fffc8 	.word	0x000fffc8

000035c4 <interrupt_128>:
    35c4:	c14a3096 	swpbgt	r3, r6, [sl]

000035c8 <l3281>:
    35c8:	e0d4738c 	sbcs	r7, r4, ip, lsl #7

000035cc <l3282>:
    35cc:	e3a0700a 	mov	r7, #10

000035d0 <l3283>:
    35d0:	e19d70b7 	ldrh	r7, [sp, r7]

000035d4 <l3284>:
    35d4:	e3a06010 	mov	r6, #16

000035d8 <l3285>:
    35d8:	e60d5006 	str	r5, [sp], -r6

000035dc <l3286>:
    35dc:	916fef1b 	clzls	lr, fp

000035e0 <l3287>:
    35e0:	31a03758 	asrcc	r3, r8, r7

000035e4 <l3288>:
    35e4:	75cd2028 	strbvc	r2, [sp, #40]	; 0x28

000035e8 <l3289>:
    35e8:	05dd9005 	ldrbeq	r9, [sp, #5]

000035ec <l3290>:
    35ec:	50198380 	andspl	r8, r9, r0, lsl #7

000035f0 <l3291>:
    35f0:	e16fcf16 	clz	ip, r6

000035f4 <l3292>:
    35f4:	e3a01016 	mov	r1, #22

000035f8 <l3293>:
    35f8:	419d50d1 	ldrsbmi	r5, [sp, r1]

000035fc <interrupt_564>:
    35fc:	e393a11a 	orrs	sl, r3, #-2147483642	; 0x80000006

00003600 <interrupt_222>:
    3600:	e1dec00f 	bics	ip, lr, pc

00003604 <l3296>:
    3604:	e59f9000 	ldr	r9, [pc]	; 360c <l3298>

00003608 <l3297>:
    3608:	ea000000 	b	3610 <l3299>

0000360c <l3298>:
    360c:	000fffa0 	.word	0x000fffa0

00003610 <l3299>:
    3610:	e109c091 	swp	ip, r1, [r9]

00003614 <interrupt_868>:
    3614:	32766be9 	rsbscc	r6, r6, #238592	; 0x3a400

00003618 <l3301>:
    3618:	519a4008 	orrspl	r4, sl, r8

0000361c <l3302>:
    361c:	e16f1f1a 	clz	r1, sl

00003620 <l3303>:
    3620:	71dd51ba 	ldrhvc	r5, [sp, #26]

00003624 <l3304>:
    3624:	e1dd21db 	ldrsb	r2, [sp, #27]

00003628 <l3305>:
    3628:	21d68f64 	bicscs	r8, r6, r4, ror #30

0000362c <l3306>:
    362c:	e1840007 	orr	r0, r4, r7

00003630 <l3307>:
    3630:	e59f1000 	ldr	r1, [pc]	; 3638 <interrupt_53>

00003634 <interrupt_718>:
    3634:	ea000000 	b	363c <l3310>

00003638 <interrupt_53>:
    3638:	000fffdc 	.word	0x000fffdc

0000363c <l3310>:
    363c:	6141509e 	swpbvs	r5, lr, [r1]

00003640 <interrupt_43>:
    3640:	e9ad0002 	stmib	sp!, {r1}

00003644 <l3312>:
    3644:	13b0e917 	movsne	lr, #376832	; 0x5c000

00003648 <l3313>:
    3648:	33b0390e 	movscc	r3, #229376	; 0x38000

0000364c <l3314>:
    364c:	e3a0a01c 	mov	sl, #28

00003650 <l3315>:
    3650:	918d80ba 	strhls	r8, [sp, sl]

00003654 <l3316>:
    3654:	e096691e 	adds	r6, r6, lr, lsl r9

00003658 <l3317>:
    3658:	e1f0145c 	mvns	r1, ip, asr r4

0000365c <l3318>:
    365c:	e3a09003 	mov	r9, #3

00003660 <l3319>:
    3660:	375d0009 	ldrbcc	r0, [sp, -r9]

00003664 <l3320>:
    3664:	e1f0854b 	mvns	r8, fp, asr #10

00003668 <l3321>:
    3668:	e49db004 	pop	{fp}		; (ldr fp, [sp], #4)

0000366c <l3322>:
    366c:	e98de820 	stmib	sp, {r5, fp, sp, lr, pc}

00003670 <l3323>:
    3670:	e3a03026 	mov	r3, #38	; 0x26

00003674 <l3324>:
    3674:	519db0f3 	ldrshpl	fp, [sp, r3]

00003678 <l3325>:
    3678:	d35b0c9a 	cmple	fp, #39424	; 0x9a00

0000367c <l3326>:
    367c:	e3a07018 	mov	r7, #24

00003680 <interrupt_405>:
    3680:	e7bd7007 	ldr	r7, [sp, r7]!

00003684 <l3328>:
    3684:	3057e00a 	subscc	lr, r7, sl

00003688 <l3329>:
    3688:	e92d44c0 	push	{r6, r7, sl, lr}

0000368c <l3330>:
    368c:	027730f0 	rsbseq	r3, r7, #240	; 0xf0

00003690 <l3331>:
    3690:	e3a07022 	mov	r7, #34	; 0x22

00003694 <l3332>:
    3694:	e11d70b7 	ldrh	r7, [sp, -r7]

00003698 <l3333>:
    3698:	b2706a1e 	rsbslt	r6, r0, #122880	; 0x1e000

0000369c <interrupt_10>:
    369c:	e15b0061 	cmp	fp, r1, rrx

000036a0 <l3335>:
    36a0:	098d1681 	stmibeq	sp, {r0, r7, r9, sl, ip}

000036a4 <l3336>:
    36a4:	d252c0e4 	subsle	ip, r2, #228	; 0xe4

000036a8 <interrupt_808>:
    36a8:	502f7006 	eorpl	r7, pc, r6

000036ac <l3338>:
    36ac:	31b04006 	movscc	r4, r6

000036b0 <l3339>:
    36b0:	e14d70b8 	strh	r7, [sp, #-8]

000036b4 <l3340>:
    36b4:	918b27a6 	orrls	r2, fp, r6, lsr #15

000036b8 <l3341>:
    36b8:	016fef16 	clzeq	lr, r6

000036bc <l3342>:
    36bc:	e392b713 	orrs	fp, r2, #4980736	; 0x4c0000

000036c0 <l3343>:
    36c0:	e0f3b239 	rscs	fp, r3, r9, lsr r2

000036c4 <l3344>:
    36c4:	1a000002 	bne	36d4 <l3348>

000036c8 <l3345>:
    36c8:	e28010a6 	add	r1, r0, #166	; 0xa6

000036cc <l3346>:
    36cc:	e37f0266 	cmn	pc, #1610612742	; 0x60000006

000036d0 <l3347>:
    36d0:	ea000000 	b	36d8 <interrupt_230>

000036d4 <l3348>:
    36d4:	eafffffc 	b	36cc <l3346>

000036d8 <interrupt_230>:
    36d8:	03760a07 	cmneq	r6, #28672	; 0x7000

000036dc <l3350>:
    36dc:	ea000000 	b	36e4 <l3352>

000036e0 <l3351>:
    36e0:	d1790481 	cmnle	r9, r1, lsl #9

000036e4 <l3352>:
    36e4:	716fbf18 	clzvc	fp, r8

000036e8 <interrupt_478>:
    36e8:	e02f900f 	eor	r9, pc, pc

000036ec <interrupt_701>:
    36ec:	e15d50b8 	ldrh	r5, [sp, #-8]

000036f0 <l3355>:
    36f0:	01530006 	cmpeq	r3, r6

000036f4 <l3356>:
    36f4:	b1370005 	teqlt	r7, r5

000036f8 <l3357>:
    36f8:	708ab003 	addvc	fp, sl, r3

000036fc <l3358>:
    36fc:	e19ce652 	orrs	lr, ip, r2, asr r6

00003700 <l3359>:
    3700:	e52d000c 	str	r0, [sp, #-12]!

00003704 <l3360>:
    3704:	71f0bb14 	mvnsvc	fp, r4, lsl fp

00003708 <l3361>:
    3708:	228ee606 	addcs	lr, lr, #6291456	; 0x600000

0000370c <l3362>:
    370c:	e3a04012 	mov	r4, #18

00003710 <l3363>:
    3710:	b75d0004 	ldrblt	r0, [sp, -r4]

00003714 <l3364>:
    3714:	e3a07008 	mov	r7, #8

00003718 <l3365>:
    3718:	510d00b7 	strhpl	r0, [sp, -r7]

0000371c <l3366>:
    371c:	e82d9094 	stmda	sp!, {r2, r4, r7, ip, pc}

00003720 <l3367>:
    3720:	e02b500f 	eor	r5, fp, pc

00003724 <l3368>:
    3724:	e1f0b6a3 	mvns	fp, r3, lsr #13

00003728 <interrupt_351>:
    3728:	ea000003 	b	373c <l3374>

0000372c <l3370>:
    372c:	113b0a17 	teqne	fp, r7, lsl sl

00003730 <l3371>:
    3730:	e1e0c00b 	mvn	ip, fp

00003734 <l3372>:
    3734:	51ce8869 	bicpl	r8, lr, r9, ror #16

00003738 <l3373>:
    3738:	e16f5f13 	clz	r5, r3

0000373c <l3374>:
    373c:	21e0100e 	mvncs	r1, lr

00003740 <l3375>:
    3740:	71d73ae0 	bicsvc	r3, r7, r0, ror #21

00003744 <interrupt_637>:
    3744:	b0750030 	rsbslt	r0, r5, r0, lsr r0

00003748 <l3377>:
    3748:	e1e0c1a3 	mvn	ip, r3, lsr #3

0000374c <l3378>:
    374c:	e17a0faf 	cmn	sl, pc, lsr #31

00003750 <l3379>:
    3750:	e59f2000 	ldr	r2, [pc]	; 3758 <l3381>

00003754 <l3380>:
    3754:	ea000000 	b	375c <l3382>

00003758 <l3381>:
    3758:	000fffb4 	.word	0x000fffb4

0000375c <l3382>:
    375c:	d1027097 	swple	r7, r7, [r2]

00003760 <interrupt_264>:
    3760:	43780c1d 	cmnmi	r8, #7424	; 0x1d00

00003764 <l3384>:
    3764:	d16f7f16 	clzle	r7, r6

00003768 <l3385>:
    3768:	e2603017 	rsb	r3, r0, #23

0000376c <interrupt_789>:
    376c:	e04c4859 	sub	r4, ip, r9, asr r8

00003770 <l3387>:
    3770:	e59fc000 	ldr	ip, [pc]	; 3778 <interrupt_887>

00003774 <l3388>:
    3774:	ea000000 	b	377c <l3390>

00003778 <interrupt_887>:
    3778:	000fffb0 	.word	0x000fffb0

0000377c <l3390>:
    377c:	014c4093 	swpbeq	r4, r3, [ip]

00003780 <l3391>:
    3780:	9268bb2d 	rsbls	fp, r8, #46080	; 0xb400

00003784 <l3392>:
    3784:	61110066 	tstvs	r1, r6, rrx

00003788 <l3393>:
    3788:	e16f2f1a 	clz	r2, sl

0000378c <interrupt_739>:
    378c:	e3a0e028 	mov	lr, #40	; 0x28

00003790 <l3395>:
    3790:	e7ad600e 	str	r6, [sp, lr]!

00003794 <l3396>:
    3794:	0116000c 	tsteq	r6, ip

00003798 <interrupt_809>:
    3798:	e59f8000 	ldr	r8, [pc]	; 37a0 <l3399>

0000379c <interrupt_463>:
    379c:	ea000000 	b	37a4 <l3400>

000037a0 <l3399>:
    37a0:	000fffe4 	.word	0x000fffe4

000037a4 <l3400>:
    37a4:	e148c091 	swpb	ip, r1, [r8]

000037a8 <interrupt_197>:
    37a8:	d0ee4009 	rscle	r4, lr, r9

000037ac <l3402>:
    37ac:	b0dea359 	sbcslt	sl, lr, r9, asr r3

000037b0 <l3403>:
    37b0:	53f04963 	mvnspl	r4, #1622016	; 0x18c000

000037b4 <l3404>:
    37b4:	e080400b 	add	r4, r0, fp

000037b8 <l3405>:
    37b8:	e1f03068 	mvns	r3, r8, rrx

000037bc <l3406>:
    37bc:	e59f5000 	ldr	r5, [pc]	; 37c4 <l3408>

000037c0 <l3407>:
    37c0:	ea000000 	b	37c8 <l3409>

000037c4 <l3408>:
    37c4:	000fffcc 	.word	0x000fffcc

000037c8 <l3409>:
    37c8:	e145c09b 	swpb	ip, fp, [r5]

000037cc <l3410>:
    37cc:	80265062 	eorhi	r5, r6, r2, rrx

000037d0 <interrupt_614>:
    37d0:	c1c38060 	bicgt	r8, r3, r0, rrx

000037d4 <interrupt_267>:
    37d4:	e52da004 	push	{sl}		; (str sl, [sp, #-4]!)

000037d8 <l3413>:
    37d8:	c0e79005 	rscgt	r9, r7, r5

000037dc <l3414>:
    37dc:	e3a0b004 	mov	fp, #4

000037e0 <interrupt_570>:
    37e0:	e7cd400b 	strb	r4, [sp, fp]

000037e4 <l3416>:
    37e4:	e056691c 	subs	r6, r6, ip, lsl r9

000037e8 <l3417>:
    37e8:	e3a0b00e 	mov	fp, #14

000037ec <interrupt_130>:
    37ec:	c11da0fb 	ldrshgt	sl, [sp, -fp]

000037f0 <l3419>:
    37f0:	e41d1010 	ldr	r1, [sp], #-16

000037f4 <interrupt_20>:
    37f4:	204e400a 	subcs	r4, lr, sl

000037f8 <l3421>:
    37f8:	32419018 	subcc	r9, r1, #24

000037fc <l3422>:
    37fc:	e181a219 	orr	sl, r1, r9, lsl r2

00003800 <l3423>:
    3800:	491d4284 	ldmdbmi	sp, {r2, r7, r9, lr}

00003804 <l3424>:
    3804:	e3a00011 	mov	r0, #17

00003808 <interrupt_173>:
    3808:	e74d9000 	strb	r9, [sp, -r0]

0000380c <l3426>:
    380c:	ea000000 	b	3814 <interrupt_141>

00003810 <l3427>:
    3810:	90809005 	addls	r9, r0, r5

00003814 <interrupt_141>:
    3814:	e02a506c 	eor	r5, sl, ip, rrx

00003818 <l3429>:
    3818:	e172092c 	cmn	r2, ip, lsr #18

0000381c <l3430>:
    381c:	e3a07012 	mov	r7, #18

00003820 <l3431>:
    3820:	611de0f7 	ldrshvs	lr, [sp, -r7]

00003824 <l3432>:
    3824:	70b4990b 	adcsvc	r9, r4, fp, lsl #18

00003828 <l3433>:
    3828:	e3a0a008 	mov	sl, #8

0000382c <interrupt_55>:
    382c:	e79de00a 	ldr	lr, [sp, sl]

00003830 <l3435>:
    3830:	351d5018 	ldrcc	r5, [sp, #-24]

00003834 <l3436>:
    3834:	e0e52060 	rsc	r2, r5, r0, rrx

00003838 <l3437>:
    3838:	e1a00000 	nop			; (mov r0, r0)

0000383c <l3438>:
    383c:	e061800c 	rsb	r8, r1, ip

00003840 <interrupt_673>:
    3840:	e0389006 	eors	r9, r8, r6

00003844 <l3440>:
    3844:	005c7003 	subseq	r7, ip, r3

00003848 <interrupt_186>:
    3848:	43b09322 	movsmi	r9, #-2013265920	; 0x88000000

0000384c <l3442>:
    384c:	e3380621 	teq	r8, #34603008	; 0x2100000

00003850 <l3443>:
    3850:	01e0c5c4 	mvneq	ip, r4, asr #11

00003854 <l3444>:
    3854:	e3a01010 	mov	r1, #16

00003858 <l3445>:
    3858:	611de0b1 	ldrhvs	lr, [sp, -r1]

0000385c <interrupt_983>:
    385c:	b2bf41f5 	adcslt	r4, pc, #1073741885	; 0x4000003d

00003860 <l3447>:
    3860:	40e5308f 	rscmi	r3, r5, pc, lsl #1

00003864 <l3448>:
    3864:	e3f04b32 	mvns	r4, #51200	; 0xc800

00003868 <l3449>:
    3868:	e0467de9 	sub	r7, r6, r9, ror #27

0000386c <l3450>:
    386c:	30b9e27c 	adcscc	lr, r9, ip, ror r2

00003870 <l3451>:
    3870:	e04e9721 	sub	r9, lr, r1, lsr #14

00003874 <interrupt_947>:
    3874:	30b99064 	adcscc	r9, r9, r4, rrx

00003878 <l3453>:
    3878:	e59f2000 	ldr	r2, [pc]	; 3880 <l3455>

0000387c <l3454>:
    387c:	ea000000 	b	3884 <l3456>

00003880 <l3455>:
    3880:	000fffe0 	.word	0x000fffe0

00003884 <l3456>:
    3884:	8102909a 	swphi	r9, sl, [r2]

00003888 <l3457>:
    3888:	e16f6f17 	clz	r6, r7

0000388c <l3458>:
    388c:	e83d0202 	ldmda	sp!, {r1, r9}

00003890 <l3459>:
    3890:	e48d0010 	str	r0, [sp], #16

00003894 <l3460>:
    3894:	e92d1442 	push	{r1, r6, sl, ip}

00003898 <l3461>:
    3898:	e0e24317 	rsc	r4, r2, r7, lsl r3

0000389c <l3462>:
    389c:	729836ca 	addsvc	r3, r8, #211812352	; 0xca00000

000038a0 <l3463>:
    38a0:	907f800f 	rsbsls	r8, pc, pc

000038a4 <l3464>:
    38a4:	e1dd22bc 	ldrh	r2, [sp, #44]	; 0x2c

000038a8 <l3465>:
    38a8:	b35b0726 	cmplt	fp, #9961472	; 0x980000

000038ac <l3466>:
    38ac:	e16f0f15 	clz	r0, r5

000038b0 <l3467>:
    38b0:	624e4156 	subvs	r4, lr, #-2147483627	; 0x80000015

000038b4 <l3468>:
    38b4:	a18cb973 	orrge	fp, ip, r3, ror r9

000038b8 <l3469>:
    38b8:	e1a00000 	nop			; (mov r0, r0)

000038bc <interrupt_993>:
    38bc:	81750000 	cmnhi	r5, r0

000038c0 <interrupt_485>:
    38c0:	e3a07030 	mov	r7, #48	; 0x30

000038c4 <l3472>:
    38c4:	e18d10b7 	strh	r1, [sp, r7]

000038c8 <l3473>:
    38c8:	e92d2000 	stmfd	sp!, {sp}

000038cc <interrupt_74>:
    38cc:	e59f8000 	ldr	r8, [pc]	; 38d4 <l3476>

000038d0 <interrupt_32>:
    38d0:	ea000000 	b	38d8 <l3477>

000038d4 <l3476>:
    38d4:	000fffb8 	.word	0x000fffb8

000038d8 <l3477>:
    38d8:	b148109e 	swpblt	r1, lr, [r8]

000038dc <l3478>:
    38dc:	e59f4000 	ldr	r4, [pc]	; 38e4 <l3480>

000038e0 <l3479>:
    38e0:	ea000000 	b	38e8 <l3481>

000038e4 <l3480>:
    38e4:	000fffc4 	.word	0x000fffc4

000038e8 <l3481>:
    38e8:	01442098 	swpbeq	r2, r8, [r4]

000038ec <l3482>:
    38ec:	71390002 	teqvc	r9, r2

000038f0 <l3483>:
    38f0:	e59f5000 	ldr	r5, [pc]	; 38f8 <interrupt_732>

000038f4 <l3484>:
    38f4:	ea000000 	b	38fc <l3486>

000038f8 <interrupt_732>:
    38f8:	000fffb0 	.word	0x000fffb0

000038fc <l3486>:
    38fc:	11059097 	swpne	r9, r7, [r5]

00003900 <l3487>:
    3900:	ea000007 	b	3924 <l3496>

00003904 <l3488>:
    3904:	e28010b6 	add	r1, r0, #182	; 0xb6

00003908 <l3489>:
    3908:	e04b0006 	sub	r0, fp, r6

0000390c <l3490>:
    390c:	c082500b 	addgt	r5, r2, fp

00003910 <l3491>:
    3910:	502b006b 	eorpl	r0, fp, fp, rrx

00003914 <l3492>:
    3914:	e0d6400a 	sbcs	r4, r6, sl

00003918 <l3493>:
    3918:	e1dbc066 	bics	ip, fp, r6, rrx

0000391c <l3494>:
    391c:	71b00b5e 	asrsvc	r0, lr, fp

00003920 <l3495>:
    3920:	ea000000 	b	3928 <l3497>

00003924 <l3496>:
    3924:	eafffff7 	b	3908 <l3489>

00003928 <l3497>:
    3928:	e28a9432 	add	r9, sl, #838860800	; 0x32000000

0000392c <interrupt_316>:
    392c:	e1c89800 	bic	r9, r8, r0, lsl #16

00003930 <l3499>:
    3930:	e13c018e 	teq	ip, lr, lsl #3

00003934 <interrupt_330>:
    3934:	e91d1000 	ldmdb	sp, {ip}

00003938 <l3501>:
    3938:	50eee061 	rscpl	lr, lr, r1, rrx

0000393c <l3502>:
    393c:	e3a03002 	mov	r3, #2

00003940 <l3503>:
    3940:	019dc0f3 	ldrsheq	ip, [sp, r3]

00003944 <interrupt_803>:
    3944:	e0fb2871 	rscs	r2, fp, r1, ror r8

00003948 <l3505>:
    3948:	116faf17 	clzne	sl, r7

0000394c <l3506>:
    394c:	e2f24a16 	rscs	r4, r2, #90112	; 0x16000

00003950 <l3507>:
    3950:	ba000002 	blt	3960 <l3511>

00003954 <l3508>:
    3954:	e2801062 	add	r1, r0, #98	; 0x62

00003958 <interrupt_902>:
    3958:	90c5806f 	sbcls	r8, r5, pc, rrx

0000395c <l3510>:
    395c:	ea000000 	b	3964 <l3512>

00003960 <l3511>:
    3960:	eafffffc 	b	3958 <interrupt_902>

00003964 <l3512>:
    3964:	e1d9506a 	bics	r5, r9, sl, rrx

00003968 <l3513>:
    3968:	781d0420 	ldmdavc	sp, {r5, sl}

0000396c <l3514>:
    396c:	e3a06000 	mov	r6, #0

00003970 <l3515>:
    3970:	e19d30b6 	ldrh	r3, [sp, r6]

00003974 <l3516>:
    3974:	73f00e4f 	mvnsvc	r0, #1264	; 0x4f0

00003978 <interrupt_812>:
    3978:	e17e0604 	cmn	lr, r4, lsl #12

0000397c <l3518>:
    397c:	e092ea21 	adds	lr, r2, r1, lsr #20

00003980 <l3519>:
    3980:	e3a01004 	mov	r1, #4

00003984 <interrupt_543>:
    3984:	918d40b1 	strhls	r4, [sp, r1]

00003988 <interrupt_400>:
    3988:	e3a0b02e 	mov	fp, #46	; 0x2e

0000398c <interrupt_719>:
    398c:	519d40db 	ldrsbpl	r4, [sp, fp]

00003990 <l3523>:
    3990:	91cd13b2 	strhls	r1, [sp, #50]	; 0x32

00003994 <l3524>:
    3994:	a011255a 	andsge	r2, r1, sl, asr r5

00003998 <l3525>:
    3998:	e1ddb3d0 	ldrsb	fp, [sp, #48]	; 0x30

0000399c <l3526>:
    399c:	e3c6762e 	bic	r7, r6, #48234496	; 0x2e00000

000039a0 <interrupt_120>:
    39a0:	e0e0e27e 	rsc	lr, r0, lr, ror r2

000039a4 <l3528>:
    39a4:	e1700007 	cmn	r0, r7

000039a8 <l3529>:
    39a8:	e1e0652a 	mvn	r6, sl, lsr #10

000039ac <l3530>:
    39ac:	e1a0177c 	ror	r1, ip, r7

000039b0 <l3531>:
    39b0:	e16f4f1c 	clz	r4, ip

000039b4 <l3532>:
    39b4:	e3a00010 	mov	r0, #16

000039b8 <l3533>:
    39b8:	e60dc000 	str	ip, [sp], -r0

000039bc <l3534>:
    39bc:	e0038076 	and	r8, r3, r6, ror r0

000039c0 <l3535>:
    39c0:	c1dd20fa 	ldrshgt	r2, [sp, #10]

000039c4 <l3536>:
    39c4:	158de03c 	strne	lr, [sp, #60]	; 0x3c

000039c8 <l3537>:
    39c8:	aa000002 	bge	39d8 <l3541>

000039cc <interrupt_481>:
    39cc:	e28010ec 	add	r1, r0, #236	; 0xec

000039d0 <l3539>:
    39d0:	e0316003 	eors	r6, r1, r3

000039d4 <interrupt_44>:
    39d4:	ea000000 	b	39dc <l3542>

000039d8 <l3541>:
    39d8:	eafffffc 	b	39d0 <l3539>

000039dc <l3542>:
    39dc:	e153006a 	cmp	r3, sl, rrx

000039e0 <l3543>:
    39e0:	e3a04024 	mov	r4, #36	; 0x24

000039e4 <interrupt_811>:
    39e4:	e7dd7004 	ldrb	r7, [sp, r4]

000039e8 <l3545>:
    39e8:	e3580721 	cmp	r8, #8650752	; 0x840000

000039ec <l3546>:
    39ec:	3217cdb2 	andscc	ip, r7, #11392	; 0x2c80

000039f0 <l3547>:
    39f0:	e59f6000 	ldr	r6, [pc]	; 39f8 <interrupt_917>

000039f4 <l3548>:
    39f4:	ea000000 	b	39fc <l3550>

000039f8 <interrupt_917>:
    39f8:	000fffcc 	.word	0x000fffcc

000039fc <l3550>:
    39fc:	e146b09a 	swpb	fp, sl, [r6]

00003a00 <l3551>:
    3a00:	606fa002 	rsbvs	sl, pc, r2

00003a04 <interrupt_882>:
    3a04:	e3a0a02e 	mov	sl, #46	; 0x2e

00003a08 <l3553>:
    3a08:	87cd600a 	strbhi	r6, [sp, sl]

00003a0c <l3554>:
    3a0c:	e3a08004 	mov	r8, #4

00003a10 <interrupt_338>:
    3a10:	e70d2008 	str	r2, [sp, -r8]

00003a14 <l3556>:
    3a14:	e2fa9f6b 	rscs	r9, sl, #428	; 0x1ac

00003a18 <l3557>:
    3a18:	80659006 	rsbhi	r9, r5, r6

00003a1c <interrupt_591>:
    3a1c:	32087bd9 	andcc	r7, r8, #222208	; 0x36400

00003a20 <l3559>:
    3a20:	e1a00008 	mov	r0, r8

00003a24 <interrupt_352>:
    3a24:	61cd93b8 	strhvs	r9, [sp, #56]	; 0x38

00003a28 <interrupt_411>:
    3a28:	0081747c 	addeq	r7, r1, ip, ror r4

00003a2c <l3562>:
    3a2c:	e59f2000 	ldr	r2, [pc]	; 3a34 <interrupt_477>

00003a30 <l3563>:
    3a30:	ea000000 	b	3a38 <l3565>

00003a34 <interrupt_477>:
    3a34:	000fffe0 	.word	0x000fffe0

00003a38 <l3565>:
    3a38:	e102e097 	swp	lr, r7, [r2]

00003a3c <l3566>:
    3a3c:	a5dde002 	ldrbge	lr, [sp, #2]

00003a40 <l3567>:
    3a40:	e48d1008 	str	r1, [sp], #8

00003a44 <l3568>:
    3a44:	e3a01030 	mov	r1, #48	; 0x30

00003a48 <l3569>:
    3a48:	e7ad4001 	str	r4, [sp, r1]!

00003a4c <l3570>:
    3a4c:	71540009 	cmpvc	r4, r9

00003a50 <l3571>:
    3a50:	e0f44730 	rscs	r4, r4, r0, lsr r7

00003a54 <l3572>:
    3a54:	e1330949 	teq	r3, r9, asr #18

00003a58 <interrupt_335>:
    3a58:	019a423c 	orrseq	r4, sl, ip, lsr r2

00003a5c <l3574>:
    3a5c:	00089003 	andeq	r9, r8, r3

00003a60 <l3575>:
    3a60:	1067e00f 	rsbne	lr, r7, pc

00003a64 <l3576>:
    3a64:	e59f3000 	ldr	r3, [pc]	; 3a6c <l3578>

00003a68 <l3577>:
    3a68:	ea000000 	b	3a70 <l3579>

00003a6c <l3578>:
    3a6c:	000fffc0 	.word	0x000fffc0

00003a70 <l3579>:
    3a70:	81432095 	swpbhi	r2, r5, [r3]

00003a74 <l3580>:
    3a74:	e15d32da 	ldrsb	r3, [sp, #-42]	; 0xffffffd6

00003a78 <l3581>:
    3a78:	ba000005 	blt	3a94 <l3588>

00003a7c <l3582>:
    3a7c:	e16f1f10 	clz	r1, r0

00003a80 <l3583>:
    3a80:	01500002 	cmpeq	r0, r2

00003a84 <l3584>:
    3a84:	e16faf17 	clz	sl, r7

00003a88 <l3585>:
    3a88:	e1780a26 	cmn	r8, r6, lsr #20

00003a8c <l3586>:
    3a8c:	916f0f19 	clzls	r0, r9

00003a90 <l3587>:
    3a90:	c1e0761b 	mvngt	r7, fp, lsl r6

00003a94 <l3588>:
    3a94:	e1d31807 	bics	r1, r3, r7, lsl #16

00003a98 <interrupt_705>:
    3a98:	e3a00020 	mov	r0, #32

00003a9c <l3590>:
    3a9c:	e73d7000 	ldr	r7, [sp, -r0]!

00003aa0 <l3591>:
    3aa0:	e0d98009 	sbcs	r8, r9, r9

00003aa4 <l3592>:
    3aa4:	60041009 	andvs	r1, r4, r9

00003aa8 <l3593>:
    3aa8:	30581009 	subscc	r1, r8, r9

00003aac <l3594>:
    3aac:	e3a0902c 	mov	r9, #44	; 0x2c

00003ab0 <l3595>:
    3ab0:	c19db0b9 	ldrhgt	fp, [sp, r9]

00003ab4 <l3596>:
    3ab4:	e1360669 	teq	r6, r9, ror #12

00003ab8 <l3597>:
    3ab8:	e3a04014 	mov	r4, #20

00003abc <l3598>:
    3abc:	b71d1004 	ldrlt	r1, [sp, -r4]

00003ac0 <l3599>:
    3ac0:	e17c0064 	cmn	ip, r4, rrx

00003ac4 <l3600>:
    3ac4:	e0229067 	eor	r9, r2, r7, rrx

00003ac8 <l3601>:
    3ac8:	e23a0912 	eors	r0, sl, #294912	; 0x48000

00003acc <l3602>:
    3acc:	e3a03014 	mov	r3, #20

00003ad0 <l3603>:
    3ad0:	87dd1003 	ldrbhi	r1, [sp, r3]

00003ad4 <l3604>:
    3ad4:	a231b207 	eorsge	fp, r1, #1879048192	; 0x70000000

00003ad8 <l3605>:
    3ad8:	e3a08018 	mov	r8, #24

00003adc <l3606>:
    3adc:	818d40b8 	strhhi	r4, [sp, r8]

00003ae0 <l3607>:
    3ae0:	955d3008 	ldrbls	r3, [sp, #-8]

00003ae4 <l3608>:
    3ae4:	e3a02028 	mov	r2, #40	; 0x28

00003ae8 <interrupt_892>:
    3ae8:	e78de002 	str	lr, [sp, r2]

00003aec <l3610>:
    3aec:	e59fa000 	ldr	sl, [pc]	; 3af4 <l3612>

00003af0 <l3611>:
    3af0:	ea000000 	b	3af8 <l3613>

00003af4 <l3612>:
    3af4:	000fffcc 	.word	0x000fffcc

00003af8 <l3613>:
    3af8:	c10ab099 	swpgt	fp, r9, [sl]

00003afc <l3614>:
    3afc:	e0179009 	ands	r9, r7, r9

00003b00 <interrupt_23>:
    3b00:	71cd11bc 	strhvc	r1, [sp, #28]

00003b04 <l3616>:
    3b04:	c2584d0e 	subsgt	r4, r8, #896	; 0x380

00003b08 <l3617>:
    3b08:	03f067d1 	mvnseq	r6, #54788096	; 0x3440000

00003b0c <l3618>:
    3b0c:	e0ef87ac 	rsc	r8, pc, ip, lsr #15

00003b10 <l3619>:
    3b10:	116f3f12 	clzne	r3, r2

00003b14 <l3620>:
    3b14:	411e0b57 	tstmi	lr, r7, asr fp

00003b18 <l3621>:
    3b18:	e3a0900c 	mov	r9, #12

00003b1c <l3622>:
    3b1c:	471d3009 	ldrmi	r3, [sp, -r9]

00003b20 <interrupt_266>:
    3b20:	83a03d2f 	movhi	r3, #3008	; 0xbc0

00003b24 <l3624>:
    3b24:	d16f3f14 	clzle	r3, r4

00003b28 <l3625>:
    3b28:	391d0408 	ldmdbcc	sp, {r3, sl}

00003b2c <l3626>:
    3b2c:	e2fe7b8a 	rscs	r7, lr, #141312	; 0x22800

00003b30 <interrupt_88>:
    3b30:	b09289e9 	addslt	r8, r2, r9, ror #19

00003b34 <interrupt_304>:
    3b34:	e3a0b00a 	mov	fp, #10

00003b38 <l3629>:
    3b38:	e19d00fb 	ldrsh	r0, [sp, fp]

00003b3c <l3630>:
    3b3c:	e0b1a473 	adcs	sl, r1, r3, ror r4

00003b40 <l3631>:
    3b40:	e1b0ac11 	lsls	sl, r1, ip

00003b44 <l3632>:
    3b44:	e83d1444 	ldmda	sp!, {r2, r6, sl, ip}

00003b48 <l3633>:
    3b48:	e16f7f19 	clz	r7, r9

00003b4c <l3634>:
    3b4c:	e59f5000 	ldr	r5, [pc]	; 3b54 <l3636>

00003b50 <interrupt_517>:
    3b50:	ea000000 	b	3b58 <l3637>

00003b54 <l3636>:
    3b54:	000fffb0 	.word	0x000fffb0

00003b58 <l3637>:
    3b58:	21057096 	swpcs	r7, r6, [r5]

00003b5c <l3638>:
    3b5c:	1a000003 	bne	3b70 <l3643>

00003b60 <l3639>:
    3b60:	d3330439 	teqle	r3, #956301312	; 0x39000000

00003b64 <l3640>:
    3b64:	e0139852 	ands	r9, r3, r2, asr r8

00003b68 <interrupt_717>:
    3b68:	e0f30be3 	rscs	r0, r3, r3, ror #23

00003b6c <l3642>:
    3b6c:	d0ee3224 	rscle	r3, lr, r4, lsr #4

00003b70 <l3643>:
    3b70:	e00e570f 	and	r5, lr, pc, lsl #14

00003b74 <l3644>:
    3b74:	e07ea06b 	rsbs	sl, lr, fp, rrx

00003b78 <l3645>:
    3b78:	d0ce503e 	sbcle	r5, lr, lr, lsr r0

00003b7c <l3646>:
    3b7c:	e059be56 	subs	fp, r9, r6, asr lr

00003b80 <l3647>:
    3b80:	1087700e 	addne	r7, r7, lr

00003b84 <l3648>:
    3b84:	516f0f1e 	clzpl	r0, lr

00003b88 <l3649>:
    3b88:	e89d0a37 	ldm	sp, {r0, r1, r2, r4, r5, r9, fp}

00003b8c <interrupt_237>:
    3b8c:	e3a06013 	mov	r6, #19

00003b90 <interrupt_959>:
    3b90:	67cd4006 	strbvs	r4, [sp, r6]

00003b94 <l3652>:
    3b94:	6076c002 	rsbsvs	ip, r6, r2

00003b98 <interrupt_35>:
    3b98:	a1dd63f2 	ldrshge	r6, [sp, #50]	; 0x32

00003b9c <l3654>:
    3b9c:	a27a3135 	rsbsge	r3, sl, #1073741837	; 0x4000000d

00003ba0 <l3655>:
    3ba0:	e3a0a000 	mov	sl, #0

00003ba4 <l3656>:
    3ba4:	e7bde00a 	ldr	lr, [sp, sl]!

00003ba8 <l3657>:
    3ba8:	e0d4744b 	sbcs	r7, r4, fp, asr #8

00003bac <interrupt_999>:
    3bac:	e3a05034 	mov	r5, #52	; 0x34

00003bb0 <l3659>:
    3bb0:	e69d5005 	ldr	r5, [sp], r5

00003bb4 <interrupt_704>:
    3bb4:	e59fc000 	ldr	ip, [pc]	; 3bbc <l3662>

00003bb8 <l3661>:
    3bb8:	ea000000 	b	3bc0 <l3663>

00003bbc <l3662>:
    3bbc:	000fffd0 	.word	0x000fffd0

00003bc0 <l3663>:
    3bc0:	214c2095 	swpbcs	r2, r5, [ip]

00003bc4 <l3664>:
    3bc4:	e11b0000 	tst	fp, r0

00003bc8 <l3665>:
    3bc8:	e13e0064 	teq	lr, r4, rrx

00003bcc <interrupt_150>:
    3bcc:	3069127a 	rsbcc	r1, r9, sl, ror r2

00003bd0 <l3667>:
    3bd0:	e187727c 	orr	r7, r7, ip, ror r2

00003bd4 <l3668>:
    3bd4:	60fba001 	rscsvs	sl, fp, r1

00003bd8 <l3669>:
    3bd8:	e1f05985 	mvns	r5, r5, lsl #19

00003bdc <l3670>:
    3bdc:	103161a1 	eorsne	r6, r1, r1, lsr #3

00003be0 <l3671>:
    3be0:	e14de3b4 	strh	lr, [sp, #-52]	; 0xffffffcc

00003be4 <l3672>:
    3be4:	e1a0bb40 	asr	fp, r0, #22

00003be8 <l3673>:
    3be8:	e1b0b263 	rors	fp, r3, #4

00003bec <l3674>:
    3bec:	e59fb000 	ldr	fp, [pc]	; 3bf4 <l3676>

00003bf0 <l3675>:
    3bf0:	ea000000 	b	3bf8 <l3677>

00003bf4 <l3676>:
    3bf4:	000fffc4 	.word	0x000fffc4

00003bf8 <l3677>:
    3bf8:	e14b5095 	swpb	r5, r5, [fp]

00003bfc <l3678>:
    3bfc:	e077e430 	rsbs	lr, r7, r0, lsr r4

00003c00 <l3679>:
    3c00:	e3a04028 	mov	r4, #40	; 0x28

00003c04 <l3680>:
    3c04:	e72df004 	str	pc, [sp, -r4]!

00003c08 <l3681>:
    3c08:	e08b2e71 	add	r2, fp, r1, ror lr

00003c0c <l3682>:
    3c0c:	e92d5500 	push	{r8, sl, ip, lr}

00003c10 <l3683>:
    3c10:	e1a00000 	nop			; (mov r0, r0)

00003c14 <interrupt_662>:
    3c14:	5049e338 	subpl	lr, r9, r8, lsr r3

00003c18 <interrupt_514>:
    3c18:	4a000003 	bmi	3c2c <l3690>

00003c1c <interrupt_179>:
    3c1c:	e280102e 	add	r1, r0, #46	; 0x2e

00003c20 <l3687>:
    3c20:	e3730113 	cmn	r3, #-1073741820	; 0xc0000004

00003c24 <l3688>:
    3c24:	8268b406 	rsbhi	fp, r8, #100663296	; 0x6000000

00003c28 <l3689>:
    3c28:	ea000000 	b	3c30 <l3691>

00003c2c <l3690>:
    3c2c:	eafffffb 	b	3c20 <l3687>

00003c30 <l3691>:
    3c30:	e48dc018 	str	ip, [sp], #24

00003c34 <l3692>:
    3c34:	e3a0300c 	mov	r3, #12

00003c38 <l3693>:
    3c38:	811da0f3 	ldrshhi	sl, [sp, -r3]

00003c3c <l3694>:
    3c3c:	e15d30d9 	ldrsb	r3, [sp, #-9]

00003c40 <l3695>:
    3c40:	a1897088 	orrge	r7, r9, r8, lsl #1

00003c44 <interrupt_980>:
    3c44:	11849c5c 	orrne	r9, r4, ip, asr ip

00003c48 <l3697>:
    3c48:	c5cdc019 	strbgt	ip, [sp, #25]

00003c4c <l3698>:
    3c4c:	83360d2f 	teqhi	r6, #3008	; 0xbc0

00003c50 <l3699>:
    3c50:	e137006e 	teq	r7, lr, rrx

00003c54 <l3700>:
    3c54:	e2d1ae1e 	sbcs	sl, r1, #480	; 0x1e0

00003c58 <l3701>:
    3c58:	733e0172 	teqvc	lr, #-2147483620	; 0x8000001c

00003c5c <l3702>:
    3c5c:	e59f4000 	ldr	r4, [pc]	; 3c64 <l3704>

00003c60 <l3703>:
    3c60:	ea000000 	b	3c68 <l3705>

00003c64 <l3704>:
    3c64:	000fffb8 	.word	0x000fffb8

00003c68 <l3705>:
    3c68:	e1041098 	swp	r1, r8, [r4]

00003c6c <l3706>:
    3c6c:	d1b00e71 	rorsle	r0, r1, lr

00003c70 <l3707>:
    3c70:	e8ad0260 	stmia	sp!, {r5, r6, r9}

00003c74 <l3708>:
    3c74:	e19b1d09 	orrs	r1, fp, r9, lsl #26

00003c78 <l3709>:
    3c78:	e3a0c01a 	mov	ip, #26

00003c7c <interrupt_963>:
    3c7c:	810dc0bc 	strhhi	ip, [sp, -ip]

00003c80 <interrupt_770>:
    3c80:	b3a0c00f 	movlt	ip, #15

00003c84 <l3712>:
    3c84:	e1dd40de 	ldrsb	r4, [sp, #14]

00003c88 <l3713>:
    3c88:	c0ef3b6f 	rscgt	r3, pc, pc, ror #22

00003c8c <interrupt_924>:
    3c8c:	31500b3c 	cmpcc	r0, ip, lsr fp

00003c90 <l3715>:
    3c90:	80f45004 	rscshi	r5, r4, r4

00003c94 <l3716>:
    3c94:	e59fc000 	ldr	ip, [pc]	; 3c9c <l3718>

00003c98 <interrupt_791>:
    3c98:	ea000000 	b	3ca0 <l3719>

00003c9c <l3718>:
    3c9c:	000fffa0 	.word	0x000fffa0

00003ca0 <l3719>:
    3ca0:	414ce095 	swpbmi	lr, r5, [ip]

00003ca4 <l3720>:
    3ca4:	e052630a 	subs	r6, r2, sl, lsl #6

00003ca8 <l3721>:
    3ca8:	e1350b53 	teq	r5, r3, asr fp

00003cac <l3722>:
    3cac:	e16faf13 	clz	sl, r3

00003cb0 <l3723>:
    3cb0:	e3a03016 	mov	r3, #22

00003cb4 <l3724>:
    3cb4:	e19d60f3 	ldrsh	r6, [sp, r3]

00003cb8 <l3725>:
    3cb8:	12a6bba3 	adcne	fp, r6, #166912	; 0x28c00

00003cbc <interrupt_216>:
    3cbc:	70545567 	subsvc	r5, r4, r7, ror #10

00003cc0 <l3727>:
    3cc0:	42a1c14d 	adcmi	ip, r1, #1073741843	; 0x40000013

00003cc4 <l3728>:
    3cc4:	e8ad0200 	stmia	sp!, {r9}

00003cc8 <l3729>:
    3cc8:	415d22be 	ldrhmi	r2, [sp, #-46]	; 0xffffffd2

00003ccc <l3730>:
    3ccc:	e3e062a2 	mvn	r6, #536870922	; 0x2000000a

00003cd0 <l3731>:
    3cd0:	e3a0c02c 	mov	ip, #44	; 0x2c

00003cd4 <l3732>:
    3cd4:	e73d300c 	ldr	r3, [sp, -ip]!

00003cd8 <l3733>:
    3cd8:	82d4e6df 	sbcshi	lr, r4, #233832448	; 0xdf00000

00003cdc <interrupt_435>:
    3cdc:	e1cde0b0 	strh	lr, [sp]

00003ce0 <l3735>:
    3ce0:	211b0c37 	tstcs	fp, r7, lsr ip

00003ce4 <l3736>:
    3ce4:	e59fe000 	ldr	lr, [pc]	; 3cec <l3738>

00003ce8 <l3737>:
    3ce8:	ea000000 	b	3cf0 <l3739>

00003cec <l3738>:
    3cec:	000fffa8 	.word	0x000fffa8

00003cf0 <l3739>:
    3cf0:	110e7093 	swpne	r7, r3, [lr]

00003cf4 <interrupt_849>:
    3cf4:	ea000006 	b	3d14 <interrupt_929>

00003cf8 <l3741>:
    3cf8:	e28010a7 	add	r1, r0, #167	; 0xa7

00003cfc <l3742>:
    3cfc:	e1590002 	cmp	r9, r2

00003d00 <interrupt_967>:
    3d00:	e3d1a567 	bics	sl, r1, #432013312	; 0x19c00000

00003d04 <l3744>:
    3d04:	e33f007f 	teq	pc, #127	; 0x7f

00003d08 <l3745>:
    3d08:	527b8baf 	rsbspl	r8, fp, #179200	; 0x2bc00

00003d0c <l3746>:
    3d0c:	9157088a 	cmpls	r7, sl, lsl #17

00003d10 <l3747>:
    3d10:	ea000000 	b	3d18 <l3749>

00003d14 <interrupt_929>:
    3d14:	eafffff8 	b	3cfc <l3742>

00003d18 <l3749>:
    3d18:	93e0a89d 	mvnls	sl, #10289152	; 0x9d0000

00003d1c <interrupt_488>:
    3d1c:	e1170774 	tst	r7, r4, ror r7

00003d20 <l3751>:
    3d20:	80681375 	rsbhi	r1, r8, r5, ror r3

00003d24 <l3752>:
    3d24:	e0faa284 	rscs	sl, sl, r4, lsl #5

00003d28 <interrupt_47>:
    3d28:	41dc7069 	bicsmi	r7, ip, r9, rrx

00003d2c <l3754>:
    3d2c:	e13b0005 	teq	fp, r5

00003d30 <l3755>:
    3d30:	32c70502 	sbccc	r0, r7, #8388608	; 0x800000

00003d34 <l3756>:
    3d34:	e9bd0200 	ldmib	sp!, {r9}

00003d38 <interrupt_859>:
    3d38:	ea000002 	b	3d48 <l3761>

00003d3c <interrupt_99>:
    3d3c:	e28010e2 	add	r1, r0, #226	; 0xe2

00003d40 <l3759>:
    3d40:	e177097e 	cmn	r7, lr, ror r9

00003d44 <l3760>:
    3d44:	ea000000 	b	3d4c <l3762>

00003d48 <l3761>:
    3d48:	eafffffc 	b	3d40 <l3759>

00003d4c <l3762>:
    3d4c:	e3a08022 	mov	r8, #34	; 0x22

00003d50 <l3763>:
    3d50:	e19d90b8 	ldrh	r9, [sp, r8]

00003d54 <l3764>:
    3d54:	0075e004 	rsbseq	lr, r5, r4

00003d58 <l3765>:
    3d58:	008e9067 	addeq	r9, lr, r7, rrx

00003d5c <l3766>:
    3d5c:	e59f7000 	ldr	r7, [pc]	; 3d64 <l3768>

00003d60 <interrupt_958>:
    3d60:	ea000000 	b	3d68 <l3769>

00003d64 <l3768>:
    3d64:	000fffd8 	.word	0x000fffd8

00003d68 <l3769>:
    3d68:	e147109b 	swpb	r1, fp, [r7]

00003d6c <l3770>:
    3d6c:	e59f1000 	ldr	r1, [pc]	; 3d74 <l3772>

00003d70 <l3771>:
    3d70:	ea000000 	b	3d78 <l3773>

00003d74 <l3772>:
    3d74:	000fffbc 	.word	0x000fffbc

00003d78 <l3773>:
    3d78:	e101e09e 	swp	lr, lr, [r1]

00003d7c <l3774>:
    3d7c:	3094e06e 	addscc	lr, r4, lr, rrx

00003d80 <l3775>:
    3d80:	a3120080 	tstge	r2, #128	; 0x80

00003d84 <l3776>:
    3d84:	4133000f 	teqmi	r3, pc

00003d88 <l3777>:
    3d88:	e1954004 	orrs	r4, r5, r4

00003d8c <l3778>:
    3d8c:	ea000008 	b	3db4 <l3788>

00003d90 <interrupt_376>:
    3d90:	e37e0932 	cmn	lr, #819200	; 0xc8000

00003d94 <interrupt_934>:
    3d94:	416f7f1c 	clzmi	r7, ip

00003d98 <interrupt_96>:
    3d98:	b0ea6005 	rsclt	r6, sl, r5

00003d9c <l3782>:
    3d9c:	80523008 	subshi	r3, r2, r8

00003da0 <l3783>:
    3da0:	e1190d4f 	tst	r9, pc, asr #26

00003da4 <l3784>:
    3da4:	e2851403 	add	r1, r5, #50331648	; 0x3000000

00003da8 <l3785>:
    3da8:	80823c77 	addhi	r3, r2, r7, ror ip

00003dac <l3786>:
    3dac:	e16fcf16 	clz	ip, r6

00003db0 <l3787>:
    3db0:	e155000a 	cmp	r5, sl

00003db4 <l3788>:
    3db4:	d036706f 	eorsle	r7, r6, pc, rrx

00003db8 <l3789>:
    3db8:	e1c87649 	bic	r7, r8, r9, asr #12

00003dbc <l3790>:
    3dbc:	e59f2000 	ldr	r2, [pc]	; 3dc4 <l3792>

00003dc0 <l3791>:
    3dc0:	ea000000 	b	3dc8 <l3793>

00003dc4 <l3792>:
    3dc4:	000fffc4 	.word	0x000fffc4

00003dc8 <l3793>:
    3dc8:	b1025097 	swplt	r5, r7, [r2]

00003dcc <l3794>:
    3dcc:	e0964004 	adds	r4, r6, r4

00003dd0 <l3795>:
    3dd0:	ea000006 	b	3df0 <l3803>

00003dd4 <l3796>:
    3dd4:	e280100a 	add	r1, r0, #10

00003dd8 <l3797>:
    3dd8:	e023862c 	eor	r8, r3, ip, lsr #12

00003ddc <l3798>:
    3ddc:	e2703b5b 	rsbs	r3, r0, #93184	; 0x16c00

00003de0 <l3799>:
    3de0:	826244f2 	rsbhi	r4, r2, #-234881024	; 0xf2000000

00003de4 <l3800>:
    3de4:	c1580055 	cmpgt	r8, r5, asr r0

00003de8 <l3801>:
    3de8:	c0b8c25b 	adcsgt	ip, r8, fp, asr r2

00003dec <interrupt_127>:
    3dec:	ea000000 	b	3df4 <l3804>

00003df0 <l3803>:
    3df0:	eafffff8 	b	3dd8 <l3797>

00003df4 <l3804>:
    3df4:	e3a02019 	mov	r2, #25

00003df8 <l3805>:
    3df8:	519dc0d2 	ldrsbpl	ip, [sp, r2]

00003dfc <l3806>:
    3dfc:	80a617c1 	adchi	r1, r6, r1, asr #15

00003e00 <l3807>:
    3e00:	00b1106c 	adcseq	r1, r1, ip, rrx

00003e04 <interrupt_385>:
    3e04:	01f0300c 	mvnseq	r3, ip

00003e08 <l3809>:
    3e08:	016f9f15 	clzeq	r9, r5

00003e0c <l3810>:
    3e0c:	41dde2b8 	ldrhmi	lr, [sp, #40]	; 0x28

00003e10 <l3811>:
    3e10:	e59fa000 	ldr	sl, [pc]	; 3e18 <l3813>

00003e14 <l3812>:
    3e14:	ea000000 	b	3e1c <l3814>

00003e18 <l3813>:
    3e18:	000fffd4 	.word	0x000fffd4

00003e1c <l3814>:
    3e1c:	c14a2094 	swpbgt	r2, r4, [sl]

00003e20 <l3815>:
    3e20:	e37103ee 	cmn	r1, #-1207959549	; 0xb8000003

00003e24 <interrupt_205>:
    3e24:	e1dd82d2 	ldrsb	r8, [sp, #34]	; 0x22

00003e28 <l3817>:
    3e28:	e2b3e054 	adcs	lr, r3, #84	; 0x54

00003e2c <interrupt_424>:
    3e2c:	e59f3000 	ldr	r3, [pc]	; 3e34 <l3820>

00003e30 <l3819>:
    3e30:	ea000000 	b	3e38 <l3821>

00003e34 <l3820>:
    3e34:	000fffe8 	.word	0x000fffe8

00003e38 <l3821>:
    3e38:	9143109b 	swpbls	r1, fp, [r3]

00003e3c <l3822>:
    3e3c:	90e93928 	rscls	r3, r9, r8, lsr #18

00003e40 <l3823>:
    3e40:	02b7e4aa 	adcseq	lr, r7, #-1442840576	; 0xaa000000

00003e44 <interrupt_584>:
    3e44:	e19e7007 	orrs	r7, lr, r7

00003e48 <interrupt_713>:
    3e48:	e3a0c010 	mov	ip, #16

00003e4c <interrupt_655>:
    3e4c:	e68d200c 	str	r2, [sp], ip

00003e50 <interrupt_115>:
    3e50:	c90d0044 	stmdbgt	sp, {r2, r6}

00003e54 <l3828>:
    3e54:	e0f3b009 	rscs	fp, r3, r9

00003e58 <l3829>:
    3e58:	320b70f9 	andcc	r7, fp, #249	; 0xf9

00003e5c <l3830>:
    3e5c:	e9bd1f8f 	ldmib	sp!, {r0, r1, r2, r3, r7, r8, r9, sl, fp, ip}

00003e60 <l3831>:
    3e60:	e16f5f18 	clz	r5, r8

00003e64 <interrupt_263>:
    3e64:	60394160 	eorsvs	r4, r9, r0, ror #2

00003e68 <l3833>:
    3e68:	e1f08772 	mvns	r8, r2, ror r7

00003e6c <l3834>:
    3e6c:	e090b30c 	adds	fp, r0, ip, lsl #6

00003e70 <l3835>:
    3e70:	d3983023 	orrsle	r3, r8, #35	; 0x23

00003e74 <l3836>:
    3e74:	e0577e13 	subs	r7, r7, r3, lsl lr

00003e78 <l3837>:
    3e78:	e1f00513 	mvns	r0, r3, lsl r5

00003e7c <l3838>:
    3e7c:	51310039 	teqpl	r1, r9, lsr r0

00003e80 <interrupt_646>:
    3e80:	e04c2050 	sub	r2, ip, r0, asr r0

00003e84 <l3840>:
    3e84:	b173000c 	cmnlt	r3, ip

00003e88 <l3841>:
    3e88:	e253ca13 	subs	ip, r3, #77824	; 0x13000

00003e8c <l3842>:
    3e8c:	e2a392db 	adc	r9, r3, #-1342177267	; 0xb000000d

00003e90 <l3843>:
    3e90:	e3a0e002 	mov	lr, #2

00003e94 <interrupt_578>:
    3e94:	e19da0be 	ldrh	sl, [sp, lr]

00003e98 <l3845>:
    3e98:	e3a08028 	mov	r8, #40	; 0x28

00003e9c <interrupt_244>:
    3e9c:	e71d8008 	ldr	r8, [sp, -r8]

00003ea0 <l3847>:
    3ea0:	e3cfa805 	bic	sl, pc, #327680	; 0x50000

00003ea4 <interrupt_737>:
    3ea4:	e172000e 	cmn	r2, lr

00003ea8 <l3849>:
    3ea8:	e1580005 	cmp	r8, r5

00003eac <interrupt_937>:
    3eac:	93c0b12d 	bicls	fp, r0, #1073741835	; 0x4000000b

00003eb0 <l3851>:
    3eb0:	71520f28 	cmpvc	r2, r8, lsr #30

00003eb4 <l3852>:
    3eb4:	213e065b 	teqcs	lr, fp, asr r6

00003eb8 <l3853>:
    3eb8:	c0087004 	andgt	r7, r8, r4

00003ebc <interrupt_773>:
    3ebc:	e16faf13 	clz	sl, r3

00003ec0 <l3855>:
    3ec0:	4281ca87 	addmi	ip, r1, #552960	; 0x87000

00003ec4 <l3856>:
    3ec4:	016f4f17 	clzeq	r4, r7

00003ec8 <l3857>:
    3ec8:	e3a0c00a 	mov	ip, #10

00003ecc <l3858>:
    3ecc:	511d80fc 	ldrshpl	r8, [sp, -ip]

00003ed0 <interrupt_639>:
    3ed0:	e3a02008 	mov	r2, #8

00003ed4 <l3860>:
    3ed4:	e72d8002 	str	r8, [sp, -r2]!

00003ed8 <l3861>:
    3ed8:	ea000006 	b	3ef8 <l3869>

00003edc <l3862>:
    3edc:	e28010d3 	add	r1, r0, #211	; 0xd3

00003ee0 <l3863>:
    3ee0:	e03bc065 	eors	ip, fp, r5, rrx

00003ee4 <l3864>:
    3ee4:	d130076c 	teqle	r0, ip, ror #14

00003ee8 <interrupt_372>:
    3ee8:	b16f6f14 	clzlt	r6, r4

00003eec <l3866>:
    3eec:	42bc1e1f 	adcsmi	r1, ip, #496	; 0x1f0

00003ef0 <l3867>:
    3ef0:	80042144 	andhi	r2, r4, r4, asr #2

00003ef4 <l3868>:
    3ef4:	ea000000 	b	3efc <l3870>

00003ef8 <l3869>:
    3ef8:	eafffff8 	b	3ee0 <l3863>

00003efc <l3870>:
    3efc:	80213b18 	eorhi	r3, r1, r8, lsl fp

00003f00 <l3871>:
    3f00:	a16fcf1e 	clzge	ip, lr

00003f04 <l3872>:
    3f04:	e99d0043 	ldmib	sp, {r0, r1, r6}

00003f08 <l3873>:
    3f08:	6041906e 	subvs	r9, r1, lr, rrx

00003f0c <interrupt_439>:
    3f0c:	e59f1000 	ldr	r1, [pc]	; 3f14 <l3876>

00003f10 <l3875>:
    3f10:	ea000000 	b	3f18 <l3877>

00003f14 <l3876>:
    3f14:	000fffa8 	.word	0x000fffa8

00003f18 <l3877>:
    3f18:	2141209a 	swpbcs	r2, sl, [r1]

00003f1c <l3878>:
    3f1c:	50e6165b 	rscpl	r1, r6, fp, asr r6

00003f20 <l3879>:
    3f20:	e0106c48 	ands	r6, r0, r8, asr #24

00003f24 <l3880>:
    3f24:	e0fb2c3e 	rscs	r2, fp, lr, lsr ip

00003f28 <l3881>:
    3f28:	e59f3000 	ldr	r3, [pc]	; 3f30 <l3883>

00003f2c <interrupt_446>:
    3f2c:	ea000000 	b	3f34 <l3884>

00003f30 <l3883>:
    3f30:	000fffa0 	.word	0x000fffa0

00003f34 <l3884>:
    3f34:	7143b098 	swpbvc	fp, r8, [r3]

00003f38 <l3885>:
    3f38:	50e0e05a 	rscpl	lr, r0, sl, asr r0

00003f3c <l3886>:
    3f3c:	815d60d2 	ldrsbhi	r6, [sp, #-2]

00003f40 <l3887>:
    3f40:	e3a0600c 	mov	r6, #12

00003f44 <l3888>:
    3f44:	b11da0b6 	ldrhlt	sl, [sp, -r6]

00003f48 <interrupt_419>:
    3f48:	b0e41213 	rsclt	r1, r4, r3, lsl r2

00003f4c <interrupt_536>:
    3f4c:	b5cd8010 	strblt	r8, [sp, #16]

00003f50 <l3891>:
    3f50:	0a000006 	beq	3f70 <l3899>

00003f54 <l3892>:
    3f54:	e28010d7 	add	r1, r0, #215	; 0xd7

00003f58 <interrupt_366>:
    3f58:	316f9f1b 	clzcc	r9, fp

00003f5c <l3894>:
    3f5c:	d1d1e98f 	bicsle	lr, r1, pc, lsl #19

00003f60 <l3895>:
    3f60:	0111000e 	tsteq	r1, lr

00003f64 <interrupt_666>:
    3f64:	e0ce0069 	sbc	r0, lr, r9, rrx

00003f68 <l3897>:
    3f68:	205eb00f 	subscs	fp, lr, pc

00003f6c <l3898>:
    3f6c:	ea000000 	b	3f74 <l3900>

00003f70 <l3899>:
    3f70:	eafffff8 	b	3f58 <interrupt_366>

00003f74 <l3900>:
    3f74:	e0c12908 	sbc	r2, r1, r8, lsl #18

00003f78 <l3901>:
    3f78:	e83d4541 	ldmda	sp!, {r0, r6, r8, sl, lr}

00003f7c <l3902>:
    3f7c:	33b00db1 	movscc	r0, #11328	; 0x2c40

00003f80 <l3903>:
    3f80:	d2cf8081 	sbcle	r8, pc, #129	; 0x81

00003f84 <l3904>:
    3f84:	0a000008 	beq	3fac <l3914>

00003f88 <l3905>:
    3f88:	e0e5100a 	rsc	r1, r5, sl

00003f8c <interrupt_844>:
    3f8c:	b17e093b 	cmnlt	lr, fp, lsr r9

00003f90 <l3907>:
    3f90:	922cc501 	eorls	ip, ip, #4194304	; 0x400000

00003f94 <l3908>:
    3f94:	e0040173 	and	r0, r4, r3, ror r1

00003f98 <l3909>:
    3f98:	e065c6cb 	rsb	ip, r5, fp, asr #13

00003f9c <l3910>:
    3f9c:	e1e00004 	mvn	r0, r4

00003fa0 <l3911>:
    3fa0:	e13a0000 	teq	sl, r0

00003fa4 <l3912>:
    3fa4:	313a0007 	teqcc	sl, r7

00003fa8 <interrupt_321>:
    3fa8:	e0508069 	subs	r8, r0, r9, rrx

00003fac <l3914>:
    3fac:	80e15410 	rschi	r5, r1, r0, lsl r4

00003fb0 <l3915>:
    3fb0:	816faf15 	clzhi	sl, r5

00003fb4 <l3916>:
    3fb4:	2a000007 	bcs	3fd8 <interrupt_284>

00003fb8 <l3917>:
    3fb8:	e28010fe 	add	r1, r0, #254	; 0xfe

00003fbc <interrupt_450>:
    3fbc:	d1a03062 	rrxle	r3, r2

00003fc0 <l3919>:
    3fc0:	033c0017 	teqeq	ip, #23

00003fc4 <l3920>:
    3fc4:	a0a8e06a 	adcge	lr, r8, sl, rrx

00003fc8 <l3921>:
    3fc8:	11a0100e 	movne	r1, lr

00003fcc <l3922>:
    3fcc:	716f1f12 	clzvc	r1, r2

00003fd0 <l3923>:
    3fd0:	70c71c19 	sbcvc	r1, r7, r9, lsl ip

00003fd4 <l3924>:
    3fd4:	ea000000 	b	3fdc <interrupt_161>

00003fd8 <interrupt_284>:
    3fd8:	eafffff7 	b	3fbc <interrupt_450>

00003fdc <interrupt_161>:
    3fdc:	e50df01c 	str	pc, [sp, #-28]

00003fe0 <interrupt_784>:
    3fe0:	613e0009 	teqvs	lr, r9

00003fe4 <l3928>:
    3fe4:	21560008 	cmpcs	r6, r8

00003fe8 <l3929>:
    3fe8:	e3a04024 	mov	r4, #36	; 0x24

00003fec <interrupt_220>:
    3fec:	e68db004 	str	fp, [sp], r4

00003ff0 <l3931>:
    3ff0:	e15d40d7 	ldrsb	r4, [sp, #-7]

00003ff4 <l3932>:
    3ff4:	e25a9005 	subs	r9, sl, #5

00003ff8 <l3933>:
    3ff8:	e3a0003c 	mov	r0, #60	; 0x3c

00003ffc <l3934>:
    3ffc:	e60dc000 	str	ip, [sp], -r0

00004000 <l3935>:
    4000:	01dde2d8 	ldrsbeq	lr, [sp, #40]	; 0x28

00004004 <interrupt_508>:
    4004:	a3f0b671 	mvnsge	fp, #118489088	; 0x7100000

00004008 <l3937>:
    4008:	e1b0b00e 	movs	fp, lr

0000400c <l3938>:
    400c:	ea000003 	b	4020 <l3943>

00004010 <l3939>:
    4010:	e280102b 	add	r1, r0, #43	; 0x2b

00004014 <l3940>:
    4014:	e0e9a009 	rsc	sl, r9, r9

00004018 <l3941>:
    4018:	517001ae 	cmnpl	r0, lr, lsr #3

0000401c <l3942>:
    401c:	ea000000 	b	4024 <l3944>

00004020 <l3943>:
    4020:	eafffffb 	b	4014 <l3940>

00004024 <l3944>:
    4024:	e1a00000 	nop			; (mov r0, r0)

00004028 <l3945>:
    4028:	e3a0101a 	mov	r1, #26

0000402c <interrupt_827>:
    402c:	97dda001 	ldrbls	sl, [sp, r1]

00004030 <interrupt_886>:
    4030:	60e25309 	rscvs	r5, r2, r9, lsl #6

00004034 <l3948>:
    4034:	219b1007 	orrscs	r1, fp, r7

00004038 <l3949>:
    4038:	e2e34acf 	rsc	r4, r3, #847872	; 0xcf000

0000403c <l3950>:
    403c:	e05bb586 	subs	fp, fp, r6, lsl #11

00004040 <l3951>:
    4040:	e90d0100 	stmdb	sp, {r8}

00004044 <l3952>:
    4044:	a0e61550 	rscge	r1, r6, r0, asr r5

00004048 <l3953>:
    4048:	e88d0120 	stm	sp, {r5, r8}

0000404c <l3954>:
    404c:	3a000005 	bcc	4068 <l3961>

00004050 <l3955>:
    4050:	e2801054 	add	r1, r0, #84	; 0x54

00004054 <l3956>:
    4054:	e16fcf16 	clz	ip, r6

00004058 <l3957>:
    4058:	c35e0ef1 	cmpgt	lr, #3856	; 0xf10

0000405c <l3958>:
    405c:	e18f7668 	orr	r7, pc, r8, ror #12

00004060 <l3959>:
    4060:	2085ca5a 	addcs	ip, r5, sl, asr sl

00004064 <l3960>:
    4064:	ea000000 	b	406c <l3962>

00004068 <l3961>:
    4068:	eafffff9 	b	4054 <l3956>

0000406c <l3962>:
    406c:	d2e4c020 	rscle	ip, r4, #32

00004070 <l3963>:
    4070:	b04a6d67 	sublt	r6, sl, r7, ror #26

00004074 <l3964>:
    4074:	1032b009 	eorsne	fp, r2, r9

00004078 <l3965>:
    4078:	52116565 	andspl	r6, r1, #423624704	; 0x19400000

0000407c <l3966>:
    407c:	315e000e 	cmpcc	lr, lr

00004080 <l3967>:
    4080:	70e04c14 	rscvc	r4, r0, r4, lsl ip

00004084 <l3968>:
    4084:	d1cdc0b6 	strhle	ip, [sp, #6]

00004088 <l3969>:
    4088:	e59f2000 	ldr	r2, [pc]	; 4090 <interrupt_825>

0000408c <interrupt_15>:
    408c:	ea000000 	b	4094 <l3972>

00004090 <interrupt_825>:
    4090:	000fffe0 	.word	0x000fffe0

00004094 <l3972>:
    4094:	1102e09b 	swpne	lr, fp, [r2]

00004098 <l3973>:
    4098:	c98dff6e 	stmibgt	sp, {r1, r2, r3, r5, r6, r8, r9, sl, fp, ip, sp, lr, pc}

0000409c <l3974>:
    409c:	7a000008 	bvc	40c4 <l3984>

000040a0 <l3975>:
    40a0:	00932619 	addseq	r2, r3, r9, lsl r6

000040a4 <l3976>:
    40a4:	a07ba617 	rsbsge	sl, fp, r7, lsl r6

000040a8 <l3977>:
    40a8:	e15c053b 	cmp	ip, fp, lsr r5

000040ac <l3978>:
    40ac:	b16faf11 	clzlt	sl, r1

000040b0 <l3979>:
    40b0:	e151000e 	cmp	r1, lr

000040b4 <l3980>:
    40b4:	e0758622 	rsbs	r8, r5, r2, lsr #12

000040b8 <l3981>:
    40b8:	b1a08caf 	lsrlt	r8, pc, #25

000040bc <l3982>:
    40bc:	c21ced99 	andsgt	lr, ip, #9792	; 0x2640

000040c0 <l3983>:
    40c0:	e262cd7f 	rsb	ip, r2, #8128	; 0x1fc0

000040c4 <l3984>:
    40c4:	91320454 	teqls	r2, r4, asr r4

000040c8 <l3985>:
    40c8:	e23a1f95 	eors	r1, sl, #596	; 0x254

000040cc <interrupt_504>:
    40cc:	ca000006 	bgt	40ec <l3994>

000040d0 <l3987>:
    40d0:	e2801048 	add	r1, r0, #72	; 0x48

000040d4 <interrupt_833>:
    40d4:	80a9e002 	adchi	lr, r9, r2

000040d8 <l3989>:
    40d8:	6194a484 	orrsvs	sl, r4, r4, lsl #9

000040dc <l3990>:
    40dc:	30578061 	subscc	r8, r7, r1, rrx

000040e0 <l3991>:
    40e0:	b0cbb006 	sbclt	fp, fp, r6

000040e4 <interrupt_702>:
    40e4:	b1c3116c 	biclt	r1, r3, ip, ror #2

000040e8 <l3993>:
    40e8:	ea000000 	b	40f0 <l3995>

000040ec <l3994>:
    40ec:	eafffff8 	b	40d4 <interrupt_833>

000040f0 <l3995>:
    40f0:	9a000006 	bls	4110 <l4003>

000040f4 <l3996>:
    40f4:	e0d4106e 	sbcs	r1, r4, lr, rrx

000040f8 <l3997>:
    40f8:	e072ad0f 	rsbs	sl, r2, pc, lsl #26

000040fc <l3998>:
    40fc:	d13701e8 	teqle	r7, r8, ror #3

00004100 <l3999>:
    4100:	e16f0f18 	clz	r0, r8

00004104 <l4000>:
    4104:	302b000c 	eorcc	r0, fp, ip

00004108 <l4001>:
    4108:	c04e7173 	subgt	r7, lr, r3, ror r1

0000410c <l4002>:
    410c:	e0200a12 	eor	r0, r0, r2, lsl sl

00004110 <l4003>:
    4110:	e18e600c 	orr	r6, lr, ip

00004114 <l4004>:
    4114:	71b0bb78 	rorsvc	fp, r8, fp

00004118 <l4005>:
    4118:	e04c5003 	sub	r5, ip, r3

0000411c <interrupt_912>:
    411c:	6a000004 	bvs	4134 <l4012>

00004120 <l4007>:
    4120:	e19a0b56 	orrs	r0, sl, r6, asr fp

00004124 <l4008>:
    4124:	304ba772 	subcc	sl, fp, r2, ror r7

00004128 <interrupt_623>:
    4128:	613c0586 	teqvs	ip, r6, lsl #11

0000412c <l4010>:
    412c:	5119080b 	tstpl	r9, fp, lsl #16

00004130 <l4011>:
    4130:	e16f8f18 	clz	r8, r8

00004134 <l4012>:
    4134:	92da881d 	sbcsls	r8, sl, #1900544	; 0x1d0000

00004138 <l4013>:
    4138:	e3a0103e 	mov	r1, #62	; 0x3e

0000413c <l4014>:
    413c:	e19da0b1 	ldrh	sl, [sp, r1]

00004140 <l4015>:
    4140:	590d0100 	stmdbpl	sp, {r8}

00004144 <l4016>:
    4144:	e1dde2f2 	ldrsh	lr, [sp, #34]	; 0x22

00004148 <l4017>:
    4148:	e58d900c 	str	r9, [sp, #12]

0000414c <l4018>:
    414c:	601b3832 	andsvs	r3, fp, r2, lsr r8

00004150 <l4019>:
    4150:	e1cdb1bc 	strh	fp, [sp, #28]

00004154 <interrupt_397>:
    4154:	10698005 	rsbne	r8, r9, r5

00004158 <l4021>:
    4158:	e1a0100b 	mov	r1, fp

0000415c <l4022>:
    415c:	71790414 	cmnvc	r9, r4, lsl r4

00004160 <l4023>:
    4160:	e3a05030 	mov	r5, #48	; 0x30

00004164 <l4024>:
    4164:	918db0b5 	strhls	fp, [sp, r5]

00004168 <l4025>:
    4168:	41360a4b 	teqmi	r6, fp, asr #20

0000416c <interrupt_343>:
    416c:	93120d29 	tstls	r2, #2624	; 0xa40

00004170 <interrupt_72>:
    4170:	705f4eae 	subsvc	r4, pc, lr, lsr #29

00004174 <l4028>:
    4174:	a0e07978 	rscge	r7, r0, r8, ror r9

00004178 <l4029>:
    4178:	01530889 	cmpeq	r3, r9, lsl #17

0000417c <l4030>:
    417c:	298deddc 	stmibcs	sp, {r2, r3, r4, r6, r7, r8, sl, fp, sp, lr, pc}

00004180 <l4031>:
    4180:	c06b7008 	rsbgt	r7, fp, r8

00004184 <l4032>:
    4184:	e5cd301b 	strb	r3, [sp, #27]

00004188 <interrupt_824>:
    4188:	b1100919 	tstlt	r0, r9, lsl r9

0000418c <l4034>:
    418c:	e3a00012 	mov	r0, #18

00004190 <l4035>:
    4190:	919d70b0 	ldrhls	r7, [sp, r0]

00004194 <l4036>:
    4194:	e2286d72 	eor	r6, r8, #7296	; 0x1c80

00004198 <l4037>:
    4198:	e9bd5fd1 	ldmib	sp!, {r0, r4, r6, r7, r8, r9, sl, fp, ip, lr}

0000419c <l4038>:
    419c:	a1d8475b 	bicsge	r4, r8, fp, asr r7

000041a0 <l4039>:
    41a0:	e3a01028 	mov	r1, #40	; 0x28

000041a4 <l4040>:
    41a4:	e72d1001 	str	r1, [sp, -r1]!

000041a8 <l4041>:
    41a8:	e354068e 	cmp	r4, #148897792	; 0x8e00000

000041ac <interrupt_144>:
    41ac:	e3a0603c 	mov	r6, #60	; 0x3c

000041b0 <l4043>:
    41b0:	e7ad7006 	str	r7, [sp, r6]!

000041b4 <l4044>:
    41b4:	ea000007 	b	41d8 <l4053>

000041b8 <l4045>:
    41b8:	616f4f15 	clzvs	r4, r5

000041bc <l4046>:
    41bc:	e13a06a8 	teq	sl, r8, lsr #13

000041c0 <interrupt_249>:
    41c0:	a1f05008 	mvnsge	r5, r8

000041c4 <interrupt_433>:
    41c4:	616f2f16 	clzvs	r2, r6

000041c8 <l4049>:
    41c8:	8095a932 	addshi	sl, r5, r2, lsr r9

000041cc <l4050>:
    41cc:	e1110b76 	tst	r1, r6, ror fp

000041d0 <l4051>:
    41d0:	e2762503 	rsbs	r2, r6, #12582912	; 0xc00000

000041d4 <l4052>:
    41d4:	e040e006 	sub	lr, r0, r6

000041d8 <l4053>:
    41d8:	4036a5c8 	eorsmi	sl, r6, r8, asr #11

000041dc <l4054>:
    41dc:	602f63ca 	eorvs	r6, pc, sl, asr #7

000041e0 <l4055>:
    41e0:	e0fc200e 	rscs	r2, ip, lr

000041e4 <interrupt_85>:
    41e4:	11e0a57a 	mvnne	sl, sl, ror r5

000041e8 <l4057>:
    41e8:	a55d6044 	ldrbge	r6, [sp, #-68]	; 0x44

000041ec <l4058>:
    41ec:	e3a06027 	mov	r6, #39	; 0x27

000041f0 <l4059>:
    41f0:	e11d00d6 	ldrsb	r0, [sp, -r6]

000041f4 <interrupt_334>:
    41f4:	404e1309 	submi	r1, lr, r9, lsl #6

000041f8 <l4061>:
    41f8:	ea000003 	b	420c <l4066>

000041fc <l4062>:
    41fc:	e280105e 	add	r1, r0, #94	; 0x5e

00004200 <l4063>:
    4200:	31e055c5 	mvncc	r5, r5, asr #11

00004204 <l4064>:
    4204:	e08f7ecb 	add	r7, pc, fp, asr #29

00004208 <l4065>:
    4208:	ea000000 	b	4210 <l4067>

0000420c <l4066>:
    420c:	eafffffb 	b	4200 <l4063>

00004210 <l4067>:
    4210:	311a0059 	tstcc	sl, r9, asr r0

00004214 <l4068>:
    4214:	ea000007 	b	4238 <l4077>

00004218 <l4069>:
    4218:	e280101a 	add	r1, r0, #26

0000421c <interrupt_634>:
    421c:	e2ab4a8a 	adc	r4, fp, #565248	; 0x8a000

00004220 <interrupt_636>:
    4220:	e16f4f1c 	clz	r4, ip

00004224 <l4072>:
    4224:	533b09f3 	teqpl	fp, #3981312	; 0x3cc000

00004228 <l4073>:
    4228:	e0fca009 	rscs	sl, ip, r9

0000422c <l4074>:
    422c:	d0638005 	rsble	r8, r3, r5

00004230 <l4075>:
    4230:	d0fa7002 	rscsle	r7, sl, r2

00004234 <l4076>:
    4234:	ea000000 	b	423c <l4078>

00004238 <l4077>:
    4238:	eafffff7 	b	421c <interrupt_634>

0000423c <l4078>:
    423c:	42d672d9 	sbcsmi	r7, r6, #-1879048179	; 0x9000000d

00004240 <l4079>:
    4240:	e92d0808 	push	{r3, fp}

00004244 <l4080>:
    4244:	e3a07036 	mov	r7, #54	; 0x36

00004248 <l4081>:
    4248:	611d30b7 	ldrhvs	r3, [sp, -r7]

0000424c <l4082>:
    424c:	e93d1fef 	ldmdb	sp!, {r0, r1, r2, r3, r5, r6, r7, r8, r9, sl, fp, ip}

00004250 <l4083>:
    4250:	e82d0020 	stmda	sp!, {r5}

00004254 <l4084>:
    4254:	e5cd7027 	strb	r7, [sp, #39]	; 0x27

00004258 <interrupt_561>:
    4258:	d16f3f12 	clzle	r3, r2

0000425c <l4086>:
    425c:	d05b6004 	subsle	r6, fp, r4

00004260 <interrupt_801>:
    4260:	254db00b 	strbcs	fp, [sp, #-11]

00004264 <interrupt_108>:
    4264:	e07f400a 	rsbs	r4, pc, sl

00004268 <l4089>:
    4268:	e197600f 	orrs	r6, r7, pc

0000426c <l4090>:
    426c:	d04ecb0c 	suble	ip, lr, ip, lsl #22

00004270 <l4091>:
    4270:	516f8f14 	clzpl	r8, r4

00004274 <l4092>:
    4274:	0a000002 	beq	4284 <interrupt_944>

00004278 <interrupt_362>:
    4278:	013f078f 	teqeq	pc, pc, lsl #15

0000427c <l4094>:
    427c:	a0c79434 	sbcge	r9, r7, r4, lsr r4

00004280 <l4095>:
    4280:	e1a01613 	lsl	r1, r3, r6

00004284 <interrupt_944>:
    4284:	e28503ab 	add	r0, r5, #-1409286142	; 0xac000002

00004288 <l4097>:
    4288:	e0c38e40 	sbc	r8, r3, r0, asr #28

0000428c <l4098>:
    428c:	a0454d6e 	subge	r4, r5, lr, ror #26

00004290 <interrupt_329>:
    4290:	e59f9000 	ldr	r9, [pc]	; 4298 <l4101>

00004294 <l4100>:
    4294:	ea000000 	b	429c <l4102>

00004298 <l4101>:
    4298:	000fffc4 	.word	0x000fffc4

0000429c <l4102>:
    429c:	e149c096 	swpb	ip, r6, [r9]

000042a0 <l4103>:
    42a0:	e59f9000 	ldr	r9, [pc]	; 42a8 <l4105>

000042a4 <interrupt_626>:
    42a4:	ea000000 	b	42ac <l4106>

000042a8 <l4105>:
    42a8:	000fffd4 	.word	0x000fffd4

000042ac <l4106>:
    42ac:	61497096 	swpbvs	r7, r6, [r9]

000042b0 <l4107>:
    42b0:	5311047b 	tstpl	r1, #2063597568	; 0x7b000000

000042b4 <l4108>:
    42b4:	e3a04030 	mov	r4, #48	; 0x30

000042b8 <l4109>:
    42b8:	e7cde004 	strb	lr, [sp, r4]

000042bc <l4110>:
    42bc:	e3a0800c 	mov	r8, #12

000042c0 <l4111>:
    42c0:	e11d90b8 	ldrh	r9, [sp, -r8]

000042c4 <l4112>:
    42c4:	e048e05b 	sub	lr, r8, fp, asr r0

000042c8 <l4113>:
    42c8:	e39812d2 	orrs	r1, r8, #536870925	; 0x2000000d

000042cc <l4114>:
    42cc:	d2994090 	addsle	r4, r9, #144	; 0x90

000042d0 <l4115>:
    42d0:	e3a0e026 	mov	lr, #38	; 0x26

000042d4 <interrupt_920>:
    42d4:	119d40fe 	ldrshne	r4, [sp, lr]

000042d8 <l4117>:
    42d8:	e1a00000 	nop			; (mov r0, r0)

000042dc <l4118>:
    42dc:	238b12df 	orrcs	r1, fp, #-268435443	; 0xf000000d

000042e0 <l4119>:
    42e0:	11dd93f6 	ldrshne	r9, [sp, #54]	; 0x36

000042e4 <l4120>:
    42e4:	e08096aa 	add	r9, r0, sl, lsr #13

000042e8 <l4121>:
    42e8:	e1846008 	orr	r6, r4, r8

000042ec <l4122>:
    42ec:	3158006a 	cmpcc	r8, sl, rrx

000042f0 <l4123>:
    42f0:	e3a05009 	mov	r5, #9

000042f4 <l4124>:
    42f4:	e7cd3005 	strb	r3, [sp, r5]

000042f8 <l4125>:
    42f8:	6178000b 	cmnvs	r8, fp

000042fc <l4126>:
    42fc:	e3a0a02c 	mov	sl, #44	; 0x2c

00004300 <l4127>:
    4300:	e18d00ba 	strh	r0, [sp, sl]

00004304 <interrupt_698>:
    4304:	e02e3001 	eor	r3, lr, r1

00004308 <l4129>:
    4308:	e1a0237b 	ror	r2, fp, r3

0000430c <l4130>:
    430c:	d1dd43f6 	ldrshle	r4, [sp, #54]	; 0x36

00004310 <interrupt_727>:
    4310:	e17e0068 	cmn	lr, r8, rrx

00004314 <l4132>:
    4314:	70ac6fcf 	adcvc	r6, ip, pc, asr #31

00004318 <l4133>:
    4318:	e1a00000 	nop			; (mov r0, r0)

0000431c <interrupt_403>:
    431c:	e249839d 	sub	r8, r9, #1946157058	; 0x74000002

00004320 <interrupt_656>:
    4320:	e16f6f15 	clz	r6, r5

00004324 <l4136>:
    4324:	c15a000a 	cmpgt	sl, sl

00004328 <l4137>:
    4328:	e13403ee 	teq	r4, lr, ror #7

0000432c <interrupt_931>:
    432c:	e59d702c 	ldr	r7, [sp, #44]	; 0x2c

00004330 <l4139>:
    4330:	e59f5000 	ldr	r5, [pc]	; 4338 <l4141>

00004334 <l4140>:
    4334:	ea000000 	b	433c <l4142>

00004338 <l4141>:
    4338:	000fffcc 	.word	0x000fffcc

0000433c <l4142>:
    433c:	4145c099 	swpbmi	ip, r9, [r5]

00004340 <l4143>:
    4340:	71760004 	cmnvc	r6, r4

00004344 <l4144>:
    4344:	31710136 	cmncc	r1, r6, lsr r1

00004348 <l4145>:
    4348:	d1c3831e 	bicle	r8, r3, lr, lsl r3

0000434c <l4146>:
    434c:	caffffff 	bgt	4350 <l4147>

00004350 <l4147>:
    4350:	92228ba7 	eorls	r8, r2, #171008	; 0x29c00

00004354 <interrupt_107>:
    4354:	d02a8065 	eorle	r8, sl, r5, rrx

00004358 <l4149>:
    4358:	10a12068 	adcne	r2, r1, r8, rrx

0000435c <l4150>:
    435c:	e3a09028 	mov	r9, #40	; 0x28

00004360 <l4151>:
    4360:	819db0f9 	ldrshhi	fp, [sp, r9]

00004364 <l4152>:
    4364:	806304e3 	rsbhi	r0, r3, r3, ror #9

00004368 <l4153>:
    4368:	e2698010 	rsb	r8, r9, #16

0000436c <l4154>:
    436c:	e15d40d8 	ldrsb	r4, [sp, #-8]

00004370 <interrupt_301>:
    4370:	e3a01004 	mov	r1, #4

00004374 <l4156>:
    4374:	e73d5001 	ldr	r5, [sp, -r1]!

00004378 <l4157>:
    4378:	a241e90d 	subge	lr, r1, #212992	; 0x34000

0000437c <interrupt_80>:
    437c:	e3a0c000 	mov	ip, #0

00004380 <l4159>:
    4380:	e7dd400c 	ldrb	r4, [sp, ip]

00004384 <l4160>:
    4384:	e59f8000 	ldr	r8, [pc]	; 438c <l4162>

00004388 <l4161>:
    4388:	ea000000 	b	4390 <interrupt_681>

0000438c <l4162>:
    438c:	000fffd8 	.word	0x000fffd8

00004390 <interrupt_681>:
    4390:	b1085095 	swplt	r5, r5, [r8]

00004394 <l4164>:
    4394:	e3a00013 	mov	r0, #19

00004398 <l4165>:
    4398:	07cd4000 	strbeq	r4, [sp, r0]

0000439c <l4166>:
    439c:	a1a03c36 	lsrge	r3, r6, ip

000043a0 <l4167>:
    43a0:	e0832c71 	add	r2, r3, r1, ror ip

000043a4 <l4168>:
    43a4:	a18b3e09 	orrge	r3, fp, r9, lsl #28

000043a8 <l4169>:
    43a8:	e3a07040 	mov	r7, #64	; 0x40

000043ac <l4170>:
    43ac:	e79d8007 	ldr	r8, [sp, r7]

000043b0 <l4171>:
    43b0:	e9bd154a 	ldmib	sp!, {r1, r3, r6, r8, sl, ip}

000043b4 <interrupt_823>:
    43b4:	e158006e 	cmp	r8, lr, rrx

000043b8 <l4173>:
    43b8:	a2feef4d 	rscsge	lr, lr, #308	; 0x134

000043bc <l4174>:
    43bc:	00100b1c 	andseq	r0, r0, ip, lsl fp

000043c0 <l4175>:
    43c0:	ea000008 	b	43e8 <l4185>

000043c4 <l4176>:
    43c4:	91a0e46f 	rorls	lr, pc, #8

000043c8 <interrupt_350>:
    43c8:	713a0000 	teqvc	sl, r0

000043cc <l4178>:
    43cc:	d21e782f 	andsle	r7, lr, #3080192	; 0x2f0000

000043d0 <l4179>:
    43d0:	e0c44a71 	sbc	r4, r4, r1, ror sl

000043d4 <l4180>:
    43d4:	e1d80001 	bics	r0, r8, r1

000043d8 <l4181>:
    43d8:	d1a0a234 	lsrle	sl, r4, r2

000043dc <l4182>:
    43dc:	61d0137c 	bicsvs	r1, r0, ip, ror r3

000043e0 <l4183>:
    43e0:	e198227e 	orrs	r2, r8, lr, ror r2

000043e4 <l4184>:
    43e4:	e1170846 	tst	r7, r6, asr #16

000043e8 <l4185>:
    43e8:	a35c0e62 	cmpge	ip, #1568	; 0x620

000043ec <interrupt_423>:
    43ec:	e3a06018 	mov	r6, #24

000043f0 <l4187>:
    43f0:	171d7006 	ldrne	r7, [sp, -r6]

000043f4 <l4188>:
    43f4:	e3a07018 	mov	r7, #24

000043f8 <l4189>:
    43f8:	e68d1007 	str	r1, [sp], r7

000043fc <l4190>:
    43fc:	e006ae1a 	and	sl, r6, sl, lsl lr

00004400 <l4191>:
    4400:	e0547437 	subs	r7, r4, r7, lsr r4

00004404 <l4192>:
    4404:	10d85425 	sbcsne	r5, r8, r5, lsr #8

00004408 <l4193>:
    4408:	e59f8000 	ldr	r8, [pc]	; 4410 <l4195>

0000440c <l4194>:
    440c:	ea000000 	b	4414 <interrupt_610>

00004410 <l4195>:
    4410:	000fffac 	.word	0x000fffac

00004414 <interrupt_610>:
    4414:	e148a09e 	swpb	sl, lr, [r8]

00004418 <interrupt_155>:
    4418:	9079b183 	rsbsls	fp, r9, r3, lsl #3

0000441c <l4198>:
    441c:	e15de3b2 	ldrh	lr, [sp, #-50]	; 0xffffffce

00004420 <l4199>:
    4420:	e92d5ea4 	push	{r2, r5, r7, r9, sl, fp, ip, lr}

00004424 <interrupt_513>:
    4424:	e379072d 	cmn	r9, #11796480	; 0xb40000

00004428 <l4201>:
    4428:	e59f3000 	ldr	r3, [pc]	; 4430 <l4203>

0000442c <l4202>:
    442c:	ea000000 	b	4434 <l4204>

00004430 <l4203>:
    4430:	000fffa8 	.word	0x000fffa8

00004434 <l4204>:
    4434:	e1032097 	swp	r2, r7, [r3]

00004438 <l4205>:
    4438:	e002e00f 	and	lr, r2, pc

0000443c <interrupt_182>:
    443c:	e1a01aaa 	lsr	r1, sl, #21

00004440 <interrupt_202>:
    4440:	e006a62e 	and	sl, r6, lr, lsr #12

00004444 <l4208>:
    4444:	615a0108 	cmpvs	sl, r8, lsl #2

00004448 <l4209>:
    4448:	e3a0500a 	mov	r5, #10

0000444c <l4210>:
    444c:	619d60d5 	ldrsbvs	r6, [sp, r5]

00004450 <l4211>:
    4450:	20f59450 	rscscs	r9, r5, r0, asr r4

00004454 <l4212>:
    4454:	61f0306f 	mvnsvs	r3, pc, rrx

00004458 <l4213>:
    4458:	b88dfee1 	stmlt	sp, {r0, r5, r6, r7, r9, sl, fp, ip, sp, lr, pc}

0000445c <l4214>:
    445c:	e0164c75 	ands	r4, r6, r5, ror ip

00004460 <l4215>:
    4460:	c3a0c5af 	movgt	ip, #734003200	; 0x2bc00000

00004464 <interrupt_118>:
    4464:	216f7f13 	clzcs	r7, r3

00004468 <l4217>:
    4468:	e1340730 	teq	r4, r0, lsr r7

0000446c <interrupt_239>:
    446c:	511b0001 	tstpl	fp, r1

00004470 <l4219>:
    4470:	4a000003 	bmi	4484 <l4224>

00004474 <interrupt_402>:
    4474:	20c62c51 	sbccs	r2, r6, r1, asr ip

00004478 <l4221>:
    4478:	60918c7e 	addsvs	r8, r1, lr, ror ip

0000447c <l4222>:
    447c:	00a68708 	adceq	r8, r6, r8, lsl #14

00004480 <l4223>:
    4480:	80f2200b 	rscshi	r2, r2, fp

00004484 <l4224>:
    4484:	e09aba30 	adds	fp, sl, r0, lsr sl

00004488 <l4225>:
    4488:	e3a06001 	mov	r6, #1

0000448c <l4226>:
    448c:	e7ddc006 	ldrb	ip, [sp, r6]

00004490 <interrupt_495>:
    4490:	e0679051 	rsb	r9, r7, r1, asr r0

00004494 <l4228>:
    4494:	7199a001 	orrsvc	sl, r9, r1

00004498 <l4229>:
    4498:	e3a01025 	mov	r1, #37	; 0x25

0000449c <l4230>:
    449c:	37cd4001 	strbcc	r4, [sp, r1]

000044a0 <l4231>:
    44a0:	e0f2c3ee 	rscs	ip, r2, lr, ror #7

000044a4 <l4232>:
    44a4:	e088010a 	add	r0, r8, sl, lsl #2

000044a8 <l4233>:
    44a8:	31dda0d4 	ldrsbcc	sl, [sp, #4]

000044ac <l4234>:
    44ac:	e5bd602c 	ldr	r6, [sp, #44]!	; 0x2c

000044b0 <l4235>:
    44b0:	e3a0803d 	mov	r8, #61	; 0x3d

000044b4 <l4236>:
    44b4:	e75d3008 	ldrb	r3, [sp, -r8]

000044b8 <l4237>:
    44b8:	e3a0e020 	mov	lr, #32

000044bc <l4238>:
    44bc:	575d600e 	ldrbpl	r6, [sp, -lr]

000044c0 <l4239>:
    44c0:	33e0bede 	mvncc	fp, #3552	; 0xde0

000044c4 <interrupt_346>:
    44c4:	80410069 	subhi	r0, r1, r9, rrx

000044c8 <l4241>:
    44c8:	e3a07003 	mov	r7, #3

000044cc <interrupt_420>:
    44cc:	519da0d7 	ldrsbpl	sl, [sp, r7]

000044d0 <l4243>:
    44d0:	c54d5027 	strbgt	r5, [sp, #-39]	; 0x27

000044d4 <l4244>:
    44d4:	e3a0500e 	mov	r5, #14

000044d8 <l4245>:
    44d8:	610d70b5 	strhvs	r7, [sp, -r5]

000044dc <l4246>:
    44dc:	921fae81 	andsls	sl, pc, #2064	; 0x810

000044e0 <l4247>:
    44e0:	e13f0067 	teq	pc, r7, rrx

000044e4 <l4248>:
    44e4:	d13808e2 	teqle	r8, r2, ror #17

000044e8 <l4249>:
    44e8:	e11504ef 	tst	r5, pc, ror #9

000044ec <l4250>:
    44ec:	e2bf0629 	adcs	r0, pc, #42991616	; 0x2900000

000044f0 <l4251>:
    44f0:	e270a73f 	rsbs	sl, r0, #16515072	; 0xfc0000

000044f4 <l4252>:
    44f4:	e3a0500e 	mov	r5, #14

000044f8 <l4253>:
    44f8:	e11dc0b5 	ldrh	ip, [sp, -r5]

000044fc <l4254>:
    44fc:	2292c2e6 	addscs	ip, r2, #1610612750	; 0x6000000e

00004500 <l4255>:
    4500:	d314071a 	tstle	r4, #6815744	; 0x680000

00004504 <l4256>:
    4504:	954d2025 	strbls	r2, [sp, #-37]	; 0x25

00004508 <l4257>:
    4508:	92265e96 	eorls	r5, r6, #2400	; 0x960

0000450c <interrupt_512>:
    450c:	71170060 	tstvc	r7, r0, rrx

00004510 <l4259>:
    4510:	e8bd0002 	ldmfd	sp!, {r1}

00004514 <l4260>:
    4514:	e033e00f 	eors	lr, r3, pc

00004518 <l4261>:
    4518:	e59fc000 	ldr	ip, [pc]	; 4520 <l4263>

0000451c <interrupt_260>:
    451c:	ea000000 	b	4524 <l4264>

00004520 <l4263>:
    4520:	000fffb4 	.word	0x000fffb4

00004524 <l4264>:
    4524:	e14c1099 	swpb	r1, r9, [ip]

00004528 <l4265>:
    4528:	ca000002 	bgt	4538 <l4269>

0000452c <l4266>:
    452c:	e16f9f17 	clz	r9, r7

00004530 <l4267>:
    4530:	11c35ce8 	bicne	r5, r3, r8, ror #25

00004534 <l4268>:
    4534:	52ae21de 	adcpl	r2, lr, #-2147483593	; 0x80000037

00004538 <l4269>:
    4538:	21310005 	teqcs	r1, r5

0000453c <interrupt_91>:
    453c:	8a000001 	bhi	4548 <l4273>

00004540 <l4271>:
    4540:	a057300e 	subsge	r3, r7, lr

00004544 <l4272>:
    4544:	21730e6f 	cmncs	r3, pc, ror #28

00004548 <l4273>:
    4548:	e1e0006c 	mvn	r0, ip, rrx

0000454c <interrupt_519>:
    454c:	e2562435 	subs	r2, r6, #889192448	; 0x35000000

00004550 <l4275>:
    4550:	e3cfe04f 	bic	lr, pc, #79	; 0x4f

00004554 <interrupt_468>:
    4554:	a1e0b6a2 	mvnge	fp, r2, lsr #13

00004558 <interrupt_696>:
    4558:	735a066d 	cmpvc	sl, #114294784	; 0x6d00000

0000455c <interrupt_448>:
    455c:	e0800c0c 	add	r0, r0, ip, lsl #24

00004560 <l4279>:
    4560:	e3a03024 	mov	r3, #36	; 0x24

00004564 <l4280>:
    4564:	e71db003 	ldr	fp, [sp, -r3]

00004568 <l4281>:
    4568:	e59f7000 	ldr	r7, [pc]	; 4570 <interrupt_381>

0000456c <l4282>:
    456c:	ea000000 	b	4574 <l4284>

00004570 <interrupt_381>:
    4570:	000fffbc 	.word	0x000fffbc

00004574 <l4284>:
    4574:	4147109c 	swpbmi	r1, ip, [r7]

00004578 <l4285>:
    4578:	e3a00002 	mov	r0, #2

0000457c <l4286>:
    457c:	c75d9000 	ldrbgt	r9, [sp, -r0]

00004580 <l4287>:
    4580:	50b5797a 	adcspl	r7, r5, sl, ror r9

00004584 <l4288>:
    4584:	815d31df 	ldrsbhi	r3, [sp, #-31]	; 0xffffffe1

00004588 <interrupt_279>:
    4588:	d35c0033 	cmple	ip, #51	; 0x33

0000458c <l4290>:
    458c:	21c502a9 	biccs	r0, r5, r9, lsr #5

00004590 <l4291>:
    4590:	70fc4f0f 	rscsvc	r4, ip, pc, lsl #30

00004594 <l4292>:
    4594:	e3a00018 	mov	r0, #24

00004598 <l4293>:
    4598:	710d60b0 	strhvc	r6, [sp, -r0]

0000459c <l4294>:
    459c:	e3f0c1f2 	mvns	ip, #-2147483588	; 0x8000003c

000045a0 <l4295>:
    45a0:	e1c8994a 	bic	r9, r8, sl, asr #18

000045a4 <l4296>:
    45a4:	e1f044eb 	mvns	r4, fp, ror #9

000045a8 <l4297>:
    45a8:	e040300c 	sub	r3, r0, ip

000045ac <l4298>:
    45ac:	e1a00000 	nop			; (mov r0, r0)

000045b0 <l4299>:
    45b0:	e0006003 	and	r6, r0, r3

000045b4 <l4300>:
    45b4:	e3a0400d 	mov	r4, #13

000045b8 <l4301>:
    45b8:	e75d8004 	ldrb	r8, [sp, -r4]

000045bc <l4302>:
    45bc:	616f7f13 	clzvs	r7, r3

000045c0 <l4303>:
    45c0:	ea000002 	b	45d0 <l4307>

000045c4 <l4304>:
    45c4:	e280107c 	add	r1, r0, #124	; 0x7c

000045c8 <interrupt_493>:
    45c8:	10bb9001 	adcsne	r9, fp, r1

000045cc <l4306>:
    45cc:	ea000000 	b	45d4 <interrupt_199>

000045d0 <l4307>:
    45d0:	eafffffc 	b	45c8 <interrupt_493>

000045d4 <interrupt_199>:
    45d4:	31f0c07b 	mvnscc	ip, fp, ror r0

000045d8 <l4309>:
    45d8:	e3a06001 	mov	r6, #1

000045dc <l4310>:
    45dc:	57cd2006 	strbpl	r2, [sp, r6]

000045e0 <l4311>:
    45e0:	e2863486 	add	r3, r6, #-2046820352	; 0x86000000

000045e4 <l4312>:
    45e4:	e03b100a 	eors	r1, fp, sl

000045e8 <l4313>:
    45e8:	01150063 	tsteq	r5, r3, rrx

000045ec <l4314>:
    45ec:	911c0009 	tstls	ip, r9

000045f0 <l4315>:
    45f0:	e3a0e00e 	mov	lr, #14

000045f4 <interrupt_785>:
    45f4:	e11d60fe 	ldrsh	r6, [sp, -lr]

000045f8 <interrupt_211>:
    45f8:	2a000003 	bcs	460c <l4322>

000045fc <l4318>:
    45fc:	e28010e4 	add	r1, r0, #228	; 0xe4

00004600 <l4319>:
    4600:	c0b74002 	adcsgt	r4, r7, r2

00004604 <l4320>:
    4604:	81e0c83e 	mvnhi	ip, lr, lsr r8

00004608 <interrupt_349>:
    4608:	ea000000 	b	4610 <interrupt_885>

0000460c <l4322>:
    460c:	eafffffb 	b	4600 <l4319>

00004610 <interrupt_885>:
    4610:	780d63b2 	stmdavc	sp, {r1, r4, r5, r7, r8, r9, sp, lr}

00004614 <l4324>:
    4614:	804b5368 	subhi	r5, fp, r8, ror #6

00004618 <l4325>:
    4618:	015db2ba 	ldrheq	fp, [sp, #-42]	; 0xffffffd6

0000461c <l4326>:
    461c:	e3a00048 	mov	r0, #72	; 0x48

00004620 <interrupt_541>:
    4620:	210d00b0 	strhcs	r0, [sp, -r0]

00004624 <l4328>:
    4624:	e3b01b07 	movs	r1, #7168	; 0x1c00

00004628 <interrupt_837>:
    4628:	1026b387 	eorne	fp, r6, r7, lsl #7

0000462c <l4330>:
    462c:	81c0ec71 	bichi	lr, r0, r1, ror ip

00004630 <l4331>:
    4630:	d54d0040 	strble	r0, [sp, #-64]	; 0x40

00004634 <interrupt_69>:
    4634:	e078c482 	rsbs	ip, r8, r2, lsl #9

00004638 <l4333>:
    4638:	e064c000 	rsb	ip, r4, r0

0000463c <l4334>:
    463c:	e50df028 	str	pc, [sp, #-40]	; 0x28

00004640 <l4335>:
    4640:	40119004 	andsmi	r9, r1, r4

00004644 <l4336>:
    4644:	d3120034 	tstle	r2, #52	; 0x34

00004648 <interrupt_170>:
    4648:	ea000004 	b	4660 <l4343>

0000464c <l4338>:
    464c:	e28010a8 	add	r1, r0, #168	; 0xa8

00004650 <l4339>:
    4650:	e18f4000 	orr	r4, pc, r0

00004654 <interrupt_709>:
    4654:	e3b0a209 	movs	sl, #-1879048192	; 0x90000000

00004658 <l4341>:
    4658:	e0942416 	adds	r2, r4, r6, lsl r4

0000465c <l4342>:
    465c:	ea000000 	b	4664 <l4344>

00004660 <l4343>:
    4660:	eafffffa 	b	4650 <l4339>

00004664 <l4344>:
    4664:	e53d7008 	ldr	r7, [sp, #-8]!

00004668 <l4345>:
    4668:	e9ad0010 	stmib	sp!, {r4}

0000466c <l4346>:
    466c:	d55d0022 	ldrble	r0, [sp, #-34]	; 0x22

00004670 <l4347>:
    4670:	935906cb 	cmpls	r9, #212860928	; 0xcb00000

00004674 <l4348>:
    4674:	e13a0005 	teq	sl, r5

00004678 <l4349>:
    4678:	92f105ed 	rscsls	r0, r1, #994050048	; 0x3b400000

0000467c <l4350>:
    467c:	e112000a 	tst	r2, sl

00004680 <l4351>:
    4680:	d15d23b6 	ldrhle	r2, [sp, #-54]	; 0xffffffca

00004684 <l4352>:
    4684:	e0953006 	adds	r3, r5, r6

00004688 <l4353>:
    4688:	e3a02038 	mov	r2, #56	; 0x38

0000468c <l4354>:
    468c:	e73d7002 	ldr	r7, [sp, -r2]!

00004690 <interrupt_287>:
    4690:	d16faf1a 	clzle	sl, sl

00004694 <l4356>:
    4694:	223a58ba 	eorscs	r5, sl, #12189696	; 0xba0000

00004698 <l4357>:
    4698:	e3a0b02a 	mov	fp, #42	; 0x2a

0000469c <l4358>:
    469c:	e19d10bb 	ldrh	r1, [sp, fp]

000046a0 <l4359>:
    46a0:	e3c4c010 	bic	ip, r4, #16

000046a4 <l4360>:
    46a4:	3a000002 	bcc	46b4 <l4364>

000046a8 <l4361>:
    46a8:	e280101c 	add	r1, r0, #28

000046ac <interrupt_730>:
    46ac:	816f5f1a 	clzhi	r5, sl

000046b0 <l4363>:
    46b0:	ea000000 	b	46b8 <l4365>

000046b4 <l4364>:
    46b4:	eafffffc 	b	46ac <interrupt_730>

000046b8 <l4365>:
    46b8:	d16f3f10 	clzle	r3, r0

000046bc <l4366>:
    46bc:	e3a0803f 	mov	r8, #63	; 0x3f

000046c0 <l4367>:
    46c0:	419d80d8 	ldrsbmi	r8, [sp, r8]

000046c4 <interrupt_846>:
    46c4:	e03a200b 	eors	r2, sl, fp

000046c8 <l4369>:
    46c8:	a199900e 	orrsge	r9, r9, lr

000046cc <interrupt_810>:
    46cc:	e16f1f1e 	clz	r1, lr

000046d0 <l4371>:
    46d0:	e0757003 	rsbs	r7, r5, r3

000046d4 <l4372>:
    46d4:	a1590006 	cmpge	r9, r6

000046d8 <interrupt_972>:
    46d8:	ea000003 	b	46ec <l4378>

000046dc <l4374>:
    46dc:	e28010b8 	add	r1, r0, #184	; 0xb8

000046e0 <l4375>:
    46e0:	e1e053e1 	mvn	r5, r1, ror #7

000046e4 <l4376>:
    46e4:	e187c005 	orr	ip, r7, r5

000046e8 <l4377>:
    46e8:	ea000000 	b	46f0 <interrupt_37>

000046ec <l4378>:
    46ec:	eafffffb 	b	46e0 <l4375>

000046f0 <interrupt_37>:
    46f0:	3a000007 	bcc	4714 <l4388>

000046f4 <l4380>:
    46f4:	e28010c5 	add	r1, r0, #197	; 0xc5

000046f8 <l4381>:
    46f8:	e193000a 	orrs	r0, r3, sl

000046fc <l4382>:
    46fc:	e11b0707 	tst	fp, r7, lsl #14

00004700 <interrupt_761>:
    4700:	21590332 	cmpcs	r9, r2, lsr r3

00004704 <interrupt_34>:
    4704:	b15f0062 	cmplt	pc, r2, rrx

00004708 <l4385>:
    4708:	611401c5 	tstvs	r4, r5, asr #3

0000470c <l4386>:
    470c:	e0034008 	and	r4, r3, r8

00004710 <l4387>:
    4710:	ea000000 	b	4718 <interrupt_365>

00004714 <l4388>:
    4714:	eafffff7 	b	46f8 <l4381>

00004718 <interrupt_365>:
    4718:	c0581c22 	subsgt	r1, r8, r2, lsr #24

0000471c <l4390>:
    471c:	51f06957 	mvnspl	r6, r7, asr r9

00004720 <l4391>:
    4720:	e8ade000 	stmia	sp!, {sp, lr, pc}

00004724 <l4392>:
    4724:	e81d1004 	ldmda	sp, {r2, ip}

00004728 <l4393>:
    4728:	d5ddc02d 	ldrble	ip, [sp, #45]	; 0x2d

0000472c <interrupt_8>:
    472c:	e1a00000 	nop			; (mov r0, r0)

00004730 <l4395>:
    4730:	20192915 	andscs	r2, r9, r5, lsl r9

00004734 <l4396>:
    4734:	c031898f 	eorsgt	r8, r1, pc, lsl #19

00004738 <l4397>:
    4738:	988d2415 	stmls	sp, {r0, r2, r4, sl, sp}

0000473c <l4398>:
    473c:	e33b0533 	teq	fp, #213909504	; 0xcc00000

00004740 <interrupt_909>:
    4740:	32d266f1 	sbcscc	r6, r2, #252706816	; 0xf100000

00004744 <l4400>:
    4744:	e59f7000 	ldr	r7, [pc]	; 474c <l4402>

00004748 <l4401>:
    4748:	ea000000 	b	4750 <l4403>

0000474c <l4402>:
    474c:	000fffb8 	.word	0x000fffb8

00004750 <l4403>:
    4750:	e147409a 	swpb	r4, sl, [r7]

00004754 <l4404>:
    4754:	e59f3000 	ldr	r3, [pc]	; 475c <l4406>

00004758 <l4405>:
    4758:	ea000000 	b	4760 <l4407>

0000475c <l4406>:
    475c:	000fffcc 	.word	0x000fffcc

00004760 <l4407>:
    4760:	e1031099 	swp	r1, r9, [r3]

00004764 <interrupt_251>:
    4764:	716fef19 	clzvc	lr, r9

00004768 <l4409>:
    4768:	e2eec61b 	rsc	ip, lr, #28311552	; 0x1b00000

0000476c <l4410>:
    476c:	e59fc000 	ldr	ip, [pc]	; 4774 <l4412>

00004770 <l4411>:
    4770:	ea000000 	b	4778 <interrupt_775>

00004774 <l4412>:
    4774:	000fffe8 	.word	0x000fffe8

00004778 <interrupt_775>:
    4778:	e10c5092 	swp	r5, r2, [ip]

0000477c <interrupt_975>:
    477c:	81580067 	cmphi	r8, r7, rrx

00004780 <interrupt_974>:
    4780:	102a6008 	eorne	r6, sl, r8

00004784 <l4416>:
    4784:	a0257062 	eorge	r7, r5, r2, rrx

00004788 <l4417>:
    4788:	d0e3405c 	rscle	r4, r3, ip, asr r0

0000478c <interrupt_818>:
    478c:	c3730e15 	cmngt	r3, #336	; 0x150

00004790 <l4419>:
    4790:	80eea064 	rschi	sl, lr, r4, rrx

00004794 <l4420>:
    4794:	e16f4f1b 	clz	r4, fp

00004798 <l4421>:
    4798:	e93d0298 	ldmdb	sp!, {r3, r4, r7, r9}

0000479c <l4422>:
    479c:	116f8f16 	clzne	r8, r6

000047a0 <l4423>:
    47a0:	a1300035 	teqge	r0, r5, lsr r0

000047a4 <l4424>:
    47a4:	e1a09e76 	ror	r9, r6, lr

000047a8 <l4425>:
    47a8:	e0236617 	eor	r6, r3, r7, lsl r6

000047ac <interrupt_358>:
    47ac:	da000000 	ble	47b4 <l4428>

000047b0 <l4427>:
    47b0:	c1e055c0 	mvngt	r5, r0, asr #11

000047b4 <l4428>:
    47b4:	e06f7005 	rsb	r7, pc, r5

000047b8 <interrupt_396>:
    47b8:	e59f1000 	ldr	r1, [pc]	; 47c0 <interrupt_853>

000047bc <interrupt_283>:
    47bc:	ea000000 	b	47c4 <l4432>

000047c0 <interrupt_853>:
    47c0:	000fffb4 	.word	0x000fffb4

000047c4 <l4432>:
    47c4:	4141209c 	swpbmi	r2, ip, [r1]

000047c8 <l4433>:
    47c8:	e59f2000 	ldr	r2, [pc]	; 47d0 <l4435>

000047cc <interrupt_989>:
    47cc:	ea000000 	b	47d4 <l4436>

000047d0 <l4435>:
    47d0:	000fffb8 	.word	0x000fffb8

000047d4 <l4436>:
    47d4:	e1425093 	swpb	r5, r3, [r2]

000047d8 <interrupt_721>:
    47d8:	124e7c02 	subne	r7, lr, #512	; 0x200

000047dc <l4438>:
    47dc:	12fc7222 	rscsne	r7, ip, #536870914	; 0x20000002

000047e0 <l4439>:
    47e0:	e16faf17 	clz	sl, r7

000047e4 <l4440>:
    47e4:	23875e92 	orrcs	r5, r7, #2336	; 0x920

000047e8 <l4441>:
    47e8:	c3dead1f 	bicsgt	sl, lr, #1984	; 0x7c0

000047ec <l4442>:
    47ec:	e3e0208b 	mvn	r2, #139	; 0x8b

000047f0 <l4443>:
    47f0:	51550234 	cmppl	r5, r4, lsr r2

000047f4 <l4444>:
    47f4:	e048300c 	sub	r3, r8, ip

000047f8 <l4445>:
    47f8:	e3a04038 	mov	r4, #56	; 0x38

000047fc <l4446>:
    47fc:	e7ad7004 	str	r7, [sp, r4]!

00004800 <interrupt_843>:
    4800:	80ae5069 	adchi	r5, lr, r9, rrx

00004804 <l4448>:
    4804:	e59f0000 	ldr	r0, [pc]	; 480c <l4450>

00004808 <l4449>:
    4808:	ea000000 	b	4810 <l4451>

0000480c <l4450>:
    480c:	000fffb4 	.word	0x000fffb4

00004810 <l4451>:
    4810:	e100209b 	swp	r2, fp, [r0]

00004814 <l4452>:
    4814:	e15d21b0 	ldrh	r2, [sp, #-16]

00004818 <l4453>:
    4818:	c2b50201 	adcsgt	r0, r5, #268435456	; 0x10000000

0000481c <l4454>:
    481c:	b14db3b4 	strhlt	fp, [sp, #-52]	; 0xffffffcc

00004820 <interrupt_462>:
    4820:	e15dc2ba 	ldrh	ip, [sp, #-42]	; 0xffffffd6

00004824 <l4456>:
    4824:	e3a08018 	mov	r8, #24

00004828 <l4457>:
    4828:	e11d50f8 	ldrsh	r5, [sp, -r8]

0000482c <l4458>:
    482c:	e1740514 	cmn	r4, r4, lsl r5

00004830 <interrupt_643>:
    4830:	e350056d 	cmp	r0, #457179136	; 0x1b400000

00004834 <l4460>:
    4834:	e0009004 	and	r9, r0, r4

00004838 <l4461>:
    4838:	224a49da 	subcs	r4, sl, #3571712	; 0x368000

0000483c <l4462>:
    483c:	5a000003 	bpl	4850 <l4467>

00004840 <l4463>:
    4840:	e28010f0 	add	r1, r0, #240	; 0xf0

00004844 <l4464>:
    4844:	e1760060 	cmn	r6, r0, rrx

00004848 <interrupt_36>:
    4848:	31750008 	cmncc	r5, r8

0000484c <l4466>:
    484c:	ea000000 	b	4854 <l4468>

00004850 <l4467>:
    4850:	eafffffb 	b	4844 <l4464>

00004854 <l4468>:
    4854:	e59f2000 	ldr	r2, [pc]	; 485c <l4470>

00004858 <l4469>:
    4858:	ea000000 	b	4860 <l4471>

0000485c <l4470>:
    485c:	000fffe4 	.word	0x000fffe4

00004860 <l4471>:
    4860:	a1028095 	swpge	r8, r5, [r2]

00004864 <l4472>:
    4864:	e1710003 	cmn	r1, r3

00004868 <l4473>:
    4868:	e1d19a10 	bics	r9, r1, r0, lsl sl

0000486c <l4474>:
    486c:	e3a03028 	mov	r3, #40	; 0x28

00004870 <interrupt_774>:
    4870:	e11d70b3 	ldrh	r7, [sp, -r3]

00004874 <interrupt_201>:
    4874:	615d31d9 	ldrsbvs	r3, [sp, #-25]	; 0xffffffe7

00004878 <interrupt_936>:
    4878:	e1f09653 	mvns	r9, r3, asr r6

0000487c <l4478>:
    487c:	007f7c4f 	rsbseq	r7, pc, pc, asr #24

00004880 <l4479>:
    4880:	8a000006 	bhi	48a0 <l4487>

00004884 <l4480>:
    4884:	61a0e969 	rorvs	lr, r9, #18

00004888 <l4481>:
    4888:	e18f250e 	orr	r2, pc, lr, lsl #10

0000488c <l4482>:
    488c:	e35508c3 	cmp	r5, #12779520	; 0xc30000

00004890 <l4483>:
    4890:	d0fb76e9 	rscsle	r7, fp, r9, ror #13

00004894 <l4484>:
    4894:	60730017 	rsbsvs	r0, r3, r7, lsl r0

00004898 <interrupt_956>:
    4898:	90a04812 	adcls	r4, r0, r2, lsl r8

0000489c <interrupt_383>:
    489c:	e13b0f69 	teq	fp, r9, ror #30

000048a0 <l4487>:
    48a0:	d151043b 	cmple	r1, fp, lsr r4

000048a4 <l4488>:
    48a4:	61d96a7a 	bicsvs	r6, r9, sl, ror sl

000048a8 <l4489>:
    48a8:	e3a0e036 	mov	lr, #54	; 0x36

000048ac <l4490>:
    48ac:	374d700e 	strbcc	r7, [sp, -lr]

000048b0 <interrupt_898>:
    48b0:	e3a0c02c 	mov	ip, #44	; 0x2c

000048b4 <interrupt_285>:
    48b4:	e70d900c 	str	r9, [sp, -ip]

000048b8 <interrupt_1>:
    48b8:	e3a0e02f 	mov	lr, #47	; 0x2f

000048bc <l4494>:
    48bc:	511d00de 	ldrsbpl	r0, [sp, -lr]

000048c0 <interrupt_204>:
    48c0:	e3a01006 	mov	r1, #6

000048c4 <l4496>:
    48c4:	a19de0d1 	ldrsbge	lr, [sp, r1]

000048c8 <l4497>:
    48c8:	4072e13c 	rsbsmi	lr, r2, ip, lsr r1

000048cc <interrupt_299>:
    48cc:	e13c067b 	teq	ip, fp, ror r6

000048d0 <l4499>:
    48d0:	e05367ca 	subs	r6, r3, sl, asr #15

000048d4 <l4500>:
    48d4:	e0ac9009 	adc	r9, ip, r9

000048d8 <interrupt_133>:
    48d8:	ea000005 	b	48f4 <interrupt_389>

000048dc <l4502>:
    48dc:	e28010eb 	add	r1, r0, #235	; 0xeb

000048e0 <interrupt_461>:
    48e0:	7252446e 	subsvc	r4, r2, #1845493760	; 0x6e000000

000048e4 <l4504>:
    48e4:	e00e2009 	and	r2, lr, r9

000048e8 <l4505>:
    48e8:	e134000a 	teq	r4, sl

000048ec <l4506>:
    48ec:	d3790074 	cmnle	r9, #116	; 0x74

000048f0 <l4507>:
    48f0:	ea000000 	b	48f8 <l4509>

000048f4 <interrupt_389>:
    48f4:	eafffff9 	b	48e0 <interrupt_461>

000048f8 <l4509>:
    48f8:	e0cb200f 	sbc	r2, fp, pc

000048fc <l4510>:
    48fc:	e3a0b02c 	mov	fp, #44	; 0x2c

00004900 <interrupt_804>:
    4900:	574d300b 	strbpl	r3, [sp, -fp]

00004904 <l4512>:
    4904:	815d00d7 	ldrsbhi	r0, [sp, #-7]

00004908 <l4513>:
    4908:	e53dc030 	ldr	ip, [sp, #-48]!	; 0x30

0000490c <l4514>:
    490c:	75cdb02f 	strbvc	fp, [sp, #47]	; 0x2f

00004910 <l4515>:
    4910:	e1f02336 	mvns	r2, r6, lsr r3

00004914 <l4516>:
    4914:	037c0a01 	cmneq	ip, #4096	; 0x1000

00004918 <l4517>:
    4918:	907a0002 	rsbsls	r0, sl, r2

0000491c <l4518>:
    491c:	e5dd8021 	ldrb	r8, [sp, #33]	; 0x21

00004920 <l4519>:
    4920:	d03a5334 	eorsle	r5, sl, r4, lsr r3

00004924 <l4520>:
    4924:	e59f3000 	ldr	r3, [pc]	; 492c <l4522>

00004928 <l4521>:
    4928:	ea000000 	b	4930 <interrupt_291>

0000492c <l4522>:
    492c:	000fffa8 	.word	0x000fffa8

00004930 <interrupt_291>:
    4930:	e1436099 	swpb	r6, r9, [r3]

00004934 <l4524>:
    4934:	e3a0a018 	mov	sl, #24

00004938 <interrupt_916>:
    4938:	e19da0da 	ldrsb	sl, [sp, sl]

0000493c <l4526>:
    493c:	e59f8000 	ldr	r8, [pc]	; 4944 <l4528>

00004940 <l4527>:
    4940:	ea000000 	b	4948 <l4529>

00004944 <l4528>:
    4944:	000fffc0 	.word	0x000fffc0

00004948 <l4529>:
    4948:	e1080095 	swp	r0, r5, [r8]

0000494c <l4530>:
    494c:	40ba9003 	adcsmi	r9, sl, r3

00004950 <l4531>:
    4950:	9a000003 	bls	4964 <interrupt_813>

00004954 <l4532>:
    4954:	e280105c 	add	r1, r0, #92	; 0x5c

00004958 <l4533>:
    4958:	83770df5 	cmnhi	r7, #15680	; 0x3d40

0000495c <interrupt_928>:
    495c:	e29fafbe 	adds	sl, pc, #760	; 0x2f8

00004960 <l4535>:
    4960:	ea000000 	b	4968 <l4537>

00004964 <interrupt_813>:
    4964:	eafffffb 	b	4958 <l4533>

00004968 <l4537>:
    4968:	e3a09014 	mov	r9, #20

0000496c <l4538>:
    496c:	e78d8009 	str	r8, [sp, r9]

00004970 <l4539>:
    4970:	e11c0001 	tst	ip, r1

00004974 <l4540>:
    4974:	e059b0c8 	subs	fp, r9, r8, asr #1

00004978 <l4541>:
    4978:	406b200b 	rsbmi	r2, fp, fp

0000497c <l4542>:
    497c:	e3a0403a 	mov	r4, #58	; 0x3a

00004980 <l4543>:
    4980:	e19db0b4 	ldrh	fp, [sp, r4]

00004984 <l4544>:
    4984:	e07e0d6b 	rsbs	r0, lr, fp, ror #26

00004988 <l4545>:
    4988:	451d2010 	ldrmi	r2, [sp, #-16]

0000498c <l4546>:
    498c:	e5dda031 	ldrb	sl, [sp, #49]	; 0x31

00004990 <l4547>:
    4990:	d1180004 	tstle	r8, r4

00004994 <l4548>:
    4994:	599d0a00 	ldmibpl	sp, {r9, fp}

00004998 <l4549>:
    4998:	42465064 	submi	r5, r6, #100	; 0x64

0000499c <l4550>:
    499c:	e3e01dfd 	mvn	r1, #16192	; 0x3f40

000049a0 <l4551>:
    49a0:	e1ddb3f0 	ldrsh	fp, [sp, #48]	; 0x30

000049a4 <l4552>:
    49a4:	e00e098b 	and	r0, lr, fp, lsl #19

000049a8 <l4553>:
    49a8:	e007c009 	and	ip, r7, r9

000049ac <interrupt_212>:
    49ac:	307e9714 	rsbscc	r9, lr, r4, lsl r7

000049b0 <l4555>:
    49b0:	e3a0701e 	mov	r7, #30

000049b4 <l4556>:
    49b4:	d19d50f7 	ldrshle	r5, [sp, r7]

000049b8 <interrupt_710>:
    49b8:	e03c2065 	eors	r2, ip, r5, rrx

000049bc <interrupt_977>:
    49bc:	e0549071 	subs	r9, r4, r1, ror r0

000049c0 <l4559>:
    49c0:	ea000006 	b	49e0 <l4567>

000049c4 <l4560>:
    49c4:	e2801069 	add	r1, r0, #105	; 0x69

000049c8 <interrupt_318>:
    49c8:	d0c7600c 	sbcle	r6, r7, ip

000049cc <interrupt_995>:
    49cc:	02e07b27 	rsceq	r7, r0, #39936	; 0x9c00

000049d0 <interrupt_896>:
    49d0:	a013ac34 	andsge	sl, r3, r4, lsr ip

000049d4 <l4564>:
    49d4:	40fbe06e 	rscsmi	lr, fp, lr, rrx

000049d8 <interrupt_573>:
    49d8:	c056823e 	subsgt	r8, r6, lr, lsr r2

000049dc <l4566>:
    49dc:	ea000000 	b	49e4 <l4568>

000049e0 <l4567>:
    49e0:	eafffff8 	b	49c8 <interrupt_318>

000049e4 <l4568>:
    49e4:	71d13c02 	bicsvc	r3, r1, r2, lsl #24

000049e8 <l4569>:
    49e8:	e3a06016 	mov	r6, #22

000049ec <l4570>:
    49ec:	919d40f6 	ldrshls	r4, [sp, r6]

000049f0 <l4571>:
    49f0:	4a000003 	bmi	4a04 <l4576>

000049f4 <l4572>:
    49f4:	21570788 	cmpcs	r7, r8, lsl #15

000049f8 <interrupt_459>:
    49f8:	e02aadce 	eor	sl, sl, lr, asr #27

000049fc <interrupt_831>:
    49fc:	a1cb000b 	bicge	r0, fp, fp

00004a00 <l4575>:
    4a00:	e0498006 	sub	r8, r9, r6

00004a04 <l4576>:
    4a04:	e152000c 	cmp	r2, ip

00004a08 <l4577>:
    4a08:	e0818000 	add	r8, r1, r0

00004a0c <interrupt_387>:
    4a0c:	838a73cf 	orrhi	r7, sl, #1006632963	; 0x3c000003

00004a10 <l4579>:
    4a10:	11916e37 	orrsne	r6, r1, r7, lsr lr

00004a14 <l4580>:
    4a14:	e0b22064 	adcs	r2, r2, r4, rrx

00004a18 <l4581>:
    4a18:	b20b38f7 	andlt	r3, fp, #16187392	; 0xf70000

00004a1c <l4582>:
    4a1c:	e0b90a58 	adcs	r0, r9, r8, asr sl

00004a20 <interrupt_2>:
    4a20:	e59fe000 	ldr	lr, [pc]	; 4a28 <l4585>

00004a24 <interrupt_256>:
    4a24:	ea000000 	b	4a2c <l4586>

00004a28 <l4585>:
    4a28:	000fffbc 	.word	0x000fffbc

00004a2c <l4586>:
    4a2c:	e10e8098 	swp	r8, r8, [lr]

00004a30 <l4587>:
    4a30:	124a5e93 	subne	r5, sl, #2352	; 0x930

00004a34 <l4588>:
    4a34:	e59fb000 	ldr	fp, [pc]	; 4a3c <l4590>

00004a38 <l4589>:
    4a38:	ea000000 	b	4a40 <l4591>

00004a3c <l4590>:
    4a3c:	000fffe8 	.word	0x000fffe8

00004a40 <l4591>:
    4a40:	c10b9095 	swpgt	r9, r5, [fp]

00004a44 <l4592>:
    4a44:	23e07423 	mvncs	r7, #587202560	; 0x23000000

00004a48 <l4593>:
    4a48:	e3a00034 	mov	r0, #52	; 0x34

00004a4c <interrupt_526>:
    4a4c:	e7cda000 	strb	sl, [sp, r0]

00004a50 <l4595>:
    4a50:	e1cb1f25 	bic	r1, fp, r5, lsr #30

00004a54 <l4596>:
    4a54:	e9bd57ff 	ldmib	sp!, {r0, r1, r2, r3, r4, r5, r6, r7, r8, r9, sl, ip, lr}

00004a58 <interrupt_259>:
    4a58:	102c0008 	eorne	r0, ip, r8

00004a5c <l4598>:
    4a5c:	11790c2f 	cmnne	r9, pc, lsr #24

00004a60 <l4599>:
    4a60:	e3a04018 	mov	r4, #24

00004a64 <l4600>:
    4a64:	e11d90d4 	ldrsb	r9, [sp, -r4]

00004a68 <l4601>:
    4a68:	e8bd0040 	ldmfd	sp!, {r6}

00004a6c <l4602>:
    4a6c:	e82d0806 	stmda	sp!, {r1, r2, fp}

00004a70 <l4603>:
    4a70:	41b0e00c 	movsmi	lr, ip

00004a74 <l4604>:
    4a74:	b1310068 	teqlt	r1, r8, rrx

00004a78 <l4605>:
    4a78:	e3a04004 	mov	r4, #4

00004a7c <interrupt_143>:
    4a7c:	810d20b4 	strhhi	r2, [sp, -r4]

00004a80 <l4607>:
    4a80:	a090406b 	addsge	r4, r0, fp, rrx

00004a84 <l4608>:
    4a84:	e0536000 	subs	r6, r3, r0

00004a88 <l4609>:
    4a88:	e59fe000 	ldr	lr, [pc]	; 4a90 <interrupt_116>

00004a8c <l4610>:
    4a8c:	ea000000 	b	4a94 <l4612>

00004a90 <interrupt_116>:
    4a90:	000fffd4 	.word	0x000fffd4

00004a94 <l4612>:
    4a94:	e10e6094 	swp	r6, r4, [lr]

00004a98 <l4613>:
    4a98:	03c22eb5 	biceq	r2, r2, #2896	; 0xb50

00004a9c <l4614>:
    4a9c:	051db020 	ldreq	fp, [sp, #-32]

00004aa0 <l4615>:
    4aa0:	e41de024 	ldr	lr, [sp], #-36	; 0x24

00004aa4 <l4616>:
    4aa4:	e0770006 	rsbs	r0, r7, r6

00004aa8 <l4617>:
    4aa8:	e2482cee 	sub	r2, r8, #60928	; 0xee00

00004aac <l4618>:
    4aac:	5a000006 	bpl	4acc <l4626>

00004ab0 <l4619>:
    4ab0:	e18cc006 	orr	ip, ip, r6

00004ab4 <l4620>:
    4ab4:	b15a0008 	cmplt	sl, r8

00004ab8 <interrupt_511>:
    4ab8:	216f0f1c 	clzcs	r0, ip

00004abc <interrupt_451>:
    4abc:	201cae10 	andscs	sl, ip, r0, lsl lr

00004ac0 <l4623>:
    4ac0:	3118000f 	tstcc	r8, pc

00004ac4 <l4624>:
    4ac4:	116f5f15 	clzne	r5, r5

00004ac8 <l4625>:
    4ac8:	e044a00e 	sub	sl, r4, lr

00004acc <l4626>:
    4acc:	409a6008 	addsmi	r6, sl, r8

00004ad0 <l4627>:
    4ad0:	e54d600c 	strb	r6, [sp, #-12]

00004ad4 <l4628>:
    4ad4:	50ef9000 	rscpl	r9, pc, r0

00004ad8 <interrupt_112>:
    4ad8:	e59fc000 	ldr	ip, [pc]	; 4ae0 <l4631>

00004adc <l4630>:
    4adc:	ea000000 	b	4ae4 <l4632>

00004ae0 <l4631>:
    4ae0:	000fffe0 	.word	0x000fffe0

00004ae4 <l4632>:
    4ae4:	214ce098 	swpbcs	lr, r8, [ip]

00004ae8 <l4633>:
    4ae8:	80033773 	andhi	r3, r3, r3, ror r7

00004aec <l4634>:
    4aec:	d1350929 	teqle	r5, r9, lsr #18

00004af0 <l4635>:
    4af0:	e08a600b 	add	r6, sl, fp

00004af4 <interrupt_779>:
    4af4:	039e1e93 	orrseq	r1, lr, #2352	; 0x930

00004af8 <l4637>:
    4af8:	e59f5000 	ldr	r5, [pc]	; 4b00 <l4639>

00004afc <l4638>:
    4afc:	ea000000 	b	4b04 <interrupt_195>

00004b00 <l4639>:
    4b00:	000fffd4 	.word	0x000fffd4

00004b04 <interrupt_195>:
    4b04:	e145a093 	swpb	sl, r3, [r5]

00004b08 <l4641>:
    4b08:	ea000007 	b	4b2c <l4650>

00004b0c <l4642>:
    4b0c:	e2801048 	add	r1, r0, #72	; 0x48

00004b10 <l4643>:
    4b10:	e1ca3258 	bic	r3, sl, r8, asr r2

00004b14 <interrupt_571>:
    4b14:	e05f2063 	subs	r2, pc, r3, rrx

00004b18 <l4645>:
    4b18:	c09f700f 	addsgt	r7, pc, pc

00004b1c <l4646>:
    4b1c:	33b07d32 	movscc	r7, #3200	; 0xc80

00004b20 <l4647>:
    4b20:	e0ec7006 	rsc	r7, ip, r6

00004b24 <l4648>:
    4b24:	e17b000a 	cmn	fp, sl

00004b28 <l4649>:
    4b28:	ea000000 	b	4b30 <l4651>

00004b2c <l4650>:
    4b2c:	eafffff7 	b	4b10 <l4643>

00004b30 <l4651>:
    4b30:	70e4b006 	rscvc	fp, r4, r6

00004b34 <interrupt_796>:
    4b34:	e1a00000 	nop			; (mov r0, r0)

00004b38 <l4653>:
    4b38:	e0a89001 	adc	r9, r8, r1

00004b3c <l4654>:
    4b3c:	01700e80 	cmneq	r0, r0, lsl #29

00004b40 <l4655>:
    4b40:	e15c090b 	cmp	ip, fp, lsl #18

00004b44 <l4656>:
    4b44:	01720069 	cmneq	r2, r9, rrx

00004b48 <l4657>:
    4b48:	e04c95c9 	sub	r9, ip, r9, asr #11

00004b4c <l4658>:
    4b4c:	e92d8888 	push	{r3, r7, fp, pc}

00004b50 <l4659>:
    4b50:	616f8f10 	clzvs	r8, r0

00004b54 <interrupt_456>:
    4b54:	e59f7000 	ldr	r7, [pc]	; 4b5c <l4662>

00004b58 <l4661>:
    4b58:	ea000000 	b	4b60 <l4663>

00004b5c <l4662>:
    4b5c:	000fffb0 	.word	0x000fffb0

00004b60 <l4663>:
    4b60:	8147b092 	swpbhi	fp, r2, [r7]

00004b64 <l4664>:
    4b64:	e3a09002 	mov	r9, #2

00004b68 <interrupt_557>:
    4b68:	57cde009 	strbpl	lr, [sp, r9]

00004b6c <l4666>:
    4b6c:	ea000007 	b	4b90 <l4675>

00004b70 <l4667>:
    4b70:	e280101b 	add	r1, r0, #27

00004b74 <l4668>:
    4b74:	c3c84b02 	bicgt	r4, r8, #2048	; 0x800

00004b78 <l4669>:
    4b78:	70be6009 	adcsvc	r6, lr, r9

00004b7c <l4670>:
    4b7c:	8389bbf7 	orrhi	fp, r9, #252928	; 0x3dc00

00004b80 <interrupt_680>:
    4b80:	e1cb0034 	bic	r0, fp, r4, lsr r0

00004b84 <l4672>:
    4b84:	70013332 	andvc	r3, r1, r2, lsr r3

00004b88 <l4673>:
    4b88:	62989e4f 	addsvs	r9, r8, #1264	; 0x4f0

00004b8c <l4674>:
    4b8c:	ea000000 	b	4b94 <interrupt_445>

00004b90 <l4675>:
    4b90:	eafffff7 	b	4b74 <l4668>

00004b94 <interrupt_445>:
    4b94:	e9bd5029 	ldmib	sp!, {r0, r3, r5, ip, lr}

00004b98 <l4677>:
    4b98:	416f1f1e 	clzmi	r1, lr

00004b9c <l4678>:
    4b9c:	45dd1007 	ldrbmi	r1, [sp, #7]

00004ba0 <l4679>:
    4ba0:	e59f7000 	ldr	r7, [pc]	; 4ba8 <l4681>

00004ba4 <interrupt_872>:
    4ba4:	ea000000 	b	4bac <l4682>

00004ba8 <l4681>:
    4ba8:	000fffe8 	.word	0x000fffe8

00004bac <l4682>:
    4bac:	c1479095 	swpbgt	r9, r5, [r7]

00004bb0 <l4683>:
    4bb0:	e1e081eb 	mvn	r8, fp, ror #3

00004bb4 <l4684>:
    4bb4:	e1f07b0e 	mvns	r7, lr, lsl #22

00004bb8 <l4685>:
    4bb8:	e13e0068 	teq	lr, r8, rrx

00004bbc <l4686>:
    4bbc:	015e0e52 	cmpeq	lr, r2, asr lr

00004bc0 <l4687>:
    4bc0:	789d57cf 	ldmvc	sp, {r0, r1, r2, r3, r6, r7, r8, r9, sl, ip, lr}

00004bc4 <l4688>:
    4bc4:	e48d6008 	str	r6, [sp], #8

00004bc8 <l4689>:
    4bc8:	a1b04008 	movsge	r4, r8

00004bcc <l4690>:
    4bcc:	e8bd482c 	pop	{r2, r3, r5, fp, lr}

00004bd0 <l4691>:
    4bd0:	e16f4f12 	clz	r4, r2

00004bd4 <interrupt_289>:
    4bd4:	e16f1f1e 	clz	r1, lr

00004bd8 <interrupt_659>:
    4bd8:	403c9009 	eorsmi	r9, ip, r9

00004bdc <l4694>:
    4bdc:	e3a0b00c 	mov	fp, #12

00004be0 <l4695>:
    4be0:	e69d400b 	ldr	r4, [sp], fp

00004be4 <l4696>:
    4be4:	d0a98837 	adcle	r8, r9, r7, lsr r8

00004be8 <l4697>:
    4be8:	eaffffff 	b	4bec <l4698>

00004bec <l4698>:
    4bec:	e312027a 	tst	r2, #-1610612729	; 0xa0000007

00004bf0 <l4699>:
    4bf0:	e067400c 	rsb	r4, r7, ip

00004bf4 <l4700>:
    4bf4:	b1e06009 	mvnlt	r6, r9

00004bf8 <l4701>:
    4bf8:	e83d5ca3 	ldmda	sp!, {r0, r1, r5, r7, sl, fp, ip, lr}

00004bfc <interrupt_550>:
    4bfc:	e9bd4040 	ldmib	sp!, {r6, lr}

00004c00 <l4703>:
    4c00:	e59f3000 	ldr	r3, [pc]	; 4c08 <l4705>

00004c04 <l4704>:
    4c04:	ea000000 	b	4c0c <l4706>

00004c08 <l4705>:
    4c08:	000fffe8 	.word	0x000fffe8

00004c0c <l4706>:
    4c0c:	21436098 	swpbcs	r6, r8, [r3]

00004c10 <l4707>:
    4c10:	d88d0285 	stmle	sp, {r0, r2, r7, r9}

00004c14 <interrupt_166>:
    4c14:	30453002 	subcc	r3, r5, r2

00004c18 <l4709>:
    4c18:	e9ad0010 	stmib	sp!, {r4}

00004c1c <l4710>:
    4c1c:	e3a0301c 	mov	r3, #28

00004c20 <l4711>:
    4c20:	975d7003 	ldrbls	r7, [sp, -r3]

00004c24 <l4712>:
    4c24:	e15d43b0 	ldrh	r4, [sp, #-48]	; 0xffffffd0

00004c28 <l4713>:
    4c28:	e25790d5 	subs	r9, r7, #213	; 0xd5

00004c2c <l4714>:
    4c2c:	e1750004 	cmn	r5, r4

00004c30 <l4715>:
    4c30:	e0e9b255 	rsc	fp, r9, r5, asr r2

00004c34 <l4716>:
    4c34:	e3a0902c 	mov	r9, #44	; 0x2c

00004c38 <l4717>:
    4c38:	870d0009 	strhi	r0, [sp, -r9]

00004c3c <l4718>:
    4c3c:	d15d91f2 	ldrshle	r9, [sp, #-18]	; 0xffffffee

00004c40 <l4719>:
    4c40:	e1b03650 	asrs	r3, r0, r6

00004c44 <interrupt_566>:
    4c44:	e04cef61 	sub	lr, ip, r1, ror #30

00004c48 <l4721>:
    4c48:	5086600b 	addpl	r6, r6, fp

00004c4c <l4722>:
    4c4c:	e16f8f19 	clz	r8, r9

00004c50 <l4723>:
    4c50:	e3a01004 	mov	r1, #4

00004c54 <interrupt_392>:
    4c54:	e61d7001 	ldr	r7, [sp], -r1

00004c58 <interrupt_664>:
    4c58:	4a000003 	bmi	4c6c <l4730>

00004c5c <l4726>:
    4c5c:	e16f1f19 	clz	r1, r9

00004c60 <l4727>:
    4c60:	e16faf10 	clz	sl, r0

00004c64 <l4728>:
    4c64:	81330000 	teqhi	r3, r0

00004c68 <l4729>:
    4c68:	80c92008 	sbchi	r2, r9, r8

00004c6c <l4730>:
    4c6c:	d1a0e00e 	movle	lr, lr

00004c70 <l4731>:
    4c70:	e59f3000 	ldr	r3, [pc]	; 4c78 <l4733>

00004c74 <l4732>:
    4c74:	ea000000 	b	4c7c <l4734>

00004c78 <l4733>:
    4c78:	000fffcc 	.word	0x000fffcc

00004c7c <l4734>:
    4c7c:	e1432099 	swpb	r2, r9, [r3]

00004c80 <l4735>:
    4c80:	e16fef11 	clz	lr, r1

00004c84 <l4736>:
    4c84:	e15c0061 	cmp	ip, r1, rrx

00004c88 <l4737>:
    4c88:	e3a03020 	mov	r3, #32

00004c8c <l4738>:
    4c8c:	e73d1003 	ldr	r1, [sp, -r3]!

00004c90 <interrupt_320>:
    4c90:	e2641e7b 	rsb	r1, r4, #1968	; 0x7b0

00004c94 <l4740>:
    4c94:	e8bd12ec 	pop	{r2, r3, r5, r6, r7, r9, ip}

00004c98 <l4741>:
    4c98:	3373069f 	cmncc	r3, #166723584	; 0x9f00000

00004c9c <interrupt_953>:
    4c9c:	e1dd42d2 	ldrsb	r4, [sp, #34]	; 0x22

00004ca0 <l4743>:
    4ca0:	e3a0400d 	mov	r4, #13

00004ca4 <l4744>:
    4ca4:	519d00d4 	ldrsbpl	r0, [sp, r4]

00004ca8 <l4745>:
    4ca8:	e5cd101e 	strb	r1, [sp, #30]

00004cac <l4746>:
    4cac:	e3829b2e 	orr	r9, r2, #47104	; 0xb800

00004cb0 <l4747>:
    4cb0:	d1560006 	cmple	r6, r6

00004cb4 <l4748>:
    4cb4:	e2976e7e 	adds	r6, r7, #2016	; 0x7e0

00004cb8 <l4749>:
    4cb8:	e59f3000 	ldr	r3, [pc]	; 4cc0 <l4751>

00004cbc <l4750>:
    4cbc:	ea000000 	b	4cc4 <l4752>

00004cc0 <l4751>:
    4cc0:	000fffbc 	.word	0x000fffbc

00004cc4 <l4752>:
    4cc4:	a1439092 	swpbge	r9, r2, [r3]

00004cc8 <interrupt_286>:
    4cc8:	5a000005 	bpl	4ce4 <l4760>

00004ccc <l4754>:
    4ccc:	e19a5009 	orrs	r5, sl, r9

00004cd0 <l4755>:
    4cd0:	e39e901e 	orrs	r9, lr, #30

00004cd4 <interrupt_607>:
    4cd4:	e19c7515 	orrs	r7, ip, r5, lsl r5

00004cd8 <l4757>:
    4cd8:	a3f0a582 	mvnsge	sl, #545259520	; 0x20800000

00004cdc <interrupt_176>:
    4cdc:	e16fbf18 	clz	fp, r8

00004ce0 <l4759>:
    4ce0:	22673886 	rsbcs	r3, r7, #8781824	; 0x860000

00004ce4 <l4760>:
    4ce4:	e2cbc54a 	sbc	ip, fp, #310378496	; 0x12800000

00004ce8 <l4761>:
    4ce8:	e5cd4014 	strb	r4, [sp, #20]

00004cec <interrupt_572>:
    4cec:	e3a0301c 	mov	r3, #28

00004cf0 <l4763>:
    4cf0:	010db0b3 	strheq	fp, [sp, -r3]

00004cf4 <l4764>:
    4cf4:	e55d2025 	ldrb	r2, [sp, #-37]	; 0x25

00004cf8 <interrupt_645>:
    4cf8:	c0428703 	subgt	r8, r2, r3, lsl #14

00004cfc <l4766>:
    4cfc:	e3a09014 	mov	r9, #20

00004d00 <l4767>:
    4d00:	e10d80b9 	strh	r8, [sp, -r9]

00004d04 <l4768>:
    4d04:	958d6014 	strls	r6, [sp, #20]

00004d08 <l4769>:
    4d08:	e59f3000 	ldr	r3, [pc]	; 4d10 <l4771>

00004d0c <l4770>:
    4d0c:	ea000000 	b	4d14 <l4772>

00004d10 <l4771>:
    4d10:	000fffe4 	.word	0x000fffe4

00004d14 <l4772>:
    4d14:	5103a091 	swppl	sl, r1, [r3]

00004d18 <l4773>:
    4d18:	e59f8000 	ldr	r8, [pc]	; 4d20 <l4775>

00004d1c <interrupt_830>:
    4d1c:	ea000000 	b	4d24 <l4776>

00004d20 <l4775>:
    4d20:	000fffe4 	.word	0x000fffe4

00004d24 <l4776>:
    4d24:	e108c09c 	swp	ip, ip, [r8]

00004d28 <l4777>:
    4d28:	1052017b 	subsne	r0, r2, fp, ror r1

00004d2c <l4778>:
    4d2c:	e0a5406c 	adc	r4, r5, ip, rrx

00004d30 <l4779>:
    4d30:	b072700b 	rsbslt	r7, r2, fp

00004d34 <l4780>:
    4d34:	c1350008 	teqgt	r5, r8

00004d38 <l4781>:
    4d38:	e0935007 	adds	r5, r3, r7

00004d3c <l4782>:
    4d3c:	42f9ae53 	rscsmi	sl, r9, #1328	; 0x530

00004d40 <interrupt_114>:
    4d40:	61590a7c 	cmpvs	r9, ip, ror sl

00004d44 <interrupt_248>:
    4d44:	e59f6000 	ldr	r6, [pc]	; 4d4c <interrupt_604>

00004d48 <l4785>:
    4d48:	ea000000 	b	4d50 <interrupt_899>

00004d4c <interrupt_604>:
    4d4c:	000fffbc 	.word	0x000fffbc

00004d50 <interrupt_899>:
    4d50:	e106309c 	swp	r3, ip, [r6]

00004d54 <l4788>:
    4d54:	e3a07012 	mov	r7, #18

00004d58 <l4789>:
    4d58:	e10d00b7 	strh	r0, [sp, -r7]

00004d5c <l4790>:
    4d5c:	655d7013 	ldrbvs	r7, [sp, #-19]

00004d60 <l4791>:
    4d60:	e3a07012 	mov	r7, #18

00004d64 <l4792>:
    4d64:	e11d10d7 	ldrsb	r1, [sp, -r7]

00004d68 <l4793>:
    4d68:	40240da4 	eormi	r0, r4, r4, lsr #27

00004d6c <l4794>:
    4d6c:	e88d2004 	stm	sp, {r2, sp}

00004d70 <interrupt_769>:
    4d70:	2a000006 	bcs	4d90 <interrupt_577>

00004d74 <l4796>:
    4d74:	6139047c 	teqvs	r9, ip, ror r4

00004d78 <l4797>:
    4d78:	e356093a 	cmp	r6, #950272	; 0xe8000

00004d7c <l4798>:
    4d7c:	d1d08901 	bicsle	r8, r0, r1, lsl #18

00004d80 <l4799>:
    4d80:	7043b005 	subvc	fp, r3, r5

00004d84 <interrupt_331>:
    4d84:	e25a8000 	subs	r8, sl, #0

00004d88 <l4801>:
    4d88:	c074151b 	rsbsgt	r1, r4, fp, lsl r5

00004d8c <l4802>:
    4d8c:	52415df2 	subpl	r5, r1, #15488	; 0x3c80

00004d90 <interrupt_577>:
    4d90:	415e0477 	cmpmi	lr, r7, ror r4

00004d94 <l4804>:
    4d94:	e13a034e 	teq	sl, lr, asr #6

00004d98 <l4805>:
    4d98:	71dd70b0 	ldrhvc	r7, [sp]

00004d9c <l4806>:
    4d9c:	a1790000 	cmnge	r9, r0

00004da0 <l4807>:
    4da0:	e21a51b1 	ands	r5, sl, #1073741868	; 0x4000002c

00004da4 <interrupt_800>:
    4da4:	d5cd6016 	strble	r6, [sp, #22]

00004da8 <l4809>:
    4da8:	e1a04000 	mov	r4, r0

00004dac <l4810>:
    4dac:	5049c573 	subpl	ip, r9, r3, ror r5

00004db0 <interrupt_691>:
    4db0:	e060c37b 	rsb	ip, r0, fp, ror r3

00004db4 <l4812>:
    4db4:	6a000002 	bvs	4dc4 <l4816>

00004db8 <l4813>:
    4db8:	e2801087 	add	r1, r0, #135	; 0x87

00004dbc <interrupt_409>:
    4dbc:	a1e00214 	mvnge	r0, r4, lsl r2

00004dc0 <l4815>:
    4dc0:	ea000000 	b	4dc8 <l4817>

00004dc4 <l4816>:
    4dc4:	eafffffc 	b	4dbc <interrupt_409>

00004dc8 <l4817>:
    4dc8:	e3a08000 	mov	r8, #0

00004dcc <l4818>:
    4dcc:	e7adc008 	str	ip, [sp, r8]!

00004dd0 <interrupt_436>:
    4dd0:	41cd80b8 	strhmi	r8, [sp, #8]

00004dd4 <interrupt_7>:
    4dd4:	21520d24 	cmpcs	r2, r4, lsr #26

00004dd8 <l4821>:
    4dd8:	2a000005 	bcs	4df4 <l4828>

00004ddc <l4822>:
    4ddc:	e2801004 	add	r1, r0, #4

00004de0 <l4823>:
    4de0:	00c52005 	sbceq	r2, r5, r5

00004de4 <l4824>:
    4de4:	e1e0e064 	mvn	lr, r4, rrx

00004de8 <interrupt_83>:
    4de8:	906fe002 	rsbls	lr, pc, r2

00004dec <interrupt_57>:
    4dec:	01310b4e 	teqeq	r1, lr, asr #22

00004df0 <l4827>:
    4df0:	ea000000 	b	4df8 <interrupt_33>

00004df4 <l4828>:
    4df4:	eafffff9 	b	4de0 <l4823>

00004df8 <interrupt_33>:
    4df8:	e3a01018 	mov	r1, #24

00004dfc <l4830>:
    4dfc:	e72d9001 	str	r9, [sp, -r1]!

00004e00 <l4831>:
    4e00:	e93d0041 	ldmdb	sp!, {r0, r6}

00004e04 <interrupt_998>:
    4e04:	b37f04ed 	cmnlt	pc, #-318767104	; 0xed000000

00004e08 <l4833>:
    4e08:	c06ab00e 	rsbgt	fp, sl, lr

00004e0c <l4834>:
    4e0c:	75cd0003 	strbvc	r0, [sp, #3]

00004e10 <l4835>:
    4e10:	e59f9000 	ldr	r9, [pc]	; 4e18 <l4837>

00004e14 <interrupt_310>:
    4e14:	ea000000 	b	4e1c <interrupt_6>

00004e18 <l4837>:
    4e18:	000fffa8 	.word	0x000fffa8

00004e1c <interrupt_6>:
    4e1c:	c149c09a 	swpbgt	ip, sl, [r9]

00004e20 <l4839>:
    4e20:	e59fb000 	ldr	fp, [pc]	; 4e28 <l4841>

00004e24 <l4840>:
    4e24:	ea000000 	b	4e2c <interrupt_695>

00004e28 <l4841>:
    4e28:	000fffcc 	.word	0x000fffcc

00004e2c <interrupt_695>:
    4e2c:	810b8091 	swphi	r8, r1, [fp]

00004e30 <l4843>:
    4e30:	e2e73d29 	rsc	r3, r7, #2624	; 0xa40

00004e34 <interrupt_547>:
    4e34:	e2fb6226 	rscs	r6, fp, #1610612738	; 0x60000002

00004e38 <l4845>:
    4e38:	e1e00e49 	mvn	r0, r9, asr #28

00004e3c <interrupt_878>:
    4e3c:	e3a01003 	mov	r1, #3

00004e40 <interrupt_961>:
    4e40:	074d5001 	strbeq	r5, [sp, -r1]

00004e44 <interrupt_654>:
    4e44:	e3a00010 	mov	r0, #16

00004e48 <l4849>:
    4e48:	c19d60f0 	ldrshgt	r6, [sp, r0]

00004e4c <interrupt_848>:
    4e4c:	837c09c5 	cmnhi	ip, #3227648	; 0x314000

00004e50 <l4851>:
    4e50:	e5dd801b 	ldrb	r8, [sp, #27]

00004e54 <l4852>:
    4e54:	e1a00000 	nop			; (mov r0, r0)

00004e58 <interrupt_940>:
    4e58:	e0073878 	and	r3, r7, r8, ror r8

00004e5c <interrupt_97>:
    4e5c:	7a000005 	bvc	4e78 <interrupt_233>

00004e60 <interrupt_355>:
    4e60:	e2801001 	add	r1, r0, #1

00004e64 <l4856>:
    4e64:	e007591b 	and	r5, r7, fp, lsl r9

00004e68 <l4857>:
    4e68:	e1833001 	orr	r3, r3, r1

00004e6c <l4858>:
    4e6c:	605cc061 	subsvs	ip, ip, r1, rrx

00004e70 <l4859>:
    4e70:	803f7d0a 	eorshi	r7, pc, sl, lsl #26

00004e74 <l4860>:
    4e74:	ea000000 	b	4e7c <l4862>

00004e78 <interrupt_233>:
    4e78:	eafffff9 	b	4e64 <l4856>

00004e7c <l4862>:
    4e7c:	71dd23b6 	ldrhvc	r2, [sp, #54]	; 0x36

00004e80 <l4863>:
    4e80:	b2c26d27 	sbclt	r6, r2, #2496	; 0x9c0

00004e84 <interrupt_516>:
    4e84:	0082600a 	addeq	r6, r2, sl

00004e88 <l4865>:
    4e88:	0056e91b 	subseq	lr, r6, fp, lsl r9

00004e8c <l4866>:
    4e8c:	e244391a 	sub	r3, r4, #425984	; 0x68000

00004e90 <l4867>:
    4e90:	e59f6000 	ldr	r6, [pc]	; 4e98 <l4869>

00004e94 <l4868>:
    4e94:	ea000000 	b	4e9c <l4870>

00004e98 <l4869>:
    4e98:	000fffe0 	.word	0x000fffe0

00004e9c <l4870>:
    4e9c:	e146e09e 	swpb	lr, lr, [r6]

00004ea0 <interrupt_218>:
    4ea0:	804a500c 	subhi	r5, sl, ip

00004ea4 <l4872>:
    4ea4:	c0355858 	eorsgt	r5, r5, r8, asr r8

00004ea8 <l4873>:
    4ea8:	e3a07028 	mov	r7, #40	; 0x28

00004eac <l4874>:
    4eac:	219d30f7 	ldrshcs	r3, [sp, r7]

00004eb0 <l4875>:
    4eb0:	407aa060 	rsbsmi	sl, sl, r0, rrx

00004eb4 <l4876>:
    4eb4:	e1d6e333 	bics	lr, r6, r3, lsr r3

00004eb8 <l4877>:
    4eb8:	d1cc0006 	bicle	r0, ip, r6

00004ebc <l4878>:
    4ebc:	70c3c06b 	sbcvc	ip, r3, fp, rrx

00004ec0 <l4879>:
    4ec0:	e99d4241 	ldmib	sp, {r0, r6, r9, lr}

00004ec4 <interrupt_191>:
    4ec4:	e59fe000 	ldr	lr, [pc]	; 4ecc <l4882>

00004ec8 <interrupt_174>:
    4ec8:	ea000000 	b	4ed0 <l4883>

00004ecc <l4882>:
    4ecc:	000fffb8 	.word	0x000fffb8

00004ed0 <l4883>:
    4ed0:	b10e1090 	swplt	r1, r0, [lr]

00004ed4 <l4884>:
    4ed4:	e059ba50 	subs	fp, r9, r0, asr sl

00004ed8 <l4885>:
    4ed8:	e1970113 	orrs	r0, r7, r3, lsl r1

00004edc <interrupt_580>:
    4edc:	e11e0e5b 	tst	lr, fp, asr lr

00004ee0 <l4887>:
    4ee0:	11dd31b2 	ldrhne	r3, [sp, #18]

00004ee4 <l4888>:
    4ee4:	e0202751 	eor	r2, r0, r1, asr r7

00004ee8 <l4889>:
    4ee8:	e59fe000 	ldr	lr, [pc]	; 4ef0 <l4891>

00004eec <l4890>:
    4eec:	ea000000 	b	4ef4 <l4892>

00004ef0 <l4891>:
    4ef0:	000fffa8 	.word	0x000fffa8

00004ef4 <l4892>:
    4ef4:	d10e9093 	swple	r9, r3, [lr]

00004ef8 <interrupt_982>:
    4ef8:	4a000005 	bmi	4f14 <l4900>

00004efc <interrupt_657>:
    4efc:	e28010c6 	add	r1, r0, #198	; 0xc6

00004f00 <l4895>:
    4f00:	a08aedaa 	addge	lr, sl, sl, lsr #27

00004f04 <interrupt_250>:
    4f04:	e01fb3c7 	ands	fp, pc, r7, asr #7

00004f08 <l4897>:
    4f08:	a0c53259 	sbcge	r3, r5, r9, asr r2

00004f0c <l4898>:
    4f0c:	70290853 	eorvc	r0, r9, r3, asr r8

00004f10 <l4899>:
    4f10:	ea000000 	b	4f18 <l4901>

00004f14 <l4900>:
    4f14:	eafffff9 	b	4f00 <l4895>

00004f18 <l4901>:
    4f18:	604a2002 	subvs	r2, sl, r2

00004f1c <interrupt_640>:
    4f1c:	e3a04008 	mov	r4, #8

00004f20 <l4903>:
    4f20:	e61da004 	ldr	sl, [sp], -r4

00004f24 <l4904>:
    4f24:	e59f6000 	ldr	r6, [pc]	; 4f2c <l4906>

00004f28 <l4905>:
    4f28:	ea000000 	b	4f30 <l4907>

00004f2c <l4906>:
    4f2c:	000fffb0 	.word	0x000fffb0

00004f30 <l4907>:
    4f30:	e1069099 	swp	r9, r9, [r6]

00004f34 <l4908>:
    4f34:	e0c9500a 	sbc	r5, r9, sl

00004f38 <interrupt_326>:
    4f38:	e0523379 	subs	r3, r2, r9, ror r3

00004f3c <l4910>:
    4f3c:	e0eea003 	rsc	sl, lr, r3

00004f40 <l4911>:
    4f40:	e1dd04f4 	ldrsh	r0, [sp, #68]	; 0x44

00004f44 <interrupt_988>:
    4f44:	e3a08032 	mov	r8, #50	; 0x32

00004f48 <interrupt_28>:
    4f48:	c19de0d8 	ldrsbgt	lr, [sp, r8]

00004f4c <l4914>:
    4f4c:	816f7f1c 	clzhi	r7, ip

00004f50 <l4915>:
    4f50:	c58db014 	strgt	fp, [sp, #20]

00004f54 <l4916>:
    4f54:	e1dd62b6 	ldrh	r6, [sp, #38]	; 0x26

00004f58 <l4917>:
    4f58:	91570809 	cmpls	r7, r9, lsl #16

00004f5c <l4918>:
    4f5c:	e9bd5011 	ldmib	sp!, {r0, r4, ip, lr}

00004f60 <l4919>:
    4f60:	10bc0003 	adcsne	r0, ip, r3

00004f64 <l4920>:
    4f64:	e1b07003 	movs	r7, r3

00004f68 <l4921>:
    4f68:	e3a09024 	mov	r9, #36	; 0x24

00004f6c <l4922>:
    4f6c:	e78d9009 	str	r9, [sp, r9]

00004f70 <l4923>:
    4f70:	b31306d3 	tstlt	r3, #221249536	; 0xd300000

00004f74 <l4924>:
    4f74:	e3a0100e 	mov	r1, #14

00004f78 <l4925>:
    4f78:	811d80d1 	ldrsbhi	r8, [sp, -r1]

00004f7c <l4926>:
    4f7c:	e159000b 	cmp	r9, fp

00004f80 <l4927>:
    4f80:	c1a007eb 	rorgt	r0, fp, #15

00004f84 <l4928>:
    4f84:	a287b2b2 	addge	fp, r7, #536870923	; 0x2000000b

00004f88 <l4929>:
    4f88:	e1f0b10e 	mvns	fp, lr, lsl #2

00004f8c <interrupt_466>:
    4f8c:	e3a0c022 	mov	ip, #34	; 0x22

00004f90 <l4931>:
    4f90:	119d20fc 	ldrshne	r2, [sp, ip]

00004f94 <l4932>:
    4f94:	b3150291 	tstlt	r5, #268435465	; 0x10000009

00004f98 <l4933>:
    4f98:	00677d05 	rsbeq	r7, r7, r5, lsl #26

00004f9c <l4934>:
    4f9c:	e54d600c 	strb	r6, [sp, #-12]

00004fa0 <l4935>:
    4fa0:	e3a0c031 	mov	ip, #49	; 0x31

00004fa4 <l4936>:
    4fa4:	17cd000c 	strbne	r0, [sp, ip]

00004fa8 <l4937>:
    4fa8:	e1540064 	cmp	r4, r4, rrx

00004fac <l4938>:
    4fac:	e3a0b034 	mov	fp, #52	; 0x34

00004fb0 <l4939>:
    4fb0:	e68dc00b 	str	ip, [sp], fp

00004fb4 <l4940>:
    4fb4:	e1770211 	cmn	r7, r1, lsl r2

00004fb8 <interrupt_106>:
    4fb8:	255d9028 	ldrbcs	r9, [sp, #-40]	; 0x28

00004fbc <l4942>:
    4fbc:	e048598b 	sub	r5, r8, fp, lsl #19

00004fc0 <l4943>:
    4fc0:	63e0bd42 	mvnvs	fp, #4224	; 0x1080

00004fc4 <l4944>:
    4fc4:	e83d1a08 	ldmda	sp!, {r3, r9, fp, ip}

00004fc8 <l4945>:
    4fc8:	351de010 	ldrcc	lr, [sp, #-16]

00004fcc <interrupt_697>:
    4fcc:	e3a08008 	mov	r8, #8

00004fd0 <l4947>:
    4fd0:	e78da008 	str	sl, [sp, r8]

00004fd4 <l4948>:
    4fd4:	e3a07002 	mov	r7, #2

00004fd8 <l4949>:
    4fd8:	411d20d7 	ldrsbmi	r2, [sp, -r7]

00004fdc <l4950>:
    4fdc:	d18b9c8c 	orrle	r9, fp, ip, lsl #25

00004fe0 <l4951>:
    4fe0:	e8bd1000 	ldmfd	sp!, {ip}

00004fe4 <l4952>:
    4fe4:	e3a06020 	mov	r6, #32

00004fe8 <l4953>:
    4fe8:	711d00b6 	ldrhvc	r0, [sp, -r6]

00004fec <l4954>:
    4fec:	1a000002 	bne	4ffc <l4958>

00004ff0 <l4955>:
    4ff0:	e2801018 	add	r1, r0, #24

00004ff4 <l4956>:
    4ff4:	e297e906 	adds	lr, r7, #98304	; 0x18000

00004ff8 <l4957>:
    4ff8:	ea000000 	b	5000 <l4959>

00004ffc <l4958>:
    4ffc:	eafffffc 	b	4ff4 <l4956>

00005000 <l4959>:
    5000:	21780a68 	cmncs	r8, r8, ror #20

00005004 <l4960>:
    5004:	4197c6eb 	orrsmi	ip, r7, fp, ror #13

00005008 <l4961>:
    5008:	5a000005 	bpl	5024 <l4968>

0000500c <l4962>:
    500c:	e28010ae 	add	r1, r0, #174	; 0xae

00005010 <l4963>:
    5010:	c1b0bc17 	lslsgt	fp, r7, ip

00005014 <interrupt_117>:
    5014:	e042321a 	sub	r3, r2, sl, lsl r2

00005018 <l4965>:
    5018:	e00e1da1 	and	r1, lr, r1, lsr #27

0000501c <interrupt_426>:
    501c:	91110001 	tstls	r1, r1

00005020 <l4967>:
    5020:	ea000000 	b	5028 <interrupt_845>

00005024 <l4968>:
    5024:	eafffff9 	b	5010 <l4963>

00005028 <interrupt_845>:
    5028:	c0e4000e 	rscgt	r0, r4, lr

0000502c <interrupt_838>:
    502c:	30d35b17 	sbcscc	r5, r3, r7, lsl fp

00005030 <l4971>:
    5030:	11903e49 	orrsne	r3, r0, r9, asr #28

00005034 <l4972>:
    5034:	e1550b10 	cmp	r5, r0, lsl fp

00005038 <interrupt_911>:
    5038:	e05a7002 	subs	r7, sl, r2

0000503c <interrupt_269>:
    503c:	e3a07008 	mov	r7, #8

00005040 <l4975>:
    5040:	e7ad4007 	str	r4, [sp, r7]!

00005044 <l4976>:
    5044:	e55d7031 	ldrb	r7, [sp, #-49]	; 0x31

00005048 <l4977>:
    5048:	e046e065 	sub	lr, r6, r5, rrx

0000504c <l4978>:
    504c:	e3a02020 	mov	r2, #32

00005050 <l4979>:
    5050:	675d4002 	ldrbvs	r4, [sp, -r2]

00005054 <l4980>:
    5054:	d1340d25 	teqle	r4, r5, lsr #26

00005058 <l4981>:
    5058:	b05f3b84 	subslt	r3, pc, r4, lsl #23

0000505c <interrupt_152>:
    505c:	e0ea5007 	rsc	r5, sl, r7

00005060 <l4983>:
    5060:	e52d400c 	str	r4, [sp, #-12]!

00005064 <l4984>:
    5064:	e31206f5 	tst	r2, #256901120	; 0xf500000

00005068 <l4985>:
    5068:	e097b00b 	adds	fp, r7, fp

0000506c <l4986>:
    506c:	e1550e7a 	cmp	r5, sl, ror lr

00005070 <interrupt_417>:
    5070:	e2b242c1 	adcs	r4, r2, #268435468	; 0x1000000c

00005074 <l4988>:
    5074:	e07be00a 	rsbs	lr, fp, sl

00005078 <l4989>:
    5078:	c24066ea 	subgt	r6, r0, #245366784	; 0xea00000

0000507c <l4990>:
    507c:	e1a00000 	nop			; (mov r0, r0)

00005080 <interrupt_255>:
    5080:	e3a0100d 	mov	r1, #13

00005084 <l4992>:
    5084:	e74dc001 	strb	ip, [sp, -r1]

00005088 <l4993>:
    5088:	e1740303 	cmn	r4, r3, lsl #6

0000508c <interrupt_162>:
    508c:	e3a08016 	mov	r8, #22

00005090 <l4995>:
    5090:	c7cd4008 	strbgt	r4, [sp, r8]

00005094 <interrupt_852>:
    5094:	e3a0a030 	mov	sl, #48	; 0x30

00005098 <l4997>:
    5098:	a11d70fa 	ldrshge	r7, [sp, -sl]

0000509c <l4998>:
    509c:	b1f0265a 	mvnslt	r2, sl, asr r6

000050a0 <l4999>:
    50a0:	e55d1014 	ldrb	r1, [sp, #-20]

000050a4 <interrupt_794>:
    50a4:	20445506 	subcs	r5, r4, r6, lsl #10

000050a8 <end>:
    50a8:	eafffffe 	b	50a8 <end>
