
interrupt_rand.o:     file format elf32-littlearm


Disassembly of section .text:

00000000 <vectors_start>:
       0:	eafffffe 	b	40 <main>
       4:	eafffffe 	b	4 <vectors_start+0x4>
       8:	eafffffe 	b	8 <vectors_start+0x8>
       c:	eafffffe 	b	c <vectors_start+0xc>
      10:	eafffffe 	b	10 <vectors_start+0x10>
      14:	eafffffe 	b	14 <vectors_start+0x14>
      18:	ea000001 	b	24 <irq_handler>
      1c:	eafffffe 	b	1c <vectors_start+0x1c>

00000020 <UART_DR>:
      20:	16000000 	.word	0x16000000

00000024 <irq_handler>:
      24:	e51f100c 	ldr	r1, [pc, #-12]	; 20 <UART_DR>
      28:	e5911000 	ldr	r1, [r1]
      2c:	e1a00000 	nop			; (mov r0, r0)
      30:	e1a00000 	nop			; (mov r0, r0)
      34:	e1a00000 	nop			; (mov r0, r0)
      38:	e1a00000 	nop			; (mov r0, r0)
      3c:	e25ef004 	subs	pc, lr, #4

00000040 <main>:
      40:	e05f000f 	subs	r0, pc, pc
      44:	e59fd000 	ldr	sp, [pc]	; 4c <val>
      48:	ea000000 	b	50 <next>

0000004c <val>:
      4c:	000ffff0 	.word	0x000ffff0

00000050 <next>:
      50:	e59f1000 	ldr	r1, [pc]	; 58 <val1>
      54:	ea000000 	b	5c <next1>

00000058 <val1>:
      58:	6585eb1c 	.word	0x6585eb1c

0000005c <next1>:
      5c:	e59f2000 	ldr	r2, [pc]	; 64 <val2>
      60:	ea000000 	b	68 <next2>

00000064 <val2>:
      64:	7c2963af 	.word	0x7c2963af

00000068 <next2>:
      68:	e59f3000 	ldr	r3, [pc]	; 70 <val3>
      6c:	ea000000 	b	74 <next3>

00000070 <val3>:
      70:	024ee306 	.word	0x024ee306

00000074 <next3>:
      74:	e59f4000 	ldr	r4, [pc]	; 7c <val4>
      78:	ea000000 	b	80 <next4>

0000007c <val4>:
      7c:	7a54836d 	.word	0x7a54836d

00000080 <next4>:
      80:	e59f5000 	ldr	r5, [pc]	; 88 <val5>
      84:	ea000000 	b	8c <next5>

00000088 <val5>:
      88:	caee6ed8 	.word	0xcaee6ed8

0000008c <next5>:
      8c:	e59f6000 	ldr	r6, [pc]	; 94 <val6>
      90:	ea000000 	b	98 <next6>

00000094 <val6>:
      94:	7a428e3d 	.word	0x7a428e3d

00000098 <next6>:
      98:	e59f7000 	ldr	r7, [pc]	; a0 <val7>
      9c:	ea000000 	b	a4 <next7>

000000a0 <val7>:
      a0:	795d3798 	.word	0x795d3798

000000a4 <next7>:
      a4:	e59f8000 	ldr	r8, [pc]	; ac <val8>
      a8:	ea000000 	b	b0 <next8>

000000ac <val8>:
      ac:	feab3de9 	.word	0xfeab3de9

000000b0 <next8>:
      b0:	e59f9000 	ldr	r9, [pc]	; b8 <val9>
      b4:	ea000000 	b	bc <next9>

000000b8 <val9>:
      b8:	b870c3cf 	.word	0xb870c3cf

000000bc <next9>:
      bc:	e59fa000 	ldr	sl, [pc]	; c4 <val10>
      c0:	ea000000 	b	c8 <next10>

000000c4 <val10>:
      c4:	c4e88d85 	.word	0xc4e88d85

000000c8 <next10>:
      c8:	e59fb000 	ldr	fp, [pc]	; d0 <val11>
      cc:	ea000000 	b	d4 <next11>

000000d0 <val11>:
      d0:	f16259f0 	.word	0xf16259f0

000000d4 <next11>:
      d4:	e59fc000 	ldr	ip, [pc]	; dc <val12>
      d8:	ea000000 	b	e0 <next12>

000000dc <val12>:
      dc:	dcbbf68f 	.word	0xdcbbf68f

000000e0 <next12>:
      e0:	e59fe000 	ldr	lr, [pc]	; e8 <val14>
      e4:	ea000000 	b	ec <next14>

000000e8 <val14>:
      e8:	9cd0786f 	.word	0x9cd0786f

000000ec <next14>:
      ec:	e59f1000 	ldr	r1, [pc]	; f4 <val15>
      f0:	ea000000 	b	f8 <next15>

000000f4 <val15>:
      f4:	42064bca 	.word	0x42064bca

000000f8 <next15>:
      f8:	e58d1000 	str	r1, [sp]
      fc:	e59f1000 	ldr	r1, [pc]	; 104 <val16>
     100:	ea000000 	b	108 <next16>

00000104 <val16>:
     104:	210a3b3b 	.word	0x210a3b3b

00000108 <next16>:
     108:	e50d1004 	str	r1, [sp, #-4]
     10c:	e59f1000 	ldr	r1, [pc]	; 114 <val17>
     110:	ea000000 	b	118 <next17>

00000114 <val17>:
     114:	c981def7 	.word	0xc981def7

00000118 <next17>:
     118:	e50d1008 	str	r1, [sp, #-8]
     11c:	e59f1000 	ldr	r1, [pc]	; 124 <val18>
     120:	ea000000 	b	128 <next18>

00000124 <val18>:
     124:	7ca48fa6 	.word	0x7ca48fa6

00000128 <next18>:
     128:	e50d100c 	str	r1, [sp, #-12]
     12c:	e59f1000 	ldr	r1, [pc]	; 134 <val19>
     130:	ea000000 	b	138 <next19>

00000134 <val19>:
     134:	0734b292 	.word	0x0734b292

00000138 <next19>:
     138:	e50d1010 	str	r1, [sp, #-16]
     13c:	e59f1000 	ldr	r1, [pc]	; 144 <val20>
     140:	ea000000 	b	148 <next20>

00000144 <val20>:
     144:	0f2f3c2b 	.word	0x0f2f3c2b

00000148 <next20>:
     148:	e50d1014 	str	r1, [sp, #-20]
     14c:	e59f1000 	ldr	r1, [pc]	; 154 <val21>
     150:	ea000000 	b	158 <next21>

00000154 <val21>:
     154:	e8fd8109 	.word	0xe8fd8109

00000158 <next21>:
     158:	e50d1018 	str	r1, [sp, #-24]
     15c:	e59f1000 	ldr	r1, [pc]	; 164 <val22>
     160:	ea000000 	b	168 <next22>

00000164 <val22>:
     164:	b44c336a 	.word	0xb44c336a

00000168 <next22>:
     168:	e50d101c 	str	r1, [sp, #-28]
     16c:	e59f1000 	ldr	r1, [pc]	; 174 <val23>
     170:	ea000000 	b	178 <next23>

00000174 <val23>:
     174:	f5fbd974 	.word	0xf5fbd974

00000178 <next23>:
     178:	e50d1020 	str	r1, [sp, #-32]
     17c:	e59f1000 	ldr	r1, [pc]	; 184 <val24>
     180:	ea000000 	b	188 <next24>

00000184 <val24>:
     184:	a027193a 	.word	0xa027193a

00000188 <next24>:
     188:	e50d1024 	str	r1, [sp, #-36]	; 0x24
     18c:	e59f1000 	ldr	r1, [pc]	; 194 <val25>
     190:	ea000000 	b	198 <next25>

00000194 <val25>:
     194:	69c6b8eb 	.word	0x69c6b8eb

00000198 <next25>:
     198:	e50d1028 	str	r1, [sp, #-40]	; 0x28
     19c:	e59f1000 	ldr	r1, [pc]	; 1a4 <val26>
     1a0:	ea000000 	b	1a8 <next26>

000001a4 <val26>:
     1a4:	1a8ff180 	.word	0x1a8ff180

000001a8 <next26>:
     1a8:	e50d102c 	str	r1, [sp, #-44]	; 0x2c
     1ac:	e59f1000 	ldr	r1, [pc]	; 1b4 <val27>
     1b0:	ea000000 	b	1b8 <next27>

000001b4 <val27>:
     1b4:	d16a5bde 	.word	0xd16a5bde

000001b8 <next27>:
     1b8:	e50d1030 	str	r1, [sp, #-48]	; 0x30
     1bc:	e59f1000 	ldr	r1, [pc]	; 1c4 <val28>
     1c0:	ea000000 	b	1c8 <next28>

000001c4 <val28>:
     1c4:	804d8e92 	.word	0x804d8e92

000001c8 <next28>:
     1c8:	e50d1034 	str	r1, [sp, #-52]	; 0x34
     1cc:	e59f1000 	ldr	r1, [pc]	; 1d4 <val29>
     1d0:	ea000000 	b	1d8 <next29>

000001d4 <val29>:
     1d4:	99536b0d 	.word	0x99536b0d

000001d8 <next29>:
     1d8:	e50d1038 	str	r1, [sp, #-56]	; 0x38
     1dc:	e59f1000 	ldr	r1, [pc]	; 1e4 <val30>
     1e0:	ea000000 	b	1e8 <next30>

000001e4 <val30>:
     1e4:	750a02ad 	.word	0x750a02ad

000001e8 <next30>:
     1e8:	e50d103c 	str	r1, [sp, #-60]	; 0x3c
     1ec:	e59f1000 	ldr	r1, [pc]	; 1f4 <val31>
     1f0:	ea000000 	b	1f8 <next31>

000001f4 <val31>:
     1f4:	d59a9ed8 	.word	0xd59a9ed8

000001f8 <next31>:
     1f8:	e50d1040 	str	r1, [sp, #-64]	; 0x40
     1fc:	e59f1000 	ldr	r1, [pc]	; 204 <val32>
     200:	ea000000 	b	208 <next32>

00000204 <val32>:
     204:	0f7be002 	.word	0x0f7be002

00000208 <next32>:
     208:	e50d1044 	str	r1, [sp, #-68]	; 0x44
     20c:	e59f1000 	ldr	r1, [pc]	; 214 <val33>
     210:	ea000000 	b	218 <next33>

00000214 <val33>:
     214:	2c17264f 	.word	0x2c17264f

00000218 <next33>:
     218:	e50d1048 	str	r1, [sp, #-72]	; 0x48
     21c:	e59f1000 	ldr	r1, [pc]	; 224 <val34>
     220:	ea000000 	b	228 <next34>

00000224 <val34>:
     224:	7d0cd40a 	.word	0x7d0cd40a

00000228 <next34>:
     228:	e50d104c 	str	r1, [sp, #-76]	; 0x4c
     22c:	e59f1000 	ldr	r1, [pc]	; 234 <val35>
     230:	ea000000 	b	238 <next35>

00000234 <val35>:
     234:	263ff3a2 	.word	0x263ff3a2

00000238 <next35>:
     238:	e50d1050 	str	r1, [sp, #-80]	; 0x50
     23c:	ea000003 	b	250 <next36>

00000240 <val36>:
     240:	001ffff0 	.word	0x001ffff0

00000244 <PIC_IRQ_ENCLR>:
     244:	1400000c 	.word	0x1400000c

00000248 <UART0_IMSC>:
     248:	16000038 	.word	0x16000038

0000024c <PIC_IRQ_ENSET>:
     24c:	14000008 	.word	0x14000008

00000250 <next36>:
     250:	e10f0000 	mrs	r0, CPSR
     254:	e3c0101f 	bic	r1, r0, #31
     258:	e3811012 	orr	r1, r1, #18
     25c:	e129f001 	msr	CPSR_fc, r1
     260:	e51fd028 	ldr	sp, [pc, #-40]	; 240 <val36>
     264:	e3c00080 	bic	r0, r0, #128	; 0x80
     268:	e129f000 	msr	CPSR_fc, r0
     26c:	e51f3030 	ldr	r3, [pc, #-48]	; 244 <PIC_IRQ_ENCLR>
     270:	e3a02002 	mov	r2, #2
     274:	e5832000 	str	r2, [r3]
     278:	e51f3038 	ldr	r3, [pc, #-56]	; 248 <UART0_IMSC>
     27c:	e3a02010 	mov	r2, #16
     280:	e5832000 	str	r2, [r3]
     284:	e51f3040 	ldr	r3, [pc, #-64]	; 24c <PIC_IRQ_ENSET>
     288:	e3a02002 	mov	r2, #2
     28c:	e5832000 	str	r2, [r3]

00000290 <l1>:
     290:	e2599445 	subs	r9, r9, #1157627904	; 0x45000000

00000294 <l2>:
     294:	e3a01020 	mov	r1, #32

00000298 <l3>:
     298:	e70d9001 	str	r9, [sp, -r1]

0000029c <interrupt_258>:
     29c:	e0852002 	add	r2, r5, r2

000002a0 <l5>:
     2a0:	816f7f1e 	clzhi	r7, lr

000002a4 <l6>:
     2a4:	e0685068 	rsb	r5, r8, r8, rrx

000002a8 <l7>:
     2a8:	317f018c 	cmncc	pc, ip, lsl #3

000002ac <l8>:
     2ac:	e82de000 	stmda	sp!, {sp, lr, pc}

000002b0 <l9>:
     2b0:	1280218f 	addne	r2, r0, #-1073741789	; 0xc0000023

000002b4 <l10>:
     2b4:	a072e277 	rsbsge	lr, r2, r7, ror r2

000002b8 <l11>:
     2b8:	63e0287d 	mvnvs	r2, #8192000	; 0x7d0000

000002bc <l12>:
     2bc:	e59fb000 	ldr	fp, [pc]	; 2c4 <l14>

000002c0 <l13>:
     2c0:	ea000000 	b	2c8 <interrupt_452>

000002c4 <l14>:
     2c4:	000fffb4 	.word	0x000fffb4

000002c8 <interrupt_452>:
     2c8:	e10b9090 	swp	r9, r0, [fp]

000002cc <l16>:
     2cc:	e8bd0080 	ldmfd	sp!, {r7}

000002d0 <interrupt_31>:
     2d0:	e16f1f18 	clz	r1, r8

000002d4 <interrupt_322>:
     2d4:	e3a05010 	mov	r5, #16

000002d8 <l19>:
     2d8:	510d40b5 	strhpl	r4, [sp, -r5]

000002dc <interrupt_394>:
     2dc:	e1a00000 	nop			; (mov r0, r0)

000002e0 <interrupt_25>:
     2e0:	e1a00000 	nop			; (mov r0, r0)

000002e4 <interrupt_257>:
     2e4:	e3a06012 	mov	r6, #18

000002e8 <l23>:
     2e8:	e75d7006 	ldrb	r7, [sp, -r6]

000002ec <l24>:
     2ec:	200c906e 	andcs	r9, ip, lr, rrx

000002f0 <l25>:
     2f0:	801a706e 	andshi	r7, sl, lr, rrx

000002f4 <l26>:
     2f4:	a80d26b4 	stmdage	sp, {r2, r4, r5, r7, r9, sl, sp}

000002f8 <interrupt_979>:
     2f8:	e11e0006 	tst	lr, r6

000002fc <l28>:
     2fc:	e358072a 	cmp	r8, #11010048	; 0xa80000

00000300 <l29>:
     300:	93e0537f 	mvnls	r5, #-67108863	; 0xfc000001

00000304 <l30>:
     304:	e3a08047 	mov	r8, #71	; 0x47

00000308 <l31>:
     308:	e74dc008 	strb	ip, [sp, -r8]

0000030c <l32>:
     30c:	e1d89b6f 	bics	r9, r8, pc, ror #22

00000310 <l33>:
     310:	01987007 	orrseq	r7, r8, r7

00000314 <l34>:
     314:	11570005 	cmpne	r7, r5

00000318 <l35>:
     318:	e3a0702e 	mov	r7, #46	; 0x2e

0000031c <l36>:
     31c:	911d40b7 	ldrhls	r4, [sp, -r7]

00000320 <interrupt_455>:
     320:	e1a0c004 	mov	ip, r4

00000324 <l38>:
     324:	e55d1019 	ldrb	r1, [sp, #-25]

00000328 <interrupt_63>:
     328:	e3a0b010 	mov	fp, #16

0000032c <l40>:
     32c:	474de00b 	strbmi	lr, [sp, -fp]

00000330 <l41>:
     330:	e59f8000 	ldr	r8, [pc]	; 338 <l43>

00000334 <l42>:
     334:	ea000000 	b	33c <l44>

00000338 <l43>:
     338:	000fffbc 	.word	0x000fffbc

0000033c <l44>:
     33c:	9148c093 	swpbls	ip, r3, [r8]

00000340 <l45>:
     340:	d0e0005b 	rscle	r0, r0, fp, asr r0

00000344 <l46>:
     344:	e097171e 	adds	r1, r7, lr, lsl r7

00000348 <l47>:
     348:	207f4fa5 	rsbscs	r4, pc, r5, lsr #31

0000034c <l48>:
     34c:	0a000002 	beq	35c <interrupt_64>

00000350 <l49>:
     350:	42af7445 	adcmi	r7, pc, #1157627904	; 0x45000000

00000354 <l50>:
     354:	30139009 	andscc	r9, r3, r9

00000358 <l51>:
     358:	e0528209 	subs	r8, r2, r9, lsl #4

0000035c <interrupt_64>:
     35c:	727521db 	rsbsvc	r2, r5, #-1073741770	; 0xc0000036

00000360 <l53>:
     360:	e93d1fe3 	ldmdb	sp!, {r0, r1, r5, r6, r7, r8, r9, sl, fp, ip}

00000364 <l54>:
     364:	e2a67014 	adc	r7, r6, #20

00000368 <interrupt_788>:
     368:	e3a0c00e 	mov	ip, #14

0000036c <l56>:
     36c:	e11da0dc 	ldrsb	sl, [sp, -ip]

00000370 <l57>:
     370:	3affffff 	bcc	374 <l58>

00000374 <l58>:
     374:	c3500e2b 	cmpgt	r0, #688	; 0x2b0

00000378 <l59>:
     378:	3244559a 	subcc	r5, r4, #645922816	; 0x26800000

0000037c <l60>:
     37c:	10e5000e 	rscne	r0, r5, lr

00000380 <l61>:
     380:	e0c978c8 	sbc	r7, r9, r8, asr #17

00000384 <l62>:
     384:	e3a0a013 	mov	sl, #19

00000388 <l63>:
     388:	77dd900a 	ldrbvc	r9, [sp, sl]

0000038c <interrupt_650>:
     38c:	e59f2000 	ldr	r2, [pc]	; 394 <l66>

00000390 <l65>:
     390:	ea000000 	b	398 <l67>

00000394 <l66>:
     394:	000fffc4 	.word	0x000fffc4

00000398 <l67>:
     398:	e102909a 	swp	r9, sl, [r2]

0000039c <l68>:
     39c:	e02c0e66 	eor	r0, ip, r6, ror #28

000003a0 <l69>:
     3a0:	e3a0100d 	mov	r1, #13

000003a4 <l70>:
     3a4:	675d7001 	ldrbvs	r7, [sp, -r1]

000003a8 <interrupt_783>:
     3a8:	a15d30d1 	ldrsbge	r3, [sp, #-1]

000003ac <l72>:
     3ac:	a1360d6c 	teqge	r6, ip, ror #26

000003b0 <l73>:
     3b0:	e0732502 	rsbs	r2, r3, r2, lsl #10

000003b4 <l74>:
     3b4:	101c9354 	andsne	r9, ip, r4, asr r3

000003b8 <l75>:
     3b8:	e3a01021 	mov	r1, #33	; 0x21

000003bc <l76>:
     3bc:	e7dd8001 	ldrb	r8, [sp, r1]

000003c0 <interrupt_11>:
     3c0:	b119000b 	tstlt	r9, fp

000003c4 <l78>:
     3c4:	a3560ab9 	cmpge	r6, #757760	; 0xb9000

000003c8 <l79>:
     3c8:	b188a956 	orrlt	sl, r8, r6, asr r9

000003cc <l80>:
     3cc:	e0711b77 	rsbs	r1, r1, r7, ror fp

000003d0 <interrupt_925>:
     3d0:	e1590174 	cmp	r9, r4, ror r1

000003d4 <l82>:
     3d4:	81110778 	tsthi	r1, r8, ror r7

000003d8 <l83>:
     3d8:	e59f7000 	ldr	r7, [pc]	; 3e0 <l85>

000003dc <interrupt_353>:
     3dc:	ea000000 	b	3e4 <l86>

000003e0 <l85>:
     3e0:	000fffb0 	.word	0x000fffb0

000003e4 <l86>:
     3e4:	41079094 	swpmi	r9, r4, [r7]

000003e8 <l87>:
     3e8:	e82d8a20 	stmda	sp!, {r5, r9, fp, pc}

000003ec <l88>:
     3ec:	ea000003 	b	400 <l93>

000003f0 <l89>:
     3f0:	e2801044 	add	r1, r0, #68	; 0x44

000003f4 <l90>:
     3f4:	e0c63000 	sbc	r3, r6, r0

000003f8 <l91>:
     3f8:	617a0002 	cmnvs	sl, r2

000003fc <interrupt_647>:
     3fc:	ea000000 	b	404 <l94>

00000400 <l93>:
     400:	eafffffb 	b	3f4 <l90>

00000404 <l94>:
     404:	72bc7fb5 	adcsvc	r7, ip, #724	; 0x2d4

00000408 <l95>:
     408:	e3cf23ad 	bic	r2, pc, #-1275068414	; 0xb4000002

0000040c <l96>:
     40c:	e59f1000 	ldr	r1, [pc]	; 414 <l98>

00000410 <l97>:
     410:	ea000000 	b	418 <l99>

00000414 <l98>:
     414:	000fffa8 	.word	0x000fffa8

00000418 <l99>:
     418:	21418096 	swpbcs	r8, r6, [r1]

0000041c <interrupt_272>:
     41c:	a16f5f12 	clzge	r5, r2

00000420 <interrupt_907>:
     420:	e3a08034 	mov	r8, #52	; 0x34

00000424 <l102>:
     424:	d79d2008 	ldrle	r2, [sp, r8]

00000428 <l103>:
     428:	100eab47 	andne	sl, lr, r7, asr #22

0000042c <interrupt_165>:
     42c:	20e21008 	rsccs	r1, r2, r8

00000430 <l105>:
     430:	ea000005 	b	44c <interrupt_679>

00000434 <l106>:
     434:	e280104a 	add	r1, r0, #74	; 0x4a

00000438 <interrupt_627>:
     438:	21a02353 	asrcs	r2, r3, r3

0000043c <l108>:
     43c:	e0aeb006 	adc	fp, lr, r6

00000440 <l109>:
     440:	63b01c7f 	movsvs	r1, #32512	; 0x7f00

00000444 <interrupt_588>:
     444:	00e30067 	rsceq	r0, r3, r7, rrx

00000448 <l111>:
     448:	ea000000 	b	450 <l113>

0000044c <interrupt_679>:
     44c:	eafffff9 	b	438 <interrupt_627>

00000450 <l113>:
     450:	91cd12bc 	strhls	r1, [sp, #44]	; 0x2c

00000454 <l114>:
     454:	e59f2000 	ldr	r2, [pc]	; 45c <l116>

00000458 <l115>:
     458:	ea000000 	b	460 <interrupt_814>

0000045c <l116>:
     45c:	000fffb4 	.word	0x000fffb4

00000460 <interrupt_814>:
     460:	3102109b 	swpcc	r1, fp, [r2]

00000464 <l118>:
     464:	698db973 	stmibvs	sp, {r0, r1, r4, r5, r6, r8, fp, ip, sp, pc}

00000468 <l119>:
     468:	e296b004 	adds	fp, r6, #4

0000046c <l120>:
     46c:	e0b44063 	adcs	r4, r4, r3, rrx

00000470 <l121>:
     470:	ba000004 	blt	488 <l127>

00000474 <l122>:
     474:	e28010c2 	add	r1, r0, #194	; 0xc2

00000478 <l123>:
     478:	516f4f13 	clzpl	r4, r3

0000047c <interrupt_490>:
     47c:	40518063 	subsmi	r8, r1, r3, rrx

00000480 <interrupt_757>:
     480:	01e08006 	mvneq	r8, r6

00000484 <l126>:
     484:	ea000000 	b	48c <l128>

00000488 <l127>:
     488:	eafffffa 	b	478 <l123>

0000048c <l128>:
     48c:	e11e0886 	tst	lr, r6, lsl #17

00000490 <l129>:
     490:	d07e2061 	rsbsle	r2, lr, r1, rrx

00000494 <l130>:
     494:	e59f5000 	ldr	r5, [pc]	; 49c <l132>

00000498 <l131>:
     498:	ea000000 	b	4a0 <l133>

0000049c <l132>:
     49c:	000fffe4 	.word	0x000fffe4

000004a0 <l133>:
     4a0:	6105c091 	swpvs	ip, r1, [r5]

000004a4 <l134>:
     4a4:	91150061 	tstls	r5, r1, rrx

000004a8 <l135>:
     4a8:	10d71a5b 	sbcsne	r1, r7, fp, asr sl

000004ac <l136>:
     4ac:	e1ce4003 	bic	r4, lr, r3

000004b0 <interrupt_215>:
     4b0:	b5dd703b 	ldrblt	r7, [sp, #59]	; 0x3b

000004b4 <interrupt_609>:
     4b4:	e16f3f19 	clz	r3, r9

000004b8 <l139>:
     4b8:	e3a0300a 	mov	r3, #10

000004bc <l140>:
     4bc:	618d90b3 	strhvs	r9, [sp, r3]

000004c0 <l141>:
     4c0:	0178095b 	cmneq	r8, fp, asr r9

000004c4 <l142>:
     4c4:	e5dd4032 	ldrb	r4, [sp, #50]	; 0x32

000004c8 <l143>:
     4c8:	e59fb000 	ldr	fp, [pc]	; 4d0 <l145>

000004cc <interrupt_942>:
     4cc:	ea000000 	b	4d4 <l146>

000004d0 <l145>:
     4d0:	000fffc4 	.word	0x000fffc4

000004d4 <l146>:
     4d4:	814bc09c 	swpbhi	ip, ip, [fp]

000004d8 <l147>:
     4d8:	091d0002 	ldmdbeq	sp, {r1}

000004dc <interrupt_554>:
     4dc:	e59f6000 	ldr	r6, [pc]	; 4e4 <interrupt_500>

000004e0 <l149>:
     4e0:	ea000000 	b	4e8 <l151>

000004e4 <interrupt_500>:
     4e4:	000fffa8 	.word	0x000fffa8

000004e8 <l151>:
     4e8:	41061092 	swpmi	r1, r2, [r6]

000004ec <l152>:
     4ec:	715d80b4 	ldrhvc	r8, [sp, #-4]

000004f0 <l153>:
     4f0:	7196a06c 	orrsvc	sl, r6, ip, rrx

000004f4 <l154>:
     4f4:	55cda019 	strbpl	sl, [sp, #25]

000004f8 <interrupt_189>:
     4f8:	61dd12bc 	ldrhvs	r1, [sp, #44]	; 0x2c

000004fc <l156>:
     4fc:	e3a0102c 	mov	r1, #44	; 0x2c

00000500 <l157>:
     500:	e68da001 	str	sl, [sp], r1

00000504 <l158>:
     504:	e3a02018 	mov	r2, #24

00000508 <l159>:
     508:	e11db0b2 	ldrh	fp, [sp, -r2]

0000050c <l160>:
     50c:	e023206c 	eor	r2, r3, ip, rrx

00000510 <l161>:
     510:	a14d22b2 	strhge	r2, [sp, #-34]	; 0xffffffde

00000514 <interrupt_3>:
     514:	e0ef2000 	rsc	r2, pc, r0

00000518 <l163>:
     518:	e3a0e016 	mov	lr, #22

0000051c <l164>:
     51c:	610d70be 	strhvs	r7, [sp, -lr]

00000520 <l165>:
     520:	016f5f12 	clzeq	r5, r2

00000524 <l166>:
     524:	e2c010ec 	sbc	r1, r0, #236	; 0xec

00000528 <l167>:
     528:	e14d01b4 	strh	r0, [sp, #-20]	; 0xffffffec

0000052c <l168>:
     52c:	e51d2024 	ldr	r2, [sp, #-36]	; 0x24

00000530 <l169>:
     530:	e393269f 	orrs	r2, r3, #166723584	; 0x9f00000

00000534 <interrupt_102>:
     534:	e0d9ec16 	sbcs	lr, r9, r6, lsl ip

00000538 <l171>:
     538:	e2d82a02 	sbcs	r2, r8, #8192	; 0x2000

0000053c <l172>:
     53c:	e17e0e72 	cmn	lr, r2, ror lr

00000540 <l173>:
     540:	00ca2075 	sbceq	r2, sl, r5, ror r0

00000544 <interrupt_71>:
     544:	e028e664 	eor	lr, r8, r4, ror #12

00000548 <l175>:
     548:	e027161a 	eor	r1, r7, sl, lsl r6

0000054c <interrupt_277>:
     54c:	e330011f 	teq	r0, #-1073741817	; 0xc0000007

00000550 <l177>:
     550:	9040332c 	subls	r3, r0, ip, lsr #6

00000554 <l178>:
     554:	81770254 	cmnhi	r7, r4, asr r2

00000558 <l179>:
     558:	e15d82ba 	ldrh	r8, [sp, #-42]	; 0xffffffd6

0000055c <l180>:
     55c:	e3a01004 	mov	r1, #4

00000560 <l181>:
     560:	e7cda001 	strb	sl, [sp, r1]

00000564 <l182>:
     564:	c0099a40 	andgt	r9, r9, r0, asr #20

00000568 <interrupt_932>:
     568:	e53d0030 	ldr	r0, [sp, #-48]!	; 0x30

0000056c <l184>:
     56c:	c0ae8673 	adcgt	r8, lr, r3, ror r6

00000570 <interrupt_782>:
     570:	31c6200f 	biccc	r2, r6, pc

00000574 <l186>:
     574:	e48dc018 	str	ip, [sp], #24

00000578 <interrupt_52>:
     578:	73c679f1 	bicvc	r7, r6, #3948544	; 0x3c4000

0000057c <interrupt_213>:
     57c:	ea000006 	b	59c <l196>

00000580 <l189>:
     580:	e28010f5 	add	r1, r0, #245	; 0xf5

00000584 <interrupt_363>:
     584:	a3f09c2b 	mvnsge	r9, #11008	; 0x2b00

00000588 <l191>:
     588:	10929460 	addsne	r9, r2, r0, ror #8

0000058c <l192>:
     58c:	419c5236 	orrsmi	r5, ip, r6, lsr r2

00000590 <l193>:
     590:	e1f0517a 	mvns	r5, sl, ror r1

00000594 <interrupt_957>:
     594:	e155027c 	cmp	r5, ip, ror r2

00000598 <interrupt_487>:
     598:	ea000000 	b	5a0 <l197>

0000059c <l196>:
     59c:	eafffff8 	b	584 <interrupt_363>

000005a0 <l197>:
     5a0:	216f3f10 	clzcs	r3, r0

000005a4 <l198>:
     5a4:	b1dd00d3 	ldrsblt	r0, [sp, #3]

000005a8 <l199>:
     5a8:	e2e12592 	rsc	r2, r1, #612368384	; 0x24800000

000005ac <l200>:
     5ac:	e1160721 	tst	r6, r1, lsr #14

000005b0 <l201>:
     5b0:	42dc99d5 	sbcsmi	r9, ip, #3489792	; 0x354000

000005b4 <l202>:
     5b4:	e3a08010 	mov	r8, #16

000005b8 <l203>:
     5b8:	e73de008 	ldr	lr, [sp, -r8]!

000005bc <l204>:
     5bc:	4017a06c 	andsmi	sl, r7, ip, rrx

000005c0 <interrupt_836>:
     5c0:	e93d0100 	ldmdb	sp!, {r8}

000005c4 <interrupt_156>:
     5c4:	505c90ac 	subspl	r9, ip, ip, lsr #1

000005c8 <l207>:
     5c8:	805c8b2c 	subshi	r8, ip, ip, lsr #22

000005cc <interrupt_960>:
     5cc:	e59fb000 	ldr	fp, [pc]	; 5d4 <l210>

000005d0 <l209>:
     5d0:	ea000000 	b	5d8 <l211>

000005d4 <l210>:
     5d4:	000fffbc 	.word	0x000fffbc

000005d8 <l211>:
     5d8:	414b909a 	swpbmi	r9, sl, [fp]

000005dc <interrupt_725>:
     5dc:	50c48009 	sbcpl	r8, r4, r9

000005e0 <l213>:
     5e0:	ea000006 	b	600 <l221>

000005e4 <interrupt_562>:
     5e4:	e019cce5 	ands	ip, r9, r5, ror #25

000005e8 <interrupt_677>:
     5e8:	e16f1f15 	clz	r1, r5

000005ec <l216>:
     5ec:	3137024b 	teqcc	r7, fp, asr #4

000005f0 <interrupt_676>:
     5f0:	e112006c 	tst	r2, ip, rrx

000005f4 <l218>:
     5f4:	e11f0003 	tst	pc, r3

000005f8 <l219>:
     5f8:	e09c500e 	adds	r5, ip, lr

000005fc <l220>:
     5fc:	e3a03906 	mov	r3, #98304	; 0x18000

00000600 <l221>:
     600:	e13b0006 	teq	fp, r6

00000604 <interrupt_976>:
     604:	e3a0002c 	mov	r0, #44	; 0x2c

00000608 <l223>:
     608:	318dc0b0 	strhcc	ip, [sp, r0]

0000060c <interrupt_747>:
     60c:	0a000006 	beq	62c <l232>

00000610 <l225>:
     610:	e28010a3 	add	r1, r0, #163	; 0xa3

00000614 <l226>:
     614:	911e0065 	tstls	lr, r5, rrx

00000618 <interrupt_693>:
     618:	a17c0000 	cmnge	ip, r0

0000061c <l228>:
     61c:	e0194556 	ands	r4, r9, r6, asr r5

00000620 <interrupt_851>:
     620:	531302bb 	tstpl	r3, #-1342177269	; 0xb000000b

00000624 <l230>:
     624:	0288850a 	addeq	r8, r8, #41943040	; 0x2800000

00000628 <interrupt_408>:
     628:	ea000000 	b	630 <l233>

0000062c <l232>:
     62c:	eafffff8 	b	614 <l226>

00000630 <l233>:
     630:	e1730b05 	cmn	r3, r5, lsl #22

00000634 <l234>:
     634:	e0c6656c 	sbc	r6, r6, ip, ror #10

00000638 <l235>:
     638:	e098e81b 	adds	lr, r8, fp, lsl r8

0000063c <l236>:
     63c:	e3a0c028 	mov	ip, #40	; 0x28

00000640 <l237>:
     640:	e79d000c 	ldr	r0, [sp, ip]

00000644 <l238>:
     644:	319e700c 	orrscc	r7, lr, ip

00000648 <l239>:
     648:	a0425aaf 	subge	r5, r2, pc, lsr #21

0000064c <l240>:
     64c:	11e0073a 	mvnne	r0, sl, lsr r7

00000650 <l241>:
     650:	ea000002 	b	660 <l245>

00000654 <l242>:
     654:	e2801030 	add	r1, r0, #48	; 0x30

00000658 <l243>:
     658:	e079ea79 	rsbs	lr, r9, r9, ror sl

0000065c <interrupt_26>:
     65c:	ea000000 	b	664 <l246>

00000660 <l245>:
     660:	eafffffc 	b	658 <l243>

00000664 <l246>:
     664:	499d1fff 	ldmibmi	sp, {r0, r1, r2, r3, r4, r5, r6, r7, r8, r9, sl, fp, ip}

00000668 <l247>:
     668:	507b2002 	rsbspl	r2, fp, r2

0000066c <l248>:
     66c:	90578603 	subsls	r8, r7, r3, lsl #12

00000670 <interrupt_483>:
     670:	31dda0f4 	ldrshcc	sl, [sp, #4]

00000674 <interrupt_684>:
     674:	5031a135 	eorspl	sl, r1, r5, lsr r1

00000678 <l251>:
     678:	255d500d 	ldrbcs	r5, [sp, #-13]

0000067c <l252>:
     67c:	e82d0020 	stmda	sp!, {r5}

00000680 <l253>:
     680:	e11a05ce 	tst	sl, lr, asr #11

00000684 <interrupt_822>:
     684:	e3a02038 	mov	r2, #56	; 0x38

00000688 <l255>:
     688:	819db0b2 	ldrhhi	fp, [sp, r2]

0000068c <l256>:
     68c:	e180b00b 	orr	fp, r0, fp

00000690 <l257>:
     690:	e1957236 	orrs	r7, r5, r6, lsr r2

00000694 <l258>:
     694:	e0de9da8 	sbcs	r9, lr, r8, lsr #27

00000698 <l259>:
     698:	e3a0e02e 	mov	lr, #46	; 0x2e

0000069c <interrupt_985>:
     69c:	219d10fe 	ldrshcs	r1, [sp, lr]

000006a0 <l261>:
     6a0:	a1360c00 	teqge	r6, r0, lsl #24

000006a4 <l262>:
     6a4:	8affffff 	bhi	6a8 <l263>

000006a8 <l263>:
     6a8:	9090c006 	addsls	ip, r0, r6

000006ac <interrupt_232>:
     6ac:	71cda0bc 	strhvc	sl, [sp, #12]

000006b0 <l265>:
     6b0:	e081ea74 	add	lr, r1, r4, ror sl

000006b4 <l266>:
     6b4:	e17b00ac 	cmn	fp, ip, lsr #1

000006b8 <l267>:
     6b8:	ca000006 	bgt	6d8 <l275>

000006bc <l268>:
     6bc:	513c0001 	teqpl	ip, r1

000006c0 <l269>:
     6c0:	611e0b7a 	tstvs	lr, sl, ror fp

000006c4 <l270>:
     6c4:	40400e12 	submi	r0, r0, r2, lsl lr

000006c8 <l271>:
     6c8:	51c61bce 	bicpl	r1, r6, lr, asr #23

000006cc <l272>:
     6cc:	e16f5f18 	clz	r5, r8

000006d0 <interrupt_642>:
     6d0:	d15e090c 	cmple	lr, ip, lsl #18

000006d4 <interrupt_736>:
     6d4:	e1580002 	cmp	r8, r2

000006d8 <l275>:
     6d8:	1054b068 	subsne	fp, r4, r8, rrx

000006dc <l276>:
     6dc:	e59f5000 	ldr	r5, [pc]	; 6e4 <l278>

000006e0 <l277>:
     6e0:	ea000000 	b	6e8 <l279>

000006e4 <l278>:
     6e4:	000fffe4 	.word	0x000fffe4

000006e8 <l279>:
     6e8:	3105e094 	swpcc	lr, r4, [r5]

000006ec <l280>:
     6ec:	91cbc646 	bicls	ip, fp, r6, asr #12

000006f0 <l281>:
     6f0:	5272e877 	rsbspl	lr, r2, #7798784	; 0x770000

000006f4 <l282>:
     6f4:	316f4f18 	clzcc	r4, r8

000006f8 <interrupt_210>:
     6f8:	b16f4f1c 	clzlt	r4, ip

000006fc <l284>:
     6fc:	aa000008 	bge	724 <interrupt_221>

00000700 <l285>:
     700:	20fb3001 	rscscs	r3, fp, r1

00000704 <l286>:
     704:	a056c061 	subsge	ip, r6, r1, rrx

00000708 <l287>:
     708:	c233240d 	eorsgt	r2, r3, #218103808	; 0xd000000

0000070c <l288>:
     70c:	016f1f1c 	clzeq	r1, ip

00000710 <interrupt_863>:
     710:	53140243 	tstpl	r4, #805306372	; 0x30000004

00000714 <l290>:
     714:	503cabe3 	eorspl	sl, ip, r3, ror #23

00000718 <l291>:
     718:	a0cbc000 	sbcge	ip, fp, r0

0000071c <l292>:
     71c:	609fb680 	addsvs	fp, pc, r0, lsl #13

00000720 <l293>:
     720:	71a0ed09 	lslvc	lr, r9, #26

00000724 <interrupt_221>:
     724:	e26566e6 	rsb	r6, r5, #241172480	; 0xe600000

00000728 <l295>:
     728:	23869df7 	orrcs	r9, r6, #15808	; 0x3dc0

0000072c <interrupt_132>:
     72c:	90204007 	eorls	r4, r0, r7

00000730 <l297>:
     730:	a2d9e0e3 	sbcsge	lr, r9, #227	; 0xe3

00000734 <interrupt_720>:
     734:	e3a06f46 	mov	r6, #280	; 0x118

00000738 <l299>:
     738:	e59f8000 	ldr	r8, [pc]	; 740 <interrupt_341>

0000073c <l300>:
     73c:	ea000000 	b	744 <interrupt_755>

00000740 <interrupt_341>:
     740:	000fffdc 	.word	0x000fffdc

00000744 <interrupt_755>:
     744:	21481090 	swpbcs	r1, r0, [r8]

00000748 <interrupt_689>:
     748:	e5ddb004 	ldrb	fp, [sp, #4]

0000074c <l304>:
     74c:	e3a02006 	mov	r2, #6

00000750 <l305>:
     750:	e7dde002 	ldrb	lr, [sp, r2]

00000754 <l306>:
     754:	e0859912 	add	r9, r5, r2, lsl r9

00000758 <interrupt_253>:
     758:	e1e03008 	mvn	r3, r8

0000075c <l308>:
     75c:	e0834005 	add	r4, r3, r5

00000760 <l309>:
     760:	80be2002 	adcshi	r2, lr, r2

00000764 <l310>:
     764:	e0a3406f 	adc	r4, r3, pc, rrx

00000768 <l311>:
     768:	918c8000 	orrls	r8, ip, r0

0000076c <l312>:
     76c:	e59fa000 	ldr	sl, [pc]	; 774 <l314>

00000770 <l313>:
     770:	ea000000 	b	778 <l315>

00000774 <l314>:
     774:	000fffc0 	.word	0x000fffc0

00000778 <l315>:
     778:	210a2096 	swpcs	r2, r6, [sl]

0000077c <l316>:
     77c:	b37603c2 	cmnlt	r6, #134217731	; 0x8000003

00000780 <l317>:
     780:	503ea007 	eorspl	sl, lr, r7

00000784 <l318>:
     784:	a269ae62 	rsbge	sl, r9, #1568	; 0x620

00000788 <l319>:
     788:	a1e08003 	mvnge	r8, r3

0000078c <l320>:
     78c:	e3a09006 	mov	r9, #6

00000790 <l321>:
     790:	d11db0f9 	ldrshle	fp, [sp, -r9]

00000794 <l322>:
     794:	e0025118 	and	r5, r2, r8, lsl r1

00000798 <l323>:
     798:	e3f00e9d 	mvns	r0, #2512	; 0x9d0

0000079c <l324>:
     79c:	e5bd9028 	ldr	r9, [sp, #40]!	; 0x28

000007a0 <l325>:
     7a0:	e2511837 	subs	r1, r1, #3604480	; 0x370000

000007a4 <l326>:
     7a4:	119e898b 	orrsne	r8, lr, fp, lsl #19

000007a8 <l327>:
     7a8:	e15d72b0 	ldrh	r7, [sp, #-32]	; 0xffffffe0

000007ac <l328>:
     7ac:	e04b643c 	sub	r6, fp, ip, lsr r4

000007b0 <l329>:
     7b0:	555d2015 	ldrbpl	r2, [sp, #-21]

000007b4 <l330>:
     7b4:	e3a0100e 	mov	r1, #14

000007b8 <l331>:
     7b8:	e7dd8001 	ldrb	r8, [sp, r1]

000007bc <l332>:
     7bc:	ea000003 	b	7d0 <l337>

000007c0 <l333>:
     7c0:	e28010b8 	add	r1, r0, #184	; 0xb8

000007c4 <l334>:
     7c4:	e029cc76 	eor	ip, r9, r6, ror ip

000007c8 <l335>:
     7c8:	e1390007 	teq	r9, r7

000007cc <l336>:
     7cc:	ea000000 	b	7d4 <interrupt_539>

000007d0 <l337>:
     7d0:	eafffffb 	b	7c4 <l334>

000007d4 <interrupt_539>:
     7d4:	e82ddba1 	stmda	sp!, {r0, r5, r7, r8, r9, fp, ip, lr, pc}

000007d8 <l339>:
     7d8:	61500682 	cmpvs	r0, r2, lsl #13

000007dc <interrupt_723>:
     7dc:	e1c68003 	bic	r8, r6, r3

000007e0 <l341>:
     7e0:	50c37536 	sbcpl	r7, r3, r6, lsr r5

000007e4 <l342>:
     7e4:	e2e64319 	rsc	r4, r6, #1677721600	; 0x64000000

000007e8 <l343>:
     7e8:	515a04c7 	cmppl	sl, r7, asr #9

000007ec <l344>:
     7ec:	e399883e 	orrs	r8, r9, #4063232	; 0x3e0000

000007f0 <interrupt_669>:
     7f0:	70726001 	rsbsvc	r6, r2, r1

000007f4 <l346>:
     7f4:	ba000005 	blt	810 <l353>

000007f8 <l347>:
     7f8:	e04e8b16 	sub	r8, lr, r6, lsl fp

000007fc <l348>:
     7fc:	e28e52c9 	add	r5, lr, #-1879048180	; 0x9000000c

00000800 <interrupt_603>:
     800:	e19a3001 	orrs	r3, sl, r1

00000804 <interrupt_395>:
     804:	c20c3fd1 	andgt	r3, ip, #836	; 0x344

00000808 <l351>:
     808:	10478730 	subne	r8, r7, r0, lsr r7

0000080c <interrupt_568>:
     80c:	11100bc5 	tstne	r0, r5, asr #23

00000810 <l353>:
     810:	a15e000f 	cmpge	lr, pc

00000814 <l354>:
     814:	20446834 	subcs	r6, r4, r4, lsr r8

00000818 <interrupt_157>:
     818:	e1790006 	cmn	r9, r6

0000081c <l356>:
     81c:	e17e0009 	cmn	lr, r9

00000820 <l357>:
     820:	e3b017c5 	movs	r1, #51642368	; 0x3140000

00000824 <l358>:
     824:	e3a0b020 	mov	fp, #32

00000828 <l359>:
     828:	e78d300b 	str	r3, [sp, fp]

0000082c <interrupt_94>:
     82c:	ea000007 	b	850 <l369>

00000830 <interrupt_865>:
     830:	e28010ce 	add	r1, r0, #206	; 0xce

00000834 <interrupt_632>:
     834:	41883235 	orrmi	r3, r8, r5, lsr r2

00000838 <l363>:
     838:	91e09002 	mvnls	r9, r2

0000083c <l364>:
     83c:	e03ee956 	eors	lr, lr, r6, asr r9

00000840 <interrupt_618>:
     840:	7355000c 	cmpvc	r5, #12

00000844 <l366>:
     844:	0247300c 	subeq	r3, r7, #12

00000848 <l367>:
     848:	e1140069 	tst	r4, r9, rrx

0000084c <l368>:
     84c:	ea000000 	b	854 <l370>

00000850 <l369>:
     850:	eafffff7 	b	834 <interrupt_632>

00000854 <l370>:
     854:	e1f0e002 	mvns	lr, r2

00000858 <l371>:
     858:	e54da001 	strb	sl, [sp, #-1]

0000085c <l372>:
     85c:	e1a0e67a 	ror	lr, sl, r6

00000860 <l373>:
     860:	e11a0949 	tst	sl, r9, asr #18

00000864 <l374>:
     864:	e49d5030 	ldr	r5, [sp], #48	; 0x30

00000868 <l375>:
     868:	e92d1ac6 	push	{r1, r2, r6, r7, r9, fp, ip}

0000086c <interrupt_61>:
     86c:	e3890d53 	orr	r0, r9, #5312	; 0x14c0

00000870 <l377>:
     870:	935a0e53 	cmpls	sl, #1328	; 0x530

00000874 <interrupt_826>:
     874:	691d144a 	ldmdbvs	sp, {r1, r3, r6, sl, ip}

00000878 <l379>:
     878:	d18e6432 	orrle	r6, lr, r2, lsr r4

0000087c <l380>:
     87c:	e0c0c78a 	sbc	ip, r0, sl, lsl #15

00000880 <interrupt_528>:
     880:	e213bb56 	ands	fp, r3, #88064	; 0x15800

00000884 <l382>:
     884:	c3d193ff 	bicsgt	r9, r1, #-67108861	; 0xfc000003

00000888 <l383>:
     888:	e138000a 	teq	r8, sl

0000088c <l384>:
     88c:	ea000005 	b	8a8 <l391>

00000890 <l385>:
     890:	5044767c 	subpl	r7, r4, ip, ror r6

00000894 <l386>:
     894:	917e0063 	cmnls	lr, r3, rrx

00000898 <l387>:
     898:	e24bc97f 	sub	ip, fp, #2080768	; 0x1fc000

0000089c <l388>:
     89c:	804c906b 	subhi	r9, ip, fp, rrx

000008a0 <l389>:
     8a0:	01e0400f 	mvneq	r4, pc

000008a4 <interrupt_398>:
     8a4:	32d0204e 	sbcscc	r2, r0, #78	; 0x4e

000008a8 <l391>:
     8a8:	e386a341 	orr	sl, r6, #67108865	; 0x4000001

000008ac <l392>:
     8ac:	e8bd1240 	pop	{r6, r9, ip}

000008b0 <interrupt_915>:
     8b0:	d07e9b37 	rsbsle	r9, lr, r7, lsr fp

000008b4 <l394>:
     8b4:	e05cb006 	subs	fp, ip, r6

000008b8 <interrupt_370>:
     8b8:	303a3004 	eorscc	r3, sl, r4

000008bc <l396>:
     8bc:	03f01fe7 	mvnseq	r1, #924	; 0x39c

000008c0 <l397>:
     8c0:	e3a0100a 	mov	r1, #10

000008c4 <interrupt_187>:
     8c4:	b11db0d1 	ldrsblt	fp, [sp, -r1]

000008c8 <l399>:
     8c8:	e13f0008 	teq	pc, r8

000008cc <l400>:
     8cc:	e59fe000 	ldr	lr, [pc]	; 8d4 <l402>

000008d0 <l401>:
     8d0:	ea000000 	b	8d8 <l403>

000008d4 <l402>:
     8d4:	000fffd4 	.word	0x000fffd4

000008d8 <l403>:
     8d8:	610e8097 	swpvs	r8, r7, [lr]

000008dc <l404>:
     8dc:	e1540c54 	cmp	r4, r4, asr ip

000008e0 <l405>:
     8e0:	307be00f 	rsbscc	lr, fp, pc

000008e4 <l406>:
     8e4:	a1700374 	cmnge	r0, r4, ror r3

000008e8 <l407>:
     8e8:	31ca7c13 	biccc	r7, sl, r3, lsl ip

000008ec <interrupt_877>:
     8ec:	791d0494 	ldmdbvc	sp, {r2, r4, r7, sl}

000008f0 <interrupt_110>:
     8f0:	e31b0dc2 	tst	fp, #12416	; 0x3080

000008f4 <l410>:
     8f4:	c28164d2 	addgt	r6, r1, #-771751936	; 0xd2000000

000008f8 <l411>:
     8f8:	515d80b4 	ldrhpl	r8, [sp, #-4]

000008fc <l412>:
     8fc:	c1b032ab 	lsrsgt	r3, fp, #5

00000900 <l413>:
     900:	4a000008 	bmi	928 <l423>

00000904 <interrupt_914>:
     904:	e2a15235 	adc	r5, r1, #1342177283	; 0x50000003

00000908 <interrupt_711>:
     908:	e055ee1b 	subs	lr, r5, fp, lsl lr

0000090c <interrupt_805>:
     90c:	b15c0bc4 	cmplt	ip, r4, asr #23

00000910 <l417>:
     910:	e019000e 	ands	r0, r9, lr

00000914 <interrupt_153>:
     914:	e23312bd 	eors	r1, r3, #-805306357	; 0xd000000b

00000918 <interrupt_382>:
     918:	e0b9306a 	adcs	r3, r9, sl, rrx

0000091c <l420>:
     91c:	e3b047a5 	movs	r4, #43253760	; 0x2940000

00000920 <l421>:
     920:	e060b5e5 	rsb	fp, r0, r5, ror #11

00000924 <l422>:
     924:	e04698c1 	sub	r9, r6, r1, asr #17

00000928 <l423>:
     928:	d2881583 	addle	r1, r8, #549453824	; 0x20c00000

0000092c <l424>:
     92c:	1affffff 	bne	930 <l425>

00000930 <l425>:
     930:	e091096b 	adds	r0, r1, fp, ror #18

00000934 <l426>:
     934:	e59f2000 	ldr	r2, [pc]	; 93c <l428>

00000938 <interrupt_415>:
     938:	ea000000 	b	940 <l429>

0000093c <l428>:
     93c:	000fffe8 	.word	0x000fffe8

00000940 <l429>:
     940:	21421093 	swpbcs	r1, r3, [r2]

00000944 <l430>:
     944:	70206831 	eorvc	r6, r0, r1, lsr r8

00000948 <l431>:
     948:	e1780018 	cmn	r8, r8, lsl r0

0000094c <l432>:
     94c:	e59f2000 	ldr	r2, [pc]	; 954 <l434>

00000950 <interrupt_293>:
     950:	ea000000 	b	958 <interrupt_290>

00000954 <l434>:
     954:	000fffb0 	.word	0x000fffb0

00000958 <interrupt_290>:
     958:	c1023098 	swpgt	r3, r8, [r2]

0000095c <l436>:
     95c:	e16f4f1a 	clz	r4, sl

00000960 <l437>:
     960:	e15e084b 	cmp	lr, fp, asr #16

00000964 <l438>:
     964:	e3a03020 	mov	r3, #32

00000968 <l439>:
     968:	e73d4003 	ldr	r4, [sp, -r3]!

0000096c <l440>:
     96c:	23d9bc66 	bicscs	fp, r9, #26112	; 0x6600

00000970 <l441>:
     970:	e49d102c 	ldr	r1, [sp], #44	; 0x2c

00000974 <l442>:
     974:	d50d603c 	strle	r6, [sp, #-60]	; 0x3c

00000978 <interrupt_364>:
     978:	e92d0024 	push	{r2, r5}

0000097c <l444>:
     97c:	e89d0800 	ldm	sp, {fp}

00000980 <l445>:
     980:	e266596e 	rsb	r5, r6, #1802240	; 0x1b8000

00000984 <l446>:
     984:	e59f6000 	ldr	r6, [pc]	; 98c <l448>

00000988 <interrupt_733>:
     988:	ea000000 	b	990 <l449>

0000098c <l448>:
     98c:	000fffc4 	.word	0x000fffc4

00000990 <l449>:
     990:	e146b09e 	swpb	fp, lr, [r6]

00000994 <l450>:
     994:	a0282112 	eorge	r2, r8, r2, lsl r1

00000998 <l451>:
     998:	e59f8000 	ldr	r8, [pc]	; 9a0 <l453>

0000099c <l452>:
     99c:	ea000000 	b	9a4 <l454>

000009a0 <l453>:
     9a0:	000fffe4 	.word	0x000fffe4

000009a4 <l454>:
     9a4:	e108209a 	swp	r2, sl, [r8]

000009a8 <l455>:
     9a8:	d1a0800b 	movle	r8, fp

000009ac <l456>:
     9ac:	6a000008 	bvs	9d4 <l466>

000009b0 <l457>:
     9b0:	80a90737 	adchi	r0, r9, r7, lsr r7

000009b4 <l458>:
     9b4:	d11b07e1 	tstle	fp, r1, ror #15

000009b8 <l459>:
     9b8:	61e0572f 	mvnvs	r5, pc, lsr #14

000009bc <l460>:
     9bc:	e1f00b11 	mvns	r0, r1, lsl fp

000009c0 <l461>:
     9c0:	11e0200c 	mvnne	r2, ip

000009c4 <l462>:
     9c4:	d097ac1a 	addsle	sl, r7, sl, lsl ip

000009c8 <l463>:
     9c8:	e0d0b064 	sbcs	fp, r0, r4, rrx

000009cc <l464>:
     9cc:	e1906b4c 	orrs	r6, r0, ip, asr #22

000009d0 <l465>:
     9d0:	e1140d24 	tst	r4, r4, lsr #26

000009d4 <l466>:
     9d4:	e0dcb00f 	sbcs	fp, ip, pc

000009d8 <l467>:
     9d8:	a1d3325a 	bicsge	r3, r3, sl, asr r2

000009dc <l468>:
     9dc:	e2406991 	sub	r6, r0, #2375680	; 0x244000

000009e0 <l469>:
     9e0:	d1dd00f0 	ldrshle	r0, [sp]

000009e4 <interrupt_585>:
     9e4:	416f5f11 	clzmi	r5, r1

000009e8 <interrupt_81>:
     9e8:	23a00787 	movcs	r0, #35389440	; 0x21c0000

000009ec <l472>:
     9ec:	e59fa000 	ldr	sl, [pc]	; 9f4 <l474>

000009f0 <l473>:
     9f0:	ea000000 	b	9f8 <l475>

000009f4 <l474>:
     9f4:	000fffc4 	.word	0x000fffc4

000009f8 <l475>:
     9f8:	b10a6094 	swplt	r6, r4, [sl]

000009fc <l476>:
     9fc:	788d1192 	stmvc	sp, {r1, r4, r7, r8, ip}

00000a00 <l477>:
     a00:	e40de020 	str	lr, [sp], #-32

00000a04 <l478>:
     a04:	e0c21255 	sbc	r1, r2, r5, asr r2

00000a08 <l479>:
     a08:	316f1f1c 	clzcc	r1, ip

00000a0c <interrupt_243>:
     a0c:	e3a0b01e 	mov	fp, #30

00000a10 <l481>:
     a10:	e19d90fb 	ldrsh	r9, [sp, fp]

00000a14 <interrupt_425>:
     a14:	e59f4000 	ldr	r4, [pc]	; a1c <l484>

00000a18 <l483>:
     a18:	ea000000 	b	a20 <l485>

00000a1c <l484>:
     a1c:	000fffc0 	.word	0x000fffc0

00000a20 <l485>:
     a20:	9144109a 	swpbls	r1, sl, [r4]

00000a24 <l486>:
     a24:	e3a0202f 	mov	r2, #47	; 0x2f

00000a28 <l487>:
     a28:	e19dc0d2 	ldrsb	ip, [sp, r2]

00000a2c <l488>:
     a2c:	e1350009 	teq	r5, r9

00000a30 <l489>:
     a30:	01cfe00b 	biceq	lr, pc, fp

00000a34 <l490>:
     a34:	e0f18c75 	rscs	r8, r1, r5, ror ip

00000a38 <l491>:
     a38:	0025e675 	eoreq	lr, r5, r5, ror r6

00000a3c <l492>:
     a3c:	e3a08030 	mov	r8, #48	; 0x30

00000a40 <l493>:
     a40:	919db0b8 	ldrhls	fp, [sp, r8]

00000a44 <l494>:
     a44:	e3710c45 	cmn	r1, #17664	; 0x4500

00000a48 <l495>:
     a48:	e0e4e618 	rsc	lr, r4, r8, lsl r6

00000a4c <l496>:
     a4c:	e0512421 	subs	r2, r1, r1, lsr #8

00000a50 <l497>:
     a50:	e3a0101e 	mov	r1, #30

00000a54 <l498>:
     a54:	019de0f1 	ldrsheq	lr, [sp, r1]

00000a58 <l499>:
     a58:	416f0f12 	clzmi	r0, r2

00000a5c <l500>:
     a5c:	215608e2 	cmpcs	r6, r2, ror #17

00000a60 <interrupt_18>:
     a60:	e11b000e 	tst	fp, lr

00000a64 <l502>:
     a64:	e3a05026 	mov	r5, #38	; 0x26

00000a68 <l503>:
     a68:	77dd5005 	ldrbvc	r5, [sp, r5]

00000a6c <l504>:
     a6c:	7a000008 	bvc	a94 <interrupt_994>

00000a70 <l505>:
     a70:	e2173076 	ands	r3, r7, #118	; 0x76

00000a74 <l506>:
     a74:	024e0629 	subeq	r0, lr, #42991616	; 0x2900000

00000a78 <l507>:
     a78:	706c177b 	rsbvc	r1, ip, fp, ror r7

00000a7c <l508>:
     a7c:	e046b00a 	sub	fp, r6, sl

00000a80 <l509>:
     a80:	60a46345 	adcvs	r6, r4, r5, asr #6

00000a84 <l510>:
     a84:	01100000 	tsteq	r0, r0

00000a88 <interrupt_379>:
     a88:	21b0e175 	rorscs	lr, r5, r1

00000a8c <l512>:
     a8c:	e1a05001 	mov	r5, r1

00000a90 <l513>:
     a90:	9158057a 	cmpls	r8, sl, ror r5

00000a94 <interrupt_994>:
     a94:	e0fc6380 	rscs	r6, ip, r0, lsl #7

00000a98 <l515>:
     a98:	a190406b 	orrsge	r4, r0, fp, rrx

00000a9c <l516>:
     a9c:	33c82020 	biccc	r2, r8, #32

00000aa0 <l517>:
     aa0:	ea000002 	b	ab0 <l521>

00000aa4 <l518>:
     aa4:	e28010e8 	add	r1, r0, #232	; 0xe8

00000aa8 <l519>:
     aa8:	e2fc84f7 	rscs	r8, ip, #-150994944	; 0xf7000000

00000aac <interrupt_560>:
     aac:	ea000000 	b	ab4 <l522>

00000ab0 <l521>:
     ab0:	eafffffc 	b	aa8 <l519>

00000ab4 <l522>:
     ab4:	e3a09000 	mov	r9, #0

00000ab8 <l523>:
     ab8:	e78dc009 	str	ip, [sp, r9]

00000abc <l524>:
     abc:	e3a03030 	mov	r3, #48	; 0x30

00000ac0 <l525>:
     ac0:	a7ddb003 	ldrbge	fp, [sp, r3]

00000ac4 <interrupt_104>:
     ac4:	c111037b 	tstgt	r1, fp, ror r3

00000ac8 <l527>:
     ac8:	d0025064 	andle	r5, r2, r4, rrx

00000acc <interrupt_303>:
     acc:	7078b000 	rsbsvc	fp, r8, r0

00000ad0 <l529>:
     ad0:	e3a03018 	mov	r3, #24

00000ad4 <l530>:
     ad4:	c19de0f3 	ldrshgt	lr, [sp, r3]

00000ad8 <l531>:
     ad8:	e8ad14e0 	stmia	sp!, {r5, r6, r7, sl, ip}

00000adc <l532>:
     adc:	e0405eee 	sub	r5, r0, lr, ror #29

00000ae0 <l533>:
     ae0:	01340001 	teqeq	r4, r1

00000ae4 <l534>:
     ae4:	e3a01004 	mov	r1, #4

00000ae8 <l535>:
     ae8:	119d10b1 	ldrhne	r1, [sp, r1]

00000aec <l536>:
     aec:	e1ddc1df 	ldrsb	ip, [sp, #31]

00000af0 <l537>:
     af0:	807fa4e2 	rsbshi	sl, pc, r2, ror #9

00000af4 <l538>:
     af4:	e59f3000 	ldr	r3, [pc]	; afc <l540>

00000af8 <l539>:
     af8:	ea000000 	b	b00 <l541>

00000afc <l540>:
     afc:	000fffc0 	.word	0x000fffc0

00000b00 <l541>:
     b00:	01430099 	swpbeq	r0, r9, [r3]

00000b04 <l542>:
     b04:	e0925f82 	adds	r5, r2, r2, lsl #31

00000b08 <l543>:
     b08:	e5dde006 	ldrb	lr, [sp, #6]

00000b0c <l544>:
     b0c:	43e0ee1f 	mvnmi	lr, #496	; 0x1f0

00000b10 <l545>:
     b10:	e2564fd3 	subs	r4, r6, #844	; 0x34c

00000b14 <l546>:
     b14:	32cce439 	sbccc	lr, ip, #956301312	; 0x39000000

00000b18 <l547>:
     b18:	3152000b 	cmpcc	r2, fp

00000b1c <l548>:
     b1c:	6affffff 	bvs	b20 <l549>

00000b20 <l549>:
     b20:	72ef773a 	rscvc	r7, pc, #15204352	; 0xe80000

00000b24 <l550>:
     b24:	c19ba0eb 	orrsgt	sl, fp, fp, ror #1

00000b28 <interrupt_743>:
     b28:	0137011b 	teqeq	r7, fp, lsl r1

00000b2c <l552>:
     b2c:	390d6008 	stmdbcc	sp, {r3, sp, lr}

00000b30 <interrupt_563>:
     b30:	ea000008 	b	b58 <l563>

00000b34 <l554>:
     b34:	93e07a9a 	mvnls	r7, #630784	; 0x9a000

00000b38 <l555>:
     b38:	e0ba63c2 	adcs	r6, sl, r2, asr #7

00000b3c <l556>:
     b3c:	e13e0000 	teq	lr, r0

00000b40 <l557>:
     b40:	91a0a736 	lsrls	sl, r6, r7

00000b44 <l558>:
     b44:	e2925102 	adds	r5, r2, #-2147483648	; 0x80000000

00000b48 <l559>:
     b48:	b0f52068 	rscslt	r2, r5, r8, rrx

00000b4c <l560>:
     b4c:	e3560e92 	cmp	r6, #2336	; 0x920

00000b50 <l561>:
     b50:	32d7cd56 	sbcscc	ip, r7, #5504	; 0x1580

00000b54 <l562>:
     b54:	d397104b 	orrsle	r1, r7, #75	; 0x4b

00000b58 <l563>:
     b58:	e0279368 	eor	r9, r7, r8, ror #6

00000b5c <l564>:
     b5c:	e15b0b36 	cmp	fp, r6, lsr fp

00000b60 <l565>:
     b60:	031004b5 	tsteq	r0, #-1258291200	; 0xb5000000

00000b64 <l566>:
     b64:	d0e81001 	rscle	r1, r8, r1

00000b68 <interrupt_840>:
     b68:	d378093e 	cmnle	r8, #1015808	; 0xf8000

00000b6c <l568>:
     b6c:	b1370112 	teqlt	r7, r2, lsl r1

00000b70 <l569>:
     b70:	da000002 	ble	b80 <l573>

00000b74 <l570>:
     b74:	e2801072 	add	r1, r0, #114	; 0x72

00000b78 <l571>:
     b78:	e172001c 	cmn	r2, ip, lsl r0

00000b7c <l572>:
     b7c:	ea000000 	b	b84 <l574>

00000b80 <l573>:
     b80:	eafffffc 	b	b78 <l571>

00000b84 <l574>:
     b84:	e5bd200c 	ldr	r2, [sp, #12]!

00000b88 <interrupt_140>:
     b88:	11f06553 	mvnsne	r6, r3, asr r5

00000b8c <l576>:
     b8c:	e0967953 	adds	r7, r6, r3, asr r9

00000b90 <l577>:
     b90:	e59fc000 	ldr	ip, [pc]	; b98 <interrupt_386>

00000b94 <interrupt_428>:
     b94:	ea000000 	b	b9c <interrupt_861>

00000b98 <interrupt_386>:
     b98:	000fffc8 	.word	0x000fffc8

00000b9c <interrupt_861>:
     b9c:	310c5094 	swpcc	r5, r4, [ip]

00000ba0 <l581>:
     ba0:	e3a0c014 	mov	ip, #20

00000ba4 <l582>:
     ba4:	271d000c 	ldrcs	r0, [sp, -ip]

00000ba8 <l583>:
     ba8:	d04c8b03 	suble	r8, ip, r3, lsl #22

00000bac <l584>:
     bac:	e1e020e8 	mvn	r2, r8, ror #1

00000bb0 <interrupt_606>:
     bb0:	e3a0b004 	mov	fp, #4

00000bb4 <l586>:
     bb4:	518da0bb 	strhpl	sl, [sp, fp]

00000bb8 <l587>:
     bb8:	698d2000 	stmibvs	sp, {sp}

00000bbc <l588>:
     bbc:	c16fef1c 	clzgt	lr, ip

00000bc0 <interrupt_139>:
     bc0:	e59fc000 	ldr	ip, [pc]	; bc8 <interrupt_722>

00000bc4 <l590>:
     bc4:	ea000000 	b	bcc <l592>

00000bc8 <interrupt_722>:
     bc8:	000fffa8 	.word	0x000fffa8

00000bcc <l592>:
     bcc:	b14cb09a 	swpblt	fp, sl, [ip]

00000bd0 <interrupt_978>:
     bd0:	ba000006 	blt	bf0 <l601>

00000bd4 <l594>:
     bd4:	e28010bb 	add	r1, r0, #187	; 0xbb

00000bd8 <l595>:
     bd8:	42e89b07 	rscmi	r9, r8, #7168	; 0x1c00

00000bdc <l596>:
     bdc:	e1a07a55 	asr	r7, r5, sl

00000be0 <l597>:
     be0:	e29498f9 	adds	r9, r4, #16318464	; 0xf90000

00000be4 <l598>:
     be4:	03e05369 	mvneq	r5, #-1543503871	; 0xa4000001

00000be8 <l599>:
     be8:	e0f13187 	rscs	r3, r1, r7, lsl #3

00000bec <l600>:
     bec:	ea000000 	b	bf4 <l602>

00000bf0 <l601>:
     bf0:	eafffff8 	b	bd8 <l595>

00000bf4 <l602>:
     bf4:	c043c007 	subgt	ip, r3, r7

00000bf8 <l603>:
     bf8:	e54d3032 	strb	r3, [sp, #-50]	; 0x32

00000bfc <l604>:
     bfc:	e1f0300f 	mvns	r3, pc

00000c00 <interrupt_449>:
     c00:	e1160018 	tst	r6, r8, lsl r0

00000c04 <l606>:
     c04:	11700005 	cmnne	r0, r5

00000c08 <l607>:
     c08:	d1f0c311 	mvnsle	ip, r1, lsl r3

00000c0c <interrupt_401>:
     c0c:	e05c3069 	subs	r3, ip, r9, rrx

00000c10 <interrupt_5>:
     c10:	b0291e37 	eorlt	r1, r9, r7, lsr lr

00000c14 <l610>:
     c14:	e3a0502e 	mov	r5, #46	; 0x2e

00000c18 <l611>:
     c18:	211d60f5 	ldrshcs	r6, [sp, -r5]

00000c1c <l612>:
     c1c:	422c0225 	eormi	r0, ip, #1342177282	; 0x50000002

00000c20 <interrupt_380>:
     c20:	e3a08012 	mov	r8, #18

00000c24 <l614>:
     c24:	719d60b8 	ldrhvc	r6, [sp, r8]

00000c28 <l615>:
     c28:	e112080a 	tst	r2, sl, lsl #16

00000c2c <interrupt_951>:
     c2c:	e3a09004 	mov	r9, #4

00000c30 <l617>:
     c30:	b71d2009 	ldrlt	r2, [sp, -r9]

00000c34 <l618>:
     c34:	31730065 	cmncc	r3, r5, rrx

00000c38 <l619>:
     c38:	c15d90d5 	ldrsbgt	r9, [sp, #-5]

00000c3c <l620>:
     c3c:	30bf8004 	adcscc	r8, pc, r4

00000c40 <l621>:
     c40:	e91d4004 	ldmdb	sp, {r2, lr}

00000c44 <l622>:
     c44:	090d3f3c 	stmdbeq	sp, {r2, r3, r4, r5, r8, r9, sl, fp, ip, sp}

00000c48 <l623>:
     c48:	e1da806b 	bics	r8, sl, fp, rrx

00000c4c <l624>:
     c4c:	e3a04014 	mov	r4, #20

00000c50 <l625>:
     c50:	e68da004 	str	sl, [sp], r4

00000c54 <l626>:
     c54:	0083e001 	addeq	lr, r3, r1

00000c58 <l627>:
     c58:	c2b7a427 	adcsgt	sl, r7, #654311424	; 0x27000000

00000c5c <l628>:
     c5c:	e35c083f 	cmp	ip, #4128768	; 0x3f0000

00000c60 <l629>:
     c60:	e59f3000 	ldr	r3, [pc]	; c68 <l631>

00000c64 <l630>:
     c64:	ea000000 	b	c6c <l632>

00000c68 <l631>:
     c68:	000fffc4 	.word	0x000fffc4

00000c6c <l632>:
     c6c:	01036094 	swpeq	r6, r4, [r3]

00000c70 <l633>:
     c70:	b0422065 	sublt	r2, r2, r5, rrx

00000c74 <interrupt_327>:
     c74:	e076e550 	rsbs	lr, r6, r0, asr r5

00000c78 <l635>:
     c78:	1a000002 	bne	c88 <l639>

00000c7c <l636>:
     c7c:	e280100e 	add	r1, r0, #14

00000c80 <l637>:
     c80:	737a097a 	cmnvc	sl, #1998848	; 0x1e8000

00000c84 <l638>:
     c84:	ea000000 	b	c8c <l640>

00000c88 <l639>:
     c88:	eafffffc 	b	c80 <l637>

00000c8c <l640>:
     c8c:	e0c5206f 	sbc	r2, r5, pc, rrx

00000c90 <l641>:
     c90:	e59f7000 	ldr	r7, [pc]	; c98 <l643>

00000c94 <l642>:
     c94:	ea000000 	b	c9c <l644>

00000c98 <l643>:
     c98:	000fffb4 	.word	0x000fffb4

00000c9c <l644>:
     c9c:	41075096 	swpmi	r5, r6, [r7]

00000ca0 <interrupt_134>:
     ca0:	5a000002 	bpl	cb0 <interrupt_798>

00000ca4 <l646>:
     ca4:	e2801039 	add	r1, r0, #57	; 0x39

00000ca8 <l647>:
     ca8:	e1190214 	tst	r9, r4, lsl r2

00000cac <interrupt_454>:
     cac:	ea000000 	b	cb4 <interrupt_158>

00000cb0 <interrupt_798>:
     cb0:	eafffffc 	b	ca8 <l647>

00000cb4 <interrupt_158>:
     cb4:	327fba3b 	rsbscc	fp, pc, #241664	; 0x3b000

00000cb8 <l651>:
     cb8:	e55d1009 	ldrb	r1, [sp, #-9]

00000cbc <interrupt_136>:
     cbc:	e0a75007 	adc	r5, r7, r7

00000cc0 <l653>:
     cc0:	c15b068b 	cmpgt	fp, fp, lsl #13

00000cc4 <l654>:
     cc4:	ea000006 	b	ce4 <interrupt_273>

00000cc8 <l655>:
     cc8:	439f3b1a 	orrsmi	r3, pc, #26624	; 0x6800

00000ccc <l656>:
     ccc:	a1f08007 	mvnsge	r8, r7

00000cd0 <l657>:
     cd0:	50cae067 	sbcpl	lr, sl, r7, rrx

00000cd4 <l658>:
     cd4:	e0940c37 	adds	r0, r4, r7, lsr ip

00000cd8 <l659>:
     cd8:	e0da000b 	sbcs	r0, sl, fp

00000cdc <l660>:
     cdc:	e1540075 	cmp	r4, r5, ror r0

00000ce0 <l661>:
     ce0:	d021106e 	eorle	r1, r1, lr, rrx

00000ce4 <interrupt_273>:
     ce4:	2005c062 	andcs	ip, r5, r2, rrx

00000ce8 <l663>:
     ce8:	e229639d 	eor	r6, r9, #1946157058	; 0x74000002

00000cec <l664>:
     cec:	e1a00000 	nop			; (mov r0, r0)

00000cf0 <interrupt_315>:
     cf0:	e15d51b6 	ldrh	r5, [sp, #-22]	; 0xffffffea

00000cf4 <l666>:
     cf4:	e54d3048 	strb	r3, [sp, #-72]	; 0x48

00000cf8 <l667>:
     cf8:	e40d801c 	str	r8, [sp], #-28

00000cfc <l668>:
     cfc:	e92d0099 	push	{r0, r3, r4, r7}

00000d00 <l669>:
     d00:	e08f8002 	add	r8, pc, r2

00000d04 <l670>:
     d04:	e1a00000 	nop			; (mov r0, r0)

00000d08 <l671>:
     d08:	717f00ef 	cmnvc	pc, pc, ror #1

00000d0c <l672>:
     d0c:	20b44254 	adcscs	r4, r4, r4, asr r2

00000d10 <l673>:
     d10:	d2b6c42e 	adcsle	ip, r6, #771751936	; 0x2e000000

00000d14 <l674>:
     d14:	e1190644 	tst	r9, r4, asr #12

00000d18 <interrupt_699>:
     d18:	1310012d 	tstne	r0, #1073741835	; 0x4000000b

00000d1c <interrupt_354>:
     d1c:	c17c0069 	cmngt	ip, r9, rrx

00000d20 <l677>:
     d20:	654d7004 	strbvs	r7, [sp, #-4]

00000d24 <l678>:
     d24:	e59f8000 	ldr	r8, [pc]	; d2c <interrupt_357>

00000d28 <l679>:
     d28:	ea000000 	b	d30 <l681>

00000d2c <interrupt_357>:
     d2c:	000fffd4 	.word	0x000fffd4

00000d30 <l681>:
     d30:	81480097 	swpbhi	r0, r7, [r8]

00000d34 <l682>:
     d34:	5054a637 	subspl	sl, r4, r7, lsr r6

00000d38 <l683>:
     d38:	e0048061 	and	r8, r4, r1, rrx

00000d3c <l684>:
     d3c:	a1c6a063 	bicge	sl, r6, r3, rrx

00000d40 <l685>:
     d40:	e9bd0c02 	ldmib	sp!, {r1, sl, fp}

00000d44 <l686>:
     d44:	e04242c7 	sub	r4, r2, r7, asr #5

00000d48 <l687>:
     d48:	e3a07018 	mov	r7, #24

00000d4c <l688>:
     d4c:	e19d90b7 	ldrh	r9, [sp, r7]

00000d50 <l689>:
     d50:	e3a0601f 	mov	r6, #31

00000d54 <l690>:
     d54:	c19d50d6 	ldrsbgt	r5, [sp, r6]

00000d58 <l691>:
     d58:	60469c18 	subvs	r9, r6, r8, lsl ip

00000d5c <l692>:
     d5c:	92e5309f 	rscls	r3, r5, #159	; 0x9f

00000d60 <l693>:
     d60:	e3a01012 	mov	r1, #18

00000d64 <l694>:
     d64:	e19da0f1 	ldrsh	sl, [sp, r1]

00000d68 <interrupt_786>:
     d68:	e0429813 	sub	r9, r2, r3, lsl r8

00000d6c <l696>:
     d6c:	e0ea4c81 	rsc	r4, sl, r1, lsl #25

00000d70 <l697>:
     d70:	554db003 	strbpl	fp, [sp, #-3]

00000d74 <l698>:
     d74:	e118071c 	tst	r8, ip, lsl r7

00000d78 <l699>:
     d78:	d3993c37 	orrsle	r3, r9, #14080	; 0x3700

00000d7c <l700>:
     d7c:	b16f2f1c 	clzlt	r2, ip

00000d80 <interrupt_472>:
     d80:	4082660f 	addmi	r6, r2, pc, lsl #12

00000d84 <l702>:
     d84:	43dc0946 	bicsmi	r0, ip, #1146880	; 0x118000

00000d88 <l703>:
     d88:	7a000004 	bvc	da0 <l709>

00000d8c <l704>:
     d8c:	e28010c9 	add	r1, r0, #201	; 0xc9

00000d90 <l705>:
     d90:	a21f5b2e 	andsge	r5, pc, #47104	; 0xb800

00000d94 <l706>:
     d94:	5238c7ca 	eorspl	ip, r8, #52953088	; 0x3280000

00000d98 <interrupt_444>:
     d98:	e238bbaf 	eors	fp, r8, #179200	; 0x2bc00

00000d9c <l708>:
     d9c:	ea000000 	b	da4 <l710>

00000da0 <l709>:
     da0:	eafffffa 	b	d90 <l705>

00000da4 <l710>:
     da4:	e1e0564f 	mvn	r5, pc, asr #12

00000da8 <l711>:
     da8:	d05e967a 	subsle	r9, lr, sl, ror r6

00000dac <l712>:
     dac:	e52d701c 	str	r7, [sp, #-28]!

00000db0 <l713>:
     db0:	b1a0a9a4 	lsrlt	sl, r4, #19

00000db4 <interrupt_700>:
     db4:	e3a0101a 	mov	r1, #26

00000db8 <l715>:
     db8:	47cd9001 	strbmi	r9, [sp, r1]

00000dbc <l716>:
     dbc:	7180cea5 	orrvc	ip, r0, r5, lsr #29

00000dc0 <interrupt_262>:
     dc0:	3a000005 	bcc	ddc <l724>

00000dc4 <l718>:
     dc4:	e2801051 	add	r1, r0, #81	; 0x51

00000dc8 <l719>:
     dc8:	b1540622 	cmplt	r4, r2, lsr #12

00000dcc <interrupt_148>:
     dcc:	90aba150 	adcls	sl, fp, r0, asr r1

00000dd0 <l721>:
     dd0:	e00cab53 	and	sl, ip, r3, asr fp

00000dd4 <l722>:
     dd4:	e0c0b6a1 	sbc	fp, r0, r1, lsr #13

00000dd8 <l723>:
     dd8:	ea000000 	b	de0 <l725>

00000ddc <l724>:
     ddc:	eafffff9 	b	dc8 <l719>

00000de0 <l725>:
     de0:	e59f6000 	ldr	r6, [pc]	; de8 <interrupt_146>

00000de4 <l726>:
     de4:	ea000000 	b	dec <l728>

00000de8 <interrupt_146>:
     de8:	000fffd4 	.word	0x000fffd4

00000dec <l728>:
     dec:	b1062094 	swplt	r2, r4, [r6]

00000df0 <l729>:
     df0:	d18fa003 	orrle	sl, pc, r3

00000df4 <l730>:
     df4:	e3a0501f 	mov	r5, #31

00000df8 <l731>:
     df8:	c7cdb005 	strbgt	fp, [sp, r5]

00000dfc <l732>:
     dfc:	40921212 	addsmi	r1, r2, r2, lsl r2

00000e00 <interrupt_521>:
     e00:	da000005 	ble	e1c <l740>

00000e04 <interrupt_347>:
     e04:	e2801015 	add	r1, r0, #21

00000e08 <l735>:
     e08:	c1e0406c 	mvngt	r4, ip, rrx

00000e0c <l736>:
     e0c:	91927635 	orrsls	r7, r2, r5, lsr r6

00000e10 <l737>:
     e10:	135e021a 	cmpne	lr, #-1610612735	; 0xa0000001

00000e14 <l738>:
     e14:	e243bb1d 	sub	fp, r3, #29696	; 0x7400

00000e18 <interrupt_369>:
     e18:	ea000000 	b	e20 <l741>

00000e1c <l740>:
     e1c:	eafffff9 	b	e08 <l735>

00000e20 <l741>:
     e20:	e046a069 	sub	sl, r6, r9, rrx

00000e24 <l742>:
     e24:	e3a0301e 	mov	r3, #30

00000e28 <l743>:
     e28:	e7cd5003 	strb	r5, [sp, r3]

00000e2c <l744>:
     e2c:	e82d0010 	stmda	sp!, {r4}

00000e30 <l745>:
     e30:	e094400e 	adds	r4, r4, lr

00000e34 <l746>:
     e34:	e59f4000 	ldr	r4, [pc]	; e3c <l748>

00000e38 <l747>:
     e38:	ea000000 	b	e40 <l749>

00000e3c <l748>:
     e3c:	000fffb4 	.word	0x000fffb4

00000e40 <l749>:
     e40:	e144109a 	swpb	r1, sl, [r4]

00000e44 <l750>:
     e44:	71dd20d0 	ldrsbvc	r2, [sp]

00000e48 <l751>:
     e48:	e02035a3 	eor	r3, r0, r3, lsr #11

00000e4c <interrupt_954>:
     e4c:	e0f72514 	rscs	r2, r7, r4, lsl r5

00000e50 <l753>:
     e50:	e053506f 	subs	r5, r3, pc, rrx

00000e54 <l754>:
     e54:	e3a08013 	mov	r8, #19

00000e58 <l755>:
     e58:	019d20d8 	ldrsbeq	r2, [sp, r8]

00000e5c <l756>:
     e5c:	c1ddb4d3 	ldrsbgt	fp, [sp, #67]	; 0x43

00000e60 <interrupt_530>:
     e60:	e3a0e01c 	mov	lr, #28

00000e64 <l758>:
     e64:	e7ade00e 	str	lr, [sp, lr]!

00000e68 <l759>:
     e68:	e18f1001 	orr	r1, pc, r1

00000e6c <l760>:
     e6c:	40e85a76 	rscmi	r5, r8, r6, ror sl

00000e70 <l761>:
     e70:	a0904759 	addsge	r4, r0, r9, asr r7

00000e74 <l762>:
     e74:	e55da006 	ldrb	sl, [sp, #-6]

00000e78 <l763>:
     e78:	e1cd91bc 	strh	r9, [sp, #28]

00000e7c <interrupt_427>:
     e7c:	a1a01001 	movge	r1, r1

00000e80 <l765>:
     e80:	e92d0800 	stmfd	sp!, {fp}

00000e84 <l766>:
     e84:	a59d5008 	ldrge	r5, [sp, #8]

00000e88 <l767>:
     e88:	a02c54a6 	eorge	r5, ip, r6, lsr #9

00000e8c <l768>:
     e8c:	e59f4000 	ldr	r4, [pc]	; e94 <interrupt_760>

00000e90 <interrupt_574>:
     e90:	ea000000 	b	e98 <interrupt_686>

00000e94 <interrupt_760>:
     e94:	000fffb0 	.word	0x000fffb0

00000e98 <interrupt_686>:
     e98:	1104e091 	swpne	lr, r1, [r4]

00000e9c <l772>:
     e9c:	6064008b 	rsbvs	r0, r4, fp, lsl #1

00000ea0 <interrupt_92>:
     ea0:	e5ad0024 	str	r0, [sp, #36]!	; 0x24

00000ea4 <interrupt_839>:
     ea4:	e82de000 	stmda	sp!, {sp, lr, pc}

00000ea8 <l775>:
     ea8:	ea000007 	b	ecc <interrupt_288>

00000eac <l776>:
     eac:	e28010be 	add	r1, r0, #190	; 0xbe

00000eb0 <interrupt_750>:
     eb0:	716f4f13 	clzvc	r4, r3

00000eb4 <l778>:
     eb4:	e3b00811 	movs	r0, #1114112	; 0x110000

00000eb8 <l779>:
     eb8:	227496cb 	rsbscs	r9, r4, #212860928	; 0xcb00000

00000ebc <l780>:
     ebc:	e11206e4 	tst	r2, r4, ror #13

00000ec0 <l781>:
     ec0:	d090b002 	addsle	fp, r0, r2

00000ec4 <l782>:
     ec4:	e16f5f15 	clz	r5, r5

00000ec8 <interrupt_748>:
     ec8:	ea000000 	b	ed0 <l785>

00000ecc <interrupt_288>:
     ecc:	eafffff7 	b	eb0 <interrupt_750>

00000ed0 <l785>:
     ed0:	e0571c17 	subs	r1, r7, r7, lsl ip

00000ed4 <l786>:
     ed4:	20f4112f 	rscscs	r1, r4, pc, lsr #2

00000ed8 <interrupt_735>:
     ed8:	e0030005 	and	r0, r3, r5

00000edc <l788>:
     edc:	d00b1a08 	andle	r1, fp, r8, lsl #20

00000ee0 <l789>:
     ee0:	1a000006 	bne	f00 <l797>

00000ee4 <l790>:
     ee4:	e2801021 	add	r1, r0, #33	; 0x21

00000ee8 <l791>:
     ee8:	e24c67e5 	sub	r6, ip, #60030976	; 0x3940000

00000eec <l792>:
     eec:	71f0400c 	mvnsvc	r4, ip

00000ef0 <l793>:
     ef0:	e3540441 	cmp	r4, #1090519040	; 0x41000000

00000ef4 <l794>:
     ef4:	804e373c 	subhi	r3, lr, ip, lsr r7

00000ef8 <l795>:
     ef8:	41e07009 	mvnmi	r7, r9

00000efc <l796>:
     efc:	ea000000 	b	f04 <l798>

00000f00 <l797>:
     f00:	eafffff8 	b	ee8 <l791>

00000f04 <l798>:
     f04:	b0ebc000 	rsclt	ip, fp, r0

00000f08 <interrupt_482>:
     f08:	e3a0e01c 	mov	lr, #28

00000f0c <l800>:
     f0c:	574d700e 	strbpl	r7, [sp, -lr]

00000f10 <l801>:
     f10:	a33e065f 	teqge	lr, #99614720	; 0x5f00000

00000f14 <l802>:
     f14:	01110734 	tsteq	r1, r4, lsr r7

00000f18 <l803>:
     f18:	e0e6a856 	rsc	sl, r6, r6, asr r8

00000f1c <l804>:
     f1c:	e18a861a 	orr	r8, sl, sl, lsl r6

00000f20 <l805>:
     f20:	e15d71b4 	ldrh	r7, [sp, #-20]	; 0xffffffec

00000f24 <l806>:
     f24:	e1a00000 	nop			; (mov r0, r0)

00000f28 <l807>:
     f28:	e40d8024 	str	r8, [sp], #-36	; 0x24

00000f2c <l808>:
     f2c:	ca000002 	bgt	f3c <l812>

00000f30 <l809>:
     f30:	e0517008 	subs	r7, r1, r8

00000f34 <interrupt_16>:
     f34:	b117000c 	tstlt	r7, ip

00000f38 <l811>:
     f38:	31560ea1 	cmpcc	r6, r1, lsr #29

00000f3c <l812>:
     f3c:	516f5f16 	clzpl	r5, r6

00000f40 <l813>:
     f40:	61964775 	orrsvs	r4, r6, r5, ror r7

00000f44 <l814>:
     f44:	e032500b 	eors	r5, r2, fp

00000f48 <interrupt_196>:
     f48:	e48d700c 	str	r7, [sp], #12

00000f4c <l816>:
     f4c:	e83d4040 	ldmda	sp!, {r6, lr}

00000f50 <interrupt_648>:
     f50:	c0091006 	andgt	r1, r9, r6

00000f54 <interrupt_313>:
     f54:	e3a0c010 	mov	ip, #16

00000f58 <l819>:
     f58:	611d30bc 	ldrhvs	r3, [sp, -ip]

00000f5c <l820>:
     f5c:	d3390689 	teqle	r9, #143654912	; 0x8900000

00000f60 <l821>:
     f60:	e1dd52d4 	ldrsb	r5, [sp, #36]	; 0x24

00000f64 <l822>:
     f64:	e0047671 	and	r7, r4, r1, ror r6

00000f68 <l823>:
     f68:	83a05702 	movhi	r5, #524288	; 0x80000

00000f6c <l824>:
     f6c:	e59f2000 	ldr	r2, [pc]	; f74 <l826>

00000f70 <l825>:
     f70:	ea000000 	b	f78 <l827>

00000f74 <l826>:
     f74:	000fffb0 	.word	0x000fffb0

00000f78 <l827>:
     f78:	11020091 	swpne	r0, r1, [r2]

00000f7c <l828>:
     f7c:	e3a0200a 	mov	r2, #10

00000f80 <l829>:
     f80:	911d60f2 	ldrshls	r6, [sp, -r2]

00000f84 <l830>:
     f84:	e1790416 	cmn	r9, r6, lsl r4

00000f88 <l831>:
     f88:	e59f8000 	ldr	r8, [pc]	; f90 <interrupt_622>

00000f8c <l832>:
     f8c:	ea000000 	b	f94 <interrupt_832>

00000f90 <interrupt_622>:
     f90:	000fffd4 	.word	0x000fffd4

00000f94 <interrupt_832>:
     f94:	1148009e 	swpbne	r0, lr, [r8]

00000f98 <l835>:
     f98:	9a000000 	bls	fa0 <l837>

00000f9c <l836>:
     f9c:	e2776889 	rsbs	r6, r7, #8978432	; 0x890000

00000fa0 <l837>:
     fa0:	e08a5009 	add	r5, sl, r9

00000fa4 <l838>:
     fa4:	e3a0b006 	mov	fp, #6

00000fa8 <l839>:
     fa8:	b11db0fb 	ldrshlt	fp, [sp, -fp]

00000fac <interrupt_225>:
     fac:	e59f2000 	ldr	r2, [pc]	; fb4 <l842>

00000fb0 <l841>:
     fb0:	ea000000 	b	fb8 <l843>

00000fb4 <l842>:
     fb4:	000fffb8 	.word	0x000fffb8

00000fb8 <l843>:
     fb8:	e1428096 	swpb	r8, r6, [r2]

00000fbc <l844>:
     fbc:	01d74003 	bicseq	r4, r7, r3

00000fc0 <l845>:
     fc0:	e1c0e008 	bic	lr, r0, r8

00000fc4 <l846>:
     fc4:	e3a0300c 	mov	r3, #12

00000fc8 <l847>:
     fc8:	018da0b3 	strheq	sl, [sp, r3]

00000fcc <interrupt_856>:
     fcc:	a134007b 	teqge	r4, fp, ror r0

00000fd0 <l849>:
     fd0:	03b00147 	movseq	r0, #-1073741807	; 0xc0000011

00000fd4 <l850>:
     fd4:	ba000004 	blt	fec <l856>

00000fd8 <l851>:
     fd8:	e0844002 	add	r4, r4, r2

00000fdc <interrupt_527>:
     fdc:	e2d6bd0b 	sbcs	fp, r6, #704	; 0x2c0

00000fe0 <interrupt_145>:
     fe0:	2243293b 	subcs	r2, r3, #966656	; 0xec000

00000fe4 <l854>:
     fe4:	e1f0b876 	mvns	fp, r6, ror r8

00000fe8 <l855>:
     fe8:	e26cb013 	rsb	fp, ip, #19

00000fec <l856>:
     fec:	61540675 	cmpvs	r4, r5, ror r6

00000ff0 <l857>:
     ff0:	e057615e 	subs	r6, r7, lr, asr r1

00000ff4 <l858>:
     ff4:	d2a2a0a1 	adcle	sl, r2, #161	; 0xa1

00000ff8 <l859>:
     ff8:	e3a04024 	mov	r4, #36	; 0x24

00000ffc <interrupt_631>:
     ffc:	e18d20b4 	strh	r2, [sp, r4]

00001000 <l861>:
    1000:	e3a0a012 	mov	sl, #18

00001004 <l862>:
    1004:	e19de0fa 	ldrsh	lr, [sp, sl]

00001008 <interrupt_597>:
    1008:	e5ddc030 	ldrb	ip, [sp, #48]	; 0x30

0000100c <l864>:
    100c:	e3a0e004 	mov	lr, #4

00001010 <l865>:
    1010:	e7bd100e 	ldr	r1, [sp, lr]!

00001014 <l866>:
    1014:	005b2956 	subseq	r2, fp, r6, asr r9

00001018 <l867>:
    1018:	e8bd4339 	pop	{r0, r3, r4, r5, r8, r9, lr}

0000101c <l868>:
    101c:	e032700c 	eors	r7, r2, ip

00001020 <l869>:
    1020:	e3a0202e 	mov	r2, #46	; 0x2e

00001024 <l870>:
    1024:	e11d70f2 	ldrsh	r7, [sp, -r2]

00001028 <l871>:
    1028:	916f4f10 	clzls	r4, r0

0000102c <l872>:
    102c:	715d30bc 	ldrhvc	r3, [sp, #-12]

00001030 <l873>:
    1030:	e15d80db 	ldrsb	r8, [sp, #-11]

00001034 <l874>:
    1034:	e154061b 	cmp	r4, fp, lsl r6

00001038 <l875>:
    1038:	4a000003 	bmi	104c <l880>

0000103c <l876>:
    103c:	e1780ae3 	cmn	r8, r3, ror #21

00001040 <l877>:
    1040:	11a0100c 	movne	r1, ip

00001044 <l878>:
    1044:	d0cec006 	sbcle	ip, lr, r6

00001048 <l879>:
    1048:	e388e83f 	orr	lr, r8, #4128768	; 0x3f0000

0000104c <l880>:
    104c:	b3580a62 	cmplt	r8, #401408	; 0x62000

00001050 <l881>:
    1050:	e89d0110 	ldm	sp, {r4, r8}

00001054 <l882>:
    1054:	e3877433 	orr	r7, r7, #855638016	; 0x33000000

00001058 <interrupt_855>:
    1058:	23780b6e 	cmncs	r8, #112640	; 0x1b800

0000105c <l884>:
    105c:	e11e0375 	tst	lr, r5, ror r3

00001060 <l885>:
    1060:	30021001 	andcc	r1, r2, r1

00001064 <l886>:
    1064:	e3a0a02c 	mov	sl, #44	; 0x2c

00001068 <interrupt_835>:
    1068:	111d80ba 	ldrhne	r8, [sp, -sl]

0000106c <interrupt_714>:
    106c:	b23a9e7d 	eorslt	r9, sl, #2000	; 0x7d0

00001070 <l889>:
    1070:	e3c51a87 	bic	r1, r5, #552960	; 0x87000

00001074 <l890>:
    1074:	e83d0400 	ldmda	sp!, {sl}

00001078 <l891>:
    1078:	c14de1b4 	strhgt	lr, [sp, #-20]	; 0xffffffec

0000107c <l892>:
    107c:	e3a0502a 	mov	r5, #42	; 0x2a

00001080 <l893>:
    1080:	511d00f5 	ldrshpl	r0, [sp, -r5]

00001084 <l894>:
    1084:	e292b121 	adds	fp, r2, #1073741832	; 0x40000008

00001088 <interrupt_475>:
    1088:	314d42b2 	strhcc	r4, [sp, #-34]	; 0xffffffde

0000108c <interrupt_781>:
    108c:	e2deca0a 	sbcs	ip, lr, #40960	; 0xa000

00001090 <l897>:
    1090:	8182c251 	orrhi	ip, r2, r1, asr r2

00001094 <l898>:
    1094:	32486263 	subcc	r6, r8, #805306374	; 0x30000006

00001098 <l899>:
    1098:	70a28067 	adcvc	r8, r2, r7, rrx

0000109c <l900>:
    109c:	513a0006 	teqpl	sl, r6

000010a0 <l901>:
    10a0:	e14de0bc 	strh	lr, [sp, #-12]

000010a4 <l902>:
    10a4:	e15b0064 	cmp	fp, r4, rrx

000010a8 <interrupt_731>:
    10a8:	155d6015 	ldrbne	r6, [sp, #-21]

000010ac <l904>:
    10ac:	e3520053 	cmp	r2, #83	; 0x53

000010b0 <interrupt_682>:
    10b0:	e3a0c032 	mov	ip, #50	; 0x32

000010b4 <l906>:
    10b4:	a11dc0bc 	ldrhge	ip, [sp, -ip]

000010b8 <interrupt_124>:
    10b8:	e8ad8445 	stmia	sp!, {r0, r2, r6, sl, pc}

000010bc <l908>:
    10bc:	e0f51669 	rscs	r1, r5, r9, ror #12

000010c0 <interrupt_575>:
    10c0:	715d64b8 	ldrhvc	r6, [sp, #-72]	; 0xffffffb8

000010c4 <l910>:
    10c4:	8024617b 	eorhi	r6, r4, fp, ror r1

000010c8 <l911>:
    10c8:	a04c0c16 	subge	r0, ip, r6, lsl ip

000010cc <interrupt_531>:
    10cc:	e1f09000 	mvns	r9, r0

000010d0 <l913>:
    10d0:	61a042ec 	rorvs	r4, ip, #5

000010d4 <l914>:
    10d4:	2176050c 	cmncs	r6, ip, lsl #10

000010d8 <l915>:
    10d8:	e0ab3179 	adc	r3, fp, r9, ror r1

000010dc <interrupt_219>:
    10dc:	e15d31b8 	ldrh	r3, [sp, #-24]	; 0xffffffe8

000010e0 <l917>:
    10e0:	e3a0402c 	mov	r4, #44	; 0x2c

000010e4 <l918>:
    10e4:	c10d00b4 	strhgt	r0, [sp, -r4]

000010e8 <interrupt_973>:
    10e8:	e0d90127 	sbcs	r0, r9, r7, lsr #2

000010ec <l920>:
    10ec:	615d24b6 	ldrhvs	r2, [sp, #-70]	; 0xffffffba

000010f0 <l921>:
    10f0:	d55d8033 	ldrble	r8, [sp, #-51]	; 0x33

000010f4 <l922>:
    10f4:	e15d32b0 	ldrh	r3, [sp, #-32]	; 0xffffffe0

000010f8 <l923>:
    10f8:	ea000006 	b	1118 <l931>

000010fc <l924>:
    10fc:	6382059b 	orrvs	r0, r2, #650117120	; 0x26c00000

00001100 <l925>:
    1100:	a3854025 	orrge	r4, r5, #37	; 0x25

00001104 <l926>:
    1104:	e33f0513 	teq	pc, #79691776	; 0x4c00000

00001108 <l927>:
    1108:	d22f62d7 	eorle	r6, pc, #1879048205	; 0x7000000d

0000110c <l928>:
    110c:	01700a37 	cmneq	r0, r7, lsr sl

00001110 <l929>:
    1110:	c297118b 	addsgt	r1, r7, #-1073741790	; 0xc0000022

00001114 <l930>:
    1114:	d0a34e3c 	adcle	r4, r3, ip, lsr lr

00001118 <l931>:
    1118:	e13a0f09 	teq	sl, r9, lsl #30

0000111c <l932>:
    111c:	43e0b0b9 	mvnmi	fp, #185	; 0xb9

00001120 <l933>:
    1120:	e04997e7 	sub	r9, r9, r7, ror #15

00001124 <l934>:
    1124:	e199907e 	orrs	r9, r9, lr, ror r0

00001128 <l935>:
    1128:	317c0357 	cmncc	ip, r7, asr r3

0000112c <l936>:
    112c:	e2405033 	sub	r5, r0, #51	; 0x33

00001130 <interrupt_297>:
    1130:	ea000000 	b	1138 <l939>

00001134 <l938>:
    1134:	61837001 	orrvs	r7, r3, r1

00001138 <l939>:
    1138:	e0c5206a 	sbc	r2, r5, sl, rrx

0000113c <interrupt_457>:
    113c:	e003b068 	and	fp, r3, r8, rrx

00001140 <l941>:
    1140:	e3a05044 	mov	r5, #68	; 0x44

00001144 <l942>:
    1144:	a11d20b5 	ldrhge	r2, [sp, -r5]

00001148 <l943>:
    1148:	20b22009 	adcscs	r2, r2, r9

0000114c <interrupt_305>:
    114c:	e59fc000 	ldr	ip, [pc]	; 1154 <interrupt_715>

00001150 <interrupt_345>:
    1150:	ea000000 	b	1158 <l947>

00001154 <interrupt_715>:
    1154:	000fffd8 	.word	0x000fffd8

00001158 <l947>:
    1158:	e14c1098 	swpb	r1, r8, [ip]

0000115c <l948>:
    115c:	41e0006f 	mvnmi	r0, pc, rrx

00001160 <interrupt_296>:
    1160:	e3a06044 	mov	r6, #68	; 0x44

00001164 <l950>:
    1164:	e11d20f6 	ldrsh	r2, [sp, -r6]

00001168 <l951>:
    1168:	51958068 	orrspl	r8, r5, r8, rrx

0000116c <l952>:
    116c:	0159013a 	cmpeq	r9, sl, lsr r1

00001170 <l953>:
    1170:	7213c8e2 	andsvc	ip, r3, #14811136	; 0xe20000

00001174 <l954>:
    1174:	237b07ce 	cmncs	fp, #54001664	; 0x3380000

00001178 <l955>:
    1178:	ea000003 	b	118c <interrupt_922>

0000117c <l956>:
    117c:	e2801042 	add	r1, r0, #66	; 0x42

00001180 <l957>:
    1180:	a131000b 	teqge	r1, fp

00001184 <l958>:
    1184:	8080800e 	addhi	r8, r0, lr

00001188 <l959>:
    1188:	ea000000 	b	1190 <l961>

0000118c <interrupt_922>:
    118c:	eafffffb 	b	1180 <l957>

00001190 <l961>:
    1190:	e16f7f17 	clz	r7, r7

00001194 <l962>:
    1194:	4188bc0b 	orrmi	fp, r8, fp, lsl #24

00001198 <l963>:
    1198:	e0c33064 	sbc	r3, r3, r4, rrx

0000119c <l964>:
    119c:	615d02f2 	ldrshvs	r0, [sp, #-34]	; 0xffffffde

000011a0 <interrupt_103>:
    11a0:	e15d83ba 	ldrh	r8, [sp, #-58]	; 0xffffffc6

000011a4 <l966>:
    11a4:	e2135f53 	ands	r5, r3, #332	; 0x14c

000011a8 <l967>:
    11a8:	e1720005 	cmn	r2, r5

000011ac <interrupt_616>:
    11ac:	054de03c 	strbeq	lr, [sp, #-60]	; 0x3c

000011b0 <l969>:
    11b0:	e40d1048 	str	r1, [sp], #-72	; 0x48

000011b4 <l970>:
    11b4:	e5bd001c 	ldr	r0, [sp, #28]!

000011b8 <l971>:
    11b8:	d1f0a06f 	mvnsle	sl, pc, rrx

000011bc <l972>:
    11bc:	c1d19068 	bicsgt	r9, r1, r8, rrx

000011c0 <l973>:
    11c0:	e0141932 	ands	r1, r4, r2, lsr r9

000011c4 <l974>:
    11c4:	61dd02f6 	ldrshvs	r0, [sp, #38]	; 0x26

000011c8 <l975>:
    11c8:	e49d8018 	ldr	r8, [sp], #24

000011cc <l976>:
    11cc:	815d90b4 	ldrhhi	r9, [sp, #-4]

000011d0 <l977>:
    11d0:	e3dfed66 	bics	lr, pc, #6528	; 0x1980

000011d4 <l978>:
    11d4:	e0c7000a 	sbc	r0, r7, sl

000011d8 <l979>:
    11d8:	e1cfc068 	bic	ip, pc, r8, rrx

000011dc <l980>:
    11dc:	e3a02015 	mov	r2, #21

000011e0 <l981>:
    11e0:	e11d70d2 	ldrsb	r7, [sp, -r2]

000011e4 <l982>:
    11e4:	e3a0a014 	mov	sl, #20

000011e8 <l983>:
    11e8:	e61d000a 	ldr	r0, [sp], -sl

000011ec <l984>:
    11ec:	e3a0a002 	mov	sl, #2

000011f0 <l985>:
    11f0:	37dd300a 	ldrbcc	r3, [sp, sl]

000011f4 <l986>:
    11f4:	e19e106e 	orrs	r1, lr, lr, rrx

000011f8 <l987>:
    11f8:	016f8f1a 	clzeq	r8, sl

000011fc <l988>:
    11fc:	52462e9e 	subpl	r2, r6, #2528	; 0x9e0

00001200 <l989>:
    1200:	e23a7483 	eors	r7, sl, #-2097152000	; 0x83000000

00001204 <l990>:
    1204:	ea000001 	b	1210 <l993>

00001208 <l991>:
    1208:	e16f8f15 	clz	r8, r5

0000120c <l992>:
    120c:	e16faf14 	clz	sl, r4

00001210 <l993>:
    1210:	516fcf13 	clzpl	ip, r3

00001214 <l994>:
    1214:	817b006f 	cmnhi	fp, pc, rrx

00001218 <l995>:
    1218:	71120005 	tstvc	r2, r5

0000121c <l996>:
    121c:	7063000b 	rsbvc	r0, r3, fp

00001220 <l997>:
    1220:	e59f9000 	ldr	r9, [pc]	; 1228 <l999>

00001224 <l998>:
    1224:	ea000000 	b	122c <l1000>

00001228 <l999>:
    1228:	000fffc4 	.word	0x000fffc4

0000122c <l1000>:
    122c:	b1092092 	swplt	r2, r2, [r9]

00001230 <interrupt_644>:
    1230:	e191af2a 	orrs	sl, r1, sl, lsr #30

00001234 <l1002>:
    1234:	e3a00004 	mov	r0, #4

00001238 <l1003>:
    1238:	a7ddc000 	ldrbge	ip, [sp, r0]

0000123c <l1004>:
    123c:	51560000 	cmppl	r6, r0

00001240 <l1005>:
    1240:	e59f3000 	ldr	r3, [pc]	; 1248 <l1007>

00001244 <l1006>:
    1244:	ea000000 	b	124c <l1008>

00001248 <l1007>:
    1248:	000fffa4 	.word	0x000fffa4

0000124c <l1008>:
    124c:	b103609e 	swplt	r6, lr, [r3]

00001250 <l1009>:
    1250:	e1dd10ba 	ldrh	r1, [sp, #10]

00001254 <l1010>:
    1254:	e02b393b 	eor	r3, fp, fp, lsr r9

00001258 <l1011>:
    1258:	e82dc431 	stmda	sp!, {r0, r4, r5, sl, lr, pc}

0000125c <l1012>:
    125c:	05cde042 	strbeq	lr, [sp, #66]	; 0x42

00001260 <l1013>:
    1260:	e59f1000 	ldr	r1, [pc]	; 1268 <l1015>

00001264 <l1014>:
    1264:	ea000000 	b	126c <l1016>

00001268 <l1015>:
    1268:	000fffc8 	.word	0x000fffc8

0000126c <l1016>:
    126c:	e141209b 	swpb	r2, fp, [r1]

00001270 <l1017>:
    1270:	a1dd62bc 	ldrhge	r6, [sp, #44]	; 0x2c

00001274 <l1018>:
    1274:	e1d63001 	bics	r3, r6, r1

00001278 <interrupt_630>:
    1278:	e279b525 	rsbs	fp, r9, #155189248	; 0x9400000

0000127c <l1020>:
    127c:	e04b82af 	sub	r8, fp, pc, lsr #5

00001280 <l1021>:
    1280:	e3a0301e 	mov	r3, #30

00001284 <l1022>:
    1284:	819da0b3 	ldrhhi	sl, [sp, r3]

00001288 <interrupt_633>:
    1288:	e59f3000 	ldr	r3, [pc]	; 1290 <l1025>

0000128c <l1024>:
    128c:	ea000000 	b	1294 <l1026>

00001290 <l1025>:
    1290:	000fffcc 	.word	0x000fffcc

00001294 <l1026>:
    1294:	d143e09b 	swpble	lr, fp, [r3]

00001298 <l1027>:
    1298:	e58da034 	str	sl, [sp, #52]	; 0x34

0000129c <l1028>:
    129c:	e3a0303c 	mov	r3, #60	; 0x3c

000012a0 <l1029>:
    12a0:	e7bd9003 	ldr	r9, [sp, r3]!

000012a4 <l1030>:
    12a4:	d17c0063 	cmnle	ip, r3, rrx

000012a8 <l1031>:
    12a8:	e93d4e6e 	ldmdb	sp!, {r1, r2, r3, r5, r6, r9, sl, fp, lr}

000012ac <l1032>:
    12ac:	e15c0069 	cmp	ip, r9, rrx

000012b0 <l1033>:
    12b0:	e5ddb016 	ldrb	fp, [sp, #22]

000012b4 <l1034>:
    12b4:	c1c4ae72 	bicgt	sl, r4, r2, ror lr

000012b8 <l1035>:
    12b8:	e0361eca 	eors	r1, r6, sl, asr #29

000012bc <l1036>:
    12bc:	e59f7000 	ldr	r7, [pc]	; 12c4 <l1038>

000012c0 <l1037>:
    12c0:	ea000000 	b	12c8 <l1039>

000012c4 <l1038>:
    12c4:	000fffa0 	.word	0x000fffa0

000012c8 <l1039>:
    12c8:	e1478091 	swpb	r8, r1, [r7]

000012cc <l1040>:
    12cc:	5069e94a 	rsbpl	lr, r9, sl, asr #18

000012d0 <l1041>:
    12d0:	e1f01358 	mvns	r1, r8, asr r3

000012d4 <l1042>:
    12d4:	e16f0f1b 	clz	r0, fp

000012d8 <l1043>:
    12d8:	31d01440 	bicscc	r1, r0, r0, asr #8

000012dc <l1044>:
    12dc:	71f00437 	mvnsvc	r0, r7, lsr r4

000012e0 <l1045>:
    12e0:	e8bd0021 	pop	{r0, r5}

000012e4 <l1046>:
    12e4:	71b075a4 	lsrsvc	r7, r4, #11

000012e8 <l1047>:
    12e8:	a203bbe5 	andge	fp, r3, #234496	; 0x39400

000012ec <interrupt_314>:
    12ec:	e3a06008 	mov	r6, #8

000012f0 <l1049>:
    12f0:	87dd3006 	ldrbhi	r3, [sp, r6]

000012f4 <l1050>:
    12f4:	e1520a19 	cmp	r2, r9, lsl sl

000012f8 <l1051>:
    12f8:	60509007 	subsvs	r9, r0, r7

000012fc <interrupt_649>:
    12fc:	e0750055 	rsbs	r0, r5, r5, asr r0

00001300 <l1053>:
    1300:	e0cce903 	sbc	lr, ip, r3, lsl #18

00001304 <l1054>:
    1304:	e82d6000 	stmda	sp!, {sp, lr}

00001308 <l1055>:
    1308:	e0e6c11e 	rsc	ip, r6, lr, lsl r1

0000130c <l1056>:
    130c:	851de004 	ldrhi	lr, [sp, #-4]

00001310 <interrupt_873>:
    1310:	61370e47 	teqvs	r7, r7, asr #28

00001314 <l1058>:
    1314:	e3a07010 	mov	r7, #16

00001318 <interrupt_489>:
    1318:	e10d70b7 	strh	r7, [sp, -r7]

0000131c <interrupt_208>:
    131c:	e026b065 	eor	fp, r6, r5, rrx

00001320 <l1061>:
    1320:	50d9345c 	sbcspl	r3, r9, ip, asr r4

00001324 <l1062>:
    1324:	e59f3000 	ldr	r3, [pc]	; 132c <l1064>

00001328 <l1063>:
    1328:	ea000000 	b	1330 <l1065>

0000132c <l1064>:
    132c:	000fffb8 	.word	0x000fffb8

00001330 <l1065>:
    1330:	e103009c 	swp	r0, ip, [r3]

00001334 <l1066>:
    1334:	e3a04008 	mov	r4, #8

00001338 <l1067>:
    1338:	e68d9004 	str	r9, [sp], r4

0000133c <l1068>:
    133c:	717f0c06 	cmnvc	pc, r6, lsl #24

00001340 <l1069>:
    1340:	204f7009 	subcs	r7, pc, r9

00001344 <l1070>:
    1344:	e1f05313 	mvns	r5, r3, lsl r3

00001348 <l1071>:
    1348:	915b02e4 	cmpls	fp, r4, ror #5

0000134c <interrupt_246>:
    134c:	6244bb99 	subvs	fp, r4, #156672	; 0x26400

00001350 <l1073>:
    1350:	e3a05020 	mov	r5, #32

00001354 <l1074>:
    1354:	e19d80b5 	ldrh	r8, [sp, r5]

00001358 <l1075>:
    1358:	e0abc00f 	adc	ip, fp, pc

0000135c <l1076>:
    135c:	e24b9812 	sub	r9, fp, #1179648	; 0x120000

00001360 <l1077>:
    1360:	e0665362 	rsb	r5, r6, r2, ror #6

00001364 <interrupt_190>:
    1364:	e3a0100a 	mov	r1, #10

00001368 <interrupt_787>:
    1368:	e7cd2001 	strb	r2, [sp, r1]

0000136c <l1080>:
    136c:	e1d64007 	bics	r4, r6, r7

00001370 <l1081>:
    1370:	0111000a 	tsteq	r1, sl

00001374 <l1082>:
    1374:	e59fe000 	ldr	lr, [pc]	; 137c <l1084>

00001378 <l1083>:
    1378:	ea000000 	b	1380 <l1085>

0000137c <l1084>:
    137c:	000fffd0 	.word	0x000fffd0

00001380 <l1085>:
    1380:	810e409a 	swphi	r4, sl, [lr]

00001384 <l1086>:
    1384:	e04a9064 	sub	r9, sl, r4, rrx

00001388 <l1087>:
    1388:	e3a0c012 	mov	ip, #18

0000138c <l1088>:
    138c:	911db0dc 	ldrsbls	fp, [sp, -ip]

00001390 <l1089>:
    1390:	3a000001 	bcc	139c <l1092>

00001394 <l1090>:
    1394:	90da5471 	sbcsls	r5, sl, r1, ror r4

00001398 <l1091>:
    1398:	b04b4666 	sublt	r4, fp, r6, ror #12

0000139c <l1092>:
    139c:	5022600a 	eorpl	r6, r2, sl

000013a0 <l1093>:
    13a0:	e16f9f15 	clz	r9, r5

000013a4 <l1094>:
    13a4:	70ea4b1a 	rscvc	r4, sl, sl, lsl fp

000013a8 <interrupt_168>:
    13a8:	e013300c 	ands	r3, r3, ip

000013ac <l1096>:
    13ac:	e59fa000 	ldr	sl, [pc]	; 13b4 <interrupt_502>

000013b0 <l1097>:
    13b0:	ea000000 	b	13b8 <l1099>

000013b4 <interrupt_502>:
    13b4:	000fffa4 	.word	0x000fffa4

000013b8 <l1099>:
    13b8:	610a9098 	swpvs	r9, r8, [sl]

000013bc <l1100>:
    13bc:	e335001f 	teq	r5, #31

000013c0 <l1101>:
    13c0:	d02f1001 	eorle	r1, pc, r1

000013c4 <l1102>:
    13c4:	e59f1000 	ldr	r1, [pc]	; 13cc <l1104>

000013c8 <l1103>:
    13c8:	ea000000 	b	13d0 <interrupt_122>

000013cc <l1104>:
    13cc:	000fffe0 	.word	0x000fffe0

000013d0 <interrupt_122>:
    13d0:	e141a09a 	swpb	sl, sl, [r1]

000013d4 <l1106>:
    13d4:	e82d4840 	stmda	sp!, {r6, fp, lr}

000013d8 <interrupt_962>:
    13d8:	e132000a 	teq	r2, sl

000013dc <l1108>:
    13dc:	e3a0101a 	mov	r1, #26

000013e0 <interrupt_40>:
    13e0:	e11dc0b1 	ldrh	ip, [sp, -r1]

000013e4 <l1110>:
    13e4:	e2b87512 	adcs	r7, r8, #75497472	; 0x4800000

000013e8 <interrupt_109>:
    13e8:	ea000003 	b	13fc <l1116>

000013ec <l1112>:
    13ec:	e28010eb 	add	r1, r0, #235	; 0xeb

000013f0 <l1113>:
    13f0:	e039b36f 	eors	fp, r9, pc, ror #6

000013f4 <l1114>:
    13f4:	e1a04000 	mov	r4, r0

000013f8 <l1115>:
    13f8:	ea000000 	b	1400 <l1117>

000013fc <l1116>:
    13fc:	eafffffb 	b	13f0 <l1113>

00001400 <l1117>:
    1400:	e54dc01c 	strb	ip, [sp, #-28]

00001404 <l1118>:
    1404:	51dd51b8 	ldrhpl	r5, [sp, #24]

00001408 <interrupt_404>:
    1408:	e3a09008 	mov	r9, #8

0000140c <l1120>:
    140c:	419d60f9 	ldrshmi	r6, [sp, r9]

00001410 <l1121>:
    1410:	70924459 	addsvc	r4, r2, r9, asr r4

00001414 <l1122>:
    1414:	d0afe007 	adcle	lr, pc, r7

00001418 <interrupt_522>:
    1418:	e3a0001c 	mov	r0, #28

0000141c <l1124>:
    141c:	e69d5000 	ldr	r5, [sp], r0

00001420 <l1125>:
    1420:	e16f3f1e 	clz	r3, lr

00001424 <interrupt_966>:
    1424:	e3a0a00e 	mov	sl, #14

00001428 <l1127>:
    1428:	e19d90fa 	ldrsh	r9, [sp, sl]

0000142c <interrupt_987>:
    142c:	e59f3000 	ldr	r3, [pc]	; 1434 <l1130>

00001430 <l1129>:
    1430:	ea000000 	b	1438 <l1131>

00001434 <l1130>:
    1434:	000fffd8 	.word	0x000fffd8

00001438 <l1131>:
    1438:	81438099 	swpbhi	r8, r9, [r3]

0000143c <l1132>:
    143c:	51a00aca 	asrpl	r0, sl, #21

00001440 <interrupt_860>:
    1440:	91dde0d3 	ldrsbls	lr, [sp, #3]

00001444 <interrupt_175>:
    1444:	e0cbca1e 	sbc	ip, fp, lr, lsl sl

00001448 <l1135>:
    1448:	00d92b60 	sbcseq	r2, r9, r0, ror #22

0000144c <l1136>:
    144c:	81dd10dd 	ldrsbhi	r1, [sp, #13]

00001450 <l1137>:
    1450:	a238581e 	eorsge	r5, r8, #1966080	; 0x1e0000

00001454 <l1138>:
    1454:	e0ce937a 	sbc	r9, lr, sl, ror r3

00001458 <l1139>:
    1458:	30e94006 	rsccc	r4, r9, r6

0000145c <l1140>:
    145c:	e3a0600c 	mov	r6, #12

00001460 <l1141>:
    1460:	d11d90f6 	ldrshle	r9, [sp, -r6]

00001464 <l1142>:
    1464:	e09ec004 	adds	ip, lr, r4

00001468 <l1143>:
    1468:	201a1004 	andscs	r1, sl, r4

0000146c <interrupt_879>:
    146c:	e3a0101e 	mov	r1, #30

00001470 <interrupt_87>:
    1470:	e75d1001 	ldrb	r1, [sp, -r1]

00001474 <l1146>:
    1474:	71e05316 	mvnvc	r5, r6, lsl r3

00001478 <l1147>:
    1478:	71e0eb77 	mvnvc	lr, r7, ror fp

0000147c <l1148>:
    147c:	519042c2 	orrspl	r4, r0, r2, asr #5

00001480 <l1149>:
    1480:	305a5d04 	subscc	r5, sl, r4, lsl #26

00001484 <interrupt_965>:
    1484:	e54d3019 	strb	r3, [sp, #-25]

00001488 <l1151>:
    1488:	ea000003 	b	149c <l1156>

0000148c <l1152>:
    148c:	e110006f 	tst	r0, pc, rrx

00001490 <interrupt_611>:
    1490:	e3d920f7 	bics	r2, r9, #247	; 0xf7

00001494 <l1154>:
    1494:	e0a04004 	adc	r4, r0, r4

00001498 <l1155>:
    1498:	e07cc279 	rsbs	ip, ip, r9, ror r2

0000149c <l1156>:
    149c:	61160931 	tstvs	r6, r1, lsr r9

000014a0 <l1157>:
    14a0:	50cf000b 	sbcpl	r0, pc, fp

000014a4 <interrupt_434>:
    14a4:	e59f3000 	ldr	r3, [pc]	; 14ac <l1160>

000014a8 <l1159>:
    14a8:	ea000000 	b	14b0 <l1161>

000014ac <l1160>:
    14ac:	000fffd0 	.word	0x000fffd0

000014b0 <l1161>:
    14b0:	e103b091 	swp	fp, r1, [r3]

000014b4 <l1162>:
    14b4:	e3a0800c 	mov	r8, #12

000014b8 <l1163>:
    14b8:	a11d80d8 	ldrsbge	r8, [sp, -r8]

000014bc <l1164>:
    14bc:	81b0e00e 	movshi	lr, lr

000014c0 <l1165>:
    14c0:	52d41a0f 	sbcspl	r1, r4, #61440	; 0xf000

000014c4 <l1166>:
    14c4:	e17b000e 	cmn	fp, lr

000014c8 <l1167>:
    14c8:	e1f0090c 	mvns	r0, ip, lsl #18

000014cc <l1168>:
    14cc:	e0b58b5c 	adcs	r8, r5, ip, asr fp

000014d0 <interrupt_535>:
    14d0:	e37c05f3 	cmn	ip, #1019215872	; 0x3cc00000

000014d4 <l1170>:
    14d4:	e0f22474 	rscs	r2, r2, r4, ror r4

000014d8 <l1171>:
    14d8:	ea000004 	b	14f0 <l1177>

000014dc <l1172>:
    14dc:	e280108e 	add	r1, r0, #142	; 0x8e

000014e0 <l1173>:
    14e0:	4006c25a 	andmi	ip, r6, sl, asr r2

000014e4 <l1174>:
    14e4:	e1e06d23 	mvn	r6, r3, lsr #26

000014e8 <l1175>:
    14e8:	d0de1fa8 	sbcsle	r1, lr, r8, lsr #31

000014ec <l1176>:
    14ec:	ea000000 	b	14f4 <interrupt_67>

000014f0 <l1177>:
    14f0:	eafffffa 	b	14e0 <l1173>

000014f4 <interrupt_67>:
    14f4:	e93d11fa 	ldmdb	sp!, {r1, r3, r4, r5, r6, r7, r8, ip}

000014f8 <l1179>:
    14f8:	e3a0600d 	mov	r6, #13

000014fc <l1180>:
    14fc:	e19da0d6 	ldrsb	sl, [sp, r6]

00001500 <l1181>:
    1500:	e59f0000 	ldr	r0, [pc]	; 1508 <interrupt_870>

00001504 <l1182>:
    1504:	ea000000 	b	150c <l1184>

00001508 <interrupt_870>:
    1508:	000fffb0 	.word	0x000fffb0

0000150c <l1184>:
    150c:	d100a091 	swple	sl, r1, [r0]

00001510 <interrupt_533>:
    1510:	e3a0400e 	mov	r4, #14

00001514 <interrupt_641>:
    1514:	d11d60b4 	ldrhle	r6, [sp, -r4]

00001518 <interrupt_919>:
    1518:	50d1200e 	sbcspl	r2, r1, lr

0000151c <l1188>:
    151c:	4078a919 	rsbsmi	sl, r8, r9, lsl r9

00001520 <l1189>:
    1520:	aa000004 	bge	1538 <interrupt_45>

00001524 <l1190>:
    1524:	e16f3f1c 	clz	r3, ip

00001528 <l1191>:
    1528:	a194eb1a 	orrsge	lr, r4, sl, lsl fp

0000152c <l1192>:
    152c:	41d0c264 	bicsmi	ip, r0, r4, ror #4

00001530 <interrupt_545>:
    1530:	e17f006f 	cmn	pc, pc, rrx

00001534 <l1194>:
    1534:	72ac418f 	adcvc	r4, ip, #-1073741789	; 0xc0000023

00001538 <interrupt_45>:
    1538:	e175062c 	cmn	r5, ip, lsr #12

0000153c <l1196>:
    153c:	e3f0bc95 	mvns	fp, #38144	; 0x9500

00001540 <l1197>:
    1540:	21790063 	cmncs	r9, r3, rrx

00001544 <interrupt_238>:
    1544:	e3a0c004 	mov	ip, #4

00001548 <l1199>:
    1548:	e75d400c 	ldrb	r4, [sp, -ip]

0000154c <l1200>:
    154c:	e1947512 	orrs	r7, r4, r2, lsl r5

00001550 <interrupt_948>:
    1550:	e59f3000 	ldr	r3, [pc]	; 1558 <l1203>

00001554 <l1202>:
    1554:	ea000000 	b	155c <l1204>

00001558 <l1203>:
    1558:	000fffb4 	.word	0x000fffb4

0000155c <l1204>:
    155c:	11430094 	swpbne	r0, r4, [r3]

00001560 <l1205>:
    1560:	e59fe000 	ldr	lr, [pc]	; 1568 <l1207>

00001564 <l1206>:
    1564:	ea000000 	b	156c <l1208>

00001568 <l1207>:
    1568:	000fffc0 	.word	0x000fffc0

0000156c <l1208>:
    156c:	d10e7091 	swple	r7, r1, [lr]

00001570 <interrupt_270>:
    1570:	e3a06030 	mov	r6, #48	; 0x30

00001574 <l1210>:
    1574:	a19db0b6 	ldrhge	fp, [sp, r6]

00001578 <l1211>:
    1578:	801f4dc2 	andshi	r4, pc, r2, asr #27

0000157c <l1212>:
    157c:	e3a0102f 	mov	r1, #47	; 0x2f

00001580 <l1213>:
    1580:	57dd0001 	ldrbpl	r0, [sp, r1]

00001584 <l1214>:
    1584:	e3a06027 	mov	r6, #39	; 0x27

00001588 <interrupt_378>:
    1588:	e19d40d6 	ldrsb	r4, [sp, r6]

0000158c <l1216>:
    158c:	5a000005 	bpl	15a8 <l1223>

00001590 <l1217>:
    1590:	e280109a 	add	r1, r0, #154	; 0x9a

00001594 <l1218>:
    1594:	e05f7003 	subs	r7, pc, r3

00001598 <interrupt_897>:
    1598:	e16f4f1e 	clz	r4, lr

0000159c <l1220>:
    159c:	e38b1b5a 	orr	r1, fp, #92160	; 0x16800

000015a0 <interrupt_377>:
    15a0:	d15f0004 	cmple	pc, r4

000015a4 <l1222>:
    15a4:	ea000000 	b	15ac <l1224>

000015a8 <l1223>:
    15a8:	eafffff9 	b	1594 <l1218>

000015ac <l1224>:
    15ac:	d1e0a06a 	mvnle	sl, sl, rrx

000015b0 <l1225>:
    15b0:	da000004 	ble	15c8 <l1231>

000015b4 <interrupt_795>:
    15b4:	e280104f 	add	r1, r0, #79	; 0x4f

000015b8 <l1227>:
    15b8:	c1b03463 	rorsgt	r3, r3, #8

000015bc <l1228>:
    15bc:	c3390eb2 	teqgt	r9, #2848	; 0xb20

000015c0 <l1229>:
    15c0:	616f5f19 	clzvs	r5, r9

000015c4 <interrupt_217>:
    15c4:	ea000000 	b	15cc <interrupt_712>

000015c8 <l1231>:
    15c8:	eafffffa 	b	15b8 <l1227>

000015cc <interrupt_712>:
    15cc:	e0803c29 	add	r3, r0, r9, lsr #24

000015d0 <l1233>:
    15d0:	e2502b16 	subs	r2, r0, #22528	; 0x5800

000015d4 <interrupt_918>:
    15d4:	e3a0800a 	mov	r8, #10

000015d8 <l1235>:
    15d8:	811dc0d8 	ldrsbhi	ip, [sp, -r8]

000015dc <interrupt_458>:
    15dc:	e2518e7a 	subs	r8, r1, #1952	; 0x7a0

000015e0 <interrupt_65>:
    15e0:	9093ca00 	addsls	ip, r3, r0, lsl #20

000015e4 <l1238>:
    15e4:	d074a001 	rsbsle	sl, r4, r1

000015e8 <l1239>:
    15e8:	e93d1061 	ldmdb	sp!, {r0, r5, r6, ip}

000015ec <interrupt_224>:
    15ec:	e0a5400e 	adc	r4, r5, lr

000015f0 <l1241>:
    15f0:	e1cd21b2 	strh	r2, [sp, #18]

000015f4 <interrupt_429>:
    15f4:	00548839 	subseq	r8, r4, r9, lsr r8

000015f8 <interrupt_790>:
    15f8:	e032800f 	eors	r8, r2, pc

000015fc <l1244>:
    15fc:	a1dd92fc 	ldrshge	r9, [sp, #44]	; 0x2c

00001600 <interrupt_93>:
    1600:	e9ade000 	stmib	sp!, {sp, lr, pc}

00001604 <l1246>:
    1604:	c54d300a 	strbgt	r3, [sp, #-10]

00001608 <l1247>:
    1608:	e16f5f19 	clz	r5, r9

0000160c <interrupt_520>:
    160c:	e59f3000 	ldr	r3, [pc]	; 1614 <l1250>

00001610 <l1249>:
    1610:	ea000000 	b	1618 <l1251>

00001614 <l1250>:
    1614:	000fffcc 	.word	0x000fffcc

00001618 <l1251>:
    1618:	11030095 	swpne	r0, r5, [r3]

0000161c <l1252>:
    161c:	e3a00008 	mov	r0, #8

00001620 <l1253>:
    1620:	575d4000 	ldrbpl	r4, [sp, -r0]

00001624 <l1254>:
    1624:	222c7cb9 	eorcs	r7, ip, #47360	; 0xb900

00001628 <l1255>:
    1628:	5a000006 	bpl	1648 <l1263>

0000162c <l1256>:
    162c:	e18f3000 	orr	r3, pc, r0

00001630 <l1257>:
    1630:	e04b1001 	sub	r1, fp, r1

00001634 <l1258>:
    1634:	916f1f16 	clzls	r1, r6

00001638 <interrupt_728>:
    1638:	e354007d 	cmp	r4, #125	; 0x7d

0000163c <interrupt_744>:
    163c:	e1e06002 	mvn	r6, r2

00001640 <l1261>:
    1640:	e018a007 	ands	sl, r8, r7

00001644 <l1262>:
    1644:	23dc6731 	bicscs	r6, ip, #12845056	; 0xc40000

00001648 <l1263>:
    1648:	024869f3 	subeq	r6, r8, #3981312	; 0x3cc000

0000164c <interrupt_497>:
    164c:	e19e7ae4 	orrs	r7, lr, r4, ror #21

00001650 <interrupt_375>:
    1650:	e1b0aee8 	rors	sl, r8, #29

00001654 <l1266>:
    1654:	e3a0100c 	mov	r1, #12

00001658 <l1267>:
    1658:	e19da0d1 	ldrsb	sl, [sp, r1]

0000165c <interrupt_295>:
    165c:	e3a0a032 	mov	sl, #50	; 0x32

00001660 <l1269>:
    1660:	e19d70da 	ldrsb	r7, [sp, sl]

00001664 <l1270>:
    1664:	ea000003 	b	1678 <l1275>

00001668 <l1271>:
    1668:	e2801040 	add	r1, r0, #64	; 0x40

0000166c <l1272>:
    166c:	e15f0843 	cmp	pc, r3, asr #16

00001670 <l1273>:
    1670:	e1310008 	teq	r1, r8

00001674 <interrupt_671>:
    1674:	ea000000 	b	167c <interrupt_467>

00001678 <l1275>:
    1678:	eafffffb 	b	166c <l1272>

0000167c <interrupt_467>:
    167c:	e1827184 	orr	r7, r2, r4, lsl #3

00001680 <l1277>:
    1680:	e1310a14 	teq	r1, r4, lsl sl

00001684 <l1278>:
    1684:	a5dde007 	ldrbge	lr, [sp, #7]

00001688 <l1279>:
    1688:	0affffff 	beq	168c <interrupt_625>

0000168c <interrupt_625>:
    168c:	70228004 	eorvc	r8, r2, r4

00001690 <l1281>:
    1690:	d1cd40b2 	strhle	r4, [sp, #2]

00001694 <l1282>:
    1694:	e051c06a 	subs	ip, r1, sl, rrx

00001698 <l1283>:
    1698:	e3b05b19 	movs	r5, #25600	; 0x6400

0000169c <interrupt_629>:
    169c:	e59fb000 	ldr	fp, [pc]	; 16a4 <l1286>

000016a0 <l1285>:
    16a0:	ea000000 	b	16a8 <l1287>

000016a4 <l1286>:
    16a4:	000fffc0 	.word	0x000fffc0

000016a8 <l1287>:
    16a8:	710b0094 	swpvc	r0, r4, [fp]

000016ac <interrupt_586>:
    16ac:	10e3b06b 	rscne	fp, r3, fp, rrx

000016b0 <l1289>:
    16b0:	0a000006 	beq	16d0 <l1297>

000016b4 <l1290>:
    16b4:	e28010f9 	add	r1, r0, #249	; 0xf9

000016b8 <interrupt_858>:
    16b8:	e1e007ee 	mvn	r0, lr, ror #15

000016bc <interrupt_758>:
    16bc:	539ab8e3 	orrspl	fp, sl, #14876672	; 0xe30000

000016c0 <l1293>:
    16c0:	82c5be4d 	sbchi	fp, r5, #1232	; 0x4d0

000016c4 <l1294>:
    16c4:	40c3706f 	sbcmi	r7, r3, pc, rrx

000016c8 <l1295>:
    16c8:	e1710005 	cmn	r1, r5

000016cc <l1296>:
    16cc:	ea000000 	b	16d4 <l1298>

000016d0 <l1297>:
    16d0:	eafffff8 	b	16b8 <interrupt_858>

000016d4 <l1298>:
    16d4:	e3a0301e 	mov	r3, #30

000016d8 <l1299>:
    16d8:	319d40d3 	ldrsbcc	r4, [sp, r3]

000016dc <l1300>:
    16dc:	e1f05460 	mvns	r5, r0, ror #8

000016e0 <l1301>:
    16e0:	e3d0bf66 	bics	fp, r0, #408	; 0x198

000016e4 <l1302>:
    16e4:	ea000007 	b	1708 <l1311>

000016e8 <interrupt_615>:
    16e8:	e28010e8 	add	r1, r0, #232	; 0xe8

000016ec <l1304>:
    16ec:	b0703849 	rsbslt	r3, r0, r9, asr #16

000016f0 <l1305>:
    16f0:	c0f10002 	rscsgt	r0, r1, r2

000016f4 <l1306>:
    16f4:	002c300b 	eoreq	r3, ip, fp

000016f8 <l1307>:
    16f8:	e0cb9060 	sbc	r9, fp, r0, rrx

000016fc <interrupt_159>:
    16fc:	b1878830 	orrlt	r8, r7, r0, lsr r8

00001700 <l1309>:
    1700:	e1f06063 	mvns	r6, r3, rrx

00001704 <l1310>:
    1704:	ea000000 	b	170c <l1312>

00001708 <l1311>:
    1708:	eafffff7 	b	16ec <l1304>

0000170c <l1312>:
    170c:	e3a0e004 	mov	lr, #4

00001710 <l1313>:
    1710:	819db0de 	ldrsbhi	fp, [sp, lr]

00001714 <interrupt_70>:
    1714:	e3a03004 	mov	r3, #4

00001718 <l1315>:
    1718:	e7ad1003 	str	r1, [sp, r3]!

0000171c <l1316>:
    171c:	e59f1000 	ldr	r1, [pc]	; 1724 <interrupt_621>

00001720 <interrupt_453>:
    1720:	ea000000 	b	1728 <l1319>

00001724 <interrupt_621>:
    1724:	000fffe0 	.word	0x000fffe0

00001728 <l1319>:
    1728:	71017090 	swpvc	r7, r0, [r1]

0000172c <l1320>:
    172c:	e2ba4401 	adcs	r4, sl, #16777216	; 0x1000000

00001730 <interrupt_209>:
    1730:	31a00fe2 	rorcc	r0, r2, #31

00001734 <interrupt_595>:
    1734:	21e01003 	mvncs	r1, r3

00001738 <l1323>:
    1738:	e59f9000 	ldr	r9, [pc]	; 1740 <l1325>

0000173c <l1324>:
    173c:	ea000000 	b	1744 <l1326>

00001740 <l1325>:
    1740:	000fffe4 	.word	0x000fffe4

00001744 <l1326>:
    1744:	e1090095 	swp	r0, r5, [r9]

00001748 <l1327>:
    1748:	e3a0300c 	mov	r3, #12

0000174c <l1328>:
    174c:	e7ade003 	str	lr, [sp, r3]!

00001750 <l1329>:
    1750:	d1730633 	cmnle	r3, r3, lsr r6

00001754 <l1330>:
    1754:	e3a0b003 	mov	fp, #3

00001758 <l1331>:
    1758:	e19d80db 	ldrsb	r8, [sp, fp]

0000175c <interrupt_312>:
    175c:	750df004 	strvc	pc, [sp, #-4]

00001760 <l1333>:
    1760:	e0c7700f 	sbc	r7, r7, pc

00001764 <l1334>:
    1764:	9a000007 	bls	1788 <l1343>

00001768 <l1335>:
    1768:	2048831b 	subcs	r8, r8, fp, lsl r3

0000176c <l1336>:
    176c:	c201a4ed 	andgt	sl, r1, #-318767104	; 0xed000000

00001770 <interrupt_388>:
    1770:	73d9a703 	bicsvc	sl, r9, #786432	; 0xc0000

00001774 <l1338>:
    1774:	e0f99007 	rscs	r9, r9, r7

00001778 <l1339>:
    1778:	d16faf14 	clzle	sl, r4

0000177c <l1340>:
    177c:	e1b0c007 	movs	ip, r7

00001780 <l1341>:
    1780:	e0979004 	adds	r9, r7, r4

00001784 <l1342>:
    1784:	e11b0516 	tst	fp, r6, lsl r5

00001788 <l1343>:
    1788:	a06a8e73 	rsbge	r8, sl, r3, ror lr

0000178c <l1344>:
    178c:	b0eb9061 	rsclt	r9, fp, r1, rrx

00001790 <l1345>:
    1790:	d1dd01d3 	ldrsble	r0, [sp, #19]

00001794 <interrupt_281>:
    1794:	7052e3a4 	subsvc	lr, r2, r4, lsr #7

00001798 <interrupt_509>:
    1798:	e1dd50f2 	ldrsh	r5, [sp, #2]

0000179c <l1348>:
    179c:	71130075 	tstvc	r3, r5, ror r0

000017a0 <interrupt_807>:
    17a0:	e0014006 	and	r4, r1, r6

000017a4 <l1350>:
    17a4:	b2b8e507 	adcslt	lr, r8, #29360128	; 0x1c00000

000017a8 <l1351>:
    17a8:	31dd12d5 	ldrsbcc	r1, [sp, #37]	; 0x25

000017ac <interrupt_367>:
    17ac:	3158006a 	cmpcc	r8, sl, rrx

000017b0 <l1353>:
    17b0:	e3a05006 	mov	r5, #6

000017b4 <l1354>:
    17b4:	219de0b5 	ldrhcs	lr, [sp, r5]

000017b8 <l1355>:
    17b8:	e59de018 	ldr	lr, [sp, #24]

000017bc <l1356>:
    17bc:	e334092a 	teq	r4, #688128	; 0xa8000

000017c0 <l1357>:
    17c0:	e16fcf13 	clz	ip, r3

000017c4 <interrupt_229>:
    17c4:	a05e9610 	subsge	r9, lr, r0, lsl r6

000017c8 <interrupt_280>:
    17c8:	a0c319e9 	sbcge	r1, r3, r9, ror #19

000017cc <interrupt_930>:
    17cc:	b135095b 	teqlt	r5, fp, asr r9

000017d0 <l1361>:
    17d0:	b05eab70 	subslt	sl, lr, r0, ror fp

000017d4 <l1362>:
    17d4:	31d01672 	bicscc	r1, r0, r2, ror r6

000017d8 <l1363>:
    17d8:	e3a0e00e 	mov	lr, #14

000017dc <interrupt_602>:
    17dc:	e18de0be 	strh	lr, [sp, lr]

000017e0 <l1365>:
    17e0:	ea000005 	b	17fc <l1372>

000017e4 <interrupt_613>:
    17e4:	e280105b 	add	r1, r0, #91	; 0x5b

000017e8 <l1367>:
    17e8:	11550552 	cmpne	r5, r2, asr r5

000017ec <l1368>:
    17ec:	81f08004 	mvnshi	r8, r4

000017f0 <l1369>:
    17f0:	c2f01736 	rscsgt	r1, r0, #14155776	; 0xd80000

000017f4 <l1370>:
    17f4:	d1190d82 	tstle	r9, r2, lsl #27

000017f8 <l1371>:
    17f8:	ea000000 	b	1800 <l1373>

000017fc <l1372>:
    17fc:	eafffff9 	b	17e8 <l1367>

00001800 <l1373>:
    1800:	e0352001 	eors	r2, r5, r1

00001804 <l1374>:
    1804:	53dbadf2 	bicspl	sl, fp, #15488	; 0x3c80

00001808 <l1375>:
    1808:	91180c5a 	tstls	r8, sl, asr ip

0000180c <l1376>:
    180c:	e3a01018 	mov	r1, #24

00001810 <l1377>:
    1810:	e7ad9001 	str	r9, [sp, r1]!

00001814 <l1378>:
    1814:	e1360c5c 	teq	r6, ip, asr ip

00001818 <interrupt_971>:
    1818:	e3a05008 	mov	r5, #8

0000181c <l1380>:
    181c:	718d80b5 	strhvc	r8, [sp, r5]

00001820 <l1381>:
    1820:	20292ea4 	eorcs	r2, r9, r4, lsr #29

00001824 <l1382>:
    1824:	d09fbf09 	addsle	fp, pc, r9, lsl #30

00001828 <interrupt_344>:
    1828:	93d61af9 	bicsls	r1, r6, #1019904	; 0xf9000

0000182c <l1384>:
    182c:	903535ac 	eorsls	r3, r5, ip, lsr #11

00001830 <l1385>:
    1830:	e17c0002 	cmn	ip, r2

00001834 <l1386>:
    1834:	c0e5ab10 	rscgt	sl, r5, r0, lsl fp

00001838 <l1387>:
    1838:	e194b003 	orrs	fp, r4, r3

0000183c <interrupt_990>:
    183c:	a003006e 	andge	r0, r3, lr, rrx

00001840 <l1389>:
    1840:	408e000c 	addmi	r0, lr, ip

00001844 <l1390>:
    1844:	e1e0cc87 	mvn	ip, r7, lsl #25

00001848 <l1391>:
    1848:	e41d9034 	ldr	r9, [sp], #-52	; 0x34

0000184c <l1392>:
    184c:	ea000003 	b	1860 <l1397>

00001850 <l1393>:
    1850:	11720564 	cmnne	r2, r4, ror #10

00001854 <l1394>:
    1854:	90984a6a 	addsls	r4, r8, sl, ror #20

00001858 <interrupt_323>:
    1858:	e16fef1a 	clz	lr, sl

0000185c <l1396>:
    185c:	51847001 	orrpl	r7, r4, r1

00001860 <l1397>:
    1860:	e1841a55 	orr	r1, r4, r5, asr sl

00001864 <l1398>:
    1864:	52afc939 	adcpl	ip, pc, #933888	; 0xe4000

00001868 <l1399>:
    1868:	e1b00619 	lsls	r0, r9, r6

0000186c <l1400>:
    186c:	e3530f82 	cmp	r3, #520	; 0x208

00001870 <l1401>:
    1870:	e1dde3be 	ldrh	lr, [sp, #62]	; 0x3e

00001874 <interrupt_13>:
    1874:	e11a083b 	tst	sl, fp, lsr r8

00001878 <interrupt_390>:
    1878:	904b0061 	subls	r0, fp, r1, rrx

0000187c <l1404>:
    187c:	e14d70b6 	strh	r7, [sp, #-6]

00001880 <l1405>:
    1880:	e1db900e 	bics	r9, fp, lr

00001884 <interrupt_939>:
    1884:	e3a02011 	mov	r2, #17

00001888 <l1407>:
    1888:	97dd5002 	ldrbls	r5, [sp, r2]

0000188c <l1408>:
    188c:	008e4003 	addeq	r4, lr, r3

00001890 <interrupt_193>:
    1890:	e59fe000 	ldr	lr, [pc]	; 1898 <l1411>

00001894 <interrupt_319>:
    1894:	ea000000 	b	189c <l1412>

00001898 <l1411>:
    1898:	000fffc0 	.word	0x000fffc0

0000189c <l1412>:
    189c:	e14ea097 	swpb	sl, r7, [lr]

000018a0 <l1413>:
    18a0:	2211561f 	andscs	r5, r1, #32505856	; 0x1f00000

000018a4 <interrupt_660>:
    18a4:	e59f1000 	ldr	r1, [pc]	; 18ac <l1416>

000018a8 <l1415>:
    18a8:	ea000000 	b	18b0 <l1417>

000018ac <l1416>:
    18ac:	000fffd8 	.word	0x000fffd8

000018b0 <l1417>:
    18b0:	e101c09b 	swp	ip, fp, [r1]

000018b4 <interrupt_309>:
    18b4:	e59f8000 	ldr	r8, [pc]	; 18bc <l1420>

000018b8 <l1419>:
    18b8:	ea000000 	b	18c0 <l1421>

000018bc <l1420>:
    18bc:	000fffb0 	.word	0x000fffb0

000018c0 <l1421>:
    18c0:	e108309b 	swp	r3, fp, [r8]

000018c4 <l1422>:
    18c4:	816faf10 	clzhi	sl, r0

000018c8 <l1423>:
    18c8:	e1c0a630 	bic	sl, r0, r0, lsr r6

000018cc <l1424>:
    18cc:	ea000006 	b	18ec <l1432>

000018d0 <l1425>:
    18d0:	00732008 	rsbseq	r2, r3, r8

000018d4 <l1426>:
    18d4:	437b0ed9 	cmnmi	fp, #3472	; 0xd90

000018d8 <interrupt_756>:
    18d8:	e3f0923a 	mvns	r9, #-1610612733	; 0xa0000003

000018dc <l1428>:
    18dc:	c0ec206a 	rscgt	r2, ip, sl, rrx

000018e0 <l1429>:
    18e0:	11b0e733 	lsrsne	lr, r3, r7

000018e4 <l1430>:
    18e4:	d03a8064 	eorsle	r8, sl, r4, rrx

000018e8 <l1431>:
    18e8:	e1a09a3b 	lsr	r9, fp, sl

000018ec <l1432>:
    18ec:	80518901 	subshi	r8, r1, r1, lsl #18

000018f0 <interrupt_763>:
    18f0:	e3a05036 	mov	r5, #54	; 0x36

000018f4 <l1434>:
    18f4:	119d50f5 	ldrshne	r5, [sp, r5]

000018f8 <l1435>:
    18f8:	81c07715 	bichi	r7, r0, r5, lsl r7

000018fc <l1436>:
    18fc:	d1dd33f8 	ldrshle	r3, [sp, #56]	; 0x38

00001900 <l1437>:
    1900:	e3e0b83d 	mvn	fp, #3997696	; 0x3d0000

00001904 <l1438>:
    1904:	e59f4000 	ldr	r4, [pc]	; 190c <l1440>

00001908 <l1439>:
    1908:	ea000000 	b	1910 <interrupt_507>

0000190c <l1440>:
    190c:	000fffe4 	.word	0x000fffe4

00001910 <interrupt_507>:
    1910:	e104b095 	swp	fp, r5, [r4]

00001914 <interrupt_628>:
    1914:	e0b5306a 	adcs	r3, r5, sl, rrx

00001918 <l1443>:
    1918:	e99d4a49 	ldmib	sp, {r0, r3, r6, r9, fp, lr}

0000191c <l1444>:
    191c:	e1dd12bc 	ldrh	r1, [sp, #44]	; 0x2c

00001920 <l1445>:
    1920:	e0119003 	ands	r9, r1, r3

00001924 <l1446>:
    1924:	e3a09020 	mov	r9, #32

00001928 <l1447>:
    1928:	e19de0b9 	ldrh	lr, [sp, r9]

0000192c <l1448>:
    192c:	e3a05014 	mov	r5, #20

00001930 <interrupt_14>:
    1930:	e79d1005 	ldr	r1, [sp, r5]

00001934 <l1450>:
    1934:	72a0803a 	adcvc	r8, r0, #58	; 0x3a

00001938 <l1451>:
    1938:	a1b09003 	movsge	r9, r3

0000193c <l1452>:
    193c:	b007a06f 	andlt	sl, r7, pc, rrx

00001940 <interrupt_685>:
    1940:	e1120517 	tst	r2, r7, lsl r5

00001944 <interrupt_777>:
    1944:	e5dd7027 	ldrb	r7, [sp, #39]	; 0x27

00001948 <l1455>:
    1948:	e1a00000 	nop			; (mov r0, r0)

0000194c <l1456>:
    194c:	d0c9c06a 	sbcle	ip, r9, sl, rrx

00001950 <l1457>:
    1950:	e3a0301e 	mov	r3, #30

00001954 <l1458>:
    1954:	e19d50d3 	ldrsb	r5, [sp, r3]

00001958 <interrupt_688>:
    1958:	b18441a8 	orrlt	r4, r4, r8, lsr #3

0000195c <l1460>:
    195c:	e59fb000 	ldr	fp, [pc]	; 1964 <l1462>

00001960 <l1461>:
    1960:	ea000000 	b	1968 <l1463>

00001964 <l1462>:
    1964:	000fffbc 	.word	0x000fffbc

00001968 <l1463>:
    1968:	210b9093 	swpcs	r9, r3, [fp]

0000196c <l1464>:
    196c:	61a07003 	movvs	r7, r3

00001970 <interrupt_38>:
    1970:	7a000008 	bvc	1998 <l1475>

00001974 <l1466>:
    1974:	429cb9e6 	addsmi	fp, ip, #3768320	; 0x398000

00001978 <interrupt_360>:
    1978:	800e4006 	andhi	r4, lr, r6

0000197c <l1468>:
    197c:	6077200e 	rsbsvs	r2, r7, lr

00001980 <l1469>:
    1980:	a15401ec 	cmpge	r4, ip, ror #3

00001984 <l1470>:
    1984:	404b7a44 	submi	r7, fp, r4, asr #20

00001988 <l1471>:
    1988:	e2fe3547 	rscs	r3, lr, #297795584	; 0x11c00000

0000198c <l1472>:
    198c:	e0c94009 	sbc	r4, r9, r9

00001990 <l1473>:
    1990:	e3e07f91 	mvn	r7, #580	; 0x244

00001994 <interrupt_333>:
    1994:	b21e7316 	andslt	r7, lr, #1476395008	; 0x58000000

00001998 <l1475>:
    1998:	017a0002 	cmneq	sl, r2

0000199c <l1476>:
    199c:	13e08839 	mvnne	r8, #3735552	; 0x390000

000019a0 <l1477>:
    19a0:	55cd803e 	strbpl	r8, [sp, #62]	; 0x3e

000019a4 <l1478>:
    19a4:	e1a00000 	nop			; (mov r0, r0)

000019a8 <l1479>:
    19a8:	e1dda3b4 	ldrh	sl, [sp, #52]	; 0x34

000019ac <l1480>:
    19ac:	61a06f85 	lslvs	r6, r5, #31

000019b0 <interrupt_842>:
    19b0:	e3a04035 	mov	r4, #53	; 0x35

000019b4 <l1482>:
    19b4:	27dd8004 	ldrbcs	r8, [sp, r4]

000019b8 <l1483>:
    19b8:	e3a0c030 	mov	ip, #48	; 0x30

000019bc <l1484>:
    19bc:	e18de0bc 	strh	lr, [sp, ip]

000019c0 <l1485>:
    19c0:	e1740977 	cmn	r4, r7, ror r9

000019c4 <l1486>:
    19c4:	81b06c1b 	lslshi	r6, fp, ip

000019c8 <l1487>:
    19c8:	a0582443 	subsge	r2, r8, r3, asr #8

000019cc <l1488>:
    19cc:	ea000007 	b	19f0 <l1497>

000019d0 <l1489>:
    19d0:	e1c2300b 	bic	r3, r2, fp

000019d4 <l1490>:
    19d4:	c0d85526 	sbcsgt	r5, r8, r6, lsr #10

000019d8 <l1491>:
    19d8:	e1b04069 	rrxs	r4, r9

000019dc <l1492>:
    19dc:	e040e068 	sub	lr, r0, r8, rrx

000019e0 <l1493>:
    19e0:	62729084 	rsbsvs	r9, r2, #132	; 0x84

000019e4 <l1494>:
    19e4:	516f1f1e 	clzpl	r1, lr

000019e8 <l1495>:
    19e8:	c33f0b2f 	teqgt	pc, #48128	; 0xbc00

000019ec <l1496>:
    19ec:	e1110203 	tst	r1, r3, lsl #4

000019f0 <l1497>:
    19f0:	6072b001 	rsbsvs	fp, r2, r1

000019f4 <l1498>:
    19f4:	ea000004 	b	1a0c <l1504>

000019f8 <l1499>:
    19f8:	e28010d3 	add	r1, r0, #211	; 0xd3

000019fc <interrupt_412>:
    19fc:	e1a0837e 	ror	r8, lr, r3

00001a00 <interrupt_0>:
    1a00:	50fb7003 	rscspl	r7, fp, r3

00001a04 <l1502>:
    1a04:	e352055f 	cmp	r2, #398458880	; 0x17c00000

00001a08 <interrupt_265>:
    1a08:	ea000000 	b	1a10 <l1505>

00001a0c <l1504>:
    1a0c:	eafffffa 	b	19fc <interrupt_412>

00001a10 <l1505>:
    1a10:	e59f5000 	ldr	r5, [pc]	; 1a18 <l1507>

00001a14 <l1506>:
    1a14:	ea000000 	b	1a1c <l1508>

00001a18 <l1507>:
    1a18:	000fffb4 	.word	0x000fffb4

00001a1c <l1508>:
    1a1c:	e1054093 	swp	r4, r3, [r5]

00001a20 <l1509>:
    1a20:	e0b0bd47 	adcs	fp, r0, r7, asr #26

00001a24 <l1510>:
    1a24:	e3a04004 	mov	r4, #4

00001a28 <l1511>:
    1a28:	e71d4004 	ldr	r4, [sp, -r4]

00001a2c <l1512>:
    1a2c:	e1500a0e 	cmp	r0, lr, lsl #20

00001a30 <interrupt_726>:
    1a30:	e15db0d8 	ldrsb	fp, [sp, #-8]

00001a34 <l1514>:
    1a34:	716f6f1e 	clzvc	r6, lr

00001a38 <interrupt_581>:
    1a38:	458d3038 	strmi	r3, [sp, #56]	; 0x38

00001a3c <l1516>:
    1a3c:	e8ad0044 	stmia	sp!, {r2, r6}

00001a40 <interrupt_100>:
    1a40:	e59f5000 	ldr	r5, [pc]	; 1a48 <l1519>

00001a44 <l1518>:
    1a44:	ea000000 	b	1a4c <l1520>

00001a48 <l1519>:
    1a48:	000fffd0 	.word	0x000fffd0

00001a4c <l1520>:
    1a4c:	e105409b 	swp	r4, fp, [r5]

00001a50 <l1521>:
    1a50:	e3160725 	tst	r6, #9699328	; 0x940000

00001a54 <interrupt_771>:
    1a54:	204fc002 	subcs	ip, pc, r2

00001a58 <interrupt_552>:
    1a58:	6055b3ee 	subsvs	fp, r5, lr, ror #7

00001a5c <l1524>:
    1a5c:	01720001 	cmneq	r2, r1

00001a60 <l1525>:
    1a60:	e3a0400c 	mov	r4, #12

00001a64 <l1526>:
    1a64:	e68d6004 	str	r6, [sp], r4

00001a68 <l1527>:
    1a68:	e3a0c018 	mov	ip, #24

00001a6c <l1528>:
    1a6c:	e19de0dc 	ldrsb	lr, [sp, ip]

00001a70 <interrupt_126>:
    1a70:	d1720178 	cmnle	r2, r8, ror r1

00001a74 <l1530>:
    1a74:	e1110577 	tst	r1, r7, ror r5

00001a78 <interrupt_440>:
    1a78:	a1dd41db 	ldrsbge	r4, [sp, #27]

00001a7c <l1532>:
    1a7c:	e0da206e 	sbcs	r2, sl, lr, rrx

00001a80 <l1533>:
    1a80:	11f09854 	mvnsne	r9, r4, asr r8

00001a84 <l1534>:
    1a84:	e59f1000 	ldr	r1, [pc]	; 1a8c <l1536>

00001a88 <l1535>:
    1a88:	ea000000 	b	1a90 <l1537>

00001a8c <l1536>:
    1a8c:	000fffc0 	.word	0x000fffc0

00001a90 <l1537>:
    1a90:	a101e09e 	swpge	lr, lr, [r1]

00001a94 <l1538>:
    1a94:	015b0001 	cmpeq	fp, r1

00001a98 <interrupt_524>:
    1a98:	e16f0f13 	clz	r0, r3

00001a9c <interrupt_933>:
    1a9c:	e59fa000 	ldr	sl, [pc]	; 1aa4 <l1542>

00001aa0 <l1541>:
    1aa0:	ea000000 	b	1aa8 <l1543>

00001aa4 <l1542>:
    1aa4:	000fffb8 	.word	0x000fffb8

00001aa8 <l1543>:
    1aa8:	614a9098 	swpbvs	r9, r8, [sl]

00001aac <l1544>:
    1aac:	3affffff 	bcc	1ab0 <l1545>

00001ab0 <l1545>:
    1ab0:	50445a87 	subpl	r5, r4, r7, lsl #21

00001ab4 <l1546>:
    1ab4:	e19e600f 	orrs	r6, lr, pc

00001ab8 <l1547>:
    1ab8:	e3a03028 	mov	r3, #40	; 0x28

00001abc <l1548>:
    1abc:	a19d90d3 	ldrsbge	r9, [sp, r3]

00001ac0 <l1549>:
    1ac0:	e59f3000 	ldr	r3, [pc]	; 1ac8 <interrupt_605>

00001ac4 <l1550>:
    1ac4:	ea000000 	b	1acc <l1552>

00001ac8 <interrupt_605>:
    1ac8:	000fffb4 	.word	0x000fffb4

00001acc <l1552>:
    1acc:	6103509c 	swpvs	r5, ip, [r3]

00001ad0 <l1553>:
    1ad0:	e59f1000 	ldr	r1, [pc]	; 1ad8 <l1555>

00001ad4 <l1554>:
    1ad4:	ea000000 	b	1adc <interrupt_766>

00001ad8 <l1555>:
    1ad8:	000fffc8 	.word	0x000fffc8

00001adc <interrupt_766>:
    1adc:	e1014093 	swp	r4, r3, [r1]

00001ae0 <l1557>:
    1ae0:	e1c0406b 	bic	r4, r0, fp, rrx

00001ae4 <l1558>:
    1ae4:	61c77a3b 	bicvs	r7, r7, fp, lsr sl

00001ae8 <l1559>:
    1ae8:	50542064 	subspl	r2, r4, r4, rrx

00001aec <l1560>:
    1aec:	e31606f2 	tst	r6, #253755392	; 0xf200000

00001af0 <l1561>:
    1af0:	e019e9aa 	ands	lr, r9, sl, lsr #19

00001af4 <l1562>:
    1af4:	e80d2708 	stmda	sp, {r3, r8, r9, sl, sp}

00001af8 <l1563>:
    1af8:	e3a01004 	mov	r1, #4

00001afc <l1564>:
    1afc:	e7adf001 	str	pc, [sp, r1]!

00001b00 <l1565>:
    1b00:	618c0e72 	orrvs	r0, ip, r2, ror lr

00001b04 <l1566>:
    1b04:	e03eb069 	eors	fp, lr, r9, rrx

00001b08 <l1567>:
    1b08:	b041c002 	sublt	ip, r1, r2

00001b0c <l1568>:
    1b0c:	ea000006 	b	1b2c <l1576>

00001b10 <l1569>:
    1b10:	e28010a3 	add	r1, r0, #163	; 0xa3

00001b14 <l1570>:
    1b14:	e117000f 	tst	r7, pc

00001b18 <l1571>:
    1b18:	931a0d83 	tstls	sl, #8384	; 0x20c0

00001b1c <l1572>:
    1b1c:	e0e06739 	rsc	r6, r0, r9, lsr r7

00001b20 <interrupt_991>:
    1b20:	e1c26d28 	bic	r6, r2, r8, lsr #26

00001b24 <l1574>:
    1b24:	c1360427 	teqgt	r6, r7, lsr #8

00001b28 <l1575>:
    1b28:	ea000000 	b	1b30 <interrupt_716>

00001b2c <l1576>:
    1b2c:	eafffff8 	b	1b14 <l1570>

00001b30 <interrupt_716>:
    1b30:	716f2f1a 	clzvc	r2, sl

00001b34 <l1578>:
    1b34:	c16f2f12 	clzgt	r2, r2

00001b38 <l1579>:
    1b38:	e0436000 	sub	r6, r3, r0

00001b3c <l1580>:
    1b3c:	ea000006 	b	1b5c <l1588>

00001b40 <interrupt_754>:
    1b40:	011c0084 	tsteq	ip, r4, lsl #1

00001b44 <l1582>:
    1b44:	91c7a000 	bicls	sl, r7, r0

00001b48 <l1583>:
    1b48:	20c78710 	sbccs	r8, r7, r0, lsl r7

00001b4c <l1584>:
    1b4c:	404e2e00 	submi	r2, lr, r0, lsl #28

00001b50 <l1585>:
    1b50:	e2b5b3c1 	adcs	fp, r5, #67108867	; 0x4000003

00001b54 <l1586>:
    1b54:	c3720e2a 	cmngt	r2, #672	; 0x2a0

00001b58 <l1587>:
    1b58:	9008ec37 	andls	lr, r8, r7, lsr ip

00001b5c <l1588>:
    1b5c:	70e52065 	rscvc	r2, r5, r5, rrx

00001b60 <l1589>:
    1b60:	d11b000f 	tstle	fp, pc

00001b64 <l1590>:
    1b64:	e3a0a004 	mov	sl, #4

00001b68 <l1591>:
    1b68:	e7bd500a 	ldr	r5, [sp, sl]!

00001b6c <interrupt_506>:
    1b6c:	e19eb00a 	orrs	fp, lr, sl

00001b70 <l1593>:
    1b70:	91e0cc8e 	mvnls	ip, lr, lsl #25

00001b74 <l1594>:
    1b74:	e1310ce1 	teq	r1, r1, ror #25

00001b78 <l1595>:
    1b78:	e3a0200e 	mov	r2, #14

00001b7c <l1596>:
    1b7c:	519d20f2 	ldrshpl	r2, [sp, r2]

00001b80 <l1597>:
    1b80:	e0590ee6 	subs	r0, r9, r6, ror #29

00001b84 <interrupt_828>:
    1b84:	e1c2800a 	bic	r8, r2, sl

00001b88 <l1599>:
    1b88:	525bec0d 	subspl	lr, fp, #3328	; 0xd00

00001b8c <l1600>:
    1b8c:	e0e18006 	rsc	r8, r1, r6

00001b90 <interrupt_883>:
    1b90:	e9ad2000 	stmib	sp!, {sp}

00001b94 <interrupt_749>:
    1b94:	e1a00000 	nop			; (mov r0, r0)

00001b98 <l1603>:
    1b98:	e217133a 	ands	r1, r7, #-402653184	; 0xe8000000

00001b9c <l1604>:
    1b9c:	680d0089 	stmdavs	sp, {r0, r3, r7}

00001ba0 <l1605>:
    1ba0:	a0d08860 	sbcsge	r8, r0, r0, ror #16

00001ba4 <l1606>:
    1ba4:	e1d41a53 	bics	r1, r4, r3, asr sl

00001ba8 <l1607>:
    1ba8:	10fb600e 	rscsne	r6, fp, lr

00001bac <l1608>:
    1bac:	01958002 	orrseq	r8, r5, r2

00001bb0 <l1609>:
    1bb0:	e1b09da8 	lsrs	r9, r8, #27

00001bb4 <l1610>:
    1bb4:	e003e000 	and	lr, r3, r0

00001bb8 <l1611>:
    1bb8:	ba000004 	blt	1bd0 <interrupt_742>

00001bbc <l1612>:
    1bbc:	b0fe100b 	rscslt	r1, lr, fp

00001bc0 <l1613>:
    1bc0:	e2c832d7 	sbc	r3, r8, #1879048205	; 0x7000000d

00001bc4 <l1614>:
    1bc4:	e1360557 	teq	r6, r7, asr r5

00001bc8 <l1615>:
    1bc8:	41360357 	teqmi	r6, r7, asr r3

00001bcc <interrupt_890>:
    1bcc:	e0994006 	adds	r4, r9, r6

00001bd0 <interrupt_742>:
    1bd0:	916f8f1a 	clzls	r8, sl

00001bd4 <l1618>:
    1bd4:	e98d4400 	stmib	sp, {sl, lr}

00001bd8 <l1619>:
    1bd8:	8a000002 	bhi	1be8 <l1623>

00001bdc <l1620>:
    1bdc:	e280108c 	add	r1, r0, #140	; 0x8c

00001be0 <interrupt_675>:
    1be0:	e19a400b 	orrs	r4, sl, fp

00001be4 <l1622>:
    1be4:	ea000000 	b	1bec <l1624>

00001be8 <l1623>:
    1be8:	eafffffc 	b	1be0 <interrupt_675>

00001bec <l1624>:
    1bec:	e59f4000 	ldr	r4, [pc]	; 1bf4 <l1626>

00001bf0 <l1625>:
    1bf0:	ea000000 	b	1bf8 <l1627>

00001bf4 <l1626>:
    1bf4:	000fffcc 	.word	0x000fffcc

00001bf8 <l1627>:
    1bf8:	e104b096 	swp	fp, r6, [r4]

00001bfc <l1628>:
    1bfc:	e1b08471 	rors	r8, r1, r4

00001c00 <l1629>:
    1c00:	31e09001 	mvncc	r9, r1

00001c04 <interrupt_938>:
    1c04:	b18ba009 	orrlt	sl, fp, r9

00001c08 <l1631>:
    1c08:	e1a00000 	nop			; (mov r0, r0)

00001c0c <l1632>:
    1c0c:	e3a0c018 	mov	ip, #24

00001c10 <interrupt_881>:
    1c10:	911d60bc 	ldrhls	r6, [sp, -ip]

00001c14 <l1634>:
    1c14:	e16f0f18 	clz	r0, r8

00001c18 <interrupt_537>:
    1c18:	e1cde0b8 	strh	lr, [sp, #8]

00001c1c <l1636>:
    1c1c:	000e9987 	andeq	r9, lr, r7, lsl #19

00001c20 <l1637>:
    1c20:	e1b0e068 	rrxs	lr, r8

00001c24 <l1638>:
    1c24:	404cc076 	submi	ip, ip, r6, ror r0

00001c28 <l1639>:
    1c28:	91110006 	tstls	r1, r6

00001c2c <l1640>:
    1c2c:	e59f8000 	ldr	r8, [pc]	; 1c34 <interrupt_77>

00001c30 <l1641>:
    1c30:	ea000000 	b	1c38 <l1643>

00001c34 <interrupt_77>:
    1c34:	000fffbc 	.word	0x000fffbc

00001c38 <l1643>:
    1c38:	e148b093 	swpb	fp, r3, [r8]

00001c3c <interrupt_22>:
    1c3c:	b2f19baf 	rscslt	r9, r1, #179200	; 0x2bc00

00001c40 <l1645>:
    1c40:	007b3066 	rsbseq	r3, fp, r6, rrx

00001c44 <interrupt_491>:
    1c44:	71b0e217 	lslsvc	lr, r7, r2

00001c48 <l1647>:
    1c48:	e3a0c00c 	mov	ip, #12

00001c4c <l1648>:
    1c4c:	c11d20bc 	ldrhgt	r2, [sp, -ip]

00001c50 <l1649>:
    1c50:	c3a0bebf 	movgt	fp, #3056	; 0xbf0

00001c54 <l1650>:
    1c54:	e009900e 	and	r9, r9, lr

00001c58 <l1651>:
    1c58:	e1720068 	cmn	r2, r8, rrx

00001c5c <l1652>:
    1c5c:	e5ad6010 	str	r6, [sp, #16]!

00001c60 <interrupt_227>:
    1c60:	e3a00008 	mov	r0, #8

00001c64 <l1654>:
    1c64:	e19d40b0 	ldrh	r4, [sp, r0]

00001c68 <l1655>:
    1c68:	815e0017 	cmphi	lr, r7, lsl r0

00001c6c <l1656>:
    1c6c:	e93d5b7f 	ldmdb	sp!, {r0, r1, r2, r3, r4, r5, r6, r8, r9, fp, ip, lr}

00001c70 <l1657>:
    1c70:	41ddb0dd 	ldrsbmi	fp, [sp, #13]

00001c74 <interrupt_399>:
    1c74:	e1a00000 	nop			; (mov r0, r0)

00001c78 <l1659>:
    1c78:	e1f0e238 	mvns	lr, r8, lsr r2

00001c7c <l1660>:
    1c7c:	71c15724 	bicvc	r5, r1, r4, lsr #14

00001c80 <l1661>:
    1c80:	e48d102c 	str	r1, [sp], #44	; 0x2c

00001c84 <l1662>:
    1c84:	aa000007 	bge	1ca8 <l1671>

00001c88 <l1663>:
    1c88:	e2801048 	add	r1, r0, #72	; 0x48

00001c8c <l1664>:
    1c8c:	50646f2f 	rsbpl	r6, r4, pc, lsr #30

00001c90 <l1665>:
    1c90:	e3d0c61b 	bics	ip, r0, #28311552	; 0x1b00000

00001c94 <l1666>:
    1c94:	90e867a8 	rscls	r6, r8, r8, lsr #15

00001c98 <l1667>:
    1c98:	01350006 	teqeq	r5, r6

00001c9c <l1668>:
    1c9c:	30933d45 	addscc	r3, r3, r5, asr #26

00001ca0 <l1669>:
    1ca0:	b13c0003 	teqlt	ip, r3

00001ca4 <l1670>:
    1ca4:	ea000000 	b	1cac <l1672>

00001ca8 <l1671>:
    1ca8:	eafffff7 	b	1c8c <l1664>

00001cac <l1672>:
    1cac:	e1f09001 	mvns	r9, r1

00001cb0 <l1673>:
    1cb0:	988d5340 	stmls	sp, {r6, r8, r9, ip, lr}

00001cb4 <l1674>:
    1cb4:	e1770ec6 	cmn	r7, r6, asr #29

00001cb8 <l1675>:
    1cb8:	e3e0e47d 	mvn	lr, #2097152000	; 0x7d000000

00001cbc <l1676>:
    1cbc:	e3a0e010 	mov	lr, #16

00001cc0 <l1677>:
    1cc0:	e19d30fe 	ldrsh	r3, [sp, lr]

00001cc4 <interrupt_692>:
    1cc4:	d0152819 	andsle	r2, r5, r9, lsl r8

00001cc8 <l1679>:
    1cc8:	e3a02008 	mov	r2, #8

00001ccc <interrupt_123>:
    1ccc:	e73db002 	ldr	fp, [sp, -r2]!

00001cd0 <interrupt_927>:
    1cd0:	31120c51 	tstcc	r2, r1, asr ip

00001cd4 <interrupt_964>:
    1cd4:	ea000002 	b	1ce4 <interrupt_815>

00001cd8 <l1683>:
    1cd8:	e28010dd 	add	r1, r0, #221	; 0xdd

00001cdc <l1684>:
    1cdc:	e3770109 	cmn	r7, #1073741826	; 0x40000002

00001ce0 <l1685>:
    1ce0:	ea000000 	b	1ce8 <interrupt_841>

00001ce4 <interrupt_815>:
    1ce4:	eafffffc 	b	1cdc <l1684>

00001ce8 <interrupt_841>:
    1ce8:	e05c2b05 	subs	r2, ip, r5, lsl #22

00001cec <l1688>:
    1cec:	e15e0c55 	cmp	lr, r5, asr ip

00001cf0 <l1689>:
    1cf0:	e3a0100b 	mov	r1, #11

00001cf4 <l1690>:
    1cf4:	e75d1001 	ldrb	r1, [sp, -r1]

00001cf8 <l1691>:
    1cf8:	a02b2068 	eorge	r2, fp, r8, rrx

00001cfc <l1692>:
    1cfc:	0257e56b 	subseq	lr, r7, #448790528	; 0x1ac00000

00001d00 <l1693>:
    1d00:	e3a09823 	mov	r9, #2293760	; 0x230000

00001d04 <l1694>:
    1d04:	61310003 	teqvs	r1, r3

00001d08 <interrupt_806>:
    1d08:	6018700c 	andsvs	r7, r8, ip

00001d0c <interrupt_50>:
    1d0c:	c09b6002 	addsgt	r6, fp, r2

00001d10 <l1697>:
    1d10:	e1dd71fa 	ldrsh	r7, [sp, #26]

00001d14 <l1698>:
    1d14:	ea000002 	b	1d24 <l1702>

00001d18 <l1699>:
    1d18:	e280108b 	add	r1, r0, #139	; 0x8b

00001d1c <l1700>:
    1d1c:	e047a003 	sub	sl, r7, r3

00001d20 <l1701>:
    1d20:	ea000000 	b	1d28 <l1703>

00001d24 <l1702>:
    1d24:	eafffffc 	b	1d1c <l1700>

00001d28 <l1703>:
    1d28:	90ab2352 	adcls	r2, fp, r2, asr r3

00001d2c <l1704>:
    1d2c:	51e02759 	mvnpl	r2, r9, asr r7

00001d30 <l1705>:
    1d30:	91e06068 	mvnls	r6, r8, rrx

00001d34 <l1706>:
    1d34:	a017a00a 	andsge	sl, r7, sl

00001d38 <l1707>:
    1d38:	ea000003 	b	1d4c <l1712>

00001d3c <l1708>:
    1d3c:	e2801075 	add	r1, r0, #117	; 0x75

00001d40 <l1709>:
    1d40:	e063ca32 	rsb	ip, r3, r2, lsr sl

00001d44 <l1710>:
    1d44:	017006c6 	cmneq	r0, r6, asr #13

00001d48 <interrupt_587>:
    1d48:	ea000000 	b	1d50 <l1713>

00001d4c <l1712>:
    1d4c:	eafffffb 	b	1d40 <l1709>

00001d50 <l1713>:
    1d50:	e59f2000 	ldr	r2, [pc]	; 1d58 <l1715>

00001d54 <l1714>:
    1d54:	ea000000 	b	1d5c <interrupt_135>

00001d58 <l1715>:
    1d58:	000fffd4 	.word	0x000fffd4

00001d5c <interrupt_135>:
    1d5c:	d102909b 	swple	r9, fp, [r2]

00001d60 <l1717>:
    1d60:	b16fef18 	clzlt	lr, r8

00001d64 <l1718>:
    1d64:	80496002 	subhi	r6, r9, r2

00001d68 <l1719>:
    1d68:	e3a09010 	mov	r9, #16

00001d6c <l1720>:
    1d6c:	411d60f9 	ldrshmi	r6, [sp, -r9]

00001d70 <l1721>:
    1d70:	4067400c 	rsbmi	r4, r7, ip

00001d74 <interrupt_871>:
    1d74:	81e0b064 	mvnhi	fp, r4, rrx

00001d78 <l1723>:
    1d78:	ea000006 	b	1d98 <interrupt_113>

00001d7c <l1724>:
    1d7c:	e28010e8 	add	r1, r0, #232	; 0xe8

00001d80 <interrupt_339>:
    1d80:	62f6bc85 	rscsvs	fp, r6, #34048	; 0x8500

00001d84 <interrupt_658>:
    1d84:	809c1003 	addshi	r1, ip, r3

00001d88 <l1727>:
    1d88:	e1b0c007 	movs	ip, r7

00001d8c <l1728>:
    1d8c:	41b05b3e 	lsrsmi	r5, lr, fp

00001d90 <l1729>:
    1d90:	e1c2e003 	bic	lr, r2, r3

00001d94 <interrupt_889>:
    1d94:	ea000000 	b	1d9c <l1732>

00001d98 <interrupt_113>:
    1d98:	eafffff8 	b	1d80 <interrupt_339>

00001d9c <l1732>:
    1d9c:	e3a04027 	mov	r4, #39	; 0x27

00001da0 <l1733>:
    1da0:	e75d6004 	ldrb	r6, [sp, -r4]

00001da4 <l1734>:
    1da4:	ca000005 	bgt	1dc0 <l1741>

00001da8 <l1735>:
    1da8:	e2801020 	add	r1, r0, #32

00001dac <l1736>:
    1dac:	100f64c1 	andne	r6, pc, r1, asr #9

00001db0 <interrupt_340>:
    1db0:	c134000b 	teqgt	r4, fp

00001db4 <l1738>:
    1db4:	e3740435 	cmn	r4, #889192448	; 0x35000000

00001db8 <l1739>:
    1db8:	01340068 	teqeq	r4, r8, rrx

00001dbc <l1740>:
    1dbc:	ea000000 	b	1dc4 <l1742>

00001dc0 <l1741>:
    1dc0:	eafffff9 	b	1dac <l1736>

00001dc4 <l1742>:
    1dc4:	c15d22b6 	ldrhgt	r2, [sp, #-38]	; 0xffffffda

00001dc8 <l1743>:
    1dc8:	e93d5c00 	ldmdb	sp!, {sl, fp, ip, lr}

00001dcc <l1744>:
    1dcc:	e33b0737 	teq	fp, #14417920	; 0xdc0000

00001dd0 <l1745>:
    1dd0:	e1cd50b6 	strh	r5, [sp, #6]

00001dd4 <l1746>:
    1dd4:	055da013 	ldrbeq	sl, [sp, #-19]

00001dd8 <interrupt_268>:
    1dd8:	e27669af 	rsbs	r6, r6, #2867200	; 0x2bc000

00001ddc <l1748>:
    1ddc:	30f47005 	rscscc	r7, r4, r5

00001de0 <l1749>:
    1de0:	82715cf7 	rsbshi	r5, r1, #63232	; 0xf700

00001de4 <interrupt_79>:
    1de4:	20e21807 	rsccs	r1, r2, r7, lsl #16

00001de8 <interrupt_138>:
    1de8:	b0bf59e3 	adcslt	r5, pc, r3, ror #19

00001dec <l1752>:
    1dec:	e3510795 	cmp	r1, #39059456	; 0x2540000

00001df0 <l1753>:
    1df0:	e1a0900f 	mov	r9, pc

00001df4 <l1754>:
    1df4:	e16faf1c 	clz	sl, ip

00001df8 <l1755>:
    1df8:	007a1e80 	rsbseq	r1, sl, r0, lsl #29

00001dfc <interrupt_690>:
    1dfc:	03700efe 	cmneq	r0, #4064	; 0xfe0

00001e00 <l1757>:
    1e00:	6179081a 	cmnvs	r9, sl, lsl r8

00001e04 <l1758>:
    1e04:	605a1060 	subsvs	r1, sl, r0, rrx

00001e08 <l1759>:
    1e08:	689d5b41 	ldmvs	sp, {r0, r6, r8, r9, fp, ip, lr}

00001e0c <interrupt_342>:
    1e0c:	113a0064 	teqne	sl, r4, rrx

00001e10 <l1761>:
    1e10:	61b04a5e 	asrsvs	r4, lr, sl

00001e14 <l1762>:
    1e14:	900f0005 	andls	r0, pc, r5

00001e18 <l1763>:
    1e18:	e3720e3d 	cmn	r2, #976	; 0x3d0

00001e1c <l1764>:
    1e1c:	e92d2000 	stmfd	sp!, {sp}

00001e20 <interrupt_129>:
    1e20:	41dd02ba 	ldrhmi	r0, [sp, #42]	; 0x2a

00001e24 <l1766>:
    1e24:	2a000004 	bcs	1e3c <l1772>

00001e28 <l1767>:
    1e28:	e2801088 	add	r1, r0, #136	; 0x88

00001e2c <l1768>:
    1e2c:	e02ac00f 	eor	ip, sl, pc

00001e30 <l1769>:
    1e30:	633b0d6d 	teqvs	fp, #6976	; 0x1b40

00001e34 <interrupt_78>:
    1e34:	a11f0001 	tstge	pc, r1

00001e38 <interrupt_923>:
    1e38:	ea000000 	b	1e40 <interrupt_254>

00001e3c <l1772>:
    1e3c:	eafffffa 	b	1e2c <l1768>

00001e40 <interrupt_254>:
    1e40:	71b06b19 	lslsvc	r6, r9, fp

00001e44 <l1774>:
    1e44:	c047c008 	subgt	ip, r7, r8

00001e48 <interrupt_484>:
    1e48:	e5dd1018 	ldrb	r1, [sp, #24]

00001e4c <l1776>:
    1e4c:	b14db0b2 	strhlt	fp, [sp, #-2]

00001e50 <interrupt_768>:
    1e50:	e0557004 	subs	r7, r5, r4

00001e54 <l1778>:
    1e54:	e59f7000 	ldr	r7, [pc]	; 1e5c <l1780>

00001e58 <l1779>:
    1e58:	ea000000 	b	1e60 <l1781>

00001e5c <l1780>:
    1e5c:	000fffb8 	.word	0x000fffb8

00001e60 <l1781>:
    1e60:	b1473091 	swpblt	r3, r1, [r7]

00001e64 <interrupt_724>:
    1e64:	816f7f14 	clzhi	r7, r4

00001e68 <l1783>:
    1e68:	e1dd80f6 	ldrsh	r8, [sp, #6]

00001e6c <l1784>:
    1e6c:	41cd31b0 	strhmi	r3, [sp, #16]

00001e70 <interrupt_447>:
    1e70:	e1c25006 	bic	r5, r2, r6

00001e74 <l1786>:
    1e74:	e59f2000 	ldr	r2, [pc]	; 1e7c <interrupt_901>

00001e78 <interrupt_356>:
    1e78:	ea000000 	b	1e80 <l1789>

00001e7c <interrupt_901>:
    1e7c:	000fffd4 	.word	0x000fffd4

00001e80 <l1789>:
    1e80:	81025095 	swphi	r5, r5, [r2]

00001e84 <interrupt_529>:
    1e84:	b3590dfb 	cmplt	r9, #16064	; 0x3ec0

00001e88 <interrupt_494>:
    1e88:	e59fe000 	ldr	lr, [pc]	; 1e90 <interrupt_765>

00001e8c <interrupt_751>:
    1e8c:	ea000000 	b	1e94 <l1794>

00001e90 <interrupt_765>:
    1e90:	000fffbc 	.word	0x000fffbc

00001e94 <l1794>:
    1e94:	610e809b 	swpvs	r8, fp, [lr]

00001e98 <interrupt_86>:
    1e98:	05cd3020 	strbeq	r3, [sp, #32]

00001e9c <l1796>:
    1e9c:	e5bdc010 	ldr	ip, [sp, #16]!

00001ea0 <l1797>:
    1ea0:	e3a0e001 	mov	lr, #1

00001ea4 <l1798>:
    1ea4:	919d50de 	ldrsbls	r5, [sp, lr]

00001ea8 <l1799>:
    1ea8:	e3a01001 	mov	r1, #1

00001eac <l1800>:
    1eac:	e74d0001 	strb	r0, [sp, -r1]

00001eb0 <interrupt_469>:
    1eb0:	8352089a 	cmphi	r2, #10092544	; 0x9a0000

00001eb4 <l1802>:
    1eb4:	e0c34008 	sbc	r4, r3, r8

00001eb8 <interrupt_532>:
    1eb8:	e35c0b3a 	cmp	ip, #59392	; 0xe800

00001ebc <l1804>:
    1ebc:	b3790347 	cmnlt	r9, #469762049	; 0x1c000001

00001ec0 <interrupt_538>:
    1ec0:	431e0755 	tstmi	lr, #22282240	; 0x1540000

00001ec4 <interrupt_121>:
    1ec4:	e59fc000 	ldr	ip, [pc]	; 1ecc <l1808>

00001ec8 <l1807>:
    1ec8:	ea000000 	b	1ed0 <l1809>

00001ecc <l1808>:
    1ecc:	000fffdc 	.word	0x000fffdc

00001ed0 <l1809>:
    1ed0:	614c2093 	swpbvs	r2, r3, [ip]

00001ed4 <l1810>:
    1ed4:	e59fe000 	ldr	lr, [pc]	; 1edc <l1812>

00001ed8 <l1811>:
    1ed8:	ea000000 	b	1ee0 <interrupt_576>

00001edc <l1812>:
    1edc:	000fffbc 	.word	0x000fffbc

00001ee0 <interrupt_576>:
    1ee0:	e10e809b 	swp	r8, fp, [lr]

00001ee4 <l1814>:
    1ee4:	e083100e 	add	r1, r3, lr

00001ee8 <interrupt_252>:
    1ee8:	a15dc0fa 	ldrshge	ip, [sp, #-10]

00001eec <l1816>:
    1eec:	2197a182 	orrscs	sl, r7, r2, lsl #3

00001ef0 <interrupt_729>:
    1ef0:	e1e0a870 	mvn	sl, r0, ror r8

00001ef4 <l1818>:
    1ef4:	c1e0a069 	mvngt	sl, r9, rrx

00001ef8 <interrupt_125>:
    1ef8:	10691007 	rsbne	r1, r9, r7

00001efc <interrupt_73>:
    1efc:	e92d8840 	push	{r6, fp, pc}

00001f00 <l1821>:
    1f00:	e16f1f15 	clz	r1, r5

00001f04 <l1822>:
    1f04:	c1e0cd6a 	mvngt	ip, sl, ror #26

00001f08 <l1823>:
    1f08:	e2980d19 	adds	r0, r8, #1600	; 0x640

00001f0c <l1824>:
    1f0c:	12ecc81e 	rscne	ip, ip, #1966080	; 0x1e0000

00001f10 <l1825>:
    1f10:	e1a00000 	nop			; (mov r0, r0)

00001f14 <l1826>:
    1f14:	e0f80d08 	rscs	r0, r8, r8, lsl #26

00001f18 <interrupt_479>:
    1f18:	125e2b15 	subsne	r2, lr, #21504	; 0x5400

00001f1c <l1828>:
    1f1c:	e19ee3a3 	orrs	lr, lr, r3, lsr #7

00001f20 <interrupt_407>:
    1f20:	e04f9006 	sub	r9, pc, r6

00001f24 <l1830>:
    1f24:	41a0b00c 	movmi	fp, ip

00001f28 <l1831>:
    1f28:	e3a0e018 	mov	lr, #24

00001f2c <l1832>:
    1f2c:	b10d30be 	strhlt	r3, [sp, -lr]

00001f30 <l1833>:
    1f30:	e3a04011 	mov	r4, #17

00001f34 <l1834>:
    1f34:	019d70d4 	ldrsbeq	r7, [sp, r4]

00001f38 <l1835>:
    1f38:	33b0353d 	movscc	r3, #255852544	; 0xf400000

00001f3c <l1836>:
    1f3c:	ea000006 	b	1f5c <l1844>

00001f40 <l1837>:
    1f40:	e280100d 	add	r1, r0, #13

00001f44 <l1838>:
    1f44:	e15e0065 	cmp	lr, r5, rrx

00001f48 <l1839>:
    1f48:	9119086a 	tstls	r9, sl, ror #16

00001f4c <l1840>:
    1f4c:	435c0d42 	cmpmi	ip, #4224	; 0x1080

00001f50 <l1841>:
    1f50:	e1a0084f 	asr	r0, pc, #16

00001f54 <l1842>:
    1f54:	e0a51000 	adc	r1, r5, r0

00001f58 <l1843>:
    1f58:	ea000000 	b	1f60 <l1845>

00001f5c <l1844>:
    1f5c:	eafffff8 	b	1f44 <l1838>

00001f60 <l1845>:
    1f60:	70a6e009 	adcvc	lr, r6, r9

00001f64 <l1846>:
    1f64:	e0821571 	add	r1, r2, r1, ror r5

00001f68 <l1847>:
    1f68:	b1e03917 	mvnlt	r3, r7, lsl r9

00001f6c <l1848>:
    1f6c:	e9ad13fb 	stmib	sp!, {r0, r1, r3, r4, r5, r6, r7, r8, r9, ip}

00001f70 <interrupt_949>:
    1f70:	e0a36b80 	adc	r6, r3, r0, lsl #23

00001f74 <interrupt_884>:
    1f74:	e04f000f 	sub	r0, pc, pc

00001f78 <l1851>:
    1f78:	52a95752 	adcpl	r5, r9, #21495808	; 0x1480000

00001f7c <l1852>:
    1f7c:	e40d702c 	str	r7, [sp], #-44	; 0x2c

00001f80 <l1853>:
    1f80:	e9ad01d8 	stmib	sp!, {r3, r4, r6, r7, r8}

00001f84 <l1854>:
    1f84:	85ddc001 	ldrbhi	ip, [sp, #1]

00001f88 <l1855>:
    1f88:	e1140ce5 	tst	r4, r5, ror #25

00001f8c <l1856>:
    1f8c:	e59f6000 	ldr	r6, [pc]	; 1f94 <l1858>

00001f90 <l1857>:
    1f90:	ea000000 	b	1f98 <l1859>

00001f94 <l1858>:
    1f94:	000fffd8 	.word	0x000fffd8

00001f98 <l1859>:
    1f98:	e106709e 	swp	r7, lr, [r6]

00001f9c <l1860>:
    1f9c:	e1a00000 	nop			; (mov r0, r0)

00001fa0 <l1861>:
    1fa0:	e1a00000 	nop			; (mov r0, r0)

00001fa4 <l1862>:
    1fa4:	61f09067 	mvnsvs	r9, r7, rrx

00001fa8 <l1863>:
    1fa8:	e8bd4c3a 	pop	{r1, r3, r4, r5, sl, fp, lr}

00001fac <interrupt_505>:
    1fac:	c0d16785 	sbcsgt	r6, r1, r5, lsl #15

00001fb0 <l1865>:
    1fb0:	e1a00000 	nop			; (mov r0, r0)

00001fb4 <l1866>:
    1fb4:	615d82d7 	ldrsbvs	r8, [sp, #-39]	; 0xffffffd9

00001fb8 <l1867>:
    1fb8:	e005b00f 	and	fp, r5, pc

00001fbc <l1868>:
    1fbc:	ea000004 	b	1fd4 <l1874>

00001fc0 <interrupt_820>:
    1fc0:	e2801035 	add	r1, r0, #53	; 0x35

00001fc4 <l1870>:
    1fc4:	90e9000a 	rscls	r0, r9, sl

00001fc8 <l1871>:
    1fc8:	a13b0000 	teqge	fp, r0

00001fcc <interrupt_579>:
    1fcc:	302f100b 	eorcc	r1, pc, fp

00001fd0 <l1873>:
    1fd0:	ea000000 	b	1fd8 <l1875>

00001fd4 <l1874>:
    1fd4:	eafffffa 	b	1fc4 <l1870>

00001fd8 <l1875>:
    1fd8:	e3a03020 	mov	r3, #32

00001fdc <interrupt_797>:
    1fdc:	e11d90f3 	ldrsh	r9, [sp, -r3]

00001fe0 <l1877>:
    1fe0:	e1b00000 	movs	r0, r0

00001fe4 <l1878>:
    1fe4:	e52de044 	str	lr, [sp, #-68]!	; 0x44

00001fe8 <l1879>:
    1fe8:	e98d4d95 	stmib	sp, {r0, r2, r4, r7, r8, sl, fp, lr}

00001fec <l1880>:
    1fec:	e11c0a34 	tst	ip, r4, lsr sl

00001ff0 <l1881>:
    1ff0:	e1f0900f 	mvns	r9, pc

00001ff4 <interrupt_510>:
    1ff4:	e1a00000 	nop			; (mov r0, r0)

00001ff8 <l1883>:
    1ff8:	816f2f10 	clzhi	r2, r0

00001ffc <l1884>:
    1ffc:	ea000005 	b	2018 <l1891>

00002000 <interrupt_282>:
    2000:	e0e25063 	rsc	r5, r2, r3, rrx

00002004 <interrupt_501>:
    2004:	10564002 	subsne	r4, r6, r2

00002008 <l1887>:
    2008:	d29964b9 	addsle	r6, r9, #-1191182336	; 0xb9000000

0000200c <l1888>:
    200c:	e0f71141 	rscs	r1, r7, r1, asr #2

00002010 <l1889>:
    2010:	e13b01cf 	teq	fp, pc, asr #3

00002014 <l1890>:
    2014:	213f000a 	teqcs	pc, sl

00002018 <l1891>:
    2018:	a15207e5 	cmpge	r2, r5, ror #15

0000201c <l1892>:
    201c:	e59f7000 	ldr	r7, [pc]	; 2024 <l1894>

00002020 <l1893>:
    2020:	ea000000 	b	2028 <l1895>

00002024 <l1894>:
    2024:	000fffa8 	.word	0x000fffa8

00002028 <l1895>:
    2028:	a1470099 	swpbge	r0, r9, [r7]

0000202c <l1896>:
    202c:	e0ef106a 	rsc	r1, pc, sl, rrx

00002030 <l1897>:
    2030:	e59f9000 	ldr	r9, [pc]	; 2038 <l1899>

00002034 <l1898>:
    2034:	ea000000 	b	203c <l1900>

00002038 <l1899>:
    2038:	000fffb4 	.word	0x000fffb4

0000203c <l1900>:
    203c:	4109609b 	swpmi	r6, fp, [r9]

00002040 <l1901>:
    2040:	e3c6143d 	bic	r1, r6, #1023410176	; 0x3d000000

00002044 <l1902>:
    2044:	e3a0903e 	mov	r9, #62	; 0x3e

00002048 <l1903>:
    2048:	e7cde009 	strb	lr, [sp, r9]

0000204c <l1904>:
    204c:	9a000007 	bls	2070 <l1913>

00002050 <l1905>:
    2050:	e2801087 	add	r1, r0, #135	; 0x87

00002054 <interrupt_368>:
    2054:	e16f4f1a 	clz	r4, sl

00002058 <interrupt_245>:
    2058:	e1e0644c 	mvn	r6, ip, asr #8

0000205c <l1908>:
    205c:	e19524e5 	orrs	r2, r5, r5, ror #9

00002060 <l1909>:
    2060:	c1b0813b 	lsrsgt	r8, fp, r1

00002064 <l1910>:
    2064:	c0ee7005 	rscgt	r7, lr, r5

00002068 <interrupt_294>:
    2068:	004ae687 	subeq	lr, sl, r7, lsl #13

0000206c <interrupt_908>:
    206c:	ea000000 	b	2074 <l1914>

00002070 <l1913>:
    2070:	eafffff7 	b	2054 <interrupt_368>

00002074 <l1914>:
    2074:	ea000002 	b	2084 <l1918>

00002078 <l1915>:
    2078:	c1310247 	teqgt	r1, r7, asr #4

0000207c <interrupt_19>:
    207c:	e25a5dfe 	subs	r5, sl, #16256	; 0x3f80

00002080 <interrupt_935>:
    2080:	11710050 	cmnne	r1, r0, asr r0

00002084 <l1918>:
    2084:	e2f376f7 	rscs	r7, r3, #258998272	; 0xf700000

00002088 <l1919>:
    2088:	e59fa000 	ldr	sl, [pc]	; 2090 <l1921>

0000208c <l1920>:
    208c:	ea000000 	b	2094 <interrupt_921>

00002090 <l1921>:
    2090:	000fffb0 	.word	0x000fffb0

00002094 <interrupt_921>:
    2094:	314ac099 	swpbcc	ip, r9, [sl]

00002098 <l1923>:
    2098:	e88dca5a 	stm	sp, {r1, r3, r4, r6, r9, fp, lr, pc}

0000209c <l1924>:
    209c:	d0c8c912 	sbcle	ip, r8, r2, lsl r9

000020a0 <l1925>:
    20a0:	95dd1028 	ldrbls	r1, [sp, #40]	; 0x28

000020a4 <interrupt_418>:
    20a4:	009ea006 	addseq	sl, lr, r6

000020a8 <l1927>:
    20a8:	e1d7600b 	bics	r6, r7, fp

000020ac <l1928>:
    20ac:	309a35a2 	addscc	r3, sl, r2, lsr #11

000020b0 <interrupt_559>:
    20b0:	6247a91e 	subvs	sl, r7, #491520	; 0x78000

000020b4 <l1930>:
    20b4:	e1e00072 	mvn	r0, r2, ror r0

000020b8 <l1931>:
    20b8:	41500008 	cmpmi	r0, r8

000020bc <l1932>:
    20bc:	63330919 	teqvs	r3, #409600	; 0x64000

000020c0 <l1933>:
    20c0:	a1cda2ba 	strhge	sl, [sp, #42]	; 0x2a

000020c4 <l1934>:
    20c4:	e051500f 	subs	r5, r1, pc

000020c8 <interrupt_464>:
    20c8:	e0409813 	sub	r9, r0, r3, lsl r8

000020cc <interrupt_518>:
    20cc:	e1dd52b6 	ldrh	r5, [sp, #38]	; 0x26

000020d0 <l1937>:
    20d0:	e5bdc004 	ldr	ip, [sp, #4]!

000020d4 <interrupt_371>:
    20d4:	91da7008 	bicsls	r7, sl, r8

000020d8 <l1939>:
    20d8:	c1370007 	teqgt	r7, r7

000020dc <interrupt_242>:
    20dc:	e229b429 	eor	fp, r9, #687865856	; 0x29000000

000020e0 <l1941>:
    20e0:	e074ac32 	rsbs	sl, r4, r2, lsr ip

000020e4 <l1942>:
    20e4:	e3a03034 	mov	r3, #52	; 0x34

000020e8 <l1943>:
    20e8:	e19d10b3 	ldrh	r1, [sp, r3]

000020ec <interrupt_171>:
    20ec:	e0631007 	rsb	r1, r3, r7

000020f0 <l1945>:
    20f0:	e3a0b03e 	mov	fp, #62	; 0x3e

000020f4 <l1946>:
    20f4:	818d10bb 	strhhi	r1, [sp, fp]

000020f8 <interrupt_437>:
    20f8:	e3a0e025 	mov	lr, #37	; 0x25

000020fc <l1948>:
    20fc:	e19d80de 	ldrsb	r8, [sp, lr]

00002100 <l1949>:
    2100:	e05c3277 	subs	r3, ip, r7, ror r2

00002104 <l1950>:
    2104:	ea000008 	b	212c <l1960>

00002108 <l1951>:
    2108:	e05c9001 	subs	r9, ip, r1

0000210c <l1952>:
    210c:	c1da19c0 	bicsgt	r1, sl, r0, asr #19

00002110 <l1953>:
    2110:	e02e1065 	eor	r1, lr, r5, rrx

00002114 <interrupt_913>:
    2114:	a096ec75 	addsge	lr, r6, r5, ror ip

00002118 <l1955>:
    2118:	e25acccd 	subs	ip, sl, #52480	; 0xcd00

0000211c <interrupt_151>:
    211c:	e18e6067 	orr	r6, lr, r7, rrx

00002120 <l1957>:
    2120:	92c6900f 	sbcls	r9, r6, #15

00002124 <l1958>:
    2124:	a1e03007 	mvnge	r3, r7

00002128 <l1959>:
    2128:	e1390006 	teq	r9, r6

0000212c <l1960>:
    212c:	80523001 	subshi	r3, r2, r1

00002130 <interrupt_240>:
    2130:	81dda1d0 	ldrsbhi	sl, [sp, #16]

00002134 <l1962>:
    2134:	137e0d92 	cmnne	lr, #9344	; 0x2480

00002138 <interrupt_46>:
    2138:	e59f5000 	ldr	r5, [pc]	; 2140 <l1965>

0000213c <l1964>:
    213c:	ea000000 	b	2144 <interrupt_945>

00002140 <l1965>:
    2140:	000fffdc 	.word	0x000fffdc

00002144 <interrupt_945>:
    2144:	e1453097 	swpb	r3, r7, [r5]

00002148 <interrupt_583>:
    2148:	e3160107 	tst	r6, #-1073741823	; 0xc0000001

0000214c <l1968>:
    214c:	019ae06e 	orrseq	lr, sl, lr, rrx

00002150 <interrupt_986>:
    2150:	b16f1f1c 	clzlt	r1, ip

00002154 <l1970>:
    2154:	e17a006a 	cmn	sl, sl, rrx

00002158 <l1971>:
    2158:	e0a26063 	adc	r6, r2, r3, rrx

0000215c <l1972>:
    215c:	e3a0500a 	mov	r5, #10

00002160 <interrupt_325>:
    2160:	67dd7005 	ldrbvs	r7, [sp, r5]

00002164 <interrupt_968>:
    2164:	b080500a 	addlt	r5, r0, sl

00002168 <l1975>:
    2168:	91b05d67 	rorsls	r5, r7, #26

0000216c <l1976>:
    216c:	0098900c 	addseq	r9, r8, ip

00002170 <l1977>:
    2170:	e5ad6014 	str	r6, [sp, #20]!

00002174 <l1978>:
    2174:	e3a00002 	mov	r0, #2

00002178 <interrupt_817>:
    2178:	e75d5000 	ldrb	r5, [sp, -r0]

0000217c <l1980>:
    217c:	ea000002 	b	218c <l1984>

00002180 <interrupt_261>:
    2180:	11510a2c 	cmpne	r1, ip, lsr #20

00002184 <l1982>:
    2184:	92ee6305 	rscls	r6, lr, #335544320	; 0x14000000

00002188 <l1983>:
    2188:	e0993007 	adds	r3, r9, r7

0000218c <l1984>:
    218c:	217a063e 	cmncs	sl, lr, lsr r6

00002190 <l1985>:
    2190:	e83d0002 	ldmda	sp!, {r1}

00002194 <l1986>:
    2194:	5053a86f 	subspl	sl, r3, pc, ror #16

00002198 <l1987>:
    2198:	506248eb 	rsbpl	r4, r2, fp, ror #17

0000219c <l1988>:
    219c:	c1923006 	orrsgt	r3, r2, r6

000021a0 <interrupt_617>:
    21a0:	e1a0300f 	mov	r3, pc

000021a4 <interrupt_668>:
    21a4:	816fef17 	clzhi	lr, r7

000021a8 <interrupt_900>:
    21a8:	50a45e7a 	adcpl	r5, r4, sl, ror lr

000021ac <l1992>:
    21ac:	916fbf19 	clzls	fp, r9

000021b0 <l1993>:
    21b0:	e49d8028 	ldr	r8, [sp], #40	; 0x28

000021b4 <l1994>:
    21b4:	914d91bc 	strhls	r9, [sp, #-28]	; 0xffffffe4

000021b8 <l1995>:
    21b8:	e134064b 	teq	r4, fp, asr #12

000021bc <l1996>:
    21bc:	e3390966 	teq	r9, #1671168	; 0x198000

000021c0 <l1997>:
    21c0:	816f8f17 	clzhi	r8, r7

000021c4 <l1998>:
    21c4:	e3a0e00c 	mov	lr, #12

000021c8 <l1999>:
    21c8:	e61d400e 	ldr	r4, [sp], -lr

000021cc <interrupt_149>:
    21cc:	e9bd0523 	ldmib	sp!, {r0, r1, r5, r8, sl}

000021d0 <interrupt_866>:
    21d0:	21b0300e 	movscs	r3, lr

000021d4 <l2002>:
    21d4:	e59f4000 	ldr	r4, [pc]	; 21dc <interrupt_984>

000021d8 <l2003>:
    21d8:	ea000000 	b	21e0 <l2005>

000021dc <interrupt_984>:
    21dc:	000fffa4 	.word	0x000fffa4

000021e0 <l2005>:
    21e0:	e144309e 	swpb	r3, lr, [r4]

000021e4 <l2006>:
    21e4:	b1170252 	tstlt	r7, r2, asr r2

000021e8 <l2007>:
    21e8:	e1a00000 	nop			; (mov r0, r0)

000021ec <l2008>:
    21ec:	023a2b3a 	eorseq	r2, sl, #59392	; 0xe800

000021f0 <l2009>:
    21f0:	e16fbf1c 	clz	fp, ip

000021f4 <l2010>:
    21f4:	280dffea 	stmdacs	sp, {r1, r3, r5, r6, r7, r8, r9, sl, fp, ip, sp, lr, pc}

000021f8 <l2011>:
    21f8:	e1cd00b0 	strh	r0, [sp]

000021fc <l2012>:
    21fc:	533c092f 	teqpl	ip, #770048	; 0xbc000

00002200 <l2013>:
    2200:	b2e10a0d 	rsclt	r0, r1, #53248	; 0xd000

00002204 <l2014>:
    2204:	e3a0302f 	mov	r3, #47	; 0x2f

00002208 <l2015>:
    2208:	b74d4003 	strblt	r4, [sp, -r3]

0000220c <interrupt_546>:
    220c:	e3a0100c 	mov	r1, #12

00002210 <l2017>:
    2210:	e72d4001 	str	r4, [sp, -r1]!

00002214 <l2018>:
    2214:	e3f0af63 	mvns	sl, #396	; 0x18c

00002218 <interrupt_30>:
    2218:	e3a03028 	mov	r3, #40	; 0x28

0000221c <l2020>:
    221c:	e75d4003 	ldrb	r4, [sp, -r3]

00002220 <interrupt_131>:
    2220:	e3a0600c 	mov	r6, #12

00002224 <l2022>:
    2224:	e69d1006 	ldr	r1, [sp], r6

00002228 <l2023>:
    2228:	e3a08040 	mov	r8, #64	; 0x40

0000222c <l2024>:
    222c:	e70d1008 	str	r1, [sp, -r8]

00002230 <interrupt_90>:
    2230:	3116006b 	tstcc	r6, fp, rrx

00002234 <interrupt_68>:
    2234:	c15de0b6 	ldrhgt	lr, [sp, #-6]

00002238 <l2027>:
    2238:	e53d4008 	ldr	r4, [sp, #-8]!

0000223c <l2028>:
    223c:	e3590dff 	cmp	r9, #16320	; 0x3fc0

00002240 <l2029>:
    2240:	e1e0271b 	mvn	r2, fp, lsl r7

00002244 <interrupt_214>:
    2244:	e1a0653e 	lsr	r6, lr, r5

00002248 <l2031>:
    2248:	72b31d72 	adcsvc	r1, r3, #7296	; 0x1c80

0000224c <l2032>:
    224c:	e059000b 	subs	r0, r9, fp

00002250 <l2033>:
    2250:	d19f7008 	orrsle	r7, pc, r8

00002254 <l2034>:
    2254:	115d00fe 	ldrshne	r0, [sp, #-14]

00002258 <l2035>:
    2258:	e59f5000 	ldr	r5, [pc]	; 2260 <l2037>

0000225c <l2036>:
    225c:	ea000000 	b	2264 <l2038>

00002260 <l2037>:
    2260:	000fffd4 	.word	0x000fffd4

00002264 <l2038>:
    2264:	01456093 	swpbeq	r6, r3, [r5]

00002268 <l2039>:
    2268:	75ddc00b 	ldrbvc	ip, [sp, #11]

0000226c <l2040>:
    226c:	e3a0e008 	mov	lr, #8

00002270 <l2041>:
    2270:	e7bd100e 	ldr	r1, [sp, lr]!

00002274 <l2042>:
    2274:	e3a0701e 	mov	r7, #30

00002278 <l2043>:
    2278:	e10d00b7 	strh	r0, [sp, -r7]

0000227c <l2044>:
    227c:	e59fa000 	ldr	sl, [pc]	; 2284 <l2046>

00002280 <l2045>:
    2280:	ea000000 	b	2288 <l2047>

00002284 <l2046>:
    2284:	000fffc0 	.word	0x000fffc0

00002288 <l2047>:
    2288:	310a9096 	swpcc	r9, r6, [sl]

0000228c <l2048>:
    228c:	e59f4000 	ldr	r4, [pc]	; 2294 <l2050>

00002290 <l2049>:
    2290:	ea000000 	b	2298 <l2051>

00002294 <l2050>:
    2294:	000fffcc 	.word	0x000fffcc

00002298 <l2051>:
    2298:	81046090 	swphi	r6, r0, [r4]

0000229c <l2052>:
    229c:	e3a0000a 	mov	r0, #10

000022a0 <l2053>:
    22a0:	211da0f0 	ldrshcs	sl, [sp, -r0]

000022a4 <l2054>:
    22a4:	c02be007 	eorgt	lr, fp, r7

000022a8 <l2055>:
    22a8:	e1770067 	cmn	r7, r7, rrx

000022ac <l2056>:
    22ac:	a0725f26 	rsbsge	r5, r2, r6, lsr #30

000022b0 <l2057>:
    22b0:	e028b010 	eor	fp, r8, r0, lsl r0

000022b4 <l2058>:
    22b4:	011e000c 	tsteq	lr, ip

000022b8 <l2059>:
    22b8:	e3a03002 	mov	r3, #2

000022bc <interrupt_594>:
    22bc:	e10d40b3 	strh	r4, [sp, -r3]

000022c0 <l2061>:
    22c0:	e3a08201 	mov	r8, #268435456	; 0x10000000

000022c4 <l2062>:
    22c4:	e59f0000 	ldr	r0, [pc]	; 22cc <l2064>

000022c8 <l2063>:
    22c8:	ea000000 	b	22d0 <l2065>

000022cc <l2064>:
    22cc:	000fffc0 	.word	0x000fffc0

000022d0 <l2065>:
    22d0:	e100e099 	swp	lr, r9, [r0]

000022d4 <l2066>:
    22d4:	703353c2 	eorsvc	r5, r3, r2, asr #7

000022d8 <l2067>:
    22d8:	950de034 	strls	lr, [sp, #-52]	; 0x34

000022dc <l2068>:
    22dc:	e59f2000 	ldr	r2, [pc]	; 22e4 <l2070>

000022e0 <interrupt_54>:
    22e0:	ea000000 	b	22e8 <interrupt_624>

000022e4 <l2070>:
    22e4:	000fffa0 	.word	0x000fffa0

000022e8 <interrupt_624>:
    22e8:	b1424094 	swpblt	r4, r4, [r2]

000022ec <l2072>:
    22ec:	904e5061 	subls	r5, lr, r1, rrx

000022f0 <interrupt_753>:
    22f0:	b1e0b005 	mvnlt	fp, r5

000022f4 <interrupt_598>:
    22f4:	e358091e 	cmp	r8, #491520	; 0x78000

000022f8 <l2075>:
    22f8:	409fb36c 	addsmi	fp, pc, ip, ror #6

000022fc <interrupt_169>:
    22fc:	815dc3dc 	ldrsbhi	ip, [sp, #-60]	; 0xffffffc4

00002300 <l2077>:
    2300:	515d70fe 	ldrshpl	r7, [sp, #-14]

00002304 <interrupt_687>:
    2304:	e3a0b029 	mov	fp, #41	; 0x29

00002308 <interrupt_206>:
    2308:	075d400b 	ldrbeq	r4, [sp, -fp]

0000230c <l2080>:
    230c:	5043e00e 	subpl	lr, r3, lr

00002310 <l2081>:
    2310:	e0325420 	eors	r5, r2, r0, lsr #8

00002314 <l2082>:
    2314:	480df6af 	stmdami	sp, {r0, r1, r2, r3, r5, r7, r9, sl, ip, sp, lr, pc}

00002318 <interrupt_361>:
    2318:	a3730403 	cmnge	r3, #50331648	; 0x3000000

0000231c <interrupt_608>:
    231c:	416f1f1e 	clzmi	r1, lr

00002320 <interrupt_534>:
    2320:	e1840ea7 	orr	r0, r4, r7, lsr #29

00002324 <l2086>:
    2324:	2069e101 	rsbcs	lr, r9, r1, lsl #2

00002328 <l2087>:
    2328:	e40db044 	str	fp, [sp], #-68	; 0x44

0000232c <interrupt_416>:
    232c:	11dd72b2 	ldrhne	r7, [sp, #34]	; 0x22

00002330 <l2089>:
    2330:	e3a0102e 	mov	r1, #46	; 0x2e

00002334 <l2090>:
    2334:	519d60f1 	ldrshpl	r6, [sp, r1]

00002338 <l2091>:
    2338:	ea000003 	b	234c <l2096>

0000233c <l2092>:
    233c:	7254328f 	subsvc	r3, r4, #-268435448	; 0xf0000008

00002340 <l2093>:
    2340:	100a400f 	andne	r4, sl, pc

00002344 <l2094>:
    2344:	103aa6e6 	eorsne	sl, sl, r6, ror #13

00002348 <interrupt_142>:
    2348:	7112011b 	tstvc	r2, fp, lsl r1

0000234c <l2096>:
    234c:	e2779222 	rsbs	r9, r7, #536870914	; 0x20000002

00002350 <l2097>:
    2350:	e59f2000 	ldr	r2, [pc]	; 2358 <l2099>

00002354 <l2098>:
    2354:	ea000000 	b	235c <interrupt_178>

00002358 <l2099>:
    2358:	000fffa0 	.word	0x000fffa0

0000235c <interrupt_178>:
    235c:	81420099 	swpbhi	r0, r9, [r2]

00002360 <l2101>:
    2360:	b115006a 	tstlt	r5, sl, rrx

00002364 <l2102>:
    2364:	c2a7811f 	adcgt	r8, r7, #-1073741817	; 0xc0000007

00002368 <l2103>:
    2368:	e1d11f20 	bics	r1, r1, r0, lsr #30

0000236c <l2104>:
    236c:	e16f1f13 	clz	r1, r3

00002370 <l2105>:
    2370:	71c6000a 	bicvc	r0, r6, sl

00002374 <l2106>:
    2374:	7051777b 	subsvc	r7, r1, fp, ror r7

00002378 <l2107>:
    2378:	215f0068 	cmpcs	pc, r8, rrx

0000237c <l2108>:
    237c:	104e801b 	subne	r8, lr, fp, lsl r0

00002380 <interrupt_600>:
    2380:	e1f0600b 	mvns	r6, fp

00002384 <l2110>:
    2384:	e313051d 	tst	r3, #121634816	; 0x7400000

00002388 <l2111>:
    2388:	b0fc8064 	rscslt	r8, ip, r4, rrx

0000238c <l2112>:
    238c:	499d5ffb 	ldmibmi	sp, {r0, r1, r3, r4, r5, r6, r7, r8, r9, sl, fp, ip, lr}

00002390 <l2113>:
    2390:	e0c3535e 	sbc	r5, r3, lr, asr r3

00002394 <l2114>:
    2394:	e0828065 	add	r8, r2, r5, rrx

00002398 <l2115>:
    2398:	e8ad9077 	stmia	sp!, {r0, r1, r2, r4, r5, r6, ip, pc}

0000239c <l2116>:
    239c:	da000003 	ble	23b0 <l2121>

000023a0 <l2117>:
    23a0:	e28010e7 	add	r1, r0, #231	; 0xe7

000023a4 <l2118>:
    23a4:	7113011c 	tstvc	r3, ip, lsl r1

000023a8 <l2119>:
    23a8:	d3540633 	cmple	r4, #53477376	; 0x3300000

000023ac <l2120>:
    23ac:	ea000000 	b	23b4 <l2122>

000023b0 <l2121>:
    23b0:	eafffffb 	b	23a4 <l2118>

000023b4 <l2122>:
    23b4:	e5dd0018 	ldrb	r0, [sp, #24]

000023b8 <interrupt_970>:
    23b8:	50fb5901 	rscspl	r5, fp, r1, lsl #18

000023bc <l2124>:
    23bc:	e82d5040 	stmda	sp!, {r6, ip, lr}

000023c0 <l2125>:
    23c0:	e93d020c 	ldmdb	sp!, {r2, r3, r9}

000023c4 <l2126>:
    23c4:	e59f6000 	ldr	r6, [pc]	; 23cc <l2128>

000023c8 <l2127>:
    23c8:	ea000000 	b	23d0 <l2129>

000023cc <l2128>:
    23cc:	000fffd4 	.word	0x000fffd4

000023d0 <l2129>:
    23d0:	5106909e 	swppl	r9, lr, [r6]

000023d4 <l2130>:
    23d4:	e93d0008 	ldmdb	sp!, {r3}

000023d8 <l2131>:
    23d8:	401646c8 	andsmi	r4, r6, r8, asr #13

000023dc <interrupt_694>:
    23dc:	d5cdc019 	strble	ip, [sp, #25]

000023e0 <l2133>:
    23e0:	0a000002 	beq	23f0 <interrupt_172>

000023e4 <l2134>:
    23e4:	e1190000 	tst	r9, r0

000023e8 <l2135>:
    23e8:	316f7f1c 	clzcc	r7, ip

000023ec <interrupt_473>:
    23ec:	d04a5882 	suble	r5, sl, r2, lsl #17

000023f0 <interrupt_172>:
    23f0:	e2677807 	rsb	r7, r7, #458752	; 0x70000

000023f4 <l2138>:
    23f4:	e2a824b9 	adc	r2, r8, #-1191182336	; 0xb9000000

000023f8 <l2139>:
    23f8:	60467002 	subvs	r7, r6, r2

000023fc <l2140>:
    23fc:	216f2f1c 	clzcs	r2, ip

00002400 <l2141>:
    2400:	e59f4000 	ldr	r4, [pc]	; 2408 <interrupt_438>

00002404 <l2142>:
    2404:	ea000000 	b	240c <l2144>

00002408 <interrupt_438>:
    2408:	000fffa0 	.word	0x000fffa0

0000240c <l2144>:
    240c:	e1049098 	swp	r9, r8, [r4]

00002410 <l2145>:
    2410:	e3a03022 	mov	r3, #34	; 0x22

00002414 <l2146>:
    2414:	e19d60d3 	ldrsb	r6, [sp, r3]

00002418 <interrupt_596>:
    2418:	ea000003 	b	242c <interrupt_759>

0000241c <interrupt_850>:
    241c:	e2801025 	add	r1, r0, #37	; 0x25

00002420 <interrupt_180>:
    2420:	40d4394a 	sbcsmi	r3, r4, sl, asr #18

00002424 <l2150>:
    2424:	e009400a 	and	r4, r9, sl

00002428 <interrupt_876>:
    2428:	ea000000 	b	2430 <interrupt_226>

0000242c <interrupt_759>:
    242c:	eafffffb 	b	2420 <interrupt_180>

00002430 <interrupt_226>:
    2430:	5a000003 	bpl	2444 <l2158>

00002434 <interrupt_442>:
    2434:	e2801090 	add	r1, r0, #144	; 0x90

00002438 <l2155>:
    2438:	e00c7b1a 	and	r7, ip, sl, lsl fp

0000243c <l2156>:
    243c:	e1e07007 	mvn	r7, r7

00002440 <l2157>:
    2440:	ea000000 	b	2448 <l2159>

00002444 <l2158>:
    2444:	eafffffb 	b	2438 <l2155>

00002448 <l2159>:
    2448:	e59f0000 	ldr	r0, [pc]	; 2450 <l2161>

0000244c <l2160>:
    244c:	ea000000 	b	2454 <l2162>

00002450 <l2161>:
    2450:	000fffe8 	.word	0x000fffe8

00002454 <l2162>:
    2454:	e100909c 	swp	r9, ip, [r0]

00002458 <l2163>:
    2458:	20dee7cc 	sbcscs	lr, lr, ip, asr #15

0000245c <l2164>:
    245c:	1090ac32 	addsne	sl, r0, r2, lsr ip

00002460 <l2165>:
    2460:	11994002 	orrsne	r4, r9, r2

00002464 <interrupt_298>:
    2464:	e48de034 	str	lr, [sp], #52	; 0x34

00002468 <l2167>:
    2468:	e0fb6e35 	rscs	r6, fp, r5, lsr lr

0000246c <l2168>:
    246c:	e3a0800b 	mov	r8, #11

00002470 <l2169>:
    2470:	e7cd6008 	strb	r6, [sp, r8]

00002474 <l2170>:
    2474:	b1120061 	tstlt	r2, r1, rrx

00002478 <l2171>:
    2478:	e15d11be 	ldrh	r1, [sp, #-30]	; 0xffffffe2

0000247c <l2172>:
    247c:	e0594003 	subs	r4, r9, r3

00002480 <l2173>:
    2480:	e2f734cf 	rscs	r3, r7, #-822083584	; 0xcf000000

00002484 <l2174>:
    2484:	5a000002 	bpl	2494 <l2178>

00002488 <l2175>:
    2488:	616f3f1b 	clzvs	r3, fp

0000248c <l2176>:
    248c:	6078b001 	rsbsvs	fp, r8, r1

00002490 <l2177>:
    2490:	e2a72692 	adc	r2, r7, #153092096	; 0x9200000

00002494 <l2178>:
    2494:	01e03363 	mvneq	r3, r3, ror #6

00002498 <l2179>:
    2498:	e15d22dd 	ldrsb	r2, [sp, #-45]	; 0xffffffd3

0000249c <l2180>:
    249c:	e1140003 	tst	r4, r3

000024a0 <l2181>:
    24a0:	3a000005 	bcc	24bc <l2188>

000024a4 <l2182>:
    24a4:	e2801099 	add	r1, r0, #153	; 0x99

000024a8 <l2183>:
    24a8:	e08a100b 	add	r1, sl, fp

000024ac <l2184>:
    24ac:	e178000c 	cmn	r8, ip

000024b0 <l2185>:
    24b0:	031c0eed 	tsteq	ip, #3792	; 0xed0

000024b4 <l2186>:
    24b4:	80e8406c 	rschi	r4, r8, ip, rrx

000024b8 <l2187>:
    24b8:	ea000000 	b	24c0 <interrupt_834>

000024bc <l2188>:
    24bc:	eafffff9 	b	24a8 <l2183>

000024c0 <interrupt_834>:
    24c0:	e0673066 	rsb	r3, r7, r6, rrx

000024c4 <l2190>:
    24c4:	e338023a 	teq	r8, #-1610612733	; 0xa0000003

000024c8 <interrupt_119>:
    24c8:	e59f3000 	ldr	r3, [pc]	; 24d0 <l2193>

000024cc <interrupt_612>:
    24cc:	ea000000 	b	24d4 <l2194>

000024d0 <l2193>:
    24d0:	000fffac 	.word	0x000fffac

000024d4 <l2194>:
    24d4:	e1434095 	swpb	r4, r5, [r3]

000024d8 <l2195>:
    24d8:	0a000005 	beq	24f4 <interrupt_328>

000024dc <l2196>:
    24dc:	e28010cd 	add	r1, r0, #205	; 0xcd

000024e0 <l2197>:
    24e0:	335b0da3 	cmpcc	fp, #10432	; 0x28c0

000024e4 <l2198>:
    24e4:	81e0b77c 	mvnhi	fp, ip, ror r7

000024e8 <l2199>:
    24e8:	90936ea0 	addsls	r6, r3, r0, lsr #29

000024ec <l2200>:
    24ec:	10e32004 	rscne	r2, r3, r4

000024f0 <l2201>:
    24f0:	ea000000 	b	24f8 <l2203>

000024f4 <interrupt_328>:
    24f4:	eafffff9 	b	24e0 <l2197>

000024f8 <l2203>:
    24f8:	a5cd900d 	strbge	r9, [sp, #13]

000024fc <l2204>:
    24fc:	c2f60f46 	rscsgt	r0, r6, #280	; 0x118

00002500 <interrupt_228>:
    2500:	b23f201f 	eorslt	r2, pc, #31

00002504 <l2206>:
    2504:	115d81f2 	ldrshne	r8, [sp, #-18]	; 0xffffffee

00002508 <interrupt_569>:
    2508:	019c064f 	orrseq	r0, ip, pc, asr #12

0000250c <l2208>:
    250c:	51dd70d7 	ldrsbpl	r7, [sp, #7]

00002510 <interrupt_198>:
    2510:	e3a0c002 	mov	ip, #2

00002514 <interrupt_443>:
    2514:	e11db0bc 	ldrh	fp, [sp, -ip]

00002518 <l2211>:
    2518:	e055100a 	subs	r1, r5, sl

0000251c <l2212>:
    251c:	61901513 	orrsvs	r1, r0, r3, lsl r5

00002520 <l2213>:
    2520:	e59f2000 	ldr	r2, [pc]	; 2528 <l2215>

00002524 <l2214>:
    2524:	ea000000 	b	252c <l2216>

00002528 <l2215>:
    2528:	000fffc8 	.word	0x000fffc8

0000252c <l2216>:
    252c:	a102809c 	swpge	r8, ip, [r2]

00002530 <l2217>:
    2530:	10eb1062 	rscne	r1, fp, r2, rrx

00002534 <l2218>:
    2534:	e9ad4404 	stmib	sp!, {r2, sl, lr}

00002538 <l2219>:
    2538:	e1730233 	cmn	r3, r3, lsr r2

0000253c <l2220>:
    253c:	e134000e 	teq	r4, lr

00002540 <interrupt_241>:
    2540:	e50d903c 	str	r9, [sp, #-60]	; 0x3c

00002544 <interrupt_946>:
    2544:	e0717008 	rsbs	r7, r1, r8

00002548 <l2223>:
    2548:	e59f1000 	ldr	r1, [pc]	; 2550 <l2225>

0000254c <interrupt_247>:
    254c:	ea000000 	b	2554 <l2226>

00002550 <l2225>:
    2550:	000fffe4 	.word	0x000fffe4

00002554 <l2226>:
    2554:	61019097 	swpvs	r9, r7, [r1]

00002558 <l2227>:
    2558:	52bfbec7 	adcspl	fp, pc, #3184	; 0xc70

0000255c <l2228>:
    255c:	e1350a39 	teq	r5, r9, lsr sl

00002560 <l2229>:
    2560:	7a000007 	bvc	2584 <l2238>

00002564 <interrupt_82>:
    2564:	e2801063 	add	r1, r0, #99	; 0x63

00002568 <l2231>:
    2568:	d1170000 	tstle	r7, r0

0000256c <l2232>:
    256c:	817c000b 	cmnhi	ip, fp

00002570 <l2233>:
    2570:	e393c15e 	orrs	ip, r3, #-2147483625	; 0x80000017

00002574 <l2234>:
    2574:	e1720005 	cmn	r2, r5

00002578 <l2235>:
    2578:	e0476335 	sub	r6, r7, r5, lsr r3

0000257c <l2236>:
    257c:	23f09b21 	mvnscs	r9, #33792	; 0x8400

00002580 <interrupt_674>:
    2580:	ea000000 	b	2588 <l2239>

00002584 <l2238>:
    2584:	eafffff7 	b	2568 <l2231>

00002588 <l2239>:
    2588:	e3a04045 	mov	r4, #69	; 0x45

0000258c <l2240>:
    258c:	e75d3004 	ldrb	r3, [sp, -r4]

00002590 <l2241>:
    2590:	e3a05048 	mov	r5, #72	; 0x48

00002594 <interrupt_738>:
    2594:	e61d0005 	ldr	r0, [sp], -r5

00002598 <interrupt_740>:
    2598:	e0118b42 	ands	r8, r1, r2, asr #22

0000259c <l2244>:
    259c:	e1db300f 	bics	r3, fp, pc

000025a0 <l2245>:
    25a0:	702b9000 	eorvc	r9, fp, r0

000025a4 <l2246>:
    25a4:	e8bd0240 	pop	{r6, r9}

000025a8 <l2247>:
    25a8:	50c21000 	sbcpl	r1, r2, r0

000025ac <l2248>:
    25ac:	e59f9000 	ldr	r9, [pc]	; 25b4 <l2250>

000025b0 <l2249>:
    25b0:	ea000000 	b	25b8 <l2251>

000025b4 <l2250>:
    25b4:	000fffac 	.word	0x000fffac

000025b8 <l2251>:
    25b8:	e109c094 	swp	ip, r4, [r9]

000025bc <interrupt_421>:
    25bc:	e0eb9065 	rsc	r9, fp, r5, rrx

000025c0 <interrupt_542>:
    25c0:	713e0a33 	teqvc	lr, r3, lsr sl

000025c4 <l2254>:
    25c4:	e03ee064 	eors	lr, lr, r4, rrx

000025c8 <l2255>:
    25c8:	e1a00000 	nop			; (mov r0, r0)

000025cc <l2256>:
    25cc:	e59f5000 	ldr	r5, [pc]	; 25d4 <interrupt_51>

000025d0 <l2257>:
    25d0:	ea000000 	b	25d8 <l2259>

000025d4 <interrupt_51>:
    25d4:	000fffe0 	.word	0x000fffe0

000025d8 <l2259>:
    25d8:	e1052092 	swp	r2, r2, [r5]

000025dc <l2260>:
    25dc:	e5cd001e 	strb	r0, [sp, #30]

000025e0 <interrupt_867>:
    25e0:	53e0182b 	mvnpl	r1, #2818048	; 0x2b0000

000025e4 <l2262>:
    25e4:	e3a01014 	mov	r1, #20

000025e8 <interrupt_707>:
    25e8:	e68d7001 	str	r7, [sp], r1

000025ec <l2264>:
    25ec:	31540b69 	cmpcc	r4, r9, ror #22

000025f0 <l2265>:
    25f0:	e3a01000 	mov	r1, #0

000025f4 <l2266>:
    25f4:	879d1001 	ldrhi	r1, [sp, r1]

000025f8 <l2267>:
    25f8:	e1b08067 	rrxs	r8, r7

000025fc <interrupt_432>:
    25fc:	ea000007 	b	2620 <l2277>

00002600 <l2269>:
    2600:	73f080ff 	mvnsvc	r8, #255	; 0xff

00002604 <l2270>:
    2604:	e0193006 	ands	r3, r9, r6

00002608 <l2271>:
    2608:	20d0a3a1 	sbcscs	sl, r0, r1, lsr #7

0000260c <l2272>:
    260c:	01cf7001 	biceq	r7, pc, r1

00002610 <l2273>:
    2610:	a3b02007 	movsge	r2, #7

00002614 <l2274>:
    2614:	e1110350 	tst	r1, r0, asr r3

00002618 <l2275>:
    2618:	8075673a 	rsbshi	r6, r5, sl, lsr r7

0000261c <l2276>:
    261c:	e00a3cca 	and	r3, sl, sl, asr #25

00002620 <l2277>:
    2620:	b31a04bb 	tstlt	sl, #-1157627904	; 0xbb000000

00002624 <l2278>:
    2624:	e059e065 	subs	lr, r9, r5, rrx

00002628 <l2279>:
    2628:	30c27001 	sbccc	r7, r2, r1

0000262c <l2280>:
    262c:	e59f6000 	ldr	r6, [pc]	; 2634 <l2282>

00002630 <l2281>:
    2630:	ea000000 	b	2638 <l2283>

00002634 <l2282>:
    2634:	000fffa8 	.word	0x000fffa8

00002638 <l2283>:
    2638:	5146b095 	swpbpl	fp, r5, [r6]

0000263c <interrupt_471>:
    263c:	e55de00b 	ldrb	lr, [sp, #-11]

00002640 <l2285>:
    2640:	e83d1046 	ldmda	sp!, {r1, r2, r6, ip}

00002644 <l2286>:
    2644:	e3a05000 	mov	r5, #0

00002648 <l2287>:
    2648:	77cd3005 	strbvc	r3, [sp, r5]

0000264c <l2288>:
    264c:	02fa9aa5 	rscseq	r9, sl, #675840	; 0xa5000

00002650 <interrupt_847>:
    2650:	213a0557 	teqcs	sl, r7, asr r5

00002654 <l2290>:
    2654:	51a08141 	asrpl	r8, r1, #2

00002658 <l2291>:
    2658:	e3a0601e 	mov	r6, #30

0000265c <l2292>:
    265c:	b19d60b6 	ldrhlt	r6, [sp, r6]

00002660 <l2293>:
    2660:	83a002d2 	movhi	r0, #536870925	; 0x2000000d

00002664 <l2294>:
    2664:	51cd22be 	strhpl	r2, [sp, #46]	; 0x2e

00002668 <interrupt_551>:
    2668:	e0b8906c 	adcs	r9, r8, ip, rrx

0000266c <interrupt_778>:
    266c:	e92d0008 	stmfd	sp!, {r3}

00002670 <l2297>:
    2670:	80646c75 	rsbhi	r6, r4, r5, ror ip

00002674 <l2298>:
    2674:	80176005 	andshi	r6, r7, r5

00002678 <l2299>:
    2678:	e01f8069 	ands	r8, pc, r9, rrx

0000267c <l2300>:
    267c:	e04b0d2a 	sub	r0, fp, sl, lsr #26

00002680 <l2301>:
    2680:	20bc106f 	adcscs	r1, ip, pc, rrx

00002684 <l2302>:
    2684:	c1dd81f2 	ldrshgt	r8, [sp, #18]

00002688 <interrupt_324>:
    2688:	e39218a9 	orrs	r1, r2, #11075584	; 0xa90000

0000268c <interrupt_154>:
    268c:	8203051e 	andhi	r0, r3, #125829120	; 0x7800000

00002690 <l2305>:
    2690:	e15e02cc 	cmp	lr, ip, asr #5

00002694 <l2306>:
    2694:	5a000008 	bpl	26bc <l2316>

00002698 <interrupt_207>:
    2698:	81a05000 	movhi	r5, r0

0000269c <interrupt_332>:
    269c:	60dea668 	sbcsvs	sl, lr, r8, ror #12

000026a0 <interrupt_302>:
    26a0:	e35c0322 	cmp	ip, #-2013265920	; 0x88000000

000026a4 <l2310>:
    26a4:	e1dae3e8 	bics	lr, sl, r8, ror #7

000026a8 <l2311>:
    26a8:	216f5f16 	clzcs	r5, r6

000026ac <l2312>:
    26ac:	e09e1000 	adds	r1, lr, r0

000026b0 <l2313>:
    26b0:	e25ac2c3 	subs	ip, sl, #805306380	; 0x3000000c

000026b4 <l2314>:
    26b4:	e0932005 	adds	r2, r3, r5

000026b8 <l2315>:
    26b8:	e22b91db 	eor	r9, fp, #-1073741770	; 0xc0000036

000026bc <l2316>:
    26bc:	91560008 	cmpls	r6, r8

000026c0 <interrupt_969>:
    26c0:	da000002 	ble	26d0 <l2321>

000026c4 <l2318>:
    26c4:	e28010d4 	add	r1, r0, #212	; 0xd4

000026c8 <l2319>:
    26c8:	423e250e 	eorsmi	r2, lr, #58720256	; 0x3800000

000026cc <l2320>:
    26cc:	ea000000 	b	26d4 <l2322>

000026d0 <l2321>:
    26d0:	eafffffc 	b	26c8 <l2319>

000026d4 <l2322>:
    26d4:	e16f6f17 	clz	r6, r7

000026d8 <l2323>:
    26d8:	e0515360 	subs	r5, r1, r0, ror #6

000026dc <l2324>:
    26dc:	e0384e32 	eors	r4, r8, r2, lsr lr

000026e0 <l2325>:
    26e0:	01380164 	teqeq	r8, r4, ror #2

000026e4 <l2326>:
    26e4:	2a000005 	bcs	2700 <interrupt_593>

000026e8 <l2327>:
    26e8:	e2801086 	add	r1, r0, #134	; 0x86

000026ec <l2328>:
    26ec:	e33f0008 	teq	pc, #8

000026f0 <l2329>:
    26f0:	e21f2cc3 	ands	r2, pc, #49920	; 0xc300

000026f4 <l2330>:
    26f4:	20cf1ca6 	sbccs	r1, pc, r6, lsr #25

000026f8 <l2331>:
    26f8:	603fa865 	eorsvs	sl, pc, r5, ror #16

000026fc <l2332>:
    26fc:	ea000000 	b	2704 <l2334>

00002700 <interrupt_593>:
    2700:	eafffff9 	b	26ec <l2328>

00002704 <l2334>:
    2704:	e3a08038 	mov	r8, #56	; 0x38

00002708 <l2335>:
    2708:	e69d8008 	ldr	r8, [sp], r8

0000270c <l2336>:
    270c:	c150000b 	cmpgt	r0, fp

00002710 <l2337>:
    2710:	e59f2000 	ldr	r2, [pc]	; 2718 <l2339>

00002714 <l2338>:
    2714:	ea000000 	b	271c <l2340>

00002718 <l2339>:
    2718:	000fffd8 	.word	0x000fffd8

0000271c <l2340>:
    271c:	6102709e 	swpvs	r7, lr, [r2]

00002720 <l2341>:
    2720:	e0361b51 	eors	r1, r6, r1, asr fp

00002724 <l2342>:
    2724:	d15d00fa 	ldrshle	r0, [sp, #-10]

00002728 <l2343>:
    2728:	d2617000 	rsble	r7, r1, #0

0000272c <l2344>:
    272c:	c2ee176a 	rscgt	r1, lr, #27787264	; 0x1a80000

00002730 <l2345>:
    2730:	01e06008 	mvneq	r6, r8

00002734 <interrupt_992>:
    2734:	081d55fd 	ldmdaeq	sp, {r0, r2, r3, r4, r5, r6, r7, r8, sl, ip, lr}

00002738 <l2347>:
    2738:	115d80f4 	ldrshne	r8, [sp, #-4]

0000273c <l2348>:
    273c:	e3a09005 	mov	r9, #5

00002740 <l2349>:
    2740:	674d5009 	strbvs	r5, [sp, -r9]

00002744 <interrupt_544>:
    2744:	e077c005 	rsbs	ip, r7, r5

00002748 <l2351>:
    2748:	e59fc000 	ldr	ip, [pc]	; 2750 <l2353>

0000274c <l2352>:
    274c:	ea000000 	b	2754 <l2354>

00002750 <l2353>:
    2750:	000fffd4 	.word	0x000fffd4

00002754 <l2354>:
    2754:	e10c5091 	swp	r5, r1, [ip]

00002758 <l2355>:
    2758:	0058cb11 	subseq	ip, r8, r1, lsl fp

0000275c <l2356>:
    275c:	e0c60007 	sbc	r0, r6, r7

00002760 <interrupt_638>:
    2760:	e16f7f18 	clz	r7, r8

00002764 <l2358>:
    2764:	e9ad0200 	stmib	sp!, {r9}

00002768 <l2359>:
    2768:	b15d44f0 	ldrshlt	r4, [sp, #-64]	; 0xffffffc0

0000276c <l2360>:
    276c:	e0e8306e 	rsc	r3, r8, lr, rrx

00002770 <l2361>:
    2770:	e59fa000 	ldr	sl, [pc]	; 2778 <l2363>

00002774 <interrupt_185>:
    2774:	ea000000 	b	277c <l2364>

00002778 <l2363>:
    2778:	000fffd4 	.word	0x000fffd4

0000277c <l2364>:
    277c:	e14a1093 	swpb	r1, r3, [sl]

00002780 <l2365>:
    2780:	e0e7300b 	rsc	r3, r7, fp

00002784 <l2366>:
    2784:	e0665009 	rsb	r5, r6, r9

00002788 <l2367>:
    2788:	e3f0a5d6 	mvns	sl, #897581056	; 0x35800000

0000278c <l2368>:
    278c:	22190028 	andscs	r0, r9, #40	; 0x28

00002790 <l2369>:
    2790:	60ee7174 	rscvs	r7, lr, r4, ror r1

00002794 <l2370>:
    2794:	e59fb000 	ldr	fp, [pc]	; 279c <l2372>

00002798 <interrupt_875>:
    2798:	ea000000 	b	27a0 <l2373>

0000279c <l2372>:
    279c:	000fffd0 	.word	0x000fffd0

000027a0 <l2373>:
    27a0:	014ba091 	swpbeq	sl, r1, [fp]

000027a4 <interrupt_523>:
    27a4:	025c5605 	subseq	r5, ip, #5242880	; 0x500000

000027a8 <l2375>:
    27a8:	b13c0005 	teqlt	ip, r5

000027ac <l2376>:
    27ac:	e59f2000 	ldr	r2, [pc]	; 27b4 <interrupt_589>

000027b0 <l2377>:
    27b0:	ea000000 	b	27b8 <l2379>

000027b4 <interrupt_589>:
    27b4:	000fffe4 	.word	0x000fffe4

000027b8 <l2379>:
    27b8:	a1023093 	swpge	r3, r3, [r2]

000027bc <l2380>:
    27bc:	e1ca9c50 	bic	r9, sl, r0, asr ip

000027c0 <l2381>:
    27c0:	83e080e2 	mvnhi	r8, #226	; 0xe2

000027c4 <l2382>:
    27c4:	a080906e 	addge	r9, r0, lr, rrx

000027c8 <l2383>:
    27c8:	400cc068 	andmi	ip, ip, r8, rrx

000027cc <l2384>:
    27cc:	d54d1038 	strble	r1, [sp, #-56]	; 0x38

000027d0 <interrupt_862>:
    27d0:	52cf462f 	sbcpl	r4, pc, #49283072	; 0x2f00000

000027d4 <l2386>:
    27d4:	e1120003 	tst	r2, r3

000027d8 <l2387>:
    27d8:	d1330063 	teqle	r3, r3, rrx

000027dc <l2388>:
    27dc:	e3520b0a 	cmp	r2, #10240	; 0x2800

000027e0 <l2389>:
    27e0:	41540239 	cmpmi	r4, r9, lsr r2

000027e4 <interrupt_181>:
    27e4:	e3a0c00c 	mov	ip, #12

000027e8 <interrupt_410>:
    27e8:	e11d30bc 	ldrh	r3, [sp, -ip]

000027ec <l2392>:
    27ec:	52f83cf7 	rscspl	r3, r8, #63232	; 0xf700

000027f0 <l2393>:
    27f0:	e59f0000 	ldr	r0, [pc]	; 27f8 <l2395>

000027f4 <l2394>:
    27f4:	ea000000 	b	27fc <l2396>

000027f8 <l2395>:
    27f8:	000fffd8 	.word	0x000fffd8

000027fc <l2396>:
    27fc:	9140209e 	swpbls	r2, lr, [r0]

00002800 <interrupt_950>:
    2800:	e3a0601c 	mov	r6, #28

00002804 <interrupt_49>:
    2804:	e11d40b6 	ldrh	r4, [sp, -r6]

00002808 <interrupt_906>:
    2808:	e1c0a068 	bic	sl, r0, r8, rrx

0000280c <interrupt_56>:
    280c:	e41d0004 	ldr	r0, [sp], #-4

00002810 <l2401>:
    2810:	65dde003 	ldrbvs	lr, [sp, #3]

00002814 <interrupt_393>:
    2814:	d059000a 	subsle	r0, r9, sl

00002818 <interrupt_553>:
    2818:	e0e8b004 	rsc	fp, r8, r4

0000281c <l2404>:
    281c:	015dc1d3 	ldrsbeq	ip, [sp, #-19]	; 0xffffffed

00002820 <interrupt_653>:
    2820:	416f8f19 	clzmi	r8, r9

00002824 <l2406>:
    2824:	e82d8004 	stmda	sp!, {r2, pc}

00002828 <l2407>:
    2828:	e3a05013 	mov	r5, #19

0000282c <l2408>:
    282c:	d7cd2005 	strble	r2, [sp, r5]

00002830 <interrupt_802>:
    2830:	015d90d8 	ldrsbeq	r9, [sp, #-8]

00002834 <l2410>:
    2834:	40b75339 	adcsmi	r5, r7, r9, lsr r3

00002838 <l2411>:
    2838:	e216b06c 	ands	fp, r6, #108	; 0x6c

0000283c <l2412>:
    283c:	914d31b6 	strhls	r3, [sp, #-22]	; 0xffffffea

00002840 <l2413>:
    2840:	e1510069 	cmp	r1, r9, rrx

00002844 <l2414>:
    2844:	31b07068 	rrxscc	r7, r8

00002848 <l2415>:
    2848:	25dd7008 	ldrbcs	r7, [sp, #8]

0000284c <l2416>:
    284c:	e3a04031 	mov	r4, #49	; 0x31

00002850 <l2417>:
    2850:	c75db004 	ldrbgt	fp, [sp, -r4]

00002854 <interrupt_307>:
    2854:	816f1f12 	clzhi	r1, r2

00002858 <l2419>:
    2858:	0180b000 	orreq	fp, r0, r0

0000285c <interrupt_203>:
    285c:	715a0e8a 	cmpvc	sl, sl, lsl #29

00002860 <l2421>:
    2860:	e40d5018 	str	r5, [sp], #-24

00002864 <l2422>:
    2864:	c16f3f14 	clzgt	r3, r4

00002868 <l2423>:
    2868:	8affffff 	bhi	286c <interrupt_764>

0000286c <interrupt_764>:
    286c:	601a3008 	andsvs	r3, sl, r8

00002870 <l2425>:
    2870:	e9bd4889 	ldmib	sp!, {r0, r3, r7, fp, lr}

00002874 <l2426>:
    2874:	00751954 	rsbseq	r1, r5, r4, asr r9

00002878 <l2427>:
    2878:	e8bd4114 	pop	{r2, r4, r8, lr}

0000287c <interrupt_601>:
    287c:	e2926309 	adds	r6, r2, #603979776	; 0x24000000

00002880 <l2429>:
    2880:	40f4ab52 	rscsmi	sl, r4, r2, asr fp

00002884 <l2430>:
    2884:	e17f000a 	cmn	pc, sl

00002888 <l2431>:
    2888:	916f7f10 	clzls	r7, r0

0000288c <interrupt_430>:
    288c:	e1360b5c 	teq	r6, ip, asr fp

00002890 <interrupt_496>:
    2890:	00450f85 	subeq	r0, r5, r5, lsl #31

00002894 <l2434>:
    2894:	55dd3007 	ldrbpl	r3, [sp, #7]

00002898 <l2435>:
    2898:	e0262bcf 	eor	r2, r6, pc, asr #23

0000289c <l2436>:
    289c:	e2b05c0d 	adcs	r5, r0, #3328	; 0xd00

000028a0 <l2437>:
    28a0:	c018b009 	andsgt	fp, r8, r9

000028a4 <l2438>:
    28a4:	e59f9000 	ldr	r9, [pc]	; 28ac <l2440>

000028a8 <l2439>:
    28a8:	ea000000 	b	28b0 <l2441>

000028ac <l2440>:
    28ac:	000fffb8 	.word	0x000fffb8

000028b0 <l2441>:
    28b0:	e149a09e 	swpb	sl, lr, [r9]

000028b4 <l2442>:
    28b4:	416fcf19 	clzmi	ip, r9

000028b8 <l2443>:
    28b8:	e1842000 	orr	r2, r4, r0

000028bc <l2444>:
    28bc:	d0e56069 	rscle	r6, r5, r9, rrx

000028c0 <l2445>:
    28c0:	e077800a 	rsbs	r8, r7, sl

000028c4 <l2446>:
    28c4:	704b200e 	subvc	r2, fp, lr

000028c8 <l2447>:
    28c8:	405c600c 	subsmi	r6, ip, ip

000028cc <l2448>:
    28cc:	d15d00b4 	ldrhle	r0, [sp, #-4]

000028d0 <l2449>:
    28d0:	1a000003 	bne	28e4 <l2454>

000028d4 <l2450>:
    28d4:	e28010bc 	add	r1, r0, #188	; 0xbc

000028d8 <l2451>:
    28d8:	c1f05003 	mvnsgt	r5, r3

000028dc <interrupt_200>:
    28dc:	70479b4c 	subvc	r9, r7, ip, asr #22

000028e0 <interrupt_374>:
    28e0:	ea000000 	b	28e8 <l2455>

000028e4 <l2454>:
    28e4:	eafffffb 	b	28d8 <l2451>

000028e8 <l2455>:
    28e8:	e1100051 	tst	r0, r1, asr r0

000028ec <l2456>:
    28ec:	524eba3f 	subpl	fp, lr, #258048	; 0x3f000

000028f0 <l2457>:
    28f0:	e3a0b038 	mov	fp, #56	; 0x38

000028f4 <l2458>:
    28f4:	e60dc00b 	str	ip, [sp], -fp

000028f8 <l2459>:
    28f8:	91700066 	cmnls	r0, r6, rrx

000028fc <l2460>:
    28fc:	31790000 	cmncc	r9, r0

00002900 <l2461>:
    2900:	416fbf11 	clzmi	fp, r1

00002904 <l2462>:
    2904:	31c92a0f 	biccc	r2, r9, pc, lsl #20

00002908 <l2463>:
    2908:	e5dd802d 	ldrb	r8, [sp, #45]	; 0x2d

0000290c <interrupt_864>:
    290c:	e0fbb00c 	rscs	fp, fp, ip

00002910 <l2465>:
    2910:	b80d8000 	stmdalt	sp, {pc}

00002914 <l2466>:
    2914:	e3a0602c 	mov	r6, #44	; 0x2c

00002918 <l2467>:
    2918:	a19de0b6 	ldrhge	lr, [sp, r6]

0000291c <l2468>:
    291c:	e59f4000 	ldr	r4, [pc]	; 2924 <l2470>

00002920 <l2469>:
    2920:	ea000000 	b	2928 <l2471>

00002924 <l2470>:
    2924:	000fffe0 	.word	0x000fffe0

00002928 <l2471>:
    2928:	d104b092 	swple	fp, r2, [r4]

0000292c <l2472>:
    292c:	e3a00008 	mov	r0, #8

00002930 <l2473>:
    2930:	e70df000 	str	pc, [sp, -r0]

00002934 <l2474>:
    2934:	71dd13d3 	ldrsbvc	r1, [sp, #51]	; 0x33

00002938 <l2475>:
    2938:	a11f0440 	tstge	pc, r0, asr #8

0000293c <l2476>:
    293c:	a199a23e 	orrsge	sl, r9, lr, lsr r2

00002940 <l2477>:
    2940:	e290b513 	adds	fp, r0, #79691776	; 0x4c00000

00002944 <l2478>:
    2944:	e3a0601e 	mov	r6, #30

00002948 <interrupt_98>:
    2948:	c7cde006 	strbgt	lr, [sp, r6]

0000294c <l2480>:
    294c:	92e85952 	rscls	r5, r8, #1343488	; 0x148000

00002950 <l2481>:
    2950:	e1a00000 	nop			; (mov r0, r0)

00002954 <l2482>:
    2954:	e3a0c03a 	mov	ip, #58	; 0x3a

00002958 <interrupt_955>:
    2958:	518d30bc 	strhpl	r3, [sp, ip]

0000295c <l2484>:
    295c:	82c66a0e 	sbchi	r6, r6, #57344	; 0xe000

00002960 <l2485>:
    2960:	e3a0600e 	mov	r6, #14

00002964 <interrupt_164>:
    2964:	e19d50b6 	ldrh	r5, [sp, r6]

00002968 <l2487>:
    2968:	90d38735 	sbcsls	r8, r3, r5, lsr r7

0000296c <l2488>:
    296c:	e01e6006 	ands	r6, lr, r6

00002970 <l2489>:
    2970:	a04e4511 	subge	r4, lr, r1, lsl r5

00002974 <l2490>:
    2974:	e5ad3014 	str	r3, [sp, #20]!

00002978 <l2491>:
    2978:	e1d37972 	bics	r7, r3, r2, ror r9

0000297c <l2492>:
    297c:	e3a0a024 	mov	sl, #36	; 0x24

00002980 <l2493>:
    2980:	178d800a 	strne	r8, [sp, sl]

00002984 <l2494>:
    2984:	e59fa000 	ldr	sl, [pc]	; 298c <l2496>

00002988 <l2495>:
    2988:	ea000000 	b	2990 <l2497>

0000298c <l2496>:
    298c:	000fffd0 	.word	0x000fffd0

00002990 <l2497>:
    2990:	e10a609e 	swp	r6, lr, [sl]

00002994 <l2498>:
    2994:	e54d5001 	strb	r5, [sp, #-1]

00002998 <interrupt_874>:
    2998:	d0615174 	rsble	r5, r1, r4, ror r1

0000299c <l2500>:
    299c:	5a000005 	bpl	29b8 <l2507>

000029a0 <l2501>:
    29a0:	916f7f10 	clzls	r7, r0

000029a4 <l2502>:
    29a4:	e1e00005 	mvn	r0, r5

000029a8 <l2503>:
    29a8:	509b518e 	addspl	r5, fp, lr, lsl #3

000029ac <interrupt_857>:
    29ac:	c159078f 	cmpgt	r9, pc, lsl #15

000029b0 <l2505>:
    29b0:	d0440009 	suble	r0, r4, r9

000029b4 <l2506>:
    29b4:	e092875a 	adds	r8, r2, sl, asr r7

000029b8 <l2507>:
    29b8:	70f6be1e 	rscsvc	fp, r6, lr, lsl lr

000029bc <l2508>:
    29bc:	e3940a15 	orrs	r0, r4, #86016	; 0x15000

000029c0 <interrupt_183>:
    29c0:	e82d5840 	stmda	sp!, {r6, fp, ip, lr}

000029c4 <l2510>:
    29c4:	e3963339 	orrs	r3, r6, #-469762048	; 0xe4000000

000029c8 <l2511>:
    29c8:	e59fe000 	ldr	lr, [pc]	; 29d0 <l2513>

000029cc <l2512>:
    29cc:	ea000000 	b	29d4 <interrupt_105>

000029d0 <l2513>:
    29d0:	000fffe4 	.word	0x000fffe4

000029d4 <interrupt_105>:
    29d4:	214ec092 	swpbcs	ip, r2, [lr]

000029d8 <interrupt_236>:
    29d8:	71f07005 	mvnsvc	r7, r5

000029dc <l2516>:
    29dc:	80951063 	addshi	r1, r5, r3, rrx

000029e0 <l2517>:
    29e0:	015db0b4 	ldrheq	fp, [sp, #-4]

000029e4 <l2518>:
    29e4:	da000001 	ble	29f0 <l2521>

000029e8 <interrupt_167>:
    29e8:	e1130433 	tst	r3, r3, lsr r4

000029ec <l2520>:
    29ec:	31d5ca2c 	bicscc	ip, r5, ip, lsr #20

000029f0 <l2521>:
    29f0:	c33e0e3e 	teqgt	lr, #992	; 0x3e0

000029f4 <interrupt_792>:
    29f4:	a1700001 	cmnge	r0, r1

000029f8 <l2523>:
    29f8:	75cd4029 	strbvc	r4, [sp, #41]	; 0x29

000029fc <l2524>:
    29fc:	50ec6069 	rscpl	r6, ip, r9, rrx

00002a00 <l2525>:
    2a00:	e59f9000 	ldr	r9, [pc]	; 2a08 <l2527>

00002a04 <l2526>:
    2a04:	ea000000 	b	2a0c <l2528>

00002a08 <l2527>:
    2a08:	000fffa4 	.word	0x000fffa4

00002a0c <l2528>:
    2a0c:	21496095 	swpbcs	r6, r5, [r9]

00002a10 <l2529>:
    2a10:	e3a0100c 	mov	r1, #12

00002a14 <l2530>:
    2a14:	b71d7001 	ldrlt	r7, [sp, -r1]

00002a18 <l2531>:
    2a18:	e1780610 	cmn	r8, r0, lsl r6

00002a1c <l2532>:
    2a1c:	c044205e 	subgt	r2, r4, lr, asr r0

00002a20 <interrupt_84>:
    2a20:	e3a0e017 	mov	lr, #23

00002a24 <l2534>:
    2a24:	17dd100e 	ldrbne	r1, [sp, lr]

00002a28 <l2535>:
    2a28:	908c300e 	addls	r3, ip, lr

00002a2c <l2536>:
    2a2c:	e59fe000 	ldr	lr, [pc]	; 2a34 <interrupt_599>

00002a30 <l2537>:
    2a30:	ea000000 	b	2a38 <l2539>

00002a34 <interrupt_599>:
    2a34:	000fffd0 	.word	0x000fffd0

00002a38 <l2539>:
    2a38:	b10e109c 	swplt	r1, ip, [lr]

00002a3c <interrupt_39>:
    2a3c:	3a000004 	bcc	2a54 <l2546>

00002a40 <l2541>:
    2a40:	e28010ea 	add	r1, r0, #234	; 0xea

00002a44 <l2542>:
    2a44:	e1720c5b 	cmn	r2, fp, asr ip

00002a48 <l2543>:
    2a48:	b1e0900f 	mvnlt	r9, pc

00002a4c <l2544>:
    2a4c:	137508dd 	cmnne	r5, #14483456	; 0xdd0000

00002a50 <l2545>:
    2a50:	ea000000 	b	2a58 <l2547>

00002a54 <l2546>:
    2a54:	eafffffa 	b	2a44 <l2542>

00002a58 <l2547>:
    2a58:	e3a02004 	mov	r2, #4

00002a5c <l2548>:
    2a5c:	e10d40b2 	strh	r4, [sp, -r2]

00002a60 <l2549>:
    2a60:	e3a0700c 	mov	r7, #12

00002a64 <l2550>:
    2a64:	e70d8007 	str	r8, [sp, -r7]

00002a68 <l2551>:
    2a68:	c114086f 	tstgt	r4, pc, ror #16

00002a6c <l2552>:
    2a6c:	e3a01036 	mov	r1, #54	; 0x36

00002a70 <l2553>:
    2a70:	e18d10b1 	strh	r1, [sp, r1]

00002a74 <l2554>:
    2a74:	d08a8b51 	addle	r8, sl, r1, asr fp

00002a78 <l2555>:
    2a78:	ea000006 	b	2a98 <l2563>

00002a7c <l2556>:
    2a7c:	61a05006 	movvs	r5, r6

00002a80 <interrupt_414>:
    2a80:	406bc005 	rsbmi	ip, fp, r5

00002a84 <interrupt_460>:
    2a84:	935e02eb 	cmpls	lr, #-1342177266	; 0xb000000e

00002a88 <l2559>:
    2a88:	e1e0e919 	mvn	lr, r9, lsl r9

00002a8c <l2560>:
    2a8c:	01e000e7 	mvneq	r0, r7, ror #1

00002a90 <l2561>:
    2a90:	e0293476 	eor	r3, r9, r6, ror r4

00002a94 <l2562>:
    2a94:	e1370988 	teq	r7, r8, lsl #19

00002a98 <l2563>:
    2a98:	60fc7000 	rscsvs	r7, ip, r0

00002a9c <l2564>:
    2a9c:	e3a0b018 	mov	fp, #24

00002aa0 <l2565>:
    2aa0:	e7dd700b 	ldrb	r7, [sp, fp]

00002aa4 <l2566>:
    2aa4:	e3a03022 	mov	r3, #34	; 0x22

00002aa8 <l2567>:
    2aa8:	719d80d3 	ldrsbvc	r8, [sp, r3]

00002aac <l2568>:
    2aac:	e9ad4000 	stmib	sp!, {lr}

00002ab0 <l2569>:
    2ab0:	e3a06028 	mov	r6, #40	; 0x28

00002ab4 <l2570>:
    2ab4:	e69de006 	ldr	lr, [sp], r6

00002ab8 <l2571>:
    2ab8:	825ac6db 	subshi	ip, sl, #229638144	; 0xdb00000

00002abc <l2572>:
    2abc:	e0811009 	add	r1, r1, r9

00002ac0 <l2573>:
    2ac0:	555dc001 	ldrbpl	ip, [sp, #-1]

00002ac4 <l2574>:
    2ac4:	e59f2000 	ldr	r2, [pc]	; 2acc <l2576>

00002ac8 <interrupt_590>:
    2ac8:	ea000000 	b	2ad0 <interrupt_652>

00002acc <l2576>:
    2acc:	000fffc8 	.word	0x000fffc8

00002ad0 <interrupt_652>:
    2ad0:	41029090 	swpmi	r9, r0, [r2]

00002ad4 <l2578>:
    2ad4:	e59f5000 	ldr	r5, [pc]	; 2adc <l2580>

00002ad8 <l2579>:
    2ad8:	ea000000 	b	2ae0 <l2581>

00002adc <l2580>:
    2adc:	000fffc8 	.word	0x000fffc8

00002ae0 <l2581>:
    2ae0:	0105a099 	swpeq	sl, r9, [r5]

00002ae4 <l2582>:
    2ae4:	e3a05022 	mov	r5, #34	; 0x22

00002ae8 <l2583>:
    2ae8:	211d20b5 	ldrhcs	r2, [sp, -r5]

00002aec <l2584>:
    2aec:	317c0001 	cmncc	ip, r1

00002af0 <l2585>:
    2af0:	e3f0bad2 	mvns	fp, #860160	; 0xd2000

00002af4 <l2586>:
    2af4:	e045400b 	sub	r4, r5, fp

00002af8 <l2587>:
    2af8:	e0e3e93c 	rsc	lr, r3, ip, lsr r9

00002afc <l2588>:
    2afc:	71590b3b 	cmpvc	r9, fp, lsr fp

00002b00 <l2589>:
    2b00:	73310d3d 	teqvc	r1, #3904	; 0xf40

00002b04 <l2590>:
    2b04:	925cb011 	subsls	fp, ip, #17

00002b08 <l2591>:
    2b08:	b1e0400e 	mvnlt	r4, lr

00002b0c <interrupt_525>:
    2b0c:	e246c32b 	sub	ip, r6, #-1409286144	; 0xac000000

00002b10 <l2593>:
    2b10:	23310711 	teqcs	r1, #4456448	; 0x440000

00002b14 <l2594>:
    2b14:	e3a06027 	mov	r6, #39	; 0x27

00002b18 <l2595>:
    2b18:	e11de0d6 	ldrsb	lr, [sp, -r6]

00002b1c <l2596>:
    2b1c:	d16f4f15 	clzle	r4, r5

00002b20 <l2597>:
    2b20:	315709ca 	cmpcc	r7, sl, asr #19

00002b24 <interrupt_567>:
    2b24:	4061406c 	rsbmi	r4, r1, ip, rrx

00002b28 <l2599>:
    2b28:	e2cccc3b 	sbc	ip, ip, #15104	; 0x3b00

00002b2c <l2600>:
    2b2c:	e0dbe05c 	sbcs	lr, fp, ip, asr r0

00002b30 <l2601>:
    2b30:	a0000007 	andge	r0, r0, r7

00002b34 <l2602>:
    2b34:	e0513902 	subs	r3, r1, r2, lsl #18

00002b38 <l2603>:
    2b38:	e0568763 	subs	r8, r6, r3, ror #14

00002b3c <l2604>:
    2b3c:	e82d2000 	stmda	sp!, {sp}

00002b40 <l2605>:
    2b40:	ea000002 	b	2b50 <interrupt_431>

00002b44 <l2606>:
    2b44:	e28010f4 	add	r1, r0, #244	; 0xf4

00002b48 <interrupt_943>:
    2b48:	6078600c 	rsbsvs	r6, r8, ip

00002b4c <l2608>:
    2b4c:	ea000000 	b	2b54 <l2610>

00002b50 <interrupt_431>:
    2b50:	eafffffc 	b	2b48 <interrupt_943>

00002b54 <l2610>:
    2b54:	a0712008 	rsbsge	r2, r1, r8

00002b58 <l2611>:
    2b58:	e07b4c14 	rsbs	r4, fp, r4, lsl ip

00002b5c <l2612>:
    2b5c:	e54d100e 	strb	r1, [sp, #-14]

00002b60 <l2613>:
    2b60:	c0e58001 	rscgt	r8, r5, r1

00002b64 <l2614>:
    2b64:	e3a0a004 	mov	sl, #4

00002b68 <l2615>:
    2b68:	e7bd100a 	ldr	r1, [sp, sl]!

00002b6c <l2616>:
    2b6c:	91dd30b0 	ldrhls	r3, [sp]

00002b70 <l2617>:
    2b70:	00443000 	subeq	r3, r4, r0

00002b74 <l2618>:
    2b74:	82d730c5 	sbcshi	r3, r7, #197	; 0xc5

00002b78 <l2619>:
    2b78:	e90d7ffc 	stmdb	sp, {r2, r3, r4, r5, r6, r7, r8, r9, sl, fp, ip, sp, lr}

00002b7c <l2620>:
    2b7c:	c0a4e33e 	adcgt	lr, r4, lr, lsr r3

00002b80 <l2621>:
    2b80:	61b0e431 	lsrsvs	lr, r1, r4

00002b84 <l2622>:
    2b84:	e59fc000 	ldr	ip, [pc]	; 2b8c <l2624>

00002b88 <interrupt_767>:
    2b88:	ea000000 	b	2b90 <l2625>

00002b8c <l2624>:
    2b8c:	000fffb8 	.word	0x000fffb8

00002b90 <l2625>:
    2b90:	e14c2091 	swpb	r2, r1, [ip]

00002b94 <l2626>:
    2b94:	1a000008 	bne	2bbc <l2636>

00002b98 <l2627>:
    2b98:	e0dc6062 	sbcs	r6, ip, r2, rrx

00002b9c <interrupt_880>:
    2b9c:	e1530068 	cmp	r3, r8, rrx

00002ba0 <l2629>:
    2ba0:	63c28054 	bicvs	r8, r2, #84	; 0x54

00002ba4 <l2630>:
    2ba4:	e018aa05 	ands	sl, r8, r5, lsl #20

00002ba8 <l2631>:
    2ba8:	e25a18d5 	subs	r1, sl, #13959168	; 0xd50000

00002bac <l2632>:
    2bac:	21f0500b 	mvnscs	r5, fp

00002bb0 <l2633>:
    2bb0:	e2805005 	add	r5, r0, #5

00002bb4 <l2634>:
    2bb4:	e1e042ce 	mvn	r4, lr, asr #5

00002bb8 <l2635>:
    2bb8:	01750009 	cmneq	r5, r9

00002bbc <l2636>:
    2bbc:	81a00002 	movhi	r0, r2

00002bc0 <l2637>:
    2bc0:	8a000005 	bhi	2bdc <interrupt_60>

00002bc4 <l2638>:
    2bc4:	e2801012 	add	r1, r0, #18

00002bc8 <l2639>:
    2bc8:	b1e058a9 	mvnlt	r5, r9, lsr #17

00002bcc <interrupt_776>:
    2bcc:	e0b27148 	adcs	r7, r2, r8, asr #2

00002bd0 <l2641>:
    2bd0:	409aac10 	addsmi	sl, sl, r0, lsl ip

00002bd4 <l2642>:
    2bd4:	e218b837 	ands	fp, r8, #3604480	; 0x370000

00002bd8 <l2643>:
    2bd8:	ea000000 	b	2be0 <l2645>

00002bdc <interrupt_60>:
    2bdc:	eafffff9 	b	2bc8 <l2639>

00002be0 <l2645>:
    2be0:	e88d4082 	stm	sp, {r1, r7, lr}

00002be4 <l2646>:
    2be4:	b055100a 	subslt	r1, r5, sl

00002be8 <l2647>:
    2be8:	b14db1ba 	strhlt	fp, [sp, #-26]	; 0xffffffe6

00002bec <l2648>:
    2bec:	e48db00c 	str	fp, [sp], #12

00002bf0 <interrupt_413>:
    2bf0:	ba000005 	blt	2c0c <l2656>

00002bf4 <l2650>:
    2bf4:	e28010c0 	add	r1, r0, #192	; 0xc0

00002bf8 <l2651>:
    2bf8:	0049a731 	subeq	sl, r9, r1, lsr r7

00002bfc <l2652>:
    2bfc:	e087c009 	add	ip, r7, r9

00002c00 <l2653>:
    2c00:	e3a08ea7 	mov	r8, #2672	; 0xa70

00002c04 <interrupt_762>:
    2c04:	e092e975 	adds	lr, r2, r5, ror r9

00002c08 <interrupt_470>:
    2c08:	ea000000 	b	2c10 <interrupt_582>

00002c0c <l2656>:
    2c0c:	eafffff9 	b	2bf8 <l2651>

00002c10 <interrupt_582>:
    2c10:	e1f0c2eb 	mvns	ip, fp, ror #5

00002c14 <l2658>:
    2c14:	e41da00c 	ldr	sl, [sp], #-12

00002c18 <interrupt_21>:
    2c18:	e14d10b2 	strh	r1, [sp, #-2]

00002c1c <l2660>:
    2c1c:	e0f95918 	rscs	r5, r9, r8, lsl r9

00002c20 <l2661>:
    2c20:	71d3c066 	bicsvc	ip, r3, r6, rrx

00002c24 <interrupt_619>:
    2c24:	71160003 	tstvc	r6, r3

00002c28 <interrupt_703>:
    2c28:	a35700cb 	cmpge	r7, #203	; 0xcb

00002c2c <l2664>:
    2c2c:	e0a9e80c 	adc	lr, r9, ip, lsl #16

00002c30 <l2665>:
    2c30:	ea000004 	b	2c48 <interrupt_62>

00002c34 <l2666>:
    2c34:	e0911c48 	adds	r1, r1, r8, asr #24

00002c38 <l2667>:
    2c38:	40392063 	eorsmi	r2, r9, r3, rrx

00002c3c <l2668>:
    2c3c:	e3e00ba6 	mvn	r0, #169984	; 0x29800

00002c40 <l2669>:
    2c40:	12c1afd3 	sbcne	sl, r1, #844	; 0x34c

00002c44 <l2670>:
    2c44:	70e8c07c 	rscvc	ip, r8, ip, ror r0

00002c48 <interrupt_62>:
    2c48:	e1130112 	tst	r3, r2, lsl r1

00002c4c <l2672>:
    2c4c:	e82da000 	stmda	sp!, {sp, pc}

00002c50 <l2673>:
    2c50:	e3a0b016 	mov	fp, #22

00002c54 <l2674>:
    2c54:	910da0bb 	strhls	sl, [sp, -fp]

00002c58 <l2675>:
    2c58:	40ba3061 	adcsmi	r3, sl, r1, rrx

00002c5c <l2676>:
    2c5c:	216fef10 	clzcs	lr, r0

00002c60 <l2677>:
    2c60:	e91d0940 	ldmdb	sp, {r6, r8, fp}

00002c64 <l2678>:
    2c64:	c0630007 	rsbgt	r0, r3, r7

00002c68 <l2679>:
    2c68:	e3a03032 	mov	r3, #50	; 0x32

00002c6c <l2680>:
    2c6c:	011d60d3 	ldrsbeq	r6, [sp, -r3]

00002c70 <interrupt_474>:
    2c70:	ea000003 	b	2c84 <l2686>

00002c74 <interrupt_76>:
    2c74:	e280108a 	add	r1, r0, #138	; 0x8a

00002c78 <l2683>:
    2c78:	02525016 	subseq	r5, r2, #22

00002c7c <l2684>:
    2c7c:	30804065 	addcc	r4, r0, r5, rrx

00002c80 <l2685>:
    2c80:	ea000000 	b	2c88 <l2687>

00002c84 <l2686>:
    2c84:	eafffffb 	b	2c78 <l2683>

00002c88 <l2687>:
    2c88:	e1d69000 	bics	r9, r6, r0

00002c8c <l2688>:
    2c8c:	e59fb000 	ldr	fp, [pc]	; 2c94 <l2690>

00002c90 <l2689>:
    2c90:	ea000000 	b	2c98 <l2691>

00002c94 <l2690>:
    2c94:	000fffd8 	.word	0x000fffd8

00002c98 <l2691>:
    2c98:	e10bc091 	swp	ip, r1, [fp]

00002c9c <l2692>:
    2c9c:	e08eca74 	add	ip, lr, r4, ror sl

00002ca0 <interrupt_894>:
    2ca0:	4299323f 	addsmi	r3, r9, #-268435453	; 0xf0000003

00002ca4 <l2694>:
    2ca4:	e0624e7b 	rsb	r4, r2, fp, ror lr

00002ca8 <l2695>:
    2ca8:	53de9501 	bicspl	r9, lr, #4194304	; 0x400000

00002cac <l2696>:
    2cac:	e82d0e07 	stmda	sp!, {r0, r1, r2, r9, sl, fp}

00002cb0 <l2697>:
    2cb0:	5054c007 	subspl	ip, r4, r7

00002cb4 <l2698>:
    2cb4:	e3a0401a 	mov	r4, #26

00002cb8 <l2699>:
    2cb8:	018d70b4 	strheq	r7, [sp, r4]

00002cbc <interrupt_480>:
    2cbc:	e9ada000 	stmib	sp!, {sp, pc}

00002cc0 <l2701>:
    2cc0:	e3d213f5 	bics	r1, r2, #-738197501	; 0xd4000003

00002cc4 <l2702>:
    2cc4:	81120b30 	tsthi	r2, r0, lsr fp

00002cc8 <interrupt_406>:
    2cc8:	e0b67008 	adcs	r7, r6, r8

00002ccc <l2704>:
    2ccc:	e59fe000 	ldr	lr, [pc]	; 2cd4 <l2706>

00002cd0 <l2705>:
    2cd0:	ea000000 	b	2cd8 <interrupt_891>

00002cd4 <l2706>:
    2cd4:	000fffdc 	.word	0x000fffdc

00002cd8 <interrupt_891>:
    2cd8:	310e909b 	swpcc	r9, fp, [lr]

00002cdc <l2708>:
    2cdc:	11a0a934 	lsrne	sl, r4, r9

00002ce0 <l2709>:
    2ce0:	03390d1b 	teqeq	r9, #1728	; 0x6c0

00002ce4 <interrupt_317>:
    2ce4:	c1180f22 	tstgt	r8, r2, lsr #30

00002ce8 <interrupt_58>:
    2ce8:	e2daeacb 	sbcs	lr, sl, #831488	; 0xcb000

00002cec <l2712>:
    2cec:	21871237 	orrcs	r1, r7, r7, lsr r2

00002cf0 <l2713>:
    2cf0:	b16f1f13 	clzlt	r1, r3

00002cf4 <l2714>:
    2cf4:	72ec1645 	rscvc	r1, ip, #72351744	; 0x4500000

00002cf8 <l2715>:
    2cf8:	3186606b 	orrcc	r6, r6, fp, rrx

00002cfc <interrupt_391>:
    2cfc:	e3a0701c 	mov	r7, #28

00002d00 <l2717>:
    2d00:	e18d90b7 	strh	r9, [sp, r7]

00002d04 <l2718>:
    2d04:	b1590531 	cmplt	r9, r1, lsr r5

00002d08 <l2719>:
    2d08:	e59f2000 	ldr	r2, [pc]	; 2d10 <l2721>

00002d0c <l2720>:
    2d0c:	ea000000 	b	2d14 <l2722>

00002d10 <l2721>:
    2d10:	000fffa4 	.word	0x000fffa4

00002d14 <l2722>:
    2d14:	e1020097 	swp	r0, r7, [r2]

00002d18 <l2723>:
    2d18:	e3a05004 	mov	r5, #4

00002d1c <l2724>:
    2d1c:	e11d30f5 	ldrsh	r3, [sp, -r5]

00002d20 <l2725>:
    2d20:	e3180da2 	tst	r8, #10368	; 0x2880

00002d24 <l2726>:
    2d24:	ba000003 	blt	2d38 <l2731>

00002d28 <l2727>:
    2d28:	e280103f 	add	r1, r0, #63	; 0x3f

00002d2c <l2728>:
    2d2c:	2059e87e 	subscs	lr, r9, lr, ror r8

00002d30 <l2729>:
    2d30:	a06f1dc2 	rsbge	r1, pc, r2, asr #27

00002d34 <l2730>:
    2d34:	ea000000 	b	2d3c <interrupt_194>

00002d38 <l2731>:
    2d38:	eafffffb 	b	2d2c <l2728>

00002d3c <interrupt_194>:
    2d3c:	e27129f7 	rsbs	r2, r1, #4046848	; 0x3dc000

00002d40 <l2733>:
    2d40:	015d01fe 	ldrsheq	r0, [sp, #-30]	; 0xffffffe2

00002d44 <l2734>:
    2d44:	e3a0b018 	mov	fp, #24

00002d48 <l2735>:
    2d48:	e11da0db 	ldrsb	sl, [sp, -fp]

00002d4c <l2736>:
    2d4c:	e16f1f1c 	clz	r1, ip

00002d50 <l2737>:
    2d50:	e59f5000 	ldr	r5, [pc]	; 2d58 <l2739>

00002d54 <interrupt_24>:
    2d54:	ea000000 	b	2d5c <l2740>

00002d58 <l2739>:
    2d58:	000fffcc 	.word	0x000fffcc

00002d5c <l2740>:
    2d5c:	e1459099 	swpb	r9, r9, [r5]

00002d60 <l2741>:
    2d60:	e9ad8cbe 	stmib	sp!, {r1, r2, r3, r4, r5, r7, sl, fp, pc}

00002d64 <l2742>:
    2d64:	e59fb000 	ldr	fp, [pc]	; 2d6c <l2744>

00002d68 <interrupt_772>:
    2d68:	ea000000 	b	2d70 <l2745>

00002d6c <l2744>:
    2d6c:	000fffc8 	.word	0x000fffc8

00002d70 <l2745>:
    2d70:	810be094 	swphi	lr, r4, [fp]

00002d74 <l2746>:
    2d74:	2a000005 	bcs	2d90 <l2753>

00002d78 <l2747>:
    2d78:	31f0e92c 	mvnscc	lr, ip, lsr #18

00002d7c <interrupt_101>:
    2d7c:	e029900e 	eor	r9, r9, lr

00002d80 <l2749>:
    2d80:	3013706a 	andscc	r7, r3, sl, rrx

00002d84 <l2750>:
    2d84:	e190c009 	orrs	ip, r0, r9

00002d88 <l2751>:
    2d88:	e20cbcae 	and	fp, ip, #44544	; 0xae00

00002d8c <l2752>:
    2d8c:	e046c006 	sub	ip, r6, r6

00002d90 <l2753>:
    2d90:	e1c3800c 	bic	r8, r3, ip

00002d94 <l2754>:
    2d94:	c55d800d 	ldrbgt	r8, [sp, #-13]

00002d98 <l2755>:
    2d98:	e040e06e 	sub	lr, r0, lr, rrx

00002d9c <l2756>:
    2d9c:	e1c7ea2e 	bic	lr, r7, lr, lsr #20

00002da0 <interrupt_441>:
    2da0:	e281eaa7 	add	lr, r1, #684032	; 0xa7000

00002da4 <interrupt_95>:
    2da4:	e54db03e 	strb	fp, [sp, #-62]	; 0x3e

00002da8 <l2759>:
    2da8:	e0060077 	and	r0, r6, r7, ror r0

00002dac <l2760>:
    2dac:	e3a00008 	mov	r0, #8

00002db0 <interrupt_27>:
    2db0:	e72d1000 	str	r1, [sp, -r0]!

00002db4 <l2762>:
    2db4:	e3a0c028 	mov	ip, #40	; 0x28

00002db8 <l2763>:
    2db8:	e60dc00c 	str	ip, [sp], -ip

00002dbc <l2764>:
    2dbc:	e08686c7 	add	r8, r6, r7, asr #13

00002dc0 <l2765>:
    2dc0:	e3a01012 	mov	r1, #18

00002dc4 <interrupt_904>:
    2dc4:	c19d00b1 	ldrhgt	r0, [sp, r1]

00002dc8 <l2767>:
    2dc8:	e3a0200c 	mov	r2, #12

00002dcc <l2768>:
    2dcc:	97cdc002 	strbls	ip, [sp, r2]

00002dd0 <interrupt_888>:
    2dd0:	50c9600e 	sbcpl	r6, r9, lr

00002dd4 <l2770>:
    2dd4:	ea000002 	b	2de4 <l2774>

00002dd8 <l2771>:
    2dd8:	d16fcf17 	clzle	ip, r7

00002ddc <l2772>:
    2ddc:	e08c366e 	add	r3, ip, lr, ror #12

00002de0 <l2773>:
    2de0:	e2e2899d 	rsc	r8, r2, #2572288	; 0x274000

00002de4 <l2774>:
    2de4:	20284068 	eorcs	r4, r8, r8, rrx

00002de8 <l2775>:
    2de8:	e59f9000 	ldr	r9, [pc]	; 2df0 <l2777>

00002dec <l2776>:
    2dec:	ea000000 	b	2df4 <l2778>

00002df0 <l2777>:
    2df0:	000fffbc 	.word	0x000fffbc

00002df4 <l2778>:
    2df4:	61095098 	swpvs	r5, r8, [r9]

00002df8 <interrupt_503>:
    2df8:	4a000007 	bmi	2e1c <l2788>

00002dfc <l2780>:
    2dfc:	e280105c 	add	r1, r0, #92	; 0x5c

00002e00 <l2781>:
    2e00:	e3570f79 	cmp	r7, #484	; 0x1e4

00002e04 <l2782>:
    2e04:	2039600b 	eorscs	r6, r9, fp

00002e08 <l2783>:
    2e08:	e3a08b19 	mov	r8, #25600	; 0x6400

00002e0c <l2784>:
    2e0c:	8075b856 	rsbshi	fp, r5, r6, asr r8

00002e10 <interrupt_819>:
    2e10:	5028b00b 	eorpl	fp, r8, fp

00002e14 <l2786>:
    2e14:	e16f0f13 	clz	r0, r3

00002e18 <l2787>:
    2e18:	ea000000 	b	2e20 <l2789>

00002e1c <l2788>:
    2e1c:	eafffff7 	b	2e00 <l2781>

00002e20 <l2789>:
    2e20:	504a6c1a 	subpl	r6, sl, sl, lsl ip

00002e24 <l2790>:
    2e24:	e15e0d6e 	cmp	lr, lr, ror #26

00002e28 <l2791>:
    2e28:	e3a08030 	mov	r8, #48	; 0x30

00002e2c <l2792>:
    2e2c:	97cdb008 	strbls	fp, [sp, r8]

00002e30 <l2793>:
    2e30:	e157006f 	cmp	r7, pc, rrx

00002e34 <l2794>:
    2e34:	70787b15 	rsbsvc	r7, r8, r5, lsl fp

00002e38 <l2795>:
    2e38:	52f1a13a 	rscspl	sl, r1, #-2147483634	; 0x8000000e

00002e3c <interrupt_996>:
    2e3c:	6a000004 	bvs	2e54 <l2802>

00002e40 <l2797>:
    2e40:	e1730009 	cmn	r3, r9

00002e44 <interrupt_910>:
    2e44:	e11c000e 	tst	ip, lr

00002e48 <l2799>:
    2e48:	e01a0062 	ands	r0, sl, r2, rrx

00002e4c <l2800>:
    2e4c:	503ac979 	eorspl	ip, sl, r9, ror r9

00002e50 <l2801>:
    2e50:	50cb492f 	sbcpl	r4, fp, pc, lsr #18

00002e54 <l2802>:
    2e54:	30795e0c 	rsbscc	r5, r9, ip, lsl #28

00002e58 <l2803>:
    2e58:	b0d7101a 	sbcslt	r1, r7, sl, lsl r0

00002e5c <l2804>:
    2e5c:	013904ea 	teqeq	r9, sl, ror #9

00002e60 <l2805>:
    2e60:	e1dd71b4 	ldrh	r7, [sp, #20]

00002e64 <l2806>:
    2e64:	e3a0100c 	mov	r1, #12

00002e68 <l2807>:
    2e68:	475d3001 	ldrbmi	r3, [sp, -r1]

00002e6c <l2808>:
    2e6c:	90b0700f 	adcsls	r7, r0, pc

00002e70 <interrupt_558>:
    2e70:	e1a00000 	nop			; (mov r0, r0)

00002e74 <l2810>:
    2e74:	ea000004 	b	2e8c <l2816>

00002e78 <l2811>:
    2e78:	e280107f 	add	r1, r0, #127	; 0x7f

00002e7c <l2812>:
    2e7c:	31110004 	tstcc	r1, r4

00002e80 <l2813>:
    2e80:	e02f7068 	eor	r7, pc, r8, rrx

00002e84 <l2814>:
    2e84:	a038503c 	eorsge	r5, r8, ip, lsr r0

00002e88 <l2815>:
    2e88:	ea000000 	b	2e90 <l2817>

00002e8c <l2816>:
    2e8c:	eafffffa 	b	2e7c <l2812>

00002e90 <l2817>:
    2e90:	e0d912e0 	sbcs	r1, r9, r0, ror #5

00002e94 <interrupt_981>:
    2e94:	e59fb000 	ldr	fp, [pc]	; 2e9c <l2820>

00002e98 <interrupt_515>:
    2e98:	ea000000 	b	2ea0 <l2821>

00002e9c <l2820>:
    2e9c:	000fffc4 	.word	0x000fffc4

00002ea0 <l2821>:
    2ea0:	614b5093 	swpbvs	r5, r3, [fp]

00002ea4 <l2822>:
    2ea4:	3155001b 	cmpcc	r5, fp, lsl r0

00002ea8 <l2823>:
    2ea8:	e054c007 	subs	ip, r4, r7

00002eac <interrupt_708>:
    2eac:	e0a42005 	adc	r2, r4, r5

00002eb0 <interrupt_278>:
    2eb0:	3040296f 	subcc	r2, r0, pc, ror #18

00002eb4 <l2826>:
    2eb4:	31b0800f 	movscc	r8, pc

00002eb8 <l2827>:
    2eb8:	e81d0020 	ldmda	sp, {r5}

00002ebc <l2828>:
    2ebc:	150db008 	strne	fp, [sp, #-8]

00002ec0 <l2829>:
    2ec0:	a11e006b 	tstge	lr, fp, rrx

00002ec4 <l2830>:
    2ec4:	ea000007 	b	2ee8 <interrupt_311>

00002ec8 <l2831>:
    2ec8:	e28010ce 	add	r1, r0, #206	; 0xce

00002ecc <l2832>:
    2ecc:	e0d97e60 	sbcs	r7, r9, r0, ror #28

00002ed0 <l2833>:
    2ed0:	e16faf14 	clz	sl, r4

00002ed4 <l2834>:
    2ed4:	c1d70007 	bicsgt	r0, r7, r7

00002ed8 <l2835>:
    2ed8:	e1866c20 	orr	r6, r6, r0, lsr #24

00002edc <l2836>:
    2edc:	e3e05105 	mvn	r5, #1073741825	; 0x40000001

00002ee0 <interrupt_486>:
    2ee0:	915a0408 	cmpls	sl, r8, lsl #8

00002ee4 <l2838>:
    2ee4:	ea000000 	b	2eec <l2840>

00002ee8 <interrupt_311>:
    2ee8:	eafffff7 	b	2ecc <l2832>

00002eec <l2840>:
    2eec:	71c49004 	bicvc	r9, r4, r4

00002ef0 <l2841>:
    2ef0:	c90d0008 	stmdbgt	sp, {r3}

00002ef4 <l2842>:
    2ef4:	30a11c5e 	adccc	r1, r1, lr, asr ip

00002ef8 <l2843>:
    2ef8:	e18a9003 	orr	r9, sl, r3

00002efc <l2844>:
    2efc:	259d400c 	ldrcs	r4, [sp, #12]

00002f00 <l2845>:
    2f00:	e0d1a004 	sbcs	sl, r1, r4

00002f04 <l2846>:
    2f04:	52947451 	addspl	r7, r4, #1358954496	; 0x51000000

00002f08 <l2847>:
    2f08:	e3a0302c 	mov	r3, #44	; 0x2c

00002f0c <l2848>:
    2f0c:	618db0b3 	strhvs	fp, [sp, r3]

00002f10 <interrupt_829>:
    2f10:	e0fbc004 	rscs	ip, fp, r4

00002f14 <l2850>:
    2f14:	e042158e 	sub	r1, r2, lr, lsl #11

00002f18 <interrupt_137>:
    2f18:	604fa00b 	subvs	sl, pc, fp

00002f1c <l2852>:
    2f1c:	e3a0802e 	mov	r8, #46	; 0x2e

00002f20 <l2853>:
    2f20:	e18db0b8 	strh	fp, [sp, r8]

00002f24 <l2854>:
    2f24:	401489a7 	andsmi	r8, r4, r7, lsr #19

00002f28 <l2855>:
    2f28:	b11c000c 	tstlt	ip, ip

00002f2c <interrupt_192>:
    2f2c:	b0f8b9a1 	rscslt	fp, r8, r1, lsr #19

00002f30 <l2857>:
    2f30:	e3a02014 	mov	r2, #20

00002f34 <l2858>:
    2f34:	e61d1002 	ldr	r1, [sp], -r2

00002f38 <interrupt_905>:
    2f38:	e0b90001 	adcs	r0, r9, r1

00002f3c <l2860>:
    2f3c:	e99d523a 	ldmib	sp, {r1, r3, r4, r5, r9, ip, lr}

00002f40 <interrupt_620>:
    2f40:	c1e06069 	mvngt	r6, r9, rrx

00002f44 <l2862>:
    2f44:	11d6324f 	bicsne	r3, r6, pc, asr #4

00002f48 <l2863>:
    2f48:	e59fb000 	ldr	fp, [pc]	; 2f50 <l2865>

00002f4c <interrupt_498>:
    2f4c:	ea000000 	b	2f54 <interrupt_793>

00002f50 <l2865>:
    2f50:	000fffb4 	.word	0x000fffb4

00002f54 <interrupt_793>:
    2f54:	b14b5097 	swpblt	r5, r7, [fp]

00002f58 <l2867>:
    2f58:	e02c5002 	eor	r5, ip, r2

00002f5c <l2868>:
    2f5c:	e1b07d41 	asrs	r7, r1, #26

00002f60 <l2869>:
    2f60:	c16f6f18 	clzgt	r6, r8

00002f64 <interrupt_816>:
    2f64:	516fbf1e 	clzpl	fp, lr

00002f68 <interrupt_941>:
    2f68:	e3a04018 	mov	r4, #24

00002f6c <l2872>:
    2f6c:	678d2004 	strvs	r2, [sp, r4]

00002f70 <l2873>:
    2f70:	e15a000f 	cmp	sl, pc

00002f74 <l2874>:
    2f74:	e3a08040 	mov	r8, #64	; 0x40

00002f78 <l2875>:
    2f78:	e69d4008 	ldr	r4, [sp], r8

00002f7c <interrupt_42>:
    2f7c:	415d62fc 	ldrshmi	r6, [sp, #-44]	; 0xffffffd4

00002f80 <l2877>:
    2f80:	e1a00000 	nop			; (mov r0, r0)

00002f84 <interrupt_678>:
    2f84:	e1140007 	tst	r4, r7

00002f88 <l2879>:
    2f88:	e3a0602b 	mov	r6, #43	; 0x2b

00002f8c <l2880>:
    2f8c:	911d90d6 	ldrsbls	r9, [sp, -r6]

00002f90 <interrupt_308>:
    2f90:	10943005 	addsne	r3, r4, r5

00002f94 <l2882>:
    2f94:	e0c91001 	sbc	r1, r9, r1

00002f98 <l2883>:
    2f98:	e3a01043 	mov	r1, #67	; 0x43

00002f9c <l2884>:
    2f9c:	e75d7001 	ldrb	r7, [sp, -r1]

00002fa0 <l2885>:
    2fa0:	e3a00010 	mov	r0, #16

00002fa4 <l2886>:
    2fa4:	d74d4000 	strble	r4, [sp, -r0]

00002fa8 <l2887>:
    2fa8:	e3a07032 	mov	r7, #50	; 0x32

00002fac <l2888>:
    2fac:	e11dc0b7 	ldrh	ip, [sp, -r7]

00002fb0 <interrupt_663>:
    2fb0:	e3a0e033 	mov	lr, #51	; 0x33

00002fb4 <l2890>:
    2fb4:	d11d70de 	ldrsble	r7, [sp, -lr]

00002fb8 <l2891>:
    2fb8:	ea000004 	b	2fd0 <l2897>

00002fbc <l2892>:
    2fbc:	e2801099 	add	r1, r0, #153	; 0x99

00002fc0 <l2893>:
    2fc0:	4053c50c 	subsmi	ip, r3, ip, lsl #10

00002fc4 <l2894>:
    2fc4:	a35908bf 	cmpge	r9, #12517376	; 0xbf0000

00002fc8 <interrupt_271>:
    2fc8:	4158007c 	cmpmi	r8, ip, ror r0

00002fcc <l2896>:
    2fcc:	ea000000 	b	2fd4 <interrupt_275>

00002fd0 <l2897>:
    2fd0:	eafffffa 	b	2fc0 <l2893>

00002fd4 <interrupt_275>:
    2fd4:	707a1d21 	rsbsvc	r1, sl, r1, lsr #26

00002fd8 <l2899>:
    2fd8:	e55de006 	ldrb	lr, [sp, #-6]

00002fdc <l2900>:
    2fdc:	4056c319 	subsmi	ip, r6, r9, lsl r3

00002fe0 <l2901>:
    2fe0:	e51d901c 	ldr	r9, [sp, #-28]

00002fe4 <l2902>:
    2fe4:	b3a0031a 	movlt	r0, #1744830464	; 0x68000000

00002fe8 <l2903>:
    2fe8:	2049b059 	subcs	fp, r9, r9, asr r0

00002fec <l2904>:
    2fec:	71f07002 	mvnsvc	r7, r2

00002ff0 <l2905>:
    2ff0:	e04b9753 	sub	r9, fp, r3, asr r7

00002ff4 <l2906>:
    2ff4:	d1c61008 	bicle	r1, r6, r8

00002ff8 <interrupt_48>:
    2ff8:	e3a0a024 	mov	sl, #36	; 0x24

00002ffc <l2908>:
    2ffc:	e73d800a 	ldr	r8, [sp, -sl]!

00003000 <l2909>:
    3000:	23550909 	cmpcs	r5, #147456	; 0x24000

00003004 <interrupt_734>:
    3004:	e9ad04f5 	stmib	sp!, {r0, r2, r4, r5, r6, r7, sl}

00003008 <l2911>:
    3008:	354de029 	strbcc	lr, [sp, #-41]	; 0x29

0000300c <l2912>:
    300c:	a13f000f 	teqge	pc, pc

00003010 <l2913>:
    3010:	d11a0005 	tstle	sl, r5

00003014 <l2914>:
    3014:	e3a0701c 	mov	r7, #28

00003018 <interrupt_854>:
    3018:	211dc0b7 	ldrhcs	ip, [sp, -r7]

0000301c <l2916>:
    301c:	e3a0b03c 	mov	fp, #60	; 0x3c

00003020 <interrupt_184>:
    3020:	e11db0bb 	ldrh	fp, [sp, -fp]

00003024 <l2918>:
    3024:	e49de000 	ldr	lr, [sp], #0

00003028 <l2919>:
    3028:	e41d9024 	ldr	r9, [sp], #-36	; 0x24

0000302c <l2920>:
    302c:	e1e0141b 	mvn	r1, fp, lsl r4

00003030 <l2921>:
    3030:	82d87d9b 	sbcshi	r7, r8, #9920	; 0x26c0

00003034 <interrupt_66>:
    3034:	e01c5e19 	ands	r5, ip, r9, lsl lr

00003038 <l2923>:
    3038:	c1d99062 	bicsgt	r9, r9, r2, rrx

0000303c <l2924>:
    303c:	e3a01004 	mov	r1, #4

00003040 <l2925>:
    3040:	b11d60f1 	ldrshlt	r6, [sp, -r1]

00003044 <l2926>:
    3044:	e93d4424 	ldmdb	sp!, {r2, r5, sl, lr}

00003048 <l2927>:
    3048:	e59f2000 	ldr	r2, [pc]	; 3050 <l2929>

0000304c <l2928>:
    304c:	ea000000 	b	3054 <interrupt_741>

00003050 <l2929>:
    3050:	000fffd8 	.word	0x000fffd8

00003054 <interrupt_741>:
    3054:	6102c094 	swpvs	ip, r4, [r2]

00003058 <l2931>:
    3058:	215d20b8 	ldrhcs	r2, [sp, #-8]

0000305c <interrupt_234>:
    305c:	a139016e 	teqge	r9, lr, ror #2

00003060 <l2933>:
    3060:	e1c89914 	bic	r9, r8, r4, lsl r9

00003064 <interrupt_745>:
    3064:	e15d40d8 	ldrsb	r4, [sp, #-8]

00003068 <l2935>:
    3068:	e19a6723 	orrs	r6, sl, r3, lsr #14

0000306c <interrupt_373>:
    306c:	41f04068 	mvnsmi	r4, r8, rrx

00003070 <l2937>:
    3070:	e1db6065 	bics	r6, fp, r5, rrx

00003074 <l2938>:
    3074:	6a000002 	bvs	3084 <l2942>

00003078 <l2939>:
    3078:	e2801031 	add	r1, r0, #49	; 0x31

0000307c <l2940>:
    307c:	d052c005 	subsle	ip, r2, r5

00003080 <l2941>:
    3080:	ea000000 	b	3088 <l2943>

00003084 <l2942>:
    3084:	eafffffc 	b	307c <l2940>

00003088 <l2943>:
    3088:	309987c5 	addscc	r8, r9, r5, asr #15

0000308c <l2944>:
    308c:	92fa9936 	rscsls	r9, sl, #884736	; 0xd8000

00003090 <l2945>:
    3090:	e3a04008 	mov	r4, #8

00003094 <l2946>:
    3094:	218d10b4 	strhcs	r1, [sp, r4]

00003098 <l2947>:
    3098:	e3b05305 	movs	r5, #335544320	; 0x14000000

0000309c <l2948>:
    309c:	e3a0700c 	mov	r7, #12

000030a0 <l2949>:
    30a0:	e7bd7007 	ldr	r7, [sp, r7]!

000030a4 <l2950>:
    30a4:	e59f0000 	ldr	r0, [pc]	; 30ac <l2952>

000030a8 <l2951>:
    30a8:	ea000000 	b	30b0 <l2953>

000030ac <l2952>:
    30ac:	000fffc4 	.word	0x000fffc4

000030b0 <l2953>:
    30b0:	21409099 	swpbcs	r9, r9, [r0]

000030b4 <l2954>:
    30b4:	e3a0c024 	mov	ip, #36	; 0x24

000030b8 <l2955>:
    30b8:	e19da0dc 	ldrsb	sl, [sp, ip]

000030bc <l2956>:
    30bc:	0258c55e 	subseq	ip, r8, #394264576	; 0x17800000

000030c0 <interrupt_306>:
    30c0:	e3a02004 	mov	r2, #4

000030c4 <l2958>:
    30c4:	d19d10b2 	ldrhle	r1, [sp, r2]

000030c8 <l2959>:
    30c8:	92d21b52 	sbcsls	r1, r2, #83968	; 0x14800

000030cc <l2960>:
    30cc:	8198e000 	orrshi	lr, r8, r0

000030d0 <interrupt_188>:
    30d0:	e3a0902f 	mov	r9, #47	; 0x2f

000030d4 <interrupt_336>:
    30d4:	87cd6009 	strbhi	r6, [sp, r9]

000030d8 <l2963>:
    30d8:	c03aa08a 	eorsgt	sl, sl, sl, lsl #1

000030dc <interrupt_926>:
    30dc:	80403069 	subhi	r3, r0, r9, rrx

000030e0 <interrupt_384>:
    30e0:	e1c18ae5 	bic	r8, r1, r5, ror #21

000030e4 <l2966>:
    30e4:	e15d00d5 	ldrsb	r0, [sp, #-5]

000030e8 <l2967>:
    30e8:	e1d7100f 	bics	r1, r7, pc

000030ec <l2968>:
    30ec:	e59fa000 	ldr	sl, [pc]	; 30f4 <l2970>

000030f0 <interrupt_665>:
    30f0:	ea000000 	b	30f8 <l2971>

000030f4 <l2970>:
    30f4:	000fffa8 	.word	0x000fffa8

000030f8 <l2971>:
    30f8:	b10a0090 	swplt	r0, r0, [sl]

000030fc <interrupt_799>:
    30fc:	e0ebc00e 	rsc	ip, fp, lr

00003100 <l2973>:
    3100:	e1c6b00b 	bic	fp, r6, fp

00003104 <l2974>:
    3104:	e1130b53 	tst	r3, r3, asr fp

00003108 <l2975>:
    3108:	e3a0e022 	mov	lr, #34	; 0x22

0000310c <l2976>:
    310c:	719d60be 	ldrhvc	r6, [sp, lr]

00003110 <l2977>:
    3110:	e3a0e026 	mov	lr, #38	; 0x26

00003114 <l2978>:
    3114:	819d20de 	ldrsbhi	r2, [sp, lr]

00003118 <l2979>:
    3118:	e5cdc011 	strb	ip, [sp, #17]

0000311c <l2980>:
    311c:	e3a06010 	mov	r6, #16

00003120 <l2981>:
    3120:	719d10d6 	ldrsbvc	r1, [sp, r6]

00003124 <l2982>:
    3124:	a135006e 	teqge	r5, lr, rrx

00003128 <l2983>:
    3128:	e3a03008 	mov	r3, #8

0000312c <l2984>:
    312c:	e69d8003 	ldr	r8, [sp], r3

00003130 <l2985>:
    3130:	e1b0726b 	rors	r7, fp, #4

00003134 <l2986>:
    3134:	e04c4e88 	sub	r4, ip, r8, lsl #29

00003138 <l2987>:
    3138:	e1a0036e 	ror	r0, lr, #6

0000313c <l2988>:
    313c:	e80d5045 	stmda	sp, {r0, r2, r6, ip, lr}

00003140 <l2989>:
    3140:	d89d0008 	ldmle	sp, {r3}

00003144 <l2990>:
    3144:	25cd102f 	strbcs	r1, [sp, #47]	; 0x2f

00003148 <interrupt_359>:
    3148:	e5bdc018 	ldr	ip, [sp, #24]!

0000314c <l2992>:
    314c:	1003b060 	andne	fp, r3, r0, rrx

00003150 <l2993>:
    3150:	e0c27759 	sbc	r7, r2, r9, asr r7

00003154 <l2994>:
    3154:	616f9f13 	clzvs	r9, r3

00003158 <l2995>:
    3158:	c2d39cca 	sbcsgt	r9, r3, #51712	; 0xca00

0000315c <l2996>:
    315c:	e3570521 	cmp	r7, #138412032	; 0x8400000

00003160 <l2997>:
    3160:	ea000003 	b	3174 <l3002>

00003164 <l2998>:
    3164:	e0c4317e 	sbc	r3, r4, lr, ror r1

00003168 <interrupt_555>:
    3168:	c155000e 	cmpgt	r5, lr

0000316c <l3000>:
    316c:	63e03c2a 	mvnvs	r3, #10752	; 0x2a00

00003170 <l3001>:
    3170:	e01296a1 	ands	r9, r2, r1, lsr #13

00003174 <l3002>:
    3174:	e219e313 	ands	lr, r9, #1275068416	; 0x4c000000

00003178 <l3003>:
    3178:	e3a0900c 	mov	r9, #12

0000317c <l3004>:
    317c:	671dc009 	ldrvs	ip, [sp, -r9]

00003180 <l3005>:
    3180:	e1b09a4f 	asrs	r9, pc, #20

00003184 <l3006>:
    3184:	655de00e 	ldrbvs	lr, [sp, #-14]

00003188 <l3007>:
    3188:	e37802c9 	cmn	r8, #-1879048180	; 0x9000000c

0000318c <l3008>:
    318c:	e179000e 	cmn	r9, lr

00003190 <l3009>:
    3190:	e3370773 	teq	r7, #30146560	; 0x1cc0000

00003194 <l3010>:
    3194:	8244e313 	subhi	lr, r4, #1275068416	; 0x4c000000

00003198 <interrupt_163>:
    3198:	e59fb000 	ldr	fp, [pc]	; 31a0 <interrupt_17>

0000319c <l3012>:
    319c:	ea000000 	b	31a4 <l3014>

000031a0 <interrupt_17>:
    31a0:	000fffdc 	.word	0x000fffdc

000031a4 <l3014>:
    31a4:	710b309e 	swpvc	r3, lr, [fp]

000031a8 <l3015>:
    31a8:	5000000e 	andpl	r0, r0, lr

000031ac <interrupt_952>:
    31ac:	e0ca306e 	sbc	r3, sl, lr, rrx

000031b0 <l3017>:
    31b0:	62795015 	rsbsvs	r5, r9, #21

000031b4 <l3018>:
    31b4:	e2ef4e77 	rsc	r4, pc, #1904	; 0x770

000031b8 <l3019>:
    31b8:	e3a0401e 	mov	r4, #30

000031bc <interrupt_9>:
    31bc:	275d9004 	ldrbcs	r9, [sp, -r4]

000031c0 <l3021>:
    31c0:	01f0233a 	mvnseq	r2, sl, lsr r3

000031c4 <interrupt_706>:
    31c4:	ea000006 	b	31e4 <l3030>

000031c8 <l3023>:
    31c8:	519193c0 	orrspl	r9, r1, r0, asr #7

000031cc <l3024>:
    31cc:	13170176 	tstne	r7, #-2147483619	; 0x8000001d

000031d0 <l3025>:
    31d0:	017b0005 	cmneq	fp, r5

000031d4 <l3026>:
    31d4:	c2cf4054 	sbcgt	r4, pc, #84	; 0x54

000031d8 <l3027>:
    31d8:	e0b2b1a0 	adcs	fp, r2, r0, lsr #3

000031dc <interrupt_348>:
    31dc:	b2d67ca7 	sbcslt	r7, r6, #42752	; 0xa700

000031e0 <l3029>:
    31e0:	e0253054 	eor	r3, r5, r4, asr r0

000031e4 <l3030>:
    31e4:	91550002 	cmpls	r5, r2

000031e8 <l3031>:
    31e8:	e16faf17 	clz	sl, r7

000031ec <l3032>:
    31ec:	e3180986 	tst	r8, #2195456	; 0x218000

000031f0 <interrupt_869>:
    31f0:	e80d0115 	stmda	sp, {r0, r2, r4, r8}

000031f4 <interrupt_548>:
    31f4:	e0d3c001 	sbcs	ip, r3, r1

000031f8 <l3035>:
    31f8:	c0175b36 	andsgt	r5, r7, r6, lsr fp

000031fc <l3036>:
    31fc:	e3a09010 	mov	r9, #16

00003200 <l3037>:
    3200:	c78d2009 	strgt	r2, [sp, r9]

00003204 <l3038>:
    3204:	e3a0900f 	mov	r9, #15

00003208 <l3039>:
    3208:	e7cd2009 	strb	r2, [sp, r9]

0000320c <interrupt_59>:
    320c:	6a000002 	bvs	321c <l3044>

00003210 <l3041>:
    3210:	73cf24f9 	bicvc	r2, pc, #-117440512	; 0xf9000000

00003214 <l3042>:
    3214:	b1160175 	tstlt	r6, r5, ror r1

00003218 <l3043>:
    3218:	e2eb641f 	rsc	r6, fp, #520093696	; 0x1f000000

0000321c <l3044>:
    321c:	c196b070 	orrsgt	fp, r6, r0, ror r0

00003220 <interrupt_75>:
    3220:	82c985b5 	sbchi	r8, r9, #759169024	; 0x2d400000

00003224 <l3046>:
    3224:	e0407c58 	sub	r7, r0, r8, asr ip

00003228 <l3047>:
    3228:	e59fb000 	ldr	fp, [pc]	; 3230 <interrupt_651>

0000322c <l3048>:
    322c:	ea000000 	b	3234 <interrupt_667>

00003230 <interrupt_651>:
    3230:	000fffd0 	.word	0x000fffd0

00003234 <interrupt_667>:
    3234:	e10b109c 	swp	r1, ip, [fp]

00003238 <interrupt_465>:
    3238:	72d236f7 	sbcsvc	r3, r2, #258998272	; 0xf700000

0000323c <l3052>:
    323c:	e0f5b003 	rscs	fp, r5, r3

00003240 <l3053>:
    3240:	e3e00f4d 	mvn	r0, #308	; 0x134

00003244 <l3054>:
    3244:	115108a3 	cmpne	r1, r3, lsr #17

00003248 <l3055>:
    3248:	93a06591 	movls	r6, #608174080	; 0x24400000

0000324c <l3056>:
    324c:	ea000006 	b	326c <l3064>

00003250 <l3057>:
    3250:	20b52501 	adcscs	r2, r5, r1, lsl #10

00003254 <l3058>:
    3254:	208c0ec1 	addcs	r0, ip, r1, asr #29

00003258 <l3059>:
    3258:	20506310 	subscs	r6, r0, r0, lsl r3

0000325c <l3060>:
    325c:	c0eb3563 	rscgt	r3, fp, r3, ror #10

00003260 <l3061>:
    3260:	e0350061 	eors	r0, r5, r1, rrx

00003264 <l3062>:
    3264:	e3e00d5f 	mvn	r0, #6080	; 0x17c0

00003268 <interrupt_499>:
    3268:	e1350fec 	teq	r5, ip, ror #31

0000326c <l3064>:
    326c:	e1580dc8 	cmp	r8, r8, asr #27

00003270 <l3065>:
    3270:	909fe063 	addsls	lr, pc, r3, rrx

00003274 <l3066>:
    3274:	e90dfcb6 	stmdb	sp, {r1, r2, r4, r5, r7, sl, fp, ip, sp, lr, pc}

00003278 <interrupt_683>:
    3278:	d0fe5b0f 	rscsle	r5, lr, pc, lsl #22

0000327c <l3068>:
    327c:	b0fbb273 	rscslt	fp, fp, r3, ror r2

00003280 <l3069>:
    3280:	b3d65106 	bicslt	r5, r6, #-2147483647	; 0x80000001

00003284 <l3070>:
    3284:	e9ad0486 	stmib	sp!, {r1, r2, r7, sl}

00003288 <interrupt_556>:
    3288:	e1f0a066 	mvns	sl, r6, rrx

0000328c <l3072>:
    328c:	d1b02005 	movsle	r2, r5

00003290 <l3073>:
    3290:	e3a04008 	mov	r4, #8

00003294 <l3074>:
    3294:	e11d90b4 	ldrh	r9, [sp, -r4]

00003298 <l3075>:
    3298:	781d4044 	ldmdavc	sp, {r2, r6, lr}

0000329c <l3076>:
    329c:	90c63007 	sbcls	r3, r6, r7

000032a0 <l3077>:
    32a0:	e33705f7 	teq	r7, #1035993088	; 0x3dc00000

000032a4 <interrupt_549>:
    32a4:	c14de1b0 	strhgt	lr, [sp, #-16]

000032a8 <l3079>:
    32a8:	51d94063 	bicspl	r4, r9, r3, rrx

000032ac <l3080>:
    32ac:	e3a0b026 	mov	fp, #38	; 0x26

000032b0 <l3081>:
    32b0:	011d30fb 	ldrsheq	r3, [sp, -fp]

000032b4 <l3082>:
    32b4:	615db1b6 	ldrhvs	fp, [sp, #-22]	; 0xffffffea

000032b8 <l3083>:
    32b8:	1190598a 	orrsne	r5, r0, sl, lsl #19

000032bc <l3084>:
    32bc:	e9ad0002 	stmib	sp!, {r1}

000032c0 <l3085>:
    32c0:	e1780009 	cmn	r8, r9

000032c4 <l3086>:
    32c4:	7009ea01 	andvc	lr, r9, r1, lsl #20

000032c8 <l3087>:
    32c8:	23f040b7 	mvnscs	r4, #183	; 0xb7

000032cc <l3088>:
    32cc:	7a000005 	bvc	32e8 <l3095>

000032d0 <l3089>:
    32d0:	e2801024 	add	r1, r0, #36	; 0x24

000032d4 <interrupt_422>:
    32d4:	d0f26a8e 	rscsle	r6, r2, lr, lsl #21

000032d8 <l3091>:
    32d8:	50e2297e 	rscpl	r2, r2, lr, ror r9

000032dc <l3092>:
    32dc:	e1b07003 	movs	r7, r3

000032e0 <l3093>:
    32e0:	e1cb7009 	bic	r7, fp, r9

000032e4 <l3094>:
    32e4:	ea000000 	b	32ec <interrupt_29>

000032e8 <l3095>:
    32e8:	eafffff9 	b	32d4 <interrupt_422>

000032ec <interrupt_29>:
    32ec:	a1310008 	teqge	r1, r8

000032f0 <l3097>:
    32f0:	e1100002 	tst	r0, r2

000032f4 <l3098>:
    32f4:	1a000002 	bne	3304 <interrupt_893>

000032f8 <l3099>:
    32f8:	e28010d9 	add	r1, r0, #217	; 0xd9

000032fc <interrupt_821>:
    32fc:	e0da8c88 	sbcs	r8, sl, r8, lsl #25

00003300 <l3101>:
    3300:	ea000000 	b	3308 <l3103>

00003304 <interrupt_893>:
    3304:	eafffffc 	b	32fc <interrupt_821>

00003308 <l3103>:
    3308:	e3a0b026 	mov	fp, #38	; 0x26

0000330c <interrupt_895>:
    330c:	e11dc0db 	ldrsb	ip, [sp, -fp]

00003310 <l3105>:
    3310:	20479a67 	subcs	r9, r7, r7, ror #20

00003314 <l3106>:
    3314:	e3a0e01c 	mov	lr, #28

00003318 <l3107>:
    3318:	e11da0be 	ldrh	sl, [sp, -lr]

0000331c <l3108>:
    331c:	e59f9000 	ldr	r9, [pc]	; 3324 <l3110>

00003320 <l3109>:
    3320:	ea000000 	b	3328 <interrupt_231>

00003324 <l3110>:
    3324:	000fffb4 	.word	0x000fffb4

00003328 <interrupt_231>:
    3328:	4149c09b 	swpbmi	ip, fp, [r9]

0000332c <l3112>:
    332c:	e1100005 	tst	r0, r5

00003330 <l3113>:
    3330:	a01b100e 	andsge	r1, fp, lr

00003334 <l3114>:
    3334:	e1a00000 	nop			; (mov r0, r0)

00003338 <l3115>:
    3338:	e59f9000 	ldr	r9, [pc]	; 3340 <l3117>

0000333c <l3116>:
    333c:	ea000000 	b	3344 <l3118>

00003340 <l3117>:
    3340:	000fffd8 	.word	0x000fffd8

00003344 <l3118>:
    3344:	7109e093 	swpvc	lr, r3, [r9]

00003348 <l3119>:
    3348:	e1a00000 	nop			; (mov r0, r0)

0000334c <l3120>:
    334c:	315db0b4 	ldrhcc	fp, [sp, #-4]

00003350 <l3121>:
    3350:	e02e4153 	eor	r4, lr, r3, asr r1

00003354 <l3122>:
    3354:	a0a6595a 	adcge	r5, r6, sl, asr r9

00003358 <l3123>:
    3358:	e029100a 	eor	r1, r9, sl

0000335c <l3124>:
    335c:	e59f3000 	ldr	r3, [pc]	; 3364 <l3126>

00003360 <l3125>:
    3360:	ea000000 	b	3368 <l3127>

00003364 <l3126>:
    3364:	000fffa8 	.word	0x000fffa8

00003368 <l3127>:
    3368:	c143109a 	swpbgt	r1, sl, [r3]

0000336c <l3128>:
    336c:	e1e09e05 	mvn	r9, r5, lsl #28

00003370 <interrupt_635>:
    3370:	e3a03021 	mov	r3, #33	; 0x21

00003374 <interrupt_177>:
    3374:	e11db0d3 	ldrsb	fp, [sp, -r3]

00003378 <l3131>:
    3378:	e59fb000 	ldr	fp, [pc]	; 3380 <l3133>

0000337c <l3132>:
    337c:	ea000000 	b	3384 <l3134>

00003380 <l3133>:
    3380:	000fffdc 	.word	0x000fffdc

00003384 <l3134>:
    3384:	e10b7092 	swp	r7, r2, [fp]

00003388 <l3135>:
    3388:	5a000003 	bpl	339c <l3140>

0000338c <l3136>:
    338c:	1296ec1e 	addsne	lr, r6, #7680	; 0x1e00

00003390 <l3137>:
    3390:	b26a5d63 	rsblt	r5, sl, #6336	; 0x18c0

00003394 <l3138>:
    3394:	20c7e33c 	sbccs	lr, r7, ip, lsr r3

00003398 <interrupt_235>:
    3398:	e068947e 	rsb	r9, r8, lr, ror r4

0000339c <l3140>:
    339c:	e0502450 	subs	r2, r0, r0, asr r4

000033a0 <l3141>:
    33a0:	e1740009 	cmn	r4, r9

000033a4 <interrupt_661>:
    33a4:	c0591b59 	subsgt	r1, r9, r9, asr fp

000033a8 <l3143>:
    33a8:	c0c5803b 	sbcgt	r8, r5, fp, lsr r0

000033ac <l3144>:
    33ac:	e1130003 	tst	r3, r3

000033b0 <l3145>:
    33b0:	e15db1d2 	ldrsb	fp, [sp, #-18]	; 0xffffffee

000033b4 <l3146>:
    33b4:	2088718b 	addcs	r7, r8, fp, lsl #3

000033b8 <l3147>:
    33b8:	4068400e 	rsbmi	r4, r8, lr

000033bc <l3148>:
    33bc:	75cd2001 	strbvc	r2, [sp, #1]

000033c0 <l3149>:
    33c0:	0137000e 	teqeq	r7, lr

000033c4 <l3150>:
    33c4:	e3a0e02e 	mov	lr, #46	; 0x2e

000033c8 <l3151>:
    33c8:	174da00e 	strbne	sl, [sp, -lr]

000033cc <l3152>:
    33cc:	e044a952 	sub	sl, r4, r2, asr r9

000033d0 <l3153>:
    33d0:	e3a0b008 	mov	fp, #8

000033d4 <l3154>:
    33d4:	e73db00b 	ldr	fp, [sp, -fp]!

000033d8 <l3155>:
    33d8:	e0d83d8a 	sbcs	r3, r8, sl, lsl #27

000033dc <l3156>:
    33dc:	31f06739 	mvnscc	r6, r9, lsr r7

000033e0 <interrupt_476>:
    33e0:	c15d90b8 	ldrhgt	r9, [sp, #-8]

000033e4 <interrupt_12>:
    33e4:	e3a08000 	mov	r8, #0

000033e8 <l3159>:
    33e8:	e69d4008 	ldr	r4, [sp], r8

000033ec <l3160>:
    33ec:	e0525065 	subs	r5, r2, r5, rrx

000033f0 <interrupt_780>:
    33f0:	05cd600b 	strbeq	r6, [sp, #11]

000033f4 <l3162>:
    33f4:	e3a07003 	mov	r7, #3

000033f8 <l3163>:
    33f8:	e75d1007 	ldrb	r1, [sp, -r7]

000033fc <l3164>:
    33fc:	e1500008 	cmp	r0, r8

00003400 <l3165>:
    3400:	e022806e 	eor	r8, r2, lr, rrx

00003404 <interrupt_670>:
    3404:	e15d73df 	ldrsb	r7, [sp, #-63]	; 0xffffffc1

00003408 <l3167>:
    3408:	e3a0a032 	mov	sl, #50	; 0x32

0000340c <l3168>:
    340c:	074de00a 	strbeq	lr, [sp, -sl]

00003410 <l3169>:
    3410:	e15dc2da 	ldrsb	ip, [sp, #-42]	; 0xffffffd6

00003414 <l3170>:
    3414:	ea000003 	b	3428 <interrupt_752>

00003418 <l3171>:
    3418:	e2801089 	add	r1, r0, #137	; 0x89

0000341c <l3172>:
    341c:	a0c8c06e 	sbcge	ip, r8, lr, rrx

00003420 <l3173>:
    3420:	d16f9f10 	clzle	r9, r0

00003424 <l3174>:
    3424:	ea000000 	b	342c <l3176>

00003428 <interrupt_752>:
    3428:	eafffffb 	b	341c <l3172>

0000342c <l3176>:
    342c:	91580004 	cmpls	r8, r4

00003430 <interrupt_160>:
    3430:	754d0019 	strbvc	r0, [sp, #-25]

00003434 <l3178>:
    3434:	81e02001 	mvnhi	r2, r1

00003438 <interrupt_4>:
    3438:	e3a0602d 	mov	r6, #45	; 0x2d

0000343c <l3180>:
    343c:	e75d9006 	ldrb	r9, [sp, -r6]

00003440 <interrupt_147>:
    3440:	11cca607 	bicne	sl, ip, r7, lsl #12

00003444 <l3182>:
    3444:	e0e22f63 	rsc	r2, r2, r3, ror #30

00003448 <l3183>:
    3448:	b21c629b 	andslt	r6, ip, #-1342177271	; 0xb0000009

0000344c <interrupt_592>:
    344c:	b358085a 	cmplt	r8, #5898240	; 0x5a0000

00003450 <l3185>:
    3450:	e13e0516 	teq	lr, r6, lsl r5

00003454 <interrupt_274>:
    3454:	c24191f1 	subgt	r9, r1, #1073741884	; 0x4000003c

00003458 <l3187>:
    3458:	e119000f 	tst	r9, pc

0000345c <l3188>:
    345c:	e3a03008 	mov	r3, #8

00003460 <l3189>:
    3460:	e18d10b3 	strh	r1, [sp, r3]

00003464 <l3190>:
    3464:	ea000004 	b	347c <l3196>

00003468 <l3191>:
    3468:	e28010bd 	add	r1, r0, #189	; 0xbd

0000346c <l3192>:
    346c:	e16f6f13 	clz	r6, r3

00003470 <interrupt_492>:
    3470:	e170068b 	cmn	r0, fp, lsl #13

00003474 <l3194>:
    3474:	53770552 	cmnpl	r7, #343932928	; 0x14800000

00003478 <l3195>:
    3478:	ea000000 	b	3480 <l3197>

0000347c <l3196>:
    347c:	eafffffa 	b	346c <l3192>

00003480 <l3197>:
    3480:	d05e3061 	subsle	r3, lr, r1, rrx

00003484 <l3198>:
    3484:	e59fb000 	ldr	fp, [pc]	; 348c <interrupt_111>

00003488 <l3199>:
    3488:	ea000000 	b	3490 <l3201>

0000348c <interrupt_111>:
    348c:	000fffd0 	.word	0x000fffd0

00003490 <l3201>:
    3490:	a14ba092 	swpbge	sl, r2, [fp]

00003494 <l3202>:
    3494:	e93d0c9c 	ldmdb	sp!, {r2, r3, r4, r7, sl, fp}

00003498 <l3203>:
    3498:	e3a0200a 	mov	r2, #10

0000349c <l3204>:
    349c:	319d90f2 	ldrshcc	r9, [sp, r2]

000034a0 <interrupt_903>:
    34a0:	000eac39 	andeq	sl, lr, r9, lsr ip

000034a4 <l3206>:
    34a4:	e59f5000 	ldr	r5, [pc]	; 34ac <l3208>

000034a8 <l3207>:
    34a8:	ea000000 	b	34b0 <l3209>

000034ac <l3208>:
    34ac:	000fffa0 	.word	0x000fffa0

000034b0 <l3209>:
    34b0:	81451094 	swpbhi	r1, r4, [r5]

000034b4 <l3210>:
    34b4:	e92d0802 	push	{r1, fp}

000034b8 <l3211>:
    34b8:	e5dd3014 	ldrb	r3, [sp, #20]

000034bc <l3212>:
    34bc:	e1d8a907 	bics	sl, r8, r7, lsl #18

000034c0 <l3213>:
    34c0:	e15b028e 	cmp	fp, lr, lsl #5

000034c4 <l3214>:
    34c4:	23360893 	teqcs	r6, #9633792	; 0x930000

000034c8 <l3215>:
    34c8:	e0c01066 	sbc	r1, r0, r6, rrx

000034cc <l3216>:
    34cc:	e26b20e8 	rsb	r2, fp, #232	; 0xe8

000034d0 <l3217>:
    34d0:	e0a9621c 	adc	r6, r9, ip, lsl r2

000034d4 <l3218>:
    34d4:	e15d30b6 	ldrh	r3, [sp, #-6]

000034d8 <l3219>:
    34d8:	e93d1000 	ldmdb	sp!, {ip}

000034dc <l3220>:
    34dc:	e16f9f1c 	clz	r9, ip

000034e0 <interrupt_746>:
    34e0:	e16fcf10 	clz	ip, r0

000034e4 <l3222>:
    34e4:	3affffff 	bcc	34e8 <l3223>

000034e8 <l3223>:
    34e8:	627e3ef5 	rsbsvs	r3, lr, #3920	; 0xf50

000034ec <l3224>:
    34ec:	904bc375 	subls	ip, fp, r5, ror r3

000034f0 <l3225>:
    34f0:	aa000005 	bge	350c <l3232>

000034f4 <l3226>:
    34f4:	e2801097 	add	r1, r0, #151	; 0x97

000034f8 <l3227>:
    34f8:	61801009 	orrvs	r1, r0, r9

000034fc <l3228>:
    34fc:	516f7f12 	clzpl	r7, r2

00003500 <interrupt_540>:
    3500:	e0942c18 	adds	r2, r4, r8, lsl ip

00003504 <l3230>:
    3504:	01f07e72 	mvnseq	r7, r2, ror lr

00003508 <interrupt_276>:
    3508:	ea000000 	b	3510 <l3233>

0000350c <l3232>:
    350c:	eafffff9 	b	34f8 <l3227>

00003510 <l3233>:
    3510:	e5bd2018 	ldr	r2, [sp, #24]!

00003514 <l3234>:
    3514:	e079c150 	rsbs	ip, r9, r0, asr r1

00003518 <l3235>:
    3518:	e3a0b019 	mov	fp, #25

0000351c <l3236>:
    351c:	211da0db 	ldrsbcs	sl, [sp, -fp]

00003520 <l3237>:
    3520:	e1a00000 	nop			; (mov r0, r0)

00003524 <l3238>:
    3524:	e3a01018 	mov	r1, #24

00003528 <l3239>:
    3528:	e72d7001 	str	r7, [sp, -r1]!

0000352c <interrupt_997>:
    352c:	b2297602 	eorlt	r7, r9, #2097152	; 0x200000

00003530 <l3241>:
    3530:	a1926063 	orrsge	r6, r2, r3, rrx

00003534 <l3242>:
    3534:	e14d51b6 	strh	r5, [sp, #-22]	; 0xffffffea

00003538 <l3243>:
    3538:	e3a07004 	mov	r7, #4

0000353c <l3244>:
    353c:	e72d7007 	str	r7, [sp, -r7]!

00003540 <l3245>:
    3540:	c3f0eac3 	mvnsgt	lr, #798720	; 0xc3000

00003544 <l3246>:
    3544:	e5cd000c 	strb	r0, [sp, #12]

00003548 <l3247>:
    3548:	e16f3f1b 	clz	r3, fp

0000354c <l3248>:
    354c:	e1e09006 	mvn	r9, r6

00003550 <l3249>:
    3550:	22338015 	eorscs	r8, r3, #21

00003554 <l3250>:
    3554:	20944006 	addscs	r4, r4, r6

00003558 <l3251>:
    3558:	b112000c 	tstlt	r2, ip

0000355c <interrupt_672>:
    355c:	e11a0003 	tst	sl, r3

00003560 <l3253>:
    3560:	b14d50b2 	strhlt	r5, [sp, #-2]

00003564 <l3254>:
    3564:	e3a01014 	mov	r1, #20

00003568 <l3255>:
    3568:	111d80b1 	ldrhne	r8, [sp, -r1]

0000356c <l3256>:
    356c:	e1100c25 	tst	r0, r5, lsr #24

00003570 <l3257>:
    3570:	e0892834 	add	r2, r9, r4, lsr r8

00003574 <interrupt_89>:
    3574:	e1a00000 	nop			; (mov r0, r0)

00003578 <l3259>:
    3578:	e8bd0d48 	pop	{r3, r6, r8, sl, fp}

0000357c <interrupt_565>:
    357c:	2217b819 	andscs	fp, r7, #1638400	; 0x190000

00003580 <l3261>:
    3580:	e1dd81fc 	ldrsh	r8, [sp, #28]

00003584 <l3262>:
    3584:	e59f2000 	ldr	r2, [pc]	; 358c <interrupt_41>

00003588 <l3263>:
    3588:	ea000000 	b	3590 <l3265>

0000358c <interrupt_41>:
    358c:	000fffa8 	.word	0x000fffa8

00003590 <l3265>:
    3590:	e1426093 	swpb	r6, r3, [r2]

00003594 <l3266>:
    3594:	e59f0000 	ldr	r0, [pc]	; 359c <l3268>

00003598 <l3267>:
    3598:	ea000000 	b	35a0 <interrupt_337>

0000359c <l3268>:
    359c:	000fffd8 	.word	0x000fffd8

000035a0 <interrupt_337>:
    35a0:	e1001093 	swp	r1, r3, [r0]

000035a4 <l3270>:
    35a4:	550d302c 	strpl	r3, [sp, #-44]	; 0x2c

000035a8 <l3271>:
    35a8:	e50df020 	str	pc, [sp, #-32]

000035ac <interrupt_292>:
    35ac:	25dd5007 	ldrbcs	r5, [sp, #7]

000035b0 <l3273>:
    35b0:	e0383918 	eors	r3, r8, r8, lsl r9

000035b4 <l3274>:
    35b4:	e17b0127 	cmn	fp, r7, lsr #2

000035b8 <l3275>:
    35b8:	731005f7 	tstvc	r0, #1035993088	; 0x3dc00000

000035bc <l3276>:
    35bc:	e51dc028 	ldr	ip, [sp, #-40]	; 0x28

000035c0 <l3277>:
    35c0:	e59fa000 	ldr	sl, [pc]	; 35c8 <interrupt_223>

000035c4 <l3278>:
    35c4:	ea000000 	b	35cc <interrupt_128>

000035c8 <interrupt_223>:
    35c8:	000fffc8 	.word	0x000fffc8

000035cc <interrupt_128>:
    35cc:	c14a3096 	swpbgt	r3, r6, [sl]

000035d0 <l3281>:
    35d0:	e0d4738c 	sbcs	r7, r4, ip, lsl #7

000035d4 <l3282>:
    35d4:	e3a0700a 	mov	r7, #10

000035d8 <l3283>:
    35d8:	e19d70b7 	ldrh	r7, [sp, r7]

000035dc <l3284>:
    35dc:	e3a06010 	mov	r6, #16

000035e0 <l3285>:
    35e0:	e60d5006 	str	r5, [sp], -r6

000035e4 <l3286>:
    35e4:	916fef1b 	clzls	lr, fp

000035e8 <l3287>:
    35e8:	31a03758 	asrcc	r3, r8, r7

000035ec <l3288>:
    35ec:	75cd2028 	strbvc	r2, [sp, #40]	; 0x28

000035f0 <l3289>:
    35f0:	05dd9005 	ldrbeq	r9, [sp, #5]

000035f4 <l3290>:
    35f4:	50198380 	andspl	r8, r9, r0, lsl #7

000035f8 <l3291>:
    35f8:	e16fcf16 	clz	ip, r6

000035fc <l3292>:
    35fc:	e3a01016 	mov	r1, #22

00003600 <l3293>:
    3600:	419d50d1 	ldrsbmi	r5, [sp, r1]

00003604 <interrupt_564>:
    3604:	e393a11a 	orrs	sl, r3, #-2147483642	; 0x80000006

00003608 <interrupt_222>:
    3608:	e1dec00f 	bics	ip, lr, pc

0000360c <l3296>:
    360c:	e59f9000 	ldr	r9, [pc]	; 3614 <l3298>

00003610 <l3297>:
    3610:	ea000000 	b	3618 <l3299>

00003614 <l3298>:
    3614:	000fffa0 	.word	0x000fffa0

00003618 <l3299>:
    3618:	e109c091 	swp	ip, r1, [r9]

0000361c <interrupt_868>:
    361c:	32766be9 	rsbscc	r6, r6, #238592	; 0x3a400

00003620 <l3301>:
    3620:	519a4008 	orrspl	r4, sl, r8

00003624 <l3302>:
    3624:	e16f1f1a 	clz	r1, sl

00003628 <l3303>:
    3628:	71dd51ba 	ldrhvc	r5, [sp, #26]

0000362c <l3304>:
    362c:	e1dd21db 	ldrsb	r2, [sp, #27]

00003630 <l3305>:
    3630:	21d68f64 	bicscs	r8, r6, r4, ror #30

00003634 <l3306>:
    3634:	e1840007 	orr	r0, r4, r7

00003638 <l3307>:
    3638:	e59f1000 	ldr	r1, [pc]	; 3640 <interrupt_53>

0000363c <interrupt_718>:
    363c:	ea000000 	b	3644 <l3310>

00003640 <interrupt_53>:
    3640:	000fffdc 	.word	0x000fffdc

00003644 <l3310>:
    3644:	6141509e 	swpbvs	r5, lr, [r1]

00003648 <interrupt_43>:
    3648:	e9ad0002 	stmib	sp!, {r1}

0000364c <l3312>:
    364c:	13b0e917 	movsne	lr, #376832	; 0x5c000

00003650 <l3313>:
    3650:	33b0390e 	movscc	r3, #229376	; 0x38000

00003654 <l3314>:
    3654:	e3a0a01c 	mov	sl, #28

00003658 <l3315>:
    3658:	918d80ba 	strhls	r8, [sp, sl]

0000365c <l3316>:
    365c:	e096691e 	adds	r6, r6, lr, lsl r9

00003660 <l3317>:
    3660:	e1f0145c 	mvns	r1, ip, asr r4

00003664 <l3318>:
    3664:	e3a09003 	mov	r9, #3

00003668 <l3319>:
    3668:	375d0009 	ldrbcc	r0, [sp, -r9]

0000366c <l3320>:
    366c:	e1f0854b 	mvns	r8, fp, asr #10

00003670 <l3321>:
    3670:	e49db004 	pop	{fp}		; (ldr fp, [sp], #4)

00003674 <l3322>:
    3674:	e98de820 	stmib	sp, {r5, fp, sp, lr, pc}

00003678 <l3323>:
    3678:	e3a03026 	mov	r3, #38	; 0x26

0000367c <l3324>:
    367c:	519db0f3 	ldrshpl	fp, [sp, r3]

00003680 <l3325>:
    3680:	d35b0c9a 	cmple	fp, #39424	; 0x9a00

00003684 <l3326>:
    3684:	e3a07018 	mov	r7, #24

00003688 <interrupt_405>:
    3688:	e7bd7007 	ldr	r7, [sp, r7]!

0000368c <l3328>:
    368c:	3057e00a 	subscc	lr, r7, sl

00003690 <l3329>:
    3690:	e92d44c0 	push	{r6, r7, sl, lr}

00003694 <l3330>:
    3694:	027730f0 	rsbseq	r3, r7, #240	; 0xf0

00003698 <l3331>:
    3698:	e3a07022 	mov	r7, #34	; 0x22

0000369c <l3332>:
    369c:	e11d70b7 	ldrh	r7, [sp, -r7]

000036a0 <l3333>:
    36a0:	b2706a1e 	rsbslt	r6, r0, #122880	; 0x1e000

000036a4 <interrupt_10>:
    36a4:	e15b0061 	cmp	fp, r1, rrx

000036a8 <l3335>:
    36a8:	098d1681 	stmibeq	sp, {r0, r7, r9, sl, ip}

000036ac <l3336>:
    36ac:	d252c0e4 	subsle	ip, r2, #228	; 0xe4

000036b0 <interrupt_808>:
    36b0:	502f7006 	eorpl	r7, pc, r6

000036b4 <l3338>:
    36b4:	31b04006 	movscc	r4, r6

000036b8 <l3339>:
    36b8:	e14d70b8 	strh	r7, [sp, #-8]

000036bc <l3340>:
    36bc:	918b27a6 	orrls	r2, fp, r6, lsr #15

000036c0 <l3341>:
    36c0:	016fef16 	clzeq	lr, r6

000036c4 <l3342>:
    36c4:	e392b713 	orrs	fp, r2, #4980736	; 0x4c0000

000036c8 <l3343>:
    36c8:	e0f3b239 	rscs	fp, r3, r9, lsr r2

000036cc <l3344>:
    36cc:	1a000002 	bne	36dc <l3348>

000036d0 <l3345>:
    36d0:	e28010a6 	add	r1, r0, #166	; 0xa6

000036d4 <l3346>:
    36d4:	e37f0266 	cmn	pc, #1610612742	; 0x60000006

000036d8 <l3347>:
    36d8:	ea000000 	b	36e0 <interrupt_230>

000036dc <l3348>:
    36dc:	eafffffc 	b	36d4 <l3346>

000036e0 <interrupt_230>:
    36e0:	03760a07 	cmneq	r6, #28672	; 0x7000

000036e4 <l3350>:
    36e4:	ea000000 	b	36ec <l3352>

000036e8 <l3351>:
    36e8:	d1790481 	cmnle	r9, r1, lsl #9

000036ec <l3352>:
    36ec:	716fbf18 	clzvc	fp, r8

000036f0 <interrupt_478>:
    36f0:	e02f900f 	eor	r9, pc, pc

000036f4 <interrupt_701>:
    36f4:	e15d50b8 	ldrh	r5, [sp, #-8]

000036f8 <l3355>:
    36f8:	01530006 	cmpeq	r3, r6

000036fc <l3356>:
    36fc:	b1370005 	teqlt	r7, r5

00003700 <l3357>:
    3700:	708ab003 	addvc	fp, sl, r3

00003704 <l3358>:
    3704:	e19ce652 	orrs	lr, ip, r2, asr r6

00003708 <l3359>:
    3708:	e52d000c 	str	r0, [sp, #-12]!

0000370c <l3360>:
    370c:	71f0bb14 	mvnsvc	fp, r4, lsl fp

00003710 <l3361>:
    3710:	228ee606 	addcs	lr, lr, #6291456	; 0x600000

00003714 <l3362>:
    3714:	e3a04012 	mov	r4, #18

00003718 <l3363>:
    3718:	b75d0004 	ldrblt	r0, [sp, -r4]

0000371c <l3364>:
    371c:	e3a07008 	mov	r7, #8

00003720 <l3365>:
    3720:	510d00b7 	strhpl	r0, [sp, -r7]

00003724 <l3366>:
    3724:	e82d9094 	stmda	sp!, {r2, r4, r7, ip, pc}

00003728 <l3367>:
    3728:	e02b500f 	eor	r5, fp, pc

0000372c <l3368>:
    372c:	e1f0b6a3 	mvns	fp, r3, lsr #13

00003730 <interrupt_351>:
    3730:	ea000003 	b	3744 <l3374>

00003734 <l3370>:
    3734:	113b0a17 	teqne	fp, r7, lsl sl

00003738 <l3371>:
    3738:	e1e0c00b 	mvn	ip, fp

0000373c <l3372>:
    373c:	51ce8869 	bicpl	r8, lr, r9, ror #16

00003740 <l3373>:
    3740:	e16f5f13 	clz	r5, r3

00003744 <l3374>:
    3744:	21e0100e 	mvncs	r1, lr

00003748 <l3375>:
    3748:	71d73ae0 	bicsvc	r3, r7, r0, ror #21

0000374c <interrupt_637>:
    374c:	b0750030 	rsbslt	r0, r5, r0, lsr r0

00003750 <l3377>:
    3750:	e1e0c1a3 	mvn	ip, r3, lsr #3

00003754 <l3378>:
    3754:	e17a0faf 	cmn	sl, pc, lsr #31

00003758 <l3379>:
    3758:	e59f2000 	ldr	r2, [pc]	; 3760 <l3381>

0000375c <l3380>:
    375c:	ea000000 	b	3764 <l3382>

00003760 <l3381>:
    3760:	000fffb4 	.word	0x000fffb4

00003764 <l3382>:
    3764:	d1027097 	swple	r7, r7, [r2]

00003768 <interrupt_264>:
    3768:	43780c1d 	cmnmi	r8, #7424	; 0x1d00

0000376c <l3384>:
    376c:	d16f7f16 	clzle	r7, r6

00003770 <l3385>:
    3770:	e2603017 	rsb	r3, r0, #23

00003774 <interrupt_789>:
    3774:	e04c4859 	sub	r4, ip, r9, asr r8

00003778 <l3387>:
    3778:	e59fc000 	ldr	ip, [pc]	; 3780 <interrupt_887>

0000377c <l3388>:
    377c:	ea000000 	b	3784 <l3390>

00003780 <interrupt_887>:
    3780:	000fffb0 	.word	0x000fffb0

00003784 <l3390>:
    3784:	014c4093 	swpbeq	r4, r3, [ip]

00003788 <l3391>:
    3788:	9268bb2d 	rsbls	fp, r8, #46080	; 0xb400

0000378c <l3392>:
    378c:	61110066 	tstvs	r1, r6, rrx

00003790 <l3393>:
    3790:	e16f2f1a 	clz	r2, sl

00003794 <interrupt_739>:
    3794:	e3a0e028 	mov	lr, #40	; 0x28

00003798 <l3395>:
    3798:	e7ad600e 	str	r6, [sp, lr]!

0000379c <l3396>:
    379c:	0116000c 	tsteq	r6, ip

000037a0 <interrupt_809>:
    37a0:	e59f8000 	ldr	r8, [pc]	; 37a8 <l3399>

000037a4 <interrupt_463>:
    37a4:	ea000000 	b	37ac <l3400>

000037a8 <l3399>:
    37a8:	000fffe4 	.word	0x000fffe4

000037ac <l3400>:
    37ac:	e148c091 	swpb	ip, r1, [r8]

000037b0 <interrupt_197>:
    37b0:	d0ee4009 	rscle	r4, lr, r9

000037b4 <l3402>:
    37b4:	b0dea359 	sbcslt	sl, lr, r9, asr r3

000037b8 <l3403>:
    37b8:	53f04963 	mvnspl	r4, #1622016	; 0x18c000

000037bc <l3404>:
    37bc:	e080400b 	add	r4, r0, fp

000037c0 <l3405>:
    37c0:	e1f03068 	mvns	r3, r8, rrx

000037c4 <l3406>:
    37c4:	e59f5000 	ldr	r5, [pc]	; 37cc <l3408>

000037c8 <l3407>:
    37c8:	ea000000 	b	37d0 <l3409>

000037cc <l3408>:
    37cc:	000fffcc 	.word	0x000fffcc

000037d0 <l3409>:
    37d0:	e145c09b 	swpb	ip, fp, [r5]

000037d4 <l3410>:
    37d4:	80265062 	eorhi	r5, r6, r2, rrx

000037d8 <interrupt_614>:
    37d8:	c1c38060 	bicgt	r8, r3, r0, rrx

000037dc <interrupt_267>:
    37dc:	e52da004 	push	{sl}		; (str sl, [sp, #-4]!)

000037e0 <l3413>:
    37e0:	c0e79005 	rscgt	r9, r7, r5

000037e4 <l3414>:
    37e4:	e3a0b004 	mov	fp, #4

000037e8 <interrupt_570>:
    37e8:	e7cd400b 	strb	r4, [sp, fp]

000037ec <l3416>:
    37ec:	e056691c 	subs	r6, r6, ip, lsl r9

000037f0 <l3417>:
    37f0:	e3a0b00e 	mov	fp, #14

000037f4 <interrupt_130>:
    37f4:	c11da0fb 	ldrshgt	sl, [sp, -fp]

000037f8 <l3419>:
    37f8:	e41d1010 	ldr	r1, [sp], #-16

000037fc <interrupt_20>:
    37fc:	204e400a 	subcs	r4, lr, sl

00003800 <l3421>:
    3800:	32419018 	subcc	r9, r1, #24

00003804 <l3422>:
    3804:	e181a219 	orr	sl, r1, r9, lsl r2

00003808 <l3423>:
    3808:	491d4284 	ldmdbmi	sp, {r2, r7, r9, lr}

0000380c <l3424>:
    380c:	e3a00011 	mov	r0, #17

00003810 <interrupt_173>:
    3810:	e74d9000 	strb	r9, [sp, -r0]

00003814 <l3426>:
    3814:	ea000000 	b	381c <interrupt_141>

00003818 <l3427>:
    3818:	90809005 	addls	r9, r0, r5

0000381c <interrupt_141>:
    381c:	e02a506c 	eor	r5, sl, ip, rrx

00003820 <l3429>:
    3820:	e172092c 	cmn	r2, ip, lsr #18

00003824 <l3430>:
    3824:	e3a07012 	mov	r7, #18

00003828 <l3431>:
    3828:	611de0f7 	ldrshvs	lr, [sp, -r7]

0000382c <l3432>:
    382c:	70b4990b 	adcsvc	r9, r4, fp, lsl #18

00003830 <l3433>:
    3830:	e3a0a008 	mov	sl, #8

00003834 <interrupt_55>:
    3834:	e79de00a 	ldr	lr, [sp, sl]

00003838 <l3435>:
    3838:	351d5018 	ldrcc	r5, [sp, #-24]

0000383c <l3436>:
    383c:	e0e52060 	rsc	r2, r5, r0, rrx

00003840 <l3437>:
    3840:	e1a00000 	nop			; (mov r0, r0)

00003844 <l3438>:
    3844:	e061800c 	rsb	r8, r1, ip

00003848 <interrupt_673>:
    3848:	e0389006 	eors	r9, r8, r6

0000384c <l3440>:
    384c:	005c7003 	subseq	r7, ip, r3

00003850 <interrupt_186>:
    3850:	43b09322 	movsmi	r9, #-2013265920	; 0x88000000

00003854 <l3442>:
    3854:	e3380621 	teq	r8, #34603008	; 0x2100000

00003858 <l3443>:
    3858:	01e0c5c4 	mvneq	ip, r4, asr #11

0000385c <l3444>:
    385c:	e3a01010 	mov	r1, #16

00003860 <l3445>:
    3860:	611de0b1 	ldrhvs	lr, [sp, -r1]

00003864 <interrupt_983>:
    3864:	b2bf41f5 	adcslt	r4, pc, #1073741885	; 0x4000003d

00003868 <l3447>:
    3868:	40e5308f 	rscmi	r3, r5, pc, lsl #1

0000386c <l3448>:
    386c:	e3f04b32 	mvns	r4, #51200	; 0xc800

00003870 <l3449>:
    3870:	e0467de9 	sub	r7, r6, r9, ror #27

00003874 <l3450>:
    3874:	30b9e27c 	adcscc	lr, r9, ip, ror r2

00003878 <l3451>:
    3878:	e04e9721 	sub	r9, lr, r1, lsr #14

0000387c <interrupt_947>:
    387c:	30b99064 	adcscc	r9, r9, r4, rrx

00003880 <l3453>:
    3880:	e59f2000 	ldr	r2, [pc]	; 3888 <l3455>

00003884 <l3454>:
    3884:	ea000000 	b	388c <l3456>

00003888 <l3455>:
    3888:	000fffe0 	.word	0x000fffe0

0000388c <l3456>:
    388c:	8102909a 	swphi	r9, sl, [r2]

00003890 <l3457>:
    3890:	e16f6f17 	clz	r6, r7

00003894 <l3458>:
    3894:	e83d0202 	ldmda	sp!, {r1, r9}

00003898 <l3459>:
    3898:	e48d0010 	str	r0, [sp], #16

0000389c <l3460>:
    389c:	e92d1442 	push	{r1, r6, sl, ip}

000038a0 <l3461>:
    38a0:	e0e24317 	rsc	r4, r2, r7, lsl r3

000038a4 <l3462>:
    38a4:	729836ca 	addsvc	r3, r8, #211812352	; 0xca00000

000038a8 <l3463>:
    38a8:	907f800f 	rsbsls	r8, pc, pc

000038ac <l3464>:
    38ac:	e1dd22bc 	ldrh	r2, [sp, #44]	; 0x2c

000038b0 <l3465>:
    38b0:	b35b0726 	cmplt	fp, #9961472	; 0x980000

000038b4 <l3466>:
    38b4:	e16f0f15 	clz	r0, r5

000038b8 <l3467>:
    38b8:	624e4156 	subvs	r4, lr, #-2147483627	; 0x80000015

000038bc <l3468>:
    38bc:	a18cb973 	orrge	fp, ip, r3, ror r9

000038c0 <l3469>:
    38c0:	e1a00000 	nop			; (mov r0, r0)

000038c4 <interrupt_993>:
    38c4:	81750000 	cmnhi	r5, r0

000038c8 <interrupt_485>:
    38c8:	e3a07030 	mov	r7, #48	; 0x30

000038cc <l3472>:
    38cc:	e18d10b7 	strh	r1, [sp, r7]

000038d0 <l3473>:
    38d0:	e92d2000 	stmfd	sp!, {sp}

000038d4 <interrupt_74>:
    38d4:	e59f8000 	ldr	r8, [pc]	; 38dc <l3476>

000038d8 <interrupt_32>:
    38d8:	ea000000 	b	38e0 <l3477>

000038dc <l3476>:
    38dc:	000fffb8 	.word	0x000fffb8

000038e0 <l3477>:
    38e0:	b148109e 	swpblt	r1, lr, [r8]

000038e4 <l3478>:
    38e4:	e59f4000 	ldr	r4, [pc]	; 38ec <l3480>

000038e8 <l3479>:
    38e8:	ea000000 	b	38f0 <l3481>

000038ec <l3480>:
    38ec:	000fffc4 	.word	0x000fffc4

000038f0 <l3481>:
    38f0:	01442098 	swpbeq	r2, r8, [r4]

000038f4 <l3482>:
    38f4:	71390002 	teqvc	r9, r2

000038f8 <l3483>:
    38f8:	e59f5000 	ldr	r5, [pc]	; 3900 <interrupt_732>

000038fc <l3484>:
    38fc:	ea000000 	b	3904 <l3486>

00003900 <interrupt_732>:
    3900:	000fffb0 	.word	0x000fffb0

00003904 <l3486>:
    3904:	11059097 	swpne	r9, r7, [r5]

00003908 <l3487>:
    3908:	ea000007 	b	392c <l3496>

0000390c <l3488>:
    390c:	e28010b6 	add	r1, r0, #182	; 0xb6

00003910 <l3489>:
    3910:	e04b0006 	sub	r0, fp, r6

00003914 <l3490>:
    3914:	c082500b 	addgt	r5, r2, fp

00003918 <l3491>:
    3918:	502b006b 	eorpl	r0, fp, fp, rrx

0000391c <l3492>:
    391c:	e0d6400a 	sbcs	r4, r6, sl

00003920 <l3493>:
    3920:	e1dbc066 	bics	ip, fp, r6, rrx

00003924 <l3494>:
    3924:	71b00b5e 	asrsvc	r0, lr, fp

00003928 <l3495>:
    3928:	ea000000 	b	3930 <l3497>

0000392c <l3496>:
    392c:	eafffff7 	b	3910 <l3489>

00003930 <l3497>:
    3930:	e28a9432 	add	r9, sl, #838860800	; 0x32000000

00003934 <interrupt_316>:
    3934:	e1c89800 	bic	r9, r8, r0, lsl #16

00003938 <l3499>:
    3938:	e13c018e 	teq	ip, lr, lsl #3

0000393c <interrupt_330>:
    393c:	e91d1000 	ldmdb	sp, {ip}

00003940 <l3501>:
    3940:	50eee061 	rscpl	lr, lr, r1, rrx

00003944 <l3502>:
    3944:	e3a03002 	mov	r3, #2

00003948 <l3503>:
    3948:	019dc0f3 	ldrsheq	ip, [sp, r3]

0000394c <interrupt_803>:
    394c:	e0fb2871 	rscs	r2, fp, r1, ror r8

00003950 <l3505>:
    3950:	116faf17 	clzne	sl, r7

00003954 <l3506>:
    3954:	e2f24a16 	rscs	r4, r2, #90112	; 0x16000

00003958 <l3507>:
    3958:	ba000002 	blt	3968 <l3511>

0000395c <l3508>:
    395c:	e2801062 	add	r1, r0, #98	; 0x62

00003960 <interrupt_902>:
    3960:	90c5806f 	sbcls	r8, r5, pc, rrx

00003964 <l3510>:
    3964:	ea000000 	b	396c <l3512>

00003968 <l3511>:
    3968:	eafffffc 	b	3960 <interrupt_902>

0000396c <l3512>:
    396c:	e1d9506a 	bics	r5, r9, sl, rrx

00003970 <l3513>:
    3970:	781d0420 	ldmdavc	sp, {r5, sl}

00003974 <l3514>:
    3974:	e3a06000 	mov	r6, #0

00003978 <l3515>:
    3978:	e19d30b6 	ldrh	r3, [sp, r6]

0000397c <l3516>:
    397c:	73f00e4f 	mvnsvc	r0, #1264	; 0x4f0

00003980 <interrupt_812>:
    3980:	e17e0604 	cmn	lr, r4, lsl #12

00003984 <l3518>:
    3984:	e092ea21 	adds	lr, r2, r1, lsr #20

00003988 <l3519>:
    3988:	e3a01004 	mov	r1, #4

0000398c <interrupt_543>:
    398c:	918d40b1 	strhls	r4, [sp, r1]

00003990 <interrupt_400>:
    3990:	e3a0b02e 	mov	fp, #46	; 0x2e

00003994 <interrupt_719>:
    3994:	519d40db 	ldrsbpl	r4, [sp, fp]

00003998 <l3523>:
    3998:	91cd13b2 	strhls	r1, [sp, #50]	; 0x32

0000399c <l3524>:
    399c:	a011255a 	andsge	r2, r1, sl, asr r5

000039a0 <l3525>:
    39a0:	e1ddb3d0 	ldrsb	fp, [sp, #48]	; 0x30

000039a4 <l3526>:
    39a4:	e3c6762e 	bic	r7, r6, #48234496	; 0x2e00000

000039a8 <interrupt_120>:
    39a8:	e0e0e27e 	rsc	lr, r0, lr, ror r2

000039ac <l3528>:
    39ac:	e1700007 	cmn	r0, r7

000039b0 <l3529>:
    39b0:	e1e0652a 	mvn	r6, sl, lsr #10

000039b4 <l3530>:
    39b4:	e1a0177c 	ror	r1, ip, r7

000039b8 <l3531>:
    39b8:	e16f4f1c 	clz	r4, ip

000039bc <l3532>:
    39bc:	e3a00010 	mov	r0, #16

000039c0 <l3533>:
    39c0:	e60dc000 	str	ip, [sp], -r0

000039c4 <l3534>:
    39c4:	e0038076 	and	r8, r3, r6, ror r0

000039c8 <l3535>:
    39c8:	c1dd20fa 	ldrshgt	r2, [sp, #10]

000039cc <l3536>:
    39cc:	158de03c 	strne	lr, [sp, #60]	; 0x3c

000039d0 <l3537>:
    39d0:	aa000002 	bge	39e0 <l3541>

000039d4 <interrupt_481>:
    39d4:	e28010ec 	add	r1, r0, #236	; 0xec

000039d8 <l3539>:
    39d8:	e0316003 	eors	r6, r1, r3

000039dc <interrupt_44>:
    39dc:	ea000000 	b	39e4 <l3542>

000039e0 <l3541>:
    39e0:	eafffffc 	b	39d8 <l3539>

000039e4 <l3542>:
    39e4:	e153006a 	cmp	r3, sl, rrx

000039e8 <l3543>:
    39e8:	e3a04024 	mov	r4, #36	; 0x24

000039ec <interrupt_811>:
    39ec:	e7dd7004 	ldrb	r7, [sp, r4]

000039f0 <l3545>:
    39f0:	e3580721 	cmp	r8, #8650752	; 0x840000

000039f4 <l3546>:
    39f4:	3217cdb2 	andscc	ip, r7, #11392	; 0x2c80

000039f8 <l3547>:
    39f8:	e59f6000 	ldr	r6, [pc]	; 3a00 <interrupt_917>

000039fc <l3548>:
    39fc:	ea000000 	b	3a04 <l3550>

00003a00 <interrupt_917>:
    3a00:	000fffcc 	.word	0x000fffcc

00003a04 <l3550>:
    3a04:	e146b09a 	swpb	fp, sl, [r6]

00003a08 <l3551>:
    3a08:	606fa002 	rsbvs	sl, pc, r2

00003a0c <interrupt_882>:
    3a0c:	e3a0a02e 	mov	sl, #46	; 0x2e

00003a10 <l3553>:
    3a10:	87cd600a 	strbhi	r6, [sp, sl]

00003a14 <l3554>:
    3a14:	e3a08004 	mov	r8, #4

00003a18 <interrupt_338>:
    3a18:	e70d2008 	str	r2, [sp, -r8]

00003a1c <l3556>:
    3a1c:	e2fa9f6b 	rscs	r9, sl, #428	; 0x1ac

00003a20 <l3557>:
    3a20:	80659006 	rsbhi	r9, r5, r6

00003a24 <interrupt_591>:
    3a24:	32087bd9 	andcc	r7, r8, #222208	; 0x36400

00003a28 <l3559>:
    3a28:	e1a00008 	mov	r0, r8

00003a2c <interrupt_352>:
    3a2c:	61cd93b8 	strhvs	r9, [sp, #56]	; 0x38

00003a30 <interrupt_411>:
    3a30:	0081747c 	addeq	r7, r1, ip, ror r4

00003a34 <l3562>:
    3a34:	e59f2000 	ldr	r2, [pc]	; 3a3c <interrupt_477>

00003a38 <l3563>:
    3a38:	ea000000 	b	3a40 <l3565>

00003a3c <interrupt_477>:
    3a3c:	000fffe0 	.word	0x000fffe0

00003a40 <l3565>:
    3a40:	e102e097 	swp	lr, r7, [r2]

00003a44 <l3566>:
    3a44:	a5dde002 	ldrbge	lr, [sp, #2]

00003a48 <l3567>:
    3a48:	e48d1008 	str	r1, [sp], #8

00003a4c <l3568>:
    3a4c:	e3a01030 	mov	r1, #48	; 0x30

00003a50 <l3569>:
    3a50:	e7ad4001 	str	r4, [sp, r1]!

00003a54 <l3570>:
    3a54:	71540009 	cmpvc	r4, r9

00003a58 <l3571>:
    3a58:	e0f44730 	rscs	r4, r4, r0, lsr r7

00003a5c <l3572>:
    3a5c:	e1330949 	teq	r3, r9, asr #18

00003a60 <interrupt_335>:
    3a60:	019a423c 	orrseq	r4, sl, ip, lsr r2

00003a64 <l3574>:
    3a64:	00089003 	andeq	r9, r8, r3

00003a68 <l3575>:
    3a68:	1067e00f 	rsbne	lr, r7, pc

00003a6c <l3576>:
    3a6c:	e59f3000 	ldr	r3, [pc]	; 3a74 <l3578>

00003a70 <l3577>:
    3a70:	ea000000 	b	3a78 <l3579>

00003a74 <l3578>:
    3a74:	000fffc0 	.word	0x000fffc0

00003a78 <l3579>:
    3a78:	81432095 	swpbhi	r2, r5, [r3]

00003a7c <l3580>:
    3a7c:	e15d32da 	ldrsb	r3, [sp, #-42]	; 0xffffffd6

00003a80 <l3581>:
    3a80:	ba000005 	blt	3a9c <l3588>

00003a84 <l3582>:
    3a84:	e16f1f10 	clz	r1, r0

00003a88 <l3583>:
    3a88:	01500002 	cmpeq	r0, r2

00003a8c <l3584>:
    3a8c:	e16faf17 	clz	sl, r7

00003a90 <l3585>:
    3a90:	e1780a26 	cmn	r8, r6, lsr #20

00003a94 <l3586>:
    3a94:	916f0f19 	clzls	r0, r9

00003a98 <l3587>:
    3a98:	c1e0761b 	mvngt	r7, fp, lsl r6

00003a9c <l3588>:
    3a9c:	e1d31807 	bics	r1, r3, r7, lsl #16

00003aa0 <interrupt_705>:
    3aa0:	e3a00020 	mov	r0, #32

00003aa4 <l3590>:
    3aa4:	e73d7000 	ldr	r7, [sp, -r0]!

00003aa8 <l3591>:
    3aa8:	e0d98009 	sbcs	r8, r9, r9

00003aac <l3592>:
    3aac:	60041009 	andvs	r1, r4, r9

00003ab0 <l3593>:
    3ab0:	30581009 	subscc	r1, r8, r9

00003ab4 <l3594>:
    3ab4:	e3a0902c 	mov	r9, #44	; 0x2c

00003ab8 <l3595>:
    3ab8:	c19db0b9 	ldrhgt	fp, [sp, r9]

00003abc <l3596>:
    3abc:	e1360669 	teq	r6, r9, ror #12

00003ac0 <l3597>:
    3ac0:	e3a04014 	mov	r4, #20

00003ac4 <l3598>:
    3ac4:	b71d1004 	ldrlt	r1, [sp, -r4]

00003ac8 <l3599>:
    3ac8:	e17c0064 	cmn	ip, r4, rrx

00003acc <l3600>:
    3acc:	e0229067 	eor	r9, r2, r7, rrx

00003ad0 <l3601>:
    3ad0:	e23a0912 	eors	r0, sl, #294912	; 0x48000

00003ad4 <l3602>:
    3ad4:	e3a03014 	mov	r3, #20

00003ad8 <l3603>:
    3ad8:	87dd1003 	ldrbhi	r1, [sp, r3]

00003adc <l3604>:
    3adc:	a231b207 	eorsge	fp, r1, #1879048192	; 0x70000000

00003ae0 <l3605>:
    3ae0:	e3a08018 	mov	r8, #24

00003ae4 <l3606>:
    3ae4:	818d40b8 	strhhi	r4, [sp, r8]

00003ae8 <l3607>:
    3ae8:	955d3008 	ldrbls	r3, [sp, #-8]

00003aec <l3608>:
    3aec:	e3a02028 	mov	r2, #40	; 0x28

00003af0 <interrupt_892>:
    3af0:	e78de002 	str	lr, [sp, r2]

00003af4 <l3610>:
    3af4:	e59fa000 	ldr	sl, [pc]	; 3afc <l3612>

00003af8 <l3611>:
    3af8:	ea000000 	b	3b00 <l3613>

00003afc <l3612>:
    3afc:	000fffcc 	.word	0x000fffcc

00003b00 <l3613>:
    3b00:	c10ab099 	swpgt	fp, r9, [sl]

00003b04 <l3614>:
    3b04:	e0179009 	ands	r9, r7, r9

00003b08 <interrupt_23>:
    3b08:	71cd11bc 	strhvc	r1, [sp, #28]

00003b0c <l3616>:
    3b0c:	c2584d0e 	subsgt	r4, r8, #896	; 0x380

00003b10 <l3617>:
    3b10:	03f067d1 	mvnseq	r6, #54788096	; 0x3440000

00003b14 <l3618>:
    3b14:	e0ef87ac 	rsc	r8, pc, ip, lsr #15

00003b18 <l3619>:
    3b18:	116f3f12 	clzne	r3, r2

00003b1c <l3620>:
    3b1c:	411e0b57 	tstmi	lr, r7, asr fp

00003b20 <l3621>:
    3b20:	e3a0900c 	mov	r9, #12

00003b24 <l3622>:
    3b24:	471d3009 	ldrmi	r3, [sp, -r9]

00003b28 <interrupt_266>:
    3b28:	83a03d2f 	movhi	r3, #3008	; 0xbc0

00003b2c <l3624>:
    3b2c:	d16f3f14 	clzle	r3, r4

00003b30 <l3625>:
    3b30:	391d0408 	ldmdbcc	sp, {r3, sl}

00003b34 <l3626>:
    3b34:	e2fe7b8a 	rscs	r7, lr, #141312	; 0x22800

00003b38 <interrupt_88>:
    3b38:	b09289e9 	addslt	r8, r2, r9, ror #19

00003b3c <interrupt_304>:
    3b3c:	e3a0b00a 	mov	fp, #10

00003b40 <l3629>:
    3b40:	e19d00fb 	ldrsh	r0, [sp, fp]

00003b44 <l3630>:
    3b44:	e0b1a473 	adcs	sl, r1, r3, ror r4

00003b48 <l3631>:
    3b48:	e1b0ac11 	lsls	sl, r1, ip

00003b4c <l3632>:
    3b4c:	e83d1444 	ldmda	sp!, {r2, r6, sl, ip}

00003b50 <l3633>:
    3b50:	e16f7f19 	clz	r7, r9

00003b54 <l3634>:
    3b54:	e59f5000 	ldr	r5, [pc]	; 3b5c <l3636>

00003b58 <interrupt_517>:
    3b58:	ea000000 	b	3b60 <l3637>

00003b5c <l3636>:
    3b5c:	000fffb0 	.word	0x000fffb0

00003b60 <l3637>:
    3b60:	21057096 	swpcs	r7, r6, [r5]

00003b64 <l3638>:
    3b64:	1a000003 	bne	3b78 <l3643>

00003b68 <l3639>:
    3b68:	d3330439 	teqle	r3, #956301312	; 0x39000000

00003b6c <l3640>:
    3b6c:	e0139852 	ands	r9, r3, r2, asr r8

00003b70 <interrupt_717>:
    3b70:	e0f30be3 	rscs	r0, r3, r3, ror #23

00003b74 <l3642>:
    3b74:	d0ee3224 	rscle	r3, lr, r4, lsr #4

00003b78 <l3643>:
    3b78:	e00e570f 	and	r5, lr, pc, lsl #14

00003b7c <l3644>:
    3b7c:	e07ea06b 	rsbs	sl, lr, fp, rrx

00003b80 <l3645>:
    3b80:	d0ce503e 	sbcle	r5, lr, lr, lsr r0

00003b84 <l3646>:
    3b84:	e059be56 	subs	fp, r9, r6, asr lr

00003b88 <l3647>:
    3b88:	1087700e 	addne	r7, r7, lr

00003b8c <l3648>:
    3b8c:	516f0f1e 	clzpl	r0, lr

00003b90 <l3649>:
    3b90:	e89d0a37 	ldm	sp, {r0, r1, r2, r4, r5, r9, fp}

00003b94 <interrupt_237>:
    3b94:	e3a06013 	mov	r6, #19

00003b98 <interrupt_959>:
    3b98:	67cd4006 	strbvs	r4, [sp, r6]

00003b9c <l3652>:
    3b9c:	6076c002 	rsbsvs	ip, r6, r2

00003ba0 <interrupt_35>:
    3ba0:	a1dd63f2 	ldrshge	r6, [sp, #50]	; 0x32

00003ba4 <l3654>:
    3ba4:	a27a3135 	rsbsge	r3, sl, #1073741837	; 0x4000000d

00003ba8 <l3655>:
    3ba8:	e3a0a000 	mov	sl, #0

00003bac <l3656>:
    3bac:	e7bde00a 	ldr	lr, [sp, sl]!

00003bb0 <l3657>:
    3bb0:	e0d4744b 	sbcs	r7, r4, fp, asr #8

00003bb4 <interrupt_999>:
    3bb4:	e3a05034 	mov	r5, #52	; 0x34

00003bb8 <l3659>:
    3bb8:	e69d5005 	ldr	r5, [sp], r5

00003bbc <interrupt_704>:
    3bbc:	e59fc000 	ldr	ip, [pc]	; 3bc4 <l3662>

00003bc0 <l3661>:
    3bc0:	ea000000 	b	3bc8 <l3663>

00003bc4 <l3662>:
    3bc4:	000fffd0 	.word	0x000fffd0

00003bc8 <l3663>:
    3bc8:	214c2095 	swpbcs	r2, r5, [ip]

00003bcc <l3664>:
    3bcc:	e11b0000 	tst	fp, r0

00003bd0 <l3665>:
    3bd0:	e13e0064 	teq	lr, r4, rrx

00003bd4 <interrupt_150>:
    3bd4:	3069127a 	rsbcc	r1, r9, sl, ror r2

00003bd8 <l3667>:
    3bd8:	e187727c 	orr	r7, r7, ip, ror r2

00003bdc <l3668>:
    3bdc:	60fba001 	rscsvs	sl, fp, r1

00003be0 <l3669>:
    3be0:	e1f05985 	mvns	r5, r5, lsl #19

00003be4 <l3670>:
    3be4:	103161a1 	eorsne	r6, r1, r1, lsr #3

00003be8 <l3671>:
    3be8:	e14de3b4 	strh	lr, [sp, #-52]	; 0xffffffcc

00003bec <l3672>:
    3bec:	e1a0bb40 	asr	fp, r0, #22

00003bf0 <l3673>:
    3bf0:	e1b0b263 	rors	fp, r3, #4

00003bf4 <l3674>:
    3bf4:	e59fb000 	ldr	fp, [pc]	; 3bfc <l3676>

00003bf8 <l3675>:
    3bf8:	ea000000 	b	3c00 <l3677>

00003bfc <l3676>:
    3bfc:	000fffc4 	.word	0x000fffc4

00003c00 <l3677>:
    3c00:	e14b5095 	swpb	r5, r5, [fp]

00003c04 <l3678>:
    3c04:	e077e430 	rsbs	lr, r7, r0, lsr r4

00003c08 <l3679>:
    3c08:	e3a04028 	mov	r4, #40	; 0x28

00003c0c <l3680>:
    3c0c:	e72df004 	str	pc, [sp, -r4]!

00003c10 <l3681>:
    3c10:	e08b2e71 	add	r2, fp, r1, ror lr

00003c14 <l3682>:
    3c14:	e92d5500 	push	{r8, sl, ip, lr}

00003c18 <l3683>:
    3c18:	e1a00000 	nop			; (mov r0, r0)

00003c1c <interrupt_662>:
    3c1c:	5049e338 	subpl	lr, r9, r8, lsr r3

00003c20 <interrupt_514>:
    3c20:	4a000003 	bmi	3c34 <l3690>

00003c24 <interrupt_179>:
    3c24:	e280102e 	add	r1, r0, #46	; 0x2e

00003c28 <l3687>:
    3c28:	e3730113 	cmn	r3, #-1073741820	; 0xc0000004

00003c2c <l3688>:
    3c2c:	8268b406 	rsbhi	fp, r8, #100663296	; 0x6000000

00003c30 <l3689>:
    3c30:	ea000000 	b	3c38 <l3691>

00003c34 <l3690>:
    3c34:	eafffffb 	b	3c28 <l3687>

00003c38 <l3691>:
    3c38:	e48dc018 	str	ip, [sp], #24

00003c3c <l3692>:
    3c3c:	e3a0300c 	mov	r3, #12

00003c40 <l3693>:
    3c40:	811da0f3 	ldrshhi	sl, [sp, -r3]

00003c44 <l3694>:
    3c44:	e15d30d9 	ldrsb	r3, [sp, #-9]

00003c48 <l3695>:
    3c48:	a1897088 	orrge	r7, r9, r8, lsl #1

00003c4c <interrupt_980>:
    3c4c:	11849c5c 	orrne	r9, r4, ip, asr ip

00003c50 <l3697>:
    3c50:	c5cdc019 	strbgt	ip, [sp, #25]

00003c54 <l3698>:
    3c54:	83360d2f 	teqhi	r6, #3008	; 0xbc0

00003c58 <l3699>:
    3c58:	e137006e 	teq	r7, lr, rrx

00003c5c <l3700>:
    3c5c:	e2d1ae1e 	sbcs	sl, r1, #480	; 0x1e0

00003c60 <l3701>:
    3c60:	733e0172 	teqvc	lr, #-2147483620	; 0x8000001c

00003c64 <l3702>:
    3c64:	e59f4000 	ldr	r4, [pc]	; 3c6c <l3704>

00003c68 <l3703>:
    3c68:	ea000000 	b	3c70 <l3705>

00003c6c <l3704>:
    3c6c:	000fffb8 	.word	0x000fffb8

00003c70 <l3705>:
    3c70:	e1041098 	swp	r1, r8, [r4]

00003c74 <l3706>:
    3c74:	d1b00e71 	rorsle	r0, r1, lr

00003c78 <l3707>:
    3c78:	e8ad0260 	stmia	sp!, {r5, r6, r9}

00003c7c <l3708>:
    3c7c:	e19b1d09 	orrs	r1, fp, r9, lsl #26

00003c80 <l3709>:
    3c80:	e3a0c01a 	mov	ip, #26

00003c84 <interrupt_963>:
    3c84:	810dc0bc 	strhhi	ip, [sp, -ip]

00003c88 <interrupt_770>:
    3c88:	b3a0c00f 	movlt	ip, #15

00003c8c <l3712>:
    3c8c:	e1dd40de 	ldrsb	r4, [sp, #14]

00003c90 <l3713>:
    3c90:	c0ef3b6f 	rscgt	r3, pc, pc, ror #22

00003c94 <interrupt_924>:
    3c94:	31500b3c 	cmpcc	r0, ip, lsr fp

00003c98 <l3715>:
    3c98:	80f45004 	rscshi	r5, r4, r4

00003c9c <l3716>:
    3c9c:	e59fc000 	ldr	ip, [pc]	; 3ca4 <l3718>

00003ca0 <interrupt_791>:
    3ca0:	ea000000 	b	3ca8 <l3719>

00003ca4 <l3718>:
    3ca4:	000fffa0 	.word	0x000fffa0

00003ca8 <l3719>:
    3ca8:	414ce095 	swpbmi	lr, r5, [ip]

00003cac <l3720>:
    3cac:	e052630a 	subs	r6, r2, sl, lsl #6

00003cb0 <l3721>:
    3cb0:	e1350b53 	teq	r5, r3, asr fp

00003cb4 <l3722>:
    3cb4:	e16faf13 	clz	sl, r3

00003cb8 <l3723>:
    3cb8:	e3a03016 	mov	r3, #22

00003cbc <l3724>:
    3cbc:	e19d60f3 	ldrsh	r6, [sp, r3]

00003cc0 <l3725>:
    3cc0:	12a6bba3 	adcne	fp, r6, #166912	; 0x28c00

00003cc4 <interrupt_216>:
    3cc4:	70545567 	subsvc	r5, r4, r7, ror #10

00003cc8 <l3727>:
    3cc8:	42a1c14d 	adcmi	ip, r1, #1073741843	; 0x40000013

00003ccc <l3728>:
    3ccc:	e8ad0200 	stmia	sp!, {r9}

00003cd0 <l3729>:
    3cd0:	415d22be 	ldrhmi	r2, [sp, #-46]	; 0xffffffd2

00003cd4 <l3730>:
    3cd4:	e3e062a2 	mvn	r6, #536870922	; 0x2000000a

00003cd8 <l3731>:
    3cd8:	e3a0c02c 	mov	ip, #44	; 0x2c

00003cdc <l3732>:
    3cdc:	e73d300c 	ldr	r3, [sp, -ip]!

00003ce0 <l3733>:
    3ce0:	82d4e6df 	sbcshi	lr, r4, #233832448	; 0xdf00000

00003ce4 <interrupt_435>:
    3ce4:	e1cde0b0 	strh	lr, [sp]

00003ce8 <l3735>:
    3ce8:	211b0c37 	tstcs	fp, r7, lsr ip

00003cec <l3736>:
    3cec:	e59fe000 	ldr	lr, [pc]	; 3cf4 <l3738>

00003cf0 <l3737>:
    3cf0:	ea000000 	b	3cf8 <l3739>

00003cf4 <l3738>:
    3cf4:	000fffa8 	.word	0x000fffa8

00003cf8 <l3739>:
    3cf8:	110e7093 	swpne	r7, r3, [lr]

00003cfc <interrupt_849>:
    3cfc:	ea000006 	b	3d1c <interrupt_929>

00003d00 <l3741>:
    3d00:	e28010a7 	add	r1, r0, #167	; 0xa7

00003d04 <l3742>:
    3d04:	e1590002 	cmp	r9, r2

00003d08 <interrupt_967>:
    3d08:	e3d1a567 	bics	sl, r1, #432013312	; 0x19c00000

00003d0c <l3744>:
    3d0c:	e33f007f 	teq	pc, #127	; 0x7f

00003d10 <l3745>:
    3d10:	527b8baf 	rsbspl	r8, fp, #179200	; 0x2bc00

00003d14 <l3746>:
    3d14:	9157088a 	cmpls	r7, sl, lsl #17

00003d18 <l3747>:
    3d18:	ea000000 	b	3d20 <l3749>

00003d1c <interrupt_929>:
    3d1c:	eafffff8 	b	3d04 <l3742>

00003d20 <l3749>:
    3d20:	93e0a89d 	mvnls	sl, #10289152	; 0x9d0000

00003d24 <interrupt_488>:
    3d24:	e1170774 	tst	r7, r4, ror r7

00003d28 <l3751>:
    3d28:	80681375 	rsbhi	r1, r8, r5, ror r3

00003d2c <l3752>:
    3d2c:	e0faa284 	rscs	sl, sl, r4, lsl #5

00003d30 <interrupt_47>:
    3d30:	41dc7069 	bicsmi	r7, ip, r9, rrx

00003d34 <l3754>:
    3d34:	e13b0005 	teq	fp, r5

00003d38 <l3755>:
    3d38:	32c70502 	sbccc	r0, r7, #8388608	; 0x800000

00003d3c <l3756>:
    3d3c:	e9bd0200 	ldmib	sp!, {r9}

00003d40 <interrupt_859>:
    3d40:	ea000002 	b	3d50 <l3761>

00003d44 <interrupt_99>:
    3d44:	e28010e2 	add	r1, r0, #226	; 0xe2

00003d48 <l3759>:
    3d48:	e177097e 	cmn	r7, lr, ror r9

00003d4c <l3760>:
    3d4c:	ea000000 	b	3d54 <l3762>

00003d50 <l3761>:
    3d50:	eafffffc 	b	3d48 <l3759>

00003d54 <l3762>:
    3d54:	e3a08022 	mov	r8, #34	; 0x22

00003d58 <l3763>:
    3d58:	e19d90b8 	ldrh	r9, [sp, r8]

00003d5c <l3764>:
    3d5c:	0075e004 	rsbseq	lr, r5, r4

00003d60 <l3765>:
    3d60:	008e9067 	addeq	r9, lr, r7, rrx

00003d64 <l3766>:
    3d64:	e59f7000 	ldr	r7, [pc]	; 3d6c <l3768>

00003d68 <interrupt_958>:
    3d68:	ea000000 	b	3d70 <l3769>

00003d6c <l3768>:
    3d6c:	000fffd8 	.word	0x000fffd8

00003d70 <l3769>:
    3d70:	e147109b 	swpb	r1, fp, [r7]

00003d74 <l3770>:
    3d74:	e59f1000 	ldr	r1, [pc]	; 3d7c <l3772>

00003d78 <l3771>:
    3d78:	ea000000 	b	3d80 <l3773>

00003d7c <l3772>:
    3d7c:	000fffbc 	.word	0x000fffbc

00003d80 <l3773>:
    3d80:	e101e09e 	swp	lr, lr, [r1]

00003d84 <l3774>:
    3d84:	3094e06e 	addscc	lr, r4, lr, rrx

00003d88 <l3775>:
    3d88:	a3120080 	tstge	r2, #128	; 0x80

00003d8c <l3776>:
    3d8c:	4133000f 	teqmi	r3, pc

00003d90 <l3777>:
    3d90:	e1954004 	orrs	r4, r5, r4

00003d94 <l3778>:
    3d94:	ea000008 	b	3dbc <l3788>

00003d98 <interrupt_376>:
    3d98:	e37e0932 	cmn	lr, #819200	; 0xc8000

00003d9c <interrupt_934>:
    3d9c:	416f7f1c 	clzmi	r7, ip

00003da0 <interrupt_96>:
    3da0:	b0ea6005 	rsclt	r6, sl, r5

00003da4 <l3782>:
    3da4:	80523008 	subshi	r3, r2, r8

00003da8 <l3783>:
    3da8:	e1190d4f 	tst	r9, pc, asr #26

00003dac <l3784>:
    3dac:	e2851403 	add	r1, r5, #50331648	; 0x3000000

00003db0 <l3785>:
    3db0:	80823c77 	addhi	r3, r2, r7, ror ip

00003db4 <l3786>:
    3db4:	e16fcf16 	clz	ip, r6

00003db8 <l3787>:
    3db8:	e155000a 	cmp	r5, sl

00003dbc <l3788>:
    3dbc:	d036706f 	eorsle	r7, r6, pc, rrx

00003dc0 <l3789>:
    3dc0:	e1c87649 	bic	r7, r8, r9, asr #12

00003dc4 <l3790>:
    3dc4:	e59f2000 	ldr	r2, [pc]	; 3dcc <l3792>

00003dc8 <l3791>:
    3dc8:	ea000000 	b	3dd0 <l3793>

00003dcc <l3792>:
    3dcc:	000fffc4 	.word	0x000fffc4

00003dd0 <l3793>:
    3dd0:	b1025097 	swplt	r5, r7, [r2]

00003dd4 <l3794>:
    3dd4:	e0964004 	adds	r4, r6, r4

00003dd8 <l3795>:
    3dd8:	ea000006 	b	3df8 <l3803>

00003ddc <l3796>:
    3ddc:	e280100a 	add	r1, r0, #10

00003de0 <l3797>:
    3de0:	e023862c 	eor	r8, r3, ip, lsr #12

00003de4 <l3798>:
    3de4:	e2703b5b 	rsbs	r3, r0, #93184	; 0x16c00

00003de8 <l3799>:
    3de8:	826244f2 	rsbhi	r4, r2, #-234881024	; 0xf2000000

00003dec <l3800>:
    3dec:	c1580055 	cmpgt	r8, r5, asr r0

00003df0 <l3801>:
    3df0:	c0b8c25b 	adcsgt	ip, r8, fp, asr r2

00003df4 <interrupt_127>:
    3df4:	ea000000 	b	3dfc <l3804>

00003df8 <l3803>:
    3df8:	eafffff8 	b	3de0 <l3797>

00003dfc <l3804>:
    3dfc:	e3a02019 	mov	r2, #25

00003e00 <l3805>:
    3e00:	519dc0d2 	ldrsbpl	ip, [sp, r2]

00003e04 <l3806>:
    3e04:	80a617c1 	adchi	r1, r6, r1, asr #15

00003e08 <l3807>:
    3e08:	00b1106c 	adcseq	r1, r1, ip, rrx

00003e0c <interrupt_385>:
    3e0c:	01f0300c 	mvnseq	r3, ip

00003e10 <l3809>:
    3e10:	016f9f15 	clzeq	r9, r5

00003e14 <l3810>:
    3e14:	41dde2b8 	ldrhmi	lr, [sp, #40]	; 0x28

00003e18 <l3811>:
    3e18:	e59fa000 	ldr	sl, [pc]	; 3e20 <l3813>

00003e1c <l3812>:
    3e1c:	ea000000 	b	3e24 <l3814>

00003e20 <l3813>:
    3e20:	000fffd4 	.word	0x000fffd4

00003e24 <l3814>:
    3e24:	c14a2094 	swpbgt	r2, r4, [sl]

00003e28 <l3815>:
    3e28:	e37103ee 	cmn	r1, #-1207959549	; 0xb8000003

00003e2c <interrupt_205>:
    3e2c:	e1dd82d2 	ldrsb	r8, [sp, #34]	; 0x22

00003e30 <l3817>:
    3e30:	e2b3e054 	adcs	lr, r3, #84	; 0x54

00003e34 <interrupt_424>:
    3e34:	e59f3000 	ldr	r3, [pc]	; 3e3c <l3820>

00003e38 <l3819>:
    3e38:	ea000000 	b	3e40 <l3821>

00003e3c <l3820>:
    3e3c:	000fffe8 	.word	0x000fffe8

00003e40 <l3821>:
    3e40:	9143109b 	swpbls	r1, fp, [r3]

00003e44 <l3822>:
    3e44:	90e93928 	rscls	r3, r9, r8, lsr #18

00003e48 <l3823>:
    3e48:	02b7e4aa 	adcseq	lr, r7, #-1442840576	; 0xaa000000

00003e4c <interrupt_584>:
    3e4c:	e19e7007 	orrs	r7, lr, r7

00003e50 <interrupt_713>:
    3e50:	e3a0c010 	mov	ip, #16

00003e54 <interrupt_655>:
    3e54:	e68d200c 	str	r2, [sp], ip

00003e58 <interrupt_115>:
    3e58:	c90d0044 	stmdbgt	sp, {r2, r6}

00003e5c <l3828>:
    3e5c:	e0f3b009 	rscs	fp, r3, r9

00003e60 <l3829>:
    3e60:	320b70f9 	andcc	r7, fp, #249	; 0xf9

00003e64 <l3830>:
    3e64:	e9bd1f8f 	ldmib	sp!, {r0, r1, r2, r3, r7, r8, r9, sl, fp, ip}

00003e68 <l3831>:
    3e68:	e16f5f18 	clz	r5, r8

00003e6c <interrupt_263>:
    3e6c:	60394160 	eorsvs	r4, r9, r0, ror #2

00003e70 <l3833>:
    3e70:	e1f08772 	mvns	r8, r2, ror r7

00003e74 <l3834>:
    3e74:	e090b30c 	adds	fp, r0, ip, lsl #6

00003e78 <l3835>:
    3e78:	d3983023 	orrsle	r3, r8, #35	; 0x23

00003e7c <l3836>:
    3e7c:	e0577e13 	subs	r7, r7, r3, lsl lr

00003e80 <l3837>:
    3e80:	e1f00513 	mvns	r0, r3, lsl r5

00003e84 <l3838>:
    3e84:	51310039 	teqpl	r1, r9, lsr r0

00003e88 <interrupt_646>:
    3e88:	e04c2050 	sub	r2, ip, r0, asr r0

00003e8c <l3840>:
    3e8c:	b173000c 	cmnlt	r3, ip

00003e90 <l3841>:
    3e90:	e253ca13 	subs	ip, r3, #77824	; 0x13000

00003e94 <l3842>:
    3e94:	e2a392db 	adc	r9, r3, #-1342177267	; 0xb000000d

00003e98 <l3843>:
    3e98:	e3a0e002 	mov	lr, #2

00003e9c <interrupt_578>:
    3e9c:	e19da0be 	ldrh	sl, [sp, lr]

00003ea0 <l3845>:
    3ea0:	e3a08028 	mov	r8, #40	; 0x28

00003ea4 <interrupt_244>:
    3ea4:	e71d8008 	ldr	r8, [sp, -r8]

00003ea8 <l3847>:
    3ea8:	e3cfa805 	bic	sl, pc, #327680	; 0x50000

00003eac <interrupt_737>:
    3eac:	e172000e 	cmn	r2, lr

00003eb0 <l3849>:
    3eb0:	e1580005 	cmp	r8, r5

00003eb4 <interrupt_937>:
    3eb4:	93c0b12d 	bicls	fp, r0, #1073741835	; 0x4000000b

00003eb8 <l3851>:
    3eb8:	71520f28 	cmpvc	r2, r8, lsr #30

00003ebc <l3852>:
    3ebc:	213e065b 	teqcs	lr, fp, asr r6

00003ec0 <l3853>:
    3ec0:	c0087004 	andgt	r7, r8, r4

00003ec4 <interrupt_773>:
    3ec4:	e16faf13 	clz	sl, r3

00003ec8 <l3855>:
    3ec8:	4281ca87 	addmi	ip, r1, #552960	; 0x87000

00003ecc <l3856>:
    3ecc:	016f4f17 	clzeq	r4, r7

00003ed0 <l3857>:
    3ed0:	e3a0c00a 	mov	ip, #10

00003ed4 <l3858>:
    3ed4:	511d80fc 	ldrshpl	r8, [sp, -ip]

00003ed8 <interrupt_639>:
    3ed8:	e3a02008 	mov	r2, #8

00003edc <l3860>:
    3edc:	e72d8002 	str	r8, [sp, -r2]!

00003ee0 <l3861>:
    3ee0:	ea000006 	b	3f00 <l3869>

00003ee4 <l3862>:
    3ee4:	e28010d3 	add	r1, r0, #211	; 0xd3

00003ee8 <l3863>:
    3ee8:	e03bc065 	eors	ip, fp, r5, rrx

00003eec <l3864>:
    3eec:	d130076c 	teqle	r0, ip, ror #14

00003ef0 <interrupt_372>:
    3ef0:	b16f6f14 	clzlt	r6, r4

00003ef4 <l3866>:
    3ef4:	42bc1e1f 	adcsmi	r1, ip, #496	; 0x1f0

00003ef8 <l3867>:
    3ef8:	80042144 	andhi	r2, r4, r4, asr #2

00003efc <l3868>:
    3efc:	ea000000 	b	3f04 <l3870>

00003f00 <l3869>:
    3f00:	eafffff8 	b	3ee8 <l3863>

00003f04 <l3870>:
    3f04:	80213b18 	eorhi	r3, r1, r8, lsl fp

00003f08 <l3871>:
    3f08:	a16fcf1e 	clzge	ip, lr

00003f0c <l3872>:
    3f0c:	e99d0043 	ldmib	sp, {r0, r1, r6}

00003f10 <l3873>:
    3f10:	6041906e 	subvs	r9, r1, lr, rrx

00003f14 <interrupt_439>:
    3f14:	e59f1000 	ldr	r1, [pc]	; 3f1c <l3876>

00003f18 <l3875>:
    3f18:	ea000000 	b	3f20 <l3877>

00003f1c <l3876>:
    3f1c:	000fffa8 	.word	0x000fffa8

00003f20 <l3877>:
    3f20:	2141209a 	swpbcs	r2, sl, [r1]

00003f24 <l3878>:
    3f24:	50e6165b 	rscpl	r1, r6, fp, asr r6

00003f28 <l3879>:
    3f28:	e0106c48 	ands	r6, r0, r8, asr #24

00003f2c <l3880>:
    3f2c:	e0fb2c3e 	rscs	r2, fp, lr, lsr ip

00003f30 <l3881>:
    3f30:	e59f3000 	ldr	r3, [pc]	; 3f38 <l3883>

00003f34 <interrupt_446>:
    3f34:	ea000000 	b	3f3c <l3884>

00003f38 <l3883>:
    3f38:	000fffa0 	.word	0x000fffa0

00003f3c <l3884>:
    3f3c:	7143b098 	swpbvc	fp, r8, [r3]

00003f40 <l3885>:
    3f40:	50e0e05a 	rscpl	lr, r0, sl, asr r0

00003f44 <l3886>:
    3f44:	815d60d2 	ldrsbhi	r6, [sp, #-2]

00003f48 <l3887>:
    3f48:	e3a0600c 	mov	r6, #12

00003f4c <l3888>:
    3f4c:	b11da0b6 	ldrhlt	sl, [sp, -r6]

00003f50 <interrupt_419>:
    3f50:	b0e41213 	rsclt	r1, r4, r3, lsl r2

00003f54 <interrupt_536>:
    3f54:	b5cd8010 	strblt	r8, [sp, #16]

00003f58 <l3891>:
    3f58:	0a000006 	beq	3f78 <l3899>

00003f5c <l3892>:
    3f5c:	e28010d7 	add	r1, r0, #215	; 0xd7

00003f60 <interrupt_366>:
    3f60:	316f9f1b 	clzcc	r9, fp

00003f64 <l3894>:
    3f64:	d1d1e98f 	bicsle	lr, r1, pc, lsl #19

00003f68 <l3895>:
    3f68:	0111000e 	tsteq	r1, lr

00003f6c <interrupt_666>:
    3f6c:	e0ce0069 	sbc	r0, lr, r9, rrx

00003f70 <l3897>:
    3f70:	205eb00f 	subscs	fp, lr, pc

00003f74 <l3898>:
    3f74:	ea000000 	b	3f7c <l3900>

00003f78 <l3899>:
    3f78:	eafffff8 	b	3f60 <interrupt_366>

00003f7c <l3900>:
    3f7c:	e0c12908 	sbc	r2, r1, r8, lsl #18

00003f80 <l3901>:
    3f80:	e83d4541 	ldmda	sp!, {r0, r6, r8, sl, lr}

00003f84 <l3902>:
    3f84:	33b00db1 	movscc	r0, #11328	; 0x2c40

00003f88 <l3903>:
    3f88:	d2cf8081 	sbcle	r8, pc, #129	; 0x81

00003f8c <l3904>:
    3f8c:	0a000008 	beq	3fb4 <l3914>

00003f90 <l3905>:
    3f90:	e0e5100a 	rsc	r1, r5, sl

00003f94 <interrupt_844>:
    3f94:	b17e093b 	cmnlt	lr, fp, lsr r9

00003f98 <l3907>:
    3f98:	922cc501 	eorls	ip, ip, #4194304	; 0x400000

00003f9c <l3908>:
    3f9c:	e0040173 	and	r0, r4, r3, ror r1

00003fa0 <l3909>:
    3fa0:	e065c6cb 	rsb	ip, r5, fp, asr #13

00003fa4 <l3910>:
    3fa4:	e1e00004 	mvn	r0, r4

00003fa8 <l3911>:
    3fa8:	e13a0000 	teq	sl, r0

00003fac <l3912>:
    3fac:	313a0007 	teqcc	sl, r7

00003fb0 <interrupt_321>:
    3fb0:	e0508069 	subs	r8, r0, r9, rrx

00003fb4 <l3914>:
    3fb4:	80e15410 	rschi	r5, r1, r0, lsl r4

00003fb8 <l3915>:
    3fb8:	816faf15 	clzhi	sl, r5

00003fbc <l3916>:
    3fbc:	2a000007 	bcs	3fe0 <interrupt_284>

00003fc0 <l3917>:
    3fc0:	e28010fe 	add	r1, r0, #254	; 0xfe

00003fc4 <interrupt_450>:
    3fc4:	d1a03062 	rrxle	r3, r2

00003fc8 <l3919>:
    3fc8:	033c0017 	teqeq	ip, #23

00003fcc <l3920>:
    3fcc:	a0a8e06a 	adcge	lr, r8, sl, rrx

00003fd0 <l3921>:
    3fd0:	11a0100e 	movne	r1, lr

00003fd4 <l3922>:
    3fd4:	716f1f12 	clzvc	r1, r2

00003fd8 <l3923>:
    3fd8:	70c71c19 	sbcvc	r1, r7, r9, lsl ip

00003fdc <l3924>:
    3fdc:	ea000000 	b	3fe4 <interrupt_161>

00003fe0 <interrupt_284>:
    3fe0:	eafffff7 	b	3fc4 <interrupt_450>

00003fe4 <interrupt_161>:
    3fe4:	e50df01c 	str	pc, [sp, #-28]

00003fe8 <interrupt_784>:
    3fe8:	613e0009 	teqvs	lr, r9

00003fec <l3928>:
    3fec:	21560008 	cmpcs	r6, r8

00003ff0 <l3929>:
    3ff0:	e3a04024 	mov	r4, #36	; 0x24

00003ff4 <interrupt_220>:
    3ff4:	e68db004 	str	fp, [sp], r4

00003ff8 <l3931>:
    3ff8:	e15d40d7 	ldrsb	r4, [sp, #-7]

00003ffc <l3932>:
    3ffc:	e25a9005 	subs	r9, sl, #5

00004000 <l3933>:
    4000:	e3a0003c 	mov	r0, #60	; 0x3c

00004004 <l3934>:
    4004:	e60dc000 	str	ip, [sp], -r0

00004008 <l3935>:
    4008:	01dde2d8 	ldrsbeq	lr, [sp, #40]	; 0x28

0000400c <interrupt_508>:
    400c:	a3f0b671 	mvnsge	fp, #118489088	; 0x7100000

00004010 <l3937>:
    4010:	e1b0b00e 	movs	fp, lr

00004014 <l3938>:
    4014:	ea000003 	b	4028 <l3943>

00004018 <l3939>:
    4018:	e280102b 	add	r1, r0, #43	; 0x2b

0000401c <l3940>:
    401c:	e0e9a009 	rsc	sl, r9, r9

00004020 <l3941>:
    4020:	517001ae 	cmnpl	r0, lr, lsr #3

00004024 <l3942>:
    4024:	ea000000 	b	402c <l3944>

00004028 <l3943>:
    4028:	eafffffb 	b	401c <l3940>

0000402c <l3944>:
    402c:	e1a00000 	nop			; (mov r0, r0)

00004030 <l3945>:
    4030:	e3a0101a 	mov	r1, #26

00004034 <interrupt_827>:
    4034:	97dda001 	ldrbls	sl, [sp, r1]

00004038 <interrupt_886>:
    4038:	60e25309 	rscvs	r5, r2, r9, lsl #6

0000403c <l3948>:
    403c:	219b1007 	orrscs	r1, fp, r7

00004040 <l3949>:
    4040:	e2e34acf 	rsc	r4, r3, #847872	; 0xcf000

00004044 <l3950>:
    4044:	e05bb586 	subs	fp, fp, r6, lsl #11

00004048 <l3951>:
    4048:	e90d0100 	stmdb	sp, {r8}

