
ldm_1000.o:     file format elf32-littlearm


Disassembly of section .text:

00000000 <main>:
       0:	e05f000f 	subs	r0, pc, pc
       4:	e59fd000 	ldr	sp, [pc]	; c <val>
       8:	ea000000 	b	10 <next>

0000000c <val>:
       c:	000ffff0 	.word	0x000ffff0

00000010 <next>:
      10:	e59f1000 	ldr	r1, [pc]	; 18 <val1>
      14:	ea000000 	b	1c <next1>

00000018 <val1>:
      18:	aeacf271 	.word	0xaeacf271

0000001c <next1>:
      1c:	e59f2000 	ldr	r2, [pc]	; 24 <val2>
      20:	ea000000 	b	28 <next2>

00000024 <val2>:
      24:	b63fb8a8 	.word	0xb63fb8a8

00000028 <next2>:
      28:	e59f3000 	ldr	r3, [pc]	; 30 <val3>
      2c:	ea000000 	b	34 <next3>

00000030 <val3>:
      30:	00e63f11 	.word	0x00e63f11

00000034 <next3>:
      34:	e59f4000 	ldr	r4, [pc]	; 3c <val4>
      38:	ea000000 	b	40 <next4>

0000003c <val4>:
      3c:	0c3bc1e3 	.word	0x0c3bc1e3

00000040 <next4>:
      40:	e59f5000 	ldr	r5, [pc]	; 48 <val5>
      44:	ea000000 	b	4c <next5>

00000048 <val5>:
      48:	953eab8e 	.word	0x953eab8e

0000004c <next5>:
      4c:	e59f6000 	ldr	r6, [pc]	; 54 <val6>
      50:	ea000000 	b	58 <next6>

00000054 <val6>:
      54:	352376a1 	.word	0x352376a1

00000058 <next6>:
      58:	e59f7000 	ldr	r7, [pc]	; 60 <val7>
      5c:	ea000000 	b	64 <next7>

00000060 <val7>:
      60:	cbfba8df 	.word	0xcbfba8df

00000064 <next7>:
      64:	e59f8000 	ldr	r8, [pc]	; 6c <val8>
      68:	ea000000 	b	70 <next8>

0000006c <val8>:
      6c:	dbb30c1e 	.word	0xdbb30c1e

00000070 <next8>:
      70:	e59f9000 	ldr	r9, [pc]	; 78 <val9>
      74:	ea000000 	b	7c <next9>

00000078 <val9>:
      78:	7875c21d 	.word	0x7875c21d

0000007c <next9>:
      7c:	e59fa000 	ldr	sl, [pc]	; 84 <val10>
      80:	ea000000 	b	88 <next10>

00000084 <val10>:
      84:	3938c762 	.word	0x3938c762

00000088 <next10>:
      88:	e59fb000 	ldr	fp, [pc]	; 90 <val11>
      8c:	ea000000 	b	94 <next11>

00000090 <val11>:
      90:	6ccf08e4 	.word	0x6ccf08e4

00000094 <next11>:
      94:	e59fc000 	ldr	ip, [pc]	; 9c <val12>
      98:	ea000000 	b	a0 <next12>

0000009c <val12>:
      9c:	3fc3cfd4 	.word	0x3fc3cfd4

000000a0 <next12>:
      a0:	e59fe000 	ldr	lr, [pc]	; a8 <val14>
      a4:	ea000000 	b	ac <next14>

000000a8 <val14>:
      a8:	db3b2ab6 	.word	0xdb3b2ab6

000000ac <next14>:
      ac:	e59f1000 	ldr	r1, [pc]	; b4 <val15>
      b0:	ea000000 	b	b8 <next15>

000000b4 <val15>:
      b4:	75c077c4 	.word	0x75c077c4

000000b8 <next15>:
      b8:	e58d1000 	str	r1, [sp]
      bc:	e59f1000 	ldr	r1, [pc]	; c4 <val16>
      c0:	ea000000 	b	c8 <next16>

000000c4 <val16>:
      c4:	f594396e 	.word	0xf594396e

000000c8 <next16>:
      c8:	e50d1004 	str	r1, [sp, #-4]
      cc:	e59f1000 	ldr	r1, [pc]	; d4 <val17>
      d0:	ea000000 	b	d8 <next17>

000000d4 <val17>:
      d4:	86f9a20c 	.word	0x86f9a20c

000000d8 <next17>:
      d8:	e50d1008 	str	r1, [sp, #-8]
      dc:	e59f1000 	ldr	r1, [pc]	; e4 <val18>
      e0:	ea000000 	b	e8 <next18>

000000e4 <val18>:
      e4:	aa019945 	.word	0xaa019945

000000e8 <next18>:
      e8:	e50d100c 	str	r1, [sp, #-12]
      ec:	e59f1000 	ldr	r1, [pc]	; f4 <val19>
      f0:	ea000000 	b	f8 <next19>

000000f4 <val19>:
      f4:	68912f47 	.word	0x68912f47

000000f8 <next19>:
      f8:	e50d1010 	str	r1, [sp, #-16]
      fc:	e59f1000 	ldr	r1, [pc]	; 104 <val20>
     100:	ea000000 	b	108 <next20>

00000104 <val20>:
     104:	da54041d 	.word	0xda54041d

00000108 <next20>:
     108:	e50d1014 	str	r1, [sp, #-20]
     10c:	e59f1000 	ldr	r1, [pc]	; 114 <val21>
     110:	ea000000 	b	118 <next21>

00000114 <val21>:
     114:	e71ebfb7 	.word	0xe71ebfb7

00000118 <next21>:
     118:	e50d1018 	str	r1, [sp, #-24]
     11c:	e59f1000 	ldr	r1, [pc]	; 124 <val22>
     120:	ea000000 	b	128 <next22>

00000124 <val22>:
     124:	27cf9d8c 	.word	0x27cf9d8c

00000128 <next22>:
     128:	e50d101c 	str	r1, [sp, #-28]
     12c:	e59f1000 	ldr	r1, [pc]	; 134 <val23>
     130:	ea000000 	b	138 <next23>

00000134 <val23>:
     134:	e15bcf49 	.word	0xe15bcf49

00000138 <next23>:
     138:	e50d1020 	str	r1, [sp, #-32]
     13c:	e59f1000 	ldr	r1, [pc]	; 144 <val24>
     140:	ea000000 	b	148 <next24>

00000144 <val24>:
     144:	ae23b7c5 	.word	0xae23b7c5

00000148 <next24>:
     148:	e50d1024 	str	r1, [sp, #-36]	; 0x24
     14c:	e59f1000 	ldr	r1, [pc]	; 154 <val25>
     150:	ea000000 	b	158 <next25>

00000154 <val25>:
     154:	eccd85c2 	.word	0xeccd85c2

00000158 <next25>:
     158:	e50d1028 	str	r1, [sp, #-40]	; 0x28
     15c:	e59f1000 	ldr	r1, [pc]	; 164 <val26>
     160:	ea000000 	b	168 <next26>

00000164 <val26>:
     164:	5166e80b 	.word	0x5166e80b

00000168 <next26>:
     168:	e50d102c 	str	r1, [sp, #-44]	; 0x2c
     16c:	e59f1000 	ldr	r1, [pc]	; 174 <val27>
     170:	ea000000 	b	178 <next27>

00000174 <val27>:
     174:	1acd8890 	.word	0x1acd8890

00000178 <next27>:
     178:	e50d1030 	str	r1, [sp, #-48]	; 0x30
     17c:	e59f1000 	ldr	r1, [pc]	; 184 <val28>
     180:	ea000000 	b	188 <next28>

00000184 <val28>:
     184:	4049a0f0 	.word	0x4049a0f0

00000188 <next28>:
     188:	e50d1034 	str	r1, [sp, #-52]	; 0x34
     18c:	e59f1000 	ldr	r1, [pc]	; 194 <val29>
     190:	ea000000 	b	198 <next29>

00000194 <val29>:
     194:	73ae2bac 	.word	0x73ae2bac

00000198 <next29>:
     198:	e50d1038 	str	r1, [sp, #-56]	; 0x38
     19c:	e59f1000 	ldr	r1, [pc]	; 1a4 <val30>
     1a0:	ea000000 	b	1a8 <next30>

000001a4 <val30>:
     1a4:	27bea291 	.word	0x27bea291

000001a8 <next30>:
     1a8:	e50d103c 	str	r1, [sp, #-60]	; 0x3c
     1ac:	e59f1000 	ldr	r1, [pc]	; 1b4 <val31>
     1b0:	ea000000 	b	1b8 <next31>

000001b4 <val31>:
     1b4:	5c2d17cd 	.word	0x5c2d17cd

000001b8 <next31>:
     1b8:	e50d1040 	str	r1, [sp, #-64]	; 0x40
     1bc:	e59f1000 	ldr	r1, [pc]	; 1c4 <val32>
     1c0:	ea000000 	b	1c8 <next32>

000001c4 <val32>:
     1c4:	b8e0f595 	.word	0xb8e0f595

000001c8 <next32>:
     1c8:	e50d1044 	str	r1, [sp, #-68]	; 0x44
     1cc:	e59f1000 	ldr	r1, [pc]	; 1d4 <val33>
     1d0:	ea000000 	b	1d8 <next33>

000001d4 <val33>:
     1d4:	689c19f2 	.word	0x689c19f2

000001d8 <next33>:
     1d8:	e50d1048 	str	r1, [sp, #-72]	; 0x48
     1dc:	e59f1000 	ldr	r1, [pc]	; 1e4 <val34>
     1e0:	ea000000 	b	1e8 <next34>

000001e4 <val34>:
     1e4:	3254a255 	.word	0x3254a255

000001e8 <next34>:
     1e8:	e50d104c 	str	r1, [sp, #-76]	; 0x4c
     1ec:	e59f1000 	ldr	r1, [pc]	; 1f4 <val35>
     1f0:	ea000000 	b	1f8 <next35>

000001f4 <val35>:
     1f4:	949bcc45 	.word	0x949bcc45

000001f8 <next35>:
     1f8:	e50d1050 	str	r1, [sp, #-80]	; 0x50

000001fc <l1>:
     1fc:	e81d57ff 	ldmda	sp, {r0, r1, r2, r3, r4, r5, r6, r7, r8, r9, sl, ip, lr}

00000200 <l2>:
     200:	381d0029 	ldmdacc	sp, {r0, r3, r5}

00000204 <l3>:
     204:	189d4952 	ldmne	sp, {r1, r4, r6, r8, fp, lr}

00000208 <l4>:
     208:	e93d1e99 	ldmdb	sp!, {r0, r3, r4, r7, r9, sl, fp, ip}

0000020c <l5>:
     20c:	a99d050b 	ldmibge	sp, {r0, r1, r3, r8, sl}

00000210 <l6>:
     210:	e8bd47ed 	pop	{r0, r2, r3, r5, r6, r7, r8, r9, sl, lr}

00000214 <l7>:
     214:	e93d0c75 	ldmdb	sp!, {r0, r2, r4, r5, r6, sl, fp}

00000218 <l8>:
     218:	e9bd4084 	ldmib	sp!, {r2, r7, lr}

0000021c <l9>:
     21c:	e93d0eb6 	ldmdb	sp!, {r1, r2, r4, r5, r7, r9, sl, fp}

00000220 <l10>:
     220:	391d0020 	ldmdbcc	sp, {r5}

00000224 <l11>:
     224:	e93d4000 	ldmdb	sp!, {lr}

00000228 <l12>:
     228:	e91d1005 	ldmdb	sp, {r0, r2, ip}

0000022c <l13>:
     22c:	e9bd5fff 	ldmib	sp!, {r0, r1, r2, r3, r4, r5, r6, r7, r8, r9, sl, fp, ip, lr}

00000230 <l14>:
     230:	a81d427a 	ldmdage	sp, {r1, r3, r4, r5, r6, r9, lr}

00000234 <l15>:
     234:	e9bd0044 	ldmib	sp!, {r2, r6}

00000238 <l16>:
     238:	799d0005 	ldmibvc	sp, {r0, r2}

0000023c <l17>:
     23c:	e93d577c 	ldmdb	sp!, {r2, r3, r4, r5, r6, r8, r9, sl, ip, lr}

00000240 <l18>:
     240:	e83d0080 	ldmda	sp!, {r7}

00000244 <l19>:
     244:	a99d0fc6 	ldmibge	sp, {r1, r2, r6, r7, r8, r9, sl, fp}

00000248 <l20>:
     248:	e83d0604 	ldmda	sp!, {r2, r9, sl}

0000024c <l21>:
     24c:	e91d0988 	ldmdb	sp, {r3, r7, r8, fp}

00000250 <l22>:
     250:	e83d0002 	ldmda	sp!, {r1}

00000254 <l23>:
     254:	e9bd5ff7 	ldmib	sp!, {r0, r1, r2, r4, r5, r6, r7, r8, r9, sl, fp, ip, lr}

00000258 <l24>:
     258:	e8bd0080 	ldmfd	sp!, {r7}

0000025c <l25>:
     25c:	e93d0040 	ldmdb	sp!, {r6}

00000260 <l26>:
     260:	b81d0046 	ldmdalt	sp, {r1, r2, r6}

00000264 <l27>:
     264:	e9bd0846 	ldmib	sp!, {r1, r2, r6, fp}

00000268 <l28>:
     268:	e93d4fbe 	ldmdb	sp!, {r1, r2, r3, r4, r5, r7, r8, r9, sl, fp, lr}

0000026c <l29>:
     26c:	899d0316 	ldmibhi	sp, {r1, r2, r4, r8, r9}

00000270 <l30>:
     270:	e8bd0518 	pop	{r3, r4, r8, sl}

00000274 <l31>:
     274:	e8bd0694 	pop	{r2, r4, r7, r9, sl}

00000278 <l32>:
     278:	e83d1ddd 	ldmda	sp!, {r0, r2, r3, r4, r6, r7, r8, sl, fp, ip}

0000027c <l33>:
     27c:	e8bd5eea 	pop	{r1, r3, r5, r6, r7, r9, sl, fp, ip, lr}

00000280 <l34>:
     280:	e9bd0812 	ldmib	sp!, {r1, r4, fp}

00000284 <l35>:
     284:	e83d0428 	ldmda	sp!, {r3, r5, sl}

00000288 <l36>:
     288:	e9bd0142 	ldmib	sp!, {r1, r6, r8}

0000028c <l37>:
     28c:	b91d056b 	ldmdblt	sp, {r0, r1, r3, r5, r6, r8, sl}

00000290 <l38>:
     290:	e83d0006 	ldmda	sp!, {r1, r2}

00000294 <l39>:
     294:	e83d0826 	ldmda	sp!, {r1, r2, r5, fp}

00000298 <l40>:
     298:	e8bd5fdf 	pop	{r0, r1, r2, r3, r4, r6, r7, r8, r9, sl, fp, ip, lr}

0000029c <l41>:
     29c:	e93d57bf 	ldmdb	sp!, {r0, r1, r2, r3, r4, r5, r7, r8, r9, sl, ip, lr}

000002a0 <l42>:
     2a0:	e93d0010 	ldmdb	sp!, {r4}

000002a4 <l43>:
     2a4:	e8bd5eff 	pop	{r0, r1, r2, r3, r4, r5, r6, r7, r9, sl, fp, ip, lr}

000002a8 <l44>:
     2a8:	e93d13cd 	ldmdb	sp!, {r0, r2, r3, r6, r7, r8, r9, ip}

000002ac <l45>:
     2ac:	e83d1edf 	ldmda	sp!, {r0, r1, r2, r3, r4, r6, r7, r9, sl, fp, ip}

000002b0 <l46>:
     2b0:	d91d0001 	ldmdble	sp, {r0}

000002b4 <l47>:
     2b4:	e8bd5bec 	pop	{r2, r3, r5, r6, r7, r8, r9, fp, ip, lr}

000002b8 <l48>:
     2b8:	e8bd0063 	pop	{r0, r1, r5, r6}

000002bc <l49>:
     2bc:	a99d0200 	ldmibge	sp, {r9}

000002c0 <l50>:
     2c0:	e99d0031 	ldmib	sp, {r0, r4, r5}

000002c4 <l51>:
     2c4:	e81d1002 	ldmda	sp, {r1, ip}

000002c8 <l52>:
     2c8:	e81d4100 	ldmda	sp, {r8, lr}

000002cc <l53>:
     2cc:	e8bd0484 	pop	{r2, r7, sl}

000002d0 <l54>:
     2d0:	e93d5faf 	ldmdb	sp!, {r0, r1, r2, r3, r5, r7, r8, r9, sl, fp, ip, lr}

000002d4 <l55>:
     2d4:	589d1b04 	ldmpl	sp, {r2, r8, r9, fp, ip}

000002d8 <l56>:
     2d8:	e9bd5d4e 	ldmib	sp!, {r1, r2, r3, r6, r8, sl, fp, ip, lr}

000002dc <l57>:
     2dc:	e93d1000 	ldmdb	sp!, {ip}

000002e0 <l58>:
     2e0:	e9bd0500 	ldmib	sp!, {r8, sl}

000002e4 <l59>:
     2e4:	e83d00a0 	ldmda	sp!, {r5, r7}

000002e8 <l60>:
     2e8:	e83d1524 	ldmda	sp!, {r2, r5, r8, sl, ip}

000002ec <l61>:
     2ec:	e93d0718 	ldmdb	sp!, {r3, r4, r8, r9, sl}

000002f0 <l62>:
     2f0:	e9bd1646 	ldmib	sp!, {r1, r2, r6, r9, sl, ip}

000002f4 <l63>:
     2f4:	d91d1014 	ldmdble	sp, {r2, r4, ip}

000002f8 <l64>:
     2f8:	e83d1c16 	ldmda	sp!, {r1, r2, r4, sl, fp, ip}

000002fc <l65>:
     2fc:	e8bd5fff 	pop	{r0, r1, r2, r3, r4, r5, r6, r7, r8, r9, sl, fp, ip, lr}

00000300 <l66>:
     300:	e83d0845 	ldmda	sp!, {r0, r2, r6, fp}

00000304 <l67>:
     304:	e8bd0954 	pop	{r2, r4, r6, r8, fp}

00000308 <l68>:
     308:	e81d5fff 	ldmda	sp, {r0, r1, r2, r3, r4, r5, r6, r7, r8, r9, sl, fp, ip, lr}

0000030c <l69>:
     30c:	e9bd5dbb 	ldmib	sp!, {r0, r1, r3, r4, r5, r7, r8, sl, fp, ip, lr}

00000310 <l70>:
     310:	991d57ef 	ldmdbls	sp, {r0, r1, r2, r3, r5, r6, r7, r8, r9, sl, ip, lr}

00000314 <l71>:
     314:	e93d5108 	ldmdb	sp!, {r3, r8, ip, lr}

00000318 <l72>:
     318:	e93d0010 	ldmdb	sp!, {r4}

0000031c <l73>:
     31c:	e9bd5f7d 	ldmib	sp!, {r0, r2, r3, r4, r5, r6, r8, r9, sl, fp, ip, lr}

00000320 <l74>:
     320:	e8bd0aa8 	pop	{r3, r5, r7, r9, fp}

00000324 <l75>:
     324:	e99d4001 	ldmib	sp, {r0, lr}

00000328 <l76>:
     328:	e9bd0200 	ldmib	sp!, {r9}

0000032c <l77>:
     32c:	e83d5fff 	ldmda	sp!, {r0, r1, r2, r3, r4, r5, r6, r7, r8, r9, sl, fp, ip, lr}

00000330 <l78>:
     330:	791d4a83 	ldmdbvc	sp, {r0, r1, r7, r9, fp, lr}

00000334 <l79>:
     334:	e8bd5bff 	pop	{r0, r1, r2, r3, r4, r5, r6, r7, r8, r9, fp, ip, lr}

00000338 <l80>:
     338:	e93d0020 	ldmdb	sp!, {r5}

0000033c <l81>:
     33c:	e8bd0258 	pop	{r3, r4, r6, r9}

00000340 <l82>:
     340:	889d01a0 	ldmhi	sp, {r5, r7, r8}

00000344 <l83>:
     344:	e89d0040 	ldm	sp, {r6}

00000348 <l84>:
     348:	e83d56bf 	ldmda	sp!, {r0, r1, r2, r3, r4, r5, r7, r9, sl, ip, lr}

0000034c <l85>:
     34c:	699d1423 	ldmibvs	sp, {r0, r1, r5, sl, ip}

00000350 <l86>:
     350:	281d5fff 	ldmdacs	sp, {r0, r1, r2, r3, r4, r5, r6, r7, r8, r9, sl, fp, ip, lr}

00000354 <l87>:
     354:	e99d5f7f 	ldmib	sp, {r0, r1, r2, r3, r4, r5, r6, r8, r9, sl, fp, ip, lr}

00000358 <l88>:
     358:	e9bd100b 	ldmib	sp!, {r0, r1, r3, ip}

0000035c <l89>:
     35c:	981d0080 	ldmdals	sp, {r7}

00000360 <l90>:
     360:	191d5bf5 	ldmdbne	sp, {r0, r2, r4, r5, r6, r7, r8, r9, fp, ip, lr}

00000364 <l91>:
     364:	e89d0d54 	ldm	sp, {r2, r4, r6, r8, sl, fp}

00000368 <l92>:
     368:	e99d0516 	ldmib	sp, {r1, r2, r4, r8, sl}

0000036c <l93>:
     36c:	e9bd0889 	ldmib	sp!, {r0, r3, r7, fp}

00000370 <l94>:
     370:	e93d5fff 	ldmdb	sp!, {r0, r1, r2, r3, r4, r5, r6, r7, r8, r9, sl, fp, ip, lr}

00000374 <l95>:
     374:	199d0f85 	ldmibne	sp, {r0, r2, r7, r8, r9, sl, fp}

00000378 <l96>:
     378:	e83d5005 	ldmda	sp!, {r0, r2, ip, lr}

0000037c <l97>:
     37c:	e83d0400 	ldmda	sp!, {sl}

00000380 <l98>:
     380:	e8bd1bef 	pop	{r0, r1, r2, r3, r5, r6, r7, r8, r9, fp, ip}

00000384 <l99>:
     384:	e8bd0400 	ldmfd	sp!, {sl}

00000388 <l100>:
     388:	e83d4ff9 	ldmda	sp!, {r0, r3, r4, r5, r6, r7, r8, r9, sl, fp, lr}

0000038c <l101>:
     38c:	e83d5f8c 	ldmda	sp!, {r2, r3, r7, r8, r9, sl, fp, ip, lr}

00000390 <l102>:
     390:	e8bd1668 	pop	{r3, r5, r6, r9, sl, ip}

00000394 <l103>:
     394:	399d4fff 	ldmibcc	sp, {r0, r1, r2, r3, r4, r5, r6, r7, r8, r9, sl, fp, lr}

00000398 <l104>:
     398:	e89d0010 	ldm	sp, {r4}

0000039c <l105>:
     39c:	e91d1464 	ldmdb	sp, {r2, r5, r6, sl, ip}

000003a0 <l106>:
     3a0:	e99d1982 	ldmib	sp, {r1, r7, r8, fp, ip}

000003a4 <l107>:
     3a4:	e83d5eff 	ldmda	sp!, {r0, r1, r2, r3, r4, r5, r6, r7, r9, sl, fp, ip, lr}

000003a8 <l108>:
     3a8:	e8bd0d02 	pop	{r1, r8, sl, fp}

000003ac <l109>:
     3ac:	e89d0269 	ldm	sp, {r0, r3, r5, r6, r9}

000003b0 <l110>:
     3b0:	b81d5044 	ldmdalt	sp, {r2, r6, ip, lr}

000003b4 <l111>:
     3b4:	e8bd4204 	pop	{r2, r9, lr}

000003b8 <l112>:
     3b8:	c99d024b 	ldmibgt	sp, {r0, r1, r3, r6, r9}

000003bc <l113>:
     3bc:	e83d5efe 	ldmda	sp!, {r1, r2, r3, r4, r5, r6, r7, r9, sl, fp, ip, lr}

000003c0 <l114>:
     3c0:	e93d0400 	ldmdb	sp!, {sl}

000003c4 <l115>:
     3c4:	e93d5236 	ldmdb	sp!, {r1, r2, r4, r5, r9, ip, lr}

000003c8 <l116>:
     3c8:	e8bd1681 	pop	{r0, r7, r9, sl, ip}

000003cc <l117>:
     3cc:	e9bd1040 	ldmib	sp!, {r6, ip}

000003d0 <l118>:
     3d0:	e8bd5dd5 	pop	{r0, r2, r4, r6, r7, r8, sl, fp, ip, lr}

000003d4 <l119>:
     3d4:	e93d589f 	ldmdb	sp!, {r0, r1, r2, r3, r4, r7, fp, ip, lr}

000003d8 <l120>:
     3d8:	e81d4329 	ldmda	sp, {r0, r3, r5, r8, r9, lr}

000003dc <l121>:
     3dc:	e8bd5fff 	pop	{r0, r1, r2, r3, r4, r5, r6, r7, r8, r9, sl, fp, ip, lr}

000003e0 <l122>:
     3e0:	e89d0600 	ldm	sp, {r9, sl}

000003e4 <l123>:
     3e4:	e93d41cf 	ldmdb	sp!, {r0, r1, r2, r3, r6, r7, r8, lr}

000003e8 <l124>:
     3e8:	e83d5381 	ldmda	sp!, {r0, r7, r8, r9, ip, lr}

000003ec <l125>:
     3ec:	e83d0244 	ldmda	sp!, {r2, r6, r9}

000003f0 <l126>:
     3f0:	e91d0080 	ldmdb	sp, {r7}

000003f4 <l127>:
     3f4:	e8bd4528 	pop	{r3, r5, r8, sl, lr}

000003f8 <l128>:
     3f8:	e8bd5a1d 	pop	{r0, r2, r3, r4, r9, fp, ip, lr}

000003fc <l129>:
     3fc:	e93d48e9 	ldmdb	sp!, {r0, r3, r5, r6, r7, fp, lr}

00000400 <l130>:
     400:	989d0e52 	ldmls	sp, {r1, r4, r6, r9, sl, fp}

00000404 <l131>:
     404:	e83d0048 	ldmda	sp!, {r3, r6}

00000408 <l132>:
     408:	e81d0080 	ldmda	sp, {r7}

0000040c <l133>:
     40c:	c99d495b 	ldmibgt	sp, {r0, r1, r3, r4, r6, r8, fp, lr}

00000410 <l134>:
     410:	e8bd0880 	pop	{r7, fp}

00000414 <l135>:
     414:	e93d0c02 	ldmdb	sp!, {r1, sl, fp}

00000418 <l136>:
     418:	e9bd1120 	ldmib	sp!, {r5, r8, ip}

0000041c <l137>:
     41c:	e83d02ac 	ldmda	sp!, {r2, r3, r5, r7, r9}

00000420 <l138>:
     420:	e89d000c 	ldm	sp, {r2, r3}

00000424 <l139>:
     424:	e83d46d7 	ldmda	sp!, {r0, r1, r2, r4, r6, r7, r9, sl, lr}

00000428 <l140>:
     428:	e93d0830 	ldmdb	sp!, {r4, r5, fp}

0000042c <l141>:
     42c:	e8bd1690 	pop	{r4, r7, r9, sl, ip}

00000430 <l142>:
     430:	e9bd0010 	ldmib	sp!, {r4}

00000434 <l143>:
     434:	991d0002 	ldmdbls	sp, {r1}

00000438 <l144>:
     438:	e8bd58f8 	pop	{r3, r4, r5, r6, r7, fp, ip, lr}

0000043c <l145>:
     43c:	e91d5b1f 	ldmdb	sp, {r0, r1, r2, r3, r4, r8, r9, fp, ip, lr}

00000440 <l146>:
     440:	e83d0466 	ldmda	sp!, {r1, r2, r5, r6, sl}

00000444 <l147>:
     444:	e93d1200 	ldmdb	sp!, {r9, ip}

00000448 <l148>:
     448:	e9bd5bbf 	ldmib	sp!, {r0, r1, r2, r3, r4, r5, r7, r8, r9, fp, ip, lr}

0000044c <l149>:
     44c:	e9bd16b8 	ldmib	sp!, {r3, r4, r5, r7, r9, sl, ip}

00000450 <l150>:
     450:	091d5800 	ldmdbeq	sp, {fp, ip, lr}

00000454 <l151>:
     454:	e9bd0010 	ldmib	sp!, {r4}

00000458 <l152>:
     458:	491d0914 	ldmdbmi	sp, {r2, r4, r8, fp}

0000045c <l153>:
     45c:	e83d1cd7 	ldmda	sp!, {r0, r1, r2, r4, r6, r7, sl, fp, ip}

00000460 <l154>:
     460:	e8bd0aeb 	pop	{r0, r1, r3, r5, r6, r7, r9, fp}

00000464 <l155>:
     464:	999d0c52 	ldmibls	sp, {r1, r4, r6, sl, fp}

00000468 <l156>:
     468:	e9bd0110 	ldmib	sp!, {r4, r8}

0000046c <l157>:
     46c:	e93d0100 	ldmdb	sp!, {r8}

00000470 <l158>:
     470:	381d5fff 	ldmdacc	sp, {r0, r1, r2, r3, r4, r5, r6, r7, r8, r9, sl, fp, ip, lr}

00000474 <l159>:
     474:	e8bd0442 	pop	{r1, r6, sl}

00000478 <l160>:
     478:	e93d524c 	ldmdb	sp!, {r2, r3, r6, r9, ip, lr}

0000047c <l161>:
     47c:	e93d0002 	ldmdb	sp!, {r1}

00000480 <l162>:
     480:	e9bd0262 	ldmib	sp!, {r1, r5, r6, r9}

00000484 <l163>:
     484:	e8bd5521 	pop	{r0, r5, r8, sl, ip, lr}

00000488 <l164>:
     488:	e83d0084 	ldmda	sp!, {r2, r7}

0000048c <l165>:
     48c:	191d134e 	ldmdbne	sp, {r1, r2, r3, r6, r8, r9, ip}

00000490 <l166>:
     490:	e9bd5bb8 	ldmib	sp!, {r3, r4, r5, r7, r8, r9, fp, ip, lr}

00000494 <l167>:
     494:	e9bd0010 	ldmib	sp!, {r4}

00000498 <l168>:
     498:	e93d57e7 	ldmdb	sp!, {r0, r1, r2, r5, r6, r7, r8, r9, sl, ip, lr}

0000049c <l169>:
     49c:	c89d436f 	ldmgt	sp, {r0, r1, r2, r3, r5, r6, r8, r9, lr}

000004a0 <l170>:
     4a0:	e89d0004 	ldm	sp, {r2}

000004a4 <l171>:
     4a4:	e8bd55b7 	pop	{r0, r1, r2, r4, r5, r7, r8, sl, ip, lr}

000004a8 <l172>:
     4a8:	191d5fcd 	ldmdbne	sp, {r0, r2, r3, r6, r7, r8, r9, sl, fp, ip, lr}

000004ac <l173>:
     4ac:	e93d0043 	ldmdb	sp!, {r0, r1, r6}

000004b0 <l174>:
     4b0:	e81d1002 	ldmda	sp, {r1, ip}

000004b4 <l175>:
     4b4:	e8bd54bf 	pop	{r0, r1, r2, r3, r4, r5, r7, sl, ip, lr}

000004b8 <l176>:
     4b8:	e83d5dff 	ldmda	sp!, {r0, r1, r2, r3, r4, r5, r6, r7, r8, sl, fp, ip, lr}

000004bc <l177>:
     4bc:	e81d0800 	ldmda	sp, {fp}

000004c0 <l178>:
     4c0:	e89d17ed 	ldm	sp, {r0, r2, r3, r5, r6, r7, r8, r9, sl, ip}

000004c4 <l179>:
     4c4:	b99d5100 	ldmiblt	sp, {r8, ip, lr}

000004c8 <l180>:
     4c8:	e99d0530 	ldmib	sp, {r4, r5, r8, sl}

000004cc <l181>:
     4cc:	589d0025 	ldmpl	sp, {r0, r2, r5}

000004d0 <l182>:
     4d0:	e83d5018 	ldmda	sp!, {r3, r4, ip, lr}

000004d4 <l183>:
     4d4:	e9bd0102 	ldmib	sp!, {r1, r8}

000004d8 <l184>:
     4d8:	e83d53af 	ldmda	sp!, {r0, r1, r2, r3, r5, r7, r8, r9, ip, lr}

000004dc <l185>:
     4dc:	e83d0004 	ldmda	sp!, {r2}

000004e0 <l186>:
     4e0:	e99d0bcb 	ldmib	sp, {r0, r1, r3, r6, r7, r8, r9, fp}

000004e4 <l187>:
     4e4:	e8bd0143 	pop	{r0, r1, r6, r8}

000004e8 <l188>:
     4e8:	e8bd0001 	ldmfd	sp!, {r0}

000004ec <l189>:
     4ec:	e91d5fff 	ldmdb	sp, {r0, r1, r2, r3, r4, r5, r6, r7, r8, r9, sl, fp, ip, lr}

000004f0 <l190>:
     4f0:	a81d040a 	ldmdage	sp, {r1, r3, sl}

000004f4 <l191>:
     4f4:	e93d0020 	ldmdb	sp!, {r5}

000004f8 <l192>:
     4f8:	e83d0600 	ldmda	sp!, {r9, sl}

000004fc <l193>:
     4fc:	e9bd5969 	ldmib	sp!, {r0, r3, r5, r6, r8, fp, ip, lr}

00000500 <l194>:
     500:	e83d0490 	ldmda	sp!, {r4, r7, sl}

00000504 <l195>:
     504:	e8bd0202 	pop	{r1, r9}

00000508 <l196>:
     508:	e93d08d1 	ldmdb	sp!, {r0, r4, r6, r7, fp}

0000050c <l197>:
     50c:	e8bd4e12 	pop	{r1, r4, r9, sl, fp, lr}

00000510 <l198>:
     510:	e93d48f4 	ldmdb	sp!, {r2, r4, r5, r6, r7, fp, lr}

00000514 <l199>:
     514:	e9bd1066 	ldmib	sp!, {r1, r2, r5, r6, ip}

00000518 <l200>:
     518:	c91d524a 	ldmdbgt	sp, {r1, r3, r6, r9, ip, lr}

0000051c <l201>:
     51c:	e89d4e40 	ldm	sp, {r6, r9, sl, fp, lr}

00000520 <l202>:
     520:	e89d4019 	ldm	sp, {r0, r3, r4, lr}

00000524 <l203>:
     524:	e8bd4ddb 	pop	{r0, r1, r3, r4, r6, r7, r8, sl, fp, lr}

00000528 <l204>:
     528:	e93d4e25 	ldmdb	sp!, {r0, r2, r5, r9, sl, fp, lr}

0000052c <l205>:
     52c:	e8bd40a3 	pop	{r0, r1, r5, r7, lr}

00000530 <l206>:
     530:	e9bd001c 	ldmib	sp!, {r2, r3, r4}

00000534 <l207>:
     534:	e93d0204 	ldmdb	sp!, {r2, r9}

00000538 <l208>:
     538:	e89d4020 	ldm	sp, {r5, lr}

0000053c <l209>:
     53c:	e93d1d49 	ldmdb	sp!, {r0, r3, r6, r8, sl, fp, ip}

00000540 <l210>:
     540:	e83d414b 	ldmda	sp!, {r0, r1, r3, r6, r8, lr}

00000544 <l211>:
     544:	299d0842 	ldmibcs	sp, {r1, r6, fp}

00000548 <l212>:
     548:	e9bd0975 	ldmib	sp!, {r0, r2, r4, r5, r6, r8, fp}

0000054c <l213>:
     54c:	e8bd0080 	ldmfd	sp!, {r7}

00000550 <l214>:
     550:	a99d0810 	ldmibge	sp, {r4, fp}

00000554 <l215>:
     554:	e83d5ffb 	ldmda	sp!, {r0, r1, r3, r4, r5, r6, r7, r8, r9, sl, fp, ip, lr}

00000558 <l216>:
     558:	e81d0004 	ldmda	sp, {r2}

0000055c <l217>:
     55c:	e93d1530 	ldmdb	sp!, {r4, r5, r8, sl, ip}

00000560 <l218>:
     560:	e9bd5120 	ldmib	sp!, {r5, r8, ip, lr}

00000564 <l219>:
     564:	e83d00a0 	ldmda	sp!, {r5, r7}

00000568 <l220>:
     568:	e9bd5fff 	ldmib	sp!, {r0, r1, r2, r3, r4, r5, r6, r7, r8, r9, sl, fp, ip, lr}

0000056c <l221>:
     56c:	081d5fff 	ldmdaeq	sp, {r0, r1, r2, r3, r4, r5, r6, r7, r8, r9, sl, fp, ip, lr}

00000570 <l222>:
     570:	e93d1002 	ldmdb	sp!, {r1, ip}

00000574 <l223>:
     574:	e9bd0617 	ldmib	sp!, {r0, r1, r2, r4, r9, sl}

00000578 <l224>:
     578:	d89d455b 	ldmle	sp, {r0, r1, r3, r4, r6, r8, sl, lr}

0000057c <l225>:
     57c:	e93d4039 	ldmdb	sp!, {r0, r3, r4, r5, lr}

00000580 <l226>:
     580:	e8bd158c 	pop	{r2, r3, r7, r8, sl, ip}

00000584 <l227>:
     584:	191d57ff 	ldmdbne	sp, {r0, r1, r2, r3, r4, r5, r6, r7, r8, r9, sl, ip, lr}

00000588 <l228>:
     588:	e9bd59a5 	ldmib	sp!, {r0, r2, r5, r7, r8, fp, ip, lr}

0000058c <l229>:
     58c:	e9bd4256 	ldmib	sp!, {r1, r2, r4, r6, r9, lr}

00000590 <l230>:
     590:	889d0009 	ldmhi	sp, {r0, r3}

00000594 <l231>:
     594:	e83d5edc 	ldmda	sp!, {r2, r3, r4, r6, r7, r9, sl, fp, ip, lr}

00000598 <l232>:
     598:	e9bd0800 	ldmib	sp!, {fp}

0000059c <l233>:
     59c:	491d0f07 	ldmdbmi	sp, {r0, r1, r2, r8, r9, sl, fp}

000005a0 <l234>:
     5a0:	889d557f 	ldmhi	sp, {r0, r1, r2, r3, r4, r5, r6, r8, sl, ip, lr}

000005a4 <l235>:
     5a4:	e8bd0c55 	pop	{r0, r2, r4, r6, sl, fp}

000005a8 <l236>:
     5a8:	e93d1877 	ldmdb	sp!, {r0, r1, r2, r4, r5, r6, fp, ip}

000005ac <l237>:
     5ac:	981d59ef 	ldmdals	sp, {r0, r1, r2, r3, r5, r6, r7, r8, fp, ip, lr}

000005b0 <l238>:
     5b0:	e8bd5bf7 	pop	{r0, r1, r2, r4, r5, r6, r7, r8, r9, fp, ip, lr}

000005b4 <l239>:
     5b4:	e8bd0468 	pop	{r3, r5, r6, sl}

000005b8 <l240>:
     5b8:	689d00c0 	ldmvs	sp, {r6, r7}

000005bc <l241>:
     5bc:	e8bd1000 	ldmfd	sp!, {ip}

000005c0 <l242>:
     5c0:	e81d5860 	ldmda	sp, {r5, r6, fp, ip, lr}

000005c4 <l243>:
     5c4:	e89d0e0c 	ldm	sp, {r2, r3, r9, sl, fp}

000005c8 <l244>:
     5c8:	e81d04c0 	ldmda	sp, {r6, r7, sl}

000005cc <l245>:
     5cc:	e9bd0024 	ldmib	sp!, {r2, r5}

000005d0 <l246>:
     5d0:	e89d1000 	ldm	sp, {ip}

000005d4 <l247>:
     5d4:	e81d13de 	ldmda	sp, {r1, r2, r3, r4, r6, r7, r8, r9, ip}

000005d8 <l248>:
     5d8:	e93d1f75 	ldmdb	sp!, {r0, r2, r4, r5, r6, r8, r9, sl, fp, ip}

000005dc <l249>:
     5dc:	e8bd1000 	ldmfd	sp!, {ip}

000005e0 <l250>:
     5e0:	e8bd1e3f 	pop	{r0, r1, r2, r3, r4, r5, r9, sl, fp, ip}

000005e4 <l251>:
     5e4:	e83d1eff 	ldmda	sp!, {r0, r1, r2, r3, r4, r5, r6, r7, r9, sl, fp, ip}

000005e8 <l252>:
     5e8:	e8bd5fff 	pop	{r0, r1, r2, r3, r4, r5, r6, r7, r8, r9, sl, fp, ip, lr}

000005ec <l253>:
     5ec:	e93d17f7 	ldmdb	sp!, {r0, r1, r2, r4, r5, r6, r7, r8, r9, sl, ip}

000005f0 <l254>:
     5f0:	d99d4fff 	ldmible	sp, {r0, r1, r2, r3, r4, r5, r6, r7, r8, r9, sl, fp, lr}

000005f4 <l255>:
     5f4:	e8bd0001 	ldmfd	sp!, {r0}

000005f8 <l256>:
     5f8:	d99d0800 	ldmible	sp, {fp}

000005fc <l257>:
     5fc:	689d0120 	ldmvs	sp, {r5, r8}

00000600 <l258>:
     600:	e91d5fff 	ldmdb	sp, {r0, r1, r2, r3, r4, r5, r6, r7, r8, r9, sl, fp, ip, lr}

00000604 <l259>:
     604:	781d0010 	ldmdavc	sp, {r4}

00000608 <l260>:
     608:	399d5bef 	ldmibcc	sp, {r0, r1, r2, r3, r5, r6, r7, r8, r9, fp, ip, lr}

0000060c <l261>:
     60c:	199d0d00 	ldmibne	sp, {r8, sl, fp}

00000610 <l262>:
     610:	e93d1a79 	ldmdb	sp!, {r0, r3, r4, r5, r6, r9, fp, ip}

00000614 <l263>:
     614:	e83d03ec 	ldmda	sp!, {r2, r3, r5, r6, r7, r8, r9}

00000618 <l264>:
     618:	e93d0208 	ldmdb	sp!, {r3, r9}

0000061c <l265>:
     61c:	e93d0010 	ldmdb	sp!, {r4}

00000620 <l266>:
     620:	e93d0090 	ldmdb	sp!, {r4, r7}

00000624 <l267>:
     624:	899d1017 	ldmibhi	sp, {r0, r1, r2, r4, ip}

00000628 <l268>:
     628:	e83d1002 	ldmda	sp!, {r1, ip}

0000062c <l269>:
     62c:	e91d0100 	ldmdb	sp, {r8}

00000630 <l270>:
     630:	e99d4108 	ldmib	sp, {r3, r8, lr}

00000634 <l271>:
     634:	e91d18a4 	ldmdb	sp, {r2, r5, r7, fp, ip}

00000638 <l272>:
     638:	e9bd454c 	ldmib	sp!, {r2, r3, r6, r8, sl, lr}

0000063c <l273>:
     63c:	e8bd1bff 	pop	{r0, r1, r2, r3, r4, r5, r6, r7, r8, r9, fp, ip}

00000640 <l274>:
     640:	e99d0002 	ldmib	sp, {r1}

00000644 <l275>:
     644:	091d4eff 	ldmdbeq	sp, {r0, r1, r2, r3, r4, r5, r6, r7, r9, sl, fp, lr}

00000648 <l276>:
     648:	b99d0400 	ldmiblt	sp, {sl}

0000064c <l277>:
     64c:	e9bd44a5 	ldmib	sp!, {r0, r2, r5, r7, sl, lr}

00000650 <l278>:
     650:	899d4919 	ldmibhi	sp, {r0, r3, r4, r8, fp, lr}

00000654 <l279>:
     654:	e83d0044 	ldmda	sp!, {r2, r6}

00000658 <l280>:
     658:	e9bd0101 	ldmib	sp!, {r0, r8}

0000065c <l281>:
     65c:	881d5d74 	ldmdahi	sp, {r2, r4, r5, r6, r8, sl, fp, ip, lr}

00000660 <l282>:
     660:	e83d4450 	ldmda	sp!, {r4, r6, sl, lr}

00000664 <l283>:
     664:	599d14e9 	ldmibpl	sp, {r0, r3, r5, r6, r7, sl, ip}

00000668 <l284>:
     668:	491d57fe 	ldmdbmi	sp, {r1, r2, r3, r4, r5, r6, r7, r8, r9, sl, ip, lr}

0000066c <l285>:
     66c:	e81d0840 	ldmda	sp, {r6, fp}

00000670 <l286>:
     670:	e89d50bc 	ldm	sp, {r2, r3, r4, r5, r7, ip, lr}

00000674 <l287>:
     674:	e8bd1e9d 	pop	{r0, r2, r3, r4, r7, r9, sl, fp, ip}

00000678 <l288>:
     678:	e81d1dcb 	ldmda	sp, {r0, r1, r3, r6, r7, r8, sl, fp, ip}

0000067c <l289>:
     67c:	e8bd08cf 	pop	{r0, r1, r2, r3, r6, r7, fp}

00000680 <l290>:
     680:	e89d0084 	ldm	sp, {r2, r7}

00000684 <l291>:
     684:	e83d5420 	ldmda	sp!, {r5, sl, ip, lr}

00000688 <l292>:
     688:	e93d0d2f 	ldmdb	sp!, {r0, r1, r2, r3, r5, r8, sl, fp}

0000068c <l293>:
     68c:	e8bd0018 	pop	{r3, r4}

00000690 <l294>:
     690:	e91d07e0 	ldmdb	sp, {r5, r6, r7, r8, r9, sl}

00000694 <l295>:
     694:	e9bd4dc1 	ldmib	sp!, {r0, r6, r7, r8, sl, fp, lr}

00000698 <l296>:
     698:	e9bd59ab 	ldmib	sp!, {r0, r1, r3, r5, r7, r8, fp, ip, lr}

0000069c <l297>:
     69c:	e83d5388 	ldmda	sp!, {r3, r7, r8, r9, ip, lr}

000006a0 <l298>:
     6a0:	e91d0482 	ldmdb	sp, {r1, r7, sl}

000006a4 <l299>:
     6a4:	e93d1024 	ldmdb	sp!, {r2, r5, ip}

000006a8 <l300>:
     6a8:	281d4051 	ldmdacs	sp, {r0, r4, r6, lr}

000006ac <l301>:
     6ac:	e8bd5eff 	pop	{r0, r1, r2, r3, r4, r5, r6, r7, r9, sl, fp, ip, lr}

000006b0 <l302>:
     6b0:	e93d574e 	ldmdb	sp!, {r1, r2, r3, r6, r8, r9, sl, ip, lr}

000006b4 <l303>:
     6b4:	e93d0101 	ldmdb	sp!, {r0, r8}

000006b8 <l304>:
     6b8:	e93d4020 	ldmdb	sp!, {r5, lr}

000006bc <l305>:
     6bc:	e9bd5fff 	ldmib	sp!, {r0, r1, r2, r3, r4, r5, r6, r7, r8, r9, sl, fp, ip, lr}

000006c0 <l306>:
     6c0:	e93d0100 	ldmdb	sp!, {r8}

000006c4 <l307>:
     6c4:	e99d0080 	ldmib	sp, {r7}

000006c8 <l308>:
     6c8:	e93d5fff 	ldmdb	sp!, {r0, r1, r2, r3, r4, r5, r6, r7, r8, r9, sl, fp, ip, lr}

000006cc <l309>:
     6cc:	e9bd0011 	ldmib	sp!, {r0, r4}

000006d0 <l310>:
     6d0:	e8bd1a9e 	pop	{r1, r2, r3, r4, r7, r9, fp, ip}

000006d4 <l311>:
     6d4:	e8bd1454 	pop	{r2, r4, r6, sl, ip}

000006d8 <l312>:
     6d8:	e8bd5080 	pop	{r7, ip, lr}

000006dc <l313>:
     6dc:	e9bd0004 	ldmib	sp!, {r2}

000006e0 <l314>:
     6e0:	e99d0008 	ldmib	sp, {r3}

000006e4 <l315>:
     6e4:	e83d1c6c 	ldmda	sp!, {r2, r3, r5, r6, sl, fp, ip}

000006e8 <l316>:
     6e8:	881d19e6 	ldmdahi	sp, {r1, r2, r5, r6, r7, r8, fp, ip}

000006ec <l317>:
     6ec:	e9bd1049 	ldmib	sp!, {r0, r3, r6, ip}

000006f0 <l318>:
     6f0:	499d4bf5 	ldmibmi	sp, {r0, r2, r4, r5, r6, r7, r8, r9, fp, lr}

000006f4 <l319>:
     6f4:	e99d0008 	ldmib	sp, {r3}

000006f8 <l320>:
     6f8:	e93d10c1 	ldmdb	sp!, {r0, r6, r7, ip}

000006fc <l321>:
     6fc:	e93d4000 	ldmdb	sp!, {lr}

00000700 <l322>:
     700:	e8bd0608 	pop	{r3, r9, sl}

00000704 <l323>:
     704:	e83d571e 	ldmda	sp!, {r1, r2, r3, r4, r8, r9, sl, ip, lr}

00000708 <l324>:
     708:	e8bd5094 	pop	{r2, r4, r7, ip, lr}

0000070c <l325>:
     70c:	e9bd4195 	ldmib	sp!, {r0, r2, r4, r7, r8, lr}

00000710 <l326>:
     710:	e83d535c 	ldmda	sp!, {r2, r3, r4, r6, r8, r9, ip, lr}

00000714 <l327>:
     714:	e83d1000 	ldmda	sp!, {ip}

00000718 <l328>:
     718:	e83d0148 	ldmda	sp!, {r3, r6, r8}

0000071c <l329>:
     71c:	e8bd167f 	pop	{r0, r1, r2, r3, r4, r5, r6, r9, sl, ip}

00000720 <l330>:
     720:	e8bd0900 	pop	{r8, fp}

00000724 <l331>:
     724:	e83d0204 	ldmda	sp!, {r2, r9}

00000728 <l332>:
     728:	e9bd1000 	ldmib	sp!, {ip}

0000072c <l333>:
     72c:	e83d4818 	ldmda	sp!, {r3, r4, fp, lr}

00000730 <l334>:
     730:	399d4002 	ldmibcc	sp, {r1, lr}

00000734 <l335>:
     734:	e93d153c 	ldmdb	sp!, {r2, r3, r4, r5, r8, sl, ip}

00000738 <l336>:
     738:	e83d57a8 	ldmda	sp!, {r3, r5, r7, r8, r9, sl, ip, lr}

0000073c <l337>:
     73c:	e83d0840 	ldmda	sp!, {r6, fp}

00000740 <l338>:
     740:	e9bd5fff 	ldmib	sp!, {r0, r1, r2, r3, r4, r5, r6, r7, r8, r9, sl, fp, ip, lr}

00000744 <l339>:
     744:	e9bd4401 	ldmib	sp!, {r0, sl, lr}

00000748 <l340>:
     748:	e9bd0304 	ldmib	sp!, {r2, r8, r9}

0000074c <l341>:
     74c:	e93d0cec 	ldmdb	sp!, {r2, r3, r5, r6, r7, sl, fp}

00000750 <l342>:
     750:	e93d0020 	ldmdb	sp!, {r5}

00000754 <l343>:
     754:	e9bd0002 	ldmib	sp!, {r1}

00000758 <l344>:
     758:	e83d4b29 	ldmda	sp!, {r0, r3, r5, r8, r9, fp, lr}

0000075c <l345>:
     75c:	281d0ae2 	ldmdacs	sp, {r1, r5, r6, r7, r9, fp}

00000760 <l346>:
     760:	e9bd4332 	ldmib	sp!, {r1, r4, r5, r8, r9, lr}

00000764 <l347>:
     764:	e91d1000 	ldmdb	sp, {ip}

00000768 <l348>:
     768:	e89d5fff 	ldm	sp, {r0, r1, r2, r3, r4, r5, r6, r7, r8, r9, sl, fp, ip, lr}

0000076c <l349>:
     76c:	e83d141c 	ldmda	sp!, {r2, r3, r4, sl, ip}

00000770 <l350>:
     770:	e89d1a62 	ldm	sp, {r1, r5, r6, r9, fp, ip}

00000774 <l351>:
     774:	e83d5fff 	ldmda	sp!, {r0, r1, r2, r3, r4, r5, r6, r7, r8, r9, sl, fp, ip, lr}

00000778 <l352>:
     778:	489d0222 	ldmmi	sp, {r1, r5, r9}

0000077c <l353>:
     77c:	e9bd5510 	ldmib	sp!, {r4, r8, sl, ip, lr}

00000780 <l354>:
     780:	e93d52a8 	ldmdb	sp!, {r3, r5, r7, r9, ip, lr}

00000784 <l355>:
     784:	e9bd5081 	ldmib	sp!, {r0, r7, ip, lr}

00000788 <l356>:
     788:	e83d0090 	ldmda	sp!, {r4, r7}

0000078c <l357>:
     78c:	e9bd1ec4 	ldmib	sp!, {r2, r6, r7, r9, sl, fp, ip}

00000790 <l358>:
     790:	e8bd4004 	pop	{r2, lr}

00000794 <l359>:
     794:	e9bd0100 	ldmib	sp!, {r8}

00000798 <l360>:
     798:	e83d1ffd 	ldmda	sp!, {r0, r2, r3, r4, r5, r6, r7, r8, r9, sl, fp, ip}

0000079c <l361>:
     79c:	e83d0208 	ldmda	sp!, {r3, r9}

000007a0 <l362>:
     7a0:	e91d4308 	ldmdb	sp, {r3, r8, r9, lr}

000007a4 <l363>:
     7a4:	e89d0800 	ldm	sp, {fp}

000007a8 <l364>:
     7a8:	e81d4002 	ldmda	sp, {r1, lr}

000007ac <l365>:
     7ac:	e93d4000 	ldmdb	sp!, {lr}

000007b0 <l366>:
     7b0:	e8bd4ebf 	pop	{r0, r1, r2, r3, r4, r5, r7, r9, sl, fp, lr}

000007b4 <l367>:
     7b4:	e8bd168c 	pop	{r2, r3, r7, r9, sl, ip}

000007b8 <l368>:
     7b8:	881d431e 	ldmdahi	sp, {r1, r2, r3, r4, r8, r9, lr}

000007bc <l369>:
     7bc:	291d4b20 	ldmdbcs	sp, {r5, r8, r9, fp, lr}

000007c0 <l370>:
     7c0:	e93d0106 	ldmdb	sp!, {r1, r2, r8}

000007c4 <l371>:
     7c4:	289d4dc7 	ldmcs	sp, {r0, r1, r2, r6, r7, r8, sl, fp, lr}

000007c8 <l372>:
     7c8:	e93d56bd 	ldmdb	sp!, {r0, r2, r3, r4, r5, r7, r9, sl, ip, lr}

000007cc <l373>:
     7cc:	e99d0892 	ldmib	sp, {r1, r4, r7, fp}

000007d0 <l374>:
     7d0:	e8bd0004 	ldmfd	sp!, {r2}

000007d4 <l375>:
     7d4:	e8bd54df 	pop	{r0, r1, r2, r3, r4, r6, r7, sl, ip, lr}

000007d8 <l376>:
     7d8:	e8bd0024 	pop	{r2, r5}

000007dc <l377>:
     7dc:	e91d5fff 	ldmdb	sp, {r0, r1, r2, r3, r4, r5, r6, r7, r8, r9, sl, fp, ip, lr}

000007e0 <l378>:
     7e0:	e99d0008 	ldmib	sp, {r3}

000007e4 <l379>:
     7e4:	e8bd4080 	pop	{r7, lr}

000007e8 <l380>:
     7e8:	e83d1020 	ldmda	sp!, {r5, ip}

000007ec <l381>:
     7ec:	e93d0846 	ldmdb	sp!, {r1, r2, r6, fp}

000007f0 <l382>:
     7f0:	e93d0200 	ldmdb	sp!, {r9}

000007f4 <l383>:
     7f4:	a89d5fff 	ldmge	sp, {r0, r1, r2, r3, r4, r5, r6, r7, r8, r9, sl, fp, ip, lr}

000007f8 <l384>:
     7f8:	781d1a40 	ldmdavc	sp, {r6, r9, fp, ip}

000007fc <l385>:
     7fc:	e83d0a81 	ldmda	sp!, {r0, r7, r9, fp}

00000800 <l386>:
     800:	e93d0220 	ldmdb	sp!, {r5, r9}

00000804 <l387>:
     804:	e93d0088 	ldmdb	sp!, {r3, r7}

00000808 <l388>:
     808:	599d0017 	ldmibpl	sp, {r0, r1, r2, r4}

0000080c <l389>:
     80c:	581d0820 	ldmdapl	sp, {r5, fp}

00000810 <l390>:
     810:	e93d5000 	ldmdb	sp!, {ip, lr}

00000814 <l391>:
     814:	e83d0020 	ldmda	sp!, {r5}

00000818 <l392>:
     818:	a99d0226 	ldmibge	sp, {r1, r2, r5, r9}

0000081c <l393>:
     81c:	e9bd1a29 	ldmib	sp!, {r0, r3, r5, r9, fp, ip}

00000820 <l394>:
     820:	289d51ac 	ldmcs	sp, {r2, r3, r5, r7, r8, ip, lr}

00000824 <l395>:
     824:	499d0001 	ldmibmi	sp, {r0}

00000828 <l396>:
     828:	089d0008 	ldmeq	sp, {r3}

0000082c <l397>:
     82c:	e81d5eea 	ldmda	sp, {r1, r3, r5, r6, r7, r9, sl, fp, ip, lr}

00000830 <l398>:
     830:	e8bd4ef3 	pop	{r0, r1, r4, r5, r6, r7, r9, sl, fp, lr}

00000834 <l399>:
     834:	e83d5fff 	ldmda	sp!, {r0, r1, r2, r3, r4, r5, r6, r7, r8, r9, sl, fp, ip, lr}

00000838 <l400>:
     838:	e93d1002 	ldmdb	sp!, {r1, ip}

0000083c <l401>:
     83c:	e99d404c 	ldmib	sp, {r2, r3, r6, lr}

00000840 <l402>:
     840:	191d4f61 	ldmdbne	sp, {r0, r5, r6, r8, r9, sl, fp, lr}

00000844 <l403>:
     844:	c89d500d 	ldmgt	sp, {r0, r2, r3, ip, lr}

00000848 <l404>:
     848:	e93d0100 	ldmdb	sp!, {r8}

0000084c <l405>:
     84c:	e9bd5784 	ldmib	sp!, {r2, r7, r8, r9, sl, ip, lr}

00000850 <l406>:
     850:	e83d4bd7 	ldmda	sp!, {r0, r1, r2, r4, r6, r7, r8, r9, fp, lr}

00000854 <l407>:
     854:	e9bd5ffb 	ldmib	sp!, {r0, r1, r3, r4, r5, r6, r7, r8, r9, sl, fp, ip, lr}

00000858 <l408>:
     858:	e93d1ad1 	ldmdb	sp!, {r0, r4, r6, r7, r9, fp, ip}

0000085c <l409>:
     85c:	e83d0100 	ldmda	sp!, {r8}

00000860 <l410>:
     860:	881d4419 	ldmdahi	sp, {r0, r3, r4, sl, lr}

00000864 <l411>:
     864:	091d1000 	ldmdbeq	sp, {ip}

00000868 <l412>:
     868:	e8bd59af 	pop	{r0, r1, r2, r3, r5, r7, r8, fp, ip, lr}

0000086c <l413>:
     86c:	581d198e 	ldmdapl	sp, {r1, r2, r3, r7, r8, fp, ip}

00000870 <l414>:
     870:	e83d4204 	ldmda	sp!, {r2, r9, lr}

00000874 <l415>:
     874:	e9bd1ab9 	ldmib	sp!, {r0, r3, r4, r5, r7, r9, fp, ip}

00000878 <l416>:
     878:	e99d0c46 	ldmib	sp, {r1, r2, r6, sl, fp}

0000087c <l417>:
     87c:	e81d0010 	ldmda	sp, {r4}

00000880 <l418>:
     880:	e8bd4002 	pop	{r1, lr}

00000884 <l419>:
     884:	e93d0522 	ldmdb	sp!, {r1, r5, r8, sl}

00000888 <l420>:
     888:	791d0c8d 	ldmdbvc	sp, {r0, r2, r3, r7, sl, fp}

0000088c <l421>:
     88c:	e8bd50fd 	pop	{r0, r2, r3, r4, r5, r6, r7, ip, lr}

00000890 <l422>:
     890:	e83d1ee4 	ldmda	sp!, {r2, r5, r6, r7, r9, sl, fp, ip}

00000894 <l423>:
     894:	e83d04a0 	ldmda	sp!, {r5, r7, sl}

00000898 <l424>:
     898:	e93d0401 	ldmdb	sp!, {r0, sl}

0000089c <l425>:
     89c:	e8bd0010 	ldmfd	sp!, {r4}

000008a0 <l426>:
     8a0:	e91d0004 	ldmdb	sp, {r2}

000008a4 <l427>:
     8a4:	a99d0b20 	ldmibge	sp, {r5, r8, r9, fp}

000008a8 <l428>:
     8a8:	e9bd4bdf 	ldmib	sp!, {r0, r1, r2, r3, r4, r6, r7, r8, r9, fp, lr}

000008ac <l429>:
     8ac:	e91d4ffe 	ldmdb	sp, {r1, r2, r3, r4, r5, r6, r7, r8, r9, sl, fp, lr}

000008b0 <l430>:
     8b0:	e93d4020 	ldmdb	sp!, {r5, lr}

000008b4 <l431>:
     8b4:	e8bd5fbf 	pop	{r0, r1, r2, r3, r4, r5, r7, r8, r9, sl, fp, ip, lr}

000008b8 <l432>:
     8b8:	e8bd0008 	ldmfd	sp!, {r3}

000008bc <l433>:
     8bc:	e91d5fff 	ldmdb	sp, {r0, r1, r2, r3, r4, r5, r6, r7, r8, r9, sl, fp, ip, lr}

000008c0 <l434>:
     8c0:	e9bd15fb 	ldmib	sp!, {r0, r1, r3, r4, r5, r6, r7, r8, sl, ip}

000008c4 <l435>:
     8c4:	e99d0c08 	ldmib	sp, {r3, sl, fp}

000008c8 <l436>:
     8c8:	e8bd1500 	pop	{r8, sl, ip}

000008cc <l437>:
     8cc:	e91d4396 	ldmdb	sp, {r1, r2, r4, r7, r8, r9, lr}

000008d0 <l438>:
     8d0:	e81d16a1 	ldmda	sp, {r0, r5, r7, r9, sl, ip}

000008d4 <l439>:
     8d4:	e89d5fbb 	ldm	sp, {r0, r1, r3, r4, r5, r7, r8, r9, sl, fp, ip, lr}

000008d8 <l440>:
     8d8:	e93d0042 	ldmdb	sp!, {r1, r6}

000008dc <l441>:
     8dc:	a89d0001 	ldmge	sp, {r0}

000008e0 <l442>:
     8e0:	e83d4fff 	ldmda	sp!, {r0, r1, r2, r3, r4, r5, r6, r7, r8, r9, sl, fp, lr}

000008e4 <l443>:
     8e4:	e93d0400 	ldmdb	sp!, {sl}

000008e8 <l444>:
     8e8:	e9bd52df 	ldmib	sp!, {r0, r1, r2, r3, r4, r6, r7, r9, ip, lr}

000008ec <l445>:
     8ec:	e83d10b1 	ldmda	sp!, {r0, r4, r5, r7, ip}

000008f0 <l446>:
     8f0:	e93d410b 	ldmdb	sp!, {r0, r1, r3, r8, lr}

000008f4 <l447>:
     8f4:	e93d0100 	ldmdb	sp!, {r8}

000008f8 <l448>:
     8f8:	489d5fff 	ldmmi	sp, {r0, r1, r2, r3, r4, r5, r6, r7, r8, r9, sl, fp, ip, lr}

000008fc <l449>:
     8fc:	989d5c06 	ldmls	sp, {r1, r2, sl, fp, ip, lr}

00000900 <l450>:
     900:	691d48e0 	ldmdbvs	sp, {r5, r6, r7, fp, lr}

00000904 <l451>:
     904:	e9bd0220 	ldmib	sp!, {r5, r9}

00000908 <l452>:
     908:	e89d0400 	ldm	sp, {sl}

0000090c <l453>:
     90c:	e99d0200 	ldmib	sp, {r9}

00000910 <l454>:
     910:	e91d184c 	ldmdb	sp, {r2, r3, r6, fp, ip}

00000914 <l455>:
     914:	e8bd4e80 	pop	{r7, r9, sl, fp, lr}

00000918 <l456>:
     918:	e83d1980 	ldmda	sp!, {r7, r8, fp, ip}

0000091c <l457>:
     91c:	e91d5edf 	ldmdb	sp, {r0, r1, r2, r3, r4, r6, r7, r9, sl, fp, ip, lr}

00000920 <l458>:
     920:	e93d5001 	ldmdb	sp!, {r0, ip, lr}

00000924 <l459>:
     924:	e89d5f7f 	ldm	sp, {r0, r1, r2, r3, r4, r5, r6, r8, r9, sl, fp, ip, lr}

00000928 <l460>:
     928:	e9bd038a 	ldmib	sp!, {r1, r3, r7, r8, r9}

0000092c <l461>:
     92c:	e83d0144 	ldmda	sp!, {r2, r6, r8}

00000930 <l462>:
     930:	e89d0407 	ldm	sp, {r0, r1, r2, sl}

00000934 <l463>:
     934:	189d0040 	ldmne	sp, {r6}

00000938 <l464>:
     938:	381d080a 	ldmdacc	sp, {r1, r3, fp}

0000093c <l465>:
     93c:	e93d1fe5 	ldmdb	sp!, {r0, r2, r5, r6, r7, r8, r9, sl, fp, ip}

00000940 <l466>:
     940:	e91d0902 	ldmdb	sp, {r1, r8, fp}

00000944 <l467>:
     944:	791d0001 	ldmdbvc	sp, {r0}

00000948 <l468>:
     948:	e83d0001 	ldmda	sp!, {r0}

0000094c <l469>:
     94c:	e8bd00c1 	pop	{r0, r6, r7}

00000950 <l470>:
     950:	e8bd1aef 	pop	{r0, r1, r2, r3, r5, r6, r7, r9, fp, ip}

00000954 <l471>:
     954:	381d1400 	ldmdacc	sp, {sl, ip}

00000958 <l472>:
     958:	e99d0810 	ldmib	sp, {r4, fp}

0000095c <l473>:
     95c:	e99d1002 	ldmib	sp, {r1, ip}

00000960 <l474>:
     960:	e8bd0080 	ldmfd	sp!, {r7}

00000964 <l475>:
     964:	e9bd0024 	ldmib	sp!, {r2, r5}

00000968 <l476>:
     968:	a81d5ad1 	ldmdage	sp, {r0, r4, r6, r7, r9, fp, ip, lr}

0000096c <l477>:
     96c:	e93d135f 	ldmdb	sp!, {r0, r1, r2, r3, r4, r6, r8, r9, ip}

00000970 <l478>:
     970:	e83d0842 	ldmda	sp!, {r1, r6, fp}

00000974 <l479>:
     974:	e8bd1de9 	pop	{r0, r3, r5, r6, r7, r8, sl, fp, ip}

00000978 <l480>:
     978:	e8bd5139 	pop	{r0, r3, r4, r5, r8, ip, lr}

0000097c <l481>:
     97c:	e83d097b 	ldmda	sp!, {r0, r1, r3, r4, r5, r6, r8, fp}

00000980 <l482>:
     980:	e83d0153 	ldmda	sp!, {r0, r1, r4, r6, r8}

00000984 <l483>:
     984:	e93d0015 	ldmdb	sp!, {r0, r2, r4}

00000988 <l484>:
     988:	e9bd5fff 	ldmib	sp!, {r0, r1, r2, r3, r4, r5, r6, r7, r8, r9, sl, fp, ip, lr}

0000098c <l485>:
     98c:	e83d089a 	ldmda	sp!, {r1, r3, r4, r7, fp}

00000990 <l486>:
     990:	e83d0004 	ldmda	sp!, {r2}

00000994 <l487>:
     994:	e9bd4bb4 	ldmib	sp!, {r2, r4, r5, r7, r8, r9, fp, lr}

00000998 <l488>:
     998:	481d0941 	ldmdami	sp, {r0, r6, r8, fp}

0000099c <l489>:
     99c:	e93d1059 	ldmdb	sp!, {r0, r3, r4, r6, ip}

000009a0 <l490>:
     9a0:	e8bd0cc0 	pop	{r6, r7, sl, fp}

000009a4 <l491>:
     9a4:	e8bd5128 	pop	{r3, r5, r8, ip, lr}

000009a8 <l492>:
     9a8:	e99d4880 	ldmib	sp, {r7, fp, lr}

000009ac <l493>:
     9ac:	e93d5e7f 	ldmdb	sp!, {r0, r1, r2, r3, r4, r5, r6, r9, sl, fp, ip, lr}

000009b0 <l494>:
     9b0:	491d1685 	ldmdbmi	sp, {r0, r2, r7, r9, sl, ip}

000009b4 <l495>:
     9b4:	081d0080 	ldmdaeq	sp, {r7}

000009b8 <l496>:
     9b8:	789d4fc5 	ldmvc	sp, {r0, r2, r6, r7, r8, r9, sl, fp, lr}

000009bc <l497>:
     9bc:	e9bd5780 	ldmib	sp!, {r7, r8, r9, sl, ip, lr}

000009c0 <l498>:
     9c0:	e9bd0800 	ldmib	sp!, {fp}

000009c4 <l499>:
     9c4:	e9bd0c09 	ldmib	sp!, {r0, r3, sl, fp}

000009c8 <l500>:
     9c8:	e93d0849 	ldmdb	sp!, {r0, r3, r6, fp}

000009cc <l501>:
     9cc:	e93d072b 	ldmdb	sp!, {r0, r1, r3, r5, r8, r9, sl}

000009d0 <l502>:
     9d0:	e93d1dad 	ldmdb	sp!, {r0, r2, r3, r5, r7, r8, sl, fp, ip}

000009d4 <l503>:
     9d4:	e8bd1501 	pop	{r0, r8, sl, ip}

000009d8 <l504>:
     9d8:	e93d100c 	ldmdb	sp!, {r2, r3, ip}

000009dc <l505>:
     9dc:	e9bd0210 	ldmib	sp!, {r4, r9}

000009e0 <l506>:
     9e0:	e93d0200 	ldmdb	sp!, {r9}

000009e4 <l507>:
     9e4:	581d0088 	ldmdapl	sp, {r3, r7}

000009e8 <l508>:
     9e8:	e8bd43e4 	pop	{r2, r5, r6, r7, r8, r9, lr}

000009ec <l509>:
     9ec:	e93d1355 	ldmdb	sp!, {r0, r2, r4, r6, r8, r9, ip}

000009f0 <l510>:
     9f0:	e99d1d59 	ldmib	sp, {r0, r3, r4, r6, r8, sl, fp, ip}

000009f4 <l511>:
     9f4:	e83d4104 	ldmda	sp!, {r2, r8, lr}

000009f8 <l512>:
     9f8:	d81d0a0b 	ldmdale	sp, {r0, r1, r3, r9, fp}

000009fc <l513>:
     9fc:	e8bd0004 	ldmfd	sp!, {r2}

00000a00 <l514>:
     a00:	e83d0100 	ldmda	sp!, {r8}

00000a04 <l515>:
     a04:	e9bd5000 	ldmib	sp!, {ip, lr}

00000a08 <l516>:
     a08:	e83d0080 	ldmda	sp!, {r7}

00000a0c <l517>:
     a0c:	999d59d7 	ldmibls	sp, {r0, r1, r2, r4, r6, r7, r8, fp, ip, lr}

00000a10 <l518>:
     a10:	289d4acb 	ldmcs	sp, {r0, r1, r3, r6, r7, r9, fp, lr}

00000a14 <l519>:
     a14:	e93d00c0 	ldmdb	sp!, {r6, r7}

00000a18 <l520>:
     a18:	e83d5ddf 	ldmda	sp!, {r0, r1, r2, r3, r4, r6, r7, r8, sl, fp, ip, lr}

00000a1c <l521>:
     a1c:	e9bd54bc 	ldmib	sp!, {r2, r3, r4, r5, r7, sl, ip, lr}

00000a20 <l522>:
     a20:	e83d5fb3 	ldmda	sp!, {r0, r1, r4, r5, r7, r8, r9, sl, fp, ip, lr}

00000a24 <l523>:
     a24:	e93d0040 	ldmdb	sp!, {r6}

00000a28 <l524>:
     a28:	e93d0080 	ldmdb	sp!, {r7}

00000a2c <l525>:
     a2c:	e99d4c5b 	ldmib	sp, {r0, r1, r3, r4, r6, sl, fp, lr}

00000a30 <l526>:
     a30:	591d07b6 	ldmdbpl	sp, {r1, r2, r4, r5, r7, r8, r9, sl}

00000a34 <l527>:
     a34:	e9bd1801 	ldmib	sp!, {r0, fp, ip}

00000a38 <l528>:
     a38:	591d1001 	ldmdbpl	sp, {r0, ip}

00000a3c <l529>:
     a3c:	e81d0400 	ldmda	sp, {sl}

00000a40 <l530>:
     a40:	789d4401 	ldmvc	sp, {r0, sl, lr}

00000a44 <l531>:
     a44:	e8bd09ab 	pop	{r0, r1, r3, r5, r7, r8, fp}

00000a48 <l532>:
     a48:	a89d1840 	ldmge	sp, {r6, fp, ip}

00000a4c <l533>:
     a4c:	e9bd4805 	ldmib	sp!, {r0, r2, fp, lr}

00000a50 <l534>:
     a50:	e89d0030 	ldm	sp, {r4, r5}

00000a54 <l535>:
     a54:	e9bd0001 	ldmib	sp!, {r0}

00000a58 <l536>:
     a58:	291d1abc 	ldmdbcs	sp, {r2, r3, r4, r5, r7, r9, fp, ip}

00000a5c <l537>:
     a5c:	e9bd0608 	ldmib	sp!, {r3, r9, sl}

00000a60 <l538>:
     a60:	e9bd1022 	ldmib	sp!, {r1, r5, ip}

00000a64 <l539>:
     a64:	e93d51e4 	ldmdb	sp!, {r2, r5, r6, r7, r8, ip, lr}

00000a68 <l540>:
     a68:	e9bd5f32 	ldmib	sp!, {r1, r4, r5, r8, r9, sl, fp, ip, lr}

00000a6c <l541>:
     a6c:	e93d139f 	ldmdb	sp!, {r0, r1, r2, r3, r4, r7, r8, r9, ip}

00000a70 <l542>:
     a70:	e93d5682 	ldmdb	sp!, {r1, r7, r9, sl, ip, lr}

00000a74 <l543>:
     a74:	e99d4c02 	ldmib	sp, {r1, sl, fp, lr}

00000a78 <l544>:
     a78:	e83d006a 	ldmda	sp!, {r1, r3, r5, r6}

00000a7c <l545>:
     a7c:	e93d0f80 	ldmdb	sp!, {r7, r8, r9, sl, fp}

00000a80 <l546>:
     a80:	599d0407 	ldmibpl	sp, {r0, r1, r2, sl}

00000a84 <l547>:
     a84:	e8bd0898 	pop	{r3, r4, r7, fp}

00000a88 <l548>:
     a88:	e81d1008 	ldmda	sp, {r3, ip}

00000a8c <l549>:
     a8c:	e8bd5ebe 	pop	{r1, r2, r3, r4, r5, r7, r9, sl, fp, ip, lr}

00000a90 <l550>:
     a90:	e9bd0200 	ldmib	sp!, {r9}

00000a94 <l551>:
     a94:	e8bd0600 	pop	{r9, sl}

00000a98 <l552>:
     a98:	e93d5fc7 	ldmdb	sp!, {r0, r1, r2, r6, r7, r8, r9, sl, fp, ip, lr}

00000a9c <l553>:
     a9c:	e9bd1c25 	ldmib	sp!, {r0, r2, r5, sl, fp, ip}

00000aa0 <l554>:
     aa0:	b91d5fee 	ldmdblt	sp, {r1, r2, r3, r5, r6, r7, r8, r9, sl, fp, ip, lr}

00000aa4 <l555>:
     aa4:	e83d0890 	ldmda	sp!, {r4, r7, fp}

00000aa8 <l556>:
     aa8:	e8bd5fff 	pop	{r0, r1, r2, r3, r4, r5, r6, r7, r8, r9, sl, fp, ip, lr}

00000aac <l557>:
     aac:	e89d0808 	ldm	sp, {r3, fp}

00000ab0 <l558>:
     ab0:	e93d53a2 	ldmdb	sp!, {r1, r5, r7, r8, r9, ip, lr}

00000ab4 <l559>:
     ab4:	e99d0080 	ldmib	sp, {r7}

00000ab8 <l560>:
     ab8:	e9bd4fa1 	ldmib	sp!, {r0, r5, r7, r8, r9, sl, fp, lr}

00000abc <l561>:
     abc:	e8bd0008 	ldmfd	sp!, {r3}

00000ac0 <l562>:
     ac0:	e91d0108 	ldmdb	sp, {r3, r8}

00000ac4 <l563>:
     ac4:	681d479b 	ldmdavs	sp, {r0, r1, r3, r4, r7, r8, r9, sl, lr}

00000ac8 <l564>:
     ac8:	a81d1407 	ldmdage	sp, {r0, r1, r2, sl, ip}

00000acc <l565>:
     acc:	e8bd0d19 	pop	{r0, r3, r4, r8, sl, fp}

00000ad0 <l566>:
     ad0:	e93d020c 	ldmdb	sp!, {r2, r3, r9}

00000ad4 <l567>:
     ad4:	e8bd579e 	pop	{r1, r2, r3, r4, r7, r8, r9, sl, ip, lr}

00000ad8 <l568>:
     ad8:	e83d0010 	ldmda	sp!, {r4}

00000adc <l569>:
     adc:	e83d5dff 	ldmda	sp!, {r0, r1, r2, r3, r4, r5, r6, r7, r8, sl, fp, ip, lr}

00000ae0 <l570>:
     ae0:	e9bd1040 	ldmib	sp!, {r6, ip}

00000ae4 <l571>:
     ae4:	e8bd4b39 	pop	{r0, r3, r4, r5, r8, r9, fp, lr}

00000ae8 <l572>:
     ae8:	e8bd54e2 	pop	{r1, r5, r6, r7, sl, ip, lr}

00000aec <l573>:
     aec:	e8bd0080 	ldmfd	sp!, {r7}

00000af0 <l574>:
     af0:	e93d04c1 	ldmdb	sp!, {r0, r6, r7, sl}

00000af4 <l575>:
     af4:	e83d02c0 	ldmda	sp!, {r6, r7, r9}

00000af8 <l576>:
     af8:	e93d0a06 	ldmdb	sp!, {r1, r2, r9, fp}

00000afc <l577>:
     afc:	e83d4022 	ldmda	sp!, {r1, r5, lr}

00000b00 <l578>:
     b00:	a81d100a 	ldmdage	sp, {r1, r3, ip}

00000b04 <l579>:
     b04:	e83d0008 	ldmda	sp!, {r3}

00000b08 <l580>:
     b08:	e93d0100 	ldmdb	sp!, {r8}

00000b0c <l581>:
     b0c:	e89d0880 	ldm	sp, {r7, fp}

00000b10 <l582>:
     b10:	191d0120 	ldmdbne	sp, {r5, r8}

00000b14 <l583>:
     b14:	e8bd182c 	pop	{r2, r3, r5, fp, ip}

00000b18 <l584>:
     b18:	e81d5206 	ldmda	sp, {r1, r2, r9, ip, lr}

00000b1c <l585>:
     b1c:	e9bd4162 	ldmib	sp!, {r1, r5, r6, r8, lr}

00000b20 <l586>:
     b20:	e81d5c81 	ldmda	sp, {r0, r7, sl, fp, ip, lr}

00000b24 <l587>:
     b24:	e89d583d 	ldm	sp, {r0, r2, r3, r4, r5, fp, ip, lr}

00000b28 <l588>:
     b28:	e81d0602 	ldmda	sp, {r1, r9, sl}

00000b2c <l589>:
     b2c:	e99d5ef7 	ldmib	sp, {r0, r1, r2, r4, r5, r6, r7, r9, sl, fp, ip, lr}

00000b30 <l590>:
     b30:	689d0001 	ldmvs	sp, {r0}

00000b34 <l591>:
     b34:	e9bd0410 	ldmib	sp!, {r4, sl}

00000b38 <l592>:
     b38:	e83d438d 	ldmda	sp!, {r0, r2, r3, r7, r8, r9, lr}

00000b3c <l593>:
     b3c:	e99d00c8 	ldmib	sp, {r3, r6, r7}

00000b40 <l594>:
     b40:	e8bd00b8 	pop	{r3, r4, r5, r7}

00000b44 <l595>:
     b44:	e83d52f7 	ldmda	sp!, {r0, r1, r2, r4, r5, r6, r7, r9, ip, lr}

00000b48 <l596>:
     b48:	689d041a 	ldmvs	sp, {r1, r3, r4, sl}

00000b4c <l597>:
     b4c:	e9bd009f 	ldmib	sp!, {r0, r1, r2, r3, r4, r7}

00000b50 <l598>:
     b50:	181d5bff 	ldmdane	sp, {r0, r1, r2, r3, r4, r5, r6, r7, r8, r9, fp, ip, lr}

00000b54 <l599>:
     b54:	e89d5ebf 	ldm	sp, {r0, r1, r2, r3, r4, r5, r7, r9, sl, fp, ip, lr}

00000b58 <l600>:
     b58:	d99d1000 	ldmible	sp, {ip}

00000b5c <l601>:
     b5c:	e93d5efb 	ldmdb	sp!, {r0, r1, r3, r4, r5, r6, r7, r9, sl, fp, ip, lr}

00000b60 <l602>:
     b60:	e8bd170e 	pop	{r1, r2, r3, r8, r9, sl, ip}

00000b64 <l603>:
     b64:	b89d0060 	ldmlt	sp, {r5, r6}

00000b68 <l604>:
     b68:	e93d5fb9 	ldmdb	sp!, {r0, r3, r4, r5, r7, r8, r9, sl, fp, ip, lr}

00000b6c <l605>:
     b6c:	e8bd5fff 	pop	{r0, r1, r2, r3, r4, r5, r6, r7, r8, r9, sl, fp, ip, lr}

00000b70 <l606>:
     b70:	e81d5059 	ldmda	sp, {r0, r3, r4, r6, ip, lr}

00000b74 <l607>:
     b74:	d81d0080 	ldmdale	sp, {r7}

00000b78 <l608>:
     b78:	e8bd095b 	pop	{r0, r1, r3, r4, r6, r8, fp}

00000b7c <l609>:
     b7c:	e91d154d 	ldmdb	sp, {r0, r2, r3, r6, r8, sl, ip}

00000b80 <l610>:
     b80:	e81d1020 	ldmda	sp, {r5, ip}

00000b84 <l611>:
     b84:	e93d1ce5 	ldmdb	sp!, {r0, r2, r5, r6, r7, sl, fp, ip}

00000b88 <l612>:
     b88:	e89d0900 	ldm	sp, {r8, fp}

00000b8c <l613>:
     b8c:	e8bd0880 	pop	{r7, fp}

00000b90 <l614>:
     b90:	099d1210 	ldmibeq	sp, {r4, r9, ip}

00000b94 <l615>:
     b94:	e9bd411e 	ldmib	sp!, {r1, r2, r3, r4, r8, lr}

00000b98 <l616>:
     b98:	e9bd10e0 	ldmib	sp!, {r5, r6, r7, ip}

00000b9c <l617>:
     b9c:	e81d0003 	ldmda	sp, {r0, r1}

00000ba0 <l618>:
     ba0:	e8bd0081 	pop	{r0, r7}

00000ba4 <l619>:
     ba4:	e91d1649 	ldmdb	sp, {r0, r3, r6, r9, sl, ip}

00000ba8 <l620>:
     ba8:	e81d4800 	ldmda	sp, {fp, lr}

00000bac <l621>:
     bac:	a91d092d 	ldmdbge	sp, {r0, r2, r3, r5, r8, fp}

00000bb0 <l622>:
     bb0:	e8bd1117 	pop	{r0, r1, r2, r4, r8, ip}

00000bb4 <l623>:
     bb4:	c81d176e 	ldmdagt	sp, {r1, r2, r3, r5, r6, r8, r9, sl, ip}

00000bb8 <l624>:
     bb8:	e9bd0048 	ldmib	sp!, {r3, r6}

00000bbc <l625>:
     bbc:	e91d01d8 	ldmdb	sp, {r3, r4, r6, r7, r8}

00000bc0 <l626>:
     bc0:	e8bd1564 	pop	{r2, r5, r6, r8, sl, ip}

00000bc4 <l627>:
     bc4:	e93d0200 	ldmdb	sp!, {r9}

00000bc8 <l628>:
     bc8:	e83d0048 	ldmda	sp!, {r3, r6}

00000bcc <l629>:
     bcc:	e93d0c00 	ldmdb	sp!, {sl, fp}

00000bd0 <l630>:
     bd0:	e83d0040 	ldmda	sp!, {r6}

00000bd4 <l631>:
     bd4:	e8bd5fdf 	pop	{r0, r1, r2, r3, r4, r6, r7, r8, r9, sl, fp, ip, lr}

00000bd8 <l632>:
     bd8:	e89d0e39 	ldm	sp, {r0, r3, r4, r5, r9, sl, fp}

00000bdc <l633>:
     bdc:	e93d5fff 	ldmdb	sp!, {r0, r1, r2, r3, r4, r5, r6, r7, r8, r9, sl, fp, ip, lr}

00000be0 <l634>:
     be0:	e83d0010 	ldmda	sp!, {r4}

00000be4 <l635>:
     be4:	e8bd0004 	ldmfd	sp!, {r2}

00000be8 <l636>:
     be8:	089d0192 	ldmeq	sp, {r1, r4, r7, r8}

00000bec <l637>:
     bec:	e83d54f7 	ldmda	sp!, {r0, r1, r2, r4, r5, r6, r7, sl, ip, lr}

00000bf0 <l638>:
     bf0:	e9bd5fff 	ldmib	sp!, {r0, r1, r2, r3, r4, r5, r6, r7, r8, r9, sl, fp, ip, lr}

00000bf4 <l639>:
     bf4:	e9bd0008 	ldmib	sp!, {r3}

00000bf8 <l640>:
     bf8:	e91d0005 	ldmdb	sp, {r0, r2}

00000bfc <l641>:
     bfc:	289d1402 	ldmcs	sp, {r1, sl, ip}

00000c00 <l642>:
     c00:	e9bd1000 	ldmib	sp!, {ip}

00000c04 <l643>:
     c04:	e9bd0414 	ldmib	sp!, {r2, r4, sl}

00000c08 <l644>:
     c08:	e93d48f8 	ldmdb	sp!, {r3, r4, r5, r6, r7, fp, lr}

00000c0c <l645>:
     c0c:	e83d0003 	ldmda	sp!, {r0, r1}

00000c10 <l646>:
     c10:	e93d1d7d 	ldmdb	sp!, {r0, r2, r3, r4, r5, r6, r8, sl, fp, ip}

00000c14 <l647>:
     c14:	e93d0040 	ldmdb	sp!, {r6}

00000c18 <l648>:
     c18:	e8bd1efe 	pop	{r1, r2, r3, r4, r5, r6, r7, r9, sl, fp, ip}

00000c1c <l649>:
     c1c:	e93d40c1 	ldmdb	sp!, {r0, r6, r7, lr}

00000c20 <l650>:
     c20:	e9bd1400 	ldmib	sp!, {sl, ip}

00000c24 <l651>:
     c24:	e83d060a 	ldmda	sp!, {r1, r3, r9, sl}

00000c28 <l652>:
     c28:	189d5fd5 	ldmne	sp, {r0, r2, r4, r6, r7, r8, r9, sl, fp, ip, lr}

00000c2c <l653>:
     c2c:	e83d1211 	ldmda	sp!, {r0, r4, r9, ip}

00000c30 <l654>:
     c30:	e8bd02b5 	pop	{r0, r2, r4, r5, r7, r9}

00000c34 <l655>:
     c34:	e9bd4080 	ldmib	sp!, {r7, lr}

00000c38 <l656>:
     c38:	081d0373 	ldmdaeq	sp, {r0, r1, r4, r5, r6, r8, r9}

00000c3c <l657>:
     c3c:	e93d1f0b 	ldmdb	sp!, {r0, r1, r3, r8, r9, sl, fp, ip}

00000c40 <l658>:
     c40:	e93d0002 	ldmdb	sp!, {r1}

00000c44 <l659>:
     c44:	391d0405 	ldmdbcc	sp, {r0, r2, sl}

00000c48 <l660>:
     c48:	e83d0004 	ldmda	sp!, {r2}

00000c4c <l661>:
     c4c:	e9bd51fd 	ldmib	sp!, {r0, r2, r3, r4, r5, r6, r7, r8, ip, lr}

00000c50 <l662>:
     c50:	e8bd5d42 	pop	{r1, r6, r8, sl, fp, ip, lr}

00000c54 <l663>:
     c54:	e91d1794 	ldmdb	sp, {r2, r4, r7, r8, r9, sl, ip}

00000c58 <l664>:
     c58:	c99d4f8e 	ldmibgt	sp, {r1, r2, r3, r7, r8, r9, sl, fp, lr}

00000c5c <l665>:
     c5c:	e91d47fd 	ldmdb	sp, {r0, r2, r3, r4, r5, r6, r7, r8, r9, sl, lr}

00000c60 <l666>:
     c60:	e93d53b4 	ldmdb	sp!, {r2, r4, r5, r7, r8, r9, ip, lr}

00000c64 <l667>:
     c64:	e8bd1102 	pop	{r1, r8, ip}

00000c68 <l668>:
     c68:	e9bd59fe 	ldmib	sp!, {r1, r2, r3, r4, r5, r6, r7, r8, fp, ip, lr}

00000c6c <l669>:
     c6c:	e9bd0400 	ldmib	sp!, {sl}

00000c70 <l670>:
     c70:	e83d5fdf 	ldmda	sp!, {r0, r1, r2, r3, r4, r6, r7, r8, r9, sl, fp, ip, lr}

00000c74 <l671>:
     c74:	e93d4004 	ldmdb	sp!, {r2, lr}

00000c78 <l672>:
     c78:	e8bd017e 	pop	{r1, r2, r3, r4, r5, r6, r8}

00000c7c <l673>:
     c7c:	e93d5185 	ldmdb	sp!, {r0, r2, r7, r8, ip, lr}

00000c80 <l674>:
     c80:	e83d0080 	ldmda	sp!, {r7}

00000c84 <l675>:
     c84:	e9bd0fcc 	ldmib	sp!, {r2, r3, r6, r7, r8, r9, sl, fp}

00000c88 <l676>:
     c88:	e9bd0010 	ldmib	sp!, {r4}

00000c8c <l677>:
     c8c:	e8bd0bfe 	pop	{r1, r2, r3, r4, r5, r6, r7, r8, r9, fp}

00000c90 <l678>:
     c90:	e93d05db 	ldmdb	sp!, {r0, r1, r3, r4, r6, r7, r8, sl}

00000c94 <l679>:
     c94:	999d5e8b 	ldmibls	sp, {r0, r1, r3, r7, r9, sl, fp, ip, lr}

00000c98 <l680>:
     c98:	e83d0002 	ldmda	sp!, {r1}

00000c9c <l681>:
     c9c:	e93d0e53 	ldmdb	sp!, {r0, r1, r4, r6, r9, sl, fp}

00000ca0 <l682>:
     ca0:	e89d4d1e 	ldm	sp, {r1, r2, r3, r4, r8, sl, fp, lr}

00000ca4 <l683>:
     ca4:	591d4040 	ldmdbpl	sp, {r6, lr}

00000ca8 <l684>:
     ca8:	e8bd0104 	pop	{r2, r8}

00000cac <l685>:
     cac:	e81d0080 	ldmda	sp, {r7}

00000cb0 <l686>:
     cb0:	e81d437a 	ldmda	sp, {r1, r3, r4, r5, r6, r8, r9, lr}

00000cb4 <l687>:
     cb4:	e8bd14a6 	pop	{r1, r2, r5, r7, sl, ip}

00000cb8 <l688>:
     cb8:	e93d06fc 	ldmdb	sp!, {r2, r3, r4, r5, r6, r7, r9, sl}

00000cbc <l689>:
     cbc:	e8bd5276 	pop	{r1, r2, r4, r5, r6, r9, ip, lr}

00000cc0 <l690>:
     cc0:	e91d5fff 	ldmdb	sp, {r0, r1, r2, r3, r4, r5, r6, r7, r8, r9, sl, fp, ip, lr}

00000cc4 <l691>:
     cc4:	e9bd5cff 	ldmib	sp!, {r0, r1, r2, r3, r4, r5, r6, r7, sl, fp, ip, lr}

00000cc8 <l692>:
     cc8:	e8bd0c58 	pop	{r3, r4, r6, sl, fp}

00000ccc <l693>:
     ccc:	e93d0040 	ldmdb	sp!, {r6}

00000cd0 <l694>:
     cd0:	e93d4504 	ldmdb	sp!, {r2, r8, sl, lr}

00000cd4 <l695>:
     cd4:	e99d400e 	ldmib	sp, {r1, r2, r3, lr}

00000cd8 <l696>:
     cd8:	191d5fff 	ldmdbne	sp, {r0, r1, r2, r3, r4, r5, r6, r7, r8, r9, sl, fp, ip, lr}

00000cdc <l697>:
     cdc:	e91d0cc8 	ldmdb	sp, {r3, r6, r7, sl, fp}

00000ce0 <l698>:
     ce0:	d89d5d7b 	ldmle	sp, {r0, r1, r3, r4, r5, r6, r8, sl, fp, ip, lr}

00000ce4 <l699>:
     ce4:	e9bd5a55 	ldmib	sp!, {r0, r2, r4, r6, r9, fp, ip, lr}

00000ce8 <l700>:
     ce8:	e83d1dce 	ldmda	sp!, {r1, r2, r3, r6, r7, r8, sl, fp, ip}

00000cec <l701>:
     cec:	e8bd4003 	pop	{r0, r1, lr}

00000cf0 <l702>:
     cf0:	e8bd1023 	pop	{r0, r1, r5, ip}

00000cf4 <l703>:
     cf4:	e9bd0900 	ldmib	sp!, {r8, fp}

00000cf8 <l704>:
     cf8:	389d1000 	ldmcc	sp, {ip}

00000cfc <l705>:
     cfc:	e93d16af 	ldmdb	sp!, {r0, r1, r2, r3, r5, r7, r9, sl, ip}

00000d00 <l706>:
     d00:	c81d528c 	ldmdagt	sp, {r2, r3, r7, r9, ip, lr}

00000d04 <l707>:
     d04:	e9bd460b 	ldmib	sp!, {r0, r1, r3, r9, sl, lr}

00000d08 <l708>:
     d08:	e9bd45f2 	ldmib	sp!, {r1, r4, r5, r6, r7, r8, sl, lr}

00000d0c <l709>:
     d0c:	e8bd0200 	ldmfd	sp!, {r9}

00000d10 <l710>:
     d10:	d91d4844 	ldmdble	sp, {r2, r6, fp, lr}

00000d14 <l711>:
     d14:	e93d1e30 	ldmdb	sp!, {r4, r5, r9, sl, fp, ip}

00000d18 <l712>:
     d18:	e83d001a 	ldmda	sp!, {r1, r3, r4}

00000d1c <l713>:
     d1c:	e93d0204 	ldmdb	sp!, {r2, r9}

00000d20 <l714>:
     d20:	e8bd0d7a 	pop	{r1, r3, r4, r5, r6, r8, sl, fp}

00000d24 <l715>:
     d24:	691d5c2c 	ldmdbvs	sp, {r2, r3, r5, sl, fp, ip, lr}

00000d28 <l716>:
     d28:	e93d0e48 	ldmdb	sp!, {r3, r6, r9, sl, fp}

00000d2c <l717>:
     d2c:	981d0040 	ldmdals	sp, {r6}

00000d30 <l718>:
     d30:	e89d0641 	ldm	sp, {r0, r6, r9, sl}

00000d34 <l719>:
     d34:	199d0986 	ldmibne	sp, {r1, r2, r7, r8, fp}

00000d38 <l720>:
     d38:	999d5ec8 	ldmibls	sp, {r3, r6, r7, r9, sl, fp, ip, lr}

00000d3c <l721>:
     d3c:	e8bd0124 	pop	{r2, r5, r8}

00000d40 <l722>:
     d40:	e91d57ef 	ldmdb	sp, {r0, r1, r2, r3, r5, r6, r7, r8, r9, sl, ip, lr}

00000d44 <l723>:
     d44:	e8bd5e77 	pop	{r0, r1, r2, r4, r5, r6, r9, sl, fp, ip, lr}

00000d48 <l724>:
     d48:	e9bd0800 	ldmib	sp!, {fp}

00000d4c <l725>:
     d4c:	e93d0832 	ldmdb	sp!, {r1, r4, r5, fp}

00000d50 <l726>:
     d50:	e9bd4000 	ldmib	sp!, {lr}

00000d54 <l727>:
     d54:	e9bd4014 	ldmib	sp!, {r2, r4, lr}

00000d58 <l728>:
     d58:	e93d0140 	ldmdb	sp!, {r6, r8}

00000d5c <l729>:
     d5c:	e83d5fee 	ldmda	sp!, {r1, r2, r3, r5, r6, r7, r8, r9, sl, fp, ip, lr}

00000d60 <l730>:
     d60:	e9bd5fff 	ldmib	sp!, {r0, r1, r2, r3, r4, r5, r6, r7, r8, r9, sl, fp, ip, lr}

00000d64 <l731>:
     d64:	e93d0010 	ldmdb	sp!, {r4}

00000d68 <l732>:
     d68:	e83d5f91 	ldmda	sp!, {r0, r4, r7, r8, r9, sl, fp, ip, lr}

00000d6c <l733>:
     d6c:	399d0408 	ldmibcc	sp, {r3, sl}

00000d70 <l734>:
     d70:	e93d0130 	ldmdb	sp!, {r4, r5, r8}

00000d74 <l735>:
     d74:	e8bd0a60 	pop	{r5, r6, r9, fp}

00000d78 <l736>:
     d78:	e93d5bff 	ldmdb	sp!, {r0, r1, r2, r3, r4, r5, r6, r7, r8, r9, fp, ip, lr}

00000d7c <l737>:
     d7c:	e9bd4804 	ldmib	sp!, {r2, fp, lr}

00000d80 <l738>:
     d80:	e93d00c8 	ldmdb	sp!, {r3, r6, r7}

00000d84 <l739>:
     d84:	e8bd0800 	ldmfd	sp!, {fp}

00000d88 <l740>:
     d88:	e9bd1fba 	ldmib	sp!, {r1, r3, r4, r5, r7, r8, r9, sl, fp, ip}

00000d8c <l741>:
     d8c:	e93d0a5e 	ldmdb	sp!, {r1, r2, r3, r4, r6, r9, fp}

00000d90 <l742>:
     d90:	e83d4204 	ldmda	sp!, {r2, r9, lr}

00000d94 <l743>:
     d94:	e99d000a 	ldmib	sp, {r1, r3}

00000d98 <l744>:
     d98:	e83d0204 	ldmda	sp!, {r2, r9}

00000d9c <l745>:
     d9c:	e89d50a5 	ldm	sp, {r0, r2, r5, r7, ip, lr}

00000da0 <l746>:
     da0:	e83d0883 	ldmda	sp!, {r0, r1, r7, fp}

00000da4 <l747>:
     da4:	789d56dc 	ldmvc	sp, {r2, r3, r4, r6, r7, r9, sl, ip, lr}

00000da8 <l748>:
     da8:	c99d1188 	ldmibgt	sp, {r3, r7, r8, ip}

00000dac <l749>:
     dac:	e83d15f4 	ldmda	sp!, {r2, r4, r5, r6, r7, r8, sl, ip}

00000db0 <l750>:
     db0:	e93d4939 	ldmdb	sp!, {r0, r3, r4, r5, r8, fp, lr}

00000db4 <l751>:
     db4:	e93d0200 	ldmdb	sp!, {r9}

00000db8 <l752>:
     db8:	e8bd577d 	pop	{r0, r2, r3, r4, r5, r6, r8, r9, sl, ip, lr}

00000dbc <l753>:
     dbc:	e83d1b3b 	ldmda	sp!, {r0, r1, r3, r4, r5, r8, r9, fp, ip}

00000dc0 <l754>:
     dc0:	e93d0041 	ldmdb	sp!, {r0, r6}

00000dc4 <l755>:
     dc4:	989d5fbb 	ldmls	sp, {r0, r1, r3, r4, r5, r7, r8, r9, sl, fp, ip, lr}

00000dc8 <l756>:
     dc8:	e93d0a10 	ldmdb	sp!, {r4, r9, fp}

00000dcc <l757>:
     dcc:	e91d0b31 	ldmdb	sp, {r0, r4, r5, r8, r9, fp}

00000dd0 <l758>:
     dd0:	999d0408 	ldmibls	sp, {r3, sl}

00000dd4 <l759>:
     dd4:	e99d4edf 	ldmib	sp, {r0, r1, r2, r3, r4, r6, r7, r9, sl, fp, lr}

00000dd8 <l760>:
     dd8:	e8bd4148 	pop	{r3, r6, r8, lr}

00000ddc <l761>:
     ddc:	e93d4eeb 	ldmdb	sp!, {r0, r1, r3, r5, r6, r7, r9, sl, fp, lr}

00000de0 <l762>:
     de0:	e83d0662 	ldmda	sp!, {r1, r5, r6, r9, sl}

00000de4 <l763>:
     de4:	289d138c 	ldmcs	sp, {r2, r3, r7, r8, r9, ip}

00000de8 <l764>:
     de8:	e8bd0040 	ldmfd	sp!, {r6}

00000dec <l765>:
     dec:	e93d01d0 	ldmdb	sp!, {r4, r6, r7, r8}

00000df0 <l766>:
     df0:	e9bd4021 	ldmib	sp!, {r0, r5, lr}

00000df4 <l767>:
     df4:	299d4be9 	ldmibcs	sp, {r0, r3, r5, r6, r7, r8, r9, fp, lr}

00000df8 <l768>:
     df8:	e93d0006 	ldmdb	sp!, {r1, r2}

00000dfc <l769>:
     dfc:	e83d514d 	ldmda	sp!, {r0, r2, r3, r6, r8, ip, lr}

00000e00 <l770>:
     e00:	e99d1a10 	ldmib	sp, {r4, r9, fp, ip}

00000e04 <l771>:
     e04:	e99d1000 	ldmib	sp, {ip}

00000e08 <l772>:
     e08:	e93d5eff 	ldmdb	sp!, {r0, r1, r2, r3, r4, r5, r6, r7, r9, sl, fp, ip, lr}

00000e0c <l773>:
     e0c:	e8bd1900 	pop	{r8, fp, ip}

00000e10 <l774>:
     e10:	e8bd4338 	pop	{r3, r4, r5, r8, r9, lr}

00000e14 <l775>:
     e14:	e9bd5140 	ldmib	sp!, {r6, r8, ip, lr}

00000e18 <l776>:
     e18:	e93d0200 	ldmdb	sp!, {r9}

00000e1c <l777>:
     e1c:	e83d1008 	ldmda	sp!, {r3, ip}

00000e20 <l778>:
     e20:	981d5fd7 	ldmdals	sp, {r0, r1, r2, r4, r6, r7, r8, r9, sl, fp, ip, lr}

00000e24 <l779>:
     e24:	e8bd5dee 	pop	{r1, r2, r3, r5, r6, r7, r8, sl, fp, ip, lr}

00000e28 <l780>:
     e28:	e8bd054a 	pop	{r1, r3, r6, r8, sl}

00000e2c <l781>:
     e2c:	e93d00e0 	ldmdb	sp!, {r5, r6, r7}

00000e30 <l782>:
     e30:	e83d5853 	ldmda	sp!, {r0, r1, r4, r6, fp, ip, lr}

00000e34 <l783>:
     e34:	e9bd4fff 	ldmib	sp!, {r0, r1, r2, r3, r4, r5, r6, r7, r8, r9, sl, fp, lr}

00000e38 <l784>:
     e38:	e83d5081 	ldmda	sp!, {r0, r7, ip, lr}

00000e3c <l785>:
     e3c:	e9bd0440 	ldmib	sp!, {r6, sl}

00000e40 <l786>:
     e40:	e8bd1020 	pop	{r5, ip}

00000e44 <l787>:
     e44:	d91d129c 	ldmdble	sp, {r2, r3, r4, r7, r9, ip}

00000e48 <l788>:
     e48:	e93d4695 	ldmdb	sp!, {r0, r2, r4, r7, r9, sl, lr}

00000e4c <l789>:
     e4c:	e9bd5dcf 	ldmib	sp!, {r0, r1, r2, r3, r6, r7, r8, sl, fp, ip, lr}

00000e50 <l790>:
     e50:	189d0080 	ldmne	sp, {r7}

00000e54 <l791>:
     e54:	e93d0625 	ldmdb	sp!, {r0, r2, r5, r9, sl}

00000e58 <l792>:
     e58:	e83d0005 	ldmda	sp!, {r0, r2}

00000e5c <l793>:
     e5c:	e89d0020 	ldm	sp, {r5}

00000e60 <l794>:
     e60:	e83d5bff 	ldmda	sp!, {r0, r1, r2, r3, r4, r5, r6, r7, r8, r9, fp, ip, lr}

00000e64 <l795>:
     e64:	789d0e7e 	ldmvc	sp, {r1, r2, r3, r4, r5, r6, r9, sl, fp}

00000e68 <l796>:
     e68:	e93d560b 	ldmdb	sp!, {r0, r1, r3, r9, sl, ip, lr}

00000e6c <l797>:
     e6c:	e9bd5ef7 	ldmib	sp!, {r0, r1, r2, r4, r5, r6, r7, r9, sl, fp, ip, lr}

00000e70 <l798>:
     e70:	e99d0280 	ldmib	sp, {r7, r9}

00000e74 <l799>:
     e74:	c91d1180 	ldmdbgt	sp, {r7, r8, ip}

00000e78 <l800>:
     e78:	e9bd1811 	ldmib	sp!, {r0, r4, fp, ip}

00000e7c <l801>:
     e7c:	e8bd0200 	ldmfd	sp!, {r9}

00000e80 <l802>:
     e80:	e93d4eff 	ldmdb	sp!, {r0, r1, r2, r3, r4, r5, r6, r7, r9, sl, fp, lr}

00000e84 <l803>:
     e84:	799d0f7f 	ldmibvc	sp, {r0, r1, r2, r3, r4, r5, r6, r8, r9, sl, fp}

00000e88 <l804>:
     e88:	e93d5ffe 	ldmdb	sp!, {r1, r2, r3, r4, r5, r6, r7, r8, r9, sl, fp, ip, lr}

00000e8c <l805>:
     e8c:	e8bd5bef 	pop	{r0, r1, r2, r3, r5, r6, r7, r8, r9, fp, ip, lr}

00000e90 <l806>:
     e90:	e9bd4a80 	ldmib	sp!, {r7, r9, fp, lr}

00000e94 <l807>:
     e94:	e93d0620 	ldmdb	sp!, {r5, r9, sl}

00000e98 <l808>:
     e98:	e81d5a38 	ldmda	sp, {r3, r4, r5, r9, fp, ip, lr}

00000e9c <l809>:
     e9c:	e83d5737 	ldmda	sp!, {r0, r1, r2, r4, r5, r8, r9, sl, ip, lr}

00000ea0 <l810>:
     ea0:	e99d0723 	ldmib	sp, {r0, r1, r5, r8, r9, sl}

00000ea4 <l811>:
     ea4:	e8bd1bdc 	pop	{r2, r3, r4, r6, r7, r8, r9, fp, ip}

00000ea8 <l812>:
     ea8:	e9bd1109 	ldmib	sp!, {r0, r3, r8, ip}

00000eac <l813>:
     eac:	e83d4f25 	ldmda	sp!, {r0, r2, r5, r8, r9, sl, fp, lr}

00000eb0 <l814>:
     eb0:	e83d5b7d 	ldmda	sp!, {r0, r2, r3, r4, r5, r6, r8, r9, fp, ip, lr}

00000eb4 <l815>:
     eb4:	e9bd5dff 	ldmib	sp!, {r0, r1, r2, r3, r4, r5, r6, r7, r8, sl, fp, ip, lr}

00000eb8 <l816>:
     eb8:	289d4317 	ldmcs	sp, {r0, r1, r2, r4, r8, r9, lr}

00000ebc <l817>:
     ebc:	e83d4e9f 	ldmda	sp!, {r0, r1, r2, r3, r4, r7, r9, sl, fp, lr}

00000ec0 <l818>:
     ec0:	e83d0010 	ldmda	sp!, {r4}

00000ec4 <l819>:
     ec4:	e81d09bd 	ldmda	sp, {r0, r2, r3, r4, r5, r7, r8, fp}

00000ec8 <l820>:
     ec8:	e93d0400 	ldmdb	sp!, {sl}

00000ecc <l821>:
     ecc:	199d44fe 	ldmibne	sp, {r1, r2, r3, r4, r5, r6, r7, sl, lr}

00000ed0 <l822>:
     ed0:	e9bd5cb1 	ldmib	sp!, {r0, r4, r5, r7, sl, fp, ip, lr}

00000ed4 <l823>:
     ed4:	e83d4820 	ldmda	sp!, {r5, fp, lr}

00000ed8 <l824>:
     ed8:	399d4200 	ldmibcc	sp, {r9, lr}

00000edc <l825>:
     edc:	e8bd0088 	pop	{r3, r7}

00000ee0 <l826>:
     ee0:	599d0101 	ldmibpl	sp, {r0, r8}

00000ee4 <l827>:
     ee4:	e83d0ac4 	ldmda	sp!, {r2, r6, r7, r9, fp}

00000ee8 <l828>:
     ee8:	e8bd0722 	pop	{r1, r5, r8, r9, sl}

00000eec <l829>:
     eec:	e83d0ffb 	ldmda	sp!, {r0, r1, r3, r4, r5, r6, r7, r8, r9, sl, fp}

00000ef0 <l830>:
     ef0:	e81d030a 	ldmda	sp, {r1, r3, r8, r9}

00000ef4 <l831>:
     ef4:	e93d0008 	ldmdb	sp!, {r3}

00000ef8 <l832>:
     ef8:	891d0083 	ldmdbhi	sp, {r0, r1, r7}

00000efc <l833>:
     efc:	e83d0800 	ldmda	sp!, {fp}

00000f00 <l834>:
     f00:	e8bd5ffb 	pop	{r0, r1, r3, r4, r5, r6, r7, r8, r9, sl, fp, ip, lr}

00000f04 <l835>:
     f04:	e91d5def 	ldmdb	sp, {r0, r1, r2, r3, r5, r6, r7, r8, sl, fp, ip, lr}

00000f08 <l836>:
     f08:	e83d0080 	ldmda	sp!, {r7}

00000f0c <l837>:
     f0c:	b99d5f7d 	ldmiblt	sp, {r0, r2, r3, r4, r5, r6, r8, r9, sl, fp, ip, lr}

00000f10 <l838>:
     f10:	681d50f3 	ldmdavs	sp, {r0, r1, r4, r5, r6, r7, ip, lr}

00000f14 <l839>:
     f14:	691d4000 	ldmdbvs	sp, {lr}

00000f18 <l840>:
     f18:	e81d1400 	ldmda	sp, {sl, ip}

00000f1c <l841>:
     f1c:	e9bd57f5 	ldmib	sp!, {r0, r2, r4, r5, r6, r7, r8, r9, sl, ip, lr}

00000f20 <l842>:
     f20:	e93d0a10 	ldmdb	sp!, {r4, r9, fp}

00000f24 <l843>:
     f24:	e93d04ba 	ldmdb	sp!, {r1, r3, r4, r5, r7, sl}

00000f28 <l844>:
     f28:	e9bd0284 	ldmib	sp!, {r2, r7, r9}

00000f2c <l845>:
     f2c:	e83d44c8 	ldmda	sp!, {r3, r6, r7, sl, lr}

00000f30 <l846>:
     f30:	e83d0004 	ldmda	sp!, {r2}

00000f34 <l847>:
     f34:	e99d1ee3 	ldmib	sp, {r0, r1, r5, r6, r7, r9, sl, fp, ip}

00000f38 <l848>:
     f38:	e9bd5610 	ldmib	sp!, {r4, r9, sl, ip, lr}

00000f3c <l849>:
     f3c:	e83d5fff 	ldmda	sp!, {r0, r1, r2, r3, r4, r5, r6, r7, r8, r9, sl, fp, ip, lr}

00000f40 <l850>:
     f40:	e8bd48f3 	pop	{r0, r1, r4, r5, r6, r7, fp, lr}

00000f44 <l851>:
     f44:	e8bd0dc4 	pop	{r2, r6, r7, r8, sl, fp}

00000f48 <l852>:
     f48:	e8bd1426 	pop	{r1, r2, r5, sl, ip}

00000f4c <l853>:
     f4c:	e81d56ed 	ldmda	sp, {r0, r2, r3, r5, r6, r7, r9, sl, ip, lr}

00000f50 <l854>:
     f50:	e9bd4222 	ldmib	sp!, {r1, r5, r9, lr}

00000f54 <l855>:
     f54:	e89d4000 	ldm	sp, {lr}

00000f58 <l856>:
     f58:	e9bd0148 	ldmib	sp!, {r3, r6, r8}

00000f5c <l857>:
     f5c:	e89d0010 	ldm	sp, {r4}

00000f60 <l858>:
     f60:	b99d0410 	ldmiblt	sp, {r4, sl}

00000f64 <l859>:
     f64:	e93d0048 	ldmdb	sp!, {r3, r6}

00000f68 <l860>:
     f68:	e93d1feb 	ldmdb	sp!, {r0, r1, r3, r5, r6, r7, r8, r9, sl, fp, ip}

00000f6c <l861>:
     f6c:	e83d0961 	ldmda	sp!, {r0, r5, r6, r8, fp}

00000f70 <l862>:
     f70:	e93d0100 	ldmdb	sp!, {r8}

00000f74 <l863>:
     f74:	e83d4000 	ldmda	sp!, {lr}

00000f78 <l864>:
     f78:	e8bd1f25 	pop	{r0, r2, r5, r8, r9, sl, fp, ip}

00000f7c <l865>:
     f7c:	e93d0cf2 	ldmdb	sp!, {r1, r4, r5, r6, r7, sl, fp}

00000f80 <l866>:
     f80:	e8bd4feb 	pop	{r0, r1, r3, r5, r6, r7, r8, r9, sl, fp, lr}

00000f84 <l867>:
     f84:	e8bd0bc7 	pop	{r0, r1, r2, r6, r7, r8, r9, fp}

00000f88 <l868>:
     f88:	e81d4ff9 	ldmda	sp, {r0, r3, r4, r5, r6, r7, r8, r9, sl, fp, lr}

00000f8c <l869>:
     f8c:	e89d55d3 	ldm	sp, {r0, r1, r4, r6, r7, r8, sl, ip, lr}

00000f90 <l870>:
     f90:	e9bd0080 	ldmib	sp!, {r7}

00000f94 <l871>:
     f94:	e93d5647 	ldmdb	sp!, {r0, r1, r2, r6, r9, sl, ip, lr}

00000f98 <l872>:
     f98:	e81d4cd2 	ldmda	sp, {r1, r4, r6, r7, sl, fp, lr}

00000f9c <l873>:
     f9c:	e8bd43b9 	pop	{r0, r3, r4, r5, r7, r8, r9, lr}

00000fa0 <l874>:
     fa0:	e8bd18ee 	pop	{r1, r2, r3, r5, r6, r7, fp, ip}

00000fa4 <l875>:
     fa4:	e83d43a5 	ldmda	sp!, {r0, r2, r5, r7, r8, r9, lr}

00000fa8 <l876>:
     fa8:	e9bd02c4 	ldmib	sp!, {r2, r6, r7, r9}

00000fac <l877>:
     fac:	e99d00a2 	ldmib	sp, {r1, r5, r7}

00000fb0 <l878>:
     fb0:	e83d5fff 	ldmda	sp!, {r0, r1, r2, r3, r4, r5, r6, r7, r8, r9, sl, fp, ip, lr}

00000fb4 <l879>:
     fb4:	e8bd539f 	pop	{r0, r1, r2, r3, r4, r7, r8, r9, ip, lr}

00000fb8 <l880>:
     fb8:	e89d0048 	ldm	sp, {r3, r6}

00000fbc <l881>:
     fbc:	081d5834 	ldmdaeq	sp, {r2, r4, r5, fp, ip, lr}

00000fc0 <l882>:
     fc0:	e83d080c 	ldmda	sp!, {r2, r3, fp}

00000fc4 <l883>:
     fc4:	999d0004 	ldmibls	sp, {r2}

00000fc8 <l884>:
     fc8:	e83d020a 	ldmda	sp!, {r1, r3, r9}

00000fcc <l885>:
     fcc:	b91d0602 	ldmdblt	sp, {r1, r9, sl}

00000fd0 <l886>:
     fd0:	e83d0820 	ldmda	sp!, {r5, fp}

00000fd4 <l887>:
     fd4:	e8bd5fff 	pop	{r0, r1, r2, r3, r4, r5, r6, r7, r8, r9, sl, fp, ip, lr}

00000fd8 <l888>:
     fd8:	991d1130 	ldmdbls	sp, {r4, r5, r8, ip}

00000fdc <l889>:
     fdc:	e93d0594 	ldmdb	sp!, {r2, r4, r7, r8, sl}

00000fe0 <l890>:
     fe0:	e8bd5f55 	pop	{r0, r2, r4, r6, r8, r9, sl, fp, ip, lr}

00000fe4 <l891>:
     fe4:	e83d4fad 	ldmda	sp!, {r0, r2, r3, r5, r7, r8, r9, sl, fp, lr}

00000fe8 <l892>:
     fe8:	e9bd5cff 	ldmib	sp!, {r0, r1, r2, r3, r4, r5, r6, r7, sl, fp, ip, lr}

00000fec <l893>:
     fec:	599d0001 	ldmibpl	sp, {r0}

00000ff0 <l894>:
     ff0:	e93d4fb1 	ldmdb	sp!, {r0, r4, r5, r7, r8, r9, sl, fp, lr}

00000ff4 <l895>:
     ff4:	e8bd0984 	pop	{r2, r7, r8, fp}

00000ff8 <l896>:
     ff8:	e93d0f56 	ldmdb	sp!, {r1, r2, r4, r6, r8, r9, sl, fp}

00000ffc <l897>:
     ffc:	e83d19c3 	ldmda	sp!, {r0, r1, r6, r7, r8, fp, ip}

00001000 <l898>:
    1000:	e8bd4411 	pop	{r0, r4, sl, lr}

00001004 <l899>:
    1004:	e8bd07de 	pop	{r1, r2, r3, r4, r6, r7, r8, r9, sl}

00001008 <l900>:
    1008:	e8bd0b86 	pop	{r1, r2, r7, r8, r9, fp}

0000100c <l901>:
    100c:	191d5917 	ldmdbne	sp, {r0, r1, r2, r4, r8, fp, ip, lr}

00001010 <l902>:
    1010:	e81d025b 	ldmda	sp, {r0, r1, r3, r4, r6, r9}

00001014 <l903>:
    1014:	e9bd0111 	ldmib	sp!, {r0, r4, r8}

00001018 <l904>:
    1018:	981d560e 	ldmdals	sp, {r1, r2, r3, r9, sl, ip, lr}

0000101c <l905>:
    101c:	e99d0800 	ldmib	sp, {fp}

00001020 <l906>:
    1020:	e9bd4454 	ldmib	sp!, {r2, r4, r6, sl, lr}

00001024 <l907>:
    1024:	e8bd1acf 	pop	{r0, r1, r2, r3, r6, r7, r9, fp, ip}

00001028 <l908>:
    1028:	e93d5ba5 	ldmdb	sp!, {r0, r2, r5, r7, r8, r9, fp, ip, lr}

0000102c <l909>:
    102c:	e8bd0ffa 	pop	{r1, r3, r4, r5, r6, r7, r8, r9, sl, fp}

00001030 <l910>:
    1030:	e83d1680 	ldmda	sp!, {r7, r9, sl, ip}

00001034 <l911>:
    1034:	e8bd4f28 	pop	{r3, r5, r8, r9, sl, fp, lr}

00001038 <l912>:
    1038:	081d0002 	ldmdaeq	sp, {r1}

0000103c <l913>:
    103c:	591d5f7f 	ldmdbpl	sp, {r0, r1, r2, r3, r4, r5, r6, r8, r9, sl, fp, ip, lr}

00001040 <l914>:
    1040:	e83d0412 	ldmda	sp!, {r1, r4, sl}

00001044 <l915>:
    1044:	e93d1004 	ldmdb	sp!, {r2, ip}

00001048 <l916>:
    1048:	c99d5eff 	ldmibgt	sp, {r0, r1, r2, r3, r4, r5, r6, r7, r9, sl, fp, ip, lr}

0000104c <l917>:
    104c:	e8bd0040 	ldmfd	sp!, {r6}

00001050 <l918>:
    1050:	e91d4b14 	ldmdb	sp, {r2, r4, r8, r9, fp, lr}

00001054 <l919>:
    1054:	e81d543c 	ldmda	sp, {r2, r3, r4, r5, sl, ip, lr}

00001058 <l920>:
    1058:	d99d4a21 	ldmible	sp, {r0, r5, r9, fp, lr}

0000105c <l921>:
    105c:	989d139b 	ldmls	sp, {r0, r1, r3, r4, r7, r8, r9, ip}

00001060 <l922>:
    1060:	e9bd1402 	ldmib	sp!, {r1, sl, ip}

00001064 <l923>:
    1064:	e93d5abf 	ldmdb	sp!, {r0, r1, r2, r3, r4, r5, r7, r9, fp, ip, lr}

00001068 <l924>:
    1068:	e9bd0003 	ldmib	sp!, {r0, r1}

0000106c <l925>:
    106c:	d89d002d 	ldmle	sp, {r0, r2, r3, r5}

00001070 <l926>:
    1070:	e83d5bdf 	ldmda	sp!, {r0, r1, r2, r3, r4, r6, r7, r8, r9, fp, ip, lr}

00001074 <l927>:
    1074:	e93d0040 	ldmdb	sp!, {r6}

00001078 <l928>:
    1078:	e99d5bfd 	ldmib	sp, {r0, r2, r3, r4, r5, r6, r7, r8, r9, fp, ip, lr}

0000107c <l929>:
    107c:	e8bd1c00 	pop	{sl, fp, ip}

00001080 <l930>:
    1080:	e8bd0200 	ldmfd	sp!, {r9}

00001084 <l931>:
    1084:	e91d00c8 	ldmdb	sp, {r3, r6, r7}

00001088 <l932>:
    1088:	099d01d8 	ldmibeq	sp, {r3, r4, r6, r7, r8}

0000108c <l933>:
    108c:	d89d1008 	ldmle	sp, {r3, ip}

00001090 <l934>:
    1090:	e93d0e10 	ldmdb	sp!, {r4, r9, sl, fp}

00001094 <l935>:
    1094:	e93d171e 	ldmdb	sp!, {r1, r2, r3, r4, r8, r9, sl, ip}

00001098 <l936>:
    1098:	e83d0200 	ldmda	sp!, {r9}

0000109c <l937>:
    109c:	189d5d87 	ldmne	sp, {r0, r1, r2, r7, r8, sl, fp, ip, lr}

000010a0 <l938>:
    10a0:	e9bd0200 	ldmib	sp!, {r9}

000010a4 <l939>:
    10a4:	e9bd0008 	ldmib	sp!, {r3}

000010a8 <l940>:
    10a8:	491d57ff 	ldmdbmi	sp, {r0, r1, r2, r3, r4, r5, r6, r7, r8, r9, sl, ip, lr}

000010ac <l941>:
    10ac:	e8bd0e6a 	pop	{r1, r3, r5, r6, r9, sl, fp}

000010b0 <l942>:
    10b0:	e9bd515d 	ldmib	sp!, {r0, r2, r3, r4, r6, r8, ip, lr}

000010b4 <l943>:
    10b4:	e83d5fff 	ldmda	sp!, {r0, r1, r2, r3, r4, r5, r6, r7, r8, r9, sl, fp, ip, lr}

000010b8 <l944>:
    10b8:	289d0140 	ldmcs	sp, {r6, r8}

000010bc <l945>:
    10bc:	e93d0c14 	ldmdb	sp!, {r2, r4, sl, fp}

000010c0 <l946>:
    10c0:	e83d0409 	ldmda	sp!, {r0, r3, sl}

000010c4 <l947>:
    10c4:	e81d1000 	ldmda	sp, {ip}

000010c8 <l948>:
    10c8:	e8bd0240 	pop	{r6, r9}

000010cc <l949>:
    10cc:	e8bd5ffe 	pop	{r1, r2, r3, r4, r5, r6, r7, r8, r9, sl, fp, ip, lr}

000010d0 <l950>:
    10d0:	e9bd01a2 	ldmib	sp!, {r1, r5, r7, r8}

000010d4 <l951>:
    10d4:	e8bd0002 	ldmfd	sp!, {r1}

000010d8 <l952>:
    10d8:	e93d0c80 	ldmdb	sp!, {r7, sl, fp}

000010dc <l953>:
    10dc:	e93d0932 	ldmdb	sp!, {r1, r4, r5, r8, fp}

000010e0 <l954>:
    10e0:	e8bd0d09 	pop	{r0, r3, r8, sl, fp}

000010e4 <l955>:
    10e4:	e8bd0244 	pop	{r2, r6, r9}

000010e8 <l956>:
    10e8:	781d1b9b 	ldmdavc	sp, {r0, r1, r3, r4, r7, r8, r9, fp, ip}

000010ec <l957>:
    10ec:	e93d0bca 	ldmdb	sp!, {r1, r3, r6, r7, r8, r9, fp}

000010f0 <l958>:
    10f0:	e89d583d 	ldm	sp, {r0, r2, r3, r4, r5, fp, ip, lr}

000010f4 <l959>:
    10f4:	e83d4a12 	ldmda	sp!, {r1, r4, r9, fp, lr}

000010f8 <l960>:
    10f8:	e93d4810 	ldmdb	sp!, {r4, fp, lr}

000010fc <l961>:
    10fc:	e83d4104 	ldmda	sp!, {r2, r8, lr}

00001100 <l962>:
    1100:	e9bd1def 	ldmib	sp!, {r0, r1, r2, r3, r5, r6, r7, r8, sl, fp, ip}

00001104 <l963>:
    1104:	e83d1f11 	ldmda	sp!, {r0, r4, r8, r9, sl, fp, ip}

00001108 <l964>:
    1108:	e9bd47d7 	ldmib	sp!, {r0, r1, r2, r4, r6, r7, r8, r9, sl, lr}

0000110c <l965>:
    110c:	e9bd4200 	ldmib	sp!, {r9, lr}

00001110 <l966>:
    1110:	189d0248 	ldmne	sp, {r3, r6, r9}

00001114 <l967>:
    1114:	e93d5c6a 	ldmdb	sp!, {r1, r3, r5, r6, sl, fp, ip, lr}

00001118 <l968>:
    1118:	091d5ab0 	ldmdbeq	sp, {r4, r5, r7, r9, fp, ip, lr}

0000111c <l969>:
    111c:	e8bd4086 	pop	{r1, r2, r7, lr}

00001120 <l970>:
    1120:	e83d4889 	ldmda	sp!, {r0, r3, r7, fp, lr}

00001124 <l971>:
    1124:	e9bd5ffd 	ldmib	sp!, {r0, r2, r3, r4, r5, r6, r7, r8, r9, sl, fp, ip, lr}

00001128 <l972>:
    1128:	289d1000 	ldmcs	sp, {ip}

0000112c <l973>:
    112c:	e83d0010 	ldmda	sp!, {r4}

00001130 <l974>:
    1130:	e93d1d44 	ldmdb	sp!, {r2, r6, r8, sl, fp, ip}

00001134 <l975>:
    1134:	289d1d45 	ldmcs	sp, {r0, r2, r6, r8, sl, fp, ip}

00001138 <l976>:
    1138:	e9bd0840 	ldmib	sp!, {r6, fp}

0000113c <l977>:
    113c:	391d58af 	ldmdbcc	sp, {r0, r1, r2, r3, r5, r7, fp, ip, lr}

00001140 <l978>:
    1140:	e99d0014 	ldmib	sp, {r2, r4}

00001144 <l979>:
    1144:	e8bd4000 	ldmfd	sp!, {lr}

00001148 <l980>:
    1148:	e9bd1c30 	ldmib	sp!, {r4, r5, sl, fp, ip}

0000114c <l981>:
    114c:	e8bd0400 	ldmfd	sp!, {sl}

00001150 <l982>:
    1150:	e93d0aa5 	ldmdb	sp!, {r0, r2, r5, r7, r9, fp}

00001154 <l983>:
    1154:	e9bd1c26 	ldmib	sp!, {r1, r2, r5, sl, fp, ip}

00001158 <l984>:
    1158:	e83d1f73 	ldmda	sp!, {r0, r1, r4, r5, r6, r8, r9, sl, fp, ip}

0000115c <l985>:
    115c:	e9bd0504 	ldmib	sp!, {r2, r8, sl}

00001160 <l986>:
    1160:	e83d4104 	ldmda	sp!, {r2, r8, lr}

00001164 <l987>:
    1164:	e83d19b6 	ldmda	sp!, {r1, r2, r4, r5, r7, r8, fp, ip}

00001168 <l988>:
    1168:	991d0080 	ldmdbls	sp, {r7}

0000116c <l989>:
    116c:	499d4a72 	ldmibmi	sp, {r1, r4, r5, r6, r9, fp, lr}

00001170 <l990>:
    1170:	e89d5bef 	ldm	sp, {r0, r1, r2, r3, r5, r6, r7, r8, r9, fp, ip, lr}

00001174 <l991>:
    1174:	e81d503e 	ldmda	sp, {r1, r2, r3, r4, r5, ip, lr}

00001178 <l992>:
    1178:	e9bd4080 	ldmib	sp!, {r7, lr}

0000117c <l993>:
    117c:	e91d1948 	ldmdb	sp, {r3, r6, r8, fp, ip}

00001180 <l994>:
    1180:	381d589f 	ldmdacc	sp, {r0, r1, r2, r3, r4, r7, fp, ip, lr}

00001184 <l995>:
    1184:	e93d4000 	ldmdb	sp!, {lr}

00001188 <l996>:
    1188:	e8bd49a7 	pop	{r0, r1, r2, r5, r7, r8, fp, lr}

0000118c <l997>:
    118c:	e8bd57fd 	pop	{r0, r2, r3, r4, r5, r6, r7, r8, r9, sl, ip, lr}

00001190 <l998>:
    1190:	e81d5f7f 	ldmda	sp, {r0, r1, r2, r3, r4, r5, r6, r8, r9, sl, fp, ip, lr}

00001194 <l999>:
    1194:	699d5ddf 	ldmibvs	sp, {r0, r1, r2, r3, r4, r6, r7, r8, sl, fp, ip, lr}

00001198 <l1000>:
    1198:	e99d0008 	ldmib	sp, {r3}

0000119c <end>:
    119c:	eafffffe 	b	119c <end>
