
ldmstm_1000.o:     file format elf32-littlearm


Disassembly of section .text:

00000000 <main>:
       0:	e05f000f 	subs	r0, pc, pc
       4:	e59fd000 	ldr	sp, [pc]	; c <val>
       8:	ea000000 	b	10 <next>

0000000c <val>:
       c:	000ffff0 	.word	0x000ffff0

00000010 <next>:
      10:	e59f1000 	ldr	r1, [pc]	; 18 <val1>
      14:	ea000000 	b	1c <next1>

00000018 <val1>:
      18:	1a4a6580 	.word	0x1a4a6580

0000001c <next1>:
      1c:	e59f2000 	ldr	r2, [pc]	; 24 <val2>
      20:	ea000000 	b	28 <next2>

00000024 <val2>:
      24:	447a0e91 	.word	0x447a0e91

00000028 <next2>:
      28:	e59f3000 	ldr	r3, [pc]	; 30 <val3>
      2c:	ea000000 	b	34 <next3>

00000030 <val3>:
      30:	37c10abf 	.word	0x37c10abf

00000034 <next3>:
      34:	e59f4000 	ldr	r4, [pc]	; 3c <val4>
      38:	ea000000 	b	40 <next4>

0000003c <val4>:
      3c:	232ca39e 	.word	0x232ca39e

00000040 <next4>:
      40:	e59f5000 	ldr	r5, [pc]	; 48 <val5>
      44:	ea000000 	b	4c <next5>

00000048 <val5>:
      48:	90bd961e 	.word	0x90bd961e

0000004c <next5>:
      4c:	e59f6000 	ldr	r6, [pc]	; 54 <val6>
      50:	ea000000 	b	58 <next6>

00000054 <val6>:
      54:	45d06da2 	.word	0x45d06da2

00000058 <next6>:
      58:	e59f7000 	ldr	r7, [pc]	; 60 <val7>
      5c:	ea000000 	b	64 <next7>

00000060 <val7>:
      60:	4401d318 	.word	0x4401d318

00000064 <next7>:
      64:	e59f8000 	ldr	r8, [pc]	; 6c <val8>
      68:	ea000000 	b	70 <next8>

0000006c <val8>:
      6c:	7e21e57e 	.word	0x7e21e57e

00000070 <next8>:
      70:	e59f9000 	ldr	r9, [pc]	; 78 <val9>
      74:	ea000000 	b	7c <next9>

00000078 <val9>:
      78:	570839ff 	.word	0x570839ff

0000007c <next9>:
      7c:	e59fa000 	ldr	sl, [pc]	; 84 <val10>
      80:	ea000000 	b	88 <next10>

00000084 <val10>:
      84:	6e054673 	.word	0x6e054673

00000088 <next10>:
      88:	e59fb000 	ldr	fp, [pc]	; 90 <val11>
      8c:	ea000000 	b	94 <next11>

00000090 <val11>:
      90:	850212e2 	.word	0x850212e2

00000094 <next11>:
      94:	e59fc000 	ldr	ip, [pc]	; 9c <val12>
      98:	ea000000 	b	a0 <next12>

0000009c <val12>:
      9c:	d8bd6239 	.word	0xd8bd6239

000000a0 <next12>:
      a0:	e59fe000 	ldr	lr, [pc]	; a8 <val14>
      a4:	ea000000 	b	ac <next14>

000000a8 <val14>:
      a8:	fa928174 	.word	0xfa928174

000000ac <next14>:
      ac:	e59f1000 	ldr	r1, [pc]	; b4 <val15>
      b0:	ea000000 	b	b8 <next15>

000000b4 <val15>:
      b4:	d142b01b 	.word	0xd142b01b

000000b8 <next15>:
      b8:	e58d1000 	str	r1, [sp]
      bc:	e59f1000 	ldr	r1, [pc]	; c4 <val16>
      c0:	ea000000 	b	c8 <next16>

000000c4 <val16>:
      c4:	55fa1278 	.word	0x55fa1278

000000c8 <next16>:
      c8:	e50d1004 	str	r1, [sp, #-4]
      cc:	e59f1000 	ldr	r1, [pc]	; d4 <val17>
      d0:	ea000000 	b	d8 <next17>

000000d4 <val17>:
      d4:	2dd57c4e 	.word	0x2dd57c4e

000000d8 <next17>:
      d8:	e50d1008 	str	r1, [sp, #-8]
      dc:	e59f1000 	ldr	r1, [pc]	; e4 <val18>
      e0:	ea000000 	b	e8 <next18>

000000e4 <val18>:
      e4:	7ee38376 	.word	0x7ee38376

000000e8 <next18>:
      e8:	e50d100c 	str	r1, [sp, #-12]
      ec:	e59f1000 	ldr	r1, [pc]	; f4 <val19>
      f0:	ea000000 	b	f8 <next19>

000000f4 <val19>:
      f4:	11fa2695 	.word	0x11fa2695

000000f8 <next19>:
      f8:	e50d1010 	str	r1, [sp, #-16]
      fc:	e59f1000 	ldr	r1, [pc]	; 104 <val20>
     100:	ea000000 	b	108 <next20>

00000104 <val20>:
     104:	4b31f6fb 	.word	0x4b31f6fb

00000108 <next20>:
     108:	e50d1014 	str	r1, [sp, #-20]
     10c:	e59f1000 	ldr	r1, [pc]	; 114 <val21>
     110:	ea000000 	b	118 <next21>

00000114 <val21>:
     114:	9caf8cf3 	.word	0x9caf8cf3

00000118 <next21>:
     118:	e50d1018 	str	r1, [sp, #-24]
     11c:	e59f1000 	ldr	r1, [pc]	; 124 <val22>
     120:	ea000000 	b	128 <next22>

00000124 <val22>:
     124:	24290714 	.word	0x24290714

00000128 <next22>:
     128:	e50d101c 	str	r1, [sp, #-28]
     12c:	e59f1000 	ldr	r1, [pc]	; 134 <val23>
     130:	ea000000 	b	138 <next23>

00000134 <val23>:
     134:	ec6115ed 	.word	0xec6115ed

00000138 <next23>:
     138:	e50d1020 	str	r1, [sp, #-32]
     13c:	e59f1000 	ldr	r1, [pc]	; 144 <val24>
     140:	ea000000 	b	148 <next24>

00000144 <val24>:
     144:	bf6fb264 	.word	0xbf6fb264

00000148 <next24>:
     148:	e50d1024 	str	r1, [sp, #-36]	; 0x24
     14c:	e59f1000 	ldr	r1, [pc]	; 154 <val25>
     150:	ea000000 	b	158 <next25>

00000154 <val25>:
     154:	b2b82e4c 	.word	0xb2b82e4c

00000158 <next25>:
     158:	e50d1028 	str	r1, [sp, #-40]	; 0x28
     15c:	e59f1000 	ldr	r1, [pc]	; 164 <val26>
     160:	ea000000 	b	168 <next26>

00000164 <val26>:
     164:	cc01d10f 	.word	0xcc01d10f

00000168 <next26>:
     168:	e50d102c 	str	r1, [sp, #-44]	; 0x2c
     16c:	e59f1000 	ldr	r1, [pc]	; 174 <val27>
     170:	ea000000 	b	178 <next27>

00000174 <val27>:
     174:	5f54b344 	.word	0x5f54b344

00000178 <next27>:
     178:	e50d1030 	str	r1, [sp, #-48]	; 0x30
     17c:	e59f1000 	ldr	r1, [pc]	; 184 <val28>
     180:	ea000000 	b	188 <next28>

00000184 <val28>:
     184:	ba993df9 	.word	0xba993df9

00000188 <next28>:
     188:	e50d1034 	str	r1, [sp, #-52]	; 0x34
     18c:	e59f1000 	ldr	r1, [pc]	; 194 <val29>
     190:	ea000000 	b	198 <next29>

00000194 <val29>:
     194:	71a8919e 	.word	0x71a8919e

00000198 <next29>:
     198:	e50d1038 	str	r1, [sp, #-56]	; 0x38
     19c:	e59f1000 	ldr	r1, [pc]	; 1a4 <val30>
     1a0:	ea000000 	b	1a8 <next30>

000001a4 <val30>:
     1a4:	0d70665b 	.word	0x0d70665b

000001a8 <next30>:
     1a8:	e50d103c 	str	r1, [sp, #-60]	; 0x3c
     1ac:	e59f1000 	ldr	r1, [pc]	; 1b4 <val31>
     1b0:	ea000000 	b	1b8 <next31>

000001b4 <val31>:
     1b4:	f2b379df 	.word	0xf2b379df

000001b8 <next31>:
     1b8:	e50d1040 	str	r1, [sp, #-64]	; 0x40
     1bc:	e59f1000 	ldr	r1, [pc]	; 1c4 <val32>
     1c0:	ea000000 	b	1c8 <next32>

000001c4 <val32>:
     1c4:	5932e365 	.word	0x5932e365

000001c8 <next32>:
     1c8:	e50d1044 	str	r1, [sp, #-68]	; 0x44
     1cc:	e59f1000 	ldr	r1, [pc]	; 1d4 <val33>
     1d0:	ea000000 	b	1d8 <next33>

000001d4 <val33>:
     1d4:	1ecd6e0b 	.word	0x1ecd6e0b

000001d8 <next33>:
     1d8:	e50d1048 	str	r1, [sp, #-72]	; 0x48
     1dc:	e59f1000 	ldr	r1, [pc]	; 1e4 <val34>
     1e0:	ea000000 	b	1e8 <next34>

000001e4 <val34>:
     1e4:	baa1bbde 	.word	0xbaa1bbde

000001e8 <next34>:
     1e8:	e50d104c 	str	r1, [sp, #-76]	; 0x4c
     1ec:	e59f1000 	ldr	r1, [pc]	; 1f4 <val35>
     1f0:	ea000000 	b	1f8 <next35>

000001f4 <val35>:
     1f4:	f0af7b46 	.word	0xf0af7b46

000001f8 <next35>:
     1f8:	e50d1050 	str	r1, [sp, #-80]	; 0x50

000001fc <l1>:
     1fc:	e93d5f7e 	ldmdb	sp!, {r1, r2, r3, r4, r5, r6, r8, r9, sl, fp, ip, lr}

00000200 <l2>:
     200:	e1a00000 	nop			; (mov r0, r0)

00000204 <l3>:
     204:	e93d443c 	ldmdb	sp!, {r2, r3, r4, r5, sl, lr}

00000208 <l4>:
     208:	e8ad0400 	stmia	sp!, {sl}

0000020c <l5>:
     20c:	e9ad522c 	stmib	sp!, {r2, r3, r5, r9, ip, lr}

00000210 <l6>:
     210:	e1a00000 	nop			; (mov r0, r0)

00000214 <l7>:
     214:	e8bd0410 	pop	{r4, sl}

00000218 <l8>:
     218:	991d5aa8 	ldmdbls	sp, {r3, r5, r7, r9, fp, ip, lr}

0000021c <l9>:
     21c:	389d1000 	ldmcc	sp, {ip}

00000220 <l10>:
     220:	e9ad0001 	stmib	sp!, {r0}

00000224 <l11>:
     224:	e9ad0002 	stmib	sp!, {r1}

00000228 <l12>:
     228:	e9ad2000 	stmib	sp!, {sp}

0000022c <l13>:
     22c:	e90d0080 	stmdb	sp, {r7}

00000230 <l14>:
     230:	089d0130 	ldmeq	sp, {r4, r5, r8}

00000234 <l15>:
     234:	e91d41b7 	ldmdb	sp, {r0, r1, r2, r4, r5, r7, r8, lr}

00000238 <l16>:
     238:	e1a00000 	nop			; (mov r0, r0)

0000023c <l17>:
     23c:	e83d17e5 	ldmda	sp!, {r0, r2, r5, r6, r7, r8, r9, sl, ip}

00000240 <l18>:
     240:	e9bd4fef 	ldmib	sp!, {r0, r1, r2, r3, r5, r6, r7, r8, r9, sl, fp, lr}

00000244 <l19>:
     244:	e93d4f8f 	ldmdb	sp!, {r0, r1, r2, r3, r7, r8, r9, sl, fp, lr}

00000248 <l20>:
     248:	e1a00000 	nop			; (mov r0, r0)

0000024c <l21>:
     24c:	e8ad2000 	stmia	sp!, {sp}

00000250 <l22>:
     250:	e1a00000 	nop			; (mov r0, r0)

00000254 <l23>:
     254:	789d1342 	ldmvc	sp, {r1, r6, r8, r9, ip}

00000258 <l24>:
     258:	e82d0881 	stmda	sp!, {r0, r7, fp}

0000025c <l25>:
     25c:	e8ada000 	stmia	sp!, {sp, pc}

00000260 <l26>:
     260:	290d8010 	stmdbcs	sp, {r4, pc}

00000264 <l27>:
     264:	e9bd1184 	ldmib	sp!, {r2, r7, r8, ip}

00000268 <l28>:
     268:	e93d0c05 	ldmdb	sp!, {r0, r2, sl, fp}

0000026c <l29>:
     26c:	e8bd410c 	pop	{r2, r3, r8, lr}

00000270 <l30>:
     270:	e9bd1833 	ldmib	sp!, {r0, r1, r4, r5, fp, ip}

00000274 <l31>:
     274:	e92de000 	push	{sp, lr, pc}

00000278 <l32>:
     278:	e1a00000 	nop			; (mov r0, r0)

0000027c <l33>:
     27c:	e92d4c05 	push	{r0, r2, sl, fp, lr}

00000280 <l34>:
     280:	e1a00000 	nop			; (mov r0, r0)

00000284 <l35>:
     284:	e9ada000 	stmib	sp!, {sp, pc}

00000288 <l36>:
     288:	e82d2000 	stmda	sp!, {sp}

0000028c <l37>:
     28c:	798d0230 	stmibvc	sp, {r4, r5, r9}

00000290 <l38>:
     290:	e9ada000 	stmib	sp!, {sp, pc}

00000294 <l39>:
     294:	e89d0572 	ldm	sp, {r1, r4, r5, r6, r8, sl}

00000298 <l40>:
     298:	e1a00000 	nop			; (mov r0, r0)

0000029c <l41>:
     29c:	e8bd440a 	pop	{r1, r3, sl, lr}

000002a0 <l42>:
     2a0:	a80df7f7 	stmdage	sp, {r0, r1, r2, r4, r5, r6, r7, r8, r9, sl, ip, sp, lr, pc}

000002a4 <l43>:
     2a4:	e8bd4000 	ldmfd	sp!, {lr}

000002a8 <l44>:
     2a8:	e1a00000 	nop			; (mov r0, r0)

000002ac <l45>:
     2ac:	e9bd0001 	ldmib	sp!, {r0}

000002b0 <l46>:
     2b0:	e1a00000 	nop			; (mov r0, r0)

000002b4 <l47>:
     2b4:	e1a00000 	nop			; (mov r0, r0)

000002b8 <l48>:
     2b8:	e82d0505 	stmda	sp!, {r0, r2, r8, sl}

000002bc <l49>:
     2bc:	e92dcfb7 	push	{r0, r1, r2, r4, r5, r7, r8, r9, sl, fp, lr, pc}

000002c0 <l50>:
     2c0:	e1a00000 	nop			; (mov r0, r0)

000002c4 <l51>:
     2c4:	e1a00000 	nop			; (mov r0, r0)

000002c8 <l52>:
     2c8:	e9ad0902 	stmib	sp!, {r1, r8, fp}

000002cc <l53>:
     2cc:	e1a00000 	nop			; (mov r0, r0)

000002d0 <l54>:
     2d0:	e1a00000 	nop			; (mov r0, r0)

000002d4 <l55>:
     2d4:	e92d0a80 	push	{r7, r9, fp}

000002d8 <l56>:
     2d8:	e1a00000 	nop			; (mov r0, r0)

000002dc <l57>:
     2dc:	e8bd5ffb 	pop	{r0, r1, r3, r4, r5, r6, r7, r8, r9, sl, fp, ip, lr}

000002e0 <l58>:
     2e0:	e93d548c 	ldmdb	sp!, {r2, r3, r7, sl, ip, lr}

000002e4 <l59>:
     2e4:	e83d594c 	ldmda	sp!, {r2, r3, r6, r8, fp, ip, lr}

000002e8 <l60>:
     2e8:	e1a00000 	nop			; (mov r0, r0)

000002ec <l61>:
     2ec:	e9bd5ff7 	ldmib	sp!, {r0, r1, r2, r4, r5, r6, r7, r8, r9, sl, fp, ip, lr}

000002f0 <l62>:
     2f0:	e1a00000 	nop			; (mov r0, r0)

000002f4 <l63>:
     2f4:	e1a00000 	nop			; (mov r0, r0)

000002f8 <l64>:
     2f8:	e93d5ffa 	ldmdb	sp!, {r1, r3, r4, r5, r6, r7, r8, r9, sl, fp, ip, lr}

000002fc <l65>:
     2fc:	e93d0010 	ldmdb	sp!, {r4}

00000300 <l66>:
     300:	e8ada000 	stmia	sp!, {sp, pc}

00000304 <l67>:
     304:	e9ad0408 	stmib	sp!, {r3, sl}

00000308 <l68>:
     308:	b90d0200 	stmdblt	sp, {r9}

0000030c <l69>:
     30c:	e9bd4eff 	ldmib	sp!, {r0, r1, r2, r3, r4, r5, r6, r7, r9, sl, fp, lr}

00000310 <l70>:
     310:	e82de000 	stmda	sp!, {sp, lr, pc}

00000314 <l71>:
     314:	e8bd0050 	pop	{r4, r6}

00000318 <l72>:
     318:	e83d0388 	ldmda	sp!, {r3, r7, r8, r9}

0000031c <l73>:
     31c:	e8bd1000 	ldmfd	sp!, {ip}

00000320 <l74>:
     320:	c89d5001 	ldmgt	sp, {r0, ip, lr}

00000324 <l75>:
     324:	591d1c42 	ldmdbpl	sp, {r1, r6, sl, fp, ip}

00000328 <l76>:
     328:	e82de000 	stmda	sp!, {sp, lr, pc}

0000032c <l77>:
     32c:	e92d832e 	push	{r1, r2, r3, r5, r8, r9, pc}

00000330 <l78>:
     330:	e8ad1483 	stmia	sp!, {r0, r1, r7, sl, ip}

00000334 <l79>:
     334:	e93d1406 	ldmdb	sp!, {r1, r2, sl, ip}

00000338 <l80>:
     338:	e92d2000 	stmfd	sp!, {sp}

0000033c <l81>:
     33c:	e8bd0042 	pop	{r1, r6}

00000340 <l82>:
     340:	e92d2000 	stmfd	sp!, {sp}

00000344 <l83>:
     344:	e9ad1502 	stmib	sp!, {r1, r8, sl, ip}

00000348 <l84>:
     348:	e8ad0624 	stmia	sp!, {r2, r5, r9, sl}

0000034c <l85>:
     34c:	e88d2620 	stm	sp, {r5, r9, sl, sp}

00000350 <l86>:
     350:	e1a00000 	nop			; (mov r0, r0)

00000354 <l87>:
     354:	e9ad4842 	stmib	sp!, {r1, r6, fp, lr}

00000358 <l88>:
     358:	e92dc110 	push	{r4, r8, lr, pc}

0000035c <l89>:
     35c:	e1a00000 	nop			; (mov r0, r0)

00000360 <l90>:
     360:	e80d0800 	stmda	sp, {fp}

00000364 <l91>:
     364:	e83d58fe 	ldmda	sp!, {r1, r2, r3, r4, r5, r6, r7, fp, ip, lr}

00000368 <l92>:
     368:	e1a00000 	nop			; (mov r0, r0)

0000036c <l93>:
     36c:	e1a00000 	nop			; (mov r0, r0)

00000370 <l94>:
     370:	e92d0800 	stmfd	sp!, {fp}

00000374 <l95>:
     374:	198df7ff 	stmibne	sp, {r0, r1, r2, r3, r4, r5, r6, r7, r8, r9, sl, ip, sp, lr, pc}

00000378 <l96>:
     378:	e1a00000 	nop			; (mov r0, r0)

0000037c <l97>:
     37c:	e1a00000 	nop			; (mov r0, r0)

00000380 <l98>:
     380:	e8bd5fbb 	pop	{r0, r1, r3, r4, r5, r7, r8, r9, sl, fp, ip, lr}

00000384 <l99>:
     384:	e9bd1420 	ldmib	sp!, {r5, sl, ip}

00000388 <l100>:
     388:	e83d5612 	ldmda	sp!, {r1, r4, r9, sl, ip, lr}

0000038c <l101>:
     38c:	e93d404e 	ldmdb	sp!, {r1, r2, r3, r6, lr}

00000390 <l102>:
     390:	598d9281 	stmibpl	sp, {r0, r7, r9, ip, pc}

00000394 <l103>:
     394:	e1a00000 	nop			; (mov r0, r0)

00000398 <l104>:
     398:	e1a00000 	nop			; (mov r0, r0)

0000039c <l105>:
     39c:	e8ad6000 	stmia	sp!, {sp, lr}

000003a0 <l106>:
     3a0:	388d0201 	stmcc	sp, {r0, r9}

000003a4 <l107>:
     3a4:	e92d2000 	stmfd	sp!, {sp}

000003a8 <l108>:
     3a8:	e8ad8098 	stmia	sp!, {r3, r4, r7, pc}

000003ac <l109>:
     3ac:	e92d2000 	stmfd	sp!, {sp}

000003b0 <l110>:
     3b0:	e93d5509 	ldmdb	sp!, {r0, r3, r8, sl, ip, lr}

000003b4 <l111>:
     3b4:	e9bd4d61 	ldmib	sp!, {r0, r5, r6, r8, sl, fp, lr}

000003b8 <l112>:
     3b8:	e93d496c 	ldmdb	sp!, {r2, r3, r5, r6, r8, fp, lr}

000003bc <l113>:
     3bc:	e8ad6000 	stmia	sp!, {sp, lr}

000003c0 <l114>:
     3c0:	e9ad0100 	stmib	sp!, {r8}

000003c4 <l115>:
     3c4:	e89d4f8f 	ldm	sp, {r0, r1, r2, r3, r7, r8, r9, sl, fp, lr}

000003c8 <l116>:
     3c8:	e81d1e10 	ldmda	sp, {r4, r9, sl, fp, ip}

000003cc <l117>:
     3cc:	e81d0018 	ldmda	sp, {r3, r4}

000003d0 <l118>:
     3d0:	e8ad0108 	stmia	sp!, {r3, r8}

000003d4 <l119>:
     3d4:	e8ad2000 	stmia	sp!, {sp}

000003d8 <l120>:
     3d8:	e1a00000 	nop			; (mov r0, r0)

000003dc <l121>:
     3dc:	e92d4400 	push	{sl, lr}

000003e0 <l122>:
     3e0:	e1a00000 	nop			; (mov r0, r0)

000003e4 <l123>:
     3e4:	e93d4000 	ldmdb	sp!, {lr}

000003e8 <l124>:
     3e8:	e8ad6000 	stmia	sp!, {sp, lr}

000003ec <l125>:
     3ec:	e1a00000 	nop			; (mov r0, r0)

000003f0 <l126>:
     3f0:	198d1b12 	stmibne	sp, {r1, r4, r8, r9, fp, ip}

000003f4 <l127>:
     3f4:	a91d0008 	ldmdbge	sp, {r3}

000003f8 <l128>:
     3f8:	e8ad9000 	stmia	sp!, {ip, pc}

000003fc <l129>:
     3fc:	e80d30f2 	stmda	sp, {r1, r4, r5, r6, r7, ip, sp}

00000400 <l130>:
     400:	e90d1c83 	stmdb	sp, {r0, r1, r7, sl, fp, ip}

00000404 <l131>:
     404:	e83d006c 	ldmda	sp!, {r2, r3, r5, r6}

00000408 <l132>:
     408:	e1a00000 	nop			; (mov r0, r0)

0000040c <l133>:
     40c:	e80d00c2 	stmda	sp, {r1, r6, r7}

00000410 <l134>:
     410:	e88d06a2 	stm	sp, {r1, r5, r7, r9, sl}

00000414 <l135>:
     414:	e82d8831 	stmda	sp!, {r0, r4, r5, fp, pc}

00000418 <l136>:
     418:	e1a00000 	nop			; (mov r0, r0)

0000041c <l137>:
     41c:	e1a00000 	nop			; (mov r0, r0)

00000420 <l138>:
     420:	e8bd5fef 	pop	{r0, r1, r2, r3, r5, r6, r7, r8, r9, sl, fp, ip, lr}

00000424 <l139>:
     424:	e92de000 	push	{sp, lr, pc}

00000428 <l140>:
     428:	e8bd01aa 	pop	{r1, r3, r5, r7, r8}

0000042c <l141>:
     42c:	e80d0100 	stmda	sp, {r8}

00000430 <l142>:
     430:	e1a00000 	nop			; (mov r0, r0)

00000434 <l143>:
     434:	e8ad0800 	stmia	sp!, {fp}

00000438 <l144>:
     438:	e1a00000 	nop			; (mov r0, r0)

0000043c <l145>:
     43c:	e93d0220 	ldmdb	sp!, {r5, r9}

00000440 <l146>:
     440:	e92da000 	push	{sp, pc}

00000444 <l147>:
     444:	e88d3001 	stm	sp, {r0, ip, sp}

00000448 <l148>:
     448:	e90df517 	stmdb	sp, {r0, r1, r2, r4, r8, sl, ip, sp, lr, pc}

0000044c <l149>:
     44c:	e9ad0050 	stmib	sp!, {r4, r6}

00000450 <l150>:
     450:	e8bd1000 	ldmfd	sp!, {ip}

00000454 <l151>:
     454:	e81d1fff 	ldmda	sp, {r0, r1, r2, r3, r4, r5, r6, r7, r8, r9, sl, fp, ip}

00000458 <l152>:
     458:	e83d4000 	ldmda	sp!, {lr}

0000045c <l153>:
     45c:	e1a00000 	nop			; (mov r0, r0)

00000460 <l154>:
     460:	e1a00000 	nop			; (mov r0, r0)

00000464 <l155>:
     464:	e1a00000 	nop			; (mov r0, r0)

00000468 <l156>:
     468:	e1a00000 	nop			; (mov r0, r0)

0000046c <l157>:
     46c:	e80d6002 	stmda	sp, {r1, sp, lr}

00000470 <l158>:
     470:	e8ad0400 	stmia	sp!, {sl}

00000474 <l159>:
     474:	e9bd0002 	ldmib	sp!, {r1}

00000478 <l160>:
     478:	e93d0041 	ldmdb	sp!, {r0, r6}

0000047c <l161>:
     47c:	990d0101 	stmdbls	sp, {r0, r8}

00000480 <l162>:
     480:	e9ad0060 	stmib	sp!, {r5, r6}

00000484 <l163>:
     484:	e83d5dab 	ldmda	sp!, {r0, r1, r3, r5, r7, r8, sl, fp, ip, lr}

00000488 <l164>:
     488:	589d0577 	ldmpl	sp, {r0, r1, r2, r4, r5, r6, r8, sl}

0000048c <l165>:
     48c:	e1a00000 	nop			; (mov r0, r0)

00000490 <l166>:
     490:	e8ade000 	stmia	sp!, {sp, lr, pc}

00000494 <l167>:
     494:	e93d4f6c 	ldmdb	sp!, {r2, r3, r5, r6, r8, r9, sl, fp, lr}

00000498 <l168>:
     498:	e9bd5965 	ldmib	sp!, {r0, r2, r5, r6, r8, fp, ip, lr}

0000049c <l169>:
     49c:	091d0e12 	ldmdbeq	sp, {r1, r4, r9, sl, fp}

000004a0 <l170>:
     4a0:	e9ade000 	stmib	sp!, {sp, lr, pc}

000004a4 <l171>:
     4a4:	e9ad8018 	stmib	sp!, {r3, r4, pc}

000004a8 <l172>:
     4a8:	e92d8101 	push	{r0, r8, pc}

000004ac <l173>:
     4ac:	e9ad0008 	stmib	sp!, {r3}

000004b0 <l174>:
     4b0:	e1a00000 	nop			; (mov r0, r0)

000004b4 <l175>:
     4b4:	899d001c 	ldmibhi	sp, {r2, r3, r4}

000004b8 <l176>:
     4b8:	e9bd4021 	ldmib	sp!, {r0, r5, lr}

000004bc <l177>:
     4bc:	e82d0101 	stmda	sp!, {r0, r8}

000004c0 <l178>:
     4c0:	e1a00000 	nop			; (mov r0, r0)

000004c4 <l179>:
     4c4:	e93d07a9 	ldmdb	sp!, {r0, r3, r5, r7, r8, r9, sl}

000004c8 <l180>:
     4c8:	e89d19cd 	ldm	sp, {r0, r2, r3, r6, r7, r8, fp, ip}

000004cc <l181>:
     4cc:	081d0010 	ldmdaeq	sp, {r4}

000004d0 <l182>:
     4d0:	e9bd4648 	ldmib	sp!, {r3, r6, r9, sl, lr}

000004d4 <l183>:
     4d4:	e8bd48a0 	pop	{r5, r7, fp, lr}

000004d8 <l184>:
     4d8:	e9bd0002 	ldmib	sp!, {r1}

000004dc <l185>:
     4dc:	e1a00000 	nop			; (mov r0, r0)

000004e0 <l186>:
     4e0:	e1a00000 	nop			; (mov r0, r0)

000004e4 <l187>:
     4e4:	e92d1792 	push	{r1, r4, r7, r8, r9, sl, ip}

000004e8 <l188>:
     4e8:	e8ad1440 	stmia	sp!, {r6, sl, ip}

000004ec <l189>:
     4ec:	e1a00000 	nop			; (mov r0, r0)

000004f0 <l190>:
     4f0:	e8ad0200 	stmia	sp!, {r9}

000004f4 <l191>:
     4f4:	d88d0c00 	stmle	sp, {sl, fp}

000004f8 <l192>:
     4f8:	e1a00000 	nop			; (mov r0, r0)

000004fc <l193>:
     4fc:	e92d020a 	push	{r1, r3, r9}

00000500 <l194>:
     500:	189d0001 	ldmne	sp, {r0}

00000504 <l195>:
     504:	788d8002 	stmvc	sp, {r1, pc}

00000508 <l196>:
     508:	e80de831 	stmda	sp, {r0, r4, r5, fp, sp, lr, pc}

0000050c <l197>:
     50c:	e1a00000 	nop			; (mov r0, r0)

00000510 <l198>:
     510:	289d0c0a 	ldmcs	sp, {r1, r3, sl, fp}

00000514 <l199>:
     514:	e93d04ff 	ldmdb	sp!, {r0, r1, r2, r3, r4, r5, r6, r7, sl}

00000518 <l200>:
     518:	e8bd1880 	pop	{r7, fp, ip}

0000051c <l201>:
     51c:	e8bd1058 	pop	{r3, r4, r6, ip}

00000520 <l202>:
     520:	e8bd180c 	pop	{r2, r3, fp, ip}

00000524 <l203>:
     524:	e9bd0203 	ldmib	sp!, {r0, r1, r9}

00000528 <l204>:
     528:	e93d1708 	ldmdb	sp!, {r3, r8, r9, sl, ip}

0000052c <l205>:
     52c:	e9bd0822 	ldmib	sp!, {r1, r5, fp}

00000530 <l206>:
     530:	e9ad0120 	stmib	sp!, {r5, r8}

00000534 <l207>:
     534:	e83d1771 	ldmda	sp!, {r0, r4, r5, r6, r8, r9, sl, ip}

00000538 <l208>:
     538:	989d4f96 	ldmls	sp, {r1, r2, r4, r7, r8, r9, sl, fp, lr}

0000053c <l209>:
     53c:	e9ad0002 	stmib	sp!, {r1}

00000540 <l210>:
     540:	e9bd416a 	ldmib	sp!, {r1, r3, r5, r6, r8, lr}

00000544 <l211>:
     544:	e8ad0180 	stmia	sp!, {r7, r8}

00000548 <l212>:
     548:	e1a00000 	nop			; (mov r0, r0)

0000054c <l213>:
     54c:	e1a00000 	nop			; (mov r0, r0)

00000550 <l214>:
     550:	e1a00000 	nop			; (mov r0, r0)

00000554 <l215>:
     554:	e1a00000 	nop			; (mov r0, r0)

00000558 <l216>:
     558:	e1a00000 	nop			; (mov r0, r0)

0000055c <l217>:
     55c:	881d1ad1 	ldmdahi	sp, {r0, r4, r6, r7, r9, fp, ip}

00000560 <l218>:
     560:	e1a00000 	nop			; (mov r0, r0)

00000564 <l219>:
     564:	e1a00000 	nop			; (mov r0, r0)

00000568 <l220>:
     568:	e83d52a7 	ldmda	sp!, {r0, r1, r2, r5, r7, r9, ip, lr}

0000056c <l221>:
     56c:	e83d0c02 	ldmda	sp!, {r1, sl, fp}

00000570 <l222>:
     570:	689d4408 	ldmvs	sp, {r3, sl, lr}

00000574 <l223>:
     574:	e9bd578f 	ldmib	sp!, {r0, r1, r2, r3, r7, r8, r9, sl, ip, lr}

00000578 <l224>:
     578:	e92d2000 	stmfd	sp!, {sp}

0000057c <l225>:
     57c:	e82ddc9d 	stmda	sp!, {r0, r2, r3, r4, r7, sl, fp, ip, lr, pc}

00000580 <l226>:
     580:	e92d0c00 	push	{sl, fp}

00000584 <l227>:
     584:	e9bd0440 	ldmib	sp!, {r6, sl}

00000588 <l228>:
     588:	e8add932 	stmia	sp!, {r1, r4, r5, r8, fp, ip, lr, pc}

0000058c <l229>:
     58c:	e98d0030 	stmib	sp, {r4, r5}

00000590 <l230>:
     590:	080dafe3 	stmdaeq	sp, {r0, r1, r5, r6, r7, r8, r9, sl, fp, sp, pc}

00000594 <l231>:
     594:	689d00c8 	ldmvs	sp, {r3, r6, r7}

00000598 <l232>:
     598:	e93d0940 	ldmdb	sp!, {r6, r8, fp}

0000059c <l233>:
     59c:	799d032a 	ldmibvc	sp, {r1, r3, r5, r8, r9}

000005a0 <l234>:
     5a0:	e1a00000 	nop			; (mov r0, r0)

000005a4 <l235>:
     5a4:	290d901e 	stmdbcs	sp, {r1, r2, r3, r4, ip, pc}

000005a8 <l236>:
     5a8:	e81d0440 	ldmda	sp, {r6, sl}

000005ac <l237>:
     5ac:	a89d0008 	ldmge	sp, {r3}

000005b0 <l238>:
     5b0:	e9ad4105 	stmib	sp!, {r0, r2, r8, lr}

000005b4 <l239>:
     5b4:	e83d5ffd 	ldmda	sp!, {r0, r2, r3, r4, r5, r6, r7, r8, r9, sl, fp, ip, lr}

000005b8 <l240>:
     5b8:	c99d528a 	ldmibgt	sp, {r1, r3, r7, r9, ip, lr}

000005bc <l241>:
     5bc:	e1a00000 	nop			; (mov r0, r0)

000005c0 <l242>:
     5c0:	e9ade000 	stmib	sp!, {sp, lr, pc}

000005c4 <l243>:
     5c4:	e8bd0521 	pop	{r0, r5, r8, sl}

000005c8 <l244>:
     5c8:	e8bd1da4 	pop	{r2, r5, r7, r8, sl, fp, ip}

000005cc <l245>:
     5cc:	e9ad4000 	stmib	sp!, {lr}

000005d0 <l246>:
     5d0:	981d1bff 	ldmdals	sp, {r0, r1, r2, r3, r4, r5, r6, r7, r8, r9, fp, ip}

000005d4 <l247>:
     5d4:	e82d1200 	stmda	sp!, {r9, ip}

000005d8 <l248>:
     5d8:	e9ad2000 	stmib	sp!, {sp}

000005dc <l249>:
     5dc:	d89d0088 	ldmle	sp, {r3, r7}

000005e0 <l250>:
     5e0:	e93d5f6e 	ldmdb	sp!, {r1, r2, r3, r5, r6, r8, r9, sl, fp, ip, lr}

000005e4 <l251>:
     5e4:	e9ad0140 	stmib	sp!, {r6, r8}

000005e8 <l252>:
     5e8:	e1a00000 	nop			; (mov r0, r0)

000005ec <l253>:
     5ec:	e82d1880 	stmda	sp!, {r7, fp, ip}

000005f0 <l254>:
     5f0:	391d0100 	ldmdbcc	sp, {r8}

000005f4 <l255>:
     5f4:	e9bd5fdf 	ldmib	sp!, {r0, r1, r2, r3, r4, r6, r7, r8, r9, sl, fp, ip, lr}

000005f8 <l256>:
     5f8:	e92d2000 	stmfd	sp!, {sp}

000005fc <l257>:
     5fc:	e1a00000 	nop			; (mov r0, r0)

00000600 <l258>:
     600:	e82d12e5 	stmda	sp!, {r0, r2, r5, r6, r7, r9, ip}

00000604 <l259>:
     604:	c99d00fb 	ldmibgt	sp, {r0, r1, r3, r4, r5, r6, r7}

00000608 <l260>:
     608:	e82d2000 	stmda	sp!, {sp}

0000060c <l261>:
     60c:	e9bd157d 	ldmib	sp!, {r0, r2, r3, r4, r5, r6, r8, sl, ip}

00000610 <l262>:
     610:	e9bd0020 	ldmib	sp!, {r5}

00000614 <l263>:
     614:	e82d5202 	stmda	sp!, {r1, r9, ip, lr}

00000618 <l264>:
     618:	e9adc004 	stmib	sp!, {r2, lr, pc}

0000061c <l265>:
     61c:	e82de000 	stmda	sp!, {sp, lr, pc}

00000620 <l266>:
     620:	e92d437f 	push	{r0, r1, r2, r3, r4, r5, r6, r8, r9, lr}

00000624 <l267>:
     624:	e8bd5356 	pop	{r1, r2, r4, r6, r8, r9, ip, lr}

00000628 <l268>:
     628:	589d0020 	ldmpl	sp, {r5}

0000062c <l269>:
     62c:	e8ad0c00 	stmia	sp!, {sl, fp}

00000630 <l270>:
     630:	680d0180 	stmdavs	sp, {r7, r8}

00000634 <l271>:
     634:	e8ad0081 	stmia	sp!, {r0, r7}

00000638 <l272>:
     638:	e1a00000 	nop			; (mov r0, r0)

0000063c <l273>:
     63c:	e9bd0040 	ldmib	sp!, {r6}

00000640 <l274>:
     640:	e1a00000 	nop			; (mov r0, r0)

00000644 <l275>:
     644:	e9bd4000 	ldmib	sp!, {lr}

00000648 <l276>:
     648:	e1a00000 	nop			; (mov r0, r0)

0000064c <l277>:
     64c:	e1a00000 	nop			; (mov r0, r0)

00000650 <l278>:
     650:	e83d0813 	ldmda	sp!, {r0, r1, r4, fp}

00000654 <l279>:
     654:	e83d0020 	ldmda	sp!, {r5}

00000658 <l280>:
     658:	a99d12c0 	ldmibge	sp, {r6, r7, r9, ip}

0000065c <l281>:
     65c:	e8bd124a 	pop	{r1, r3, r6, r9, ip}

00000660 <l282>:
     660:	e1a00000 	nop			; (mov r0, r0)

00000664 <l283>:
     664:	e1a00000 	nop			; (mov r0, r0)

00000668 <l284>:
     668:	e82d9fa9 	stmda	sp!, {r0, r3, r5, r7, r8, r9, sl, fp, ip, pc}

0000066c <l285>:
     66c:	e9ad6000 	stmib	sp!, {sp, lr}

00000670 <l286>:
     670:	e99d0078 	ldmib	sp, {r3, r4, r5, r6}

00000674 <l287>:
     674:	e8ad0020 	stmia	sp!, {r5}

00000678 <l288>:
     678:	e1a00000 	nop			; (mov r0, r0)

0000067c <l289>:
     67c:	e9bd03d2 	ldmib	sp!, {r1, r4, r6, r7, r8, r9}

00000680 <l290>:
     680:	e82d1e6c 	stmda	sp!, {r2, r3, r5, r6, r9, sl, fp, ip}

00000684 <l291>:
     684:	e92de000 	push	{sp, lr, pc}

00000688 <l292>:
     688:	e93d0420 	ldmdb	sp!, {r5, sl}

0000068c <l293>:
     68c:	e1a00000 	nop			; (mov r0, r0)

00000690 <l294>:
     690:	e1a00000 	nop			; (mov r0, r0)

00000694 <l295>:
     694:	e99d5fdc 	ldmib	sp, {r2, r3, r4, r6, r7, r8, r9, sl, fp, ip, lr}

00000698 <l296>:
     698:	e82d8000 	stmda	sp!, {pc}

0000069c <l297>:
     69c:	e1a00000 	nop			; (mov r0, r0)

000006a0 <l298>:
     6a0:	e1a00000 	nop			; (mov r0, r0)

000006a4 <l299>:
     6a4:	891d0002 	ldmdbhi	sp, {r1}

000006a8 <l300>:
     6a8:	e9ade000 	stmib	sp!, {sp, lr, pc}

000006ac <l301>:
     6ac:	e9ad0816 	stmib	sp!, {r1, r2, r4, fp}

000006b0 <l302>:
     6b0:	e98d0098 	stmib	sp, {r3, r4, r7}

000006b4 <l303>:
     6b4:	e92dc138 	push	{r3, r4, r5, r8, lr, pc}

000006b8 <l304>:
     6b8:	e9bd5ffb 	ldmib	sp!, {r0, r1, r3, r4, r5, r6, r7, r8, r9, sl, fp, ip, lr}

000006bc <l305>:
     6bc:	e83d1128 	ldmda	sp!, {r3, r5, r8, ip}

000006c0 <l306>:
     6c0:	e90d5db7 	stmdb	sp, {r0, r1, r2, r4, r5, r7, r8, sl, fp, ip, lr}

000006c4 <l307>:
     6c4:	e83d1c9b 	ldmda	sp!, {r0, r1, r3, r4, r7, sl, fp, ip}

000006c8 <l308>:
     6c8:	d98d4209 	stmible	sp, {r0, r3, r9, lr}

000006cc <l309>:
     6cc:	489d0e01 	ldmmi	sp, {r0, r9, sl, fp}

000006d0 <l310>:
     6d0:	388d1000 	stmcc	sp, {ip}

000006d4 <l311>:
     6d4:	a91d0030 	ldmdbge	sp, {r4, r5}

000006d8 <l312>:
     6d8:	480d08a0 	stmdami	sp, {r5, r7, fp}

000006dc <l313>:
     6dc:	e9ad8096 	stmib	sp!, {r1, r2, r4, r7, pc}

000006e0 <l314>:
     6e0:	e92d1000 	stmfd	sp!, {ip}

000006e4 <l315>:
     6e4:	e92d2000 	stmfd	sp!, {sp}

000006e8 <l316>:
     6e8:	e92d0e01 	push	{r0, r9, sl, fp}

000006ec <l317>:
     6ec:	e93d1000 	ldmdb	sp!, {ip}

000006f0 <l318>:
     6f0:	e92d0001 	stmfd	sp!, {r0}

000006f4 <l319>:
     6f4:	e1a00000 	nop			; (mov r0, r0)

000006f8 <l320>:
     6f8:	e1a00000 	nop			; (mov r0, r0)

000006fc <l321>:
     6fc:	e1a00000 	nop			; (mov r0, r0)

00000700 <l322>:
     700:	e1a00000 	nop			; (mov r0, r0)

00000704 <l323>:
     704:	e1a00000 	nop			; (mov r0, r0)

00000708 <l324>:
     708:	e9ad14d3 	stmib	sp!, {r0, r1, r4, r6, r7, sl, ip}

0000070c <l325>:
     70c:	e9bd0a22 	ldmib	sp!, {r1, r5, r9, fp}

00000710 <l326>:
     710:	e8bd0012 	pop	{r1, r4}

00000714 <l327>:
     714:	e8ad8010 	stmia	sp!, {r4, pc}

00000718 <l328>:
     718:	e90d2402 	stmdb	sp, {r1, sl, sp}

0000071c <l329>:
     71c:	088d0080 	stmeq	sp, {r7}

00000720 <l330>:
     720:	e92dd1c8 	push	{r3, r6, r7, r8, ip, lr, pc}

00000724 <l331>:
     724:	e9bd0200 	ldmib	sp!, {r9}

00000728 <l332>:
     728:	e1a00000 	nop			; (mov r0, r0)

0000072c <l333>:
     72c:	e93d5486 	ldmdb	sp!, {r1, r2, r7, sl, ip, lr}

00000730 <l334>:
     730:	e8bd5dfa 	pop	{r1, r3, r4, r5, r6, r7, r8, sl, fp, ip, lr}

00000734 <l335>:
     734:	e82d0686 	stmda	sp!, {r1, r2, r7, r9, sl}

00000738 <l336>:
     738:	981d521c 	ldmdals	sp, {r2, r3, r4, r9, ip, lr}

0000073c <l337>:
     73c:	e81d197c 	ldmda	sp, {r2, r3, r4, r5, r6, r8, fp, ip}

00000740 <l338>:
     740:	390d95c6 	stmdbcc	sp, {r1, r2, r6, r7, r8, sl, ip, pc}

00000744 <l339>:
     744:	e93d049d 	ldmdb	sp!, {r0, r2, r3, r4, r7, sl}

00000748 <l340>:
     748:	999d4fdd 	ldmibls	sp, {r0, r2, r3, r4, r6, r7, r8, r9, sl, fp, lr}

0000074c <l341>:
     74c:	e8ad1fff 	stmia	sp!, {r0, r1, r2, r3, r4, r5, r6, r7, r8, r9, sl, fp, ip}

00000750 <l342>:
     750:	e1a00000 	nop			; (mov r0, r0)

00000754 <l343>:
     754:	e1a00000 	nop			; (mov r0, r0)

00000758 <l344>:
     758:	e1a00000 	nop			; (mov r0, r0)

0000075c <l345>:
     75c:	880df66d 	stmdahi	sp, {r0, r2, r3, r5, r6, r9, sl, ip, sp, lr, pc}

00000760 <l346>:
     760:	e1a00000 	nop			; (mov r0, r0)

00000764 <l347>:
     764:	e82de000 	stmda	sp!, {sp, lr, pc}

00000768 <l348>:
     768:	e92d10c2 	push	{r1, r6, r7, ip}

0000076c <l349>:
     76c:	e9ad2000 	stmib	sp!, {sp}

00000770 <l350>:
     770:	e83d4b98 	ldmda	sp!, {r3, r4, r7, r8, r9, fp, lr}

00000774 <l351>:
     774:	e9ad0105 	stmib	sp!, {r0, r2, r8}

00000778 <l352>:
     778:	e1a00000 	nop			; (mov r0, r0)

0000077c <l353>:
     77c:	e9bd4050 	ldmib	sp!, {r4, r6, lr}

00000780 <l354>:
     780:	e83d0400 	ldmda	sp!, {sl}

00000784 <l355>:
     784:	e93d0926 	ldmdb	sp!, {r1, r2, r5, r8, fp}

00000788 <l356>:
     788:	290d0001 	stmdbcs	sp, {r0}

0000078c <l357>:
     78c:	489d5dfe 	ldmmi	sp, {r1, r2, r3, r4, r5, r6, r7, r8, sl, fp, ip, lr}

00000790 <l358>:
     790:	e1a00000 	nop			; (mov r0, r0)

00000794 <l359>:
     794:	e8adcf7b 	stmia	sp!, {r0, r1, r3, r4, r5, r6, r8, r9, sl, fp, lr, pc}

00000798 <l360>:
     798:	189d0080 	ldmne	sp, {r7}

0000079c <l361>:
     79c:	e9ad0008 	stmib	sp!, {r3}

000007a0 <l362>:
     7a0:	e1a00000 	nop			; (mov r0, r0)

000007a4 <l363>:
     7a4:	e92d6000 	push	{sp, lr}

000007a8 <l364>:
     7a8:	e82de000 	stmda	sp!, {sp, lr, pc}

000007ac <l365>:
     7ac:	e92dc226 	push	{r1, r2, r5, r9, lr, pc}

000007b0 <l366>:
     7b0:	e8ade000 	stmia	sp!, {sp, lr, pc}

000007b4 <l367>:
     7b4:	e8bd0090 	pop	{r4, r7}

000007b8 <l368>:
     7b8:	e8bd1c80 	pop	{r7, sl, fp, ip}

000007bc <l369>:
     7bc:	e82d1002 	stmda	sp!, {r1, ip}

000007c0 <l370>:
     7c0:	e93d4efe 	ldmdb	sp!, {r1, r2, r3, r4, r5, r6, r7, r9, sl, fp, lr}

000007c4 <l371>:
     7c4:	e89d1b57 	ldm	sp, {r0, r1, r2, r4, r6, r8, r9, fp, ip}

000007c8 <l372>:
     7c8:	e93d0100 	ldmdb	sp!, {r8}

000007cc <l373>:
     7cc:	e1a00000 	nop			; (mov r0, r0)

000007d0 <l374>:
     7d0:	589d5fd9 	ldmpl	sp, {r0, r3, r4, r6, r7, r8, r9, sl, fp, ip, lr}

000007d4 <l375>:
     7d4:	e1a00000 	nop			; (mov r0, r0)

000007d8 <l376>:
     7d8:	e1a00000 	nop			; (mov r0, r0)

000007dc <l377>:
     7dc:	e9bd5f3b 	ldmib	sp!, {r0, r1, r3, r4, r5, r8, r9, sl, fp, ip, lr}

000007e0 <l378>:
     7e0:	e92d0800 	stmfd	sp!, {fp}

000007e4 <l379>:
     7e4:	e8ad2000 	stmia	sp!, {sp}

000007e8 <l380>:
     7e8:	e8bd0e02 	pop	{r1, r9, sl, fp}

000007ec <l381>:
     7ec:	e93d1676 	ldmdb	sp!, {r1, r2, r4, r5, r6, r9, sl, ip}

000007f0 <l382>:
     7f0:	e88d0600 	stm	sp, {r9, sl}

000007f4 <l383>:
     7f4:	e9ad0ec2 	stmib	sp!, {r1, r6, r7, r9, sl, fp}

000007f8 <l384>:
     7f8:	e92de000 	push	{sp, lr, pc}

000007fc <l385>:
     7fc:	e1a00000 	nop			; (mov r0, r0)

00000800 <l386>:
     800:	e9bd1508 	ldmib	sp!, {r3, r8, sl, ip}

00000804 <l387>:
     804:	e9bd0014 	ldmib	sp!, {r2, r4}

00000808 <l388>:
     808:	e1a00000 	nop			; (mov r0, r0)

0000080c <l389>:
     80c:	e1a00000 	nop			; (mov r0, r0)

00000810 <l390>:
     810:	e93d0042 	ldmdb	sp!, {r1, r6}

00000814 <l391>:
     814:	e9ad0002 	stmib	sp!, {r1}

00000818 <l392>:
     818:	e90defbe 	stmdb	sp, {r1, r2, r3, r4, r5, r7, r8, r9, sl, fp, sp, lr, pc}

0000081c <l393>:
     81c:	e83d0024 	ldmda	sp!, {r2, r5}

00000820 <l394>:
     820:	e8ad0032 	stmia	sp!, {r1, r4, r5}

00000824 <l395>:
     824:	e83d5987 	ldmda	sp!, {r0, r1, r2, r7, r8, fp, ip, lr}

00000828 <l396>:
     828:	e9ad5260 	stmib	sp!, {r5, r6, r9, ip, lr}

0000082c <l397>:
     82c:	e92d6000 	push	{sp, lr}

00000830 <l398>:
     830:	e1a00000 	nop			; (mov r0, r0)

00000834 <l399>:
     834:	e82dcc99 	stmda	sp!, {r0, r3, r4, r7, sl, fp, lr, pc}

00000838 <l400>:
     838:	e1a00000 	nop			; (mov r0, r0)

0000083c <l401>:
     83c:	e92d1000 	stmfd	sp!, {ip}

00000840 <l402>:
     840:	e8ad4881 	stmia	sp!, {r0, r7, fp, lr}

00000844 <l403>:
     844:	388d759d 	stmcc	sp, {r0, r2, r3, r4, r7, r8, sl, ip, sp, lr}

00000848 <l404>:
     848:	e92d0089 	push	{r0, r3, r7}

0000084c <l405>:
     84c:	e80d0200 	stmda	sp, {r9}

00000850 <l406>:
     850:	e82d0081 	stmda	sp!, {r0, r7}

00000854 <l407>:
     854:	e1a00000 	nop			; (mov r0, r0)

00000858 <l408>:
     858:	e1a00000 	nop			; (mov r0, r0)

0000085c <l409>:
     85c:	e1a00000 	nop			; (mov r0, r0)

00000860 <l410>:
     860:	e1a00000 	nop			; (mov r0, r0)

00000864 <l411>:
     864:	e99d0800 	ldmib	sp, {fp}

00000868 <l412>:
     868:	e83d4000 	ldmda	sp!, {lr}

0000086c <l413>:
     86c:	e9bd0800 	ldmib	sp!, {fp}

00000870 <l414>:
     870:	e9ad2000 	stmib	sp!, {sp}

00000874 <l415>:
     874:	e9bd0c29 	ldmib	sp!, {r0, r3, r5, sl, fp}

00000878 <l416>:
     878:	e1a00000 	nop			; (mov r0, r0)

0000087c <l417>:
     87c:	e8ad4357 	stmia	sp!, {r0, r1, r2, r4, r6, r8, r9, lr}

00000880 <l418>:
     880:	e1a00000 	nop			; (mov r0, r0)

00000884 <l419>:
     884:	e82de000 	stmda	sp!, {sp, lr, pc}

00000888 <l420>:
     888:	698d0800 	stmibvs	sp, {fp}

0000088c <l421>:
     88c:	e9ad0100 	stmib	sp!, {r8}

00000890 <l422>:
     890:	e93d486b 	ldmdb	sp!, {r0, r1, r3, r5, r6, fp, lr}

00000894 <l423>:
     894:	e1a00000 	nop			; (mov r0, r0)

00000898 <l424>:
     898:	e1a00000 	nop			; (mov r0, r0)

0000089c <l425>:
     89c:	e89d0258 	ldm	sp, {r3, r4, r6, r9}

000008a0 <l426>:
     8a0:	e9ade000 	stmib	sp!, {sp, lr, pc}

000008a4 <l427>:
     8a4:	e8ad2000 	stmia	sp!, {sp}

000008a8 <l428>:
     8a8:	e1a00000 	nop			; (mov r0, r0)

000008ac <l429>:
     8ac:	598d8000 	stmibpl	sp, {pc}

000008b0 <l430>:
     8b0:	e83d079c 	ldmda	sp!, {r2, r3, r4, r7, r8, r9, sl}

000008b4 <l431>:
     8b4:	e1a00000 	nop			; (mov r0, r0)

000008b8 <l432>:
     8b8:	e82d0008 	stmda	sp!, {r3}

000008bc <l433>:
     8bc:	e1a00000 	nop			; (mov r0, r0)

000008c0 <l434>:
     8c0:	e8bd4280 	pop	{r7, r9, lr}

000008c4 <l435>:
     8c4:	e1a00000 	nop			; (mov r0, r0)

000008c8 <l436>:
     8c8:	e98d8800 	stmib	sp, {fp, pc}

000008cc <l437>:
     8cc:	e83d1121 	ldmda	sp!, {r0, r5, r8, ip}

000008d0 <l438>:
     8d0:	e91d0800 	ldmdb	sp, {fp}

000008d4 <l439>:
     8d4:	e98d1000 	stmib	sp, {ip}

000008d8 <l440>:
     8d8:	e9bd0223 	ldmib	sp!, {r0, r1, r5, r9}

000008dc <l441>:
     8dc:	e9bd0052 	ldmib	sp!, {r1, r4, r6}

000008e0 <l442>:
     8e0:	e8bd0a24 	pop	{r2, r5, r9, fp}

000008e4 <l443>:
     8e4:	e93d4dae 	ldmdb	sp!, {r1, r2, r3, r5, r7, r8, sl, fp, lr}

000008e8 <l444>:
     8e8:	e8bd4f7f 	pop	{r0, r1, r2, r3, r4, r5, r6, r8, r9, sl, fp, lr}

000008ec <l445>:
     8ec:	e1a00000 	nop			; (mov r0, r0)

000008f0 <l446>:
     8f0:	e1a00000 	nop			; (mov r0, r0)

000008f4 <l447>:
     8f4:	e1a00000 	nop			; (mov r0, r0)

000008f8 <l448>:
     8f8:	e93d1000 	ldmdb	sp!, {ip}

000008fc <l449>:
     8fc:	e9bd0001 	ldmib	sp!, {r0}

00000900 <l450>:
     900:	e1a00000 	nop			; (mov r0, r0)

00000904 <l451>:
     904:	e8bd0008 	ldmfd	sp!, {r3}

00000908 <l452>:
     908:	e1a00000 	nop			; (mov r0, r0)

0000090c <l453>:
     90c:	e1a00000 	nop			; (mov r0, r0)

00000910 <l454>:
     910:	e83d5c3e 	ldmda	sp!, {r1, r2, r3, r4, r5, sl, fp, ip, lr}

00000914 <l455>:
     914:	e98d8a44 	stmib	sp, {r2, r6, r9, fp, pc}

00000918 <l456>:
     918:	e92d5600 	push	{r9, sl, ip, lr}

0000091c <l457>:
     91c:	e1a00000 	nop			; (mov r0, r0)

00000920 <l458>:
     920:	e9ad9024 	stmib	sp!, {r2, r5, ip, pc}

00000924 <l459>:
     924:	e8bd014a 	pop	{r1, r3, r6, r8}

00000928 <l460>:
     928:	e92d2000 	stmfd	sp!, {sp}

0000092c <l461>:
     92c:	e8bd4250 	pop	{r4, r6, r9, lr}

00000930 <l462>:
     930:	e88d0200 	stm	sp, {r9}

00000934 <l463>:
     934:	e83d0102 	ldmda	sp!, {r1, r8}

00000938 <l464>:
     938:	e93d0040 	ldmdb	sp!, {r6}

0000093c <l465>:
     93c:	e92d8800 	push	{fp, pc}

00000940 <l466>:
     940:	e98d0010 	stmib	sp, {r4}

00000944 <l467>:
     944:	e92d1006 	push	{r1, r2, ip}

00000948 <l468>:
     948:	e8ad0d00 	stmia	sp!, {r8, sl, fp}

0000094c <l469>:
     94c:	e82d2000 	stmda	sp!, {sp}

00000950 <l470>:
     950:	e89d0800 	ldm	sp, {fp}

00000954 <l471>:
     954:	e8ad9a01 	stmia	sp!, {r0, r9, fp, ip, pc}

00000958 <l472>:
     958:	e1a00000 	nop			; (mov r0, r0)

0000095c <l473>:
     95c:	e93d1783 	ldmdb	sp!, {r0, r1, r7, r8, r9, sl, ip}

00000960 <l474>:
     960:	a89d0080 	ldmge	sp, {r7}

00000964 <l475>:
     964:	688d182c 	stmvs	sp, {r2, r3, r5, fp, ip}

00000968 <l476>:
     968:	e8bd0d60 	pop	{r5, r6, r8, sl, fp}

0000096c <l477>:
     96c:	e80d32ce 	stmda	sp, {r1, r2, r3, r6, r7, r9, ip, sp}

00000970 <l478>:
     970:	e1a00000 	nop			; (mov r0, r0)

00000974 <l479>:
     974:	e8ad1040 	stmia	sp!, {r6, ip}

00000978 <l480>:
     978:	e1a00000 	nop			; (mov r0, r0)

0000097c <l481>:
     97c:	e1a00000 	nop			; (mov r0, r0)

00000980 <l482>:
     980:	e9bd4001 	ldmib	sp!, {r0, lr}

00000984 <l483>:
     984:	d98d0200 	stmible	sp, {r9}

00000988 <l484>:
     988:	e1a00000 	nop			; (mov r0, r0)

0000098c <l485>:
     98c:	e81d0679 	ldmda	sp, {r0, r3, r4, r5, r6, r9, sl}

00000990 <l486>:
     990:	488d4000 	stmmi	sp, {lr}

00000994 <l487>:
     994:	e8bd0010 	ldmfd	sp!, {r4}

00000998 <l488>:
     998:	e1a00000 	nop			; (mov r0, r0)

0000099c <l489>:
     99c:	e82d2000 	stmda	sp!, {sp}

000009a0 <l490>:
     9a0:	e9bd0100 	ldmib	sp!, {r8}

000009a4 <l491>:
     9a4:	e1a00000 	nop			; (mov r0, r0)

000009a8 <l492>:
     9a8:	e93d5b3f 	ldmdb	sp!, {r0, r1, r2, r3, r4, r5, r8, r9, fp, ip, lr}

000009ac <l493>:
     9ac:	789d0218 	ldmvc	sp, {r3, r4, r9}

000009b0 <l494>:
     9b0:	e93d0400 	ldmdb	sp!, {sl}

000009b4 <l495>:
     9b4:	691d1248 	ldmdbvs	sp, {r3, r6, r9, ip}

000009b8 <l496>:
     9b8:	e8ad1000 	stmia	sp!, {ip}

000009bc <l497>:
     9bc:	e99d0080 	ldmib	sp, {r7}

000009c0 <l498>:
     9c0:	e8adcafc 	stmia	sp!, {r2, r3, r4, r5, r6, r7, r9, fp, lr, pc}

000009c4 <l499>:
     9c4:	e8ad0002 	stmia	sp!, {r1}

000009c8 <l500>:
     9c8:	e80d8beb 	stmda	sp, {r0, r1, r3, r5, r6, r7, r8, r9, fp, pc}

000009cc <l501>:
     9cc:	e1a00000 	nop			; (mov r0, r0)

000009d0 <l502>:
     9d0:	e1a00000 	nop			; (mov r0, r0)

000009d4 <l503>:
     9d4:	e93d0aa9 	ldmdb	sp!, {r0, r3, r5, r7, r9, fp}

000009d8 <l504>:
     9d8:	e82d0104 	stmda	sp!, {r2, r8}

000009dc <l505>:
     9dc:	d89d0940 	ldmle	sp, {r6, r8, fp}

000009e0 <l506>:
     9e0:	e81d490c 	ldmda	sp, {r2, r3, r8, fp, lr}

000009e4 <l507>:
     9e4:	e82d4ce8 	stmda	sp!, {r3, r5, r6, r7, sl, fp, lr}

000009e8 <l508>:
     9e8:	e92d0020 	stmfd	sp!, {r5}

000009ec <l509>:
     9ec:	e1a00000 	nop			; (mov r0, r0)

000009f0 <l510>:
     9f0:	e1a00000 	nop			; (mov r0, r0)

000009f4 <l511>:
     9f4:	e1a00000 	nop			; (mov r0, r0)

000009f8 <l512>:
     9f8:	e1a00000 	nop			; (mov r0, r0)

000009fc <l513>:
     9fc:	e9bd5ffa 	ldmib	sp!, {r1, r3, r4, r5, r6, r7, r8, r9, sl, fp, ip, lr}

00000a00 <l514>:
     a00:	e8bd0840 	pop	{r6, fp}

00000a04 <l515>:
     a04:	e92d2000 	stmfd	sp!, {sp}

00000a08 <l516>:
     a08:	e82d9e9f 	stmda	sp!, {r0, r1, r2, r3, r4, r7, r9, sl, fp, ip, pc}

00000a0c <l517>:
     a0c:	e8ade000 	stmia	sp!, {sp, lr, pc}

00000a10 <l518>:
     a10:	e92d8905 	push	{r0, r2, r8, fp, pc}

00000a14 <l519>:
     a14:	e1a00000 	nop			; (mov r0, r0)

00000a18 <l520>:
     a18:	e8bd4000 	ldmfd	sp!, {lr}

00000a1c <l521>:
     a1c:	e1a00000 	nop			; (mov r0, r0)

00000a20 <l522>:
     a20:	e1a00000 	nop			; (mov r0, r0)

00000a24 <l523>:
     a24:	e1a00000 	nop			; (mov r0, r0)

00000a28 <l524>:
     a28:	e83d0008 	ldmda	sp!, {r3}

00000a2c <l525>:
     a2c:	e9ade000 	stmib	sp!, {sp, lr, pc}

00000a30 <l526>:
     a30:	e88d1606 	stm	sp, {r1, r2, r9, sl, ip}

00000a34 <l527>:
     a34:	a88dfb6f 	stmge	sp, {r0, r1, r2, r3, r5, r6, r8, r9, fp, ip, sp, lr, pc}

00000a38 <l528>:
     a38:	e89d5cfb 	ldm	sp, {r0, r1, r3, r4, r5, r6, r7, sl, fp, ip, lr}

00000a3c <l529>:
     a3c:	e8ade000 	stmia	sp!, {sp, lr, pc}

00000a40 <l530>:
     a40:	e9bd1cf1 	ldmib	sp!, {r0, r4, r5, r6, r7, sl, fp, ip}

00000a44 <l531>:
     a44:	e1a00000 	nop			; (mov r0, r0)

00000a48 <l532>:
     a48:	e9ad0010 	stmib	sp!, {r4}

00000a4c <l533>:
     a4c:	e9ad0008 	stmib	sp!, {r3}

00000a50 <l534>:
     a50:	e82de000 	stmda	sp!, {sp, lr, pc}

00000a54 <l535>:
     a54:	e8bd0844 	pop	{r2, r6, fp}

00000a58 <l536>:
     a58:	e81d5fef 	ldmda	sp, {r0, r1, r2, r3, r5, r6, r7, r8, r9, sl, fp, ip, lr}

00000a5c <l537>:
     a5c:	e1a00000 	nop			; (mov r0, r0)

00000a60 <l538>:
     a60:	e83d008d 	ldmda	sp!, {r0, r2, r3, r7}

00000a64 <l539>:
     a64:	e1a00000 	nop			; (mov r0, r0)

00000a68 <l540>:
     a68:	e8ad02c2 	stmia	sp!, {r1, r6, r7, r9}

00000a6c <l541>:
     a6c:	e91d4908 	ldmdb	sp, {r3, r8, fp, lr}

00000a70 <l542>:
     a70:	e1a00000 	nop			; (mov r0, r0)

00000a74 <l543>:
     a74:	e1a00000 	nop			; (mov r0, r0)

00000a78 <l544>:
     a78:	e83d0e3c 	ldmda	sp!, {r2, r3, r4, r5, r9, sl, fp}

00000a7c <l545>:
     a7c:	e81d03de 	ldmda	sp, {r1, r2, r3, r4, r6, r7, r8, r9}

00000a80 <l546>:
     a80:	e93d0b29 	ldmdb	sp!, {r0, r3, r5, r8, r9, fp}

00000a84 <l547>:
     a84:	e88d0200 	stm	sp, {r9}

00000a88 <l548>:
     a88:	e8ad1001 	stmia	sp!, {r0, ip}

00000a8c <l549>:
     a8c:	e93d4000 	ldmdb	sp!, {lr}

00000a90 <l550>:
     a90:	e8ad9202 	stmia	sp!, {r1, r9, ip, pc}

00000a94 <l551>:
     a94:	e9ad2000 	stmib	sp!, {sp}

00000a98 <l552>:
     a98:	e8ad8010 	stmia	sp!, {r4, pc}

00000a9c <l553>:
     a9c:	d89d1016 	ldmle	sp, {r1, r2, r4, ip}

00000aa0 <l554>:
     aa0:	e8bd021a 	pop	{r1, r3, r4, r9}

00000aa4 <l555>:
     aa4:	e83d5b4f 	ldmda	sp!, {r0, r1, r2, r3, r6, r8, r9, fp, ip, lr}

00000aa8 <l556>:
     aa8:	e1a00000 	nop			; (mov r0, r0)

00000aac <l557>:
     aac:	080d1406 	stmdaeq	sp, {r1, r2, sl, ip}

00000ab0 <l558>:
     ab0:	688d0a02 	stmvs	sp, {r1, r9, fp}

00000ab4 <l559>:
     ab4:	e81d4000 	ldmda	sp, {lr}

00000ab8 <l560>:
     ab8:	e8bd0784 	pop	{r2, r7, r8, r9, sl}

00000abc <l561>:
     abc:	e93d505d 	ldmdb	sp!, {r0, r2, r3, r4, r6, ip, lr}

00000ac0 <l562>:
     ac0:	e9ad6000 	stmib	sp!, {sp, lr}

00000ac4 <l563>:
     ac4:	e9ad0410 	stmib	sp!, {r4, sl}

00000ac8 <l564>:
     ac8:	e1a00000 	nop			; (mov r0, r0)

00000acc <l565>:
     acc:	e1a00000 	nop			; (mov r0, r0)

00000ad0 <l566>:
     ad0:	e8ad4009 	stmia	sp!, {r0, r3, lr}

00000ad4 <l567>:
     ad4:	e1a00000 	nop			; (mov r0, r0)

00000ad8 <l568>:
     ad8:	e92d0020 	stmfd	sp!, {r5}

00000adc <l569>:
     adc:	e8bd0060 	pop	{r5, r6}

00000ae0 <l570>:
     ae0:	388d0814 	stmcc	sp, {r2, r4, fp}

00000ae4 <l571>:
     ae4:	e83d56fb 	ldmda	sp!, {r0, r1, r3, r4, r5, r6, r7, r9, sl, ip, lr}

00000ae8 <l572>:
     ae8:	e1a00000 	nop			; (mov r0, r0)

00000aec <l573>:
     aec:	e1a00000 	nop			; (mov r0, r0)

00000af0 <l574>:
     af0:	e9ad96a2 	stmib	sp!, {r1, r5, r7, r9, sl, ip, pc}

00000af4 <l575>:
     af4:	e8bd1020 	pop	{r5, ip}

00000af8 <l576>:
     af8:	e9bd0805 	ldmib	sp!, {r0, r2, fp}

00000afc <l577>:
     afc:	e9bd0400 	ldmib	sp!, {sl}

00000b00 <l578>:
     b00:	e8ad4480 	stmia	sp!, {r7, sl, lr}

00000b04 <l579>:
     b04:	e1a00000 	nop			; (mov r0, r0)

00000b08 <l580>:
     b08:	e1a00000 	nop			; (mov r0, r0)

00000b0c <l581>:
     b0c:	e1a00000 	nop			; (mov r0, r0)

00000b10 <l582>:
     b10:	e1a00000 	nop			; (mov r0, r0)

00000b14 <l583>:
     b14:	e1a00000 	nop			; (mov r0, r0)

00000b18 <l584>:
     b18:	e83d47e3 	ldmda	sp!, {r0, r1, r5, r6, r7, r8, r9, sl, lr}

00000b1c <l585>:
     b1c:	e9ad0982 	stmib	sp!, {r1, r7, r8, fp}

00000b20 <l586>:
     b20:	e1a00000 	nop			; (mov r0, r0)

00000b24 <l587>:
     b24:	089d08d0 	ldmeq	sp, {r4, r6, r7, fp}

00000b28 <l588>:
     b28:	998d2000 	stmibls	sp, {sp}

00000b2c <l589>:
     b2c:	e9ad4028 	stmib	sp!, {r3, r5, lr}

00000b30 <l590>:
     b30:	690d0400 	stmdbvs	sp, {sl}

00000b34 <l591>:
     b34:	e8bd0005 	pop	{r0, r2}

00000b38 <l592>:
     b38:	e1a00000 	nop			; (mov r0, r0)

00000b3c <l593>:
     b3c:	e82da000 	stmda	sp!, {sp, pc}

00000b40 <l594>:
     b40:	e92d9b2f 	push	{r0, r1, r2, r3, r5, r8, r9, fp, ip, pc}

00000b44 <l595>:
     b44:	e92d0424 	push	{r2, r5, sl}

00000b48 <l596>:
     b48:	e92d0010 	stmfd	sp!, {r4}

00000b4c <l597>:
     b4c:	e8bd02ed 	pop	{r0, r2, r3, r5, r6, r7, r9}

00000b50 <l598>:
     b50:	e9ada000 	stmib	sp!, {sp, pc}

00000b54 <l599>:
     b54:	e1a00000 	nop			; (mov r0, r0)

00000b58 <l600>:
     b58:	e8bd40dd 	pop	{r0, r2, r3, r4, r6, r7, lr}

00000b5c <l601>:
     b5c:	691d0020 	ldmdbvs	sp, {r5}

00000b60 <l602>:
     b60:	e93d0604 	ldmdb	sp!, {r2, r9, sl}

00000b64 <l603>:
     b64:	e8bd0200 	ldmfd	sp!, {r9}

00000b68 <l604>:
     b68:	e80df976 	stmda	sp, {r1, r2, r4, r5, r6, r8, fp, ip, sp, lr, pc}

00000b6c <l605>:
     b6c:	e81d0050 	ldmda	sp, {r4, r6}

00000b70 <l606>:
     b70:	e9bd0020 	ldmib	sp!, {r5}

00000b74 <l607>:
     b74:	e93d5ff7 	ldmdb	sp!, {r0, r1, r2, r4, r5, r6, r7, r8, r9, sl, fp, ip, lr}

00000b78 <l608>:
     b78:	d89d1bff 	ldmle	sp, {r0, r1, r2, r3, r4, r5, r6, r7, r8, r9, fp, ip}

00000b7c <l609>:
     b7c:	880d1200 	stmdahi	sp, {r9, ip}

00000b80 <l610>:
     b80:	e93d0100 	ldmdb	sp!, {r8}

00000b84 <l611>:
     b84:	e89d5bf7 	ldm	sp, {r0, r1, r2, r4, r5, r6, r7, r8, r9, fp, ip, lr}

00000b88 <l612>:
     b88:	e83d0080 	ldmda	sp!, {r7}

00000b8c <l613>:
     b8c:	e1a00000 	nop			; (mov r0, r0)

00000b90 <l614>:
     b90:	e1a00000 	nop			; (mov r0, r0)

00000b94 <l615>:
     b94:	e98dd3db 	stmib	sp, {r0, r1, r3, r4, r6, r7, r8, r9, ip, lr, pc}

00000b98 <l616>:
     b98:	e8bd5f46 	pop	{r1, r2, r6, r8, r9, sl, fp, ip, lr}

00000b9c <l617>:
     b9c:	e83d49cb 	ldmda	sp!, {r0, r1, r3, r6, r7, r8, fp, lr}

00000ba0 <l618>:
     ba0:	788da9f4 	stmvc	sp, {r2, r4, r5, r6, r7, r8, fp, sp, pc}

00000ba4 <l619>:
     ba4:	e92d1000 	stmfd	sp!, {ip}

00000ba8 <l620>:
     ba8:	e1a00000 	nop			; (mov r0, r0)

00000bac <l621>:
     bac:	e1a00000 	nop			; (mov r0, r0)

00000bb0 <l622>:
     bb0:	e1a00000 	nop			; (mov r0, r0)

00000bb4 <l623>:
     bb4:	e8ad5898 	stmia	sp!, {r3, r4, r7, fp, ip, lr}

00000bb8 <l624>:
     bb8:	e80d00a0 	stmda	sp, {r5, r7}

00000bbc <l625>:
     bbc:	598da252 	stmibpl	sp, {r1, r4, r6, r9, sp, pc}

00000bc0 <l626>:
     bc0:	e1a00000 	nop			; (mov r0, r0)

00000bc4 <l627>:
     bc4:	e8bd0170 	pop	{r4, r5, r6, r8}

00000bc8 <l628>:
     bc8:	e92d4e47 	push	{r0, r1, r2, r6, r9, sl, fp, lr}

00000bcc <l629>:
     bcc:	e92d2000 	stmfd	sp!, {sp}

00000bd0 <l630>:
     bd0:	e1a00000 	nop			; (mov r0, r0)

00000bd4 <l631>:
     bd4:	999d07a1 	ldmibls	sp, {r0, r5, r7, r8, r9, sl}

00000bd8 <l632>:
     bd8:	e9ad0004 	stmib	sp!, {r2}

00000bdc <l633>:
     bdc:	e90d4800 	stmdb	sp, {fp, lr}

00000be0 <l634>:
     be0:	e92d2000 	stmfd	sp!, {sp}

00000be4 <l635>:
     be4:	a81d0004 	ldmdage	sp, {r2}

00000be8 <l636>:
     be8:	e93d0004 	ldmdb	sp!, {r2}

00000bec <l637>:
     bec:	e89d5dec 	ldm	sp, {r2, r3, r5, r6, r7, r8, sl, fp, ip, lr}

00000bf0 <l638>:
     bf0:	e1a00000 	nop			; (mov r0, r0)

00000bf4 <l639>:
     bf4:	e1a00000 	nop			; (mov r0, r0)

00000bf8 <l640>:
     bf8:	e9bd10ea 	ldmib	sp!, {r1, r3, r5, r6, r7, ip}

00000bfc <l641>:
     bfc:	e90d0852 	stmdb	sp, {r1, r4, r6, fp}

00000c00 <l642>:
     c00:	e92d2000 	stmfd	sp!, {sp}

00000c04 <l643>:
     c04:	e93d02a0 	ldmdb	sp!, {r5, r7, r9}

00000c08 <l644>:
     c08:	e9bd477f 	ldmib	sp!, {r0, r1, r2, r3, r4, r5, r6, r8, r9, sl, lr}

00000c0c <l645>:
     c0c:	e90d8601 	stmdb	sp, {r0, r9, sl, pc}

00000c10 <l646>:
     c10:	e9bd4000 	ldmib	sp!, {lr}

00000c14 <l647>:
     c14:	e9bd0011 	ldmib	sp!, {r0, r4}

00000c18 <l648>:
     c18:	e1a00000 	nop			; (mov r0, r0)

00000c1c <l649>:
     c1c:	e1a00000 	nop			; (mov r0, r0)

00000c20 <l650>:
     c20:	e83d0064 	ldmda	sp!, {r2, r5, r6}

00000c24 <l651>:
     c24:	e83d4188 	ldmda	sp!, {r3, r7, r8, lr}

00000c28 <l652>:
     c28:	e8bd4e20 	pop	{r5, r9, sl, fp, lr}

00000c2c <l653>:
     c2c:	e1a00000 	nop			; (mov r0, r0)

00000c30 <l654>:
     c30:	e83d1249 	ldmda	sp!, {r0, r3, r6, r9, ip}

00000c34 <l655>:
     c34:	e8bd4273 	pop	{r0, r1, r4, r5, r6, r9, lr}

00000c38 <l656>:
     c38:	e92d8906 	push	{r1, r2, r8, fp, pc}

00000c3c <l657>:
     c3c:	089d0010 	ldmeq	sp, {r4}

00000c40 <l658>:
     c40:	e81d03c5 	ldmda	sp, {r0, r2, r6, r7, r8, r9}

00000c44 <l659>:
     c44:	e80d1020 	stmda	sp, {r5, ip}

00000c48 <l660>:
     c48:	e1a00000 	nop			; (mov r0, r0)

00000c4c <l661>:
     c4c:	e93d0005 	ldmdb	sp!, {r0, r2}

00000c50 <l662>:
     c50:	e98d2000 	stmib	sp, {sp}

00000c54 <l663>:
     c54:	e88de410 	stm	sp, {r4, sl, sp, lr, pc}

00000c58 <l664>:
     c58:	e1a00000 	nop			; (mov r0, r0)

00000c5c <l665>:
     c5c:	e92d6000 	push	{sp, lr}

00000c60 <l666>:
     c60:	e93d4832 	ldmdb	sp!, {r1, r4, r5, fp, lr}

00000c64 <l667>:
     c64:	781d0400 	ldmdavc	sp, {sl}

00000c68 <l668>:
     c68:	e83d0800 	ldmda	sp!, {fp}

00000c6c <l669>:
     c6c:	d88d4429 	stmle	sp, {r0, r3, r5, sl, lr}

00000c70 <l670>:
     c70:	e99d5dbd 	ldmib	sp, {r0, r2, r3, r4, r5, r7, r8, sl, fp, ip, lr}

00000c74 <l671>:
     c74:	e1a00000 	nop			; (mov r0, r0)

00000c78 <l672>:
     c78:	c99d0055 	ldmibgt	sp, {r0, r2, r4, r6}

00000c7c <l673>:
     c7c:	e89d4edc 	ldm	sp, {r2, r3, r4, r6, r7, r9, sl, fp, lr}

00000c80 <l674>:
     c80:	e1a00000 	nop			; (mov r0, r0)

00000c84 <l675>:
     c84:	e1a00000 	nop			; (mov r0, r0)

00000c88 <l676>:
     c88:	a98d65c5 	stmibge	sp, {r0, r2, r6, r7, r8, sl, sp, lr}

00000c8c <l677>:
     c8c:	e9bd5e7d 	ldmib	sp!, {r0, r2, r3, r4, r5, r6, r9, sl, fp, ip, lr}

00000c90 <l678>:
     c90:	e83d575f 	ldmda	sp!, {r0, r1, r2, r3, r4, r6, r8, r9, sl, ip, lr}

00000c94 <l679>:
     c94:	e8ad2000 	stmia	sp!, {sp}

00000c98 <l680>:
     c98:	e1a00000 	nop			; (mov r0, r0)

00000c9c <l681>:
     c9c:	881d000a 	ldmdahi	sp, {r1, r3}

00000ca0 <l682>:
     ca0:	e83d0240 	ldmda	sp!, {r6, r9}

00000ca4 <l683>:
     ca4:	e1a00000 	nop			; (mov r0, r0)

00000ca8 <l684>:
     ca8:	e1a00000 	nop			; (mov r0, r0)

00000cac <l685>:
     cac:	e1a00000 	nop			; (mov r0, r0)

00000cb0 <l686>:
     cb0:	e1a00000 	nop			; (mov r0, r0)

00000cb4 <l687>:
     cb4:	699d0034 	ldmibvs	sp, {r2, r4, r5}

00000cb8 <l688>:
     cb8:	e9bd4aec 	ldmib	sp!, {r2, r3, r5, r6, r7, r9, fp, lr}

00000cbc <l689>:
     cbc:	e9bd5303 	ldmib	sp!, {r0, r1, r8, r9, ip, lr}

00000cc0 <l690>:
     cc0:	e8bd0001 	ldmfd	sp!, {r0}

00000cc4 <l691>:
     cc4:	e1a00000 	nop			; (mov r0, r0)

00000cc8 <l692>:
     cc8:	e82d0800 	stmda	sp!, {fp}

00000ccc <l693>:
     ccc:	e1a00000 	nop			; (mov r0, r0)

00000cd0 <l694>:
     cd0:	e92de000 	push	{sp, lr, pc}

00000cd4 <l695>:
     cd4:	e93d1ad3 	ldmdb	sp!, {r0, r1, r4, r6, r7, r9, fp, ip}

00000cd8 <l696>:
     cd8:	e90d0800 	stmdb	sp, {fp}

00000cdc <l697>:
     cdc:	e9bd01d0 	ldmib	sp!, {r4, r6, r7, r8}

00000ce0 <l698>:
     ce0:	e1a00000 	nop			; (mov r0, r0)

00000ce4 <l699>:
     ce4:	e9ad2000 	stmib	sp!, {sp}

00000ce8 <l700>:
     ce8:	e81d0add 	ldmda	sp, {r0, r2, r3, r4, r6, r7, r9, fp}

00000cec <l701>:
     cec:	e8ad05f2 	stmia	sp!, {r1, r4, r5, r6, r7, r8, sl}

00000cf0 <l702>:
     cf0:	e92d0080 	stmfd	sp!, {r7}

00000cf4 <l703>:
     cf4:	e89d4000 	ldm	sp, {lr}

00000cf8 <l704>:
     cf8:	e82d5efe 	stmda	sp!, {r1, r2, r3, r4, r5, r6, r7, r9, sl, fp, ip, lr}

00000cfc <l705>:
     cfc:	e9bd40cc 	ldmib	sp!, {r2, r3, r6, r7, lr}

00000d00 <l706>:
     d00:	e83d0628 	ldmda	sp!, {r3, r5, r9, sl}

00000d04 <l707>:
     d04:	a98d0080 	stmibge	sp, {r7}

00000d08 <l708>:
     d08:	e8ad2000 	stmia	sp!, {sp}

00000d0c <l709>:
     d0c:	e9ada000 	stmib	sp!, {sp, pc}

00000d10 <l710>:
     d10:	e1a00000 	nop			; (mov r0, r0)

00000d14 <l711>:
     d14:	e82d803d 	stmda	sp!, {r0, r2, r3, r4, r5, pc}

00000d18 <l712>:
     d18:	e8bd0008 	ldmfd	sp!, {r3}

00000d1c <l713>:
     d1c:	e8ad0080 	stmia	sp!, {r7}

00000d20 <l714>:
     d20:	e93d0040 	ldmdb	sp!, {r6}

00000d24 <l715>:
     d24:	e92d0010 	stmfd	sp!, {r4}

00000d28 <l716>:
     d28:	e1a00000 	nop			; (mov r0, r0)

00000d2c <l717>:
     d2c:	e1a00000 	nop			; (mov r0, r0)

00000d30 <l718>:
     d30:	e1a00000 	nop			; (mov r0, r0)

00000d34 <l719>:
     d34:	e98dfbfb 	stmib	sp, {r0, r1, r3, r4, r5, r6, r7, r8, r9, fp, ip, sp, lr, pc}

00000d38 <l720>:
     d38:	e1a00000 	nop			; (mov r0, r0)

00000d3c <l721>:
     d3c:	e1a00000 	nop			; (mov r0, r0)

00000d40 <l722>:
     d40:	e9bd586d 	ldmib	sp!, {r0, r2, r3, r5, r6, fp, ip, lr}

00000d44 <l723>:
     d44:	b98db860 	stmiblt	sp, {r5, r6, fp, ip, sp, pc}

00000d48 <l724>:
     d48:	e8bd4c09 	pop	{r0, r3, sl, fp, lr}

00000d4c <l725>:
     d4c:	e83d571d 	ldmda	sp!, {r0, r2, r3, r4, r8, r9, sl, ip, lr}

00000d50 <l726>:
     d50:	e88d9bef 	stm	sp, {r0, r1, r2, r3, r5, r6, r7, r8, r9, fp, ip, pc}

00000d54 <l727>:
     d54:	a81d0006 	ldmdage	sp, {r1, r2}

00000d58 <l728>:
     d58:	e8bd0100 	ldmfd	sp!, {r8}

00000d5c <l729>:
     d5c:	e9bd4b67 	ldmib	sp!, {r0, r1, r2, r5, r6, r8, r9, fp, lr}

00000d60 <l730>:
     d60:	d98d0100 	stmible	sp, {r8}

00000d64 <l731>:
     d64:	e1a00000 	nop			; (mov r0, r0)

00000d68 <l732>:
     d68:	e9ad8004 	stmib	sp!, {r2, pc}

00000d6c <l733>:
     d6c:	480dbdfa 	stmdami	sp, {r1, r3, r4, r5, r6, r7, r8, sl, fp, ip, sp, pc}

00000d70 <l734>:
     d70:	e1a00000 	nop			; (mov r0, r0)

00000d74 <l735>:
     d74:	e1a00000 	nop			; (mov r0, r0)

00000d78 <l736>:
     d78:	e83d0004 	ldmda	sp!, {r2}

00000d7c <l737>:
     d7c:	e1a00000 	nop			; (mov r0, r0)

00000d80 <l738>:
     d80:	e92dd5ac 	push	{r2, r3, r5, r7, r8, sl, ip, lr, pc}

00000d84 <l739>:
     d84:	e88d3885 	stm	sp, {r0, r2, r7, fp, ip, sp}

00000d88 <l740>:
     d88:	e1a00000 	nop			; (mov r0, r0)

00000d8c <l741>:
     d8c:	e1a00000 	nop			; (mov r0, r0)

00000d90 <l742>:
     d90:	e92d0858 	push	{r3, r4, r6, fp}

00000d94 <l743>:
     d94:	e1a00000 	nop			; (mov r0, r0)

00000d98 <l744>:
     d98:	e1a00000 	nop			; (mov r0, r0)

00000d9c <l745>:
     d9c:	e93d0480 	ldmdb	sp!, {r7, sl}

00000da0 <l746>:
     da0:	798d7594 	stmibvc	sp, {r2, r4, r7, r8, sl, ip, sp, lr}

00000da4 <l747>:
     da4:	e98d75a4 	stmib	sp, {r2, r5, r7, r8, sl, ip, sp, lr}

00000da8 <l748>:
     da8:	e1a00000 	nop			; (mov r0, r0)

00000dac <l749>:
     dac:	e8bd1564 	pop	{r2, r5, r6, r8, sl, ip}

00000db0 <l750>:
     db0:	e80d9408 	stmda	sp, {r3, sl, ip, pc}

00000db4 <l751>:
     db4:	e99d4d34 	ldmib	sp, {r2, r4, r5, r8, sl, fp, lr}

00000db8 <l752>:
     db8:	e80d7000 	stmda	sp, {ip, sp, lr}

00000dbc <l753>:
     dbc:	e8ad8847 	stmia	sp!, {r0, r1, r2, r6, fp, pc}

00000dc0 <l754>:
     dc0:	e8ad001c 	stmia	sp!, {r2, r3, r4}

00000dc4 <l755>:
     dc4:	e92d892c 	push	{r2, r3, r5, r8, fp, pc}

00000dc8 <l756>:
     dc8:	e8bd1010 	pop	{r4, ip}

00000dcc <l757>:
     dcc:	e1a00000 	nop			; (mov r0, r0)

00000dd0 <l758>:
     dd0:	e92da000 	push	{sp, pc}

00000dd4 <l759>:
     dd4:	e93d0210 	ldmdb	sp!, {r4, r9}

00000dd8 <l760>:
     dd8:	989d1809 	ldmls	sp, {r0, r3, fp, ip}

00000ddc <l761>:
     ddc:	e80d800e 	stmda	sp, {r1, r2, r3, pc}

00000de0 <l762>:
     de0:	e9ada000 	stmib	sp!, {sp, pc}

00000de4 <l763>:
     de4:	e9bd1060 	ldmib	sp!, {r5, r6, ip}

00000de8 <l764>:
     de8:	e82d4942 	stmda	sp!, {r1, r6, r8, fp, lr}

00000dec <l765>:
     dec:	e98db4cc 	stmib	sp, {r2, r3, r6, r7, sl, ip, sp, pc}

00000df0 <l766>:
     df0:	e8bd4029 	pop	{r0, r3, r5, lr}

00000df4 <l767>:
     df4:	e82dd0a6 	stmda	sp!, {r1, r2, r5, r7, ip, lr, pc}

00000df8 <l768>:
     df8:	e9bd1102 	ldmib	sp!, {r1, r8, ip}

00000dfc <l769>:
     dfc:	e83d1000 	ldmda	sp!, {ip}

00000e00 <l770>:
     e00:	e8bd12ea 	pop	{r1, r3, r5, r6, r7, r9, ip}

00000e04 <l771>:
     e04:	b98d4001 	stmiblt	sp, {r0, lr}

00000e08 <l772>:
     e08:	c80d7544 	stmdagt	sp, {r2, r6, r8, sl, ip, sp, lr}

00000e0c <l773>:
     e0c:	689d0008 	ldmvs	sp, {r3}

00000e10 <l774>:
     e10:	e1a00000 	nop			; (mov r0, r0)

00000e14 <l775>:
     e14:	e1a00000 	nop			; (mov r0, r0)

00000e18 <l776>:
     e18:	698d0120 	stmibvs	sp, {r5, r8}

00000e1c <l777>:
     e1c:	e9ad0908 	stmib	sp!, {r3, r8, fp}

00000e20 <l778>:
     e20:	e1a00000 	nop			; (mov r0, r0)

00000e24 <l779>:
     e24:	e1a00000 	nop			; (mov r0, r0)

00000e28 <l780>:
     e28:	e93d4c8c 	ldmdb	sp!, {r2, r3, r7, sl, fp, lr}

00000e2c <l781>:
     e2c:	e9ad8060 	stmib	sp!, {r5, r6, pc}

00000e30 <l782>:
     e30:	e93d1044 	ldmdb	sp!, {r2, r6, ip}

00000e34 <l783>:
     e34:	e8ad4060 	stmia	sp!, {r5, r6, lr}

00000e38 <l784>:
     e38:	e90d11a8 	stmdb	sp, {r3, r5, r7, r8, ip}

00000e3c <l785>:
     e3c:	e92d905a 	push	{r1, r3, r4, r6, ip, pc}

00000e40 <l786>:
     e40:	e83d1211 	ldmda	sp!, {r0, r4, r9, ip}

00000e44 <l787>:
     e44:	e82d0420 	stmda	sp!, {r5, sl}

00000e48 <l788>:
     e48:	e1a00000 	nop			; (mov r0, r0)

00000e4c <l789>:
     e4c:	e1a00000 	nop			; (mov r0, r0)

00000e50 <l790>:
     e50:	e8bd1a4f 	pop	{r0, r1, r2, r3, r6, r9, fp, ip}

00000e54 <l791>:
     e54:	e9ad1203 	stmib	sp!, {r0, r1, r9, ip}

00000e58 <l792>:
     e58:	e90d0002 	stmdb	sp, {r1}

00000e5c <l793>:
     e5c:	e83d0400 	ldmda	sp!, {sl}

00000e60 <l794>:
     e60:	088d4840 	stmeq	sp, {r6, fp, lr}

00000e64 <l795>:
     e64:	d81d5fcd 	ldmdale	sp, {r0, r2, r3, r6, r7, r8, r9, sl, fp, ip, lr}

00000e68 <l796>:
     e68:	e9bd08e0 	ldmib	sp!, {r5, r6, r7, fp}

00000e6c <l797>:
     e6c:	e1a00000 	nop			; (mov r0, r0)

00000e70 <l798>:
     e70:	e1a00000 	nop			; (mov r0, r0)

00000e74 <l799>:
     e74:	e1a00000 	nop			; (mov r0, r0)

00000e78 <l800>:
     e78:	780dfebf 	stmdavc	sp, {r0, r1, r2, r3, r4, r5, r7, r9, sl, fp, ip, sp, lr, pc}

00000e7c <l801>:
     e7c:	e82ddc1a 	stmda	sp!, {r1, r3, r4, sl, fp, ip, lr, pc}

00000e80 <l802>:
     e80:	e9ad1000 	stmib	sp!, {ip}

00000e84 <l803>:
     e84:	e92de000 	push	{sp, lr, pc}

00000e88 <l804>:
     e88:	e93d4952 	ldmdb	sp!, {r1, r4, r6, r8, fp, lr}

00000e8c <l805>:
     e8c:	e1a00000 	nop			; (mov r0, r0)

00000e90 <l806>:
     e90:	e1a00000 	nop			; (mov r0, r0)

00000e94 <l807>:
     e94:	e1a00000 	nop			; (mov r0, r0)

00000e98 <l808>:
     e98:	e1a00000 	nop			; (mov r0, r0)

00000e9c <l809>:
     e9c:	e8bd0200 	ldmfd	sp!, {r9}

00000ea0 <l810>:
     ea0:	e88dfdee 	stm	sp, {r1, r2, r3, r5, r6, r7, r8, sl, fp, ip, sp, lr, pc}

00000ea4 <l811>:
     ea4:	e8ad4442 	stmia	sp!, {r1, r6, sl, lr}

00000ea8 <l812>:
     ea8:	688d0100 	stmvs	sp, {r8}

00000eac <l813>:
     eac:	e9bd5d8d 	ldmib	sp!, {r0, r2, r3, r7, r8, sl, fp, ip, lr}

00000eb0 <l814>:
     eb0:	e8ad1000 	stmia	sp!, {ip}

00000eb4 <l815>:
     eb4:	e1a00000 	nop			; (mov r0, r0)

00000eb8 <l816>:
     eb8:	e93d5108 	ldmdb	sp!, {r3, r8, ip, lr}

00000ebc <l817>:
     ebc:	e83d4cf8 	ldmda	sp!, {r3, r4, r5, r6, r7, sl, fp, lr}

00000ec0 <l818>:
     ec0:	288df2fe 	stmcs	sp, {r1, r2, r3, r4, r5, r6, r7, r9, ip, sp, lr, pc}

00000ec4 <l819>:
     ec4:	e8bd010e 	pop	{r1, r2, r3, r8}

00000ec8 <l820>:
     ec8:	e82dccc0 	stmda	sp!, {r6, r7, sl, fp, lr, pc}

00000ecc <l821>:
     ecc:	090d0400 	stmdbeq	sp, {sl}

00000ed0 <l822>:
     ed0:	e9bd1629 	ldmib	sp!, {r0, r3, r5, r9, sl, ip}

00000ed4 <l823>:
     ed4:	681d0824 	ldmdavs	sp, {r2, r5, fp}

00000ed8 <l824>:
     ed8:	e9ada000 	stmib	sp!, {sp, pc}

00000edc <l825>:
     edc:	e81d0040 	ldmda	sp, {r6}

00000ee0 <l826>:
     ee0:	d98d0001 	stmible	sp, {r0}

00000ee4 <l827>:
     ee4:	e99d0216 	ldmib	sp, {r1, r2, r4, r9}

00000ee8 <l828>:
     ee8:	e8ad9d88 	stmia	sp!, {r3, r7, r8, sl, fp, ip, pc}

00000eec <l829>:
     eec:	e82d0040 	stmda	sp!, {r6}

00000ef0 <l830>:
     ef0:	e93d0010 	ldmdb	sp!, {r4}

00000ef4 <l831>:
     ef4:	280d7091 	stmdacs	sp, {r0, r4, r7, ip, sp, lr}

00000ef8 <l832>:
     ef8:	e8ad0440 	stmia	sp!, {r6, sl}

00000efc <l833>:
     efc:	e1a00000 	nop			; (mov r0, r0)

00000f00 <l834>:
     f00:	e80d1400 	stmda	sp, {sl, ip}

00000f04 <l835>:
     f04:	e93d5fef 	ldmdb	sp!, {r0, r1, r2, r3, r5, r6, r7, r8, r9, sl, fp, ip, lr}

00000f08 <l836>:
     f08:	e8bd1beb 	pop	{r0, r1, r3, r5, r6, r7, r8, r9, fp, ip}

00000f0c <l837>:
     f0c:	780d2388 	stmdavc	sp, {r3, r7, r8, r9, sp}

00000f10 <l838>:
     f10:	e98d3000 	stmib	sp, {ip, sp}

00000f14 <l839>:
     f14:	e98d2004 	stmib	sp, {r2, sp}

00000f18 <l840>:
     f18:	490db295 	stmdbmi	sp, {r0, r2, r4, r7, r9, ip, sp, pc}

00000f1c <l841>:
     f1c:	e92d6000 	push	{sp, lr}

00000f20 <l842>:
     f20:	e82de000 	stmda	sp!, {sp, lr, pc}

00000f24 <l843>:
     f24:	499d551d 	ldmibmi	sp, {r0, r2, r3, r4, r8, sl, ip, lr}

00000f28 <l844>:
     f28:	e83d4ab9 	ldmda	sp!, {r0, r3, r4, r5, r7, r9, fp, lr}

00000f2c <l845>:
     f2c:	e1a00000 	nop			; (mov r0, r0)

00000f30 <l846>:
     f30:	e99d0b00 	ldmib	sp, {r8, r9, fp}

00000f34 <l847>:
     f34:	e8bd4bff 	pop	{r0, r1, r2, r3, r4, r5, r6, r7, r8, r9, fp, lr}

00000f38 <l848>:
     f38:	e92de000 	push	{sp, lr, pc}

00000f3c <l849>:
     f3c:	e92d0090 	push	{r4, r7}

00000f40 <l850>:
     f40:	e1a00000 	nop			; (mov r0, r0)

00000f44 <l851>:
     f44:	291d43ac 	ldmdbcs	sp, {r2, r3, r5, r7, r8, r9, lr}

00000f48 <l852>:
     f48:	e80d41d4 	stmda	sp, {r2, r4, r6, r7, r8, lr}

00000f4c <l853>:
     f4c:	e81d0372 	ldmda	sp, {r1, r4, r5, r6, r8, r9}

00000f50 <l854>:
     f50:	e1a00000 	nop			; (mov r0, r0)

00000f54 <l855>:
     f54:	e8ad9ac3 	stmia	sp!, {r0, r1, r6, r7, r9, fp, ip, pc}

00000f58 <l856>:
     f58:	e93d0010 	ldmdb	sp!, {r4}

00000f5c <l857>:
     f5c:	e1a00000 	nop			; (mov r0, r0)

00000f60 <l858>:
     f60:	e1a00000 	nop			; (mov r0, r0)

00000f64 <l859>:
     f64:	e1a00000 	nop			; (mov r0, r0)

00000f68 <l860>:
     f68:	e91d5a81 	ldmdb	sp, {r0, r7, r9, fp, ip, lr}

00000f6c <l861>:
     f6c:	e8bd1002 	pop	{r1, ip}

00000f70 <l862>:
     f70:	e1a00000 	nop			; (mov r0, r0)

00000f74 <l863>:
     f74:	e83d1021 	ldmda	sp!, {r0, r5, ip}

00000f78 <l864>:
     f78:	e8bd0080 	ldmfd	sp!, {r7}

00000f7c <l865>:
     f7c:	e81d0640 	ldmda	sp, {r6, r9, sl}

00000f80 <l866>:
     f80:	e82ddf5f 	stmda	sp!, {r0, r1, r2, r3, r4, r6, r8, r9, sl, fp, ip, lr, pc}

00000f84 <l867>:
     f84:	e82d0400 	stmda	sp!, {sl}

00000f88 <l868>:
     f88:	e8ade000 	stmia	sp!, {sp, lr, pc}

00000f8c <l869>:
     f8c:	e8bd5d31 	pop	{r0, r4, r5, r8, sl, fp, ip, lr}

00000f90 <l870>:
     f90:	e83d10ba 	ldmda	sp!, {r1, r3, r4, r5, r7, ip}

00000f94 <l871>:
     f94:	498d9fe3 	stmibmi	sp, {r0, r1, r5, r6, r7, r8, r9, sl, fp, ip, pc}

00000f98 <l872>:
     f98:	799d1726 	ldmibvc	sp, {r1, r2, r5, r8, r9, sl, ip}

00000f9c <l873>:
     f9c:	598d1026 	stmibpl	sp, {r1, r2, r5, ip}

00000fa0 <l874>:
     fa0:	e8ad0e10 	stmia	sp!, {r4, r9, sl, fp}

00000fa4 <l875>:
     fa4:	e9bd071b 	ldmib	sp!, {r0, r1, r3, r4, r8, r9, sl}

00000fa8 <l876>:
     fa8:	c81d44c0 	ldmdagt	sp, {r6, r7, sl, lr}

00000fac <l877>:
     fac:	591d076b 	ldmdbpl	sp, {r0, r1, r3, r5, r6, r8, r9, sl}

00000fb0 <l878>:
     fb0:	e1a00000 	nop			; (mov r0, r0)

00000fb4 <l879>:
     fb4:	e1a00000 	nop			; (mov r0, r0)

00000fb8 <l880>:
     fb8:	791d0028 	ldmdbvc	sp, {r3, r5}

00000fbc <l881>:
     fbc:	e93d57ff 	ldmdb	sp!, {r0, r1, r2, r3, r4, r5, r6, r7, r8, r9, sl, ip, lr}

00000fc0 <l882>:
     fc0:	e80d1201 	stmda	sp, {r0, r9, ip}

00000fc4 <l883>:
     fc4:	591d0004 	ldmdbpl	sp, {r2}

00000fc8 <l884>:
     fc8:	e93d4100 	ldmdb	sp!, {r8, lr}

00000fcc <l885>:
     fcc:	e1a00000 	nop			; (mov r0, r0)

00000fd0 <l886>:
     fd0:	e93d4000 	ldmdb	sp!, {lr}

00000fd4 <l887>:
     fd4:	e1a00000 	nop			; (mov r0, r0)

00000fd8 <l888>:
     fd8:	e9ade000 	stmib	sp!, {sp, lr, pc}

00000fdc <l889>:
     fdc:	e82d0a40 	stmda	sp!, {r6, r9, fp}

00000fe0 <l890>:
     fe0:	e1a00000 	nop			; (mov r0, r0)

00000fe4 <l891>:
     fe4:	e9bd0812 	ldmib	sp!, {r1, r4, fp}

00000fe8 <l892>:
     fe8:	e8ad0304 	stmia	sp!, {r2, r8, r9}

00000fec <l893>:
     fec:	e9ade000 	stmib	sp!, {sp, lr, pc}

00000ff0 <l894>:
     ff0:	e92dc240 	push	{r6, r9, lr, pc}

00000ff4 <l895>:
     ff4:	e80d0549 	stmda	sp, {r0, r3, r6, r8, sl}

00000ff8 <l896>:
     ff8:	e83d4841 	ldmda	sp!, {r0, r6, fp, lr}

00000ffc <l897>:
     ffc:	e1a00000 	nop			; (mov r0, r0)

00001000 <l898>:
    1000:	e82d0400 	stmda	sp!, {sl}

00001004 <l899>:
    1004:	e8ada000 	stmia	sp!, {sp, pc}

00001008 <l900>:
    1008:	e83d0004 	ldmda	sp!, {r2}

0000100c <l901>:
    100c:	e83d0002 	ldmda	sp!, {r1}

00001010 <l902>:
    1010:	e1a00000 	nop			; (mov r0, r0)

00001014 <l903>:
    1014:	789d5eef 	ldmvc	sp, {r0, r1, r2, r3, r5, r6, r7, r9, sl, fp, ip, lr}

00001018 <l904>:
    1018:	e1a00000 	nop			; (mov r0, r0)

0000101c <l905>:
    101c:	e9ad5fd4 	stmib	sp!, {r2, r4, r6, r7, r8, r9, sl, fp, ip, lr}

00001020 <l906>:
    1020:	e8ad05e2 	stmia	sp!, {r1, r5, r6, r7, r8, sl}

00001024 <l907>:
    1024:	e1a00000 	nop			; (mov r0, r0)

00001028 <l908>:
    1028:	e82dc283 	stmda	sp!, {r0, r1, r7, r9, lr, pc}

0000102c <l909>:
    102c:	e9ad14c2 	stmib	sp!, {r1, r6, r7, sl, ip}

00001030 <l910>:
    1030:	e1a00000 	nop			; (mov r0, r0)

00001034 <l911>:
    1034:	e9bd0200 	ldmib	sp!, {r9}

00001038 <l912>:
    1038:	e1a00000 	nop			; (mov r0, r0)

0000103c <l913>:
    103c:	e1a00000 	nop			; (mov r0, r0)

00001040 <l914>:
    1040:	e92d2000 	stmfd	sp!, {sp}

00001044 <l915>:
    1044:	e92de000 	push	{sp, lr, pc}

00001048 <l916>:
    1048:	490d080a 	stmdbmi	sp, {r1, r3, fp}

0000104c <l917>:
    104c:	e83d19e9 	ldmda	sp!, {r0, r3, r5, r6, r7, r8, fp, ip}

00001050 <l918>:
    1050:	c81d0406 	ldmdagt	sp, {r1, r2, sl}

00001054 <l919>:
    1054:	e8adc5c1 	stmia	sp!, {r0, r6, r7, r8, sl, lr, pc}

00001058 <l920>:
    1058:	e1a00000 	nop			; (mov r0, r0)

0000105c <l921>:
    105c:	e91d5a80 	ldmdb	sp, {r7, r9, fp, ip, lr}

00001060 <l922>:
    1060:	e93d4485 	ldmdb	sp!, {r0, r2, r7, sl, lr}

00001064 <l923>:
    1064:	e1a00000 	nop			; (mov r0, r0)

00001068 <l924>:
    1068:	e89d5f4e 	ldm	sp, {r1, r2, r3, r6, r8, r9, sl, fp, ip, lr}

0000106c <l925>:
    106c:	e92d4110 	push	{r4, r8, lr}

00001070 <l926>:
    1070:	e9bd15be 	ldmib	sp!, {r1, r2, r3, r4, r5, r7, r8, sl, ip}

00001074 <l927>:
    1074:	e83d58c8 	ldmda	sp!, {r3, r6, r7, fp, ip, lr}

00001078 <l928>:
    1078:	e88d481c 	stm	sp, {r2, r3, r4, fp, lr}

0000107c <l929>:
    107c:	e93d4002 	ldmdb	sp!, {r1, lr}

00001080 <l930>:
    1080:	e9bd5cbe 	ldmib	sp!, {r1, r2, r3, r4, r5, r7, sl, fp, ip, lr}

00001084 <l931>:
    1084:	e8bd0004 	ldmfd	sp!, {r2}

00001088 <l932>:
    1088:	c81d192a 	ldmdagt	sp, {r1, r3, r5, r8, fp, ip}

0000108c <l933>:
    108c:	e1a00000 	nop			; (mov r0, r0)

00001090 <l934>:
    1090:	e83d0a09 	ldmda	sp!, {r0, r3, r9, fp}

00001094 <l935>:
    1094:	e80d0420 	stmda	sp, {r5, sl}

00001098 <l936>:
    1098:	e83d5eec 	ldmda	sp!, {r2, r3, r5, r6, r7, r9, sl, fp, ip, lr}

0000109c <l937>:
    109c:	e1a00000 	nop			; (mov r0, r0)

000010a0 <l938>:
    10a0:	689d5d01 	ldmvs	sp, {r0, r8, sl, fp, ip, lr}

000010a4 <l939>:
    10a4:	e1a00000 	nop			; (mov r0, r0)

000010a8 <l940>:
    10a8:	e93d0200 	ldmdb	sp!, {r9}

000010ac <l941>:
    10ac:	e8bd58f6 	pop	{r1, r2, r4, r5, r6, r7, fp, ip, lr}

000010b0 <l942>:
    10b0:	e9ad8012 	stmib	sp!, {r1, r4, pc}

000010b4 <l943>:
    10b4:	e8bd00e0 	pop	{r5, r6, r7}

000010b8 <l944>:
    10b8:	789d1000 	ldmvc	sp, {ip}

000010bc <l945>:
    10bc:	e83d4008 	ldmda	sp!, {r3, lr}

000010c0 <l946>:
    10c0:	b80df539 	stmdalt	sp, {r0, r3, r4, r5, r8, sl, ip, sp, lr, pc}

000010c4 <l947>:
    10c4:	781d0ef6 	ldmdavc	sp, {r1, r2, r4, r5, r6, r7, r9, sl, fp}

000010c8 <l948>:
    10c8:	e90dbab7 	stmdb	sp, {r0, r1, r2, r4, r5, r7, r9, fp, ip, sp, pc}

000010cc <l949>:
    10cc:	e92d0f94 	push	{r2, r4, r7, r8, r9, sl, fp}

000010d0 <l950>:
    10d0:	e9bd5277 	ldmib	sp!, {r0, r1, r2, r4, r5, r6, r9, ip, lr}

000010d4 <l951>:
    10d4:	e9ad0004 	stmib	sp!, {r2}

000010d8 <l952>:
    10d8:	e82dc22a 	stmda	sp!, {r1, r3, r5, r9, lr, pc}

000010dc <l953>:
    10dc:	e9bd0201 	ldmib	sp!, {r0, r9}

000010e0 <l954>:
    10e0:	e93d543d 	ldmdb	sp!, {r0, r2, r3, r4, r5, sl, ip, lr}

000010e4 <l955>:
    10e4:	e1a00000 	nop			; (mov r0, r0)

000010e8 <l956>:
    10e8:	e93d0050 	ldmdb	sp!, {r4, r6}

000010ec <l957>:
    10ec:	e98d0601 	stmib	sp, {r0, r9, sl}

000010f0 <l958>:
    10f0:	e9bd1542 	ldmib	sp!, {r1, r6, r8, sl, ip}

000010f4 <l959>:
    10f4:	891d4389 	ldmdbhi	sp, {r0, r3, r7, r8, r9, lr}

000010f8 <l960>:
    10f8:	e8ad0808 	stmia	sp!, {r3, fp}

000010fc <l961>:
    10fc:	e92d2000 	stmfd	sp!, {sp}

00001100 <l962>:
    1100:	e1a00000 	nop			; (mov r0, r0)

00001104 <l963>:
    1104:	e9ad2000 	stmib	sp!, {sp}

00001108 <l964>:
    1108:	e90d01e2 	stmdb	sp, {r1, r5, r6, r7, r8}

0000110c <l965>:
    110c:	e8add960 	stmia	sp!, {r5, r6, r8, fp, ip, lr, pc}

00001110 <l966>:
    1110:	790dc132 	stmdbvc	sp, {r1, r4, r5, r8, lr, pc}

00001114 <l967>:
    1114:	e92de000 	push	{sp, lr, pc}

00001118 <l968>:
    1118:	e83d0010 	ldmda	sp!, {r4}

0000111c <l969>:
    111c:	e90d9b0d 	stmdb	sp, {r0, r2, r3, r8, r9, fp, ip, pc}

00001120 <l970>:
    1120:	e92d0900 	push	{r8, fp}

00001124 <l971>:
    1124:	e9ad5004 	stmib	sp!, {r2, ip, lr}

00001128 <l972>:
    1128:	e1a00000 	nop			; (mov r0, r0)

0000112c <l973>:
    112c:	e9bd4404 	ldmib	sp!, {r2, sl, lr}

00001130 <l974>:
    1130:	e1a00000 	nop			; (mov r0, r0)

00001134 <l975>:
    1134:	e1a00000 	nop			; (mov r0, r0)

00001138 <l976>:
    1138:	e93d0102 	ldmdb	sp!, {r1, r8}

0000113c <l977>:
    113c:	e83d0921 	ldmda	sp!, {r0, r5, r8, fp}

00001140 <l978>:
    1140:	e9bd1088 	ldmib	sp!, {r3, r7, ip}

00001144 <l979>:
    1144:	991d547d 	ldmdbls	sp, {r0, r2, r3, r4, r5, r6, sl, ip, lr}

00001148 <l980>:
    1148:	e1a00000 	nop			; (mov r0, r0)

0000114c <l981>:
    114c:	e83d44c5 	ldmda	sp!, {r0, r2, r6, r7, sl, lr}

00001150 <l982>:
    1150:	e8ad17c1 	stmia	sp!, {r0, r6, r7, r8, r9, sl, ip}

00001154 <l983>:
    1154:	e99d0840 	ldmib	sp, {r6, fp}

00001158 <l984>:
    1158:	e83d0544 	ldmda	sp!, {r2, r6, r8, sl}

0000115c <l985>:
    115c:	e82d0220 	stmda	sp!, {r5, r9}

00001160 <l986>:
    1160:	a91d0002 	ldmdbge	sp, {r1}

00001164 <l987>:
    1164:	699d0001 	ldmibvs	sp, {r0}

00001168 <l988>:
    1168:	e9bd0587 	ldmib	sp!, {r0, r1, r2, r7, r8, sl}

0000116c <l989>:
    116c:	e8ad0001 	stmia	sp!, {r0}

00001170 <l990>:
    1170:	e83d5ffe 	ldmda	sp!, {r1, r2, r3, r4, r5, r6, r7, r8, r9, sl, fp, ip, lr}

00001174 <l991>:
    1174:	e99d0412 	ldmib	sp, {r1, r4, sl}

00001178 <l992>:
    1178:	e99d1ffe 	ldmib	sp, {r1, r2, r3, r4, r5, r6, r7, r8, r9, sl, fp, ip}

0000117c <l993>:
    117c:	c98d8000 	stmibgt	sp, {pc}

00001180 <l994>:
    1180:	188d0089 	stmne	sp, {r0, r3, r7}

00001184 <l995>:
    1184:	e1a00000 	nop			; (mov r0, r0)

00001188 <l996>:
    1188:	e1a00000 	nop			; (mov r0, r0)

0000118c <l997>:
    118c:	e8ad6000 	stmia	sp!, {sp, lr}

00001190 <l998>:
    1190:	e1a00000 	nop			; (mov r0, r0)

00001194 <l999>:
    1194:	e91d0001 	ldmdb	sp, {r0}

00001198 <l1000>:
    1198:	e1a00000 	nop			; (mov r0, r0)

0000119c <end>:
    119c:	eafffffe 	b	119c <end>
