
ldr_alignment.o:     file format elf32-littlearm


Disassembly of section .text:

00000000 <main>:
       0:	e05f000f 	subs	r0, pc, pc
       4:	e59fd000 	ldr	sp, [pc]	; c <val>
       8:	ea000000 	b	10 <next>

0000000c <val>:
       c:	000ffff0 	.word	0x000ffff0

00000010 <next>:
      10:	e59f1000 	ldr	r1, [pc]	; 18 <val1>
      14:	ea000000 	b	1c <next1>

00000018 <val1>:
      18:	56ccb228 	.word	0x56ccb228

0000001c <next1>:
      1c:	e59f2000 	ldr	r2, [pc]	; 24 <val2>
      20:	ea000000 	b	28 <next2>

00000024 <val2>:
      24:	09805c76 	.word	0x09805c76

00000028 <next2>:
      28:	e59f3000 	ldr	r3, [pc]	; 30 <val3>
      2c:	ea000000 	b	34 <next3>

00000030 <val3>:
      30:	ef63a731 	.word	0xef63a731

00000034 <next3>:
      34:	e59f4000 	ldr	r4, [pc]	; 3c <val4>
      38:	ea000000 	b	40 <next4>

0000003c <val4>:
      3c:	85734e5e 	.word	0x85734e5e

00000040 <next4>:
      40:	e59f5000 	ldr	r5, [pc]	; 48 <val5>
      44:	ea000000 	b	4c <next5>

00000048 <val5>:
      48:	ff2ec6af 	.word	0xff2ec6af

0000004c <next5>:
      4c:	e59f6000 	ldr	r6, [pc]	; 54 <val6>
      50:	ea000000 	b	58 <next6>

00000054 <val6>:
      54:	e48758fe 	.word	0xe48758fe

00000058 <next6>:
      58:	e59f7000 	ldr	r7, [pc]	; 60 <val7>
      5c:	ea000000 	b	64 <next7>

00000060 <val7>:
      60:	e89f7001 	.word	0xe89f7001

00000064 <next7>:
      64:	e59f8000 	ldr	r8, [pc]	; 6c <val8>
      68:	ea000000 	b	70 <next8>

0000006c <val8>:
      6c:	0c69408e 	.word	0x0c69408e

00000070 <next8>:
      70:	e59f9000 	ldr	r9, [pc]	; 78 <val9>
      74:	ea000000 	b	7c <next9>

00000078 <val9>:
      78:	31a82f9c 	.word	0x31a82f9c

0000007c <next9>:
      7c:	e59fa000 	ldr	sl, [pc]	; 84 <val10>
      80:	ea000000 	b	88 <next10>

00000084 <val10>:
      84:	a93612eb 	.word	0xa93612eb

00000088 <next10>:
      88:	e59fb000 	ldr	fp, [pc]	; 90 <val11>
      8c:	ea000000 	b	94 <next11>

00000090 <val11>:
      90:	45f93bf7 	.word	0x45f93bf7

00000094 <next11>:
      94:	e59fc000 	ldr	ip, [pc]	; 9c <val12>
      98:	ea000000 	b	a0 <next12>

0000009c <val12>:
      9c:	b99f4ed6 	.word	0xb99f4ed6

000000a0 <next12>:
      a0:	e59fe000 	ldr	lr, [pc]	; a8 <val14>
      a4:	ea000000 	b	ac <next14>

000000a8 <val14>:
      a8:	788b1521 	.word	0x788b1521

000000ac <next14>:
      ac:	e59f1000 	ldr	r1, [pc]	; b4 <val15>
      b0:	ea000000 	b	b8 <next15>

000000b4 <val15>:
      b4:	d1a18096 	.word	0xd1a18096

000000b8 <next15>:
      b8:	e58d1000 	str	r1, [sp]
      bc:	e59f1000 	ldr	r1, [pc]	; c4 <val16>
      c0:	ea000000 	b	c8 <next16>

000000c4 <val16>:
      c4:	cfecced6 	.word	0xcfecced6

000000c8 <next16>:
      c8:	e50d1004 	str	r1, [sp, #-4]
      cc:	e59f1000 	ldr	r1, [pc]	; d4 <val17>
      d0:	ea000000 	b	d8 <next17>

000000d4 <val17>:
      d4:	a9abc989 	.word	0xa9abc989

000000d8 <next17>:
      d8:	e50d1008 	str	r1, [sp, #-8]
      dc:	e59f1000 	ldr	r1, [pc]	; e4 <val18>
      e0:	ea000000 	b	e8 <next18>

000000e4 <val18>:
      e4:	3d345c3b 	.word	0x3d345c3b

000000e8 <next18>:
      e8:	e50d100c 	str	r1, [sp, #-12]
      ec:	e59f1000 	ldr	r1, [pc]	; f4 <val19>
      f0:	ea000000 	b	f8 <next19>

000000f4 <val19>:
      f4:	878882f8 	.word	0x878882f8

000000f8 <next19>:
      f8:	e50d1010 	str	r1, [sp, #-16]
      fc:	e59f1000 	ldr	r1, [pc]	; 104 <val20>
     100:	ea000000 	b	108 <next20>

00000104 <val20>:
     104:	8667d2dd 	.word	0x8667d2dd

00000108 <next20>:
     108:	e50d1014 	str	r1, [sp, #-20]
     10c:	e59f1000 	ldr	r1, [pc]	; 114 <val21>
     110:	ea000000 	b	118 <next21>

00000114 <val21>:
     114:	bb583d47 	.word	0xbb583d47

00000118 <next21>:
     118:	e50d1018 	str	r1, [sp, #-24]
     11c:	e59f1000 	ldr	r1, [pc]	; 124 <val22>
     120:	ea000000 	b	128 <next22>

00000124 <val22>:
     124:	3dceed80 	.word	0x3dceed80

00000128 <next22>:
     128:	e50d101c 	str	r1, [sp, #-28]
     12c:	e59f1000 	ldr	r1, [pc]	; 134 <val23>
     130:	ea000000 	b	138 <next23>

00000134 <val23>:
     134:	0d9f69bd 	.word	0x0d9f69bd

00000138 <next23>:
     138:	e50d1020 	str	r1, [sp, #-32]
     13c:	e59f1000 	ldr	r1, [pc]	; 144 <val24>
     140:	ea000000 	b	148 <next24>

00000144 <val24>:
     144:	38bdbe59 	.word	0x38bdbe59

00000148 <next24>:
     148:	e50d1024 	str	r1, [sp, #-36]	; 0x24
     14c:	e59f1000 	ldr	r1, [pc]	; 154 <val25>
     150:	ea000000 	b	158 <next25>

00000154 <val25>:
     154:	db3076aa 	.word	0xdb3076aa

00000158 <next25>:
     158:	e50d1028 	str	r1, [sp, #-40]	; 0x28
     15c:	e59f1000 	ldr	r1, [pc]	; 164 <val26>
     160:	ea000000 	b	168 <next26>

00000164 <val26>:
     164:	37cbd4e6 	.word	0x37cbd4e6

00000168 <next26>:
     168:	e50d102c 	str	r1, [sp, #-44]	; 0x2c
     16c:	e59f1000 	ldr	r1, [pc]	; 174 <val27>
     170:	ea000000 	b	178 <next27>

00000174 <val27>:
     174:	2e0d56f6 	.word	0x2e0d56f6

00000178 <next27>:
     178:	e50d1030 	str	r1, [sp, #-48]	; 0x30
     17c:	e59f1000 	ldr	r1, [pc]	; 184 <val28>
     180:	ea000000 	b	188 <next28>

00000184 <val28>:
     184:	c4f7137a 	.word	0xc4f7137a

00000188 <next28>:
     188:	e50d1034 	str	r1, [sp, #-52]	; 0x34
     18c:	e59f1000 	ldr	r1, [pc]	; 194 <val29>
     190:	ea000000 	b	198 <next29>

00000194 <val29>:
     194:	7f5ceac8 	.word	0x7f5ceac8

00000198 <next29>:
     198:	e50d1038 	str	r1, [sp, #-56]	; 0x38
     19c:	e59f1000 	ldr	r1, [pc]	; 1a4 <val30>
     1a0:	ea000000 	b	1a8 <next30>

000001a4 <val30>:
     1a4:	a408c7ac 	.word	0xa408c7ac

000001a8 <next30>:
     1a8:	e50d103c 	str	r1, [sp, #-60]	; 0x3c
     1ac:	e59f1000 	ldr	r1, [pc]	; 1b4 <val31>
     1b0:	ea000000 	b	1b8 <next31>

000001b4 <val31>:
     1b4:	a0612207 	.word	0xa0612207

000001b8 <next31>:
     1b8:	e50d1040 	str	r1, [sp, #-64]	; 0x40
     1bc:	e59f1000 	ldr	r1, [pc]	; 1c4 <val32>
     1c0:	ea000000 	b	1c8 <next32>

000001c4 <val32>:
     1c4:	56794ab1 	.word	0x56794ab1

000001c8 <next32>:
     1c8:	e50d1044 	str	r1, [sp, #-68]	; 0x44
     1cc:	e59f1000 	ldr	r1, [pc]	; 1d4 <val33>
     1d0:	ea000000 	b	1d8 <next33>

000001d4 <val33>:
     1d4:	178816a2 	.word	0x178816a2

000001d8 <next33>:
     1d8:	e50d1048 	str	r1, [sp, #-72]	; 0x48
     1dc:	e59f1000 	ldr	r1, [pc]	; 1e4 <val34>
     1e0:	ea000000 	b	1e8 <next34>

000001e4 <val34>:
     1e4:	1fc20066 	.word	0x1fc20066

000001e8 <next34>:
     1e8:	e50d104c 	str	r1, [sp, #-76]	; 0x4c
     1ec:	e59f1000 	ldr	r1, [pc]	; 1f4 <val35>
     1f0:	ea000000 	b	1f8 <next35>

000001f4 <val35>:
     1f4:	00bf4232 	.word	0x00bf4232

000001f8 <next35>:
     1f8:	e50d1050 	str	r1, [sp, #-80]	; 0x50
     1fc:	e3a01c03 	mov	r1, #768	; 0x300
     200:	ee011f10 	mcr	15, 0, r1, cr1, cr0, {0}
     204:	e3a01603 	mov	r1, #3145728	; 0x300000
     208:	e59f2fc0 	ldr	r2, [pc, #4032]	; 11d0 <end+0x4>
     20c:	e5812000 	str	r2, [r1]
     210:	e3a01603 	mov	r1, #3145728	; 0x300000
     214:	ee021f10 	mcr	15, 0, r1, cr2, cr0, {0}
     218:	ee127f10 	mrc	15, 0, r7, cr2, cr0, {0}
     21c:	ee111f10 	mrc	15, 0, r1, cr1, cr0, {0}
     220:	e3811003 	orr	r1, r1, #3
     224:	ee011f10 	mcr	15, 0, r1, cr1, cr0, {0}

00000228 <l1>:
     228:	e3a0c03e 	mov	ip, #62	; 0x3e

0000022c <l2>:
     22c:	e61db00c 	ldr	fp, [sp], -ip

00000230 <l3>:
     230:	e3a09037 	mov	r9, #55	; 0x37

00000234 <l4>:
     234:	e79de009 	ldr	lr, [sp, r9]

00000238 <l5>:
     238:	e59d5030 	ldr	r5, [sp, #48]	; 0x30

0000023c <l6>:
     23c:	e3a09002 	mov	r9, #2

00000240 <l7>:
     240:	a71d7009 	ldrge	r7, [sp, -r9]

00000244 <l8>:
     244:	e3a0900a 	mov	r9, #10

00000248 <l9>:
     248:	e7bd2009 	ldr	r2, [sp, r9]!

0000024c <l10>:
     24c:	e41d000b 	ldr	r0, [sp], #-11

00000250 <l11>:
     250:	e49d8017 	ldr	r8, [sp], #23

00000254 <l12>:
     254:	e53da00b 	ldr	sl, [sp, #-11]!

00000258 <l13>:
     258:	e49d8006 	ldr	r8, [sp], #6

0000025c <l14>:
     25c:	e3a0c008 	mov	ip, #8

00000260 <l15>:
     260:	e7bd300c 	ldr	r3, [sp, ip]!

00000264 <l16>:
     264:	d59d3005 	ldrle	r3, [sp, #5]

00000268 <l17>:
     268:	e41d5000 	ldr	r5, [sp], #-0

0000026c <l18>:
     26c:	359d0019 	ldrcc	r0, [sp, #25]

00000270 <l19>:
     270:	e53de02b 	ldr	lr, [sp, #-43]!	; 0x2b

00000274 <l20>:
     274:	e5bda043 	ldr	sl, [sp, #67]!	; 0x43

00000278 <l21>:
     278:	251d000e 	ldrcs	r0, [sp, #-14]

0000027c <l22>:
     27c:	e53dc01e 	ldr	ip, [sp, #-30]!

00000280 <l23>:
     280:	e3a0901d 	mov	r9, #29

00000284 <l24>:
     284:	e69de009 	ldr	lr, [sp], r9

00000288 <l25>:
     288:	e59d7007 	ldr	r7, [sp, #7]

0000028c <l26>:
     28c:	e3a0403c 	mov	r4, #60	; 0x3c

00000290 <l27>:
     290:	e61d1004 	ldr	r1, [sp], -r4

00000294 <l28>:
     294:	e3a03016 	mov	r3, #22

00000298 <l29>:
     298:	c79d0003 	ldrgt	r0, [sp, r3]

0000029c <l30>:
     29c:	e3a0c040 	mov	ip, #64	; 0x40

000002a0 <l31>:
     2a0:	e7bd900c 	ldr	r9, [sp, ip]!

000002a4 <l32>:
     2a4:	e53de00b 	ldr	lr, [sp, #-11]!

000002a8 <l33>:
     2a8:	e41d201f 	ldr	r2, [sp], #-31

000002ac <l34>:
     2ac:	e5bd3005 	ldr	r3, [sp, #5]!

000002b0 <l35>:
     2b0:	e49d000d 	ldr	r0, [sp], #13

000002b4 <l36>:
     2b4:	e53d600b 	ldr	r6, [sp, #-11]!

000002b8 <l37>:
     2b8:	e3a02015 	mov	r2, #21

000002bc <l38>:
     2bc:	e69d3002 	ldr	r3, [sp], r2

000002c0 <l39>:
     2c0:	e3a0b032 	mov	fp, #50	; 0x32

000002c4 <l40>:
     2c4:	e61d800b 	ldr	r8, [sp], -fp

000002c8 <l41>:
     2c8:	e3a0801e 	mov	r8, #30

000002cc <l42>:
     2cc:	e69d8008 	ldr	r8, [sp], r8

000002d0 <l43>:
     2d0:	e3a05009 	mov	r5, #9

000002d4 <l44>:
     2d4:	e73d9005 	ldr	r9, [sp, -r5]!

000002d8 <l45>:
     2d8:	e3a0301e 	mov	r3, #30

000002dc <l46>:
     2dc:	879db003 	ldrhi	fp, [sp, r3]

000002e0 <l47>:
     2e0:	e3a0b016 	mov	fp, #22

000002e4 <l48>:
     2e4:	e69d700b 	ldr	r7, [sp], fp

000002e8 <l49>:
     2e8:	e59d1017 	ldr	r1, [sp, #23]

000002ec <l50>:
     2ec:	e3a03001 	mov	r3, #1

000002f0 <l51>:
     2f0:	e61d6003 	ldr	r6, [sp], -r3

000002f4 <l52>:
     2f4:	e41db006 	ldr	fp, [sp], #-6

000002f8 <l53>:
     2f8:	e3a0500e 	mov	r5, #14

000002fc <l54>:
     2fc:	979d5005 	ldrls	r5, [sp, r5]

00000300 <l55>:
     300:	659d4014 	ldrvs	r4, [sp, #20]

00000304 <l56>:
     304:	e41d700c 	ldr	r7, [sp], #-12

00000308 <l57>:
     308:	e3a0800e 	mov	r8, #14

0000030c <l58>:
     30c:	e7bda008 	ldr	sl, [sp, r8]!

00000310 <l59>:
     310:	e3a0e012 	mov	lr, #18

00000314 <l60>:
     314:	e69d100e 	ldr	r1, [sp], lr

00000318 <l61>:
     318:	e41d001c 	ldr	r0, [sp], #-28

0000031c <l62>:
     31c:	e3a0a017 	mov	sl, #23

00000320 <l63>:
     320:	e61dc00a 	ldr	ip, [sp], -sl

00000324 <l64>:
     324:	e5bdb030 	ldr	fp, [sp, #48]!	; 0x30

00000328 <l65>:
     328:	e3a0601b 	mov	r6, #27

0000032c <l66>:
     32c:	e71db006 	ldr	fp, [sp, -r6]

00000330 <l67>:
     330:	e3a0b018 	mov	fp, #24

00000334 <l68>:
     334:	e61d300b 	ldr	r3, [sp], -fp

00000338 <l69>:
     338:	e49d7023 	ldr	r7, [sp], #35	; 0x23

0000033c <l70>:
     33c:	e3a0403d 	mov	r4, #61	; 0x3d

00000340 <l71>:
     340:	e73d7004 	ldr	r7, [sp, -r4]!

00000344 <l72>:
     344:	e3a0e00a 	mov	lr, #10

00000348 <l73>:
     348:	e71d000e 	ldr	r0, [sp, -lr]

0000034c <l74>:
     34c:	e3a03040 	mov	r3, #64	; 0x40

00000350 <l75>:
     350:	e69da003 	ldr	sl, [sp], r3

00000354 <l76>:
     354:	e53d9016 	ldr	r9, [sp, #-22]!

00000358 <l77>:
     358:	e3a07004 	mov	r7, #4

0000035c <l78>:
     35c:	e79d8007 	ldr	r8, [sp, r7]

00000360 <l79>:
     360:	e53d3001 	ldr	r3, [sp, #-1]!

00000364 <l80>:
     364:	e53d800b 	ldr	r8, [sp, #-11]!

00000368 <l81>:
     368:	e49d9012 	ldr	r9, [sp], #18

0000036c <l82>:
     36c:	e41d0023 	ldr	r0, [sp], #-35	; 0x23

00000370 <l83>:
     370:	e3a05001 	mov	r5, #1

00000374 <l84>:
     374:	e71d4005 	ldr	r4, [sp, -r5]

00000378 <l85>:
     378:	e3a0b015 	mov	fp, #21

0000037c <l86>:
     37c:	e73d500b 	ldr	r5, [sp, -fp]!

00000380 <l87>:
     380:	e3a02004 	mov	r2, #4

00000384 <l88>:
     384:	e7bda002 	ldr	sl, [sp, r2]!

00000388 <l89>:
     388:	e5bdc016 	ldr	ip, [sp, #22]!

0000038c <l90>:
     38c:	e49d001e 	ldr	r0, [sp], #30

00000390 <l91>:
     390:	e3a0c022 	mov	ip, #34	; 0x22

00000394 <l92>:
     394:	e73d800c 	ldr	r8, [sp, -ip]!

00000398 <l93>:
     398:	e3a0b003 	mov	fp, #3

0000039c <l94>:
     39c:	e61da00b 	ldr	sl, [sp], -fp

000003a0 <l95>:
     3a0:	e3a0a004 	mov	sl, #4

000003a4 <l96>:
     3a4:	e7bd800a 	ldr	r8, [sp, sl]!

000003a8 <l97>:
     3a8:	e3a0b018 	mov	fp, #24

000003ac <l98>:
     3ac:	e61da00b 	ldr	sl, [sp], -fp

000003b0 <l99>:
     3b0:	e3a0b019 	mov	fp, #25

000003b4 <l100>:
     3b4:	e69d200b 	ldr	r2, [sp], fp

000003b8 <l101>:
     3b8:	e51d5002 	ldr	r5, [sp, #-2]

000003bc <l102>:
     3bc:	e3a05021 	mov	r5, #33	; 0x21

000003c0 <l103>:
     3c0:	e79dc005 	ldr	ip, [sp, r5]

000003c4 <l104>:
     3c4:	e53d7006 	ldr	r7, [sp, #-6]!

000003c8 <l105>:
     3c8:	459d5005 	ldrmi	r5, [sp, #5]

000003cc <l106>:
     3cc:	e59d1013 	ldr	r1, [sp, #19]

000003d0 <l107>:
     3d0:	e3a04020 	mov	r4, #32

000003d4 <l108>:
     3d4:	379d5004 	ldrcc	r5, [sp, r4]

000003d8 <l109>:
     3d8:	059d600f 	ldreq	r6, [sp, #15]

000003dc <l110>:
     3dc:	e3a0102e 	mov	r1, #46	; 0x2e

000003e0 <l111>:
     3e0:	e69d7001 	ldr	r7, [sp], r1

000003e4 <l112>:
     3e4:	e3a04018 	mov	r4, #24

000003e8 <l113>:
     3e8:	e61d4004 	ldr	r4, [sp], -r4

000003ec <l114>:
     3ec:	e3a07028 	mov	r7, #40	; 0x28

000003f0 <l115>:
     3f0:	e61d9007 	ldr	r9, [sp], -r7

000003f4 <l116>:
     3f4:	e3a05034 	mov	r5, #52	; 0x34

000003f8 <l117>:
     3f8:	e7bdb005 	ldr	fp, [sp, r5]!

000003fc <l118>:
     3fc:	e3a02007 	mov	r2, #7

00000400 <l119>:
     400:	571d5002 	ldrpl	r5, [sp, -r2]

00000404 <l120>:
     404:	e3a0b020 	mov	fp, #32

00000408 <l121>:
     408:	371d900b 	ldrcc	r9, [sp, -fp]

0000040c <l122>:
     40c:	551de037 	ldrpl	lr, [sp, #-55]	; 0x37

00000410 <l123>:
     410:	e59d1009 	ldr	r1, [sp, #9]

00000414 <l124>:
     414:	e3a0b020 	mov	fp, #32

00000418 <l125>:
     418:	e61d400b 	ldr	r4, [sp], -fp

0000041c <l126>:
     41c:	e49d9032 	ldr	r9, [sp], #50	; 0x32

00000420 <l127>:
     420:	e3a0601d 	mov	r6, #29

00000424 <l128>:
     424:	871d8006 	ldrhi	r8, [sp, -r6]

00000428 <l129>:
     428:	e41d9021 	ldr	r9, [sp], #-33	; 0x21

0000042c <l130>:
     42c:	e3a06016 	mov	r6, #22

00000430 <l131>:
     430:	e71d2006 	ldr	r2, [sp, -r6]

00000434 <l132>:
     434:	e53de025 	ldr	lr, [sp, #-37]!	; 0x25

00000438 <l133>:
     438:	e3a02005 	mov	r2, #5

0000043c <l134>:
     43c:	579da002 	ldrpl	sl, [sp, r2]

00000440 <l135>:
     440:	e3a0c010 	mov	ip, #16

00000444 <l136>:
     444:	e79de00c 	ldr	lr, [sp, ip]

00000448 <l137>:
     448:	e3a0b037 	mov	fp, #55	; 0x37

0000044c <l138>:
     44c:	e7bde00b 	ldr	lr, [sp, fp]!

00000450 <l139>:
     450:	e3a08004 	mov	r8, #4

00000454 <l140>:
     454:	e61d1008 	ldr	r1, [sp], -r8

00000458 <l141>:
     458:	e3a0a031 	mov	sl, #49	; 0x31

0000045c <l142>:
     45c:	e73d200a 	ldr	r2, [sp, -sl]!

00000460 <l143>:
     460:	e59dc01b 	ldr	ip, [sp, #27]

00000464 <l144>:
     464:	e3a08038 	mov	r8, #56	; 0x38

00000468 <l145>:
     468:	e7bd4008 	ldr	r4, [sp, r8]!

0000046c <l146>:
     46c:	e51d8019 	ldr	r8, [sp, #-25]

00000470 <l147>:
     470:	e41d400d 	ldr	r4, [sp], #-13

00000474 <l148>:
     474:	e41d3014 	ldr	r3, [sp], #-20

00000478 <l149>:
     478:	e3a02018 	mov	r2, #24

0000047c <l150>:
     47c:	e69d5002 	ldr	r5, [sp], r2

00000480 <l151>:
     480:	e3a07015 	mov	r7, #21

00000484 <l152>:
     484:	e61d3007 	ldr	r3, [sp], -r7

00000488 <l153>:
     488:	e41d701d 	ldr	r7, [sp], #-29

0000048c <l154>:
     48c:	e3a04007 	mov	r4, #7

00000490 <l155>:
     490:	e79d4004 	ldr	r4, [sp, r4]

00000494 <l156>:
     494:	e3a07016 	mov	r7, #22

00000498 <l157>:
     498:	e7bd0007 	ldr	r0, [sp, r7]!

0000049c <l158>:
     49c:	e41dc016 	ldr	ip, [sp], #-22

000004a0 <l159>:
     4a0:	e3a05034 	mov	r5, #52	; 0x34

000004a4 <l160>:
     4a4:	e79dc005 	ldr	ip, [sp, r5]

000004a8 <l161>:
     4a8:	e59dc014 	ldr	ip, [sp, #20]

000004ac <l162>:
     4ac:	e49db002 	ldr	fp, [sp], #2

000004b0 <l163>:
     4b0:	e5bd6034 	ldr	r6, [sp, #52]!	; 0x34

000004b4 <l164>:
     4b4:	e49d4004 	pop	{r4}		; (ldr r4, [sp], #4)

000004b8 <l165>:
     4b8:	e51de013 	ldr	lr, [sp, #-19]

000004bc <l166>:
     4bc:	e3a0e00f 	mov	lr, #15

000004c0 <l167>:
     4c0:	e7bd400e 	ldr	r4, [sp, lr]!

000004c4 <l168>:
     4c4:	e41da00b 	ldr	sl, [sp], #-11

000004c8 <l169>:
     4c8:	e3a0b034 	mov	fp, #52	; 0x34

000004cc <l170>:
     4cc:	e61da00b 	ldr	sl, [sp], -fp

000004d0 <l171>:
     4d0:	e5bdb025 	ldr	fp, [sp, #37]!	; 0x25

000004d4 <l172>:
     4d4:	a59d7010 	ldrge	r7, [sp, #16]

000004d8 <l173>:
     4d8:	e3a0501b 	mov	r5, #27

000004dc <l174>:
     4dc:	e73db005 	ldr	fp, [sp, -r5]!

000004e0 <l175>:
     4e0:	e59d9023 	ldr	r9, [sp, #35]	; 0x23

000004e4 <l176>:
     4e4:	e49d8002 	ldr	r8, [sp], #2

000004e8 <l177>:
     4e8:	e3a01009 	mov	r1, #9

000004ec <l178>:
     4ec:	671d2001 	ldrvs	r2, [sp, -r1]

000004f0 <l179>:
     4f0:	e3a05024 	mov	r5, #36	; 0x24

000004f4 <l180>:
     4f4:	e69d6005 	ldr	r6, [sp], r5

000004f8 <l181>:
     4f8:	e51dc02e 	ldr	ip, [sp, #-46]	; 0x2e

000004fc <l182>:
     4fc:	e51d102e 	ldr	r1, [sp, #-46]	; 0x2e

00000500 <l183>:
     500:	251db02d 	ldrcs	fp, [sp, #-45]	; 0x2d

00000504 <l184>:
     504:	e49d6000 	ldr	r6, [sp], #0

00000508 <l185>:
     508:	e3a0b012 	mov	fp, #18

0000050c <l186>:
     50c:	e71db00b 	ldr	fp, [sp, -fp]

00000510 <l187>:
     510:	e41d3020 	ldr	r3, [sp], #-32

00000514 <l188>:
     514:	d59d6006 	ldrle	r6, [sp, #6]

00000518 <l189>:
     518:	e3a0000b 	mov	r0, #11

0000051c <l190>:
     51c:	e7bdb000 	ldr	fp, [sp, r0]!

00000520 <l191>:
     520:	e5bdb00d 	ldr	fp, [sp, #13]!

00000524 <l192>:
     524:	e41d0012 	ldr	r0, [sp], #-18

00000528 <l193>:
     528:	e3a0c01a 	mov	ip, #26

0000052c <l194>:
     52c:	e73d600c 	ldr	r6, [sp, -ip]!

00000530 <l195>:
     530:	e3a07012 	mov	r7, #18

00000534 <l196>:
     534:	e69d9007 	ldr	r9, [sp], r7

00000538 <l197>:
     538:	e49d7018 	ldr	r7, [sp], #24

0000053c <l198>:
     53c:	e53dc022 	ldr	ip, [sp, #-34]!	; 0x22

00000540 <l199>:
     540:	c51d300c 	ldrgt	r3, [sp, #-12]

00000544 <l200>:
     544:	c59db038 	ldrgt	fp, [sp, #56]	; 0x38

00000548 <l201>:
     548:	e59d6017 	ldr	r6, [sp, #23]

0000054c <l202>:
     54c:	e59d403b 	ldr	r4, [sp, #59]	; 0x3b

00000550 <l203>:
     550:	e3a08018 	mov	r8, #24

00000554 <l204>:
     554:	e69de008 	ldr	lr, [sp], r8

00000558 <l205>:
     558:	e3a0200a 	mov	r2, #10

0000055c <l206>:
     55c:	e79d9002 	ldr	r9, [sp, r2]

00000560 <l207>:
     560:	e41d901c 	ldr	r9, [sp], #-28

00000564 <l208>:
     564:	e3a07009 	mov	r7, #9

00000568 <l209>:
     568:	e69d7007 	ldr	r7, [sp], r7

0000056c <l210>:
     56c:	b59dc02a 	ldrlt	ip, [sp, #42]	; 0x2a

00000570 <l211>:
     570:	e3a02008 	mov	r2, #8

00000574 <l212>:
     574:	e61d4002 	ldr	r4, [sp], -r2

00000578 <l213>:
     578:	051db00b 	ldreq	fp, [sp, #-11]

0000057c <l214>:
     57c:	e49da025 	ldr	sl, [sp], #37	; 0x25

00000580 <l215>:
     580:	e41d2025 	ldr	r2, [sp], #-37	; 0x25

00000584 <l216>:
     584:	e3a0401e 	mov	r4, #30

00000588 <l217>:
     588:	679d0004 	ldrvs	r0, [sp, r4]

0000058c <l218>:
     58c:	e3a0a032 	mov	sl, #50	; 0x32

00000590 <l219>:
     590:	a79da00a 	ldrge	sl, [sp, sl]

00000594 <l220>:
     594:	e3a0803d 	mov	r8, #61	; 0x3d

00000598 <l221>:
     598:	e69d1008 	ldr	r1, [sp], r8

0000059c <l222>:
     59c:	e53d1040 	ldr	r1, [sp, #-64]!	; 0x40

000005a0 <l223>:
     5a0:	e5bd7012 	ldr	r7, [sp, #18]!

000005a4 <l224>:
     5a4:	e3a02002 	mov	r2, #2

000005a8 <l225>:
     5a8:	e7bd1002 	ldr	r1, [sp, r2]!

000005ac <l226>:
     5ac:	e3a0c024 	mov	ip, #36	; 0x24

000005b0 <l227>:
     5b0:	e79d700c 	ldr	r7, [sp, ip]

000005b4 <l228>:
     5b4:	e3a0e028 	mov	lr, #40	; 0x28

000005b8 <l229>:
     5b8:	e79d700e 	ldr	r7, [sp, lr]

000005bc <l230>:
     5bc:	e3a09007 	mov	r9, #7

000005c0 <l231>:
     5c0:	e73da009 	ldr	sl, [sp, -r9]!

000005c4 <l232>:
     5c4:	e3a0c016 	mov	ip, #22

000005c8 <l233>:
     5c8:	e71d600c 	ldr	r6, [sp, -ip]

000005cc <l234>:
     5cc:	e3a0b015 	mov	fp, #21

000005d0 <l235>:
     5d0:	e69db00b 	ldr	fp, [sp], fp

000005d4 <l236>:
     5d4:	e3a0001f 	mov	r0, #31

000005d8 <l237>:
     5d8:	e69d0000 	ldr	r0, [sp], r0

000005dc <l238>:
     5dc:	e3a09032 	mov	r9, #50	; 0x32

000005e0 <l239>:
     5e0:	e61d9009 	ldr	r9, [sp], -r9

000005e4 <l240>:
     5e4:	e3a03018 	mov	r3, #24

000005e8 <l241>:
     5e8:	e7bd9003 	ldr	r9, [sp, r3]!

000005ec <l242>:
     5ec:	551dc018 	ldrpl	ip, [sp, #-24]

000005f0 <l243>:
     5f0:	051d0022 	ldreq	r0, [sp, #-34]	; 0x22

000005f4 <l244>:
     5f4:	e3a06003 	mov	r6, #3

000005f8 <l245>:
     5f8:	e7bd9006 	ldr	r9, [sp, r6]!

000005fc <l246>:
     5fc:	e53d000e 	ldr	r0, [sp, #-14]!

00000600 <l247>:
     600:	e3a07003 	mov	r7, #3

00000604 <l248>:
     604:	e73d2007 	ldr	r2, [sp, -r7]!

00000608 <l249>:
     608:	e51d400e 	ldr	r4, [sp, #-14]

0000060c <l250>:
     60c:	e51d7016 	ldr	r7, [sp, #-22]

00000610 <l251>:
     610:	e3a09014 	mov	r9, #20

00000614 <l252>:
     614:	e73d3009 	ldr	r3, [sp, -r9]!

00000618 <l253>:
     618:	e3a0703b 	mov	r7, #59	; 0x3b

0000061c <l254>:
     61c:	e69d1007 	ldr	r1, [sp], r7

00000620 <l255>:
     620:	851d8014 	ldrhi	r8, [sp, #-20]

00000624 <l256>:
     624:	e3a0b028 	mov	fp, #40	; 0x28

00000628 <l257>:
     628:	e73d800b 	ldr	r8, [sp, -fp]!

0000062c <l258>:
     62c:	e3a04009 	mov	r4, #9

00000630 <l259>:
     630:	e7bd6004 	ldr	r6, [sp, r4]!

00000634 <l260>:
     634:	e41d7011 	ldr	r7, [sp], #-17

00000638 <l261>:
     638:	e3a0400c 	mov	r4, #12

0000063c <l262>:
     63c:	679da004 	ldrvs	sl, [sp, r4]

00000640 <l263>:
     640:	e49d201d 	ldr	r2, [sp], #29

00000644 <l264>:
     644:	e3a08012 	mov	r8, #18

00000648 <l265>:
     648:	e79d8008 	ldr	r8, [sp, r8]

0000064c <l266>:
     64c:	e3a06025 	mov	r6, #37	; 0x25

00000650 <l267>:
     650:	e71d7006 	ldr	r7, [sp, -r6]

00000654 <l268>:
     654:	e41d4026 	ldr	r4, [sp], #-38	; 0x26

00000658 <l269>:
     658:	e3a02028 	mov	r2, #40	; 0x28

0000065c <l270>:
     65c:	e69d0002 	ldr	r0, [sp], r2

00000660 <l271>:
     660:	e3a0a024 	mov	sl, #36	; 0x24

00000664 <l272>:
     664:	e71d400a 	ldr	r4, [sp, -sl]

00000668 <l273>:
     668:	e3a05022 	mov	r5, #34	; 0x22

0000066c <l274>:
     66c:	e71d3005 	ldr	r3, [sp, -r5]

00000670 <l275>:
     670:	e41de007 	ldr	lr, [sp], #-7

00000674 <l276>:
     674:	e3a0701b 	mov	r7, #27

00000678 <l277>:
     678:	e73d7007 	ldr	r7, [sp, -r7]!

0000067c <l278>:
     67c:	e3a07007 	mov	r7, #7

00000680 <l279>:
     680:	e69de007 	ldr	lr, [sp], r7

00000684 <l280>:
     684:	e3a0401c 	mov	r4, #28

00000688 <l281>:
     688:	e79dc004 	ldr	ip, [sp, r4]

0000068c <l282>:
     68c:	e3a01002 	mov	r1, #2

00000690 <l283>:
     690:	e79d7001 	ldr	r7, [sp, r1]

00000694 <l284>:
     694:	e3a03017 	mov	r3, #23

00000698 <l285>:
     698:	671d5003 	ldrvs	r5, [sp, -r3]

0000069c <l286>:
     69c:	e3a0c00f 	mov	ip, #15

000006a0 <l287>:
     6a0:	e79d700c 	ldr	r7, [sp, ip]

000006a4 <l288>:
     6a4:	559de00f 	ldrpl	lr, [sp, #15]

000006a8 <l289>:
     6a8:	e3a0101e 	mov	r1, #30

000006ac <l290>:
     6ac:	e69d1001 	ldr	r1, [sp], r1

000006b0 <l291>:
     6b0:	e41d003b 	ldr	r0, [sp], #-59	; 0x3b

000006b4 <l292>:
     6b4:	e49d9015 	ldr	r9, [sp], #21

000006b8 <l293>:
     6b8:	e3a0100d 	mov	r1, #13

000006bc <l294>:
     6bc:	e61d8001 	ldr	r8, [sp], -r1

000006c0 <l295>:
     6c0:	659d0006 	ldrvs	r0, [sp, #6]

000006c4 <l296>:
     6c4:	e49db022 	ldr	fp, [sp], #34	; 0x22

000006c8 <l297>:
     6c8:	751d0022 	ldrvc	r0, [sp, #-34]	; 0x22

000006cc <l298>:
     6cc:	059de013 	ldreq	lr, [sp, #19]

000006d0 <l299>:
     6d0:	e5bd7019 	ldr	r7, [sp, #25]!

000006d4 <l300>:
     6d4:	e3a01039 	mov	r1, #57	; 0x39

000006d8 <l301>:
     6d8:	e61d2001 	ldr	r2, [sp], -r1

000006dc <l302>:
     6dc:	e49d4024 	ldr	r4, [sp], #36	; 0x24

000006e0 <l303>:
     6e0:	e53d7006 	ldr	r7, [sp, #-6]!

000006e4 <l304>:
     6e4:	e3a05015 	mov	r5, #21

000006e8 <l305>:
     6e8:	e61d0005 	ldr	r0, [sp], -r5

000006ec <l306>:
     6ec:	e49d7018 	ldr	r7, [sp], #24

000006f0 <l307>:
     6f0:	e5bde009 	ldr	lr, [sp, #9]!

000006f4 <l308>:
     6f4:	e5bd700a 	ldr	r7, [sp, #10]!

000006f8 <l309>:
     6f8:	e3a0e009 	mov	lr, #9

000006fc <l310>:
     6fc:	d71d000e 	ldrle	r0, [sp, -lr]

00000700 <l311>:
     700:	e3a0301c 	mov	r3, #28

00000704 <l312>:
     704:	e73da003 	ldr	sl, [sp, -r3]!

00000708 <l313>:
     708:	e49d3022 	ldr	r3, [sp], #34	; 0x22

0000070c <l314>:
     70c:	e3a05022 	mov	r5, #34	; 0x22

00000710 <l315>:
     710:	e61d1005 	ldr	r1, [sp], -r5

00000714 <l316>:
     714:	e49da00f 	ldr	sl, [sp], #15

00000718 <l317>:
     718:	e3a0600b 	mov	r6, #11

0000071c <l318>:
     71c:	e73d4006 	ldr	r4, [sp, -r6]!

00000720 <l319>:
     720:	e5bd000b 	ldr	r0, [sp, #11]!

00000724 <l320>:
     724:	e41de00b 	ldr	lr, [sp], #-11

00000728 <l321>:
     728:	251d9002 	ldrcs	r9, [sp, #-2]

0000072c <l322>:
     72c:	d51d7014 	ldrle	r7, [sp, #-20]

00000730 <l323>:
     730:	e3a03009 	mov	r3, #9

00000734 <l324>:
     734:	e61da003 	ldr	sl, [sp], -r3

00000738 <l325>:
     738:	e53db016 	ldr	fp, [sp, #-22]!

0000073c <l326>:
     73c:	959d7004 	ldrls	r7, [sp, #4]

00000740 <l327>:
     740:	e3a0a021 	mov	sl, #33	; 0x21

00000744 <l328>:
     744:	e69d300a 	ldr	r3, [sp], sl

00000748 <l329>:
     748:	e5bda014 	ldr	sl, [sp, #20]!

0000074c <l330>:
     74c:	e5bd500a 	ldr	r5, [sp, #10]!

00000750 <l331>:
     750:	e41db00e 	ldr	fp, [sp], #-14

00000754 <l332>:
     754:	e51d9023 	ldr	r9, [sp, #-35]	; 0x23

00000758 <l333>:
     758:	e3a0b01d 	mov	fp, #29

0000075c <l334>:
     75c:	e73d200b 	ldr	r2, [sp, -fp]!

00000760 <l335>:
     760:	e3a09003 	mov	r9, #3

00000764 <l336>:
     764:	e79d9009 	ldr	r9, [sp, r9]

00000768 <l337>:
     768:	e49d202b 	ldr	r2, [sp], #43	; 0x2b

0000076c <l338>:
     76c:	e41d0012 	ldr	r0, [sp], #-18

00000770 <l339>:
     770:	e53dc023 	ldr	ip, [sp, #-35]!	; 0x23

00000774 <l340>:
     774:	e3a0801f 	mov	r8, #31

00000778 <l341>:
     778:	c79d4008 	ldrgt	r4, [sp, r8]

0000077c <l342>:
     77c:	e3a09010 	mov	r9, #16

00000780 <l343>:
     780:	e73d8009 	ldr	r8, [sp, -r9]!

00000784 <l344>:
     784:	e3a0a021 	mov	sl, #33	; 0x21

00000788 <l345>:
     788:	e7bd300a 	ldr	r3, [sp, sl]!

0000078c <l346>:
     78c:	e3a0c00a 	mov	ip, #10

00000790 <l347>:
     790:	e69d000c 	ldr	r0, [sp], ip

00000794 <l348>:
     794:	e49d8009 	ldr	r8, [sp], #9

00000798 <l349>:
     798:	e3a0200f 	mov	r2, #15

0000079c <l350>:
     79c:	e69d5002 	ldr	r5, [sp], r2

000007a0 <l351>:
     7a0:	e3a0c043 	mov	ip, #67	; 0x43

000007a4 <l352>:
     7a4:	e61d300c 	ldr	r3, [sp], -ip

000007a8 <l353>:
     7a8:	e3a05003 	mov	r5, #3

000007ac <l354>:
     7ac:	e69dc005 	ldr	ip, [sp], r5

000007b0 <l355>:
     7b0:	e3a0203d 	mov	r2, #61	; 0x3d

000007b4 <l356>:
     7b4:	e79d2002 	ldr	r2, [sp, r2]

000007b8 <l357>:
     7b8:	e41d0002 	ldr	r0, [sp], #-2

000007bc <l358>:
     7bc:	e41da003 	ldr	sl, [sp], #-3

000007c0 <l359>:
     7c0:	e3a0000b 	mov	r0, #11

000007c4 <l360>:
     7c4:	e69d7000 	ldr	r7, [sp], r0

000007c8 <l361>:
     7c8:	e59da012 	ldr	sl, [sp, #18]

000007cc <l362>:
     7cc:	659d001f 	ldrvs	r0, [sp, #31]

000007d0 <l363>:
     7d0:	e3a06017 	mov	r6, #23

000007d4 <l364>:
     7d4:	e7bd4006 	ldr	r4, [sp, r6]!

000007d8 <l365>:
     7d8:	e3a05018 	mov	r5, #24

000007dc <l366>:
     7dc:	e73d4005 	ldr	r4, [sp, -r5]!

000007e0 <l367>:
     7e0:	e3a0c02b 	mov	ip, #43	; 0x2b

000007e4 <l368>:
     7e4:	e7bda00c 	ldr	sl, [sp, ip]!

000007e8 <l369>:
     7e8:	e41d8004 	ldr	r8, [sp], #-4

000007ec <l370>:
     7ec:	e59d2009 	ldr	r2, [sp, #9]

000007f0 <l371>:
     7f0:	e53da01f 	ldr	sl, [sp, #-31]!

000007f4 <l372>:
     7f4:	e3a03001 	mov	r3, #1

000007f8 <l373>:
     7f8:	e61d2003 	ldr	r2, [sp], -r3

000007fc <l374>:
     7fc:	e5bd0013 	ldr	r0, [sp, #19]!

00000800 <l375>:
     800:	e3a0b00e 	mov	fp, #14

00000804 <l376>:
     804:	e7bd100b 	ldr	r1, [sp, fp]!

00000808 <l377>:
     808:	e3a00015 	mov	r0, #21

0000080c <l378>:
     80c:	e79db000 	ldr	fp, [sp, r0]

00000810 <l379>:
     810:	859d900e 	ldrhi	r9, [sp, #14]

00000814 <l380>:
     814:	e3a0e026 	mov	lr, #38	; 0x26

00000818 <l381>:
     818:	e73d700e 	ldr	r7, [sp, -lr]!

0000081c <l382>:
     81c:	251db008 	ldrcs	fp, [sp, #-8]

00000820 <l383>:
     820:	e3a01006 	mov	r1, #6

00000824 <l384>:
     824:	e7bd5001 	ldr	r5, [sp, r1]!

00000828 <l385>:
     828:	e49d601b 	ldr	r6, [sp], #27

0000082c <l386>:
     82c:	e5bd6006 	ldr	r6, [sp, #6]!

00000830 <l387>:
     830:	e59d9009 	ldr	r9, [sp, #9]

00000834 <l388>:
     834:	e3a06007 	mov	r6, #7

00000838 <l389>:
     838:	171d0006 	ldrne	r0, [sp, -r6]

0000083c <l390>:
     83c:	e53d1032 	ldr	r1, [sp, #-50]!	; 0x32

00000840 <l391>:
     840:	e3a01002 	mov	r1, #2

00000844 <l392>:
     844:	e61d9001 	ldr	r9, [sp], -r1

00000848 <l393>:
     848:	e51db000 	ldr	fp, [sp, #-0]

0000084c <l394>:
     84c:	659dc01a 	ldrvs	ip, [sp, #26]

00000850 <l395>:
     850:	e3a0e031 	mov	lr, #49	; 0x31

00000854 <l396>:
     854:	e69dc00e 	ldr	ip, [sp], lr

00000858 <l397>:
     858:	e49d400a 	ldr	r4, [sp], #10

0000085c <l398>:
     85c:	e41d203a 	ldr	r2, [sp], #-58	; 0x3a

00000860 <l399>:
     860:	e49d1024 	ldr	r1, [sp], #36	; 0x24

00000864 <l400>:
     864:	751d302b 	ldrvc	r3, [sp, #-43]	; 0x2b

00000868 <l401>:
     868:	e41d3016 	ldr	r3, [sp], #-22

0000086c <l402>:
     86c:	959d2019 	ldrls	r2, [sp, #25]

00000870 <l403>:
     870:	e51d4013 	ldr	r4, [sp, #-19]

00000874 <l404>:
     874:	e5bd0012 	ldr	r0, [sp, #18]!

00000878 <l405>:
     878:	e3a0b022 	mov	fp, #34	; 0x22

0000087c <l406>:
     87c:	179d300b 	ldrne	r3, [sp, fp]

00000880 <l407>:
     880:	351d4021 	ldrcc	r4, [sp, #-33]	; 0x21

00000884 <l408>:
     884:	e3a04009 	mov	r4, #9

00000888 <l409>:
     888:	e73d2004 	ldr	r2, [sp, -r4]!

0000088c <l410>:
     88c:	e3a01017 	mov	r1, #23

00000890 <l411>:
     890:	e61d7001 	ldr	r7, [sp], -r1

00000894 <l412>:
     894:	e49d100e 	ldr	r1, [sp], #14

00000898 <l413>:
     898:	e3a0e00a 	mov	lr, #10

0000089c <l414>:
     89c:	e73d200e 	ldr	r2, [sp, -lr]!

000008a0 <l415>:
     8a0:	e5bd201c 	ldr	r2, [sp, #28]!

000008a4 <l416>:
     8a4:	151d001a 	ldrne	r0, [sp, #-26]

000008a8 <l417>:
     8a8:	e41d400e 	ldr	r4, [sp], #-14

000008ac <l418>:
     8ac:	e5bd2018 	ldr	r2, [sp, #24]!

000008b0 <l419>:
     8b0:	e3a00010 	mov	r0, #16

000008b4 <l420>:
     8b4:	e69d7000 	ldr	r7, [sp], r0

000008b8 <l421>:
     8b8:	351d7005 	ldrcc	r7, [sp, #-5]

000008bc <l422>:
     8bc:	e41d203a 	ldr	r2, [sp], #-58	; 0x3a

000008c0 <l423>:
     8c0:	e5bd603b 	ldr	r6, [sp, #59]!	; 0x3b

000008c4 <l424>:
     8c4:	e41d903d 	ldr	r9, [sp], #-61	; 0x3d

000008c8 <l425>:
     8c8:	a59d8010 	ldrge	r8, [sp, #16]

000008cc <l426>:
     8cc:	e3a0e003 	mov	lr, #3

000008d0 <l427>:
     8d0:	e61d900e 	ldr	r9, [sp], -lr

000008d4 <l428>:
     8d4:	e3a03023 	mov	r3, #35	; 0x23

000008d8 <l429>:
     8d8:	e7bd9003 	ldr	r9, [sp, r3]!

000008dc <l430>:
     8dc:	e3a05005 	mov	r5, #5

000008e0 <l431>:
     8e0:	e71d8005 	ldr	r8, [sp, -r5]

000008e4 <l432>:
     8e4:	e51da021 	ldr	sl, [sp, #-33]	; 0x21

000008e8 <l433>:
     8e8:	e3a01005 	mov	r1, #5

000008ec <l434>:
     8ec:	e61d8001 	ldr	r8, [sp], -r1

000008f0 <l435>:
     8f0:	e3a05012 	mov	r5, #18

000008f4 <l436>:
     8f4:	e7bd9005 	ldr	r9, [sp, r5]!

000008f8 <l437>:
     8f8:	e5bd4005 	ldr	r4, [sp, #5]!

000008fc <l438>:
     8fc:	e3a08000 	mov	r8, #0

00000900 <l439>:
     900:	879dc008 	ldrhi	ip, [sp, r8]

00000904 <l440>:
     904:	e53db006 	ldr	fp, [sp, #-6]!

00000908 <l441>:
     908:	751d9012 	ldrvc	r9, [sp, #-18]

0000090c <l442>:
     90c:	e3a02006 	mov	r2, #6

00000910 <l443>:
     910:	e79d0002 	ldr	r0, [sp, r2]

00000914 <l444>:
     914:	559da016 	ldrpl	sl, [sp, #22]

00000918 <l445>:
     918:	e3a08010 	mov	r8, #16

0000091c <l446>:
     91c:	e61d3008 	ldr	r3, [sp], -r8

00000920 <l447>:
     920:	e41da005 	ldr	sl, [sp], #-5

00000924 <l448>:
     924:	e3a0600d 	mov	r6, #13

00000928 <l449>:
     928:	e69d3006 	ldr	r3, [sp], r6

0000092c <l450>:
     92c:	e3a0200e 	mov	r2, #14

00000930 <l451>:
     930:	e69d2002 	ldr	r2, [sp], r2

00000934 <l452>:
     934:	e51d902e 	ldr	r9, [sp, #-46]	; 0x2e

00000938 <l453>:
     938:	e3a0901c 	mov	r9, #28

0000093c <l454>:
     93c:	e73d3009 	ldr	r3, [sp, -r9]!

00000940 <l455>:
     940:	e5bd8025 	ldr	r8, [sp, #37]!	; 0x25

00000944 <l456>:
     944:	e3a0b018 	mov	fp, #24

00000948 <l457>:
     948:	e61dc00b 	ldr	ip, [sp], -fp

0000094c <l458>:
     94c:	e5bde00a 	ldr	lr, [sp, #10]!

00000950 <l459>:
     950:	e41d7011 	ldr	r7, [sp], #-17

00000954 <l460>:
     954:	e5bd000f 	ldr	r0, [sp, #15]!

00000958 <l461>:
     958:	e3a05027 	mov	r5, #39	; 0x27

0000095c <l462>:
     95c:	e73d5005 	ldr	r5, [sp, -r5]!

00000960 <l463>:
     960:	e3a0a024 	mov	sl, #36	; 0x24

00000964 <l464>:
     964:	e79da00a 	ldr	sl, [sp, sl]

00000968 <l465>:
     968:	e3a07001 	mov	r7, #1

0000096c <l466>:
     96c:	e73d1007 	ldr	r1, [sp, -r7]!

00000970 <l467>:
     970:	e3a09000 	mov	r9, #0

00000974 <l468>:
     974:	d71d1009 	ldrle	r1, [sp, -r9]

00000978 <l469>:
     978:	e3a08037 	mov	r8, #55	; 0x37

0000097c <l470>:
     97c:	e79d5008 	ldr	r5, [sp, r8]

00000980 <l471>:
     980:	e49dc03a 	ldr	ip, [sp], #58	; 0x3a

00000984 <l472>:
     984:	351d2027 	ldrcc	r2, [sp, #-39]	; 0x27

00000988 <l473>:
     988:	e3a00015 	mov	r0, #21

0000098c <l474>:
     98c:	e73d7000 	ldr	r7, [sp, -r0]!

00000990 <l475>:
     990:	e5bd100a 	ldr	r1, [sp, #10]!

00000994 <l476>:
     994:	e3a03031 	mov	r3, #49	; 0x31

00000998 <l477>:
     998:	e73d2003 	ldr	r2, [sp, -r3]!

0000099c <l478>:
     99c:	e3a0702f 	mov	r7, #47	; 0x2f

000009a0 <l479>:
     9a0:	e7bd1007 	ldr	r1, [sp, r7]!

000009a4 <l480>:
     9a4:	e3a00028 	mov	r0, #40	; 0x28

000009a8 <l481>:
     9a8:	e71d5000 	ldr	r5, [sp, -r0]

000009ac <l482>:
     9ac:	e49d7006 	ldr	r7, [sp], #6

000009b0 <l483>:
     9b0:	e3a0600e 	mov	r6, #14

000009b4 <l484>:
     9b4:	b71dc006 	ldrlt	ip, [sp, -r6]

000009b8 <l485>:
     9b8:	e3a04025 	mov	r4, #37	; 0x25

000009bc <l486>:
     9bc:	e61d6004 	ldr	r6, [sp], -r4

000009c0 <l487>:
     9c0:	e3a09026 	mov	r9, #38	; 0x26

000009c4 <l488>:
     9c4:	e69d9009 	ldr	r9, [sp], r9

000009c8 <l489>:
     9c8:	e41d603d 	ldr	r6, [sp], #-61	; 0x3d

000009cc <l490>:
     9cc:	e59d9041 	ldr	r9, [sp, #65]	; 0x41

000009d0 <l491>:
     9d0:	e59d3024 	ldr	r3, [sp, #36]	; 0x24

000009d4 <l492>:
     9d4:	e3a0401b 	mov	r4, #27

000009d8 <l493>:
     9d8:	e7bd2004 	ldr	r2, [sp, r4]!

000009dc <l494>:
     9dc:	e49d700f 	ldr	r7, [sp], #15

000009e0 <l495>:
     9e0:	451d6016 	ldrmi	r6, [sp, #-22]

000009e4 <l496>:
     9e4:	e59d4000 	ldr	r4, [sp]

000009e8 <l497>:
     9e8:	951d7002 	ldrls	r7, [sp, #-2]

000009ec <l498>:
     9ec:	159d501c 	ldrne	r5, [sp, #28]

000009f0 <l499>:
     9f0:	e41d901e 	ldr	r9, [sp], #-30

000009f4 <l500>:
     9f4:	e3a0a00e 	mov	sl, #14

000009f8 <l501>:
     9f8:	871d600a 	ldrhi	r6, [sp, -sl]

000009fc <l502>:
     9fc:	e3a0000a 	mov	r0, #10

00000a00 <l503>:
     a00:	579d9000 	ldrpl	r9, [sp, r0]

00000a04 <l504>:
     a04:	e3a0b024 	mov	fp, #36	; 0x24

00000a08 <l505>:
     a08:	e69d900b 	ldr	r9, [sp], fp

00000a0c <l506>:
     a0c:	e49d6011 	ldr	r6, [sp], #17

00000a10 <l507>:
     a10:	e3a06015 	mov	r6, #21

00000a14 <l508>:
     a14:	e73d3006 	ldr	r3, [sp, -r6]!

00000a18 <l509>:
     a18:	e3a04001 	mov	r4, #1

00000a1c <l510>:
     a1c:	071d2004 	ldreq	r2, [sp, -r4]

00000a20 <l511>:
     a20:	e3a06001 	mov	r6, #1

00000a24 <l512>:
     a24:	e71d8006 	ldr	r8, [sp, -r6]

00000a28 <l513>:
     a28:	e3a0300d 	mov	r3, #13

00000a2c <l514>:
     a2c:	e7bd9003 	ldr	r9, [sp, r3]!

00000a30 <l515>:
     a30:	e41d7017 	ldr	r7, [sp], #-23

00000a34 <l516>:
     a34:	259d0023 	ldrcs	r0, [sp, #35]	; 0x23

00000a38 <l517>:
     a38:	e41d301e 	ldr	r3, [sp], #-30

00000a3c <l518>:
     a3c:	e3a04041 	mov	r4, #65	; 0x41

00000a40 <l519>:
     a40:	079de004 	ldreq	lr, [sp, r4]

00000a44 <l520>:
     a44:	e3a0703d 	mov	r7, #61	; 0x3d

00000a48 <l521>:
     a48:	e69d6007 	ldr	r6, [sp], r7

00000a4c <l522>:
     a4c:	e3a01026 	mov	r1, #38	; 0x26

00000a50 <l523>:
     a50:	e61d1001 	ldr	r1, [sp], -r1

00000a54 <l524>:
     a54:	e3a0e010 	mov	lr, #16

00000a58 <l525>:
     a58:	e61d400e 	ldr	r4, [sp], -lr

00000a5c <l526>:
     a5c:	e3a02024 	mov	r2, #36	; 0x24

00000a60 <l527>:
     a60:	e7bd4002 	ldr	r4, [sp, r2]!

00000a64 <l528>:
     a64:	e3a0201e 	mov	r2, #30

00000a68 <l529>:
     a68:	e71dc002 	ldr	ip, [sp, -r2]

00000a6c <l530>:
     a6c:	e3a0a00c 	mov	sl, #12

00000a70 <l531>:
     a70:	e7bde00a 	ldr	lr, [sp, sl]!

00000a74 <l532>:
     a74:	e53d5029 	ldr	r5, [sp, #-41]!	; 0x29

00000a78 <l533>:
     a78:	e3a0c02e 	mov	ip, #46	; 0x2e

00000a7c <l534>:
     a7c:	e69d400c 	ldr	r4, [sp], ip

00000a80 <l535>:
     a80:	e53d001f 	ldr	r0, [sp, #-31]!

00000a84 <l536>:
     a84:	e3a05007 	mov	r5, #7

00000a88 <l537>:
     a88:	e69d6005 	ldr	r6, [sp], r5

00000a8c <l538>:
     a8c:	e49d801b 	ldr	r8, [sp], #27

00000a90 <l539>:
     a90:	e3a05035 	mov	r5, #53	; 0x35

00000a94 <l540>:
     a94:	e73d5005 	ldr	r5, [sp, -r5]!

00000a98 <l541>:
     a98:	b59d9036 	ldrlt	r9, [sp, #54]	; 0x36

00000a9c <l542>:
     a9c:	e3a09026 	mov	r9, #38	; 0x26

00000aa0 <l543>:
     aa0:	e79dc009 	ldr	ip, [sp, r9]

00000aa4 <l544>:
     aa4:	e3a0300a 	mov	r3, #10

00000aa8 <l545>:
     aa8:	e73d3003 	ldr	r3, [sp, -r3]!

00000aac <l546>:
     aac:	e3a06031 	mov	r6, #49	; 0x31

00000ab0 <l547>:
     ab0:	e7bd9006 	ldr	r9, [sp, r6]!

00000ab4 <l548>:
     ab4:	e3a03013 	mov	r3, #19

00000ab8 <l549>:
     ab8:	e7bd1003 	ldr	r1, [sp, r3]!

00000abc <l550>:
     abc:	e3a0e034 	mov	lr, #52	; 0x34

00000ac0 <l551>:
     ac0:	e61da00e 	ldr	sl, [sp], -lr

00000ac4 <l552>:
     ac4:	e3a09031 	mov	r9, #49	; 0x31

00000ac8 <l553>:
     ac8:	e69de009 	ldr	lr, [sp], r9

00000acc <l554>:
     acc:	e3a0102a 	mov	r1, #42	; 0x2a

00000ad0 <l555>:
     ad0:	e73d7001 	ldr	r7, [sp, -r1]!

00000ad4 <l556>:
     ad4:	e3a0e00f 	mov	lr, #15

00000ad8 <l557>:
     ad8:	e61d000e 	ldr	r0, [sp], -lr

00000adc <l558>:
     adc:	e3a0702c 	mov	r7, #44	; 0x2c

00000ae0 <l559>:
     ae0:	e69d4007 	ldr	r4, [sp], r7

00000ae4 <l560>:
     ae4:	e53d2031 	ldr	r2, [sp, #-49]!	; 0x31

00000ae8 <l561>:
     ae8:	e3a0b002 	mov	fp, #2

00000aec <l562>:
     aec:	271d600b 	ldrcs	r6, [sp, -fp]

00000af0 <l563>:
     af0:	e3a05002 	mov	r5, #2

00000af4 <l564>:
     af4:	e61d8005 	ldr	r8, [sp], -r5

00000af8 <l565>:
     af8:	e5bd9012 	ldr	r9, [sp, #18]!

00000afc <l566>:
     afc:	e3a0e015 	mov	lr, #21

00000b00 <l567>:
     b00:	779d200e 	ldrvc	r2, [sp, lr]

00000b04 <l568>:
     b04:	e3a06014 	mov	r6, #20

00000b08 <l569>:
     b08:	a71da006 	ldrge	sl, [sp, -r6]

00000b0c <l570>:
     b0c:	e3a0400a 	mov	r4, #10

00000b10 <l571>:
     b10:	e7bdc004 	ldr	ip, [sp, r4]!

00000b14 <l572>:
     b14:	e3a0200a 	mov	r2, #10

00000b18 <l573>:
     b18:	e73d5002 	ldr	r5, [sp, -r2]!

00000b1c <l574>:
     b1c:	e59d8008 	ldr	r8, [sp, #8]

00000b20 <l575>:
     b20:	e53d7017 	ldr	r7, [sp, #-23]!

00000b24 <l576>:
     b24:	e3a0e026 	mov	lr, #38	; 0x26

00000b28 <l577>:
     b28:	879d200e 	ldrhi	r2, [sp, lr]

00000b2c <l578>:
     b2c:	e59d803c 	ldr	r8, [sp, #60]	; 0x3c

00000b30 <l579>:
     b30:	e3a0801e 	mov	r8, #30

00000b34 <l580>:
     b34:	e7bd9008 	ldr	r9, [sp, r8]!

00000b38 <l581>:
     b38:	e5bd9015 	ldr	r9, [sp, #21]!

00000b3c <l582>:
     b3c:	e53d202c 	ldr	r2, [sp, #-44]!	; 0x2c

00000b40 <l583>:
     b40:	e3a00023 	mov	r0, #35	; 0x23

00000b44 <l584>:
     b44:	e7bd8000 	ldr	r8, [sp, r0]!

00000b48 <l585>:
     b48:	e3a0400c 	mov	r4, #12

00000b4c <l586>:
     b4c:	e7bd4004 	ldr	r4, [sp, r4]!

00000b50 <l587>:
     b50:	051da010 	ldreq	sl, [sp, #-16]

00000b54 <l588>:
     b54:	e3a0702d 	mov	r7, #45	; 0x2d

00000b58 <l589>:
     b58:	e61d3007 	ldr	r3, [sp], -r7

00000b5c <l590>:
     b5c:	e3a05037 	mov	r5, #55	; 0x37

00000b60 <l591>:
     b60:	e69de005 	ldr	lr, [sp], r5

00000b64 <l592>:
     b64:	e41d301b 	ldr	r3, [sp], #-27

00000b68 <l593>:
     b68:	e5bda005 	ldr	sl, [sp, #5]!

00000b6c <l594>:
     b6c:	e3a03022 	mov	r3, #34	; 0x22

00000b70 <l595>:
     b70:	671d7003 	ldrvs	r7, [sp, -r3]

00000b74 <l596>:
     b74:	e51d502a 	ldr	r5, [sp, #-42]	; 0x2a

00000b78 <l597>:
     b78:	e3a06014 	mov	r6, #20

00000b7c <l598>:
     b7c:	e69d5006 	ldr	r5, [sp], r6

00000b80 <l599>:
     b80:	e41d5023 	ldr	r5, [sp], #-35	; 0x23

00000b84 <l600>:
     b84:	d59d5023 	ldrle	r5, [sp, #35]	; 0x23

00000b88 <l601>:
     b88:	e5bd2025 	ldr	r2, [sp, #37]!	; 0x25

00000b8c <l602>:
     b8c:	e41d8040 	ldr	r8, [sp], #-64	; 0x40

00000b90 <l603>:
     b90:	e5bd802f 	ldr	r8, [sp, #47]!	; 0x2f

00000b94 <l604>:
     b94:	e3a02016 	mov	r2, #22

00000b98 <l605>:
     b98:	e61d6002 	ldr	r6, [sp], -r2

00000b9c <l606>:
     b9c:	e3a0302d 	mov	r3, #45	; 0x2d

00000ba0 <l607>:
     ba0:	679d5003 	ldrvs	r5, [sp, r3]

00000ba4 <l608>:
     ba4:	d51d2010 	ldrle	r2, [sp, #-16]

00000ba8 <l609>:
     ba8:	e3a0101f 	mov	r1, #31

00000bac <l610>:
     bac:	e7bd4001 	ldr	r4, [sp, r1]!

00000bb0 <l611>:
     bb0:	e3a07021 	mov	r7, #33	; 0x21

00000bb4 <l612>:
     bb4:	e61d9007 	ldr	r9, [sp], -r7

00000bb8 <l613>:
     bb8:	e5bd4007 	ldr	r4, [sp, #7]!

00000bbc <l614>:
     bbc:	e3a03019 	mov	r3, #25

00000bc0 <l615>:
     bc0:	871d6003 	ldrhi	r6, [sp, -r3]

00000bc4 <l616>:
     bc4:	e41d1015 	ldr	r1, [sp], #-21

00000bc8 <l617>:
     bc8:	e3a0001a 	mov	r0, #26

00000bcc <l618>:
     bcc:	e69de000 	ldr	lr, [sp], r0

00000bd0 <l619>:
     bd0:	e41d9004 	ldr	r9, [sp], #-4

00000bd4 <l620>:
     bd4:	151d801b 	ldrne	r8, [sp, #-27]

00000bd8 <l621>:
     bd8:	e3a0100b 	mov	r1, #11

00000bdc <l622>:
     bdc:	e7bd0001 	ldr	r0, [sp, r1]!

00000be0 <l623>:
     be0:	d51d101c 	ldrle	r1, [sp, #-28]

00000be4 <l624>:
     be4:	459d2011 	ldrmi	r2, [sp, #17]

00000be8 <l625>:
     be8:	e3a0401c 	mov	r4, #28

00000bec <l626>:
     bec:	e73dc004 	ldr	ip, [sp, -r4]!

00000bf0 <l627>:
     bf0:	e3a00029 	mov	r0, #41	; 0x29

00000bf4 <l628>:
     bf4:	e69da000 	ldr	sl, [sp], r0

00000bf8 <l629>:
     bf8:	e3a0302e 	mov	r3, #46	; 0x2e

00000bfc <l630>:
     bfc:	e71d4003 	ldr	r4, [sp, -r3]

00000c00 <l631>:
     c00:	e3a05013 	mov	r5, #19

00000c04 <l632>:
     c04:	371d3005 	ldrcc	r3, [sp, -r5]

00000c08 <l633>:
     c08:	e3a0701c 	mov	r7, #28

00000c0c <l634>:
     c0c:	e61de007 	ldr	lr, [sp], -r7

00000c10 <l635>:
     c10:	e3a0b006 	mov	fp, #6

00000c14 <l636>:
     c14:	e69de00b 	ldr	lr, [sp], fp

00000c18 <l637>:
     c18:	a59d8008 	ldrge	r8, [sp, #8]

00000c1c <l638>:
     c1c:	e3a0201c 	mov	r2, #28

00000c20 <l639>:
     c20:	371d6002 	ldrcc	r6, [sp, -r2]

00000c24 <l640>:
     c24:	e3a09017 	mov	r9, #23

00000c28 <l641>:
     c28:	e73d6009 	ldr	r6, [sp, -r9]!

00000c2c <l642>:
     c2c:	e59d0003 	ldr	r0, [sp, #3]

00000c30 <l643>:
     c30:	e59d502d 	ldr	r5, [sp, #45]	; 0x2d

00000c34 <l644>:
     c34:	e5bde003 	ldr	lr, [sp, #3]!

00000c38 <l645>:
     c38:	e5bd1012 	ldr	r1, [sp, #18]!

00000c3c <l646>:
     c3c:	e59da01b 	ldr	sl, [sp, #27]

00000c40 <l647>:
     c40:	e49d200a 	ldr	r2, [sp], #10

00000c44 <l648>:
     c44:	e3a0c02b 	mov	ip, #43	; 0x2b

00000c48 <l649>:
     c48:	e71dc00c 	ldr	ip, [sp, -ip]

00000c4c <l650>:
     c4c:	e53da008 	ldr	sl, [sp, #-8]!

00000c50 <l651>:
     c50:	e59db009 	ldr	fp, [sp, #9]

00000c54 <l652>:
     c54:	e3a0501a 	mov	r5, #26

00000c58 <l653>:
     c58:	071d1005 	ldreq	r1, [sp, -r5]

00000c5c <l654>:
     c5c:	e3a05026 	mov	r5, #38	; 0x26

00000c60 <l655>:
     c60:	e7bd9005 	ldr	r9, [sp, r5]!

00000c64 <l656>:
     c64:	e3a0301b 	mov	r3, #27

00000c68 <l657>:
     c68:	d71d4003 	ldrle	r4, [sp, -r3]

00000c6c <l658>:
     c6c:	e3a03023 	mov	r3, #35	; 0x23

00000c70 <l659>:
     c70:	071d8003 	ldreq	r8, [sp, -r3]

00000c74 <l660>:
     c74:	e41d6002 	ldr	r6, [sp], #-2

00000c78 <l661>:
     c78:	e51db00e 	ldr	fp, [sp, #-14]

00000c7c <l662>:
     c7c:	e3a0b027 	mov	fp, #39	; 0x27

00000c80 <l663>:
     c80:	971d300b 	ldrls	r3, [sp, -fp]

00000c84 <l664>:
     c84:	e3a06038 	mov	r6, #56	; 0x38

00000c88 <l665>:
     c88:	e71d3006 	ldr	r3, [sp, -r6]

00000c8c <l666>:
     c8c:	e53db01b 	ldr	fp, [sp, #-27]!

00000c90 <l667>:
     c90:	e49db001 	ldr	fp, [sp], #1

00000c94 <l668>:
     c94:	e41d1029 	ldr	r1, [sp], #-41	; 0x29

00000c98 <l669>:
     c98:	e3a04001 	mov	r4, #1

00000c9c <l670>:
     c9c:	e73d1004 	ldr	r1, [sp, -r4]!

00000ca0 <l671>:
     ca0:	e3a09002 	mov	r9, #2

00000ca4 <l672>:
     ca4:	671d0009 	ldrvs	r0, [sp, -r9]

00000ca8 <l673>:
     ca8:	e3a0203f 	mov	r2, #63	; 0x3f

00000cac <l674>:
     cac:	e7bd9002 	ldr	r9, [sp, r2]!

00000cb0 <l675>:
     cb0:	e3a01012 	mov	r1, #18

00000cb4 <l676>:
     cb4:	e73d5001 	ldr	r5, [sp, -r1]!

00000cb8 <l677>:
     cb8:	e53d802e 	ldr	r8, [sp, #-46]!	; 0x2e

00000cbc <l678>:
     cbc:	e49d6041 	ldr	r6, [sp], #65	; 0x41

00000cc0 <l679>:
     cc0:	e41d8035 	ldr	r8, [sp], #-53	; 0x35

00000cc4 <l680>:
     cc4:	e5bd6008 	ldr	r6, [sp, #8]!

00000cc8 <l681>:
     cc8:	051db006 	ldreq	fp, [sp, #-6]

00000ccc <l682>:
     ccc:	e3a0c000 	mov	ip, #0

00000cd0 <l683>:
     cd0:	e73d400c 	ldr	r4, [sp, -ip]!

00000cd4 <l684>:
     cd4:	e3a08029 	mov	r8, #41	; 0x29

00000cd8 <l685>:
     cd8:	e69de008 	ldr	lr, [sp], r8

00000cdc <l686>:
     cdc:	e49d100b 	ldr	r1, [sp], #11

00000ce0 <l687>:
     ce0:	e3a06016 	mov	r6, #22

00000ce4 <l688>:
     ce4:	e61d1006 	ldr	r1, [sp], -r6

00000ce8 <l689>:
     ce8:	e3a0702f 	mov	r7, #47	; 0x2f

00000cec <l690>:
     cec:	e61d2007 	ldr	r2, [sp], -r7

00000cf0 <l691>:
     cf0:	c51d0001 	ldrgt	r0, [sp, #-1]

00000cf4 <l692>:
     cf4:	e5bd803c 	ldr	r8, [sp, #60]!	; 0x3c

00000cf8 <l693>:
     cf8:	e51d802b 	ldr	r8, [sp, #-43]	; 0x2b

00000cfc <l694>:
     cfc:	e3a0e01c 	mov	lr, #28

00000d00 <l695>:
     d00:	e71d800e 	ldr	r8, [sp, -lr]

00000d04 <l696>:
     d04:	e41d8034 	ldr	r8, [sp], #-52	; 0x34

00000d08 <l697>:
     d08:	e41d9001 	ldr	r9, [sp], #-1

00000d0c <l698>:
     d0c:	e49db02a 	ldr	fp, [sp], #42	; 0x2a

00000d10 <l699>:
     d10:	e3a06004 	mov	r6, #4

00000d14 <l700>:
     d14:	e61d2006 	ldr	r2, [sp], -r6

00000d18 <l701>:
     d18:	e3a01005 	mov	r1, #5

00000d1c <l702>:
     d1c:	e73d9001 	ldr	r9, [sp, -r1]!

00000d20 <l703>:
     d20:	551d2017 	ldrpl	r2, [sp, #-23]

00000d24 <l704>:
     d24:	e3a00010 	mov	r0, #16

00000d28 <l705>:
     d28:	b71d2000 	ldrlt	r2, [sp, -r0]

00000d2c <l706>:
     d2c:	e3a00016 	mov	r0, #22

00000d30 <l707>:
     d30:	e61d7000 	ldr	r7, [sp], -r0

00000d34 <l708>:
     d34:	e3a0a028 	mov	sl, #40	; 0x28

00000d38 <l709>:
     d38:	e7bd100a 	ldr	r1, [sp, sl]!

00000d3c <l710>:
     d3c:	e53d7021 	ldr	r7, [sp, #-33]!	; 0x21

00000d40 <l711>:
     d40:	c51d8014 	ldrgt	r8, [sp, #-20]

00000d44 <l712>:
     d44:	e3a0601a 	mov	r6, #26

00000d48 <l713>:
     d48:	e71d1006 	ldr	r1, [sp, -r6]

00000d4c <l714>:
     d4c:	e3a08009 	mov	r8, #9

00000d50 <l715>:
     d50:	e69da008 	ldr	sl, [sp], r8

00000d54 <l716>:
     d54:	e3a07016 	mov	r7, #22

00000d58 <l717>:
     d58:	e73d7007 	ldr	r7, [sp, -r7]!

00000d5c <l718>:
     d5c:	e3a0a001 	mov	sl, #1

00000d60 <l719>:
     d60:	e73d900a 	ldr	r9, [sp, -sl]!

00000d64 <l720>:
     d64:	e49d400f 	ldr	r4, [sp], #15

00000d68 <l721>:
     d68:	e59da009 	ldr	sl, [sp, #9]

00000d6c <l722>:
     d6c:	e3a04000 	mov	r4, #0

00000d70 <l723>:
     d70:	871de004 	ldrhi	lr, [sp, -r4]

00000d74 <l724>:
     d74:	e3a0c006 	mov	ip, #6

00000d78 <l725>:
     d78:	e71d100c 	ldr	r1, [sp, -ip]

00000d7c <l726>:
     d7c:	e3a05007 	mov	r5, #7

00000d80 <l727>:
     d80:	279da005 	ldrcs	sl, [sp, r5]

00000d84 <l728>:
     d84:	e3a08004 	mov	r8, #4

00000d88 <l729>:
     d88:	179d4008 	ldrne	r4, [sp, r8]

00000d8c <l730>:
     d8c:	e49d4006 	ldr	r4, [sp], #6

00000d90 <l731>:
     d90:	e41d0019 	ldr	r0, [sp], #-25

00000d94 <l732>:
     d94:	e3a0400a 	mov	r4, #10

00000d98 <l733>:
     d98:	e61de004 	ldr	lr, [sp], -r4

00000d9c <l734>:
     d9c:	e3a08007 	mov	r8, #7

00000da0 <l735>:
     da0:	d79d2008 	ldrle	r2, [sp, r8]

00000da4 <l736>:
     da4:	e3a0401a 	mov	r4, #26

00000da8 <l737>:
     da8:	e69de004 	ldr	lr, [sp], r4

00000dac <l738>:
     dac:	e5bdb00a 	ldr	fp, [sp, #10]!

00000db0 <l739>:
     db0:	e3a08007 	mov	r8, #7

00000db4 <l740>:
     db4:	379d2008 	ldrcc	r2, [sp, r8]

00000db8 <l741>:
     db8:	e3a0300b 	mov	r3, #11

00000dbc <l742>:
     dbc:	e73d4003 	ldr	r4, [sp, -r3]!

00000dc0 <l743>:
     dc0:	e3a01011 	mov	r1, #17

00000dc4 <l744>:
     dc4:	e69d8001 	ldr	r8, [sp], r1

00000dc8 <l745>:
     dc8:	e3a07024 	mov	r7, #36	; 0x24

00000dcc <l746>:
     dcc:	e61d5007 	ldr	r5, [sp], -r7

00000dd0 <l747>:
     dd0:	e5bd7001 	ldr	r7, [sp, #1]!

00000dd4 <l748>:
     dd4:	e3a02032 	mov	r2, #50	; 0x32

00000dd8 <l749>:
     dd8:	979d6002 	ldrls	r6, [sp, r2]

00000ddc <l750>:
     ddc:	e5bde023 	ldr	lr, [sp, #35]!	; 0x23

00000de0 <l751>:
     de0:	d51d2017 	ldrle	r2, [sp, #-23]

00000de4 <l752>:
     de4:	c59da01d 	ldrgt	sl, [sp, #29]

00000de8 <l753>:
     de8:	e3a0e01c 	mov	lr, #28

00000dec <l754>:
     dec:	b71dc00e 	ldrlt	ip, [sp, -lr]

00000df0 <l755>:
     df0:	e3a0a01a 	mov	sl, #26

00000df4 <l756>:
     df4:	e61d900a 	ldr	r9, [sp], -sl

00000df8 <l757>:
     df8:	e41d200b 	ldr	r2, [sp], #-11

00000dfc <l758>:
     dfc:	e5bdc001 	ldr	ip, [sp, #1]!

00000e00 <l759>:
     e00:	e41d5002 	ldr	r5, [sp], #-2

00000e04 <l760>:
     e04:	e3a09041 	mov	r9, #65	; 0x41

00000e08 <l761>:
     e08:	e7bd6009 	ldr	r6, [sp, r9]!

00000e0c <l762>:
     e0c:	e3a0503f 	mov	r5, #63	; 0x3f

00000e10 <l763>:
     e10:	e61d0005 	ldr	r0, [sp], -r5

00000e14 <l764>:
     e14:	a59d1013 	ldrge	r1, [sp, #19]

00000e18 <l765>:
     e18:	459d7032 	ldrmi	r7, [sp, #50]	; 0x32

00000e1c <l766>:
     e1c:	e3a03021 	mov	r3, #33	; 0x21

00000e20 <l767>:
     e20:	e79d5003 	ldr	r5, [sp, r3]

00000e24 <l768>:
     e24:	e3a0b01c 	mov	fp, #28

00000e28 <l769>:
     e28:	e69db00b 	ldr	fp, [sp], fp

00000e2c <l770>:
     e2c:	e53d8024 	ldr	r8, [sp, #-36]!	; 0x24

00000e30 <l771>:
     e30:	e5bd4033 	ldr	r4, [sp, #51]!	; 0x33

00000e34 <l772>:
     e34:	051d8011 	ldreq	r8, [sp, #-17]

00000e38 <l773>:
     e38:	e3a09022 	mov	r9, #34	; 0x22

00000e3c <l774>:
     e3c:	e61db009 	ldr	fp, [sp], -r9

00000e40 <l775>:
     e40:	e3a04004 	mov	r4, #4

00000e44 <l776>:
     e44:	e69d7004 	ldr	r7, [sp], r4

00000e48 <l777>:
     e48:	459d501f 	ldrmi	r5, [sp, #31]

00000e4c <l778>:
     e4c:	e3a08002 	mov	r8, #2

00000e50 <l779>:
     e50:	e73d6008 	ldr	r6, [sp, -r8]!

00000e54 <l780>:
     e54:	e49d202a 	ldr	r2, [sp], #42	; 0x2a

00000e58 <l781>:
     e58:	e3a07011 	mov	r7, #17

00000e5c <l782>:
     e5c:	e61db007 	ldr	fp, [sp], -r7

00000e60 <l783>:
     e60:	e3a0901a 	mov	r9, #26

00000e64 <l784>:
     e64:	e73de009 	ldr	lr, [sp, -r9]!

00000e68 <l785>:
     e68:	e3a04011 	mov	r4, #17

00000e6c <l786>:
     e6c:	479d3004 	ldrmi	r3, [sp, r4]

00000e70 <l787>:
     e70:	e53d600b 	ldr	r6, [sp, #-11]!

00000e74 <l788>:
     e74:	e3a05033 	mov	r5, #51	; 0x33

00000e78 <l789>:
     e78:	e7bde005 	ldr	lr, [sp, r5]!

00000e7c <l790>:
     e7c:	e53db028 	ldr	fp, [sp, #-40]!	; 0x28

00000e80 <l791>:
     e80:	e3a0b00b 	mov	fp, #11

00000e84 <l792>:
     e84:	e61d500b 	ldr	r5, [sp], -fp

00000e88 <l793>:
     e88:	e5bde026 	ldr	lr, [sp, #38]!	; 0x26

00000e8c <l794>:
     e8c:	e3a05012 	mov	r5, #18

00000e90 <l795>:
     e90:	671d6005 	ldrvs	r6, [sp, -r5]

00000e94 <l796>:
     e94:	451d9002 	ldrmi	r9, [sp, #-2]

00000e98 <l797>:
     e98:	e3a0b02c 	mov	fp, #44	; 0x2c

00000e9c <l798>:
     e9c:	e73d500b 	ldr	r5, [sp, -fp]!

00000ea0 <l799>:
     ea0:	e3a0b016 	mov	fp, #22

00000ea4 <l800>:
     ea4:	179d800b 	ldrne	r8, [sp, fp]

00000ea8 <l801>:
     ea8:	e3a08006 	mov	r8, #6

00000eac <l802>:
     eac:	979d9008 	ldrls	r9, [sp, r8]

00000eb0 <l803>:
     eb0:	e3a05010 	mov	r5, #16

00000eb4 <l804>:
     eb4:	e7bdb005 	ldr	fp, [sp, r5]!

00000eb8 <l805>:
     eb8:	e3a00015 	mov	r0, #21

00000ebc <l806>:
     ebc:	e73db000 	ldr	fp, [sp, -r0]!

00000ec0 <l807>:
     ec0:	e49de02c 	ldr	lr, [sp], #44	; 0x2c

00000ec4 <l808>:
     ec4:	e5bd2012 	ldr	r2, [sp, #18]!

00000ec8 <l809>:
     ec8:	551d000c 	ldrpl	r0, [sp, #-12]

00000ecc <l810>:
     ecc:	e41d3010 	ldr	r3, [sp], #-16

00000ed0 <l811>:
     ed0:	e3a06003 	mov	r6, #3

00000ed4 <l812>:
     ed4:	e73d5006 	ldr	r5, [sp, -r6]!

00000ed8 <l813>:
     ed8:	e5bdc011 	ldr	ip, [sp, #17]!

00000edc <l814>:
     edc:	e3a0e007 	mov	lr, #7

00000ee0 <l815>:
     ee0:	e61d700e 	ldr	r7, [sp], -lr

00000ee4 <l816>:
     ee4:	e3a0202b 	mov	r2, #43	; 0x2b

00000ee8 <l817>:
     ee8:	e73d7002 	ldr	r7, [sp, -r2]!

00000eec <l818>:
     eec:	e5bd0035 	ldr	r0, [sp, #53]!	; 0x35

00000ef0 <l819>:
     ef0:	e3a08009 	mov	r8, #9

00000ef4 <l820>:
     ef4:	e7bd7008 	ldr	r7, [sp, r8]!

00000ef8 <l821>:
     ef8:	e53de02d 	ldr	lr, [sp, #-45]!	; 0x2d

00000efc <l822>:
     efc:	e5bd0005 	ldr	r0, [sp, #5]!

00000f00 <l823>:
     f00:	e59d500f 	ldr	r5, [sp, #15]

00000f04 <l824>:
     f04:	e3a05004 	mov	r5, #4

00000f08 <l825>:
     f08:	e7bd2005 	ldr	r2, [sp, r5]!

00000f0c <l826>:
     f0c:	e3a09006 	mov	r9, #6

00000f10 <l827>:
     f10:	e7bd3009 	ldr	r3, [sp, r9]!

00000f14 <l828>:
     f14:	e3a08017 	mov	r8, #23

00000f18 <l829>:
     f18:	e61d4008 	ldr	r4, [sp], -r8

00000f1c <l830>:
     f1c:	e3a03022 	mov	r3, #34	; 0x22

00000f20 <l831>:
     f20:	a79da003 	ldrge	sl, [sp, r3]

00000f24 <l832>:
     f24:	e49d501c 	ldr	r5, [sp], #28

00000f28 <l833>:
     f28:	b51d700e 	ldrlt	r7, [sp, #-14]

00000f2c <l834>:
     f2c:	e59d3015 	ldr	r3, [sp, #21]

00000f30 <l835>:
     f30:	e41d802b 	ldr	r8, [sp], #-43	; 0x2b

00000f34 <l836>:
     f34:	e49d200f 	ldr	r2, [sp], #15

00000f38 <l837>:
     f38:	e49d4014 	ldr	r4, [sp], #20

00000f3c <l838>:
     f3c:	e3a01024 	mov	r1, #36	; 0x24

00000f40 <l839>:
     f40:	e73d3001 	ldr	r3, [sp, -r1]!

00000f44 <l840>:
     f44:	e3a03036 	mov	r3, #54	; 0x36

00000f48 <l841>:
     f48:	e7bd4003 	ldr	r4, [sp, r3]!

00000f4c <l842>:
     f4c:	e41d101e 	ldr	r1, [sp], #-30

00000f50 <l843>:
     f50:	e3a0e008 	mov	lr, #8

00000f54 <l844>:
     f54:	e79d100e 	ldr	r1, [sp, lr]

00000f58 <l845>:
     f58:	e5bdc026 	ldr	ip, [sp, #38]!	; 0x26

00000f5c <l846>:
     f5c:	e41d0025 	ldr	r0, [sp], #-37	; 0x25

00000f60 <l847>:
     f60:	e5bd0022 	ldr	r0, [sp, #34]!	; 0x22

00000f64 <l848>:
     f64:	e3a09013 	mov	r9, #19

00000f68 <l849>:
     f68:	e73d5009 	ldr	r5, [sp, -r9]!

00000f6c <l850>:
     f6c:	e3a07020 	mov	r7, #32

00000f70 <l851>:
     f70:	e61d2007 	ldr	r2, [sp], -r7

00000f74 <l852>:
     f74:	e5bd4038 	ldr	r4, [sp, #56]!	; 0x38

00000f78 <l853>:
     f78:	851d600e 	ldrhi	r6, [sp, #-14]

00000f7c <l854>:
     f7c:	959d2006 	ldrls	r2, [sp, #6]

00000f80 <l855>:
     f80:	e53da028 	ldr	sl, [sp, #-40]!	; 0x28

00000f84 <l856>:
     f84:	551d500a 	ldrpl	r5, [sp, #-10]

00000f88 <l857>:
     f88:	e59d8006 	ldr	r8, [sp, #6]

00000f8c <l858>:
     f8c:	e3a07025 	mov	r7, #37	; 0x25

00000f90 <l859>:
     f90:	e7bd5007 	ldr	r5, [sp, r7]!

00000f94 <l860>:
     f94:	e3a02035 	mov	r2, #53	; 0x35

00000f98 <l861>:
     f98:	e61da002 	ldr	sl, [sp], -r2

00000f9c <l862>:
     f9c:	e3a04026 	mov	r4, #38	; 0x26

00000fa0 <l863>:
     fa0:	e7bd4004 	ldr	r4, [sp, r4]!

00000fa4 <l864>:
     fa4:	e53d8001 	ldr	r8, [sp, #-1]!

00000fa8 <l865>:
     fa8:	e3a08005 	mov	r8, #5

00000fac <l866>:
     fac:	271da008 	ldrcs	sl, [sp, -r8]

00000fb0 <l867>:
     fb0:	e3a00005 	mov	r0, #5

00000fb4 <l868>:
     fb4:	e7bdb000 	ldr	fp, [sp, r0]!

00000fb8 <l869>:
     fb8:	e3a0100a 	mov	r1, #10

00000fbc <l870>:
     fbc:	e71d3001 	ldr	r3, [sp, -r1]

00000fc0 <l871>:
     fc0:	e3a06017 	mov	r6, #23

00000fc4 <l872>:
     fc4:	e71db006 	ldr	fp, [sp, -r6]

00000fc8 <l873>:
     fc8:	159d1005 	ldrne	r1, [sp, #5]

00000fcc <l874>:
     fcc:	e3a06005 	mov	r6, #5

00000fd0 <l875>:
     fd0:	c79d7006 	ldrgt	r7, [sp, r6]

00000fd4 <l876>:
     fd4:	e51d5033 	ldr	r5, [sp, #-51]	; 0x33

00000fd8 <l877>:
     fd8:	e3a09021 	mov	r9, #33	; 0x21

00000fdc <l878>:
     fdc:	271da009 	ldrcs	sl, [sp, -r9]

00000fe0 <l879>:
     fe0:	e3a0401f 	mov	r4, #31

00000fe4 <l880>:
     fe4:	e73d3004 	ldr	r3, [sp, -r4]!

00000fe8 <l881>:
     fe8:	e3a0c018 	mov	ip, #24

00000fec <l882>:
     fec:	e61d100c 	ldr	r1, [sp], -ip

00000ff0 <l883>:
     ff0:	e3a0603d 	mov	r6, #61	; 0x3d

00000ff4 <l884>:
     ff4:	e69d9006 	ldr	r9, [sp], r6

00000ff8 <l885>:
     ff8:	e3a03000 	mov	r3, #0

00000ffc <l886>:
     ffc:	e73d4003 	ldr	r4, [sp, -r3]!

00001000 <l887>:
    1000:	e3a05036 	mov	r5, #54	; 0x36

00001004 <l888>:
    1004:	e73d5005 	ldr	r5, [sp, -r5]!

00001008 <l889>:
    1008:	e3a0c006 	mov	ip, #6

0000100c <l890>:
    100c:	e73da00c 	ldr	sl, [sp, -ip]!

00001010 <l891>:
    1010:	e3a04009 	mov	r4, #9

00001014 <l892>:
    1014:	e7bde004 	ldr	lr, [sp, r4]!

00001018 <l893>:
    1018:	e3a05012 	mov	r5, #18

0000101c <l894>:
    101c:	e69d6005 	ldr	r6, [sp], r5

00001020 <l895>:
    1020:	e3a0801a 	mov	r8, #26

00001024 <l896>:
    1024:	079da008 	ldreq	sl, [sp, r8]

00001028 <l897>:
    1028:	e59d101c 	ldr	r1, [sp, #28]

0000102c <l898>:
    102c:	159de025 	ldrne	lr, [sp, #37]	; 0x25

00001030 <l899>:
    1030:	e3a0c016 	mov	ip, #22

00001034 <l900>:
    1034:	e73d600c 	ldr	r6, [sp, -ip]!

00001038 <l901>:
    1038:	e3a06039 	mov	r6, #57	; 0x39

0000103c <l902>:
    103c:	e79da006 	ldr	sl, [sp, r6]

00001040 <l903>:
    1040:	e59d1011 	ldr	r1, [sp, #17]

00001044 <l904>:
    1044:	e59de03d 	ldr	lr, [sp, #61]	; 0x3d

00001048 <l905>:
    1048:	e3a0c000 	mov	ip, #0

0000104c <l906>:
    104c:	e61d500c 	ldr	r5, [sp], -ip

00001050 <l907>:
    1050:	e3a0e032 	mov	lr, #50	; 0x32

00001054 <l908>:
    1054:	e69dc00e 	ldr	ip, [sp], lr

00001058 <l909>:
    1058:	e3a0200c 	mov	r2, #12

0000105c <l910>:
    105c:	e61d4002 	ldr	r4, [sp], -r2

00001060 <l911>:
    1060:	e3a0e00a 	mov	lr, #10

00001064 <l912>:
    1064:	979d100e 	ldrls	r1, [sp, lr]

00001068 <l913>:
    1068:	e3a0301d 	mov	r3, #29

0000106c <l914>:
    106c:	d79db003 	ldrle	fp, [sp, r3]

00001070 <l915>:
    1070:	e3a0a011 	mov	sl, #17

00001074 <l916>:
    1074:	e71d000a 	ldr	r0, [sp, -sl]

00001078 <l917>:
    1078:	d51d101c 	ldrle	r1, [sp, #-28]

0000107c <l918>:
    107c:	051d1015 	ldreq	r1, [sp, #-21]

00001080 <l919>:
    1080:	e3a0701f 	mov	r7, #31

00001084 <l920>:
    1084:	e61d1007 	ldr	r1, [sp], -r7

00001088 <l921>:
    1088:	e3a0000d 	mov	r0, #13

0000108c <l922>:
    108c:	e71d6000 	ldr	r6, [sp, -r0]

00001090 <l923>:
    1090:	e59d801a 	ldr	r8, [sp, #26]

00001094 <l924>:
    1094:	e3a00033 	mov	r0, #51	; 0x33

00001098 <l925>:
    1098:	e7bd2000 	ldr	r2, [sp, r0]!

0000109c <l926>:
    109c:	e53d603a 	ldr	r6, [sp, #-58]!	; 0x3a

000010a0 <l927>:
    10a0:	e53d7005 	ldr	r7, [sp, #-5]!

000010a4 <l928>:
    10a4:	e3a04007 	mov	r4, #7

000010a8 <l929>:
    10a8:	e69d5004 	ldr	r5, [sp], r4

000010ac <l930>:
    10ac:	e3a0c03f 	mov	ip, #63	; 0x3f

000010b0 <l931>:
    10b0:	e69d500c 	ldr	r5, [sp], ip

000010b4 <l932>:
    10b4:	b51dc015 	ldrlt	ip, [sp, #-21]

000010b8 <l933>:
    10b8:	e41d5004 	ldr	r5, [sp], #-4

000010bc <l934>:
    10bc:	e41d003f 	ldr	r0, [sp], #-63	; 0x3f

000010c0 <l935>:
    10c0:	e3a0a00a 	mov	sl, #10

000010c4 <l936>:
    10c4:	e7bd000a 	ldr	r0, [sp, sl]!

000010c8 <l937>:
    10c8:	e3a01038 	mov	r1, #56	; 0x38

000010cc <l938>:
    10cc:	e79d2001 	ldr	r2, [sp, r1]

000010d0 <l939>:
    10d0:	e5bd001d 	ldr	r0, [sp, #29]!

000010d4 <l940>:
    10d4:	e3a04005 	mov	r4, #5

000010d8 <l941>:
    10d8:	e73db004 	ldr	fp, [sp, -r4]!

000010dc <l942>:
    10dc:	259d600a 	ldrcs	r6, [sp, #10]

000010e0 <l943>:
    10e0:	e41da006 	ldr	sl, [sp], #-6

000010e4 <l944>:
    10e4:	e49d001f 	ldr	r0, [sp], #31

000010e8 <l945>:
    10e8:	e3a08016 	mov	r8, #22

000010ec <l946>:
    10ec:	e61d6008 	ldr	r6, [sp], -r8

000010f0 <l947>:
    10f0:	e41d400c 	ldr	r4, [sp], #-12

000010f4 <l948>:
    10f4:	e51da01c 	ldr	sl, [sp, #-28]

000010f8 <l949>:
    10f8:	e51d1007 	ldr	r1, [sp, #-7]

000010fc <l950>:
    10fc:	e3a0800d 	mov	r8, #13

00001100 <l951>:
    1100:	e7bde008 	ldr	lr, [sp, r8]!

00001104 <l952>:
    1104:	e3a07017 	mov	r7, #23

00001108 <l953>:
    1108:	e79d8007 	ldr	r8, [sp, r7]

0000110c <l954>:
    110c:	e3a0e020 	mov	lr, #32

00001110 <l955>:
    1110:	e73d900e 	ldr	r9, [sp, -lr]!

00001114 <l956>:
    1114:	e3a0300a 	mov	r3, #10

00001118 <l957>:
    1118:	e61d6003 	ldr	r6, [sp], -r3

0000111c <l958>:
    111c:	e5bd400d 	ldr	r4, [sp, #13]!

00001120 <l959>:
    1120:	e3a07029 	mov	r7, #41	; 0x29

00001124 <l960>:
    1124:	e69d0007 	ldr	r0, [sp], r7

00001128 <l961>:
    1128:	e59d9010 	ldr	r9, [sp, #16]

0000112c <l962>:
    112c:	759dc00a 	ldrvc	ip, [sp, #10]

00001130 <l963>:
    1130:	e3a01005 	mov	r1, #5

00001134 <l964>:
    1134:	e7bd2001 	ldr	r2, [sp, r1]!

00001138 <l965>:
    1138:	d59da00a 	ldrle	sl, [sp, #10]

0000113c <l966>:
    113c:	e3a00037 	mov	r0, #55	; 0x37

00001140 <l967>:
    1140:	e61d9000 	ldr	r9, [sp], -r0

00001144 <l968>:
    1144:	e49d7021 	ldr	r7, [sp], #33	; 0x21

00001148 <l969>:
    1148:	e3a05009 	mov	r5, #9

0000114c <l970>:
    114c:	e73d1005 	ldr	r1, [sp, -r5]!

00001150 <l971>:
    1150:	e5bde02b 	ldr	lr, [sp, #43]!	; 0x2b

00001154 <l972>:
    1154:	e3a01007 	mov	r1, #7

00001158 <l973>:
    1158:	e61d9001 	ldr	r9, [sp], -r1

0000115c <l974>:
    115c:	e41d7020 	ldr	r7, [sp], #-32

00001160 <l975>:
    1160:	e3a05001 	mov	r5, #1

00001164 <l976>:
    1164:	171d3005 	ldrne	r3, [sp, -r5]

00001168 <l977>:
    1168:	e41d6007 	ldr	r6, [sp], #-7

0000116c <l978>:
    116c:	e3a0400e 	mov	r4, #14

00001170 <l979>:
    1170:	e71de004 	ldr	lr, [sp, -r4]

00001174 <l980>:
    1174:	e5bd000a 	ldr	r0, [sp, #10]!

00001178 <l981>:
    1178:	e3a09014 	mov	r9, #20

0000117c <l982>:
    117c:	e79dc009 	ldr	ip, [sp, r9]

00001180 <l983>:
    1180:	e3a0700e 	mov	r7, #14

00001184 <l984>:
    1184:	e73d9007 	ldr	r9, [sp, -r7]!

00001188 <l985>:
    1188:	e59d002d 	ldr	r0, [sp, #45]	; 0x2d

0000118c <l986>:
    118c:	e3a06014 	mov	r6, #20

00001190 <l987>:
    1190:	e73dc006 	ldr	ip, [sp, -r6]!

00001194 <l988>:
    1194:	e3a0b02c 	mov	fp, #44	; 0x2c

00001198 <l989>:
    1198:	e7bdc00b 	ldr	ip, [sp, fp]!

0000119c <l990>:
    119c:	e49d0014 	ldr	r0, [sp], #20

000011a0 <l991>:
    11a0:	e3a0300f 	mov	r3, #15

000011a4 <l992>:
    11a4:	e61d7003 	ldr	r7, [sp], -r3

000011a8 <l993>:
    11a8:	e3a02030 	mov	r2, #48	; 0x30

000011ac <l994>:
    11ac:	371d7002 	ldrcc	r7, [sp, -r2]

000011b0 <l995>:
    11b0:	e3a0b001 	mov	fp, #1

000011b4 <l996>:
    11b4:	e61d700b 	ldr	r7, [sp], -fp

000011b8 <l997>:
    11b8:	e3a0a00d 	mov	sl, #13

000011bc <l998>:
    11bc:	e7bd400a 	ldr	r4, [sp, sl]!

000011c0 <l999>:
    11c0:	e51d801f 	ldr	r8, [sp, #-31]

000011c4 <l1000>:
    11c4:	e3a0b011 	mov	fp, #17

000011c8 <l1001>:
    11c8:	e61d900b 	ldr	r9, [sp], -fp

000011cc <end>:
    11cc:	eafffffe 	b	11cc <end>
    11d0:	00000dde 	.word	0x00000dde
