
ldr_1000.o:     file format elf32-littlearm


Disassembly of section .text:

00000000 <main>:
       0:	e05f000f 	subs	r0, pc, pc
       4:	e59fd000 	ldr	sp, [pc]	; c <val>
       8:	ea000000 	b	10 <next>

0000000c <val>:
       c:	000ffff0 	.word	0x000ffff0

00000010 <next>:
      10:	e59f1000 	ldr	r1, [pc]	; 18 <val1>
      14:	ea000000 	b	1c <next1>

00000018 <val1>:
      18:	c5371a79 	.word	0xc5371a79

0000001c <next1>:
      1c:	e59f2000 	ldr	r2, [pc]	; 24 <val2>
      20:	ea000000 	b	28 <next2>

00000024 <val2>:
      24:	0391be66 	.word	0x0391be66

00000028 <next2>:
      28:	e59f3000 	ldr	r3, [pc]	; 30 <val3>
      2c:	ea000000 	b	34 <next3>

00000030 <val3>:
      30:	38187a35 	.word	0x38187a35

00000034 <next3>:
      34:	e59f4000 	ldr	r4, [pc]	; 3c <val4>
      38:	ea000000 	b	40 <next4>

0000003c <val4>:
      3c:	dfdf6e95 	.word	0xdfdf6e95

00000040 <next4>:
      40:	e59f5000 	ldr	r5, [pc]	; 48 <val5>
      44:	ea000000 	b	4c <next5>

00000048 <val5>:
      48:	6e89f573 	.word	0x6e89f573

0000004c <next5>:
      4c:	e59f6000 	ldr	r6, [pc]	; 54 <val6>
      50:	ea000000 	b	58 <next6>

00000054 <val6>:
      54:	b2558b87 	.word	0xb2558b87

00000058 <next6>:
      58:	e59f7000 	ldr	r7, [pc]	; 60 <val7>
      5c:	ea000000 	b	64 <next7>

00000060 <val7>:
      60:	b19afaf9 	.word	0xb19afaf9

00000064 <next7>:
      64:	e59f8000 	ldr	r8, [pc]	; 6c <val8>
      68:	ea000000 	b	70 <next8>

0000006c <val8>:
      6c:	77cc0b9b 	.word	0x77cc0b9b

00000070 <next8>:
      70:	e59f9000 	ldr	r9, [pc]	; 78 <val9>
      74:	ea000000 	b	7c <next9>

00000078 <val9>:
      78:	1e672163 	.word	0x1e672163

0000007c <next9>:
      7c:	e59fa000 	ldr	sl, [pc]	; 84 <val10>
      80:	ea000000 	b	88 <next10>

00000084 <val10>:
      84:	264f515b 	.word	0x264f515b

00000088 <next10>:
      88:	e59fb000 	ldr	fp, [pc]	; 90 <val11>
      8c:	ea000000 	b	94 <next11>

00000090 <val11>:
      90:	b91ee5fa 	.word	0xb91ee5fa

00000094 <next11>:
      94:	e59fc000 	ldr	ip, [pc]	; 9c <val12>
      98:	ea000000 	b	a0 <next12>

0000009c <val12>:
      9c:	024709cb 	.word	0x024709cb

000000a0 <next12>:
      a0:	e59fe000 	ldr	lr, [pc]	; a8 <val14>
      a4:	ea000000 	b	ac <next14>

000000a8 <val14>:
      a8:	b70374e8 	.word	0xb70374e8

000000ac <next14>:
      ac:	e59f1000 	ldr	r1, [pc]	; b4 <val15>
      b0:	ea000000 	b	b8 <next15>

000000b4 <val15>:
      b4:	a3dea90a 	.word	0xa3dea90a

000000b8 <next15>:
      b8:	e58d1000 	str	r1, [sp]
      bc:	e59f1000 	ldr	r1, [pc]	; c4 <val16>
      c0:	ea000000 	b	c8 <next16>

000000c4 <val16>:
      c4:	792b3fa5 	.word	0x792b3fa5

000000c8 <next16>:
      c8:	e50d1004 	str	r1, [sp, #-4]
      cc:	e59f1000 	ldr	r1, [pc]	; d4 <val17>
      d0:	ea000000 	b	d8 <next17>

000000d4 <val17>:
      d4:	0b9b4578 	.word	0x0b9b4578

000000d8 <next17>:
      d8:	e50d1008 	str	r1, [sp, #-8]
      dc:	e59f1000 	ldr	r1, [pc]	; e4 <val18>
      e0:	ea000000 	b	e8 <next18>

000000e4 <val18>:
      e4:	d541cfcf 	.word	0xd541cfcf

000000e8 <next18>:
      e8:	e50d100c 	str	r1, [sp, #-12]
      ec:	e59f1000 	ldr	r1, [pc]	; f4 <val19>
      f0:	ea000000 	b	f8 <next19>

000000f4 <val19>:
      f4:	ab8b5006 	.word	0xab8b5006

000000f8 <next19>:
      f8:	e50d1010 	str	r1, [sp, #-16]
      fc:	e59f1000 	ldr	r1, [pc]	; 104 <val20>
     100:	ea000000 	b	108 <next20>

00000104 <val20>:
     104:	598732f5 	.word	0x598732f5

00000108 <next20>:
     108:	e50d1014 	str	r1, [sp, #-20]
     10c:	e59f1000 	ldr	r1, [pc]	; 114 <val21>
     110:	ea000000 	b	118 <next21>

00000114 <val21>:
     114:	3f9cf4de 	.word	0x3f9cf4de

00000118 <next21>:
     118:	e50d1018 	str	r1, [sp, #-24]
     11c:	e59f1000 	ldr	r1, [pc]	; 124 <val22>
     120:	ea000000 	b	128 <next22>

00000124 <val22>:
     124:	f5a9b9b3 	.word	0xf5a9b9b3

00000128 <next22>:
     128:	e50d101c 	str	r1, [sp, #-28]
     12c:	e59f1000 	ldr	r1, [pc]	; 134 <val23>
     130:	ea000000 	b	138 <next23>

00000134 <val23>:
     134:	92c46cdc 	.word	0x92c46cdc

00000138 <next23>:
     138:	e50d1020 	str	r1, [sp, #-32]
     13c:	e59f1000 	ldr	r1, [pc]	; 144 <val24>
     140:	ea000000 	b	148 <next24>

00000144 <val24>:
     144:	f70dd7f6 	.word	0xf70dd7f6

00000148 <next24>:
     148:	e50d1024 	str	r1, [sp, #-36]	; 0x24
     14c:	e59f1000 	ldr	r1, [pc]	; 154 <val25>
     150:	ea000000 	b	158 <next25>

00000154 <val25>:
     154:	8f0c6306 	.word	0x8f0c6306

00000158 <next25>:
     158:	e50d1028 	str	r1, [sp, #-40]	; 0x28
     15c:	e59f1000 	ldr	r1, [pc]	; 164 <val26>
     160:	ea000000 	b	168 <next26>

00000164 <val26>:
     164:	bd0ee56a 	.word	0xbd0ee56a

00000168 <next26>:
     168:	e50d102c 	str	r1, [sp, #-44]	; 0x2c
     16c:	e59f1000 	ldr	r1, [pc]	; 174 <val27>
     170:	ea000000 	b	178 <next27>

00000174 <val27>:
     174:	368705d1 	.word	0x368705d1

00000178 <next27>:
     178:	e50d1030 	str	r1, [sp, #-48]	; 0x30
     17c:	e59f1000 	ldr	r1, [pc]	; 184 <val28>
     180:	ea000000 	b	188 <next28>

00000184 <val28>:
     184:	8142d2b1 	.word	0x8142d2b1

00000188 <next28>:
     188:	e50d1034 	str	r1, [sp, #-52]	; 0x34
     18c:	e59f1000 	ldr	r1, [pc]	; 194 <val29>
     190:	ea000000 	b	198 <next29>

00000194 <val29>:
     194:	1bf01e4f 	.word	0x1bf01e4f

00000198 <next29>:
     198:	e50d1038 	str	r1, [sp, #-56]	; 0x38
     19c:	e59f1000 	ldr	r1, [pc]	; 1a4 <val30>
     1a0:	ea000000 	b	1a8 <next30>

000001a4 <val30>:
     1a4:	86d87712 	.word	0x86d87712

000001a8 <next30>:
     1a8:	e50d103c 	str	r1, [sp, #-60]	; 0x3c
     1ac:	e59f1000 	ldr	r1, [pc]	; 1b4 <val31>
     1b0:	ea000000 	b	1b8 <next31>

000001b4 <val31>:
     1b4:	0342ac13 	.word	0x0342ac13

000001b8 <next31>:
     1b8:	e50d1040 	str	r1, [sp, #-64]	; 0x40
     1bc:	e59f1000 	ldr	r1, [pc]	; 1c4 <val32>
     1c0:	ea000000 	b	1c8 <next32>

000001c4 <val32>:
     1c4:	b75c2002 	.word	0xb75c2002

000001c8 <next32>:
     1c8:	e50d1044 	str	r1, [sp, #-68]	; 0x44
     1cc:	e59f1000 	ldr	r1, [pc]	; 1d4 <val33>
     1d0:	ea000000 	b	1d8 <next33>

000001d4 <val33>:
     1d4:	f659f0dc 	.word	0xf659f0dc

000001d8 <next33>:
     1d8:	e50d1048 	str	r1, [sp, #-72]	; 0x48
     1dc:	e59f1000 	ldr	r1, [pc]	; 1e4 <val34>
     1e0:	ea000000 	b	1e8 <next34>

000001e4 <val34>:
     1e4:	056ba681 	.word	0x056ba681

000001e8 <next34>:
     1e8:	e50d104c 	str	r1, [sp, #-76]	; 0x4c
     1ec:	e59f1000 	ldr	r1, [pc]	; 1f4 <val35>
     1f0:	ea000000 	b	1f8 <next35>

000001f4 <val35>:
     1f4:	3b1f7900 	.word	0x3b1f7900

000001f8 <next35>:
     1f8:	e50d1050 	str	r1, [sp, #-80]	; 0x50

000001fc <l1>:
     1fc:	e53d6024 	ldr	r6, [sp, #-36]!	; 0x24

00000200 <l2>:
     200:	e3a0a004 	mov	sl, #4

00000204 <l3>:
     204:	e79db00a 	ldr	fp, [sp, sl]

00000208 <l4>:
     208:	e49d100c 	ldr	r1, [sp], #12

0000020c <l5>:
     20c:	e3a00000 	mov	r0, #0

00000210 <l6>:
     210:	e69d0000 	ldr	r0, [sp], r0

00000214 <l7>:
     214:	e3a05008 	mov	r5, #8

00000218 <l8>:
     218:	e61d2005 	ldr	r2, [sp], -r5

0000021c <l9>:
     21c:	e3a08004 	mov	r8, #4

00000220 <l10>:
     220:	e73d8008 	ldr	r8, [sp, -r8]!

00000224 <l11>:
     224:	e49d6000 	ldr	r6, [sp], #0

00000228 <l12>:
     228:	e3a04018 	mov	r4, #24

0000022c <l13>:
     22c:	e7bd6004 	ldr	r6, [sp, r4]!

00000230 <l14>:
     230:	e3a0a03c 	mov	sl, #60	; 0x3c

00000234 <l15>:
     234:	871d700a 	ldrhi	r7, [sp, -sl]

00000238 <l16>:
     238:	e3a0300c 	mov	r3, #12

0000023c <l17>:
     23c:	e61d4003 	ldr	r4, [sp], -r3

00000240 <l18>:
     240:	e53d1038 	ldr	r1, [sp, #-56]!	; 0x38

00000244 <l19>:
     244:	e5bdb03c 	ldr	fp, [sp, #60]!	; 0x3c

00000248 <l20>:
     248:	e41d5030 	ldr	r5, [sp], #-48	; 0x30

0000024c <l21>:
     24c:	e3a08004 	mov	r8, #4

00000250 <l22>:
     250:	e71dc008 	ldr	ip, [sp, -r8]

00000254 <l23>:
     254:	e49d803c 	ldr	r8, [sp], #60	; 0x3c

00000258 <l24>:
     258:	e3a08038 	mov	r8, #56	; 0x38

0000025c <l25>:
     25c:	e73d0008 	ldr	r0, [sp, -r8]!

00000260 <l26>:
     260:	e3a0c004 	mov	ip, #4

00000264 <l27>:
     264:	371d800c 	ldrcc	r8, [sp, -ip]

00000268 <l28>:
     268:	e5bdc010 	ldr	ip, [sp, #16]!

0000026c <l29>:
     26c:	e49d6010 	ldr	r6, [sp], #16

00000270 <l30>:
     270:	e3a00014 	mov	r0, #20

00000274 <l31>:
     274:	e73d1000 	ldr	r1, [sp, -r0]!

00000278 <l32>:
     278:	c59dc020 	ldrgt	ip, [sp, #32]

0000027c <l33>:
     27c:	e5bd4020 	ldr	r4, [sp, #32]!

00000280 <l34>:
     280:	e3a03004 	mov	r3, #4

00000284 <l35>:
     284:	e61d7003 	ldr	r7, [sp], -r3

00000288 <l36>:
     288:	e41d000c 	ldr	r0, [sp], #-12

0000028c <l37>:
     28c:	451d9014 	ldrmi	r9, [sp, #-20]

00000290 <l38>:
     290:	e3a0e004 	mov	lr, #4

00000294 <l39>:
     294:	e69d900e 	ldr	r9, [sp], lr

00000298 <l40>:
     298:	e3a0a014 	mov	sl, #20

0000029c <l41>:
     29c:	e71d200a 	ldr	r2, [sp, -sl]

000002a0 <l42>:
     2a0:	e3a0500c 	mov	r5, #12

000002a4 <l43>:
     2a4:	e7bd2005 	ldr	r2, [sp, r5]!

000002a8 <l44>:
     2a8:	e41d7024 	ldr	r7, [sp], #-36	; 0x24

000002ac <l45>:
     2ac:	e5bd0030 	ldr	r0, [sp, #48]!	; 0x30

000002b0 <l46>:
     2b0:	e3a03014 	mov	r3, #20

000002b4 <l47>:
     2b4:	e71d9003 	ldr	r9, [sp, -r3]

000002b8 <l48>:
     2b8:	e51d5020 	ldr	r5, [sp, #-32]

000002bc <l49>:
     2bc:	e3a03018 	mov	r3, #24

000002c0 <l50>:
     2c0:	e61d4003 	ldr	r4, [sp], -r3

000002c4 <l51>:
     2c4:	e53d601c 	ldr	r6, [sp, #-28]!

000002c8 <l52>:
     2c8:	e49d4008 	ldr	r4, [sp], #8

000002cc <l53>:
     2cc:	e5bda028 	ldr	sl, [sp, #40]!	; 0x28

000002d0 <l54>:
     2d0:	e3a08030 	mov	r8, #48	; 0x30

000002d4 <l55>:
     2d4:	e71de008 	ldr	lr, [sp, -r8]

000002d8 <l56>:
     2d8:	e3a0b020 	mov	fp, #32

000002dc <l57>:
     2dc:	e71d300b 	ldr	r3, [sp, -fp]

000002e0 <l58>:
     2e0:	e3a0e024 	mov	lr, #36	; 0x24

000002e4 <l59>:
     2e4:	e71da00e 	ldr	sl, [sp, -lr]

000002e8 <l60>:
     2e8:	e3a0700c 	mov	r7, #12

000002ec <l61>:
     2ec:	e61d8007 	ldr	r8, [sp], -r7

000002f0 <l62>:
     2f0:	e41dc030 	ldr	ip, [sp], #-48	; 0x30

000002f4 <l63>:
     2f4:	e5bd1030 	ldr	r1, [sp, #48]!	; 0x30

000002f8 <l64>:
     2f8:	051d6004 	ldreq	r6, [sp, #-4]

000002fc <l65>:
     2fc:	e49d200c 	ldr	r2, [sp], #12

00000300 <l66>:
     300:	e53d900c 	ldr	r9, [sp, #-12]!

00000304 <l67>:
     304:	e49db010 	ldr	fp, [sp], #16

00000308 <l68>:
     308:	e41d8020 	ldr	r8, [sp], #-32

0000030c <l69>:
     30c:	751d6010 	ldrvc	r6, [sp, #-16]

00000310 <l70>:
     310:	e3a0e018 	mov	lr, #24

00000314 <l71>:
     314:	e61d700e 	ldr	r7, [sp], -lr

00000318 <l72>:
     318:	e59d8004 	ldr	r8, [sp, #4]

0000031c <l73>:
     31c:	e3a01008 	mov	r1, #8

00000320 <l74>:
     320:	e73d4001 	ldr	r4, [sp, -r1]!

00000324 <l75>:
     324:	e3a03040 	mov	r3, #64	; 0x40

00000328 <l76>:
     328:	e79d0003 	ldr	r0, [sp, r3]

0000032c <l77>:
     32c:	e5bdc010 	ldr	ip, [sp, #16]!

00000330 <l78>:
     330:	e3a0a000 	mov	sl, #0

00000334 <l79>:
     334:	e7bd700a 	ldr	r7, [sp, sl]!

00000338 <l80>:
     338:	e3a07014 	mov	r7, #20

0000033c <l81>:
     33c:	e71d3007 	ldr	r3, [sp, -r7]

00000340 <l82>:
     340:	e3a0101c 	mov	r1, #28

00000344 <l83>:
     344:	e69d6001 	ldr	r6, [sp], r1

00000348 <l84>:
     348:	951db00c 	ldrls	fp, [sp, #-12]

0000034c <l85>:
     34c:	e3a01010 	mov	r1, #16

00000350 <l86>:
     350:	e73db001 	ldr	fp, [sp, -r1]!

00000354 <l87>:
     354:	c59d1024 	ldrgt	r1, [sp, #36]	; 0x24

00000358 <l88>:
     358:	e5bd8000 	ldr	r8, [sp, #0]!

0000035c <l89>:
     35c:	e3a07010 	mov	r7, #16

00000360 <l90>:
     360:	e73db007 	ldr	fp, [sp, -r7]!

00000364 <l91>:
     364:	e59d500c 	ldr	r5, [sp, #12]

00000368 <l92>:
     368:	e3a00034 	mov	r0, #52	; 0x34

0000036c <l93>:
     36c:	979d2000 	ldrls	r2, [sp, r0]

00000370 <l94>:
     370:	959d6020 	ldrls	r6, [sp, #32]

00000374 <l95>:
     374:	e3a0a018 	mov	sl, #24

00000378 <l96>:
     378:	579d000a 	ldrpl	r0, [sp, sl]

0000037c <l97>:
     37c:	e49d9024 	ldr	r9, [sp], #36	; 0x24

00000380 <l98>:
     380:	e51d2024 	ldr	r2, [sp, #-36]	; 0x24

00000384 <l99>:
     384:	e3a0e004 	mov	lr, #4

00000388 <l100>:
     388:	e79d800e 	ldr	r8, [sp, lr]

0000038c <l101>:
     38c:	e3a01024 	mov	r1, #36	; 0x24

00000390 <l102>:
     390:	c71d7001 	ldrgt	r7, [sp, -r1]

00000394 <l103>:
     394:	e3a09030 	mov	r9, #48	; 0x30

00000398 <l104>:
     398:	e71d5009 	ldr	r5, [sp, -r9]

0000039c <l105>:
     39c:	d59da010 	ldrle	sl, [sp, #16]

000003a0 <l106>:
     3a0:	e53d601c 	ldr	r6, [sp, #-28]!

000003a4 <l107>:
     3a4:	e5bd0014 	ldr	r0, [sp, #20]!

000003a8 <l108>:
     3a8:	e51d2010 	ldr	r2, [sp, #-16]

000003ac <l109>:
     3ac:	e3a0a004 	mov	sl, #4

000003b0 <l110>:
     3b0:	e61d800a 	ldr	r8, [sp], -sl

000003b4 <l111>:
     3b4:	b59de01c 	ldrlt	lr, [sp, #28]

000003b8 <l112>:
     3b8:	e3a04010 	mov	r4, #16

000003bc <l113>:
     3bc:	e73dc004 	ldr	ip, [sp, -r4]!

000003c0 <l114>:
     3c0:	e3a0e02c 	mov	lr, #44	; 0x2c

000003c4 <l115>:
     3c4:	e7bdc00e 	ldr	ip, [sp, lr]!

000003c8 <l116>:
     3c8:	e3a02034 	mov	r2, #52	; 0x34

000003cc <l117>:
     3cc:	e73d8002 	ldr	r8, [sp, -r2]!

000003d0 <l118>:
     3d0:	e3a0e000 	mov	lr, #0

000003d4 <l119>:
     3d4:	e69dc00e 	ldr	ip, [sp], lr

000003d8 <l120>:
     3d8:	e3a0001c 	mov	r0, #28

000003dc <l121>:
     3dc:	d79d1000 	ldrle	r1, [sp, r0]

000003e0 <l122>:
     3e0:	e3a0b00c 	mov	fp, #12

000003e4 <l123>:
     3e4:	e73da00b 	ldr	sl, [sp, -fp]!

000003e8 <l124>:
     3e8:	e5bdb030 	ldr	fp, [sp, #48]!	; 0x30

000003ec <l125>:
     3ec:	e53d5004 	ldr	r5, [sp, #-4]!

000003f0 <l126>:
     3f0:	e41d8018 	ldr	r8, [sp], #-24

000003f4 <l127>:
     3f4:	e3a01004 	mov	r1, #4

000003f8 <l128>:
     3f8:	c71d4001 	ldrgt	r4, [sp, -r1]

000003fc <l129>:
     3fc:	e3a08008 	mov	r8, #8

00000400 <l130>:
     400:	e79d8008 	ldr	r8, [sp, r8]

00000404 <l131>:
     404:	e3a05028 	mov	r5, #40	; 0x28

00000408 <l132>:
     408:	e7bd6005 	ldr	r6, [sp, r5]!

0000040c <l133>:
     40c:	751d7008 	ldrvc	r7, [sp, #-8]

00000410 <l134>:
     410:	e3a09038 	mov	r9, #56	; 0x38

00000414 <l135>:
     414:	e73d7009 	ldr	r7, [sp, -r9]!

00000418 <l136>:
     418:	e41da008 	ldr	sl, [sp], #-8

0000041c <l137>:
     41c:	e3a0a018 	mov	sl, #24

00000420 <l138>:
     420:	e69d200a 	ldr	r2, [sp], sl

00000424 <l139>:
     424:	e3a05018 	mov	r5, #24

00000428 <l140>:
     428:	e69d0005 	ldr	r0, [sp], r5

0000042c <l141>:
     42c:	e3a0801c 	mov	r8, #28

00000430 <l142>:
     430:	e61d1008 	ldr	r1, [sp], -r8

00000434 <l143>:
     434:	e51d7008 	ldr	r7, [sp, #-8]

00000438 <l144>:
     438:	e5bdb01c 	ldr	fp, [sp, #28]!

0000043c <l145>:
     43c:	e3a07028 	mov	r7, #40	; 0x28

00000440 <l146>:
     440:	671d7007 	ldrvs	r7, [sp, -r7]

00000444 <l147>:
     444:	e53db018 	ldr	fp, [sp, #-24]!

00000448 <l148>:
     448:	e59d7004 	ldr	r7, [sp, #4]

0000044c <l149>:
     44c:	e3a0c028 	mov	ip, #40	; 0x28

00000450 <l150>:
     450:	e7bdb00c 	ldr	fp, [sp, ip]!

00000454 <l151>:
     454:	e3a01000 	mov	r1, #0

00000458 <l152>:
     458:	e7bd7001 	ldr	r7, [sp, r1]!

0000045c <l153>:
     45c:	e3a0700c 	mov	r7, #12

00000460 <l154>:
     460:	e71dc007 	ldr	ip, [sp, -r7]

00000464 <l155>:
     464:	e3a0a004 	mov	sl, #4

00000468 <l156>:
     468:	e79d200a 	ldr	r2, [sp, sl]

0000046c <l157>:
     46c:	e41d7024 	ldr	r7, [sp], #-36	; 0x24

00000470 <l158>:
     470:	e3a03014 	mov	r3, #20

00000474 <l159>:
     474:	e61d0003 	ldr	r0, [sp], -r3

00000478 <l160>:
     478:	e3a06004 	mov	r6, #4

0000047c <l161>:
     47c:	e79d4006 	ldr	r4, [sp, r6]

00000480 <l162>:
     480:	e5bd6038 	ldr	r6, [sp, #56]!	; 0x38

00000484 <l163>:
     484:	e51d0018 	ldr	r0, [sp, #-24]

00000488 <l164>:
     488:	e41d9028 	ldr	r9, [sp], #-40	; 0x28

0000048c <l165>:
     48c:	e59db02c 	ldr	fp, [sp, #44]	; 0x2c

00000490 <l166>:
     490:	e5bd8008 	ldr	r8, [sp, #8]!

00000494 <l167>:
     494:	e41dc014 	ldr	ip, [sp], #-20

00000498 <l168>:
     498:	c59de034 	ldrgt	lr, [sp, #52]	; 0x34

0000049c <l169>:
     49c:	e3a02008 	mov	r2, #8

000004a0 <l170>:
     4a0:	e73d0002 	ldr	r0, [sp, -r2]!

000004a4 <l171>:
     4a4:	e3a0b00c 	mov	fp, #12

000004a8 <l172>:
     4a8:	e7bd400b 	ldr	r4, [sp, fp]!

000004ac <l173>:
     4ac:	e5bd0024 	ldr	r0, [sp, #36]!	; 0x24

000004b0 <l174>:
     4b0:	e53dc004 	ldr	ip, [sp, #-4]!

000004b4 <l175>:
     4b4:	e51da030 	ldr	sl, [sp, #-48]	; 0x30

000004b8 <l176>:
     4b8:	e53d7028 	ldr	r7, [sp, #-40]!	; 0x28

000004bc <l177>:
     4bc:	e3a04038 	mov	r4, #56	; 0x38

000004c0 <l178>:
     4c0:	e7bde004 	ldr	lr, [sp, r4]!

000004c4 <l179>:
     4c4:	e3a06008 	mov	r6, #8

000004c8 <l180>:
     4c8:	e71d1006 	ldr	r1, [sp, -r6]

000004cc <l181>:
     4cc:	e53d7028 	ldr	r7, [sp, #-40]!	; 0x28

000004d0 <l182>:
     4d0:	e51db010 	ldr	fp, [sp, #-16]

000004d4 <l183>:
     4d4:	e5bdb010 	ldr	fp, [sp, #16]!

000004d8 <l184>:
     4d8:	e59dc014 	ldr	ip, [sp, #20]

000004dc <l185>:
     4dc:	e3a03004 	mov	r3, #4

000004e0 <l186>:
     4e0:	879d7003 	ldrhi	r7, [sp, r3]

000004e4 <l187>:
     4e4:	e3a02014 	mov	r2, #20

000004e8 <l188>:
     4e8:	e73d9002 	ldr	r9, [sp, -r2]!

000004ec <l189>:
     4ec:	e59db008 	ldr	fp, [sp, #8]

000004f0 <l190>:
     4f0:	e53d2008 	ldr	r2, [sp, #-8]!

000004f4 <l191>:
     4f4:	e49dc02c 	ldr	ip, [sp], #44	; 0x2c

000004f8 <l192>:
     4f8:	e3a0b024 	mov	fp, #36	; 0x24

000004fc <l193>:
     4fc:	e73d000b 	ldr	r0, [sp, -fp]!

00000500 <l194>:
     500:	e3a0a028 	mov	sl, #40	; 0x28

00000504 <l195>:
     504:	e7bd100a 	ldr	r1, [sp, sl]!

00000508 <l196>:
     508:	e41de018 	ldr	lr, [sp], #-24

0000050c <l197>:
     50c:	e49d4020 	ldr	r4, [sp], #32

00000510 <l198>:
     510:	e3a02008 	mov	r2, #8

00000514 <l199>:
     514:	e61d3002 	ldr	r3, [sp], -r2

00000518 <l200>:
     518:	e3a01000 	mov	r1, #0

0000051c <l201>:
     51c:	e7bd4001 	ldr	r4, [sp, r1]!

00000520 <l202>:
     520:	e3a07008 	mov	r7, #8

00000524 <l203>:
     524:	e73da007 	ldr	sl, [sp, -r7]!

00000528 <l204>:
     528:	e3a0c014 	mov	ip, #20

0000052c <l205>:
     52c:	271da00c 	ldrcs	sl, [sp, -ip]

00000530 <l206>:
     530:	e3a0a00c 	mov	sl, #12

00000534 <l207>:
     534:	e61d700a 	ldr	r7, [sp], -sl

00000538 <l208>:
     538:	e3a0e020 	mov	lr, #32

0000053c <l209>:
     53c:	e61d500e 	ldr	r5, [sp], -lr

00000540 <l210>:
     540:	e49d7008 	ldr	r7, [sp], #8

00000544 <l211>:
     544:	e49d8024 	ldr	r8, [sp], #36	; 0x24

00000548 <l212>:
     548:	e3a0e00c 	mov	lr, #12

0000054c <l213>:
     54c:	e73d700e 	ldr	r7, [sp, -lr]!

00000550 <l214>:
     550:	d51db018 	ldrle	fp, [sp, #-24]

00000554 <l215>:
     554:	e41da010 	ldr	sl, [sp], #-16

00000558 <l216>:
     558:	e5bd2024 	ldr	r2, [sp, #36]!	; 0x24

0000055c <l217>:
     55c:	e3a0b034 	mov	fp, #52	; 0x34

00000560 <l218>:
     560:	e73d300b 	ldr	r3, [sp, -fp]!

00000564 <l219>:
     564:	e5bd1034 	ldr	r1, [sp, #52]!	; 0x34

00000568 <l220>:
     568:	e3a07034 	mov	r7, #52	; 0x34

0000056c <l221>:
     56c:	e73d5007 	ldr	r5, [sp, -r7]!

00000570 <l222>:
     570:	e3a05038 	mov	r5, #56	; 0x38

00000574 <l223>:
     574:	e7bd5005 	ldr	r5, [sp, r5]!

00000578 <l224>:
     578:	e3a0903c 	mov	r9, #60	; 0x3c

0000057c <l225>:
     57c:	e73db009 	ldr	fp, [sp, -r9]!

00000580 <l226>:
     580:	e59d401c 	ldr	r4, [sp, #28]

00000584 <l227>:
     584:	e3a08004 	mov	r8, #4

00000588 <l228>:
     588:	e73d4008 	ldr	r4, [sp, -r8]!

0000058c <l229>:
     58c:	e3a06044 	mov	r6, #68	; 0x44

00000590 <l230>:
     590:	979d6006 	ldrls	r6, [sp, r6]

00000594 <l231>:
     594:	e3a0e024 	mov	lr, #36	; 0x24

00000598 <l232>:
     598:	e69d700e 	ldr	r7, [sp], lr

0000059c <l233>:
     59c:	e3a0c01c 	mov	ip, #28

000005a0 <l234>:
     5a0:	e61d100c 	ldr	r1, [sp], -ip

000005a4 <l235>:
     5a4:	e3a04014 	mov	r4, #20

000005a8 <l236>:
     5a8:	279d6004 	ldrcs	r6, [sp, r4]

000005ac <l237>:
     5ac:	e3a01008 	mov	r1, #8

000005b0 <l238>:
     5b0:	e7bd7001 	ldr	r7, [sp, r1]!

000005b4 <l239>:
     5b4:	e3a04024 	mov	r4, #36	; 0x24

000005b8 <l240>:
     5b8:	879dc004 	ldrhi	ip, [sp, r4]

000005bc <l241>:
     5bc:	e49d101c 	ldr	r1, [sp], #28

000005c0 <l242>:
     5c0:	e3a08010 	mov	r8, #16

000005c4 <l243>:
     5c4:	e7bd5008 	ldr	r5, [sp, r8]!

000005c8 <l244>:
     5c8:	e41d302c 	ldr	r3, [sp], #-44	; 0x2c

000005cc <l245>:
     5cc:	e3a05024 	mov	r5, #36	; 0x24

000005d0 <l246>:
     5d0:	e7bd4005 	ldr	r4, [sp, r5]!

000005d4 <l247>:
     5d4:	e53d3030 	ldr	r3, [sp, #-48]!	; 0x30

000005d8 <l248>:
     5d8:	e3a08030 	mov	r8, #48	; 0x30

000005dc <l249>:
     5dc:	179da008 	ldrne	sl, [sp, r8]

000005e0 <l250>:
     5e0:	e5bd2034 	ldr	r2, [sp, #52]!	; 0x34

000005e4 <l251>:
     5e4:	e3a05000 	mov	r5, #0

000005e8 <l252>:
     5e8:	e7bdb005 	ldr	fp, [sp, r5]!

000005ec <l253>:
     5ec:	851da00c 	ldrhi	sl, [sp, #-12]

000005f0 <l254>:
     5f0:	e41d0024 	ldr	r0, [sp], #-36	; 0x24

000005f4 <l255>:
     5f4:	e3a0c028 	mov	ip, #40	; 0x28

000005f8 <l256>:
     5f8:	479dc00c 	ldrmi	ip, [sp, ip]

000005fc <l257>:
     5fc:	e51da018 	ldr	sl, [sp, #-24]

00000600 <l258>:
     600:	e49d3000 	ldr	r3, [sp], #0

00000604 <l259>:
     604:	e41d9018 	ldr	r9, [sp], #-24

00000608 <l260>:
     608:	e3a0b048 	mov	fp, #72	; 0x48

0000060c <l261>:
     60c:	e7bda00b 	ldr	sl, [sp, fp]!

00000610 <l262>:
     610:	551da020 	ldrpl	sl, [sp, #-32]

00000614 <l263>:
     614:	e51d2024 	ldr	r2, [sp, #-36]	; 0x24

00000618 <l264>:
     618:	e3a0002c 	mov	r0, #44	; 0x2c

0000061c <l265>:
     61c:	e61db000 	ldr	fp, [sp], -r0

00000620 <l266>:
     620:	e41d9018 	ldr	r9, [sp], #-24

00000624 <l267>:
     624:	e3a0c034 	mov	ip, #52	; 0x34

00000628 <l268>:
     628:	e7bd200c 	ldr	r2, [sp, ip]!

0000062c <l269>:
     62c:	e53d1028 	ldr	r1, [sp, #-40]!	; 0x28

00000630 <l270>:
     630:	e49d902c 	ldr	r9, [sp], #44	; 0x2c

00000634 <l271>:
     634:	e3a0402c 	mov	r4, #44	; 0x2c

00000638 <l272>:
     638:	671d7004 	ldrvs	r7, [sp, -r4]

0000063c <l273>:
     63c:	e3a04024 	mov	r4, #36	; 0x24

00000640 <l274>:
     640:	871d6004 	ldrhi	r6, [sp, -r4]

00000644 <l275>:
     644:	e59db000 	ldr	fp, [sp]

00000648 <l276>:
     648:	e41d100c 	ldr	r1, [sp], #-12

0000064c <l277>:
     64c:	e3a04020 	mov	r4, #32

00000650 <l278>:
     650:	e73db004 	ldr	fp, [sp, -r4]!

00000654 <l279>:
     654:	e3a0c018 	mov	ip, #24

00000658 <l280>:
     658:	e7bd000c 	ldr	r0, [sp, ip]!

0000065c <l281>:
     65c:	e3a08010 	mov	r8, #16

00000660 <l282>:
     660:	e7bd5008 	ldr	r5, [sp, r8]!

00000664 <l283>:
     664:	e3a0c014 	mov	ip, #20

00000668 <l284>:
     668:	e61d300c 	ldr	r3, [sp], -ip

0000066c <l285>:
     66c:	e3a05010 	mov	r5, #16

00000670 <l286>:
     670:	e79da005 	ldr	sl, [sp, r5]

00000674 <l287>:
     674:	e41dc01c 	ldr	ip, [sp], #-28

00000678 <l288>:
     678:	e3a00038 	mov	r0, #56	; 0x38

0000067c <l289>:
     67c:	d79d6000 	ldrle	r6, [sp, r0]

00000680 <l290>:
     680:	e3a0802c 	mov	r8, #44	; 0x2c

00000684 <l291>:
     684:	e69da008 	ldr	sl, [sp], r8

00000688 <l292>:
     688:	e5bda004 	ldr	sl, [sp, #4]!

0000068c <l293>:
     68c:	b59d2004 	ldrlt	r2, [sp, #4]

00000690 <l294>:
     690:	e51d5028 	ldr	r5, [sp, #-40]	; 0x28

00000694 <l295>:
     694:	e3a05004 	mov	r5, #4

00000698 <l296>:
     698:	179d3005 	ldrne	r3, [sp, r5]

0000069c <l297>:
     69c:	e49d9010 	ldr	r9, [sp], #16

000006a0 <l298>:
     6a0:	e51d1040 	ldr	r1, [sp, #-64]	; 0x40

000006a4 <l299>:
     6a4:	e3a03038 	mov	r3, #56	; 0x38

000006a8 <l300>:
     6a8:	e73d6003 	ldr	r6, [sp, -r3]!

000006ac <l301>:
     6ac:	e3a0200c 	mov	r2, #12

000006b0 <l302>:
     6b0:	e61d0002 	ldr	r0, [sp], -r2

000006b4 <l303>:
     6b4:	e49da004 	pop	{sl}		; (ldr sl, [sp], #4)

000006b8 <l304>:
     6b8:	e41d8004 	ldr	r8, [sp], #-4

000006bc <l305>:
     6bc:	e5bd6040 	ldr	r6, [sp, #64]!	; 0x40

000006c0 <l306>:
     6c0:	e53d002c 	ldr	r0, [sp, #-44]!	; 0x2c

000006c4 <l307>:
     6c4:	e49da02c 	ldr	sl, [sp], #44	; 0x2c

000006c8 <l308>:
     6c8:	e53da034 	ldr	sl, [sp, #-52]!	; 0x34

000006cc <l309>:
     6cc:	e3a0e038 	mov	lr, #56	; 0x38

000006d0 <l310>:
     6d0:	e79db00e 	ldr	fp, [sp, lr]

000006d4 <l311>:
     6d4:	e49d6020 	ldr	r6, [sp], #32

000006d8 <l312>:
     6d8:	e3a06024 	mov	r6, #36	; 0x24

000006dc <l313>:
     6dc:	e61d7006 	ldr	r7, [sp], -r6

000006e0 <l314>:
     6e0:	e3a0c000 	mov	ip, #0

000006e4 <l315>:
     6e4:	879d800c 	ldrhi	r8, [sp, ip]

000006e8 <l316>:
     6e8:	e49d403c 	ldr	r4, [sp], #60	; 0x3c

000006ec <l317>:
     6ec:	e3a0c010 	mov	ip, #16

000006f0 <l318>:
     6f0:	e71d500c 	ldr	r5, [sp, -ip]

000006f4 <l319>:
     6f4:	e3a0e020 	mov	lr, #32

000006f8 <l320>:
     6f8:	e61dc00e 	ldr	ip, [sp], -lr

000006fc <l321>:
     6fc:	b59d2010 	ldrlt	r2, [sp, #16]

00000700 <l322>:
     700:	e41db014 	ldr	fp, [sp], #-20

00000704 <l323>:
     704:	e49db010 	ldr	fp, [sp], #16

00000708 <l324>:
     708:	e49d5000 	ldr	r5, [sp], #0

0000070c <l325>:
     70c:	e3a08010 	mov	r8, #16

00000710 <l326>:
     710:	e71d8008 	ldr	r8, [sp, -r8]

00000714 <l327>:
     714:	e41d5004 	ldr	r5, [sp], #-4

00000718 <l328>:
     718:	e5bd3000 	ldr	r3, [sp, #0]!

0000071c <l329>:
     71c:	e3a0100c 	mov	r1, #12

00000720 <l330>:
     720:	471d7001 	ldrmi	r7, [sp, -r1]

00000724 <l331>:
     724:	e3a06008 	mov	r6, #8

00000728 <l332>:
     728:	079d5006 	ldreq	r5, [sp, r6]

0000072c <l333>:
     72c:	e3a07004 	mov	r7, #4

00000730 <l334>:
     730:	e73de007 	ldr	lr, [sp, -r7]!

00000734 <l335>:
     734:	e3a02004 	mov	r2, #4

00000738 <l336>:
     738:	e7bd9002 	ldr	r9, [sp, r2]!

0000073c <l337>:
     73c:	e53d0018 	ldr	r0, [sp, #-24]!

00000740 <l338>:
     740:	e3a02028 	mov	r2, #40	; 0x28

00000744 <l339>:
     744:	e69d7002 	ldr	r7, [sp], r2

00000748 <l340>:
     748:	e3a0e028 	mov	lr, #40	; 0x28

0000074c <l341>:
     74c:	471d900e 	ldrmi	r9, [sp, -lr]

00000750 <l342>:
     750:	e5bd3014 	ldr	r3, [sp, #20]!

00000754 <l343>:
     754:	e49d7000 	ldr	r7, [sp], #0

00000758 <l344>:
     758:	e51d1040 	ldr	r1, [sp, #-64]	; 0x40

0000075c <l345>:
     75c:	e41d6010 	ldr	r6, [sp], #-16

00000760 <l346>:
     760:	e3a09014 	mov	r9, #20

00000764 <l347>:
     764:	e69d7009 	ldr	r7, [sp], r9

00000768 <l348>:
     768:	e51dc020 	ldr	ip, [sp, #-32]

0000076c <l349>:
     76c:	e41db02c 	ldr	fp, [sp], #-44	; 0x2c

00000770 <l350>:
     770:	e3a0101c 	mov	r1, #28

00000774 <l351>:
     774:	e69d8001 	ldr	r8, [sp], r1

00000778 <l352>:
     778:	751da038 	ldrvc	sl, [sp, #-56]	; 0x38

0000077c <l353>:
     77c:	e3a08004 	mov	r8, #4

00000780 <l354>:
     780:	e61d8008 	ldr	r8, [sp], -r8

00000784 <l355>:
     784:	e3a0701c 	mov	r7, #28

00000788 <l356>:
     788:	e73d7007 	ldr	r7, [sp, -r7]!

0000078c <l357>:
     78c:	e3a0e00c 	mov	lr, #12

00000790 <l358>:
     790:	e69d500e 	ldr	r5, [sp], lr

00000794 <l359>:
     794:	e53d9024 	ldr	r9, [sp, #-36]!	; 0x24

00000798 <l360>:
     798:	e3a07028 	mov	r7, #40	; 0x28

0000079c <l361>:
     79c:	579d9007 	ldrpl	r9, [sp, r7]

000007a0 <l362>:
     7a0:	e49d403c 	ldr	r4, [sp], #60	; 0x3c

000007a4 <l363>:
     7a4:	e3a0300c 	mov	r3, #12

000007a8 <l364>:
     7a8:	e73d0003 	ldr	r0, [sp, -r3]!

000007ac <l365>:
     7ac:	e3a09004 	mov	r9, #4

000007b0 <l366>:
     7b0:	e7bd3009 	ldr	r3, [sp, r9]!

000007b4 <l367>:
     7b4:	e3a0a014 	mov	sl, #20

000007b8 <l368>:
     7b8:	e61d900a 	ldr	r9, [sp], -sl

000007bc <l369>:
     7bc:	e3a01000 	mov	r1, #0

000007c0 <l370>:
     7c0:	e7bd7001 	ldr	r7, [sp, r1]!

000007c4 <l371>:
     7c4:	e3a0a010 	mov	sl, #16

000007c8 <l372>:
     7c8:	e73db00a 	ldr	fp, [sp, -sl]!

000007cc <l373>:
     7cc:	759de038 	ldrvc	lr, [sp, #56]	; 0x38

000007d0 <l374>:
     7d0:	e3a0e008 	mov	lr, #8

000007d4 <l375>:
     7d4:	e61d200e 	ldr	r2, [sp], -lr

000007d8 <l376>:
     7d8:	e5bd7034 	ldr	r7, [sp, #52]!	; 0x34

000007dc <l377>:
     7dc:	e3a00038 	mov	r0, #56	; 0x38

000007e0 <l378>:
     7e0:	e73d6000 	ldr	r6, [sp, -r0]!

000007e4 <l379>:
     7e4:	e3a09028 	mov	r9, #40	; 0x28

000007e8 <l380>:
     7e8:	479d7009 	ldrmi	r7, [sp, r9]

000007ec <l381>:
     7ec:	e3a09020 	mov	r9, #32

000007f0 <l382>:
     7f0:	779d7009 	ldrvc	r7, [sp, r9]

000007f4 <l383>:
     7f4:	e41d1004 	ldr	r1, [sp], #-4

000007f8 <l384>:
     7f8:	e49d200c 	ldr	r2, [sp], #12

000007fc <l385>:
     7fc:	e3a03024 	mov	r3, #36	; 0x24

00000800 <l386>:
     800:	e69d8003 	ldr	r8, [sp], r3

00000804 <l387>:
     804:	e3a06008 	mov	r6, #8

00000808 <l388>:
     808:	e69d0006 	ldr	r0, [sp], r6

0000080c <l389>:
     80c:	e53de018 	ldr	lr, [sp, #-24]!

00000810 <l390>:
     810:	e49d0028 	ldr	r0, [sp], #40	; 0x28

00000814 <l391>:
     814:	e53d3014 	ldr	r3, [sp, #-20]!

00000818 <l392>:
     818:	e3a0200c 	mov	r2, #12

0000081c <l393>:
     81c:	e73dc002 	ldr	ip, [sp, -r2]!

00000820 <l394>:
     820:	e3a0e004 	mov	lr, #4

00000824 <l395>:
     824:	e61d600e 	ldr	r6, [sp], -lr

00000828 <l396>:
     828:	e3a08004 	mov	r8, #4

0000082c <l397>:
     82c:	d71d9008 	ldrle	r9, [sp, -r8]

00000830 <l398>:
     830:	e5bd5020 	ldr	r5, [sp, #32]!

00000834 <l399>:
     834:	e53da038 	ldr	sl, [sp, #-56]!	; 0x38

00000838 <l400>:
     838:	e5bd802c 	ldr	r8, [sp, #44]!	; 0x2c

0000083c <l401>:
     83c:	e3a07020 	mov	r7, #32

00000840 <l402>:
     840:	e71dc007 	ldr	ip, [sp, -r7]

00000844 <l403>:
     844:	e3a0b008 	mov	fp, #8

00000848 <l404>:
     848:	e61d000b 	ldr	r0, [sp], -fp

0000084c <l405>:
     84c:	e3a0b000 	mov	fp, #0

00000850 <l406>:
     850:	e69d200b 	ldr	r2, [sp], fp

00000854 <l407>:
     854:	859d8014 	ldrhi	r8, [sp, #20]

00000858 <l408>:
     858:	e49d700c 	ldr	r7, [sp], #12

0000085c <l409>:
     85c:	e51db030 	ldr	fp, [sp, #-48]	; 0x30

00000860 <l410>:
     860:	e3a0a034 	mov	sl, #52	; 0x34

00000864 <l411>:
     864:	e61d300a 	ldr	r3, [sp], -sl

00000868 <l412>:
     868:	e3a06030 	mov	r6, #48	; 0x30

0000086c <l413>:
     86c:	e69de006 	ldr	lr, [sp], r6

00000870 <l414>:
     870:	e3a0800c 	mov	r8, #12

00000874 <l415>:
     874:	e71dc008 	ldr	ip, [sp, -r8]

00000878 <l416>:
     878:	e41d4020 	ldr	r4, [sp], #-32

0000087c <l417>:
     87c:	559d0008 	ldrpl	r0, [sp, #8]

00000880 <l418>:
     880:	e3a0a00c 	mov	sl, #12

00000884 <l419>:
     884:	e73d900a 	ldr	r9, [sp, -sl]!

00000888 <l420>:
     888:	e3a07030 	mov	r7, #48	; 0x30

0000088c <l421>:
     88c:	e79dc007 	ldr	ip, [sp, r7]

00000890 <l422>:
     890:	e3a0c028 	mov	ip, #40	; 0x28

00000894 <l423>:
     894:	e7bd700c 	ldr	r7, [sp, ip]!

00000898 <l424>:
     898:	e3a0a010 	mov	sl, #16

0000089c <l425>:
     89c:	e73d600a 	ldr	r6, [sp, -sl]!

000008a0 <l426>:
     8a0:	e49d6004 	pop	{r6}		; (ldr r6, [sp], #4)

000008a4 <l427>:
     8a4:	e53de028 	ldr	lr, [sp, #-40]!	; 0x28

000008a8 <l428>:
     8a8:	e3a09030 	mov	r9, #48	; 0x30

000008ac <l429>:
     8ac:	e69d6009 	ldr	r6, [sp], r9

000008b0 <l430>:
     8b0:	e3a02004 	mov	r2, #4

000008b4 <l431>:
     8b4:	e73d3002 	ldr	r3, [sp, -r2]!

000008b8 <l432>:
     8b8:	e3a0702c 	mov	r7, #44	; 0x2c

000008bc <l433>:
     8bc:	e71da007 	ldr	sl, [sp, -r7]

000008c0 <l434>:
     8c0:	e53d0018 	ldr	r0, [sp, #-24]!

000008c4 <l435>:
     8c4:	e49d3010 	ldr	r3, [sp], #16

000008c8 <l436>:
     8c8:	e3a00004 	mov	r0, #4

000008cc <l437>:
     8cc:	e7bd3000 	ldr	r3, [sp, r0]!

000008d0 <l438>:
     8d0:	e41de028 	ldr	lr, [sp], #-40	; 0x28

000008d4 <l439>:
     8d4:	e3a06034 	mov	r6, #52	; 0x34

000008d8 <l440>:
     8d8:	e69dc006 	ldr	ip, [sp], r6

000008dc <l441>:
     8dc:	e3a07000 	mov	r7, #0

000008e0 <l442>:
     8e0:	879d8007 	ldrhi	r8, [sp, r7]

000008e4 <l443>:
     8e4:	e41da030 	ldr	sl, [sp], #-48	; 0x30

000008e8 <l444>:
     8e8:	e3a06014 	mov	r6, #20

000008ec <l445>:
     8ec:	e7bda006 	ldr	sl, [sp, r6]!

000008f0 <l446>:
     8f0:	e49d6018 	ldr	r6, [sp], #24

000008f4 <l447>:
     8f4:	e3a0600c 	mov	r6, #12

000008f8 <l448>:
     8f8:	e61d7006 	ldr	r7, [sp], -r6

000008fc <l449>:
     8fc:	e5bde014 	ldr	lr, [sp, #20]!

00000900 <l450>:
     900:	e53d1028 	ldr	r1, [sp, #-40]!	; 0x28

00000904 <l451>:
     904:	e5bd4018 	ldr	r4, [sp, #24]!

00000908 <l452>:
     908:	e3a0c00c 	mov	ip, #12

0000090c <l453>:
     90c:	679dc00c 	ldrvs	ip, [sp, ip]

00000910 <l454>:
     910:	e3a02004 	mov	r2, #4

00000914 <l455>:
     914:	e79de002 	ldr	lr, [sp, r2]

00000918 <l456>:
     918:	e53d4010 	ldr	r4, [sp, #-16]!

0000091c <l457>:
     91c:	e3a0402c 	mov	r4, #44	; 0x2c

00000920 <l458>:
     920:	e7bd7004 	ldr	r7, [sp, r4]!

00000924 <l459>:
     924:	e49d1000 	ldr	r1, [sp], #0

00000928 <l460>:
     928:	e3a01044 	mov	r1, #68	; 0x44

0000092c <l461>:
     92c:	e73d0001 	ldr	r0, [sp, -r1]!

00000930 <l462>:
     930:	e3a0a034 	mov	sl, #52	; 0x34

00000934 <l463>:
     934:	e69d500a 	ldr	r5, [sp], sl

00000938 <l464>:
     938:	e3a02014 	mov	r2, #20

0000093c <l465>:
     93c:	e73d3002 	ldr	r3, [sp, -r2]!

00000940 <l466>:
     940:	959d8028 	ldrls	r8, [sp, #40]	; 0x28

00000944 <l467>:
     944:	e3a02014 	mov	r2, #20

00000948 <l468>:
     948:	e69d3002 	ldr	r3, [sp], r2

0000094c <l469>:
     94c:	e3a01024 	mov	r1, #36	; 0x24

00000950 <l470>:
     950:	e73de001 	ldr	lr, [sp, -r1]!

00000954 <l471>:
     954:	e49d5010 	ldr	r5, [sp], #16

00000958 <l472>:
     958:	e3a08024 	mov	r8, #36	; 0x24

0000095c <l473>:
     95c:	e7bde008 	ldr	lr, [sp, r8]!

00000960 <l474>:
     960:	e3a0900c 	mov	r9, #12

00000964 <l475>:
     964:	e71d6009 	ldr	r6, [sp, -r9]

00000968 <l476>:
     968:	e3a0c018 	mov	ip, #24

0000096c <l477>:
     96c:	e71d800c 	ldr	r8, [sp, -ip]

00000970 <l478>:
     970:	e3a05010 	mov	r5, #16

00000974 <l479>:
     974:	e61d1005 	ldr	r1, [sp], -r5

00000978 <l480>:
     978:	e5bd300c 	ldr	r3, [sp, #12]!

0000097c <l481>:
     97c:	e3a0e020 	mov	lr, #32

00000980 <l482>:
     980:	e73d600e 	ldr	r6, [sp, -lr]!

00000984 <l483>:
     984:	e53d7014 	ldr	r7, [sp, #-20]!

00000988 <l484>:
     988:	e3a0800c 	mov	r8, #12

0000098c <l485>:
     98c:	e69d2008 	ldr	r2, [sp], r8

00000990 <l486>:
     990:	e49d9008 	ldr	r9, [sp], #8

00000994 <l487>:
     994:	e53de004 	ldr	lr, [sp, #-4]!

00000998 <l488>:
     998:	e3a0801c 	mov	r8, #28

0000099c <l489>:
     99c:	e61d6008 	ldr	r6, [sp], -r8

000009a0 <l490>:
     9a0:	e3a05014 	mov	r5, #20

000009a4 <l491>:
     9a4:	e69d5005 	ldr	r5, [sp], r5

000009a8 <l492>:
     9a8:	e3a08014 	mov	r8, #20

000009ac <l493>:
     9ac:	e61d7008 	ldr	r7, [sp], -r8

000009b0 <l494>:
     9b0:	e3a07040 	mov	r7, #64	; 0x40

000009b4 <l495>:
     9b4:	e7bd9007 	ldr	r9, [sp, r7]!

000009b8 <l496>:
     9b8:	c51d302c 	ldrgt	r3, [sp, #-44]	; 0x2c

000009bc <l497>:
     9bc:	e3a0c028 	mov	ip, #40	; 0x28

000009c0 <l498>:
     9c0:	a71db00c 	ldrge	fp, [sp, -ip]

000009c4 <l499>:
     9c4:	e3a0e008 	mov	lr, #8

000009c8 <l500>:
     9c8:	e7bd700e 	ldr	r7, [sp, lr]!

000009cc <l501>:
     9cc:	e41d703c 	ldr	r7, [sp], #-60	; 0x3c

000009d0 <l502>:
     9d0:	e3a0102c 	mov	r1, #44	; 0x2c

000009d4 <l503>:
     9d4:	e7bd9001 	ldr	r9, [sp, r1]!

000009d8 <l504>:
     9d8:	e51d4018 	ldr	r4, [sp, #-24]

000009dc <l505>:
     9dc:	e3a06008 	mov	r6, #8

000009e0 <l506>:
     9e0:	279d4006 	ldrcs	r4, [sp, r6]

000009e4 <l507>:
     9e4:	e3a01028 	mov	r1, #40	; 0x28

000009e8 <l508>:
     9e8:	e61d3001 	ldr	r3, [sp], -r1

000009ec <l509>:
     9ec:	e3a06024 	mov	r6, #36	; 0x24

000009f0 <l510>:
     9f0:	e79da006 	ldr	sl, [sp, r6]

000009f4 <l511>:
     9f4:	e3a02034 	mov	r2, #52	; 0x34

000009f8 <l512>:
     9f8:	279d8002 	ldrcs	r8, [sp, r2]

000009fc <l513>:
     9fc:	e59d2038 	ldr	r2, [sp, #56]	; 0x38

00000a00 <l514>:
     a00:	e3a00020 	mov	r0, #32

00000a04 <l515>:
     a04:	e7bda000 	ldr	sl, [sp, r0]!

00000a08 <l516>:
     a08:	e3a08010 	mov	r8, #16

00000a0c <l517>:
     a0c:	e73d3008 	ldr	r3, [sp, -r8]!

00000a10 <l518>:
     a10:	e49d8014 	ldr	r8, [sp], #20

00000a14 <l519>:
     a14:	e41d0008 	ldr	r0, [sp], #-8

00000a18 <l520>:
     a18:	e59d5000 	ldr	r5, [sp]

00000a1c <l521>:
     a1c:	e41d2010 	ldr	r2, [sp], #-16

00000a20 <l522>:
     a20:	e3a05008 	mov	r5, #8

00000a24 <l523>:
     a24:	a71d8005 	ldrge	r8, [sp, -r5]

00000a28 <l524>:
     a28:	e3a08010 	mov	r8, #16

00000a2c <l525>:
     a2c:	e73da008 	ldr	sl, [sp, -r8]!

00000a30 <l526>:
     a30:	059d303c 	ldreq	r3, [sp, #60]	; 0x3c

00000a34 <l527>:
     a34:	e5bd0028 	ldr	r0, [sp, #40]!	; 0x28

00000a38 <l528>:
     a38:	459d9014 	ldrmi	r9, [sp, #20]

00000a3c <l529>:
     a3c:	e3a0e010 	mov	lr, #16

00000a40 <l530>:
     a40:	e61de00e 	ldr	lr, [sp], -lr

00000a44 <l531>:
     a44:	e51d1024 	ldr	r1, [sp, #-36]	; 0x24

00000a48 <l532>:
     a48:	e3a0e000 	mov	lr, #0

00000a4c <l533>:
     a4c:	e7bd100e 	ldr	r1, [sp, lr]!

00000a50 <l534>:
     a50:	e53dc00c 	ldr	ip, [sp, #-12]!

00000a54 <l535>:
     a54:	e3a03004 	mov	r3, #4

00000a58 <l536>:
     a58:	e7bd7003 	ldr	r7, [sp, r3]!

00000a5c <l537>:
     a5c:	e5bd4024 	ldr	r4, [sp, #36]!	; 0x24

00000a60 <l538>:
     a60:	e3a0a030 	mov	sl, #48	; 0x30

00000a64 <l539>:
     a64:	e73d600a 	ldr	r6, [sp, -sl]!

00000a68 <l540>:
     a68:	e3a02004 	mov	r2, #4

00000a6c <l541>:
     a6c:	e69d0002 	ldr	r0, [sp], r2

00000a70 <l542>:
     a70:	b59de020 	ldrlt	lr, [sp, #32]

00000a74 <l543>:
     a74:	e3a06014 	mov	r6, #20

00000a78 <l544>:
     a78:	779da006 	ldrvc	sl, [sp, r6]

00000a7c <l545>:
     a7c:	e3a0e01c 	mov	lr, #28

00000a80 <l546>:
     a80:	979d900e 	ldrls	r9, [sp, lr]

00000a84 <l547>:
     a84:	e3a0200c 	mov	r2, #12

00000a88 <l548>:
     a88:	e7bdc002 	ldr	ip, [sp, r2]!

00000a8c <l549>:
     a8c:	e5bda028 	ldr	sl, [sp, #40]!	; 0x28

00000a90 <l550>:
     a90:	e51d300c 	ldr	r3, [sp, #-12]

00000a94 <l551>:
     a94:	a51d4048 	ldrge	r4, [sp, #-72]	; 0x48

00000a98 <l552>:
     a98:	e49db000 	ldr	fp, [sp], #0

00000a9c <l553>:
     a9c:	e3a05044 	mov	r5, #68	; 0x44

00000aa0 <l554>:
     aa0:	e73d2005 	ldr	r2, [sp, -r5]!

00000aa4 <l555>:
     aa4:	e3a08010 	mov	r8, #16

00000aa8 <l556>:
     aa8:	e79d3008 	ldr	r3, [sp, r8]

00000aac <l557>:
     aac:	e3a05008 	mov	r5, #8

00000ab0 <l558>:
     ab0:	e69de005 	ldr	lr, [sp], r5

00000ab4 <l559>:
     ab4:	e41d5004 	ldr	r5, [sp], #-4

00000ab8 <l560>:
     ab8:	e5bd600c 	ldr	r6, [sp, #12]!

00000abc <l561>:
     abc:	e3a01028 	mov	r1, #40	; 0x28

00000ac0 <l562>:
     ac0:	e7bd7001 	ldr	r7, [sp, r1]!

00000ac4 <l563>:
     ac4:	e51d002c 	ldr	r0, [sp, #-44]	; 0x2c

00000ac8 <l564>:
     ac8:	a51d5038 	ldrge	r5, [sp, #-56]	; 0x38

00000acc <l565>:
     acc:	e3a00014 	mov	r0, #20

00000ad0 <l566>:
     ad0:	e71d8000 	ldr	r8, [sp, -r0]

00000ad4 <l567>:
     ad4:	859d700c 	ldrhi	r7, [sp, #12]

00000ad8 <l568>:
     ad8:	e41de024 	ldr	lr, [sp], #-36	; 0x24

00000adc <l569>:
     adc:	e41de008 	ldr	lr, [sp], #-8

00000ae0 <l570>:
     ae0:	359d202c 	ldrcc	r2, [sp, #44]	; 0x2c

00000ae4 <l571>:
     ae4:	b59d6020 	ldrlt	r6, [sp, #32]

00000ae8 <l572>:
     ae8:	e3a07008 	mov	r7, #8

00000aec <l573>:
     aec:	e79da007 	ldr	sl, [sp, r7]

00000af0 <l574>:
     af0:	e59db024 	ldr	fp, [sp, #36]	; 0x24

00000af4 <l575>:
     af4:	e59d5034 	ldr	r5, [sp, #52]	; 0x34

00000af8 <l576>:
     af8:	e3a0600c 	mov	r6, #12

00000afc <l577>:
     afc:	379de006 	ldrcc	lr, [sp, r6]

00000b00 <l578>:
     b00:	e3a00028 	mov	r0, #40	; 0x28

00000b04 <l579>:
     b04:	e69d6000 	ldr	r6, [sp], r0

00000b08 <l580>:
     b08:	e3a05004 	mov	r5, #4

00000b0c <l581>:
     b0c:	779d7005 	ldrvc	r7, [sp, r5]

00000b10 <l582>:
     b10:	e3a0b020 	mov	fp, #32

00000b14 <l583>:
     b14:	e61d700b 	ldr	r7, [sp], -fp

00000b18 <l584>:
     b18:	e3a05008 	mov	r5, #8

00000b1c <l585>:
     b1c:	e73d3005 	ldr	r3, [sp, -r5]!

00000b20 <l586>:
     b20:	e49d4034 	ldr	r4, [sp], #52	; 0x34

00000b24 <l587>:
     b24:	e3a0a014 	mov	sl, #20

00000b28 <l588>:
     b28:	e71de00a 	ldr	lr, [sp, -sl]

00000b2c <l589>:
     b2c:	e5bd2000 	ldr	r2, [sp, #0]!

00000b30 <l590>:
     b30:	e3a07004 	mov	r7, #4

00000b34 <l591>:
     b34:	e61dc007 	ldr	ip, [sp], -r7

00000b38 <l592>:
     b38:	e3a0c03c 	mov	ip, #60	; 0x3c

00000b3c <l593>:
     b3c:	e73d000c 	ldr	r0, [sp, -ip]!

00000b40 <l594>:
     b40:	e3a01040 	mov	r1, #64	; 0x40

00000b44 <l595>:
     b44:	e7bd7001 	ldr	r7, [sp, r1]!

00000b48 <l596>:
     b48:	e3a0b008 	mov	fp, #8

00000b4c <l597>:
     b4c:	e71d200b 	ldr	r2, [sp, -fp]

00000b50 <l598>:
     b50:	e53d301c 	ldr	r3, [sp, #-28]!

00000b54 <l599>:
     b54:	e41d0010 	ldr	r0, [sp], #-16

00000b58 <l600>:
     b58:	e3a09010 	mov	r9, #16

00000b5c <l601>:
     b5c:	e69d7009 	ldr	r7, [sp], r9

00000b60 <l602>:
     b60:	e3a0c020 	mov	ip, #32

00000b64 <l603>:
     b64:	e73d000c 	ldr	r0, [sp, -ip]!

00000b68 <l604>:
     b68:	e49de040 	ldr	lr, [sp], #64	; 0x40

00000b6c <l605>:
     b6c:	a51d3040 	ldrge	r3, [sp, #-64]	; 0x40

00000b70 <l606>:
     b70:	e3a09008 	mov	r9, #8

00000b74 <l607>:
     b74:	271de009 	ldrcs	lr, [sp, -r9]

00000b78 <l608>:
     b78:	e41db010 	ldr	fp, [sp], #-16

00000b7c <l609>:
     b7c:	759d7010 	ldrvc	r7, [sp, #16]

00000b80 <l610>:
     b80:	e53d0034 	ldr	r0, [sp, #-52]!	; 0x34

00000b84 <l611>:
     b84:	e5bd9000 	ldr	r9, [sp, #0]!

00000b88 <l612>:
     b88:	e59d4008 	ldr	r4, [sp, #8]

00000b8c <l613>:
     b8c:	e5bd5000 	ldr	r5, [sp, #0]!

00000b90 <l614>:
     b90:	e3a0a00c 	mov	sl, #12

00000b94 <l615>:
     b94:	b79db00a 	ldrlt	fp, [sp, sl]

00000b98 <l616>:
     b98:	559db040 	ldrpl	fp, [sp, #64]	; 0x40

00000b9c <l617>:
     b9c:	e5bd6010 	ldr	r6, [sp, #16]!

00000ba0 <l618>:
     ba0:	e3a0100c 	mov	r1, #12

00000ba4 <l619>:
     ba4:	e73d3001 	ldr	r3, [sp, -r1]!

00000ba8 <l620>:
     ba8:	e5bd201c 	ldr	r2, [sp, #28]!

00000bac <l621>:
     bac:	251d0010 	ldrcs	r0, [sp, #-16]

00000bb0 <l622>:
     bb0:	d59d3018 	ldrle	r3, [sp, #24]

00000bb4 <l623>:
     bb4:	e3a00004 	mov	r0, #4

00000bb8 <l624>:
     bb8:	e69d0000 	ldr	r0, [sp], r0

00000bbc <l625>:
     bbc:	e53da004 	ldr	sl, [sp, #-4]!

00000bc0 <l626>:
     bc0:	e3a0b024 	mov	fp, #36	; 0x24

00000bc4 <l627>:
     bc4:	e71d500b 	ldr	r5, [sp, -fp]

00000bc8 <l628>:
     bc8:	559dc018 	ldrpl	ip, [sp, #24]

00000bcc <l629>:
     bcc:	e3a0a00c 	mov	sl, #12

00000bd0 <l630>:
     bd0:	e73d700a 	ldr	r7, [sp, -sl]!

00000bd4 <l631>:
     bd4:	e41d2004 	ldr	r2, [sp], #-4

00000bd8 <l632>:
     bd8:	e5bdc024 	ldr	ip, [sp, #36]!	; 0x24

00000bdc <l633>:
     bdc:	e3a07004 	mov	r7, #4

00000be0 <l634>:
     be0:	d71d4007 	ldrle	r4, [sp, -r7]

00000be4 <l635>:
     be4:	e3a0001c 	mov	r0, #28

00000be8 <l636>:
     be8:	e61d0000 	ldr	r0, [sp], -r0

00000bec <l637>:
     bec:	e3a05008 	mov	r5, #8

00000bf0 <l638>:
     bf0:	e73d1005 	ldr	r1, [sp, -r5]!

00000bf4 <l639>:
     bf4:	e5bd1004 	ldr	r1, [sp, #4]!

00000bf8 <l640>:
     bf8:	e59dc014 	ldr	ip, [sp, #20]

00000bfc <l641>:
     bfc:	e5bd7020 	ldr	r7, [sp, #32]!

00000c00 <l642>:
     c00:	e3a08030 	mov	r8, #48	; 0x30

00000c04 <l643>:
     c04:	d71d4008 	ldrle	r4, [sp, -r8]

00000c08 <l644>:
     c08:	e41d402c 	ldr	r4, [sp], #-44	; 0x2c

00000c0c <l645>:
     c0c:	e5bdb028 	ldr	fp, [sp, #40]!	; 0x28

00000c10 <l646>:
     c10:	e41d2010 	ldr	r2, [sp], #-16

00000c14 <l647>:
     c14:	e3a00024 	mov	r0, #36	; 0x24

00000c18 <l648>:
     c18:	e69db000 	ldr	fp, [sp], r0

00000c1c <l649>:
     c1c:	e3a0201c 	mov	r2, #28

00000c20 <l650>:
     c20:	e61d0002 	ldr	r0, [sp], -r2

00000c24 <l651>:
     c24:	e3a0b014 	mov	fp, #20

00000c28 <l652>:
     c28:	e71d700b 	ldr	r7, [sp, -fp]

00000c2c <l653>:
     c2c:	e5bd3000 	ldr	r3, [sp, #0]!

00000c30 <l654>:
     c30:	e5bd2010 	ldr	r2, [sp, #16]!

00000c34 <l655>:
     c34:	e3a01020 	mov	r1, #32

00000c38 <l656>:
     c38:	e61d6001 	ldr	r6, [sp], -r1

00000c3c <l657>:
     c3c:	e3a0e02c 	mov	lr, #44	; 0x2c

00000c40 <l658>:
     c40:	879db00e 	ldrhi	fp, [sp, lr]

00000c44 <l659>:
     c44:	e59d100c 	ldr	r1, [sp, #12]

00000c48 <l660>:
     c48:	e3a04010 	mov	r4, #16

00000c4c <l661>:
     c4c:	e7bd9004 	ldr	r9, [sp, r4]!

00000c50 <l662>:
     c50:	e3a05014 	mov	r5, #20

00000c54 <l663>:
     c54:	e69d7005 	ldr	r7, [sp], r5

00000c58 <l664>:
     c58:	e3a00008 	mov	r0, #8

00000c5c <l665>:
     c5c:	a79de000 	ldrge	lr, [sp, r0]

00000c60 <l666>:
     c60:	e53d701c 	ldr	r7, [sp, #-28]!

00000c64 <l667>:
     c64:	451da004 	ldrmi	sl, [sp, #-4]

00000c68 <l668>:
     c68:	e3a0b024 	mov	fp, #36	; 0x24

00000c6c <l669>:
     c6c:	e73d300b 	ldr	r3, [sp, -fp]!

00000c70 <l670>:
     c70:	e49de020 	ldr	lr, [sp], #32

00000c74 <l671>:
     c74:	e53d0014 	ldr	r0, [sp, #-20]!

00000c78 <l672>:
     c78:	e5bd4038 	ldr	r4, [sp, #56]!	; 0x38

00000c7c <l673>:
     c7c:	e53d6030 	ldr	r6, [sp, #-48]!	; 0x30

00000c80 <l674>:
     c80:	e3a01004 	mov	r1, #4

00000c84 <l675>:
     c84:	e61d7001 	ldr	r7, [sp], -r1

00000c88 <l676>:
     c88:	e5bde010 	ldr	lr, [sp, #16]!

00000c8c <l677>:
     c8c:	e3a0c000 	mov	ip, #0

00000c90 <l678>:
     c90:	079d900c 	ldreq	r9, [sp, ip]

00000c94 <l679>:
     c94:	e3a07018 	mov	r7, #24

00000c98 <l680>:
     c98:	e71d2007 	ldr	r2, [sp, -r7]

00000c9c <l681>:
     c9c:	e53d9014 	ldr	r9, [sp, #-20]!

00000ca0 <l682>:
     ca0:	e3a0a020 	mov	sl, #32

00000ca4 <l683>:
     ca4:	e69d400a 	ldr	r4, [sp], sl

00000ca8 <l684>:
     ca8:	e51d3024 	ldr	r3, [sp, #-36]	; 0x24

00000cac <l685>:
     cac:	e3a08004 	mov	r8, #4

00000cb0 <l686>:
     cb0:	e61db008 	ldr	fp, [sp], -r8

00000cb4 <l687>:
     cb4:	e53d8008 	ldr	r8, [sp, #-8]!

00000cb8 <l688>:
     cb8:	e3a0c028 	mov	ip, #40	; 0x28

00000cbc <l689>:
     cbc:	e69dc00c 	ldr	ip, [sp], ip

00000cc0 <l690>:
     cc0:	e53d0018 	ldr	r0, [sp, #-24]!

00000cc4 <l691>:
     cc4:	e53d3004 	ldr	r3, [sp, #-4]!

00000cc8 <l692>:
     cc8:	e3a04018 	mov	r4, #24

00000ccc <l693>:
     ccc:	979d8004 	ldrls	r8, [sp, r4]

00000cd0 <l694>:
     cd0:	e3a07010 	mov	r7, #16

00000cd4 <l695>:
     cd4:	e73d1007 	ldr	r1, [sp, -r7]!

00000cd8 <l696>:
     cd8:	e3a0a010 	mov	sl, #16

00000cdc <l697>:
     cdc:	e61d700a 	ldr	r7, [sp], -sl

00000ce0 <l698>:
     ce0:	e53d4008 	ldr	r4, [sp, #-8]!

00000ce4 <l699>:
     ce4:	e49d8008 	ldr	r8, [sp], #8

00000ce8 <l700>:
     ce8:	e5bd1008 	ldr	r1, [sp, #8]!

00000cec <l701>:
     cec:	e3a02014 	mov	r2, #20

00000cf0 <l702>:
     cf0:	e69d8002 	ldr	r8, [sp], r2

00000cf4 <l703>:
     cf4:	e53d2010 	ldr	r2, [sp, #-16]!

00000cf8 <l704>:
     cf8:	e49d5020 	ldr	r5, [sp], #32

00000cfc <l705>:
     cfc:	e3a0a010 	mov	sl, #16

00000d00 <l706>:
     d00:	e61d700a 	ldr	r7, [sp], -sl

00000d04 <l707>:
     d04:	e3a09008 	mov	r9, #8

00000d08 <l708>:
     d08:	e73de009 	ldr	lr, [sp, -r9]!

00000d0c <l709>:
     d0c:	e49db024 	ldr	fp, [sp], #36	; 0x24

00000d10 <l710>:
     d10:	e53d4008 	ldr	r4, [sp, #-8]!

00000d14 <l711>:
     d14:	e5bd1008 	ldr	r1, [sp, #8]!

00000d18 <l712>:
     d18:	e5bd4004 	ldr	r4, [sp, #4]!

00000d1c <l713>:
     d1c:	e3a04014 	mov	r4, #20

00000d20 <l714>:
     d20:	e73d7004 	ldr	r7, [sp, -r4]!

00000d24 <l715>:
     d24:	e53de020 	ldr	lr, [sp, #-32]!

00000d28 <l716>:
     d28:	e3a0c014 	mov	ip, #20

00000d2c <l717>:
     d2c:	e61d900c 	ldr	r9, [sp], -ip

00000d30 <l718>:
     d30:	e5bd2020 	ldr	r2, [sp, #32]!

00000d34 <l719>:
     d34:	e59d201c 	ldr	r2, [sp, #28]

00000d38 <l720>:
     d38:	e5bd701c 	ldr	r7, [sp, #28]!

00000d3c <l721>:
     d3c:	e41d7010 	ldr	r7, [sp], #-16

00000d40 <l722>:
     d40:	e3a08010 	mov	r8, #16

00000d44 <l723>:
     d44:	479d9008 	ldrmi	r9, [sp, r8]

00000d48 <l724>:
     d48:	e3a02024 	mov	r2, #36	; 0x24

00000d4c <l725>:
     d4c:	871d7002 	ldrhi	r7, [sp, -r2]

00000d50 <l726>:
     d50:	e3a05024 	mov	r5, #36	; 0x24

00000d54 <l727>:
     d54:	171dc005 	ldrne	ip, [sp, -r5]

00000d58 <l728>:
     d58:	e49d8000 	ldr	r8, [sp], #0

00000d5c <l729>:
     d5c:	e3a06000 	mov	r6, #0

00000d60 <l730>:
     d60:	e79d0006 	ldr	r0, [sp, r6]

00000d64 <l731>:
     d64:	e3a0e004 	mov	lr, #4

00000d68 <l732>:
     d68:	e61d500e 	ldr	r5, [sp], -lr

00000d6c <l733>:
     d6c:	959da004 	ldrls	sl, [sp, #4]

00000d70 <l734>:
     d70:	e5bd7008 	ldr	r7, [sp, #8]!

00000d74 <l735>:
     d74:	e3a08010 	mov	r8, #16

00000d78 <l736>:
     d78:	071d4008 	ldreq	r4, [sp, -r8]

00000d7c <l737>:
     d7c:	e41dc010 	ldr	ip, [sp], #-16

00000d80 <l738>:
     d80:	451d0018 	ldrmi	r0, [sp, #-24]

00000d84 <l739>:
     d84:	e3a0c014 	mov	ip, #20

00000d88 <l740>:
     d88:	e79d700c 	ldr	r7, [sp, ip]

00000d8c <l741>:
     d8c:	e3a01018 	mov	r1, #24

00000d90 <l742>:
     d90:	e7bdc001 	ldr	ip, [sp, r1]!

00000d94 <l743>:
     d94:	e3a07010 	mov	r7, #16

00000d98 <l744>:
     d98:	279db007 	ldrcs	fp, [sp, r7]

00000d9c <l745>:
     d9c:	e3a07024 	mov	r7, #36	; 0x24

00000da0 <l746>:
     da0:	c71d2007 	ldrgt	r2, [sp, -r7]

00000da4 <l747>:
     da4:	e53da038 	ldr	sl, [sp, #-56]!	; 0x38

00000da8 <l748>:
     da8:	e3a04014 	mov	r4, #20

00000dac <l749>:
     dac:	b79db004 	ldrlt	fp, [sp, r4]

00000db0 <l750>:
     db0:	e3a06030 	mov	r6, #48	; 0x30

00000db4 <l751>:
     db4:	a79d0006 	ldrge	r0, [sp, r6]

00000db8 <l752>:
     db8:	e59db024 	ldr	fp, [sp, #36]	; 0x24

00000dbc <l753>:
     dbc:	e3a07008 	mov	r7, #8

00000dc0 <l754>:
     dc0:	979d8007 	ldrls	r8, [sp, r7]

00000dc4 <l755>:
     dc4:	e3a0b048 	mov	fp, #72	; 0x48

00000dc8 <l756>:
     dc8:	e79d900b 	ldr	r9, [sp, fp]

00000dcc <l757>:
     dcc:	e3a01034 	mov	r1, #52	; 0x34

00000dd0 <l758>:
     dd0:	e7bda001 	ldr	sl, [sp, r1]!

00000dd4 <l759>:
     dd4:	e53de02c 	ldr	lr, [sp, #-44]!	; 0x2c

00000dd8 <l760>:
     dd8:	e5bd3010 	ldr	r3, [sp, #16]!

00000ddc <l761>:
     ddc:	e3a05008 	mov	r5, #8

00000de0 <l762>:
     de0:	e69d8005 	ldr	r8, [sp], r5

00000de4 <l763>:
     de4:	451d4004 	ldrmi	r4, [sp, #-4]

00000de8 <l764>:
     de8:	e41d800c 	ldr	r8, [sp], #-12

00000dec <l765>:
     dec:	e5bda00c 	ldr	sl, [sp, #12]!

00000df0 <l766>:
     df0:	e53d5018 	ldr	r5, [sp, #-24]!

00000df4 <l767>:
     df4:	b59d9008 	ldrlt	r9, [sp, #8]

00000df8 <l768>:
     df8:	e3a0900c 	mov	r9, #12

00000dfc <l769>:
     dfc:	979d5009 	ldrls	r5, [sp, r9]

00000e00 <l770>:
     e00:	e3a0a020 	mov	sl, #32

00000e04 <l771>:
     e04:	379d400a 	ldrcc	r4, [sp, sl]

00000e08 <l772>:
     e08:	e49d6028 	ldr	r6, [sp], #40	; 0x28

00000e0c <l773>:
     e0c:	e3a05000 	mov	r5, #0

00000e10 <l774>:
     e10:	e7bd0005 	ldr	r0, [sp, r5]!

00000e14 <l775>:
     e14:	e49d6018 	ldr	r6, [sp], #24

00000e18 <l776>:
     e18:	e3a07028 	mov	r7, #40	; 0x28

00000e1c <l777>:
     e1c:	e73d6007 	ldr	r6, [sp, -r7]!

00000e20 <l778>:
     e20:	e49d9014 	ldr	r9, [sp], #20

00000e24 <l779>:
     e24:	859dc010 	ldrhi	ip, [sp, #16]

00000e28 <l780>:
     e28:	e3a0b004 	mov	fp, #4

00000e2c <l781>:
     e2c:	b71db00b 	ldrlt	fp, [sp, -fp]

00000e30 <l782>:
     e30:	e3a0c018 	mov	ip, #24

00000e34 <l783>:
     e34:	971da00c 	ldrls	sl, [sp, -ip]

00000e38 <l784>:
     e38:	e3a01000 	mov	r1, #0

00000e3c <l785>:
     e3c:	e69d3001 	ldr	r3, [sp], r1

00000e40 <l786>:
     e40:	759d900c 	ldrvc	r9, [sp, #12]

00000e44 <l787>:
     e44:	e41d602c 	ldr	r6, [sp], #-44	; 0x2c

00000e48 <l788>:
     e48:	e41d9008 	ldr	r9, [sp], #-8

00000e4c <l789>:
     e4c:	e49db020 	ldr	fp, [sp], #32

00000e50 <l790>:
     e50:	c59d3004 	ldrgt	r3, [sp, #4]

00000e54 <l791>:
     e54:	e49d5018 	ldr	r5, [sp], #24

00000e58 <l792>:
     e58:	e49d7000 	ldr	r7, [sp], #0

00000e5c <l793>:
     e5c:	d59d4004 	ldrle	r4, [sp, #4]

00000e60 <l794>:
     e60:	e3a0101c 	mov	r1, #28

00000e64 <l795>:
     e64:	171d3001 	ldrne	r3, [sp, -r1]

00000e68 <l796>:
     e68:	e3a0c004 	mov	ip, #4

00000e6c <l797>:
     e6c:	e73d300c 	ldr	r3, [sp, -ip]!

00000e70 <l798>:
     e70:	e3a01004 	mov	r1, #4

00000e74 <l799>:
     e74:	e61d7001 	ldr	r7, [sp], -r1

00000e78 <l800>:
     e78:	559de008 	ldrpl	lr, [sp, #8]

00000e7c <l801>:
     e7c:	e3a09014 	mov	r9, #20

00000e80 <l802>:
     e80:	679d1009 	ldrvs	r1, [sp, r9]

00000e84 <l803>:
     e84:	e3a06004 	mov	r6, #4

00000e88 <l804>:
     e88:	379db006 	ldrcc	fp, [sp, r6]

00000e8c <l805>:
     e8c:	e3a02030 	mov	r2, #48	; 0x30

00000e90 <l806>:
     e90:	e61d1002 	ldr	r1, [sp], -r2

00000e94 <l807>:
     e94:	e59d2018 	ldr	r2, [sp, #24]

00000e98 <l808>:
     e98:	e3a0e028 	mov	lr, #40	; 0x28

00000e9c <l809>:
     e9c:	e69db00e 	ldr	fp, [sp], lr

00000ea0 <l810>:
     ea0:	e49db020 	ldr	fp, [sp], #32

00000ea4 <l811>:
     ea4:	e53d5014 	ldr	r5, [sp, #-20]!

00000ea8 <l812>:
     ea8:	e3a06020 	mov	r6, #32

00000eac <l813>:
     eac:	571de006 	ldrpl	lr, [sp, -r6]

00000eb0 <l814>:
     eb0:	e51d1008 	ldr	r1, [sp, #-8]

00000eb4 <l815>:
     eb4:	e41d5020 	ldr	r5, [sp], #-32

00000eb8 <l816>:
     eb8:	e3a0200c 	mov	r2, #12

00000ebc <l817>:
     ebc:	e7bd6002 	ldr	r6, [sp, r2]!

00000ec0 <l818>:
     ec0:	e3a0001c 	mov	r0, #28

00000ec4 <l819>:
     ec4:	e7bd1000 	ldr	r1, [sp, r0]!

00000ec8 <l820>:
     ec8:	e53d800c 	ldr	r8, [sp, #-12]!

00000ecc <l821>:
     ecc:	e3a05010 	mov	r5, #16

00000ed0 <l822>:
     ed0:	e79d9005 	ldr	r9, [sp, r5]

00000ed4 <l823>:
     ed4:	e3a0e030 	mov	lr, #48	; 0x30

00000ed8 <l824>:
     ed8:	371d100e 	ldrcc	r1, [sp, -lr]

00000edc <l825>:
     edc:	e41d4024 	ldr	r4, [sp], #-36	; 0x24

00000ee0 <l826>:
     ee0:	659d9010 	ldrvs	r9, [sp, #16]

00000ee4 <l827>:
     ee4:	e3a03000 	mov	r3, #0

00000ee8 <l828>:
     ee8:	e69da003 	ldr	sl, [sp], r3

00000eec <l829>:
     eec:	e3a0e020 	mov	lr, #32

00000ef0 <l830>:
     ef0:	979db00e 	ldrls	fp, [sp, lr]

00000ef4 <l831>:
     ef4:	e49dc008 	ldr	ip, [sp], #8

00000ef8 <l832>:
     ef8:	e5bdb028 	ldr	fp, [sp, #40]!	; 0x28

00000efc <l833>:
     efc:	e53d500c 	ldr	r5, [sp, #-12]!

00000f00 <l834>:
     f00:	e49dc008 	ldr	ip, [sp], #8

00000f04 <l835>:
     f04:	e53d401c 	ldr	r4, [sp, #-28]!

00000f08 <l836>:
     f08:	e5bd4018 	ldr	r4, [sp, #24]!

00000f0c <l837>:
     f0c:	e3a0201c 	mov	r2, #28

00000f10 <l838>:
     f10:	e73d3002 	ldr	r3, [sp, -r2]!

00000f14 <l839>:
     f14:	e3a0202c 	mov	r2, #44	; 0x2c

00000f18 <l840>:
     f18:	379d0002 	ldrcc	r0, [sp, r2]

00000f1c <l841>:
     f1c:	e49d6024 	ldr	r6, [sp], #36	; 0x24

00000f20 <l842>:
     f20:	e41d6014 	ldr	r6, [sp], #-20

00000f24 <l843>:
     f24:	e3a04014 	mov	r4, #20

00000f28 <l844>:
     f28:	e73d8004 	ldr	r8, [sp, -r4]!

00000f2c <l845>:
     f2c:	e53d400c 	ldr	r4, [sp, #-12]!

00000f30 <l846>:
     f30:	e3a0c02c 	mov	ip, #44	; 0x2c

00000f34 <l847>:
     f34:	e7bd400c 	ldr	r4, [sp, ip]!

00000f38 <l848>:
     f38:	e3a07014 	mov	r7, #20

00000f3c <l849>:
     f3c:	e73d1007 	ldr	r1, [sp, -r7]!

00000f40 <l850>:
     f40:	e51d200c 	ldr	r2, [sp, #-12]

00000f44 <l851>:
     f44:	e3a04014 	mov	r4, #20

00000f48 <l852>:
     f48:	e7bd9004 	ldr	r9, [sp, r4]!

00000f4c <l853>:
     f4c:	e59d1010 	ldr	r1, [sp, #16]

00000f50 <l854>:
     f50:	e3a0e01c 	mov	lr, #28

00000f54 <l855>:
     f54:	e73da00e 	ldr	sl, [sp, -lr]!

00000f58 <l856>:
     f58:	e3a03010 	mov	r3, #16

00000f5c <l857>:
     f5c:	e61de003 	ldr	lr, [sp], -r3

00000f60 <l858>:
     f60:	e3a06018 	mov	r6, #24

00000f64 <l859>:
     f64:	e69db006 	ldr	fp, [sp], r6

00000f68 <l860>:
     f68:	e3a09004 	mov	r9, #4

00000f6c <l861>:
     f6c:	e71d0009 	ldr	r0, [sp, -r9]

00000f70 <l862>:
     f70:	e3a06014 	mov	r6, #20

00000f74 <l863>:
     f74:	e69de006 	ldr	lr, [sp], r6

00000f78 <l864>:
     f78:	e3a01014 	mov	r1, #20

00000f7c <l865>:
     f7c:	e69d7001 	ldr	r7, [sp], r1

00000f80 <l866>:
     f80:	651d5048 	ldrvs	r5, [sp, #-72]	; 0x48

00000f84 <l867>:
     f84:	e53d8028 	ldr	r8, [sp, #-40]!	; 0x28

00000f88 <l868>:
     f88:	059d0024 	ldreq	r0, [sp, #36]	; 0x24

00000f8c <l869>:
     f8c:	251da014 	ldrcs	sl, [sp, #-20]

00000f90 <l870>:
     f90:	e3a0201c 	mov	r2, #28

00000f94 <l871>:
     f94:	e69d5002 	ldr	r5, [sp], r2

00000f98 <l872>:
     f98:	e53d3010 	ldr	r3, [sp, #-16]!

00000f9c <l873>:
     f9c:	e53d4008 	ldr	r4, [sp, #-8]!

00000fa0 <l874>:
     fa0:	859dc020 	ldrhi	ip, [sp, #32]

00000fa4 <l875>:
     fa4:	e3a07018 	mov	r7, #24

00000fa8 <l876>:
     fa8:	e69d0007 	ldr	r0, [sp], r7

00000fac <l877>:
     fac:	e41d0024 	ldr	r0, [sp], #-36	; 0x24

00000fb0 <l878>:
     fb0:	e3a09028 	mov	r9, #40	; 0x28

00000fb4 <l879>:
     fb4:	e69d3009 	ldr	r3, [sp], r9

00000fb8 <l880>:
     fb8:	e3a0b034 	mov	fp, #52	; 0x34

00000fbc <l881>:
     fbc:	e73d500b 	ldr	r5, [sp, -fp]!

00000fc0 <l882>:
     fc0:	e3a0103c 	mov	r1, #60	; 0x3c

00000fc4 <l883>:
     fc4:	e79d6001 	ldr	r6, [sp, r1]

00000fc8 <l884>:
     fc8:	e3a0a028 	mov	sl, #40	; 0x28

00000fcc <l885>:
     fcc:	179dc00a 	ldrne	ip, [sp, sl]

00000fd0 <l886>:
     fd0:	e3a02014 	mov	r2, #20

00000fd4 <l887>:
     fd4:	e7bd1002 	ldr	r1, [sp, r2]!

00000fd8 <l888>:
     fd8:	e3a04008 	mov	r4, #8

00000fdc <l889>:
     fdc:	e61d5004 	ldr	r5, [sp], -r4

00000fe0 <l890>:
     fe0:	e49d101c 	ldr	r1, [sp], #28

00000fe4 <l891>:
     fe4:	e3a04010 	mov	r4, #16

00000fe8 <l892>:
     fe8:	e69d6004 	ldr	r6, [sp], r4

00000fec <l893>:
     fec:	e3a0201c 	mov	r2, #28

00000ff0 <l894>:
     ff0:	e71d4002 	ldr	r4, [sp, -r2]

00000ff4 <l895>:
     ff4:	651d5034 	ldrvs	r5, [sp, #-52]	; 0x34

00000ff8 <l896>:
     ff8:	e3a08004 	mov	r8, #4

00000ffc <l897>:
     ffc:	c71d0008 	ldrgt	r0, [sp, -r8]

00001000 <l898>:
    1000:	e41d802c 	ldr	r8, [sp], #-44	; 0x2c

00001004 <l899>:
    1004:	e3a08018 	mov	r8, #24

00001008 <l900>:
    1008:	079d8008 	ldreq	r8, [sp, r8]

0000100c <l901>:
    100c:	e3a07004 	mov	r7, #4

00001010 <l902>:
    1010:	e61d2007 	ldr	r2, [sp], -r7

00001014 <l903>:
    1014:	d59d4030 	ldrle	r4, [sp, #48]	; 0x30

00001018 <l904>:
    1018:	959d7000 	ldrls	r7, [sp]

0000101c <l905>:
    101c:	e5bd000c 	ldr	r0, [sp, #12]!

00001020 <l906>:
    1020:	e41d100c 	ldr	r1, [sp], #-12

00001024 <l907>:
    1024:	e3a0e00c 	mov	lr, #12

00001028 <l908>:
    1028:	e61db00e 	ldr	fp, [sp], -lr

0000102c <l909>:
    102c:	e3a0e028 	mov	lr, #40	; 0x28

00001030 <l910>:
    1030:	e79d400e 	ldr	r4, [sp, lr]

00001034 <l911>:
    1034:	e3a03004 	mov	r3, #4

00001038 <l912>:
    1038:	e69d8003 	ldr	r8, [sp], r3

0000103c <l913>:
    103c:	e3a05008 	mov	r5, #8

00001040 <l914>:
    1040:	e69d2005 	ldr	r2, [sp], r5

00001044 <l915>:
    1044:	e3a04008 	mov	r4, #8

00001048 <l916>:
    1048:	e69d1004 	ldr	r1, [sp], r4

0000104c <l917>:
    104c:	e41d4004 	ldr	r4, [sp], #-4

00001050 <l918>:
    1050:	e5bde014 	ldr	lr, [sp, #20]!

00001054 <l919>:
    1054:	e51d2020 	ldr	r2, [sp, #-32]

00001058 <l920>:
    1058:	e3a0500c 	mov	r5, #12

0000105c <l921>:
    105c:	e7bd7005 	ldr	r7, [sp, r5]!

00001060 <l922>:
    1060:	e3a03010 	mov	r3, #16

00001064 <l923>:
    1064:	e69da003 	ldr	sl, [sp], r3

00001068 <l924>:
    1068:	e3a0300c 	mov	r3, #12

0000106c <l925>:
    106c:	e61de003 	ldr	lr, [sp], -r3

00001070 <l926>:
    1070:	e3a0b018 	mov	fp, #24

00001074 <l927>:
    1074:	e61d900b 	ldr	r9, [sp], -fp

00001078 <l928>:
    1078:	e51db024 	ldr	fp, [sp, #-36]	; 0x24

0000107c <l929>:
    107c:	e5bd8020 	ldr	r8, [sp, #32]!

00001080 <l930>:
    1080:	e3a0302c 	mov	r3, #44	; 0x2c

00001084 <l931>:
    1084:	e73d9003 	ldr	r9, [sp, -r3]!

00001088 <l932>:
    1088:	e53d5014 	ldr	r5, [sp, #-20]!

0000108c <l933>:
    108c:	e49da010 	ldr	sl, [sp], #16

00001090 <l934>:
    1090:	e3a05014 	mov	r5, #20

00001094 <l935>:
    1094:	e79d8005 	ldr	r8, [sp, r5]

00001098 <l936>:
    1098:	659d5000 	ldrvs	r5, [sp]

0000109c <l937>:
    109c:	e49d2014 	ldr	r2, [sp], #20

000010a0 <l938>:
    10a0:	e51db018 	ldr	fp, [sp, #-24]

000010a4 <l939>:
    10a4:	e51d500c 	ldr	r5, [sp, #-12]

000010a8 <l940>:
    10a8:	e41d3018 	ldr	r3, [sp], #-24

000010ac <l941>:
    10ac:	e49d3028 	ldr	r3, [sp], #40	; 0x28

000010b0 <l942>:
    10b0:	e53d0028 	ldr	r0, [sp, #-40]!	; 0x28

000010b4 <l943>:
    10b4:	e3a0c008 	mov	ip, #8

000010b8 <l944>:
    10b8:	e71d600c 	ldr	r6, [sp, -ip]

000010bc <l945>:
    10bc:	e3a02020 	mov	r2, #32

000010c0 <l946>:
    10c0:	e7bda002 	ldr	sl, [sp, r2]!

000010c4 <l947>:
    10c4:	e53d3030 	ldr	r3, [sp, #-48]!	; 0x30

000010c8 <l948>:
    10c8:	e3a0002c 	mov	r0, #44	; 0x2c

000010cc <l949>:
    10cc:	e69de000 	ldr	lr, [sp], r0

000010d0 <l950>:
    10d0:	e5bde01c 	ldr	lr, [sp, #28]!

000010d4 <l951>:
    10d4:	e53d7008 	ldr	r7, [sp, #-8]!

000010d8 <l952>:
    10d8:	e49d8000 	ldr	r8, [sp], #0

000010dc <l953>:
    10dc:	e53d1038 	ldr	r1, [sp, #-56]!	; 0x38

000010e0 <l954>:
    10e0:	e49da028 	ldr	sl, [sp], #40	; 0x28

000010e4 <l955>:
    10e4:	e41d5030 	ldr	r5, [sp], #-48	; 0x30

000010e8 <l956>:
    10e8:	e49d203c 	ldr	r2, [sp], #60	; 0x3c

000010ec <l957>:
    10ec:	c51d8030 	ldrgt	r8, [sp, #-48]	; 0x30

000010f0 <l958>:
    10f0:	e3a07014 	mov	r7, #20

000010f4 <l959>:
    10f4:	e71d0007 	ldr	r0, [sp, -r7]

000010f8 <l960>:
    10f8:	e53d8014 	ldr	r8, [sp, #-20]!

000010fc <l961>:
    10fc:	e3a05000 	mov	r5, #0

00001100 <l962>:
    1100:	679d5005 	ldrvs	r5, [sp, r5]

00001104 <l963>:
    1104:	e3a0601c 	mov	r6, #28

00001108 <l964>:
    1108:	e69d8006 	ldr	r8, [sp], r6

0000110c <l965>:
    110c:	e3a07014 	mov	r7, #20

00001110 <l966>:
    1110:	e73d4007 	ldr	r4, [sp, -r7]!

00001114 <l967>:
    1114:	e41d601c 	ldr	r6, [sp], #-28

00001118 <l968>:
    1118:	d59de008 	ldrle	lr, [sp, #8]

0000111c <l969>:
    111c:	e49da00c 	ldr	sl, [sp], #12

00001120 <l970>:
    1120:	e3a00008 	mov	r0, #8

00001124 <l971>:
    1124:	e69d4000 	ldr	r4, [sp], r0

00001128 <l972>:
    1128:	e3a0a01c 	mov	sl, #28

0000112c <l973>:
    112c:	e79d700a 	ldr	r7, [sp, sl]

00001130 <l974>:
    1130:	e41d9028 	ldr	r9, [sp], #-40	; 0x28

00001134 <l975>:
    1134:	e3a02034 	mov	r2, #52	; 0x34

00001138 <l976>:
    1138:	979d6002 	ldrls	r6, [sp, r2]

0000113c <l977>:
    113c:	e3a0803c 	mov	r8, #60	; 0x3c

00001140 <l978>:
    1140:	a79d8008 	ldrge	r8, [sp, r8]

00001144 <l979>:
    1144:	e49d9044 	ldr	r9, [sp], #68	; 0x44

00001148 <l980>:
    1148:	259d8004 	ldrcs	r8, [sp, #4]

0000114c <l981>:
    114c:	e3a0e044 	mov	lr, #68	; 0x44

00001150 <l982>:
    1150:	e61d500e 	ldr	r5, [sp], -lr

00001154 <l983>:
    1154:	b59de018 	ldrlt	lr, [sp, #24]

00001158 <l984>:
    1158:	e3a08000 	mov	r8, #0

0000115c <l985>:
    115c:	e7bd7008 	ldr	r7, [sp, r8]!

00001160 <l986>:
    1160:	e59de010 	ldr	lr, [sp, #16]

00001164 <l987>:
    1164:	e3a0b014 	mov	fp, #20

00001168 <l988>:
    1168:	e69d200b 	ldr	r2, [sp], fp

0000116c <l989>:
    116c:	e3a0c00c 	mov	ip, #12

00001170 <l990>:
    1170:	e61d300c 	ldr	r3, [sp], -ip

00001174 <l991>:
    1174:	e5bd5000 	ldr	r5, [sp, #0]!

00001178 <l992>:
    1178:	e3a09008 	mov	r9, #8

0000117c <l993>:
    117c:	171d2009 	ldrne	r2, [sp, -r9]

00001180 <l994>:
    1180:	e59da038 	ldr	sl, [sp, #56]	; 0x38

00001184 <l995>:
    1184:	159d8014 	ldrne	r8, [sp, #20]

00001188 <l996>:
    1188:	e5bd001c 	ldr	r0, [sp, #28]!

0000118c <l997>:
    118c:	e49d9004 	pop	{r9}		; (ldr r9, [sp], #4)

00001190 <l998>:
    1190:	d51d9024 	ldrle	r9, [sp, #-36]	; 0x24

00001194 <l999>:
    1194:	e49d9000 	ldr	r9, [sp], #0

00001198 <l1000>:
    1198:	e3a0100c 	mov	r1, #12

0000119c <l1001>:
    119c:	e7bdc001 	ldr	ip, [sp, r1]!

000011a0 <end>:
    11a0:	eafffffe 	b	11a0 <end>
