
ldr_alignment.o:     file format elf32-littlearm


Disassembly of section .text:

00000000 <main>:
       0:	e1a00000 	nop			; (mov r0, r0)
       4:	e1a00000 	nop			; (mov r0, r0)
       8:	e1a00000 	nop			; (mov r0, r0)
       c:	e1a00000 	nop			; (mov r0, r0)
      10:	e1a00000 	nop			; (mov r0, r0)
      14:	e1a00000 	nop			; (mov r0, r0)
      18:	e1a00000 	nop			; (mov r0, r0)
      1c:	e1a00000 	nop			; (mov r0, r0)
      20:	e1a00000 	nop			; (mov r0, r0)
      24:	e1a00000 	nop			; (mov r0, r0)
      28:	e1a00000 	nop			; (mov r0, r0)
      2c:	e05f000f 	subs	r0, pc, pc
      30:	e59fd000 	ldr	sp, [pc]	; 38 <val>
      34:	ea000000 	b	3c <next>

00000038 <val>:
      38:	000ffff0 	.word	0x000ffff0

0000003c <next>:
      3c:	e59f1000 	ldr	r1, [pc]	; 44 <val1>
      40:	ea000000 	b	48 <next1>

00000044 <val1>:
      44:	56ccb228 	.word	0x56ccb228

00000048 <next1>:
      48:	e59f2000 	ldr	r2, [pc]	; 50 <val2>
      4c:	ea000000 	b	54 <next2>

00000050 <val2>:
      50:	09805c76 	.word	0x09805c76

00000054 <next2>:
      54:	e59f3000 	ldr	r3, [pc]	; 5c <val3>
      58:	ea000000 	b	60 <next3>

0000005c <val3>:
      5c:	ef63a731 	.word	0xef63a731

00000060 <next3>:
      60:	e59f4000 	ldr	r4, [pc]	; 68 <val4>
      64:	ea000000 	b	6c <next4>

00000068 <val4>:
      68:	85734e5e 	.word	0x85734e5e

0000006c <next4>:
      6c:	e59f5000 	ldr	r5, [pc]	; 74 <val5>
      70:	ea000000 	b	78 <next5>

00000074 <val5>:
      74:	ff2ec6af 	.word	0xff2ec6af

00000078 <next5>:
      78:	e59f6000 	ldr	r6, [pc]	; 80 <val6>
      7c:	ea000000 	b	84 <next6>

00000080 <val6>:
      80:	e48758fe 	.word	0xe48758fe

00000084 <next6>:
      84:	e59f7000 	ldr	r7, [pc]	; 8c <val7>
      88:	ea000000 	b	90 <next7>

0000008c <val7>:
      8c:	e89f7001 	.word	0xe89f7001

00000090 <next7>:
      90:	e59f8000 	ldr	r8, [pc]	; 98 <val8>
      94:	ea000000 	b	9c <next8>

00000098 <val8>:
      98:	0c69408e 	.word	0x0c69408e

0000009c <next8>:
      9c:	e59f9000 	ldr	r9, [pc]	; a4 <val9>
      a0:	ea000000 	b	a8 <next9>

000000a4 <val9>:
      a4:	31a82f9c 	.word	0x31a82f9c

000000a8 <next9>:
      a8:	e59fa000 	ldr	sl, [pc]	; b0 <val10>
      ac:	ea000000 	b	b4 <next10>

000000b0 <val10>:
      b0:	a93612eb 	.word	0xa93612eb

000000b4 <next10>:
      b4:	e59fb000 	ldr	fp, [pc]	; bc <val11>
      b8:	ea000000 	b	c0 <next11>

000000bc <val11>:
      bc:	45f93bf7 	.word	0x45f93bf7

000000c0 <next11>:
      c0:	e59fc000 	ldr	ip, [pc]	; c8 <val12>
      c4:	ea000000 	b	cc <next12>

000000c8 <val12>:
      c8:	b99f4ed6 	.word	0xb99f4ed6

000000cc <next12>:
      cc:	e59fe000 	ldr	lr, [pc]	; d4 <val14>
      d0:	ea000000 	b	d8 <next14>

000000d4 <val14>:
      d4:	788b1521 	.word	0x788b1521

000000d8 <next14>:
      d8:	e59f1000 	ldr	r1, [pc]	; e0 <val15>
      dc:	ea000000 	b	e4 <next15>

000000e0 <val15>:
      e0:	d1a18096 	.word	0xd1a18096

000000e4 <next15>:
      e4:	e58d1000 	str	r1, [sp]
      e8:	e59f1000 	ldr	r1, [pc]	; f0 <val16>
      ec:	ea000000 	b	f4 <next16>

000000f0 <val16>:
      f0:	cfecced6 	.word	0xcfecced6

000000f4 <next16>:
      f4:	e50d1004 	str	r1, [sp, #-4]
      f8:	e59f1000 	ldr	r1, [pc]	; 100 <val17>
      fc:	ea000000 	b	104 <next17>

00000100 <val17>:
     100:	a9abc989 	.word	0xa9abc989

00000104 <next17>:
     104:	e50d1008 	str	r1, [sp, #-8]
     108:	e59f1000 	ldr	r1, [pc]	; 110 <val18>
     10c:	ea000000 	b	114 <next18>

00000110 <val18>:
     110:	3d345c3b 	.word	0x3d345c3b

00000114 <next18>:
     114:	e50d100c 	str	r1, [sp, #-12]
     118:	e59f1000 	ldr	r1, [pc]	; 120 <val19>
     11c:	ea000000 	b	124 <next19>

00000120 <val19>:
     120:	878882f8 	.word	0x878882f8

00000124 <next19>:
     124:	e50d1010 	str	r1, [sp, #-16]
     128:	e59f1000 	ldr	r1, [pc]	; 130 <val20>
     12c:	ea000000 	b	134 <next20>

00000130 <val20>:
     130:	8667d2dd 	.word	0x8667d2dd

00000134 <next20>:
     134:	e50d1014 	str	r1, [sp, #-20]
     138:	e59f1000 	ldr	r1, [pc]	; 140 <val21>
     13c:	ea000000 	b	144 <next21>

00000140 <val21>:
     140:	bb583d47 	.word	0xbb583d47

00000144 <next21>:
     144:	e50d1018 	str	r1, [sp, #-24]
     148:	e59f1000 	ldr	r1, [pc]	; 150 <val22>
     14c:	ea000000 	b	154 <next22>

00000150 <val22>:
     150:	3dceed80 	.word	0x3dceed80

00000154 <next22>:
     154:	e50d101c 	str	r1, [sp, #-28]
     158:	e59f1000 	ldr	r1, [pc]	; 160 <val23>
     15c:	ea000000 	b	164 <next23>

00000160 <val23>:
     160:	0d9f69bd 	.word	0x0d9f69bd

00000164 <next23>:
     164:	e50d1020 	str	r1, [sp, #-32]
     168:	e59f1000 	ldr	r1, [pc]	; 170 <val24>
     16c:	ea000000 	b	174 <next24>

00000170 <val24>:
     170:	38bdbe59 	.word	0x38bdbe59

00000174 <next24>:
     174:	e50d1024 	str	r1, [sp, #-36]	; 0x24
     178:	e59f1000 	ldr	r1, [pc]	; 180 <val25>
     17c:	ea000000 	b	184 <next25>

00000180 <val25>:
     180:	db3076aa 	.word	0xdb3076aa

00000184 <next25>:
     184:	e50d1028 	str	r1, [sp, #-40]	; 0x28
     188:	e59f1000 	ldr	r1, [pc]	; 190 <val26>
     18c:	ea000000 	b	194 <next26>

00000190 <val26>:
     190:	37cbd4e6 	.word	0x37cbd4e6

00000194 <next26>:
     194:	e50d102c 	str	r1, [sp, #-44]	; 0x2c
     198:	e59f1000 	ldr	r1, [pc]	; 1a0 <val27>
     19c:	ea000000 	b	1a4 <next27>

000001a0 <val27>:
     1a0:	2e0d56f6 	.word	0x2e0d56f6

000001a4 <next27>:
     1a4:	e50d1030 	str	r1, [sp, #-48]	; 0x30
     1a8:	e59f1000 	ldr	r1, [pc]	; 1b0 <val28>
     1ac:	ea000000 	b	1b4 <next28>

000001b0 <val28>:
     1b0:	c4f7137a 	.word	0xc4f7137a

000001b4 <next28>:
     1b4:	e50d1034 	str	r1, [sp, #-52]	; 0x34
     1b8:	e59f1000 	ldr	r1, [pc]	; 1c0 <val29>
     1bc:	ea000000 	b	1c4 <next29>

000001c0 <val29>:
     1c0:	7f5ceac8 	.word	0x7f5ceac8

000001c4 <next29>:
     1c4:	e50d1038 	str	r1, [sp, #-56]	; 0x38
     1c8:	e59f1000 	ldr	r1, [pc]	; 1d0 <val30>
     1cc:	ea000000 	b	1d4 <next30>

000001d0 <val30>:
     1d0:	a408c7ac 	.word	0xa408c7ac

000001d4 <next30>:
     1d4:	e50d103c 	str	r1, [sp, #-60]	; 0x3c
     1d8:	e59f1000 	ldr	r1, [pc]	; 1e0 <val31>
     1dc:	ea000000 	b	1e4 <next31>

000001e0 <val31>:
     1e0:	a0612207 	.word	0xa0612207

000001e4 <next31>:
     1e4:	e50d1040 	str	r1, [sp, #-64]	; 0x40
     1e8:	e59f1000 	ldr	r1, [pc]	; 1f0 <val32>
     1ec:	ea000000 	b	1f4 <next32>

000001f0 <val32>:
     1f0:	56794ab1 	.word	0x56794ab1

000001f4 <next32>:
     1f4:	e50d1044 	str	r1, [sp, #-68]	; 0x44
     1f8:	e59f1000 	ldr	r1, [pc]	; 200 <val33>
     1fc:	ea000000 	b	204 <next33>

00000200 <val33>:
     200:	178816a2 	.word	0x178816a2

00000204 <next33>:
     204:	e50d1048 	str	r1, [sp, #-72]	; 0x48
     208:	e59f1000 	ldr	r1, [pc]	; 210 <val34>
     20c:	ea000000 	b	214 <next34>

00000210 <val34>:
     210:	1fc20066 	.word	0x1fc20066

00000214 <next34>:
     214:	e50d104c 	str	r1, [sp, #-76]	; 0x4c
     218:	e59f1000 	ldr	r1, [pc]	; 220 <val35>
     21c:	ea000000 	b	224 <next35>

00000220 <val35>:
     220:	00bf4232 	.word	0x00bf4232

00000224 <next35>:
     224:	e50d1050 	str	r1, [sp, #-80]	; 0x50
     228:	e3a01c03 	mov	r1, #768	; 0x300
     22c:	ee011f10 	mcr	15, 0, r1, cr1, cr0, {0}
     230:	e3a01603 	mov	r1, #3145728	; 0x300000
     234:	e59f2fc4 	ldr	r2, [pc, #4036]	; 1200 <end+0x4>
     238:	e5812000 	str	r2, [r1]
     23c:	e3a01603 	mov	r1, #3145728	; 0x300000
     240:	ee021f10 	mcr	15, 0, r1, cr2, cr0, {0}
     244:	e3a01003 	mov	r1, #3
     248:	ee031f10 	mcr	15, 0, r1, cr3, cr0, {0}
     24c:	ee117f10 	mrc	15, 0, r7, cr1, cr0, {0}
     250:	e3811003 	orr	r1, r1, #3
     254:	ee011f10 	mcr	15, 0, r1, cr1, cr0, {0}

00000258 <l1>:
     258:	e3a0c03e 	mov	ip, #62	; 0x3e

0000025c <l2>:
     25c:	e61db00c 	ldr	fp, [sp], -ip

00000260 <l3>:
     260:	e3a09037 	mov	r9, #55	; 0x37

00000264 <l4>:
     264:	e79de009 	ldr	lr, [sp, r9]

00000268 <l5>:
     268:	e59d5030 	ldr	r5, [sp, #48]	; 0x30

0000026c <l6>:
     26c:	e3a09002 	mov	r9, #2

00000270 <l7>:
     270:	a71d7009 	ldrge	r7, [sp, -r9]

00000274 <l8>:
     274:	e3a0900a 	mov	r9, #10

00000278 <l9>:
     278:	e7bd2009 	ldr	r2, [sp, r9]!

0000027c <l10>:
     27c:	e41d000b 	ldr	r0, [sp], #-11

00000280 <l11>:
     280:	e49d8017 	ldr	r8, [sp], #23

00000284 <l12>:
     284:	e53da00b 	ldr	sl, [sp, #-11]!

00000288 <l13>:
     288:	e49d8006 	ldr	r8, [sp], #6

0000028c <l14>:
     28c:	e3a0c008 	mov	ip, #8

00000290 <l15>:
     290:	e7bd300c 	ldr	r3, [sp, ip]!

00000294 <l16>:
     294:	d59d3005 	ldrle	r3, [sp, #5]

00000298 <l17>:
     298:	e41d5000 	ldr	r5, [sp], #-0

0000029c <l18>:
     29c:	359d0019 	ldrcc	r0, [sp, #25]

000002a0 <l19>:
     2a0:	e53de02b 	ldr	lr, [sp, #-43]!	; 0x2b

000002a4 <l20>:
     2a4:	e5bda043 	ldr	sl, [sp, #67]!	; 0x43

000002a8 <l21>:
     2a8:	251d000e 	ldrcs	r0, [sp, #-14]

000002ac <l22>:
     2ac:	e53dc01e 	ldr	ip, [sp, #-30]!

000002b0 <l23>:
     2b0:	e3a0901d 	mov	r9, #29

000002b4 <l24>:
     2b4:	e69de009 	ldr	lr, [sp], r9

000002b8 <l25>:
     2b8:	e59d7007 	ldr	r7, [sp, #7]

000002bc <l26>:
     2bc:	e3a0403c 	mov	r4, #60	; 0x3c

000002c0 <l27>:
     2c0:	e61d1004 	ldr	r1, [sp], -r4

000002c4 <l28>:
     2c4:	e3a03016 	mov	r3, #22

000002c8 <l29>:
     2c8:	c79d0003 	ldrgt	r0, [sp, r3]

000002cc <l30>:
     2cc:	e3a0c040 	mov	ip, #64	; 0x40

000002d0 <l31>:
     2d0:	e7bd900c 	ldr	r9, [sp, ip]!

000002d4 <l32>:
     2d4:	e53de00b 	ldr	lr, [sp, #-11]!

000002d8 <l33>:
     2d8:	e41d201f 	ldr	r2, [sp], #-31

000002dc <l34>:
     2dc:	e5bd3005 	ldr	r3, [sp, #5]!

000002e0 <l35>:
     2e0:	e49d000d 	ldr	r0, [sp], #13

000002e4 <l36>:
     2e4:	e53d600b 	ldr	r6, [sp, #-11]!

000002e8 <l37>:
     2e8:	e3a02015 	mov	r2, #21

000002ec <l38>:
     2ec:	e69d3002 	ldr	r3, [sp], r2

000002f0 <l39>:
     2f0:	e3a0b032 	mov	fp, #50	; 0x32

000002f4 <l40>:
     2f4:	e61d800b 	ldr	r8, [sp], -fp

000002f8 <l41>:
     2f8:	e3a0801e 	mov	r8, #30

000002fc <l42>:
     2fc:	e69d8008 	ldr	r8, [sp], r8

00000300 <l43>:
     300:	e3a05009 	mov	r5, #9

00000304 <l44>:
     304:	e73d9005 	ldr	r9, [sp, -r5]!

00000308 <l45>:
     308:	e3a0301e 	mov	r3, #30

0000030c <l46>:
     30c:	879db003 	ldrhi	fp, [sp, r3]

00000310 <l47>:
     310:	e3a0b016 	mov	fp, #22

00000314 <l48>:
     314:	e69d700b 	ldr	r7, [sp], fp

00000318 <l49>:
     318:	e59d1017 	ldr	r1, [sp, #23]

0000031c <l50>:
     31c:	e3a03001 	mov	r3, #1

00000320 <l51>:
     320:	e61d6003 	ldr	r6, [sp], -r3

00000324 <l52>:
     324:	e41db006 	ldr	fp, [sp], #-6

00000328 <l53>:
     328:	e3a0500e 	mov	r5, #14

0000032c <l54>:
     32c:	979d5005 	ldrls	r5, [sp, r5]

00000330 <l55>:
     330:	659d4014 	ldrvs	r4, [sp, #20]

00000334 <l56>:
     334:	e41d700c 	ldr	r7, [sp], #-12

00000338 <l57>:
     338:	e3a0800e 	mov	r8, #14

0000033c <l58>:
     33c:	e7bda008 	ldr	sl, [sp, r8]!

00000340 <l59>:
     340:	e3a0e012 	mov	lr, #18

00000344 <l60>:
     344:	e69d100e 	ldr	r1, [sp], lr

00000348 <l61>:
     348:	e41d001c 	ldr	r0, [sp], #-28

0000034c <l62>:
     34c:	e3a0a017 	mov	sl, #23

00000350 <l63>:
     350:	e61dc00a 	ldr	ip, [sp], -sl

00000354 <l64>:
     354:	e5bdb030 	ldr	fp, [sp, #48]!	; 0x30

00000358 <l65>:
     358:	e3a0601b 	mov	r6, #27

0000035c <l66>:
     35c:	e71db006 	ldr	fp, [sp, -r6]

00000360 <l67>:
     360:	e3a0b018 	mov	fp, #24

00000364 <l68>:
     364:	e61d300b 	ldr	r3, [sp], -fp

00000368 <l69>:
     368:	e49d7023 	ldr	r7, [sp], #35	; 0x23

0000036c <l70>:
     36c:	e3a0403d 	mov	r4, #61	; 0x3d

00000370 <l71>:
     370:	e73d7004 	ldr	r7, [sp, -r4]!

00000374 <l72>:
     374:	e3a0e00a 	mov	lr, #10

00000378 <l73>:
     378:	e71d000e 	ldr	r0, [sp, -lr]

0000037c <l74>:
     37c:	e3a03040 	mov	r3, #64	; 0x40

00000380 <l75>:
     380:	e69da003 	ldr	sl, [sp], r3

00000384 <l76>:
     384:	e53d9016 	ldr	r9, [sp, #-22]!

00000388 <l77>:
     388:	e3a07004 	mov	r7, #4

0000038c <l78>:
     38c:	e79d8007 	ldr	r8, [sp, r7]

00000390 <l79>:
     390:	e53d3001 	ldr	r3, [sp, #-1]!

00000394 <l80>:
     394:	e53d800b 	ldr	r8, [sp, #-11]!

00000398 <l81>:
     398:	e49d9012 	ldr	r9, [sp], #18

0000039c <l82>:
     39c:	e41d0023 	ldr	r0, [sp], #-35	; 0x23

000003a0 <l83>:
     3a0:	e3a05001 	mov	r5, #1

000003a4 <l84>:
     3a4:	e71d4005 	ldr	r4, [sp, -r5]

000003a8 <l85>:
     3a8:	e3a0b015 	mov	fp, #21

000003ac <l86>:
     3ac:	e73d500b 	ldr	r5, [sp, -fp]!

000003b0 <l87>:
     3b0:	e3a02004 	mov	r2, #4

000003b4 <l88>:
     3b4:	e7bda002 	ldr	sl, [sp, r2]!

000003b8 <l89>:
     3b8:	e5bdc016 	ldr	ip, [sp, #22]!

000003bc <l90>:
     3bc:	e49d001e 	ldr	r0, [sp], #30

000003c0 <l91>:
     3c0:	e3a0c022 	mov	ip, #34	; 0x22

000003c4 <l92>:
     3c4:	e73d800c 	ldr	r8, [sp, -ip]!

000003c8 <l93>:
     3c8:	e3a0b003 	mov	fp, #3

000003cc <l94>:
     3cc:	e61da00b 	ldr	sl, [sp], -fp

000003d0 <l95>:
     3d0:	e3a0a004 	mov	sl, #4

000003d4 <l96>:
     3d4:	e7bd800a 	ldr	r8, [sp, sl]!

000003d8 <l97>:
     3d8:	e3a0b018 	mov	fp, #24

000003dc <l98>:
     3dc:	e61da00b 	ldr	sl, [sp], -fp

000003e0 <l99>:
     3e0:	e3a0b019 	mov	fp, #25

000003e4 <l100>:
     3e4:	e69d200b 	ldr	r2, [sp], fp

000003e8 <l101>:
     3e8:	e51d5002 	ldr	r5, [sp, #-2]

000003ec <l102>:
     3ec:	e3a05021 	mov	r5, #33	; 0x21

000003f0 <l103>:
     3f0:	e79dc005 	ldr	ip, [sp, r5]

000003f4 <l104>:
     3f4:	e53d7006 	ldr	r7, [sp, #-6]!

000003f8 <l105>:
     3f8:	459d5005 	ldrmi	r5, [sp, #5]

000003fc <l106>:
     3fc:	e59d1013 	ldr	r1, [sp, #19]

00000400 <l107>:
     400:	e3a04020 	mov	r4, #32

00000404 <l108>:
     404:	379d5004 	ldrcc	r5, [sp, r4]

00000408 <l109>:
     408:	059d600f 	ldreq	r6, [sp, #15]

0000040c <l110>:
     40c:	e3a0102e 	mov	r1, #46	; 0x2e

00000410 <l111>:
     410:	e69d7001 	ldr	r7, [sp], r1

00000414 <l112>:
     414:	e3a04018 	mov	r4, #24

00000418 <l113>:
     418:	e61d4004 	ldr	r4, [sp], -r4

0000041c <l114>:
     41c:	e3a07028 	mov	r7, #40	; 0x28

00000420 <l115>:
     420:	e61d9007 	ldr	r9, [sp], -r7

00000424 <l116>:
     424:	e3a05034 	mov	r5, #52	; 0x34

00000428 <l117>:
     428:	e7bdb005 	ldr	fp, [sp, r5]!

0000042c <l118>:
     42c:	e3a02007 	mov	r2, #7

00000430 <l119>:
     430:	571d5002 	ldrpl	r5, [sp, -r2]

00000434 <l120>:
     434:	e3a0b020 	mov	fp, #32

00000438 <l121>:
     438:	371d900b 	ldrcc	r9, [sp, -fp]

0000043c <l122>:
     43c:	551de037 	ldrpl	lr, [sp, #-55]	; 0x37

00000440 <l123>:
     440:	e59d1009 	ldr	r1, [sp, #9]

00000444 <l124>:
     444:	e3a0b020 	mov	fp, #32

00000448 <l125>:
     448:	e61d400b 	ldr	r4, [sp], -fp

0000044c <l126>:
     44c:	e49d9032 	ldr	r9, [sp], #50	; 0x32

00000450 <l127>:
     450:	e3a0601d 	mov	r6, #29

00000454 <l128>:
     454:	871d8006 	ldrhi	r8, [sp, -r6]

00000458 <l129>:
     458:	e41d9021 	ldr	r9, [sp], #-33	; 0x21

0000045c <l130>:
     45c:	e3a06016 	mov	r6, #22

00000460 <l131>:
     460:	e71d2006 	ldr	r2, [sp, -r6]

00000464 <l132>:
     464:	e53de025 	ldr	lr, [sp, #-37]!	; 0x25

00000468 <l133>:
     468:	e3a02005 	mov	r2, #5

0000046c <l134>:
     46c:	579da002 	ldrpl	sl, [sp, r2]

00000470 <l135>:
     470:	e3a0c010 	mov	ip, #16

00000474 <l136>:
     474:	e79de00c 	ldr	lr, [sp, ip]

00000478 <l137>:
     478:	e3a0b037 	mov	fp, #55	; 0x37

0000047c <l138>:
     47c:	e7bde00b 	ldr	lr, [sp, fp]!

00000480 <l139>:
     480:	e3a08004 	mov	r8, #4

00000484 <l140>:
     484:	e61d1008 	ldr	r1, [sp], -r8

00000488 <l141>:
     488:	e3a0a031 	mov	sl, #49	; 0x31

0000048c <l142>:
     48c:	e73d200a 	ldr	r2, [sp, -sl]!

00000490 <l143>:
     490:	e59dc01b 	ldr	ip, [sp, #27]

00000494 <l144>:
     494:	e3a08038 	mov	r8, #56	; 0x38

00000498 <l145>:
     498:	e7bd4008 	ldr	r4, [sp, r8]!

0000049c <l146>:
     49c:	e51d8019 	ldr	r8, [sp, #-25]

000004a0 <l147>:
     4a0:	e41d400d 	ldr	r4, [sp], #-13

000004a4 <l148>:
     4a4:	e41d3014 	ldr	r3, [sp], #-20

000004a8 <l149>:
     4a8:	e3a02018 	mov	r2, #24

000004ac <l150>:
     4ac:	e69d5002 	ldr	r5, [sp], r2

000004b0 <l151>:
     4b0:	e3a07015 	mov	r7, #21

000004b4 <l152>:
     4b4:	e61d3007 	ldr	r3, [sp], -r7

000004b8 <l153>:
     4b8:	e41d701d 	ldr	r7, [sp], #-29

000004bc <l154>:
     4bc:	e3a04007 	mov	r4, #7

000004c0 <l155>:
     4c0:	e79d4004 	ldr	r4, [sp, r4]

000004c4 <l156>:
     4c4:	e3a07016 	mov	r7, #22

000004c8 <l157>:
     4c8:	e7bd0007 	ldr	r0, [sp, r7]!

000004cc <l158>:
     4cc:	e41dc016 	ldr	ip, [sp], #-22

000004d0 <l159>:
     4d0:	e3a05034 	mov	r5, #52	; 0x34

000004d4 <l160>:
     4d4:	e79dc005 	ldr	ip, [sp, r5]

000004d8 <l161>:
     4d8:	e59dc014 	ldr	ip, [sp, #20]

000004dc <l162>:
     4dc:	e49db002 	ldr	fp, [sp], #2

000004e0 <l163>:
     4e0:	e5bd6034 	ldr	r6, [sp, #52]!	; 0x34

000004e4 <l164>:
     4e4:	e49d4004 	pop	{r4}		; (ldr r4, [sp], #4)

000004e8 <l165>:
     4e8:	e51de013 	ldr	lr, [sp, #-19]

000004ec <l166>:
     4ec:	e3a0e00f 	mov	lr, #15

000004f0 <l167>:
     4f0:	e7bd400e 	ldr	r4, [sp, lr]!

000004f4 <l168>:
     4f4:	e41da00b 	ldr	sl, [sp], #-11

000004f8 <l169>:
     4f8:	e3a0b034 	mov	fp, #52	; 0x34

000004fc <l170>:
     4fc:	e61da00b 	ldr	sl, [sp], -fp

00000500 <l171>:
     500:	e5bdb025 	ldr	fp, [sp, #37]!	; 0x25

00000504 <l172>:
     504:	a59d7010 	ldrge	r7, [sp, #16]

00000508 <l173>:
     508:	e3a0501b 	mov	r5, #27

0000050c <l174>:
     50c:	e73db005 	ldr	fp, [sp, -r5]!

00000510 <l175>:
     510:	e59d9023 	ldr	r9, [sp, #35]	; 0x23

00000514 <l176>:
     514:	e49d8002 	ldr	r8, [sp], #2

00000518 <l177>:
     518:	e3a01009 	mov	r1, #9

0000051c <l178>:
     51c:	671d2001 	ldrvs	r2, [sp, -r1]

00000520 <l179>:
     520:	e3a05024 	mov	r5, #36	; 0x24

00000524 <l180>:
     524:	e69d6005 	ldr	r6, [sp], r5

00000528 <l181>:
     528:	e51dc02e 	ldr	ip, [sp, #-46]	; 0x2e

0000052c <l182>:
     52c:	e51d102e 	ldr	r1, [sp, #-46]	; 0x2e

00000530 <l183>:
     530:	251db02d 	ldrcs	fp, [sp, #-45]	; 0x2d

00000534 <l184>:
     534:	e49d6000 	ldr	r6, [sp], #0

00000538 <l185>:
     538:	e3a0b012 	mov	fp, #18

0000053c <l186>:
     53c:	e71db00b 	ldr	fp, [sp, -fp]

00000540 <l187>:
     540:	e41d3020 	ldr	r3, [sp], #-32

00000544 <l188>:
     544:	d59d6006 	ldrle	r6, [sp, #6]

00000548 <l189>:
     548:	e3a0000b 	mov	r0, #11

0000054c <l190>:
     54c:	e7bdb000 	ldr	fp, [sp, r0]!

00000550 <l191>:
     550:	e5bdb00d 	ldr	fp, [sp, #13]!

00000554 <l192>:
     554:	e41d0012 	ldr	r0, [sp], #-18

00000558 <l193>:
     558:	e3a0c01a 	mov	ip, #26

0000055c <l194>:
     55c:	e73d600c 	ldr	r6, [sp, -ip]!

00000560 <l195>:
     560:	e3a07012 	mov	r7, #18

00000564 <l196>:
     564:	e69d9007 	ldr	r9, [sp], r7

00000568 <l197>:
     568:	e49d7018 	ldr	r7, [sp], #24

0000056c <l198>:
     56c:	e53dc022 	ldr	ip, [sp, #-34]!	; 0x22

00000570 <l199>:
     570:	c51d300c 	ldrgt	r3, [sp, #-12]

00000574 <l200>:
     574:	c59db038 	ldrgt	fp, [sp, #56]	; 0x38

00000578 <l201>:
     578:	e59d6017 	ldr	r6, [sp, #23]

0000057c <l202>:
     57c:	e59d403b 	ldr	r4, [sp, #59]	; 0x3b

00000580 <l203>:
     580:	e3a08018 	mov	r8, #24

00000584 <l204>:
     584:	e69de008 	ldr	lr, [sp], r8

00000588 <l205>:
     588:	e3a0200a 	mov	r2, #10

0000058c <l206>:
     58c:	e79d9002 	ldr	r9, [sp, r2]

00000590 <l207>:
     590:	e41d901c 	ldr	r9, [sp], #-28

00000594 <l208>:
     594:	e3a07009 	mov	r7, #9

00000598 <l209>:
     598:	e69d7007 	ldr	r7, [sp], r7

0000059c <l210>:
     59c:	b59dc02a 	ldrlt	ip, [sp, #42]	; 0x2a

000005a0 <l211>:
     5a0:	e3a02008 	mov	r2, #8

000005a4 <l212>:
     5a4:	e61d4002 	ldr	r4, [sp], -r2

000005a8 <l213>:
     5a8:	051db00b 	ldreq	fp, [sp, #-11]

000005ac <l214>:
     5ac:	e49da025 	ldr	sl, [sp], #37	; 0x25

000005b0 <l215>:
     5b0:	e41d2025 	ldr	r2, [sp], #-37	; 0x25

000005b4 <l216>:
     5b4:	e3a0401e 	mov	r4, #30

000005b8 <l217>:
     5b8:	679d0004 	ldrvs	r0, [sp, r4]

000005bc <l218>:
     5bc:	e3a0a032 	mov	sl, #50	; 0x32

000005c0 <l219>:
     5c0:	a79da00a 	ldrge	sl, [sp, sl]

000005c4 <l220>:
     5c4:	e3a0803d 	mov	r8, #61	; 0x3d

000005c8 <l221>:
     5c8:	e69d1008 	ldr	r1, [sp], r8

000005cc <l222>:
     5cc:	e53d1040 	ldr	r1, [sp, #-64]!	; 0x40

000005d0 <l223>:
     5d0:	e5bd7012 	ldr	r7, [sp, #18]!

000005d4 <l224>:
     5d4:	e3a02002 	mov	r2, #2

000005d8 <l225>:
     5d8:	e7bd1002 	ldr	r1, [sp, r2]!

000005dc <l226>:
     5dc:	e3a0c024 	mov	ip, #36	; 0x24

000005e0 <l227>:
     5e0:	e79d700c 	ldr	r7, [sp, ip]

000005e4 <l228>:
     5e4:	e3a0e028 	mov	lr, #40	; 0x28

000005e8 <l229>:
     5e8:	e79d700e 	ldr	r7, [sp, lr]

000005ec <l230>:
     5ec:	e3a09007 	mov	r9, #7

000005f0 <l231>:
     5f0:	e73da009 	ldr	sl, [sp, -r9]!

000005f4 <l232>:
     5f4:	e3a0c016 	mov	ip, #22

000005f8 <l233>:
     5f8:	e71d600c 	ldr	r6, [sp, -ip]

000005fc <l234>:
     5fc:	e3a0b015 	mov	fp, #21

00000600 <l235>:
     600:	e69db00b 	ldr	fp, [sp], fp

00000604 <l236>:
     604:	e3a0001f 	mov	r0, #31

00000608 <l237>:
     608:	e69d0000 	ldr	r0, [sp], r0

0000060c <l238>:
     60c:	e3a09032 	mov	r9, #50	; 0x32

00000610 <l239>:
     610:	e61d9009 	ldr	r9, [sp], -r9

00000614 <l240>:
     614:	e3a03018 	mov	r3, #24

00000618 <l241>:
     618:	e7bd9003 	ldr	r9, [sp, r3]!

0000061c <l242>:
     61c:	551dc018 	ldrpl	ip, [sp, #-24]

00000620 <l243>:
     620:	051d0022 	ldreq	r0, [sp, #-34]	; 0x22

00000624 <l244>:
     624:	e3a06003 	mov	r6, #3

00000628 <l245>:
     628:	e7bd9006 	ldr	r9, [sp, r6]!

0000062c <l246>:
     62c:	e53d000e 	ldr	r0, [sp, #-14]!

00000630 <l247>:
     630:	e3a07003 	mov	r7, #3

00000634 <l248>:
     634:	e73d2007 	ldr	r2, [sp, -r7]!

00000638 <l249>:
     638:	e51d400e 	ldr	r4, [sp, #-14]

0000063c <l250>:
     63c:	e51d7016 	ldr	r7, [sp, #-22]

00000640 <l251>:
     640:	e3a09014 	mov	r9, #20

00000644 <l252>:
     644:	e73d3009 	ldr	r3, [sp, -r9]!

00000648 <l253>:
     648:	e3a0703b 	mov	r7, #59	; 0x3b

0000064c <l254>:
     64c:	e69d1007 	ldr	r1, [sp], r7

00000650 <l255>:
     650:	851d8014 	ldrhi	r8, [sp, #-20]

00000654 <l256>:
     654:	e3a0b028 	mov	fp, #40	; 0x28

00000658 <l257>:
     658:	e73d800b 	ldr	r8, [sp, -fp]!

0000065c <l258>:
     65c:	e3a04009 	mov	r4, #9

00000660 <l259>:
     660:	e7bd6004 	ldr	r6, [sp, r4]!

00000664 <l260>:
     664:	e41d7011 	ldr	r7, [sp], #-17

00000668 <l261>:
     668:	e3a0400c 	mov	r4, #12

0000066c <l262>:
     66c:	679da004 	ldrvs	sl, [sp, r4]

00000670 <l263>:
     670:	e49d201d 	ldr	r2, [sp], #29

00000674 <l264>:
     674:	e3a08012 	mov	r8, #18

00000678 <l265>:
     678:	e79d8008 	ldr	r8, [sp, r8]

0000067c <l266>:
     67c:	e3a06025 	mov	r6, #37	; 0x25

00000680 <l267>:
     680:	e71d7006 	ldr	r7, [sp, -r6]

00000684 <l268>:
     684:	e41d4026 	ldr	r4, [sp], #-38	; 0x26

00000688 <l269>:
     688:	e3a02028 	mov	r2, #40	; 0x28

0000068c <l270>:
     68c:	e69d0002 	ldr	r0, [sp], r2

00000690 <l271>:
     690:	e3a0a024 	mov	sl, #36	; 0x24

00000694 <l272>:
     694:	e71d400a 	ldr	r4, [sp, -sl]

00000698 <l273>:
     698:	e3a05022 	mov	r5, #34	; 0x22

0000069c <l274>:
     69c:	e71d3005 	ldr	r3, [sp, -r5]

000006a0 <l275>:
     6a0:	e41de007 	ldr	lr, [sp], #-7

000006a4 <l276>:
     6a4:	e3a0701b 	mov	r7, #27

000006a8 <l277>:
     6a8:	e73d7007 	ldr	r7, [sp, -r7]!

000006ac <l278>:
     6ac:	e3a07007 	mov	r7, #7

000006b0 <l279>:
     6b0:	e69de007 	ldr	lr, [sp], r7

000006b4 <l280>:
     6b4:	e3a0401c 	mov	r4, #28

000006b8 <l281>:
     6b8:	e79dc004 	ldr	ip, [sp, r4]

000006bc <l282>:
     6bc:	e3a01002 	mov	r1, #2

000006c0 <l283>:
     6c0:	e79d7001 	ldr	r7, [sp, r1]

000006c4 <l284>:
     6c4:	e3a03017 	mov	r3, #23

000006c8 <l285>:
     6c8:	671d5003 	ldrvs	r5, [sp, -r3]

000006cc <l286>:
     6cc:	e3a0c00f 	mov	ip, #15

000006d0 <l287>:
     6d0:	e79d700c 	ldr	r7, [sp, ip]

000006d4 <l288>:
     6d4:	559de00f 	ldrpl	lr, [sp, #15]

000006d8 <l289>:
     6d8:	e3a0101e 	mov	r1, #30

000006dc <l290>:
     6dc:	e69d1001 	ldr	r1, [sp], r1

000006e0 <l291>:
     6e0:	e41d003b 	ldr	r0, [sp], #-59	; 0x3b

000006e4 <l292>:
     6e4:	e49d9015 	ldr	r9, [sp], #21

000006e8 <l293>:
     6e8:	e3a0100d 	mov	r1, #13

000006ec <l294>:
     6ec:	e61d8001 	ldr	r8, [sp], -r1

000006f0 <l295>:
     6f0:	659d0006 	ldrvs	r0, [sp, #6]

000006f4 <l296>:
     6f4:	e49db022 	ldr	fp, [sp], #34	; 0x22

000006f8 <l297>:
     6f8:	751d0022 	ldrvc	r0, [sp, #-34]	; 0x22

000006fc <l298>:
     6fc:	059de013 	ldreq	lr, [sp, #19]

00000700 <l299>:
     700:	e5bd7019 	ldr	r7, [sp, #25]!

00000704 <l300>:
     704:	e3a01039 	mov	r1, #57	; 0x39

00000708 <l301>:
     708:	e61d2001 	ldr	r2, [sp], -r1

0000070c <l302>:
     70c:	e49d4024 	ldr	r4, [sp], #36	; 0x24

00000710 <l303>:
     710:	e53d7006 	ldr	r7, [sp, #-6]!

00000714 <l304>:
     714:	e3a05015 	mov	r5, #21

00000718 <l305>:
     718:	e61d0005 	ldr	r0, [sp], -r5

0000071c <l306>:
     71c:	e49d7018 	ldr	r7, [sp], #24

00000720 <l307>:
     720:	e5bde009 	ldr	lr, [sp, #9]!

00000724 <l308>:
     724:	e5bd700a 	ldr	r7, [sp, #10]!

00000728 <l309>:
     728:	e3a0e009 	mov	lr, #9

0000072c <l310>:
     72c:	d71d000e 	ldrle	r0, [sp, -lr]

00000730 <l311>:
     730:	e3a0301c 	mov	r3, #28

00000734 <l312>:
     734:	e73da003 	ldr	sl, [sp, -r3]!

00000738 <l313>:
     738:	e49d3022 	ldr	r3, [sp], #34	; 0x22

0000073c <l314>:
     73c:	e3a05022 	mov	r5, #34	; 0x22

00000740 <l315>:
     740:	e61d1005 	ldr	r1, [sp], -r5

00000744 <l316>:
     744:	e49da00f 	ldr	sl, [sp], #15

00000748 <l317>:
     748:	e3a0600b 	mov	r6, #11

0000074c <l318>:
     74c:	e73d4006 	ldr	r4, [sp, -r6]!

00000750 <l319>:
     750:	e5bd000b 	ldr	r0, [sp, #11]!

00000754 <l320>:
     754:	e41de00b 	ldr	lr, [sp], #-11

00000758 <l321>:
     758:	251d9002 	ldrcs	r9, [sp, #-2]

0000075c <l322>:
     75c:	d51d7014 	ldrle	r7, [sp, #-20]

00000760 <l323>:
     760:	e3a03009 	mov	r3, #9

00000764 <l324>:
     764:	e61da003 	ldr	sl, [sp], -r3

00000768 <l325>:
     768:	e53db016 	ldr	fp, [sp, #-22]!

0000076c <l326>:
     76c:	959d7004 	ldrls	r7, [sp, #4]

00000770 <l327>:
     770:	e3a0a021 	mov	sl, #33	; 0x21

00000774 <l328>:
     774:	e69d300a 	ldr	r3, [sp], sl

00000778 <l329>:
     778:	e5bda014 	ldr	sl, [sp, #20]!

0000077c <l330>:
     77c:	e5bd500a 	ldr	r5, [sp, #10]!

00000780 <l331>:
     780:	e41db00e 	ldr	fp, [sp], #-14

00000784 <l332>:
     784:	e51d9023 	ldr	r9, [sp, #-35]	; 0x23

00000788 <l333>:
     788:	e3a0b01d 	mov	fp, #29

0000078c <l334>:
     78c:	e73d200b 	ldr	r2, [sp, -fp]!

00000790 <l335>:
     790:	e3a09003 	mov	r9, #3

00000794 <l336>:
     794:	e79d9009 	ldr	r9, [sp, r9]

00000798 <l337>:
     798:	e49d202b 	ldr	r2, [sp], #43	; 0x2b

0000079c <l338>:
     79c:	e41d0012 	ldr	r0, [sp], #-18

000007a0 <l339>:
     7a0:	e53dc023 	ldr	ip, [sp, #-35]!	; 0x23

000007a4 <l340>:
     7a4:	e3a0801f 	mov	r8, #31

000007a8 <l341>:
     7a8:	c79d4008 	ldrgt	r4, [sp, r8]

000007ac <l342>:
     7ac:	e3a09010 	mov	r9, #16

000007b0 <l343>:
     7b0:	e73d8009 	ldr	r8, [sp, -r9]!

000007b4 <l344>:
     7b4:	e3a0a021 	mov	sl, #33	; 0x21

000007b8 <l345>:
     7b8:	e7bd300a 	ldr	r3, [sp, sl]!

000007bc <l346>:
     7bc:	e3a0c00a 	mov	ip, #10

000007c0 <l347>:
     7c0:	e69d000c 	ldr	r0, [sp], ip

000007c4 <l348>:
     7c4:	e49d8009 	ldr	r8, [sp], #9

000007c8 <l349>:
     7c8:	e3a0200f 	mov	r2, #15

000007cc <l350>:
     7cc:	e69d5002 	ldr	r5, [sp], r2

000007d0 <l351>:
     7d0:	e3a0c043 	mov	ip, #67	; 0x43

000007d4 <l352>:
     7d4:	e61d300c 	ldr	r3, [sp], -ip

000007d8 <l353>:
     7d8:	e3a05003 	mov	r5, #3

000007dc <l354>:
     7dc:	e69dc005 	ldr	ip, [sp], r5

000007e0 <l355>:
     7e0:	e3a0203d 	mov	r2, #61	; 0x3d

000007e4 <l356>:
     7e4:	e79d2002 	ldr	r2, [sp, r2]

000007e8 <l357>:
     7e8:	e41d0002 	ldr	r0, [sp], #-2

000007ec <l358>:
     7ec:	e41da003 	ldr	sl, [sp], #-3

000007f0 <l359>:
     7f0:	e3a0000b 	mov	r0, #11

000007f4 <l360>:
     7f4:	e69d7000 	ldr	r7, [sp], r0

000007f8 <l361>:
     7f8:	e59da012 	ldr	sl, [sp, #18]

000007fc <l362>:
     7fc:	659d001f 	ldrvs	r0, [sp, #31]

00000800 <l363>:
     800:	e3a06017 	mov	r6, #23

00000804 <l364>:
     804:	e7bd4006 	ldr	r4, [sp, r6]!

00000808 <l365>:
     808:	e3a05018 	mov	r5, #24

0000080c <l366>:
     80c:	e73d4005 	ldr	r4, [sp, -r5]!

00000810 <l367>:
     810:	e3a0c02b 	mov	ip, #43	; 0x2b

00000814 <l368>:
     814:	e7bda00c 	ldr	sl, [sp, ip]!

00000818 <l369>:
     818:	e41d8004 	ldr	r8, [sp], #-4

0000081c <l370>:
     81c:	e59d2009 	ldr	r2, [sp, #9]

00000820 <l371>:
     820:	e53da01f 	ldr	sl, [sp, #-31]!

00000824 <l372>:
     824:	e3a03001 	mov	r3, #1

00000828 <l373>:
     828:	e61d2003 	ldr	r2, [sp], -r3

0000082c <l374>:
     82c:	e5bd0013 	ldr	r0, [sp, #19]!

00000830 <l375>:
     830:	e3a0b00e 	mov	fp, #14

00000834 <l376>:
     834:	e7bd100b 	ldr	r1, [sp, fp]!

00000838 <l377>:
     838:	e3a00015 	mov	r0, #21

0000083c <l378>:
     83c:	e79db000 	ldr	fp, [sp, r0]

00000840 <l379>:
     840:	859d900e 	ldrhi	r9, [sp, #14]

00000844 <l380>:
     844:	e3a0e026 	mov	lr, #38	; 0x26

00000848 <l381>:
     848:	e73d700e 	ldr	r7, [sp, -lr]!

0000084c <l382>:
     84c:	251db008 	ldrcs	fp, [sp, #-8]

00000850 <l383>:
     850:	e3a01006 	mov	r1, #6

00000854 <l384>:
     854:	e7bd5001 	ldr	r5, [sp, r1]!

00000858 <l385>:
     858:	e49d601b 	ldr	r6, [sp], #27

0000085c <l386>:
     85c:	e5bd6006 	ldr	r6, [sp, #6]!

00000860 <l387>:
     860:	e59d9009 	ldr	r9, [sp, #9]

00000864 <l388>:
     864:	e3a06007 	mov	r6, #7

00000868 <l389>:
     868:	171d0006 	ldrne	r0, [sp, -r6]

0000086c <l390>:
     86c:	e53d1032 	ldr	r1, [sp, #-50]!	; 0x32

00000870 <l391>:
     870:	e3a01002 	mov	r1, #2

00000874 <l392>:
     874:	e61d9001 	ldr	r9, [sp], -r1

00000878 <l393>:
     878:	e51db000 	ldr	fp, [sp, #-0]

0000087c <l394>:
     87c:	659dc01a 	ldrvs	ip, [sp, #26]

00000880 <l395>:
     880:	e3a0e031 	mov	lr, #49	; 0x31

00000884 <l396>:
     884:	e69dc00e 	ldr	ip, [sp], lr

00000888 <l397>:
     888:	e49d400a 	ldr	r4, [sp], #10

0000088c <l398>:
     88c:	e41d203a 	ldr	r2, [sp], #-58	; 0x3a

00000890 <l399>:
     890:	e49d1024 	ldr	r1, [sp], #36	; 0x24

00000894 <l400>:
     894:	751d302b 	ldrvc	r3, [sp, #-43]	; 0x2b

00000898 <l401>:
     898:	e41d3016 	ldr	r3, [sp], #-22

0000089c <l402>:
     89c:	959d2019 	ldrls	r2, [sp, #25]

000008a0 <l403>:
     8a0:	e51d4013 	ldr	r4, [sp, #-19]

000008a4 <l404>:
     8a4:	e5bd0012 	ldr	r0, [sp, #18]!

000008a8 <l405>:
     8a8:	e3a0b022 	mov	fp, #34	; 0x22

000008ac <l406>:
     8ac:	179d300b 	ldrne	r3, [sp, fp]

000008b0 <l407>:
     8b0:	351d4021 	ldrcc	r4, [sp, #-33]	; 0x21

000008b4 <l408>:
     8b4:	e3a04009 	mov	r4, #9

000008b8 <l409>:
     8b8:	e73d2004 	ldr	r2, [sp, -r4]!

000008bc <l410>:
     8bc:	e3a01017 	mov	r1, #23

000008c0 <l411>:
     8c0:	e61d7001 	ldr	r7, [sp], -r1

000008c4 <l412>:
     8c4:	e49d100e 	ldr	r1, [sp], #14

000008c8 <l413>:
     8c8:	e3a0e00a 	mov	lr, #10

000008cc <l414>:
     8cc:	e73d200e 	ldr	r2, [sp, -lr]!

000008d0 <l415>:
     8d0:	e5bd201c 	ldr	r2, [sp, #28]!

000008d4 <l416>:
     8d4:	151d001a 	ldrne	r0, [sp, #-26]

000008d8 <l417>:
     8d8:	e41d400e 	ldr	r4, [sp], #-14

000008dc <l418>:
     8dc:	e5bd2018 	ldr	r2, [sp, #24]!

000008e0 <l419>:
     8e0:	e3a00010 	mov	r0, #16

000008e4 <l420>:
     8e4:	e69d7000 	ldr	r7, [sp], r0

000008e8 <l421>:
     8e8:	351d7005 	ldrcc	r7, [sp, #-5]

000008ec <l422>:
     8ec:	e41d203a 	ldr	r2, [sp], #-58	; 0x3a

000008f0 <l423>:
     8f0:	e5bd603b 	ldr	r6, [sp, #59]!	; 0x3b

000008f4 <l424>:
     8f4:	e41d903d 	ldr	r9, [sp], #-61	; 0x3d

000008f8 <l425>:
     8f8:	a59d8010 	ldrge	r8, [sp, #16]

000008fc <l426>:
     8fc:	e3a0e003 	mov	lr, #3

00000900 <l427>:
     900:	e61d900e 	ldr	r9, [sp], -lr

00000904 <l428>:
     904:	e3a03023 	mov	r3, #35	; 0x23

00000908 <l429>:
     908:	e7bd9003 	ldr	r9, [sp, r3]!

0000090c <l430>:
     90c:	e3a05005 	mov	r5, #5

00000910 <l431>:
     910:	e71d8005 	ldr	r8, [sp, -r5]

00000914 <l432>:
     914:	e51da021 	ldr	sl, [sp, #-33]	; 0x21

00000918 <l433>:
     918:	e3a01005 	mov	r1, #5

0000091c <l434>:
     91c:	e61d8001 	ldr	r8, [sp], -r1

00000920 <l435>:
     920:	e3a05012 	mov	r5, #18

00000924 <l436>:
     924:	e7bd9005 	ldr	r9, [sp, r5]!

00000928 <l437>:
     928:	e5bd4005 	ldr	r4, [sp, #5]!

0000092c <l438>:
     92c:	e3a08000 	mov	r8, #0

00000930 <l439>:
     930:	879dc008 	ldrhi	ip, [sp, r8]

00000934 <l440>:
     934:	e53db006 	ldr	fp, [sp, #-6]!

00000938 <l441>:
     938:	751d9012 	ldrvc	r9, [sp, #-18]

0000093c <l442>:
     93c:	e3a02006 	mov	r2, #6

00000940 <l443>:
     940:	e79d0002 	ldr	r0, [sp, r2]

00000944 <l444>:
     944:	559da016 	ldrpl	sl, [sp, #22]

00000948 <l445>:
     948:	e3a08010 	mov	r8, #16

0000094c <l446>:
     94c:	e61d3008 	ldr	r3, [sp], -r8

00000950 <l447>:
     950:	e41da005 	ldr	sl, [sp], #-5

00000954 <l448>:
     954:	e3a0600d 	mov	r6, #13

00000958 <l449>:
     958:	e69d3006 	ldr	r3, [sp], r6

0000095c <l450>:
     95c:	e3a0200e 	mov	r2, #14

00000960 <l451>:
     960:	e69d2002 	ldr	r2, [sp], r2

00000964 <l452>:
     964:	e51d902e 	ldr	r9, [sp, #-46]	; 0x2e

00000968 <l453>:
     968:	e3a0901c 	mov	r9, #28

0000096c <l454>:
     96c:	e73d3009 	ldr	r3, [sp, -r9]!

00000970 <l455>:
     970:	e5bd8025 	ldr	r8, [sp, #37]!	; 0x25

00000974 <l456>:
     974:	e3a0b018 	mov	fp, #24

00000978 <l457>:
     978:	e61dc00b 	ldr	ip, [sp], -fp

0000097c <l458>:
     97c:	e5bde00a 	ldr	lr, [sp, #10]!

00000980 <l459>:
     980:	e41d7011 	ldr	r7, [sp], #-17

00000984 <l460>:
     984:	e5bd000f 	ldr	r0, [sp, #15]!

00000988 <l461>:
     988:	e3a05027 	mov	r5, #39	; 0x27

0000098c <l462>:
     98c:	e73d5005 	ldr	r5, [sp, -r5]!

00000990 <l463>:
     990:	e3a0a024 	mov	sl, #36	; 0x24

00000994 <l464>:
     994:	e79da00a 	ldr	sl, [sp, sl]

00000998 <l465>:
     998:	e3a07001 	mov	r7, #1

0000099c <l466>:
     99c:	e73d1007 	ldr	r1, [sp, -r7]!

000009a0 <l467>:
     9a0:	e3a09000 	mov	r9, #0

000009a4 <l468>:
     9a4:	d71d1009 	ldrle	r1, [sp, -r9]

000009a8 <l469>:
     9a8:	e3a08037 	mov	r8, #55	; 0x37

000009ac <l470>:
     9ac:	e79d5008 	ldr	r5, [sp, r8]

000009b0 <l471>:
     9b0:	e49dc03a 	ldr	ip, [sp], #58	; 0x3a

000009b4 <l472>:
     9b4:	351d2027 	ldrcc	r2, [sp, #-39]	; 0x27

000009b8 <l473>:
     9b8:	e3a00015 	mov	r0, #21

000009bc <l474>:
     9bc:	e73d7000 	ldr	r7, [sp, -r0]!

000009c0 <l475>:
     9c0:	e5bd100a 	ldr	r1, [sp, #10]!

000009c4 <l476>:
     9c4:	e3a03031 	mov	r3, #49	; 0x31

000009c8 <l477>:
     9c8:	e73d2003 	ldr	r2, [sp, -r3]!

000009cc <l478>:
     9cc:	e3a0702f 	mov	r7, #47	; 0x2f

000009d0 <l479>:
     9d0:	e7bd1007 	ldr	r1, [sp, r7]!

000009d4 <l480>:
     9d4:	e3a00028 	mov	r0, #40	; 0x28

000009d8 <l481>:
     9d8:	e71d5000 	ldr	r5, [sp, -r0]

000009dc <l482>:
     9dc:	e49d7006 	ldr	r7, [sp], #6

000009e0 <l483>:
     9e0:	e3a0600e 	mov	r6, #14

000009e4 <l484>:
     9e4:	b71dc006 	ldrlt	ip, [sp, -r6]

000009e8 <l485>:
     9e8:	e3a04025 	mov	r4, #37	; 0x25

000009ec <l486>:
     9ec:	e61d6004 	ldr	r6, [sp], -r4

000009f0 <l487>:
     9f0:	e3a09026 	mov	r9, #38	; 0x26

000009f4 <l488>:
     9f4:	e69d9009 	ldr	r9, [sp], r9

000009f8 <l489>:
     9f8:	e41d603d 	ldr	r6, [sp], #-61	; 0x3d

000009fc <l490>:
     9fc:	e59d9041 	ldr	r9, [sp, #65]	; 0x41

00000a00 <l491>:
     a00:	e59d3024 	ldr	r3, [sp, #36]	; 0x24

00000a04 <l492>:
     a04:	e3a0401b 	mov	r4, #27

00000a08 <l493>:
     a08:	e7bd2004 	ldr	r2, [sp, r4]!

00000a0c <l494>:
     a0c:	e49d700f 	ldr	r7, [sp], #15

00000a10 <l495>:
     a10:	451d6016 	ldrmi	r6, [sp, #-22]

00000a14 <l496>:
     a14:	e59d4000 	ldr	r4, [sp]

00000a18 <l497>:
     a18:	951d7002 	ldrls	r7, [sp, #-2]

00000a1c <l498>:
     a1c:	159d501c 	ldrne	r5, [sp, #28]

00000a20 <l499>:
     a20:	e41d901e 	ldr	r9, [sp], #-30

00000a24 <l500>:
     a24:	e3a0a00e 	mov	sl, #14

00000a28 <l501>:
     a28:	871d600a 	ldrhi	r6, [sp, -sl]

00000a2c <l502>:
     a2c:	e3a0000a 	mov	r0, #10

00000a30 <l503>:
     a30:	579d9000 	ldrpl	r9, [sp, r0]

00000a34 <l504>:
     a34:	e3a0b024 	mov	fp, #36	; 0x24

00000a38 <l505>:
     a38:	e69d900b 	ldr	r9, [sp], fp

00000a3c <l506>:
     a3c:	e49d6011 	ldr	r6, [sp], #17

00000a40 <l507>:
     a40:	e3a06015 	mov	r6, #21

00000a44 <l508>:
     a44:	e73d3006 	ldr	r3, [sp, -r6]!

00000a48 <l509>:
     a48:	e3a04001 	mov	r4, #1

00000a4c <l510>:
     a4c:	071d2004 	ldreq	r2, [sp, -r4]

00000a50 <l511>:
     a50:	e3a06001 	mov	r6, #1

00000a54 <l512>:
     a54:	e71d8006 	ldr	r8, [sp, -r6]

00000a58 <l513>:
     a58:	e3a0300d 	mov	r3, #13

00000a5c <l514>:
     a5c:	e7bd9003 	ldr	r9, [sp, r3]!

00000a60 <l515>:
     a60:	e41d7017 	ldr	r7, [sp], #-23

00000a64 <l516>:
     a64:	259d0023 	ldrcs	r0, [sp, #35]	; 0x23

00000a68 <l517>:
     a68:	e41d301e 	ldr	r3, [sp], #-30

00000a6c <l518>:
     a6c:	e3a04041 	mov	r4, #65	; 0x41

00000a70 <l519>:
     a70:	079de004 	ldreq	lr, [sp, r4]

00000a74 <l520>:
     a74:	e3a0703d 	mov	r7, #61	; 0x3d

00000a78 <l521>:
     a78:	e69d6007 	ldr	r6, [sp], r7

00000a7c <l522>:
     a7c:	e3a01026 	mov	r1, #38	; 0x26

00000a80 <l523>:
     a80:	e61d1001 	ldr	r1, [sp], -r1

00000a84 <l524>:
     a84:	e3a0e010 	mov	lr, #16

00000a88 <l525>:
     a88:	e61d400e 	ldr	r4, [sp], -lr

00000a8c <l526>:
     a8c:	e3a02024 	mov	r2, #36	; 0x24

00000a90 <l527>:
     a90:	e7bd4002 	ldr	r4, [sp, r2]!

00000a94 <l528>:
     a94:	e3a0201e 	mov	r2, #30

00000a98 <l529>:
     a98:	e71dc002 	ldr	ip, [sp, -r2]

00000a9c <l530>:
     a9c:	e3a0a00c 	mov	sl, #12

00000aa0 <l531>:
     aa0:	e7bde00a 	ldr	lr, [sp, sl]!

00000aa4 <l532>:
     aa4:	e53d5029 	ldr	r5, [sp, #-41]!	; 0x29

00000aa8 <l533>:
     aa8:	e3a0c02e 	mov	ip, #46	; 0x2e

00000aac <l534>:
     aac:	e69d400c 	ldr	r4, [sp], ip

00000ab0 <l535>:
     ab0:	e53d001f 	ldr	r0, [sp, #-31]!

00000ab4 <l536>:
     ab4:	e3a05007 	mov	r5, #7

00000ab8 <l537>:
     ab8:	e69d6005 	ldr	r6, [sp], r5

00000abc <l538>:
     abc:	e49d801b 	ldr	r8, [sp], #27

00000ac0 <l539>:
     ac0:	e3a05035 	mov	r5, #53	; 0x35

00000ac4 <l540>:
     ac4:	e73d5005 	ldr	r5, [sp, -r5]!

00000ac8 <l541>:
     ac8:	b59d9036 	ldrlt	r9, [sp, #54]	; 0x36

00000acc <l542>:
     acc:	e3a09026 	mov	r9, #38	; 0x26

00000ad0 <l543>:
     ad0:	e79dc009 	ldr	ip, [sp, r9]

00000ad4 <l544>:
     ad4:	e3a0300a 	mov	r3, #10

00000ad8 <l545>:
     ad8:	e73d3003 	ldr	r3, [sp, -r3]!

00000adc <l546>:
     adc:	e3a06031 	mov	r6, #49	; 0x31

00000ae0 <l547>:
     ae0:	e7bd9006 	ldr	r9, [sp, r6]!

00000ae4 <l548>:
     ae4:	e3a03013 	mov	r3, #19

00000ae8 <l549>:
     ae8:	e7bd1003 	ldr	r1, [sp, r3]!

00000aec <l550>:
     aec:	e3a0e034 	mov	lr, #52	; 0x34

00000af0 <l551>:
     af0:	e61da00e 	ldr	sl, [sp], -lr

00000af4 <l552>:
     af4:	e3a09031 	mov	r9, #49	; 0x31

00000af8 <l553>:
     af8:	e69de009 	ldr	lr, [sp], r9

00000afc <l554>:
     afc:	e3a0102a 	mov	r1, #42	; 0x2a

00000b00 <l555>:
     b00:	e73d7001 	ldr	r7, [sp, -r1]!

00000b04 <l556>:
     b04:	e3a0e00f 	mov	lr, #15

00000b08 <l557>:
     b08:	e61d000e 	ldr	r0, [sp], -lr

00000b0c <l558>:
     b0c:	e3a0702c 	mov	r7, #44	; 0x2c

00000b10 <l559>:
     b10:	e69d4007 	ldr	r4, [sp], r7

00000b14 <l560>:
     b14:	e53d2031 	ldr	r2, [sp, #-49]!	; 0x31

00000b18 <l561>:
     b18:	e3a0b002 	mov	fp, #2

00000b1c <l562>:
     b1c:	271d600b 	ldrcs	r6, [sp, -fp]

00000b20 <l563>:
     b20:	e3a05002 	mov	r5, #2

00000b24 <l564>:
     b24:	e61d8005 	ldr	r8, [sp], -r5

00000b28 <l565>:
     b28:	e5bd9012 	ldr	r9, [sp, #18]!

00000b2c <l566>:
     b2c:	e3a0e015 	mov	lr, #21

00000b30 <l567>:
     b30:	779d200e 	ldrvc	r2, [sp, lr]

00000b34 <l568>:
     b34:	e3a06014 	mov	r6, #20

00000b38 <l569>:
     b38:	a71da006 	ldrge	sl, [sp, -r6]

00000b3c <l570>:
     b3c:	e3a0400a 	mov	r4, #10

00000b40 <l571>:
     b40:	e7bdc004 	ldr	ip, [sp, r4]!

00000b44 <l572>:
     b44:	e3a0200a 	mov	r2, #10

00000b48 <l573>:
     b48:	e73d5002 	ldr	r5, [sp, -r2]!

00000b4c <l574>:
     b4c:	e59d8008 	ldr	r8, [sp, #8]

00000b50 <l575>:
     b50:	e53d7017 	ldr	r7, [sp, #-23]!

00000b54 <l576>:
     b54:	e3a0e026 	mov	lr, #38	; 0x26

00000b58 <l577>:
     b58:	879d200e 	ldrhi	r2, [sp, lr]

00000b5c <l578>:
     b5c:	e59d803c 	ldr	r8, [sp, #60]	; 0x3c

00000b60 <l579>:
     b60:	e3a0801e 	mov	r8, #30

00000b64 <l580>:
     b64:	e7bd9008 	ldr	r9, [sp, r8]!

00000b68 <l581>:
     b68:	e5bd9015 	ldr	r9, [sp, #21]!

00000b6c <l582>:
     b6c:	e53d202c 	ldr	r2, [sp, #-44]!	; 0x2c

00000b70 <l583>:
     b70:	e3a00023 	mov	r0, #35	; 0x23

00000b74 <l584>:
     b74:	e7bd8000 	ldr	r8, [sp, r0]!

00000b78 <l585>:
     b78:	e3a0400c 	mov	r4, #12

00000b7c <l586>:
     b7c:	e7bd4004 	ldr	r4, [sp, r4]!

00000b80 <l587>:
     b80:	051da010 	ldreq	sl, [sp, #-16]

00000b84 <l588>:
     b84:	e3a0702d 	mov	r7, #45	; 0x2d

00000b88 <l589>:
     b88:	e61d3007 	ldr	r3, [sp], -r7

00000b8c <l590>:
     b8c:	e3a05037 	mov	r5, #55	; 0x37

00000b90 <l591>:
     b90:	e69de005 	ldr	lr, [sp], r5

00000b94 <l592>:
     b94:	e41d301b 	ldr	r3, [sp], #-27

00000b98 <l593>:
     b98:	e5bda005 	ldr	sl, [sp, #5]!

00000b9c <l594>:
     b9c:	e3a03022 	mov	r3, #34	; 0x22

00000ba0 <l595>:
     ba0:	671d7003 	ldrvs	r7, [sp, -r3]

00000ba4 <l596>:
     ba4:	e51d502a 	ldr	r5, [sp, #-42]	; 0x2a

00000ba8 <l597>:
     ba8:	e3a06014 	mov	r6, #20

00000bac <l598>:
     bac:	e69d5006 	ldr	r5, [sp], r6

00000bb0 <l599>:
     bb0:	e41d5023 	ldr	r5, [sp], #-35	; 0x23

00000bb4 <l600>:
     bb4:	d59d5023 	ldrle	r5, [sp, #35]	; 0x23

00000bb8 <l601>:
     bb8:	e5bd2025 	ldr	r2, [sp, #37]!	; 0x25

00000bbc <l602>:
     bbc:	e41d8040 	ldr	r8, [sp], #-64	; 0x40

00000bc0 <l603>:
     bc0:	e5bd802f 	ldr	r8, [sp, #47]!	; 0x2f

00000bc4 <l604>:
     bc4:	e3a02016 	mov	r2, #22

00000bc8 <l605>:
     bc8:	e61d6002 	ldr	r6, [sp], -r2

00000bcc <l606>:
     bcc:	e3a0302d 	mov	r3, #45	; 0x2d

00000bd0 <l607>:
     bd0:	679d5003 	ldrvs	r5, [sp, r3]

00000bd4 <l608>:
     bd4:	d51d2010 	ldrle	r2, [sp, #-16]

00000bd8 <l609>:
     bd8:	e3a0101f 	mov	r1, #31

00000bdc <l610>:
     bdc:	e7bd4001 	ldr	r4, [sp, r1]!

00000be0 <l611>:
     be0:	e3a07021 	mov	r7, #33	; 0x21

00000be4 <l612>:
     be4:	e61d9007 	ldr	r9, [sp], -r7

00000be8 <l613>:
     be8:	e5bd4007 	ldr	r4, [sp, #7]!

00000bec <l614>:
     bec:	e3a03019 	mov	r3, #25

00000bf0 <l615>:
     bf0:	871d6003 	ldrhi	r6, [sp, -r3]

00000bf4 <l616>:
     bf4:	e41d1015 	ldr	r1, [sp], #-21

00000bf8 <l617>:
     bf8:	e3a0001a 	mov	r0, #26

00000bfc <l618>:
     bfc:	e69de000 	ldr	lr, [sp], r0

00000c00 <l619>:
     c00:	e41d9004 	ldr	r9, [sp], #-4

00000c04 <l620>:
     c04:	151d801b 	ldrne	r8, [sp, #-27]

00000c08 <l621>:
     c08:	e3a0100b 	mov	r1, #11

00000c0c <l622>:
     c0c:	e7bd0001 	ldr	r0, [sp, r1]!

00000c10 <l623>:
     c10:	d51d101c 	ldrle	r1, [sp, #-28]

00000c14 <l624>:
     c14:	459d2011 	ldrmi	r2, [sp, #17]

00000c18 <l625>:
     c18:	e3a0401c 	mov	r4, #28

00000c1c <l626>:
     c1c:	e73dc004 	ldr	ip, [sp, -r4]!

00000c20 <l627>:
     c20:	e3a00029 	mov	r0, #41	; 0x29

00000c24 <l628>:
     c24:	e69da000 	ldr	sl, [sp], r0

00000c28 <l629>:
     c28:	e3a0302e 	mov	r3, #46	; 0x2e

00000c2c <l630>:
     c2c:	e71d4003 	ldr	r4, [sp, -r3]

00000c30 <l631>:
     c30:	e3a05013 	mov	r5, #19

00000c34 <l632>:
     c34:	371d3005 	ldrcc	r3, [sp, -r5]

00000c38 <l633>:
     c38:	e3a0701c 	mov	r7, #28

00000c3c <l634>:
     c3c:	e61de007 	ldr	lr, [sp], -r7

00000c40 <l635>:
     c40:	e3a0b006 	mov	fp, #6

00000c44 <l636>:
     c44:	e69de00b 	ldr	lr, [sp], fp

00000c48 <l637>:
     c48:	a59d8008 	ldrge	r8, [sp, #8]

00000c4c <l638>:
     c4c:	e3a0201c 	mov	r2, #28

00000c50 <l639>:
     c50:	371d6002 	ldrcc	r6, [sp, -r2]

00000c54 <l640>:
     c54:	e3a09017 	mov	r9, #23

00000c58 <l641>:
     c58:	e73d6009 	ldr	r6, [sp, -r9]!

00000c5c <l642>:
     c5c:	e59d0003 	ldr	r0, [sp, #3]

00000c60 <l643>:
     c60:	e59d502d 	ldr	r5, [sp, #45]	; 0x2d

00000c64 <l644>:
     c64:	e5bde003 	ldr	lr, [sp, #3]!

00000c68 <l645>:
     c68:	e5bd1012 	ldr	r1, [sp, #18]!

00000c6c <l646>:
     c6c:	e59da01b 	ldr	sl, [sp, #27]

00000c70 <l647>:
     c70:	e49d200a 	ldr	r2, [sp], #10

00000c74 <l648>:
     c74:	e3a0c02b 	mov	ip, #43	; 0x2b

00000c78 <l649>:
     c78:	e71dc00c 	ldr	ip, [sp, -ip]

00000c7c <l650>:
     c7c:	e53da008 	ldr	sl, [sp, #-8]!

00000c80 <l651>:
     c80:	e59db009 	ldr	fp, [sp, #9]

00000c84 <l652>:
     c84:	e3a0501a 	mov	r5, #26

00000c88 <l653>:
     c88:	071d1005 	ldreq	r1, [sp, -r5]

00000c8c <l654>:
     c8c:	e3a05026 	mov	r5, #38	; 0x26

00000c90 <l655>:
     c90:	e7bd9005 	ldr	r9, [sp, r5]!

00000c94 <l656>:
     c94:	e3a0301b 	mov	r3, #27

00000c98 <l657>:
     c98:	d71d4003 	ldrle	r4, [sp, -r3]

00000c9c <l658>:
     c9c:	e3a03023 	mov	r3, #35	; 0x23

00000ca0 <l659>:
     ca0:	071d8003 	ldreq	r8, [sp, -r3]

00000ca4 <l660>:
     ca4:	e41d6002 	ldr	r6, [sp], #-2

00000ca8 <l661>:
     ca8:	e51db00e 	ldr	fp, [sp, #-14]

00000cac <l662>:
     cac:	e3a0b027 	mov	fp, #39	; 0x27

00000cb0 <l663>:
     cb0:	971d300b 	ldrls	r3, [sp, -fp]

00000cb4 <l664>:
     cb4:	e3a06038 	mov	r6, #56	; 0x38

00000cb8 <l665>:
     cb8:	e71d3006 	ldr	r3, [sp, -r6]

00000cbc <l666>:
     cbc:	e53db01b 	ldr	fp, [sp, #-27]!

00000cc0 <l667>:
     cc0:	e49db001 	ldr	fp, [sp], #1

00000cc4 <l668>:
     cc4:	e41d1029 	ldr	r1, [sp], #-41	; 0x29

00000cc8 <l669>:
     cc8:	e3a04001 	mov	r4, #1

00000ccc <l670>:
     ccc:	e73d1004 	ldr	r1, [sp, -r4]!

00000cd0 <l671>:
     cd0:	e3a09002 	mov	r9, #2

00000cd4 <l672>:
     cd4:	671d0009 	ldrvs	r0, [sp, -r9]

00000cd8 <l673>:
     cd8:	e3a0203f 	mov	r2, #63	; 0x3f

00000cdc <l674>:
     cdc:	e7bd9002 	ldr	r9, [sp, r2]!

00000ce0 <l675>:
     ce0:	e3a01012 	mov	r1, #18

00000ce4 <l676>:
     ce4:	e73d5001 	ldr	r5, [sp, -r1]!

00000ce8 <l677>:
     ce8:	e53d802e 	ldr	r8, [sp, #-46]!	; 0x2e

00000cec <l678>:
     cec:	e49d6041 	ldr	r6, [sp], #65	; 0x41

00000cf0 <l679>:
     cf0:	e41d8035 	ldr	r8, [sp], #-53	; 0x35

00000cf4 <l680>:
     cf4:	e5bd6008 	ldr	r6, [sp, #8]!

00000cf8 <l681>:
     cf8:	051db006 	ldreq	fp, [sp, #-6]

00000cfc <l682>:
     cfc:	e3a0c000 	mov	ip, #0

00000d00 <l683>:
     d00:	e73d400c 	ldr	r4, [sp, -ip]!

00000d04 <l684>:
     d04:	e3a08029 	mov	r8, #41	; 0x29

00000d08 <l685>:
     d08:	e69de008 	ldr	lr, [sp], r8

00000d0c <l686>:
     d0c:	e49d100b 	ldr	r1, [sp], #11

00000d10 <l687>:
     d10:	e3a06016 	mov	r6, #22

00000d14 <l688>:
     d14:	e61d1006 	ldr	r1, [sp], -r6

00000d18 <l689>:
     d18:	e3a0702f 	mov	r7, #47	; 0x2f

00000d1c <l690>:
     d1c:	e61d2007 	ldr	r2, [sp], -r7

00000d20 <l691>:
     d20:	c51d0001 	ldrgt	r0, [sp, #-1]

00000d24 <l692>:
     d24:	e5bd803c 	ldr	r8, [sp, #60]!	; 0x3c

00000d28 <l693>:
     d28:	e51d802b 	ldr	r8, [sp, #-43]	; 0x2b

00000d2c <l694>:
     d2c:	e3a0e01c 	mov	lr, #28

00000d30 <l695>:
     d30:	e71d800e 	ldr	r8, [sp, -lr]

00000d34 <l696>:
     d34:	e41d8034 	ldr	r8, [sp], #-52	; 0x34

00000d38 <l697>:
     d38:	e41d9001 	ldr	r9, [sp], #-1

00000d3c <l698>:
     d3c:	e49db02a 	ldr	fp, [sp], #42	; 0x2a

00000d40 <l699>:
     d40:	e3a06004 	mov	r6, #4

00000d44 <l700>:
     d44:	e61d2006 	ldr	r2, [sp], -r6

00000d48 <l701>:
     d48:	e3a01005 	mov	r1, #5

00000d4c <l702>:
     d4c:	e73d9001 	ldr	r9, [sp, -r1]!

00000d50 <l703>:
     d50:	551d2017 	ldrpl	r2, [sp, #-23]

00000d54 <l704>:
     d54:	e3a00010 	mov	r0, #16

00000d58 <l705>:
     d58:	b71d2000 	ldrlt	r2, [sp, -r0]

00000d5c <l706>:
     d5c:	e3a00016 	mov	r0, #22

00000d60 <l707>:
     d60:	e61d7000 	ldr	r7, [sp], -r0

00000d64 <l708>:
     d64:	e3a0a028 	mov	sl, #40	; 0x28

00000d68 <l709>:
     d68:	e7bd100a 	ldr	r1, [sp, sl]!

00000d6c <l710>:
     d6c:	e53d7021 	ldr	r7, [sp, #-33]!	; 0x21

00000d70 <l711>:
     d70:	c51d8014 	ldrgt	r8, [sp, #-20]

00000d74 <l712>:
     d74:	e3a0601a 	mov	r6, #26

00000d78 <l713>:
     d78:	e71d1006 	ldr	r1, [sp, -r6]

00000d7c <l714>:
     d7c:	e3a08009 	mov	r8, #9

00000d80 <l715>:
     d80:	e69da008 	ldr	sl, [sp], r8

00000d84 <l716>:
     d84:	e3a07016 	mov	r7, #22

00000d88 <l717>:
     d88:	e73d7007 	ldr	r7, [sp, -r7]!

00000d8c <l718>:
     d8c:	e3a0a001 	mov	sl, #1

00000d90 <l719>:
     d90:	e73d900a 	ldr	r9, [sp, -sl]!

00000d94 <l720>:
     d94:	e49d400f 	ldr	r4, [sp], #15

00000d98 <l721>:
     d98:	e59da009 	ldr	sl, [sp, #9]

00000d9c <l722>:
     d9c:	e3a04000 	mov	r4, #0

00000da0 <l723>:
     da0:	871de004 	ldrhi	lr, [sp, -r4]

00000da4 <l724>:
     da4:	e3a0c006 	mov	ip, #6

00000da8 <l725>:
     da8:	e71d100c 	ldr	r1, [sp, -ip]

00000dac <l726>:
     dac:	e3a05007 	mov	r5, #7

00000db0 <l727>:
     db0:	279da005 	ldrcs	sl, [sp, r5]

00000db4 <l728>:
     db4:	e3a08004 	mov	r8, #4

00000db8 <l729>:
     db8:	179d4008 	ldrne	r4, [sp, r8]

00000dbc <l730>:
     dbc:	e49d4006 	ldr	r4, [sp], #6

00000dc0 <l731>:
     dc0:	e41d0019 	ldr	r0, [sp], #-25

00000dc4 <l732>:
     dc4:	e3a0400a 	mov	r4, #10

00000dc8 <l733>:
     dc8:	e61de004 	ldr	lr, [sp], -r4

00000dcc <l734>:
     dcc:	e3a08007 	mov	r8, #7

00000dd0 <l735>:
     dd0:	d79d2008 	ldrle	r2, [sp, r8]

00000dd4 <l736>:
     dd4:	e3a0401a 	mov	r4, #26

00000dd8 <l737>:
     dd8:	e69de004 	ldr	lr, [sp], r4

00000ddc <l738>:
     ddc:	e5bdb00a 	ldr	fp, [sp, #10]!

00000de0 <l739>:
     de0:	e3a08007 	mov	r8, #7

00000de4 <l740>:
     de4:	379d2008 	ldrcc	r2, [sp, r8]

00000de8 <l741>:
     de8:	e3a0300b 	mov	r3, #11

00000dec <l742>:
     dec:	e73d4003 	ldr	r4, [sp, -r3]!

00000df0 <l743>:
     df0:	e3a01011 	mov	r1, #17

00000df4 <l744>:
     df4:	e69d8001 	ldr	r8, [sp], r1

00000df8 <l745>:
     df8:	e3a07024 	mov	r7, #36	; 0x24

00000dfc <l746>:
     dfc:	e61d5007 	ldr	r5, [sp], -r7

00000e00 <l747>:
     e00:	e5bd7001 	ldr	r7, [sp, #1]!

00000e04 <l748>:
     e04:	e3a02032 	mov	r2, #50	; 0x32

00000e08 <l749>:
     e08:	979d6002 	ldrls	r6, [sp, r2]

00000e0c <l750>:
     e0c:	e5bde023 	ldr	lr, [sp, #35]!	; 0x23

00000e10 <l751>:
     e10:	d51d2017 	ldrle	r2, [sp, #-23]

00000e14 <l752>:
     e14:	c59da01d 	ldrgt	sl, [sp, #29]

00000e18 <l753>:
     e18:	e3a0e01c 	mov	lr, #28

00000e1c <l754>:
     e1c:	b71dc00e 	ldrlt	ip, [sp, -lr]

00000e20 <l755>:
     e20:	e3a0a01a 	mov	sl, #26

00000e24 <l756>:
     e24:	e61d900a 	ldr	r9, [sp], -sl

00000e28 <l757>:
     e28:	e41d200b 	ldr	r2, [sp], #-11

00000e2c <l758>:
     e2c:	e5bdc001 	ldr	ip, [sp, #1]!

00000e30 <l759>:
     e30:	e41d5002 	ldr	r5, [sp], #-2

00000e34 <l760>:
     e34:	e3a09041 	mov	r9, #65	; 0x41

00000e38 <l761>:
     e38:	e7bd6009 	ldr	r6, [sp, r9]!

00000e3c <l762>:
     e3c:	e3a0503f 	mov	r5, #63	; 0x3f

00000e40 <l763>:
     e40:	e61d0005 	ldr	r0, [sp], -r5

00000e44 <l764>:
     e44:	a59d1013 	ldrge	r1, [sp, #19]

00000e48 <l765>:
     e48:	459d7032 	ldrmi	r7, [sp, #50]	; 0x32

00000e4c <l766>:
     e4c:	e3a03021 	mov	r3, #33	; 0x21

00000e50 <l767>:
     e50:	e79d5003 	ldr	r5, [sp, r3]

00000e54 <l768>:
     e54:	e3a0b01c 	mov	fp, #28

00000e58 <l769>:
     e58:	e69db00b 	ldr	fp, [sp], fp

00000e5c <l770>:
     e5c:	e53d8024 	ldr	r8, [sp, #-36]!	; 0x24

00000e60 <l771>:
     e60:	e5bd4033 	ldr	r4, [sp, #51]!	; 0x33

00000e64 <l772>:
     e64:	051d8011 	ldreq	r8, [sp, #-17]

00000e68 <l773>:
     e68:	e3a09022 	mov	r9, #34	; 0x22

00000e6c <l774>:
     e6c:	e61db009 	ldr	fp, [sp], -r9

00000e70 <l775>:
     e70:	e3a04004 	mov	r4, #4

00000e74 <l776>:
     e74:	e69d7004 	ldr	r7, [sp], r4

00000e78 <l777>:
     e78:	459d501f 	ldrmi	r5, [sp, #31]

00000e7c <l778>:
     e7c:	e3a08002 	mov	r8, #2

00000e80 <l779>:
     e80:	e73d6008 	ldr	r6, [sp, -r8]!

00000e84 <l780>:
     e84:	e49d202a 	ldr	r2, [sp], #42	; 0x2a

00000e88 <l781>:
     e88:	e3a07011 	mov	r7, #17

00000e8c <l782>:
     e8c:	e61db007 	ldr	fp, [sp], -r7

00000e90 <l783>:
     e90:	e3a0901a 	mov	r9, #26

00000e94 <l784>:
     e94:	e73de009 	ldr	lr, [sp, -r9]!

00000e98 <l785>:
     e98:	e3a04011 	mov	r4, #17

00000e9c <l786>:
     e9c:	479d3004 	ldrmi	r3, [sp, r4]

00000ea0 <l787>:
     ea0:	e53d600b 	ldr	r6, [sp, #-11]!

00000ea4 <l788>:
     ea4:	e3a05033 	mov	r5, #51	; 0x33

00000ea8 <l789>:
     ea8:	e7bde005 	ldr	lr, [sp, r5]!

00000eac <l790>:
     eac:	e53db028 	ldr	fp, [sp, #-40]!	; 0x28

00000eb0 <l791>:
     eb0:	e3a0b00b 	mov	fp, #11

00000eb4 <l792>:
     eb4:	e61d500b 	ldr	r5, [sp], -fp

00000eb8 <l793>:
     eb8:	e5bde026 	ldr	lr, [sp, #38]!	; 0x26

00000ebc <l794>:
     ebc:	e3a05012 	mov	r5, #18

00000ec0 <l795>:
     ec0:	671d6005 	ldrvs	r6, [sp, -r5]

00000ec4 <l796>:
     ec4:	451d9002 	ldrmi	r9, [sp, #-2]

00000ec8 <l797>:
     ec8:	e3a0b02c 	mov	fp, #44	; 0x2c

00000ecc <l798>:
     ecc:	e73d500b 	ldr	r5, [sp, -fp]!

00000ed0 <l799>:
     ed0:	e3a0b016 	mov	fp, #22

00000ed4 <l800>:
     ed4:	179d800b 	ldrne	r8, [sp, fp]

00000ed8 <l801>:
     ed8:	e3a08006 	mov	r8, #6

00000edc <l802>:
     edc:	979d9008 	ldrls	r9, [sp, r8]

00000ee0 <l803>:
     ee0:	e3a05010 	mov	r5, #16

00000ee4 <l804>:
     ee4:	e7bdb005 	ldr	fp, [sp, r5]!

00000ee8 <l805>:
     ee8:	e3a00015 	mov	r0, #21

00000eec <l806>:
     eec:	e73db000 	ldr	fp, [sp, -r0]!

00000ef0 <l807>:
     ef0:	e49de02c 	ldr	lr, [sp], #44	; 0x2c

00000ef4 <l808>:
     ef4:	e5bd2012 	ldr	r2, [sp, #18]!

00000ef8 <l809>:
     ef8:	551d000c 	ldrpl	r0, [sp, #-12]

00000efc <l810>:
     efc:	e41d3010 	ldr	r3, [sp], #-16

00000f00 <l811>:
     f00:	e3a06003 	mov	r6, #3

00000f04 <l812>:
     f04:	e73d5006 	ldr	r5, [sp, -r6]!

00000f08 <l813>:
     f08:	e5bdc011 	ldr	ip, [sp, #17]!

00000f0c <l814>:
     f0c:	e3a0e007 	mov	lr, #7

00000f10 <l815>:
     f10:	e61d700e 	ldr	r7, [sp], -lr

00000f14 <l816>:
     f14:	e3a0202b 	mov	r2, #43	; 0x2b

00000f18 <l817>:
     f18:	e73d7002 	ldr	r7, [sp, -r2]!

00000f1c <l818>:
     f1c:	e5bd0035 	ldr	r0, [sp, #53]!	; 0x35

00000f20 <l819>:
     f20:	e3a08009 	mov	r8, #9

00000f24 <l820>:
     f24:	e7bd7008 	ldr	r7, [sp, r8]!

00000f28 <l821>:
     f28:	e53de02d 	ldr	lr, [sp, #-45]!	; 0x2d

00000f2c <l822>:
     f2c:	e5bd0005 	ldr	r0, [sp, #5]!

00000f30 <l823>:
     f30:	e59d500f 	ldr	r5, [sp, #15]

00000f34 <l824>:
     f34:	e3a05004 	mov	r5, #4

00000f38 <l825>:
     f38:	e7bd2005 	ldr	r2, [sp, r5]!

00000f3c <l826>:
     f3c:	e3a09006 	mov	r9, #6

00000f40 <l827>:
     f40:	e7bd3009 	ldr	r3, [sp, r9]!

00000f44 <l828>:
     f44:	e3a08017 	mov	r8, #23

00000f48 <l829>:
     f48:	e61d4008 	ldr	r4, [sp], -r8

00000f4c <l830>:
     f4c:	e3a03022 	mov	r3, #34	; 0x22

00000f50 <l831>:
     f50:	a79da003 	ldrge	sl, [sp, r3]

00000f54 <l832>:
     f54:	e49d501c 	ldr	r5, [sp], #28

00000f58 <l833>:
     f58:	b51d700e 	ldrlt	r7, [sp, #-14]

00000f5c <l834>:
     f5c:	e59d3015 	ldr	r3, [sp, #21]

00000f60 <l835>:
     f60:	e41d802b 	ldr	r8, [sp], #-43	; 0x2b

00000f64 <l836>:
     f64:	e49d200f 	ldr	r2, [sp], #15

00000f68 <l837>:
     f68:	e49d4014 	ldr	r4, [sp], #20

00000f6c <l838>:
     f6c:	e3a01024 	mov	r1, #36	; 0x24

00000f70 <l839>:
     f70:	e73d3001 	ldr	r3, [sp, -r1]!

00000f74 <l840>:
     f74:	e3a03036 	mov	r3, #54	; 0x36

00000f78 <l841>:
     f78:	e7bd4003 	ldr	r4, [sp, r3]!

00000f7c <l842>:
     f7c:	e41d101e 	ldr	r1, [sp], #-30

00000f80 <l843>:
     f80:	e3a0e008 	mov	lr, #8

00000f84 <l844>:
     f84:	e79d100e 	ldr	r1, [sp, lr]

00000f88 <l845>:
     f88:	e5bdc026 	ldr	ip, [sp, #38]!	; 0x26

00000f8c <l846>:
     f8c:	e41d0025 	ldr	r0, [sp], #-37	; 0x25

00000f90 <l847>:
     f90:	e5bd0022 	ldr	r0, [sp, #34]!	; 0x22

00000f94 <l848>:
     f94:	e3a09013 	mov	r9, #19

00000f98 <l849>:
     f98:	e73d5009 	ldr	r5, [sp, -r9]!

00000f9c <l850>:
     f9c:	e3a07020 	mov	r7, #32

00000fa0 <l851>:
     fa0:	e61d2007 	ldr	r2, [sp], -r7

00000fa4 <l852>:
     fa4:	e5bd4038 	ldr	r4, [sp, #56]!	; 0x38

00000fa8 <l853>:
     fa8:	851d600e 	ldrhi	r6, [sp, #-14]

00000fac <l854>:
     fac:	959d2006 	ldrls	r2, [sp, #6]

00000fb0 <l855>:
     fb0:	e53da028 	ldr	sl, [sp, #-40]!	; 0x28

00000fb4 <l856>:
     fb4:	551d500a 	ldrpl	r5, [sp, #-10]

00000fb8 <l857>:
     fb8:	e59d8006 	ldr	r8, [sp, #6]

00000fbc <l858>:
     fbc:	e3a07025 	mov	r7, #37	; 0x25

00000fc0 <l859>:
     fc0:	e7bd5007 	ldr	r5, [sp, r7]!

00000fc4 <l860>:
     fc4:	e3a02035 	mov	r2, #53	; 0x35

00000fc8 <l861>:
     fc8:	e61da002 	ldr	sl, [sp], -r2

00000fcc <l862>:
     fcc:	e3a04026 	mov	r4, #38	; 0x26

00000fd0 <l863>:
     fd0:	e7bd4004 	ldr	r4, [sp, r4]!

00000fd4 <l864>:
     fd4:	e53d8001 	ldr	r8, [sp, #-1]!

00000fd8 <l865>:
     fd8:	e3a08005 	mov	r8, #5

00000fdc <l866>:
     fdc:	271da008 	ldrcs	sl, [sp, -r8]

00000fe0 <l867>:
     fe0:	e3a00005 	mov	r0, #5

00000fe4 <l868>:
     fe4:	e7bdb000 	ldr	fp, [sp, r0]!

00000fe8 <l869>:
     fe8:	e3a0100a 	mov	r1, #10

00000fec <l870>:
     fec:	e71d3001 	ldr	r3, [sp, -r1]

00000ff0 <l871>:
     ff0:	e3a06017 	mov	r6, #23

00000ff4 <l872>:
     ff4:	e71db006 	ldr	fp, [sp, -r6]

00000ff8 <l873>:
     ff8:	159d1005 	ldrne	r1, [sp, #5]

00000ffc <l874>:
     ffc:	e3a06005 	mov	r6, #5

00001000 <l875>:
    1000:	c79d7006 	ldrgt	r7, [sp, r6]

00001004 <l876>:
    1004:	e51d5033 	ldr	r5, [sp, #-51]	; 0x33

00001008 <l877>:
    1008:	e3a09021 	mov	r9, #33	; 0x21

0000100c <l878>:
    100c:	271da009 	ldrcs	sl, [sp, -r9]

00001010 <l879>:
    1010:	e3a0401f 	mov	r4, #31

00001014 <l880>:
    1014:	e73d3004 	ldr	r3, [sp, -r4]!

00001018 <l881>:
    1018:	e3a0c018 	mov	ip, #24

0000101c <l882>:
    101c:	e61d100c 	ldr	r1, [sp], -ip

00001020 <l883>:
    1020:	e3a0603d 	mov	r6, #61	; 0x3d

00001024 <l884>:
    1024:	e69d9006 	ldr	r9, [sp], r6

00001028 <l885>:
    1028:	e3a03000 	mov	r3, #0

0000102c <l886>:
    102c:	e73d4003 	ldr	r4, [sp, -r3]!

00001030 <l887>:
    1030:	e3a05036 	mov	r5, #54	; 0x36

00001034 <l888>:
    1034:	e73d5005 	ldr	r5, [sp, -r5]!

00001038 <l889>:
    1038:	e3a0c006 	mov	ip, #6

0000103c <l890>:
    103c:	e73da00c 	ldr	sl, [sp, -ip]!

00001040 <l891>:
    1040:	e3a04009 	mov	r4, #9

00001044 <l892>:
    1044:	e7bde004 	ldr	lr, [sp, r4]!

00001048 <l893>:
    1048:	e3a05012 	mov	r5, #18

0000104c <l894>:
    104c:	e69d6005 	ldr	r6, [sp], r5

00001050 <l895>:
    1050:	e3a0801a 	mov	r8, #26

00001054 <l896>:
    1054:	079da008 	ldreq	sl, [sp, r8]

00001058 <l897>:
    1058:	e59d101c 	ldr	r1, [sp, #28]

0000105c <l898>:
    105c:	159de025 	ldrne	lr, [sp, #37]	; 0x25

00001060 <l899>:
    1060:	e3a0c016 	mov	ip, #22

00001064 <l900>:
    1064:	e73d600c 	ldr	r6, [sp, -ip]!

00001068 <l901>:
    1068:	e3a06039 	mov	r6, #57	; 0x39

0000106c <l902>:
    106c:	e79da006 	ldr	sl, [sp, r6]

00001070 <l903>:
    1070:	e59d1011 	ldr	r1, [sp, #17]

00001074 <l904>:
    1074:	e59de03d 	ldr	lr, [sp, #61]	; 0x3d

00001078 <l905>:
    1078:	e3a0c000 	mov	ip, #0

0000107c <l906>:
    107c:	e61d500c 	ldr	r5, [sp], -ip

00001080 <l907>:
    1080:	e3a0e032 	mov	lr, #50	; 0x32

00001084 <l908>:
    1084:	e69dc00e 	ldr	ip, [sp], lr

00001088 <l909>:
    1088:	e3a0200c 	mov	r2, #12

0000108c <l910>:
    108c:	e61d4002 	ldr	r4, [sp], -r2

00001090 <l911>:
    1090:	e3a0e00a 	mov	lr, #10

00001094 <l912>:
    1094:	979d100e 	ldrls	r1, [sp, lr]

00001098 <l913>:
    1098:	e3a0301d 	mov	r3, #29

0000109c <l914>:
    109c:	d79db003 	ldrle	fp, [sp, r3]

000010a0 <l915>:
    10a0:	e3a0a011 	mov	sl, #17

000010a4 <l916>:
    10a4:	e71d000a 	ldr	r0, [sp, -sl]

000010a8 <l917>:
    10a8:	d51d101c 	ldrle	r1, [sp, #-28]

000010ac <l918>:
    10ac:	051d1015 	ldreq	r1, [sp, #-21]

000010b0 <l919>:
    10b0:	e3a0701f 	mov	r7, #31

000010b4 <l920>:
    10b4:	e61d1007 	ldr	r1, [sp], -r7

000010b8 <l921>:
    10b8:	e3a0000d 	mov	r0, #13

000010bc <l922>:
    10bc:	e71d6000 	ldr	r6, [sp, -r0]

000010c0 <l923>:
    10c0:	e59d801a 	ldr	r8, [sp, #26]

000010c4 <l924>:
    10c4:	e3a00033 	mov	r0, #51	; 0x33

000010c8 <l925>:
    10c8:	e7bd2000 	ldr	r2, [sp, r0]!

000010cc <l926>:
    10cc:	e53d603a 	ldr	r6, [sp, #-58]!	; 0x3a

000010d0 <l927>:
    10d0:	e53d7005 	ldr	r7, [sp, #-5]!

000010d4 <l928>:
    10d4:	e3a04007 	mov	r4, #7

000010d8 <l929>:
    10d8:	e69d5004 	ldr	r5, [sp], r4

000010dc <l930>:
    10dc:	e3a0c03f 	mov	ip, #63	; 0x3f

000010e0 <l931>:
    10e0:	e69d500c 	ldr	r5, [sp], ip

000010e4 <l932>:
    10e4:	b51dc015 	ldrlt	ip, [sp, #-21]

000010e8 <l933>:
    10e8:	e41d5004 	ldr	r5, [sp], #-4

000010ec <l934>:
    10ec:	e41d003f 	ldr	r0, [sp], #-63	; 0x3f

000010f0 <l935>:
    10f0:	e3a0a00a 	mov	sl, #10

000010f4 <l936>:
    10f4:	e7bd000a 	ldr	r0, [sp, sl]!

000010f8 <l937>:
    10f8:	e3a01038 	mov	r1, #56	; 0x38

000010fc <l938>:
    10fc:	e79d2001 	ldr	r2, [sp, r1]

00001100 <l939>:
    1100:	e5bd001d 	ldr	r0, [sp, #29]!

00001104 <l940>:
    1104:	e3a04005 	mov	r4, #5

00001108 <l941>:
    1108:	e73db004 	ldr	fp, [sp, -r4]!

0000110c <l942>:
    110c:	259d600a 	ldrcs	r6, [sp, #10]

00001110 <l943>:
    1110:	e41da006 	ldr	sl, [sp], #-6

00001114 <l944>:
    1114:	e49d001f 	ldr	r0, [sp], #31

00001118 <l945>:
    1118:	e3a08016 	mov	r8, #22

0000111c <l946>:
    111c:	e61d6008 	ldr	r6, [sp], -r8

00001120 <l947>:
    1120:	e41d400c 	ldr	r4, [sp], #-12

00001124 <l948>:
    1124:	e51da01c 	ldr	sl, [sp, #-28]

00001128 <l949>:
    1128:	e51d1007 	ldr	r1, [sp, #-7]

0000112c <l950>:
    112c:	e3a0800d 	mov	r8, #13

00001130 <l951>:
    1130:	e7bde008 	ldr	lr, [sp, r8]!

00001134 <l952>:
    1134:	e3a07017 	mov	r7, #23

00001138 <l953>:
    1138:	e79d8007 	ldr	r8, [sp, r7]

0000113c <l954>:
    113c:	e3a0e020 	mov	lr, #32

00001140 <l955>:
    1140:	e73d900e 	ldr	r9, [sp, -lr]!

00001144 <l956>:
    1144:	e3a0300a 	mov	r3, #10

00001148 <l957>:
    1148:	e61d6003 	ldr	r6, [sp], -r3

0000114c <l958>:
    114c:	e5bd400d 	ldr	r4, [sp, #13]!

00001150 <l959>:
    1150:	e3a07029 	mov	r7, #41	; 0x29

00001154 <l960>:
    1154:	e69d0007 	ldr	r0, [sp], r7

00001158 <l961>:
    1158:	e59d9010 	ldr	r9, [sp, #16]

0000115c <l962>:
    115c:	759dc00a 	ldrvc	ip, [sp, #10]

00001160 <l963>:
    1160:	e3a01005 	mov	r1, #5

00001164 <l964>:
    1164:	e7bd2001 	ldr	r2, [sp, r1]!

00001168 <l965>:
    1168:	d59da00a 	ldrle	sl, [sp, #10]

0000116c <l966>:
    116c:	e3a00037 	mov	r0, #55	; 0x37

00001170 <l967>:
    1170:	e61d9000 	ldr	r9, [sp], -r0

00001174 <l968>:
    1174:	e49d7021 	ldr	r7, [sp], #33	; 0x21

00001178 <l969>:
    1178:	e3a05009 	mov	r5, #9

0000117c <l970>:
    117c:	e73d1005 	ldr	r1, [sp, -r5]!

00001180 <l971>:
    1180:	e5bde02b 	ldr	lr, [sp, #43]!	; 0x2b

00001184 <l972>:
    1184:	e3a01007 	mov	r1, #7

00001188 <l973>:
    1188:	e61d9001 	ldr	r9, [sp], -r1

0000118c <l974>:
    118c:	e41d7020 	ldr	r7, [sp], #-32

00001190 <l975>:
    1190:	e3a05001 	mov	r5, #1

00001194 <l976>:
    1194:	171d3005 	ldrne	r3, [sp, -r5]

00001198 <l977>:
    1198:	e41d6007 	ldr	r6, [sp], #-7

0000119c <l978>:
    119c:	e3a0400e 	mov	r4, #14

000011a0 <l979>:
    11a0:	e71de004 	ldr	lr, [sp, -r4]

000011a4 <l980>:
    11a4:	e5bd000a 	ldr	r0, [sp, #10]!

000011a8 <l981>:
    11a8:	e3a09014 	mov	r9, #20

000011ac <l982>:
    11ac:	e79dc009 	ldr	ip, [sp, r9]

000011b0 <l983>:
    11b0:	e3a0700e 	mov	r7, #14

000011b4 <l984>:
    11b4:	e73d9007 	ldr	r9, [sp, -r7]!

000011b8 <l985>:
    11b8:	e59d002d 	ldr	r0, [sp, #45]	; 0x2d

000011bc <l986>:
    11bc:	e3a06014 	mov	r6, #20

000011c0 <l987>:
    11c0:	e73dc006 	ldr	ip, [sp, -r6]!

000011c4 <l988>:
    11c4:	e3a0b02c 	mov	fp, #44	; 0x2c

000011c8 <l989>:
    11c8:	e7bdc00b 	ldr	ip, [sp, fp]!

000011cc <l990>:
    11cc:	e49d0014 	ldr	r0, [sp], #20

000011d0 <l991>:
    11d0:	e3a0300f 	mov	r3, #15

000011d4 <l992>:
    11d4:	e61d7003 	ldr	r7, [sp], -r3

000011d8 <l993>:
    11d8:	e3a02030 	mov	r2, #48	; 0x30

000011dc <l994>:
    11dc:	371d7002 	ldrcc	r7, [sp, -r2]

000011e0 <l995>:
    11e0:	e3a0b001 	mov	fp, #1

000011e4 <l996>:
    11e4:	e61d700b 	ldr	r7, [sp], -fp

000011e8 <l997>:
    11e8:	e3a0a00d 	mov	sl, #13

000011ec <l998>:
    11ec:	e7bd400a 	ldr	r4, [sp, sl]!

000011f0 <l999>:
    11f0:	e51d801f 	ldr	r8, [sp, #-31]

000011f4 <l1000>:
    11f4:	e3a0b011 	mov	fp, #17

000011f8 <l1001>:
    11f8:	e61d900b 	ldr	r9, [sp], -fp

000011fc <end>:
    11fc:	eafffffe 	b	11fc <end>
    1200:	00000c0e 	.word	0x00000c0e
