
ldrstr_1000.o:     file format elf32-littlearm


Disassembly of section .text:

00000000 <main>:
       0:	e05f000f 	subs	r0, pc, pc
       4:	e59fd000 	ldr	sp, [pc]	; c <val>
       8:	ea000000 	b	10 <next>

0000000c <val>:
       c:	000ffff0 	.word	0x000ffff0

00000010 <next>:
      10:	e59f1000 	ldr	r1, [pc]	; 18 <val1>
      14:	ea000000 	b	1c <next1>

00000018 <val1>:
      18:	72bd25fe 	.word	0x72bd25fe

0000001c <next1>:
      1c:	e59f2000 	ldr	r2, [pc]	; 24 <val2>
      20:	ea000000 	b	28 <next2>

00000024 <val2>:
      24:	54cf96d5 	.word	0x54cf96d5

00000028 <next2>:
      28:	e59f3000 	ldr	r3, [pc]	; 30 <val3>
      2c:	ea000000 	b	34 <next3>

00000030 <val3>:
      30:	cf6b3432 	.word	0xcf6b3432

00000034 <next3>:
      34:	e59f4000 	ldr	r4, [pc]	; 3c <val4>
      38:	ea000000 	b	40 <next4>

0000003c <val4>:
      3c:	c152ef3e 	.word	0xc152ef3e

00000040 <next4>:
      40:	e59f5000 	ldr	r5, [pc]	; 48 <val5>
      44:	ea000000 	b	4c <next5>

00000048 <val5>:
      48:	1daa861f 	.word	0x1daa861f

0000004c <next5>:
      4c:	e59f6000 	ldr	r6, [pc]	; 54 <val6>
      50:	ea000000 	b	58 <next6>

00000054 <val6>:
      54:	4dd8aff7 	.word	0x4dd8aff7

00000058 <next6>:
      58:	e59f7000 	ldr	r7, [pc]	; 60 <val7>
      5c:	ea000000 	b	64 <next7>

00000060 <val7>:
      60:	e47a82cc 	.word	0xe47a82cc

00000064 <next7>:
      64:	e59f8000 	ldr	r8, [pc]	; 6c <val8>
      68:	ea000000 	b	70 <next8>

0000006c <val8>:
      6c:	e44036ab 	.word	0xe44036ab

00000070 <next8>:
      70:	e59f9000 	ldr	r9, [pc]	; 78 <val9>
      74:	ea000000 	b	7c <next9>

00000078 <val9>:
      78:	9cfc42d1 	.word	0x9cfc42d1

0000007c <next9>:
      7c:	e59fa000 	ldr	sl, [pc]	; 84 <val10>
      80:	ea000000 	b	88 <next10>

00000084 <val10>:
      84:	eab90546 	.word	0xeab90546

00000088 <next10>:
      88:	e59fb000 	ldr	fp, [pc]	; 90 <val11>
      8c:	ea000000 	b	94 <next11>

00000090 <val11>:
      90:	3987c459 	.word	0x3987c459

00000094 <next11>:
      94:	e59fc000 	ldr	ip, [pc]	; 9c <val12>
      98:	ea000000 	b	a0 <next12>

0000009c <val12>:
      9c:	2ebbdc2c 	.word	0x2ebbdc2c

000000a0 <next12>:
      a0:	e59fe000 	ldr	lr, [pc]	; a8 <val14>
      a4:	ea000000 	b	ac <next14>

000000a8 <val14>:
      a8:	48d16c46 	.word	0x48d16c46

000000ac <next14>:
      ac:	e59f1000 	ldr	r1, [pc]	; b4 <val15>
      b0:	ea000000 	b	b8 <next15>

000000b4 <val15>:
      b4:	ee612258 	.word	0xee612258

000000b8 <next15>:
      b8:	e58d1000 	str	r1, [sp]
      bc:	e59f1000 	ldr	r1, [pc]	; c4 <val16>
      c0:	ea000000 	b	c8 <next16>

000000c4 <val16>:
      c4:	f9300b4c 	.word	0xf9300b4c

000000c8 <next16>:
      c8:	e50d1004 	str	r1, [sp, #-4]
      cc:	e59f1000 	ldr	r1, [pc]	; d4 <val17>
      d0:	ea000000 	b	d8 <next17>

000000d4 <val17>:
      d4:	9cd6f64a 	.word	0x9cd6f64a

000000d8 <next17>:
      d8:	e50d1008 	str	r1, [sp, #-8]
      dc:	e59f1000 	ldr	r1, [pc]	; e4 <val18>
      e0:	ea000000 	b	e8 <next18>

000000e4 <val18>:
      e4:	14961c17 	.word	0x14961c17

000000e8 <next18>:
      e8:	e50d100c 	str	r1, [sp, #-12]
      ec:	e59f1000 	ldr	r1, [pc]	; f4 <val19>
      f0:	ea000000 	b	f8 <next19>

000000f4 <val19>:
      f4:	02a3a135 	.word	0x02a3a135

000000f8 <next19>:
      f8:	e50d1010 	str	r1, [sp, #-16]
      fc:	e59f1000 	ldr	r1, [pc]	; 104 <val20>
     100:	ea000000 	b	108 <next20>

00000104 <val20>:
     104:	f8d46130 	.word	0xf8d46130

00000108 <next20>:
     108:	e50d1014 	str	r1, [sp, #-20]
     10c:	e59f1000 	ldr	r1, [pc]	; 114 <val21>
     110:	ea000000 	b	118 <next21>

00000114 <val21>:
     114:	16154ba0 	.word	0x16154ba0

00000118 <next21>:
     118:	e50d1018 	str	r1, [sp, #-24]
     11c:	e59f1000 	ldr	r1, [pc]	; 124 <val22>
     120:	ea000000 	b	128 <next22>

00000124 <val22>:
     124:	9b2c24fc 	.word	0x9b2c24fc

00000128 <next22>:
     128:	e50d101c 	str	r1, [sp, #-28]
     12c:	e59f1000 	ldr	r1, [pc]	; 134 <val23>
     130:	ea000000 	b	138 <next23>

00000134 <val23>:
     134:	c2474025 	.word	0xc2474025

00000138 <next23>:
     138:	e50d1020 	str	r1, [sp, #-32]
     13c:	e59f1000 	ldr	r1, [pc]	; 144 <val24>
     140:	ea000000 	b	148 <next24>

00000144 <val24>:
     144:	166ba47c 	.word	0x166ba47c

00000148 <next24>:
     148:	e50d1024 	str	r1, [sp, #-36]	; 0x24
     14c:	e59f1000 	ldr	r1, [pc]	; 154 <val25>
     150:	ea000000 	b	158 <next25>

00000154 <val25>:
     154:	0d21fcd5 	.word	0x0d21fcd5

00000158 <next25>:
     158:	e50d1028 	str	r1, [sp, #-40]	; 0x28
     15c:	e59f1000 	ldr	r1, [pc]	; 164 <val26>
     160:	ea000000 	b	168 <next26>

00000164 <val26>:
     164:	6efc0828 	.word	0x6efc0828

00000168 <next26>:
     168:	e50d102c 	str	r1, [sp, #-44]	; 0x2c
     16c:	e59f1000 	ldr	r1, [pc]	; 174 <val27>
     170:	ea000000 	b	178 <next27>

00000174 <val27>:
     174:	da6eae25 	.word	0xda6eae25

00000178 <next27>:
     178:	e50d1030 	str	r1, [sp, #-48]	; 0x30
     17c:	e59f1000 	ldr	r1, [pc]	; 184 <val28>
     180:	ea000000 	b	188 <next28>

00000184 <val28>:
     184:	8b14f7a6 	.word	0x8b14f7a6

00000188 <next28>:
     188:	e50d1034 	str	r1, [sp, #-52]	; 0x34
     18c:	e59f1000 	ldr	r1, [pc]	; 194 <val29>
     190:	ea000000 	b	198 <next29>

00000194 <val29>:
     194:	de7503bb 	.word	0xde7503bb

00000198 <next29>:
     198:	e50d1038 	str	r1, [sp, #-56]	; 0x38
     19c:	e59f1000 	ldr	r1, [pc]	; 1a4 <val30>
     1a0:	ea000000 	b	1a8 <next30>

000001a4 <val30>:
     1a4:	f4f76688 	.word	0xf4f76688

000001a8 <next30>:
     1a8:	e50d103c 	str	r1, [sp, #-60]	; 0x3c
     1ac:	e59f1000 	ldr	r1, [pc]	; 1b4 <val31>
     1b0:	ea000000 	b	1b8 <next31>

000001b4 <val31>:
     1b4:	9f6e5f1d 	.word	0x9f6e5f1d

000001b8 <next31>:
     1b8:	e50d1040 	str	r1, [sp, #-64]	; 0x40
     1bc:	e59f1000 	ldr	r1, [pc]	; 1c4 <val32>
     1c0:	ea000000 	b	1c8 <next32>

000001c4 <val32>:
     1c4:	65d7ccda 	.word	0x65d7ccda

000001c8 <next32>:
     1c8:	e50d1044 	str	r1, [sp, #-68]	; 0x44
     1cc:	e59f1000 	ldr	r1, [pc]	; 1d4 <val33>
     1d0:	ea000000 	b	1d8 <next33>

000001d4 <val33>:
     1d4:	095bfccc 	.word	0x095bfccc

000001d8 <next33>:
     1d8:	e50d1048 	str	r1, [sp, #-72]	; 0x48
     1dc:	e59f1000 	ldr	r1, [pc]	; 1e4 <val34>
     1e0:	ea000000 	b	1e8 <next34>

000001e4 <val34>:
     1e4:	13305b42 	.word	0x13305b42

000001e8 <next34>:
     1e8:	e50d104c 	str	r1, [sp, #-76]	; 0x4c
     1ec:	e59f1000 	ldr	r1, [pc]	; 1f4 <val35>
     1f0:	ea000000 	b	1f8 <next35>

000001f4 <val35>:
     1f4:	ae2a3289 	.word	0xae2a3289

000001f8 <next35>:
     1f8:	e50d1050 	str	r1, [sp, #-80]	; 0x50

000001fc <l1>:
     1fc:	e41d004b 	ldr	r0, [sp], #-75	; 0x4b

00000200 <l2>:
     200:	e3a0801b 	mov	r8, #27

00000204 <l3>:
     204:	e7adf008 	str	pc, [sp, r8]!

00000208 <l4>:
     208:	e3a0201c 	mov	r2, #28

0000020c <l5>:
     20c:	e60d9002 	str	r9, [sp], -r2

00000210 <l6>:
     210:	e3a0203e 	mov	r2, #62	; 0x3e

00000214 <l7>:
     214:	e79d7002 	ldr	r7, [sp, r2]

00000218 <l8>:
     218:	650d2004 	strvs	r2, [sp, #-4]

0000021c <l9>:
     21c:	e3a0503b 	mov	r5, #59	; 0x3b

00000220 <l10>:
     220:	e69d7005 	ldr	r7, [sp], r5

00000224 <l11>:
     224:	e3a0c039 	mov	ip, #57	; 0x39

00000228 <l12>:
     228:	e73d000c 	ldr	r0, [sp, -ip]!

0000022c <l13>:
     22c:	e48d9042 	str	r9, [sp], #66	; 0x42

00000230 <l14>:
     230:	e53d501c 	ldr	r5, [sp, #-28]!

00000234 <l15>:
     234:	c50d7020 	strgt	r7, [sp, #-32]

00000238 <l16>:
     238:	e3a0c018 	mov	ip, #24

0000023c <l17>:
     23c:	e68de00c 	str	lr, [sp], ip

00000240 <l18>:
     240:	e3a09021 	mov	r9, #33	; 0x21

00000244 <l19>:
     244:	e73d2009 	ldr	r2, [sp, -r9]!

00000248 <l20>:
     248:	e3a0b011 	mov	fp, #17

0000024c <l21>:
     24c:	e68d500b 	str	r5, [sp], fp

00000250 <l22>:
     250:	e3a0302d 	mov	r3, #45	; 0x2d

00000254 <l23>:
     254:	e61dc003 	ldr	ip, [sp], -r3

00000258 <l24>:
     258:	558de01d 	strpl	lr, [sp, #29]

0000025c <l25>:
     25c:	e3a0202f 	mov	r2, #47	; 0x2f

00000260 <l26>:
     260:	e69d1002 	ldr	r1, [sp], r2

00000264 <l27>:
     264:	e3a04032 	mov	r4, #50	; 0x32

00000268 <l28>:
     268:	e60de004 	str	lr, [sp], -r4

0000026c <l29>:
     26c:	559d903f 	ldrpl	r9, [sp, #63]	; 0x3f

00000270 <l30>:
     270:	e5bda008 	ldr	sl, [sp, #8]!

00000274 <l31>:
     274:	e3a0202c 	mov	r2, #44	; 0x2c

00000278 <l32>:
     278:	e7ad8002 	str	r8, [sp, r2]!

0000027c <l33>:
     27c:	e40df024 	str	pc, [sp], #-36	; 0x24

00000280 <l34>:
     280:	e48dc014 	str	ip, [sp], #20

00000284 <l35>:
     284:	e5bd801b 	ldr	r8, [sp, #27]!

00000288 <l36>:
     288:	e3a0a03b 	mov	sl, #59	; 0x3b

0000028c <l37>:
     28c:	e72df00a 	str	pc, [sp, -sl]!

00000290 <l38>:
     290:	e3a0801e 	mov	r8, #30

00000294 <l39>:
     294:	e7bd2008 	ldr	r2, [sp, r8]!

00000298 <l40>:
     298:	e40d601a 	str	r6, [sp], #-26

0000029c <l41>:
     29c:	e3a0e014 	mov	lr, #20

000002a0 <l42>:
     2a0:	e69d800e 	ldr	r8, [sp], lr

000002a4 <l43>:
     2a4:	e3a07008 	mov	r7, #8

000002a8 <l44>:
     2a8:	e60d3007 	str	r3, [sp], -r7

000002ac <l45>:
     2ac:	e3a0a01f 	mov	sl, #31

000002b0 <l46>:
     2b0:	e7bd500a 	ldr	r5, [sp, sl]!

000002b4 <l47>:
     2b4:	c51d5000 	ldrgt	r5, [sp, #-0]

000002b8 <l48>:
     2b8:	e3a0001c 	mov	r0, #28

000002bc <l49>:
     2bc:	671dc000 	ldrvs	ip, [sp, -r0]

000002c0 <l50>:
     2c0:	e3a0b019 	mov	fp, #25

000002c4 <l51>:
     2c4:	e73da00b 	ldr	sl, [sp, -fp]!

000002c8 <l52>:
     2c8:	e40d9006 	str	r9, [sp], #-6

000002cc <l53>:
     2cc:	e3a02019 	mov	r2, #25

000002d0 <l54>:
     2d0:	e69da002 	ldr	sl, [sp], r2

000002d4 <l55>:
     2d4:	e59d7013 	ldr	r7, [sp, #19]

000002d8 <l56>:
     2d8:	e3a02003 	mov	r2, #3

000002dc <l57>:
     2dc:	e73d6002 	ldr	r6, [sp, -r2]!

000002e0 <l58>:
     2e0:	e3a00012 	mov	r0, #18

000002e4 <l59>:
     2e4:	e78dc000 	str	ip, [sp, r0]

000002e8 <l60>:
     2e8:	e58d6002 	str	r6, [sp, #2]

000002ec <l61>:
     2ec:	e3a0c016 	mov	ip, #22

000002f0 <l62>:
     2f0:	e68d900c 	str	r9, [sp], ip

000002f4 <l63>:
     2f4:	e53d6020 	ldr	r6, [sp, #-32]!

000002f8 <l64>:
     2f8:	e3a0a004 	mov	sl, #4

000002fc <l65>:
     2fc:	e69d700a 	ldr	r7, [sp], sl

00000300 <l66>:
     300:	e52d6028 	str	r6, [sp, #-40]!	; 0x28

00000304 <l67>:
     304:	e3a0a014 	mov	sl, #20

00000308 <l68>:
     308:	e7ade00a 	str	lr, [sp, sl]!

0000030c <l69>:
     30c:	559d7018 	ldrpl	r7, [sp, #24]

00000310 <l70>:
     310:	e3a0c024 	mov	ip, #36	; 0x24

00000314 <l71>:
     314:	e7bda00c 	ldr	sl, [sp, ip]!

00000318 <l72>:
     318:	e40d6014 	str	r6, [sp], #-20

0000031c <l73>:
     31c:	450de024 	strmi	lr, [sp, #-36]	; 0x24

00000320 <l74>:
     320:	e3a0c01d 	mov	ip, #29

00000324 <l75>:
     324:	e7bda00c 	ldr	sl, [sp, ip]!

00000328 <l76>:
     328:	e41da03a 	ldr	sl, [sp], #-58	; 0x3a

0000032c <l77>:
     32c:	e3a01031 	mov	r1, #49	; 0x31

00000330 <l78>:
     330:	e7ad3001 	str	r3, [sp, r1]!

00000334 <l79>:
     334:	e40d2034 	str	r2, [sp], #-52	; 0x34

00000338 <l80>:
     338:	e48d4010 	str	r4, [sp], #16

0000033c <l81>:
     33c:	e49d8019 	ldr	r8, [sp], #25

00000340 <l82>:
     340:	e3a08017 	mov	r8, #23

00000344 <l83>:
     344:	e78d1008 	str	r1, [sp, r8]

00000348 <l84>:
     348:	e3a09019 	mov	r9, #25

0000034c <l85>:
     34c:	a70d3009 	strge	r3, [sp, -r9]

00000350 <l86>:
     350:	750d7029 	strvc	r7, [sp, #-41]	; 0x29

00000354 <l87>:
     354:	e3a07005 	mov	r7, #5

00000358 <l88>:
     358:	e69d0007 	ldr	r0, [sp], r7

0000035c <l89>:
     35c:	e3a08012 	mov	r8, #18

00000360 <l90>:
     360:	e60dc008 	str	ip, [sp], -r8

00000364 <l91>:
     364:	e3a0b014 	mov	fp, #20

00000368 <l92>:
     368:	e60df00b 	str	pc, [sp], -fp

0000036c <l93>:
     36c:	e58dc034 	str	ip, [sp, #52]	; 0x34

00000370 <l94>:
     370:	e3a08014 	mov	r8, #20

00000374 <l95>:
     374:	778d5008 	strvc	r5, [sp, r8]

00000378 <l96>:
     378:	e3a0801c 	mov	r8, #28

0000037c <l97>:
     37c:	e7ad8008 	str	r8, [sp, r8]!

00000380 <l98>:
     380:	e41d6007 	ldr	r6, [sp], #-7

00000384 <l99>:
     384:	e3a0201c 	mov	r2, #28

00000388 <l100>:
     388:	879d6002 	ldrhi	r6, [sp, r2]

0000038c <l101>:
     38c:	e41da012 	ldr	sl, [sp], #-18

00000390 <l102>:
     390:	e3a0e017 	mov	lr, #23

00000394 <l103>:
     394:	e7bd900e 	ldr	r9, [sp, lr]!

00000398 <l104>:
     398:	e3a0a01a 	mov	sl, #26

0000039c <l105>:
     39c:	e68db00a 	str	fp, [sp], sl

000003a0 <l106>:
     3a0:	e41dc01c 	ldr	ip, [sp], #-28

000003a4 <l107>:
     3a4:	e3a0b004 	mov	fp, #4

000003a8 <l108>:
     3a8:	679d000b 	ldrvs	r0, [sp, fp]

000003ac <l109>:
     3ac:	e3a0900c 	mov	r9, #12

000003b0 <l110>:
     3b0:	e7ad4009 	str	r4, [sp, r9]!

000003b4 <l111>:
     3b4:	e3a06024 	mov	r6, #36	; 0x24

000003b8 <l112>:
     3b8:	e60db006 	str	fp, [sp], -r6

000003bc <l113>:
     3bc:	e48d5008 	str	r5, [sp], #8

000003c0 <l114>:
     3c0:	c58db010 	strgt	fp, [sp, #16]

000003c4 <l115>:
     3c4:	e3a0100c 	mov	r1, #12

000003c8 <l116>:
     3c8:	e72d7001 	str	r7, [sp, -r1]!

000003cc <l117>:
     3cc:	e59dc02c 	ldr	ip, [sp, #44]	; 0x2c

000003d0 <l118>:
     3d0:	e49d801d 	ldr	r8, [sp], #29

000003d4 <l119>:
     3d4:	e5bde01b 	ldr	lr, [sp, #27]!

000003d8 <l120>:
     3d8:	e3a0a040 	mov	sl, #64	; 0x40

000003dc <l121>:
     3dc:	e73d300a 	ldr	r3, [sp, -sl]!

000003e0 <l122>:
     3e0:	e3a0b020 	mov	fp, #32

000003e4 <l123>:
     3e4:	479d200b 	ldrmi	r2, [sp, fp]

000003e8 <l124>:
     3e8:	e5ad8028 	str	r8, [sp, #40]!	; 0x28

000003ec <l125>:
     3ec:	d59d2000 	ldrle	r2, [sp]

000003f0 <l126>:
     3f0:	e3a0e007 	mov	lr, #7

000003f4 <l127>:
     3f4:	571d600e 	ldrpl	r6, [sp, -lr]

000003f8 <l128>:
     3f8:	e3a03013 	mov	r3, #19

000003fc <l129>:
     3fc:	e73db003 	ldr	fp, [sp, -r3]!

00000400 <l130>:
     400:	e53d900d 	ldr	r9, [sp, #-13]!

00000404 <l131>:
     404:	e58dc024 	str	ip, [sp, #36]	; 0x24

00000408 <l132>:
     408:	e5bdc02a 	ldr	ip, [sp, #42]!	; 0x2a

0000040c <l133>:
     40c:	e58d1012 	str	r1, [sp, #18]

00000410 <l134>:
     410:	e51da021 	ldr	sl, [sp, #-33]	; 0x21

00000414 <l135>:
     414:	e3a09018 	mov	r9, #24

00000418 <l136>:
     418:	e7bd0009 	ldr	r0, [sp, r9]!

0000041c <l137>:
     41c:	e3a03046 	mov	r3, #70	; 0x46

00000420 <l138>:
     420:	e73d0003 	ldr	r0, [sp, -r3]!

00000424 <l139>:
     424:	859d0037 	ldrhi	r0, [sp, #55]	; 0x37

00000428 <l140>:
     428:	e3a0a027 	mov	sl, #39	; 0x27

0000042c <l141>:
     42c:	e7bdc00a 	ldr	ip, [sp, sl]!

00000430 <l142>:
     430:	e3a07003 	mov	r7, #3

00000434 <l143>:
     434:	e72d3007 	str	r3, [sp, -r7]!

00000438 <l144>:
     438:	e41d0008 	ldr	r0, [sp], #-8

0000043c <l145>:
     43c:	e3a0c021 	mov	ip, #33	; 0x21

00000440 <l146>:
     440:	e79d100c 	ldr	r1, [sp, ip]

00000444 <l147>:
     444:	e51dc00b 	ldr	ip, [sp, #-11]

00000448 <l148>:
     448:	e49d4016 	ldr	r4, [sp], #22

0000044c <l149>:
     44c:	e40d800a 	str	r8, [sp], #-10

00000450 <l150>:
     450:	e3a0001e 	mov	r0, #30

00000454 <l151>:
     454:	e73d1000 	ldr	r1, [sp, -r0]!

00000458 <l152>:
     458:	e3a0300a 	mov	r3, #10

0000045c <l153>:
     45c:	e78dc003 	str	ip, [sp, r3]

00000460 <l154>:
     460:	e3a05020 	mov	r5, #32

00000464 <l155>:
     464:	e7bd4005 	ldr	r4, [sp, r5]!

00000468 <l156>:
     468:	e58d600a 	str	r6, [sp, #10]

0000046c <l157>:
     46c:	e41d502d 	ldr	r5, [sp], #-45	; 0x2d

00000470 <l158>:
     470:	851d0001 	ldrhi	r0, [sp, #-1]

00000474 <l159>:
     474:	e3a06003 	mov	r6, #3

00000478 <l160>:
     478:	e68db006 	str	fp, [sp], r6

0000047c <l161>:
     47c:	e5bd8043 	ldr	r8, [sp, #67]!	; 0x43

00000480 <l162>:
     480:	e3a0b02f 	mov	fp, #47	; 0x2f

00000484 <l163>:
     484:	d70d600b 	strle	r6, [sp, -fp]

00000488 <l164>:
     488:	e3a0c023 	mov	ip, #35	; 0x23

0000048c <l165>:
     48c:	e73d200c 	ldr	r2, [sp, -ip]!

00000490 <l166>:
     490:	e3a0c004 	mov	ip, #4

00000494 <l167>:
     494:	e72d400c 	str	r4, [sp, -ip]!

00000498 <l168>:
     498:	e41d8003 	ldr	r8, [sp], #-3

0000049c <l169>:
     49c:	e5ada01b 	str	sl, [sp, #27]!

000004a0 <l170>:
     4a0:	e3a0c024 	mov	ip, #36	; 0x24

000004a4 <l171>:
     4a4:	370d800c 	strcc	r8, [sp, -ip]

000004a8 <l172>:
     4a8:	e50d7024 	str	r7, [sp, #-36]	; 0x24

000004ac <l173>:
     4ac:	e52d9028 	str	r9, [sp, #-40]!	; 0x28

000004b0 <l174>:
     4b0:	e3a06034 	mov	r6, #52	; 0x34

000004b4 <l175>:
     4b4:	e7ad4006 	str	r4, [sp, r6]!

000004b8 <l176>:
     4b8:	e3a08001 	mov	r8, #1

000004bc <l177>:
     4bc:	371d7008 	ldrcc	r7, [sp, -r8]

000004c0 <l178>:
     4c0:	e52d3024 	str	r3, [sp, #-36]!	; 0x24

000004c4 <l179>:
     4c4:	e5bd4028 	ldr	r4, [sp, #40]!	; 0x28

000004c8 <l180>:
     4c8:	e52df004 	push	{pc}		; (str pc, [sp, #-4]!)

000004cc <l181>:
     4cc:	e53d1015 	ldr	r1, [sp, #-21]!

000004d0 <l182>:
     4d0:	e3a0c01f 	mov	ip, #31

000004d4 <l183>:
     4d4:	e71da00c 	ldr	sl, [sp, -ip]

000004d8 <l184>:
     4d8:	e3a0501f 	mov	r5, #31

000004dc <l185>:
     4dc:	e61de005 	ldr	lr, [sp], -r5

000004e0 <l186>:
     4e0:	e3a08013 	mov	r8, #19

000004e4 <l187>:
     4e4:	e7bda008 	ldr	sl, [sp, r8]!

000004e8 <l188>:
     4e8:	a58d0011 	strge	r0, [sp, #17]

000004ec <l189>:
     4ec:	e5bd3001 	ldr	r3, [sp, #1]!

000004f0 <l190>:
     4f0:	e3a0a015 	mov	sl, #21

000004f4 <l191>:
     4f4:	579dc00a 	ldrpl	ip, [sp, sl]

000004f8 <l192>:
     4f8:	e3a0e007 	mov	lr, #7

000004fc <l193>:
     4fc:	e73d900e 	ldr	r9, [sp, -lr]!

00000500 <l194>:
     500:	e58db003 	str	fp, [sp, #3]

00000504 <l195>:
     504:	e3a02017 	mov	r2, #23

00000508 <l196>:
     508:	e7ad4002 	str	r4, [sp, r2]!

0000050c <l197>:
     50c:	e3a0c034 	mov	ip, #52	; 0x34

00000510 <l198>:
     510:	e72da00c 	str	sl, [sp, -ip]!

00000514 <l199>:
     514:	e59db00f 	ldr	fp, [sp, #15]

00000518 <l200>:
     518:	e3a0803a 	mov	r8, #58	; 0x3a

0000051c <l201>:
     51c:	e69d5008 	ldr	r5, [sp], r8

00000520 <l202>:
     520:	e52d1022 	str	r1, [sp, #-34]!	; 0x22

00000524 <l203>:
     524:	e3a07014 	mov	r7, #20

00000528 <l204>:
     528:	e69de007 	ldr	lr, [sp], r7

0000052c <l205>:
     52c:	e48d100c 	str	r1, [sp], #12

00000530 <l206>:
     530:	e3a07009 	mov	r7, #9

00000534 <l207>:
     534:	e69d2007 	ldr	r2, [sp], r7

00000538 <l208>:
     538:	e49d9008 	ldr	r9, [sp], #8

0000053c <l209>:
     53c:	e53d301d 	ldr	r3, [sp, #-29]!

00000540 <l210>:
     540:	e3a0401f 	mov	r4, #31

00000544 <l211>:
     544:	e79db004 	ldr	fp, [sp, r4]

00000548 <l212>:
     548:	e3a0302c 	mov	r3, #44	; 0x2c

0000054c <l213>:
     54c:	e61da003 	ldr	sl, [sp], -r3

00000550 <l214>:
     550:	e3a0201a 	mov	r2, #26

00000554 <l215>:
     554:	e69d9002 	ldr	r9, [sp], r2

00000558 <l216>:
     558:	e3a0a00a 	mov	sl, #10

0000055c <l217>:
     55c:	e68d200a 	str	r2, [sp], sl

00000560 <l218>:
     560:	e3a0801b 	mov	r8, #27

00000564 <l219>:
     564:	e69db008 	ldr	fp, [sp], r8

00000568 <l220>:
     568:	e40d103b 	str	r1, [sp], #-59	; 0x3b

0000056c <l221>:
     56c:	159d6042 	ldrne	r6, [sp, #66]	; 0x42

00000570 <l222>:
     570:	e3a0a010 	mov	sl, #16

00000574 <l223>:
     574:	e69d800a 	ldr	r8, [sp], sl

00000578 <l224>:
     578:	e58d1024 	str	r1, [sp, #36]	; 0x24

0000057c <l225>:
     57c:	958db020 	strls	fp, [sp, #32]

00000580 <l226>:
     580:	e3a00024 	mov	r0, #36	; 0x24

00000584 <l227>:
     584:	e7ad9000 	str	r9, [sp, r0]!

00000588 <l228>:
     588:	e5bd8011 	ldr	r8, [sp, #17]!

0000058c <l229>:
     58c:	e3a04017 	mov	r4, #23

00000590 <l230>:
     590:	e61d4004 	ldr	r4, [sp], -r4

00000594 <l231>:
     594:	250d5002 	strcs	r5, [sp, #-2]

00000598 <l232>:
     598:	e3a03021 	mov	r3, #33	; 0x21

0000059c <l233>:
     59c:	e73d9003 	ldr	r9, [sp, -r3]!

000005a0 <l234>:
     5a0:	e5bd0005 	ldr	r0, [sp, #5]!

000005a4 <l235>:
     5a4:	b59de030 	ldrlt	lr, [sp, #48]	; 0x30

000005a8 <l236>:
     5a8:	e5bde02e 	ldr	lr, [sp, #46]!	; 0x2e

000005ac <l237>:
     5ac:	d51d2015 	ldrle	r2, [sp, #-21]

000005b0 <l238>:
     5b0:	e41d9037 	ldr	r9, [sp], #-55	; 0x37

000005b4 <l239>:
     5b4:	e3a0a009 	mov	sl, #9

000005b8 <l240>:
     5b8:	e69d100a 	ldr	r1, [sp], sl

000005bc <l241>:
     5bc:	e3a0b01b 	mov	fp, #27

000005c0 <l242>:
     5c0:	e69d000b 	ldr	r0, [sp], fp

000005c4 <l243>:
     5c4:	e3a0e00c 	mov	lr, #12

000005c8 <l244>:
     5c8:	e61d200e 	ldr	r2, [sp], -lr

000005cc <l245>:
     5cc:	e59d401e 	ldr	r4, [sp, #30]

000005d0 <l246>:
     5d0:	e53d6012 	ldr	r6, [sp, #-18]!

000005d4 <l247>:
     5d4:	e3a05005 	mov	r5, #5

000005d8 <l248>:
     5d8:	478de005 	strmi	lr, [sp, r5]

000005dc <l249>:
     5dc:	e5bdc006 	ldr	ip, [sp, #6]!

000005e0 <l250>:
     5e0:	e3a07007 	mov	r7, #7

000005e4 <l251>:
     5e4:	478d0007 	strmi	r0, [sp, r7]

000005e8 <l252>:
     5e8:	e3a0502d 	mov	r5, #45	; 0x2d

000005ec <l253>:
     5ec:	e69d9005 	ldr	r9, [sp], r5

000005f0 <l254>:
     5f0:	e3a02003 	mov	r2, #3

000005f4 <l255>:
     5f4:	e73d0002 	ldr	r0, [sp, -r2]!

000005f8 <l256>:
     5f8:	e3a07033 	mov	r7, #51	; 0x33

000005fc <l257>:
     5fc:	e70d9007 	str	r9, [sp, -r7]

00000600 <l258>:
     600:	e3a02017 	mov	r2, #23

00000604 <l259>:
     604:	e60d7002 	str	r7, [sp], -r2

00000608 <l260>:
     608:	258d0004 	strcs	r0, [sp, #4]

0000060c <l261>:
     60c:	e3a0e01c 	mov	lr, #28

00000610 <l262>:
     610:	e72d400e 	str	r4, [sp, -lr]!

00000614 <l263>:
     614:	d50d4008 	strle	r4, [sp, #-8]

00000618 <l264>:
     618:	e3a05028 	mov	r5, #40	; 0x28

0000061c <l265>:
     61c:	e7ad3005 	str	r3, [sp, r5]!

00000620 <l266>:
     620:	e41d4006 	ldr	r4, [sp], #-6

00000624 <l267>:
     624:	e3a0200f 	mov	r2, #15

00000628 <l268>:
     628:	e73d8002 	ldr	r8, [sp, -r2]!

0000062c <l269>:
     62c:	e48db011 	str	fp, [sp], #17

00000630 <l270>:
     630:	e3a0100e 	mov	r1, #14

00000634 <l271>:
     634:	e61d3001 	ldr	r3, [sp], -r1

00000638 <l272>:
     638:	e49db010 	ldr	fp, [sp], #16

0000063c <l273>:
     63c:	e3a0e010 	mov	lr, #16

00000640 <l274>:
     640:	371d400e 	ldrcc	r4, [sp, -lr]

00000644 <l275>:
     644:	e3a09007 	mov	r9, #7

00000648 <l276>:
     648:	e73dc009 	ldr	ip, [sp, -r9]!

0000064c <l277>:
     64c:	651d502d 	ldrvs	r5, [sp, #-45]	; 0x2d

00000650 <l278>:
     650:	e51d6003 	ldr	r6, [sp, #-3]

00000654 <l279>:
     654:	e3a0200d 	mov	r2, #13

00000658 <l280>:
     658:	e7ade002 	str	lr, [sp, r2]!

0000065c <l281>:
     65c:	e41dc012 	ldr	ip, [sp], #-18

00000660 <l282>:
     660:	e52d6006 	str	r6, [sp, #-6]!

00000664 <l283>:
     664:	b50d6004 	strlt	r6, [sp, #-4]

00000668 <l284>:
     668:	e5bd800d 	ldr	r8, [sp, #13]!

0000066c <l285>:
     66c:	e5ad3017 	str	r3, [sp, #23]!

00000670 <l286>:
     670:	e53d9043 	ldr	r9, [sp, #-67]!	; 0x43

00000674 <l287>:
     674:	e3a0c013 	mov	ip, #19

00000678 <l288>:
     678:	e7ade00c 	str	lr, [sp, ip]!

0000067c <l289>:
     67c:	e3a05032 	mov	r5, #50	; 0x32

00000680 <l290>:
     680:	e7bda005 	ldr	sl, [sp, r5]!

00000684 <l291>:
     684:	e41d2032 	ldr	r2, [sp], #-50	; 0x32

00000688 <l292>:
     688:	e3a01008 	mov	r1, #8

0000068c <l293>:
     68c:	e78d4001 	str	r4, [sp, r1]

00000690 <l294>:
     690:	e3a03009 	mov	r3, #9

00000694 <l295>:
     694:	e79d3003 	ldr	r3, [sp, r3]

00000698 <l296>:
     698:	458d7030 	strmi	r7, [sp, #48]	; 0x30

0000069c <l297>:
     69c:	e3a0300c 	mov	r3, #12

000006a0 <l298>:
     6a0:	e7ade003 	str	lr, [sp, r3]!

000006a4 <l299>:
     6a4:	e3a09003 	mov	r9, #3

000006a8 <l300>:
     6a8:	e7bd9009 	ldr	r9, [sp, r9]!

000006ac <l301>:
     6ac:	551da00a 	ldrpl	sl, [sp, #-10]

000006b0 <l302>:
     6b0:	e50da007 	str	sl, [sp, #-7]

000006b4 <l303>:
     6b4:	e50dc023 	str	ip, [sp, #-35]	; 0x23

000006b8 <l304>:
     6b8:	958da00d 	strls	sl, [sp, #13]

000006bc <l305>:
     6bc:	e3a0401f 	mov	r4, #31

000006c0 <l306>:
     6c0:	e60db004 	str	fp, [sp], -r4

000006c4 <l307>:
     6c4:	e3a0b004 	mov	fp, #4

000006c8 <l308>:
     6c8:	e79dc00b 	ldr	ip, [sp, fp]

000006cc <l309>:
     6cc:	e5bd003f 	ldr	r0, [sp, #63]!	; 0x3f

000006d0 <l310>:
     6d0:	e52da01f 	str	sl, [sp, #-31]!

000006d4 <l311>:
     6d4:	e3a01005 	mov	r1, #5

000006d8 <l312>:
     6d8:	e61dc001 	ldr	ip, [sp], -r1

000006dc <l313>:
     6dc:	e51da013 	ldr	sl, [sp, #-19]

000006e0 <l314>:
     6e0:	e5bda01b 	ldr	sl, [sp, #27]!

000006e4 <l315>:
     6e4:	e40db022 	str	fp, [sp], #-34	; 0x22

000006e8 <l316>:
     6e8:	e3a00017 	mov	r0, #23

000006ec <l317>:
     6ec:	e73db000 	ldr	fp, [sp, -r0]!

000006f0 <l318>:
     6f0:	b58d500f 	strlt	r5, [sp, #15]

000006f4 <l319>:
     6f4:	359da007 	ldrcc	sl, [sp, #7]

000006f8 <l320>:
     6f8:	e5ad0007 	str	r0, [sp, #7]!

000006fc <l321>:
     6fc:	e3a0c020 	mov	ip, #32

00000700 <l322>:
     700:	e7bd800c 	ldr	r8, [sp, ip]!

00000704 <l323>:
     704:	958d1010 	strls	r1, [sp, #16]

00000708 <l324>:
     708:	e58de014 	str	lr, [sp, #20]

0000070c <l325>:
     70c:	e3a0e020 	mov	lr, #32

00000710 <l326>:
     710:	e72d700e 	str	r7, [sp, -lr]!

00000714 <l327>:
     714:	e3a0c030 	mov	ip, #48	; 0x30

00000718 <l328>:
     718:	e7bd700c 	ldr	r7, [sp, ip]!

0000071c <l329>:
     71c:	e3a0a008 	mov	sl, #8

00000720 <l330>:
     720:	e7ad400a 	str	r4, [sp, sl]!

00000724 <l331>:
     724:	e50d6044 	str	r6, [sp, #-68]	; 0x44

00000728 <l332>:
     728:	e53d002d 	ldr	r0, [sp, #-45]!	; 0x2d

0000072c <l333>:
     72c:	e49d4012 	ldr	r4, [sp], #18

00000730 <l334>:
     730:	e3a04013 	mov	r4, #19

00000734 <l335>:
     734:	e78d2004 	str	r2, [sp, r4]

00000738 <l336>:
     738:	e3a0c013 	mov	ip, #19

0000073c <l337>:
     73c:	e7bd600c 	ldr	r6, [sp, ip]!

00000740 <l338>:
     740:	e53d5023 	ldr	r5, [sp, #-35]!	; 0x23

00000744 <l339>:
     744:	e3a0b02f 	mov	fp, #47	; 0x2f

00000748 <l340>:
     748:	e7ada00b 	str	sl, [sp, fp]!

0000074c <l341>:
     74c:	350df01c 	strcc	pc, [sp, #-28]

00000750 <l342>:
     750:	e3a0e037 	mov	lr, #55	; 0x37

00000754 <l343>:
     754:	e71d800e 	ldr	r8, [sp, -lr]

00000758 <l344>:
     758:	e40db020 	str	fp, [sp], #-32

0000075c <l345>:
     75c:	e52dc028 	str	ip, [sp, #-40]!	; 0x28

00000760 <l346>:
     760:	e58dc038 	str	ip, [sp, #56]	; 0x38

00000764 <l347>:
     764:	e48d4048 	str	r4, [sp], #72	; 0x48

00000768 <l348>:
     768:	e3a00012 	mov	r0, #18

0000076c <l349>:
     76c:	e73d4000 	ldr	r4, [sp, -r0]!

00000770 <l350>:
     770:	e3a0700b 	mov	r7, #11

00000774 <l351>:
     774:	e69d9007 	ldr	r9, [sp], r7

00000778 <l352>:
     778:	b51d600b 	ldrlt	r6, [sp, #-11]

0000077c <l353>:
     77c:	e52d3015 	str	r3, [sp, #-21]!

00000780 <l354>:
     780:	e40da008 	str	sl, [sp], #-8

00000784 <l355>:
     784:	e3a0101b 	mov	r1, #27

00000788 <l356>:
     788:	e61d0001 	ldr	r0, [sp], -r1

0000078c <l357>:
     78c:	e5ade027 	str	lr, [sp, #39]!	; 0x27

00000790 <l358>:
     790:	e3a0702c 	mov	r7, #44	; 0x2c

00000794 <l359>:
     794:	e72d5007 	str	r5, [sp, -r7]!

00000798 <l360>:
     798:	e3a05046 	mov	r5, #70	; 0x46

0000079c <l361>:
     79c:	e69d5005 	ldr	r5, [sp], r5

000007a0 <l362>:
     7a0:	e3a0500e 	mov	r5, #14

000007a4 <l363>:
     7a4:	e72d3005 	str	r3, [sp, -r5]!

000007a8 <l364>:
     7a8:	e53d7006 	ldr	r7, [sp, #-6]!

000007ac <l365>:
     7ac:	e3a0c022 	mov	ip, #34	; 0x22

000007b0 <l366>:
     7b0:	e72d900c 	str	r9, [sp, -ip]!

000007b4 <l367>:
     7b4:	e3a0b001 	mov	fp, #1

000007b8 <l368>:
     7b8:	e61d100b 	ldr	r1, [sp], -fp

000007bc <l369>:
     7bc:	e53d2005 	ldr	r2, [sp, #-5]!

000007c0 <l370>:
     7c0:	e3a05036 	mov	r5, #54	; 0x36

000007c4 <l371>:
     7c4:	e7ad1005 	str	r1, [sp, r5]!

000007c8 <l372>:
     7c8:	e51d5005 	ldr	r5, [sp, #-5]

000007cc <l373>:
     7cc:	e3a0a020 	mov	sl, #32

000007d0 <l374>:
     7d0:	e72db00a 	str	fp, [sp, -sl]!

000007d4 <l375>:
     7d4:	e3a06022 	mov	r6, #34	; 0x22

000007d8 <l376>:
     7d8:	e61d1006 	ldr	r1, [sp], -r6

000007dc <l377>:
     7dc:	e5bd4039 	ldr	r4, [sp, #57]!	; 0x39

000007e0 <l378>:
     7e0:	e53dc02f 	ldr	ip, [sp, #-47]!	; 0x2f

000007e4 <l379>:
     7e4:	e5ad4028 	str	r4, [sp, #40]!	; 0x28

000007e8 <l380>:
     7e8:	e3a03004 	mov	r3, #4

000007ec <l381>:
     7ec:	e71dc003 	ldr	ip, [sp, -r3]

000007f0 <l382>:
     7f0:	650d402c 	strvs	r4, [sp, #-44]	; 0x2c

000007f4 <l383>:
     7f4:	e51da003 	ldr	sl, [sp, #-3]

000007f8 <l384>:
     7f8:	e41d900e 	ldr	r9, [sp], #-14

000007fc <l385>:
     7fc:	a58d7016 	strge	r7, [sp, #22]

00000800 <l386>:
     800:	e48d2006 	str	r2, [sp], #6

00000804 <l387>:
     804:	e3a0001c 	mov	r0, #28

00000808 <l388>:
     808:	e7ad6000 	str	r6, [sp, r0]!

0000080c <l389>:
     80c:	e52d0030 	str	r0, [sp, #-48]!	; 0x30

00000810 <l390>:
     810:	e3a01014 	mov	r1, #20

00000814 <l391>:
     814:	e7bd9001 	ldr	r9, [sp, r1]!

00000818 <l392>:
     818:	e41d8018 	ldr	r8, [sp], #-24

0000081c <l393>:
     81c:	e3a0301c 	mov	r3, #28

00000820 <l394>:
     820:	679dc003 	ldrvs	ip, [sp, r3]

00000824 <l395>:
     824:	e48d300c 	str	r3, [sp], #12

00000828 <l396>:
     828:	e3a0a020 	mov	sl, #32

0000082c <l397>:
     82c:	e68d500a 	str	r5, [sp], sl

00000830 <l398>:
     830:	e50da008 	str	sl, [sp, #-8]

00000834 <l399>:
     834:	e52d7034 	str	r7, [sp, #-52]!	; 0x34

00000838 <l400>:
     838:	e40d2004 	str	r2, [sp], #-4

0000083c <l401>:
     83c:	e59de043 	ldr	lr, [sp, #67]	; 0x43

00000840 <l402>:
     840:	e48db03c 	str	fp, [sp], #60	; 0x3c

00000844 <l403>:
     844:	251d602a 	ldrcs	r6, [sp, #-42]	; 0x2a

00000848 <l404>:
     848:	e53d7043 	ldr	r7, [sp, #-67]!	; 0x43

0000084c <l405>:
     84c:	e3a0000f 	mov	r0, #15

00000850 <l406>:
     850:	e78d5000 	str	r5, [sp, r0]

00000854 <l407>:
     854:	e3a08015 	mov	r8, #21

00000858 <l408>:
     858:	e7bda008 	ldr	sl, [sp, r8]!

0000085c <l409>:
     85c:	e3a0800b 	mov	r8, #11

00000860 <l410>:
     860:	079d0008 	ldreq	r0, [sp, r8]

00000864 <l411>:
     864:	e3a0e007 	mov	lr, #7

00000868 <l412>:
     868:	e7bda00e 	ldr	sl, [sp, lr]!

0000086c <l413>:
     86c:	e3a0002e 	mov	r0, #46	; 0x2e

00000870 <l414>:
     870:	e69d4000 	ldr	r4, [sp], r0

00000874 <l415>:
     874:	e51d6033 	ldr	r6, [sp, #-51]	; 0x33

00000878 <l416>:
     878:	e53da015 	ldr	sl, [sp, #-21]!

0000087c <l417>:
     87c:	e41d6027 	ldr	r6, [sp], #-39	; 0x27

00000880 <l418>:
     880:	e49d8036 	ldr	r8, [sp], #54	; 0x36

00000884 <l419>:
     884:	e41de020 	ldr	lr, [sp], #-32

00000888 <l420>:
     888:	e3a02005 	mov	r2, #5

0000088c <l421>:
     88c:	e70db002 	str	fp, [sp, -r2]

00000890 <l422>:
     890:	e3a0501d 	mov	r5, #29

00000894 <l423>:
     894:	e72da005 	str	sl, [sp, -r5]!

00000898 <l424>:
     898:	e5bd2033 	ldr	r2, [sp, #51]!	; 0x33

0000089c <l425>:
     89c:	e51d700a 	ldr	r7, [sp, #-10]

000008a0 <l426>:
     8a0:	e41d4011 	ldr	r4, [sp], #-17

000008a4 <l427>:
     8a4:	e5ad801a 	str	r8, [sp, #26]!

000008a8 <l428>:
     8a8:	e3a04028 	mov	r4, #40	; 0x28

000008ac <l429>:
     8ac:	e72de004 	str	lr, [sp, -r4]!

000008b0 <l430>:
     8b0:	e3a0e02c 	mov	lr, #44	; 0x2c

000008b4 <l431>:
     8b4:	e78d600e 	str	r6, [sp, lr]

000008b8 <l432>:
     8b8:	d50dc014 	strle	ip, [sp, #-20]

000008bc <l433>:
     8bc:	e49d802d 	ldr	r8, [sp], #45	; 0x2d

000008c0 <l434>:
     8c0:	e3a00031 	mov	r0, #49	; 0x31

000008c4 <l435>:
     8c4:	e60de000 	str	lr, [sp], -r0

000008c8 <l436>:
     8c8:	e3a04014 	mov	r4, #20

000008cc <l437>:
     8cc:	e72d5004 	str	r5, [sp, -r4]!

000008d0 <l438>:
     8d0:	e49d5021 	ldr	r5, [sp], #33	; 0x21

000008d4 <l439>:
     8d4:	151d3011 	ldrne	r3, [sp, #-17]

000008d8 <l440>:
     8d8:	e3a01001 	mov	r1, #1

000008dc <l441>:
     8dc:	e72df001 	str	pc, [sp, -r1]!

000008e0 <l442>:
     8e0:	e3a07018 	mov	r7, #24

000008e4 <l443>:
     8e4:	d78d5007 	strle	r5, [sp, r7]

000008e8 <l444>:
     8e8:	e5ad401c 	str	r4, [sp, #28]!

000008ec <l445>:
     8ec:	e3a05024 	mov	r5, #36	; 0x24

000008f0 <l446>:
     8f0:	e60d8005 	str	r8, [sp], -r5

000008f4 <l447>:
     8f4:	e59de02c 	ldr	lr, [sp, #44]	; 0x2c

000008f8 <l448>:
     8f8:	e59db014 	ldr	fp, [sp, #20]

000008fc <l449>:
     8fc:	e3a0b012 	mov	fp, #18

00000900 <l450>:
     900:	e69da00b 	ldr	sl, [sp], fp

00000904 <l451>:
     904:	e3a0200a 	mov	r2, #10

00000908 <l452>:
     908:	e73d7002 	ldr	r7, [sp, -r2]!

0000090c <l453>:
     90c:	e3a01022 	mov	r1, #34	; 0x22

00000910 <l454>:
     910:	e7bd9001 	ldr	r9, [sp, r1]!

00000914 <l455>:
     914:	e53d100f 	ldr	r1, [sp, #-15]!

00000918 <l456>:
     918:	851d4025 	ldrhi	r4, [sp, #-37]	; 0x25

0000091c <l457>:
     91c:	e3a0c01f 	mov	ip, #31

00000920 <l458>:
     920:	e61d500c 	ldr	r5, [sp], -ip

00000924 <l459>:
     924:	e3a0b008 	mov	fp, #8

00000928 <l460>:
     928:	378df00b 	strcc	pc, [sp, fp]

0000092c <l461>:
     92c:	e53db00f 	ldr	fp, [sp, #-15]!

00000930 <l462>:
     930:	e3a05005 	mov	r5, #5

00000934 <l463>:
     934:	e72d9005 	str	r9, [sp, -r5]!

00000938 <l464>:
     938:	e49db038 	ldr	fp, [sp], #56	; 0x38

0000093c <l465>:
     93c:	e41d700e 	ldr	r7, [sp], #-14

00000940 <l466>:
     940:	e3a0a006 	mov	sl, #6

00000944 <l467>:
     944:	471de00a 	ldrmi	lr, [sp, -sl]

00000948 <l468>:
     948:	e59da006 	ldr	sl, [sp, #6]

0000094c <l469>:
     94c:	e3a0600a 	mov	r6, #10

00000950 <l470>:
     950:	078d0006 	streq	r0, [sp, r6]

00000954 <l471>:
     954:	551d4025 	ldrpl	r4, [sp, #-37]	; 0x25

00000958 <l472>:
     958:	e3a02002 	mov	r2, #2

0000095c <l473>:
     95c:	e60d1002 	str	r1, [sp], -r2

00000960 <l474>:
     960:	e52de01c 	str	lr, [sp, #-28]!

00000964 <l475>:
     964:	e5ad1010 	str	r1, [sp, #16]!

00000968 <l476>:
     968:	e3a05010 	mov	r5, #16

0000096c <l477>:
     96c:	e7ad8005 	str	r8, [sp, r5]!

00000970 <l478>:
     970:	359d200c 	ldrcc	r2, [sp, #12]

00000974 <l479>:
     974:	e3a0702c 	mov	r7, #44	; 0x2c

00000978 <l480>:
     978:	e61db007 	ldr	fp, [sp], -r7

0000097c <l481>:
     97c:	e3a05020 	mov	r5, #32

00000980 <l482>:
     980:	e7adc005 	str	ip, [sp, r5]!

00000984 <l483>:
     984:	e59d300c 	ldr	r3, [sp, #12]

00000988 <l484>:
     988:	e3a0501d 	mov	r5, #29

0000098c <l485>:
     98c:	e61d3005 	ldr	r3, [sp], -r5

00000990 <l486>:
     990:	e5bde03c 	ldr	lr, [sp, #60]!	; 0x3c

00000994 <l487>:
     994:	e40d603f 	str	r6, [sp], #-63	; 0x3f

00000998 <l488>:
     998:	e3a0202f 	mov	r2, #47	; 0x2f

0000099c <l489>:
     99c:	e7bd7002 	ldr	r7, [sp, r2]!

000009a0 <l490>:
     9a0:	e3a0202f 	mov	r2, #47	; 0x2f

000009a4 <l491>:
     9a4:	e70d2002 	str	r2, [sp, -r2]

000009a8 <l492>:
     9a8:	e5bd5010 	ldr	r5, [sp, #16]!

000009ac <l493>:
     9ac:	e3a05013 	mov	r5, #19

000009b0 <l494>:
     9b0:	e61da005 	ldr	sl, [sp], -r5

000009b4 <l495>:
     9b4:	e3a05014 	mov	r5, #20

000009b8 <l496>:
     9b8:	e7ad4005 	str	r4, [sp, r5]!

000009bc <l497>:
     9bc:	851d5030 	ldrhi	r5, [sp, #-48]	; 0x30

000009c0 <l498>:
     9c0:	e3a05039 	mov	r5, #57	; 0x39

000009c4 <l499>:
     9c4:	e73db005 	ldr	fp, [sp, -r5]!

000009c8 <l500>:
     9c8:	e3a07011 	mov	r7, #17

000009cc <l501>:
     9cc:	e68da007 	str	sl, [sp], r7

000009d0 <l502>:
     9d0:	e3a0300c 	mov	r3, #12

000009d4 <l503>:
     9d4:	e7bd8003 	ldr	r8, [sp, r3]!

000009d8 <l504>:
     9d8:	e3a0b010 	mov	fp, #16

000009dc <l505>:
     9dc:	e72d000b 	str	r0, [sp, -fp]!

000009e0 <l506>:
     9e0:	e3a05017 	mov	r5, #23

000009e4 <l507>:
     9e4:	e61d0005 	ldr	r0, [sp], -r5

000009e8 <l508>:
     9e8:	e3a0200b 	mov	r2, #11

000009ec <l509>:
     9ec:	e7ad3002 	str	r3, [sp, r2]!

000009f0 <l510>:
     9f0:	e3a0b01f 	mov	fp, #31

000009f4 <l511>:
     9f4:	e69db00b 	ldr	fp, [sp], fp

000009f8 <l512>:
     9f8:	e3a0c01f 	mov	ip, #31

000009fc <l513>:
     9fc:	e72d800c 	str	r8, [sp, -ip]!

00000a00 <l514>:
     a00:	858db000 	strhi	fp, [sp]

00000a04 <l515>:
     a04:	e3a06008 	mov	r6, #8

00000a08 <l516>:
     a08:	e68dc006 	str	ip, [sp], r6

00000a0c <l517>:
     a0c:	e5adb02c 	str	fp, [sp, #44]!	; 0x2c

00000a10 <l518>:
     a10:	e53d3032 	ldr	r3, [sp, #-50]!	; 0x32

00000a14 <l519>:
     a14:	e3a0c000 	mov	ip, #0

00000a18 <l520>:
     a18:	e61d500c 	ldr	r5, [sp], -ip

00000a1c <l521>:
     a1c:	e3a0401b 	mov	r4, #27

00000a20 <l522>:
     a20:	e69dc004 	ldr	ip, [sp], r4

00000a24 <l523>:
     a24:	e5ad400b 	str	r4, [sp, #11]!

00000a28 <l524>:
     a28:	e5bd3003 	ldr	r3, [sp, #3]!

00000a2c <l525>:
     a2c:	e3a05005 	mov	r5, #5

00000a30 <l526>:
     a30:	e61dc005 	ldr	ip, [sp], -r5

00000a34 <l527>:
     a34:	e3a09002 	mov	r9, #2

00000a38 <l528>:
     a38:	e68d6009 	str	r6, [sp], r9

00000a3c <l529>:
     a3c:	e3a0b034 	mov	fp, #52	; 0x34

00000a40 <l530>:
     a40:	e60dc00b 	str	ip, [sp], -fp

00000a44 <l531>:
     a44:	e5bd6020 	ldr	r6, [sp, #32]!

00000a48 <l532>:
     a48:	e3a0400e 	mov	r4, #14

00000a4c <l533>:
     a4c:	e73d5004 	ldr	r5, [sp, -r4]!

00000a50 <l534>:
     a50:	e5bd702c 	ldr	r7, [sp, #44]!	; 0x2c

00000a54 <l535>:
     a54:	e3a00005 	mov	r0, #5

00000a58 <l536>:
     a58:	e71d3000 	ldr	r3, [sp, -r0]

00000a5c <l537>:
     a5c:	e3a00004 	mov	r0, #4

00000a60 <l538>:
     a60:	e69d7000 	ldr	r7, [sp], r0

00000a64 <l539>:
     a64:	e3a0e003 	mov	lr, #3

00000a68 <l540>:
     a68:	379da00e 	ldrcc	sl, [sp, lr]

00000a6c <l541>:
     a6c:	e3a0202e 	mov	r2, #46	; 0x2e

00000a70 <l542>:
     a70:	e72da002 	str	sl, [sp, -r2]!

00000a74 <l543>:
     a74:	e3a04018 	mov	r4, #24

00000a78 <l544>:
     a78:	e68d5004 	str	r5, [sp], r4

00000a7c <l545>:
     a7c:	e52dc014 	str	ip, [sp, #-20]!

00000a80 <l546>:
     a80:	e3a0c00c 	mov	ip, #12

00000a84 <l547>:
     a84:	e7bd700c 	ldr	r7, [sp, ip]!

00000a88 <l548>:
     a88:	e50d200c 	str	r2, [sp, #-12]

00000a8c <l549>:
     a8c:	e3a08020 	mov	r8, #32

00000a90 <l550>:
     a90:	e70d9008 	str	r9, [sp, -r8]

00000a94 <l551>:
     a94:	e3a09022 	mov	r9, #34	; 0x22

00000a98 <l552>:
     a98:	e73de009 	ldr	lr, [sp, -r9]!

00000a9c <l553>:
     a9c:	e3a07022 	mov	r7, #34	; 0x22

00000aa0 <l554>:
     aa0:	e7bd1007 	ldr	r1, [sp, r7]!

00000aa4 <l555>:
     aa4:	e3a04007 	mov	r4, #7

00000aa8 <l556>:
     aa8:	e79da004 	ldr	sl, [sp, r4]

00000aac <l557>:
     aac:	e3a0a014 	mov	sl, #20

00000ab0 <l558>:
     ab0:	e7ad200a 	str	r2, [sp, sl]!

00000ab4 <l559>:
     ab4:	e3a02024 	mov	r2, #36	; 0x24

00000ab8 <l560>:
     ab8:	e72d0002 	str	r0, [sp, -r2]!

00000abc <l561>:
     abc:	e3a04024 	mov	r4, #36	; 0x24

00000ac0 <l562>:
     ac0:	578d1004 	strpl	r1, [sp, r4]

00000ac4 <l563>:
     ac4:	e48df028 	str	pc, [sp], #40	; 0x28

00000ac8 <l564>:
     ac8:	e5bdb00a 	ldr	fp, [sp, #10]!

00000acc <l565>:
     acc:	e40d6036 	str	r6, [sp], #-54	; 0x36

00000ad0 <l566>:
     ad0:	e52df008 	str	pc, [sp, #-8]!

00000ad4 <l567>:
     ad4:	e3a0501d 	mov	r5, #29

00000ad8 <l568>:
     ad8:	e7bd2005 	ldr	r2, [sp, r5]!

00000adc <l569>:
     adc:	e48da023 	str	sl, [sp], #35	; 0x23

00000ae0 <l570>:
     ae0:	e41d8048 	ldr	r8, [sp], #-72	; 0x48

00000ae4 <l571>:
     ae4:	e3a02028 	mov	r2, #40	; 0x28

00000ae8 <l572>:
     ae8:	e68d1002 	str	r1, [sp], r2

00000aec <l573>:
     aec:	e3a0701c 	mov	r7, #28

00000af0 <l574>:
     af0:	778d8007 	strvc	r8, [sp, r7]

00000af4 <l575>:
     af4:	e53d7025 	ldr	r7, [sp, #-37]!	; 0x25

00000af8 <l576>:
     af8:	a59d500d 	ldrge	r5, [sp, #13]

00000afc <l577>:
     afc:	858de035 	strhi	lr, [sp, #53]	; 0x35

00000b00 <l578>:
     b00:	e3a0e00d 	mov	lr, #13

00000b04 <l579>:
     b04:	578d600e 	strpl	r6, [sp, lr]

00000b08 <l580>:
     b08:	e3a08003 	mov	r8, #3

00000b0c <l581>:
     b0c:	e60d2008 	str	r2, [sp], -r8

00000b10 <l582>:
     b10:	e48da030 	str	sl, [sp], #48	; 0x30

00000b14 <l583>:
     b14:	e3a05018 	mov	r5, #24

00000b18 <l584>:
     b18:	e69d9005 	ldr	r9, [sp], r5

00000b1c <l585>:
     b1c:	e3a06030 	mov	r6, #48	; 0x30

00000b20 <l586>:
     b20:	e70d1006 	str	r1, [sp, -r6]

00000b24 <l587>:
     b24:	e3a0b008 	mov	fp, #8

00000b28 <l588>:
     b28:	e61d100b 	ldr	r1, [sp], -fp

00000b2c <l589>:
     b2c:	e53d201a 	ldr	r2, [sp, #-26]!

00000b30 <l590>:
     b30:	e3a0a002 	mov	sl, #2

00000b34 <l591>:
     b34:	e60dc00a 	str	ip, [sp], -sl

00000b38 <l592>:
     b38:	e3a01018 	mov	r1, #24

00000b3c <l593>:
     b3c:	178d8001 	strne	r8, [sp, r1]

00000b40 <l594>:
     b40:	e48d0024 	str	r0, [sp], #36	; 0x24

00000b44 <l595>:
     b44:	e41da046 	ldr	sl, [sp], #-70	; 0x46

00000b48 <l596>:
     b48:	e58da036 	str	sl, [sp, #54]	; 0x36

00000b4c <l597>:
     b4c:	e3a0e00a 	mov	lr, #10

00000b50 <l598>:
     b50:	878d800e 	strhi	r8, [sp, lr]

00000b54 <l599>:
     b54:	e3a05046 	mov	r5, #70	; 0x46

00000b58 <l600>:
     b58:	e7adf005 	str	pc, [sp, r5]!

00000b5c <l601>:
     b5c:	e3a0a040 	mov	sl, #64	; 0x40

00000b60 <l602>:
     b60:	971dc00a 	ldrls	ip, [sp, -sl]

00000b64 <l603>:
     b64:	e52d9030 	str	r9, [sp, #-48]!	; 0x30

00000b68 <l604>:
     b68:	e3a0a000 	mov	sl, #0

00000b6c <l605>:
     b6c:	e7bd700a 	ldr	r7, [sp, sl]!

00000b70 <l606>:
     b70:	e3a02004 	mov	r2, #4

00000b74 <l607>:
     b74:	978d5002 	strls	r5, [sp, r2]

00000b78 <l608>:
     b78:	550d6010 	strpl	r6, [sp, #-16]

00000b7c <l609>:
     b7c:	959d2032 	ldrls	r2, [sp, #50]	; 0x32

00000b80 <l610>:
     b80:	e49dc020 	ldr	ip, [sp], #32

00000b84 <l611>:
     b84:	e3a00003 	mov	r0, #3

00000b88 <l612>:
     b88:	e61dc000 	ldr	ip, [sp], -r0

00000b8c <l613>:
     b8c:	e3a09011 	mov	r9, #17

00000b90 <l614>:
     b90:	e72dc009 	str	ip, [sp, -r9]!

00000b94 <l615>:
     b94:	e3a0a00c 	mov	sl, #12

00000b98 <l616>:
     b98:	378d400a 	strcc	r4, [sp, sl]

00000b9c <l617>:
     b9c:	e48d701c 	str	r7, [sp], #28

00000ba0 <l618>:
     ba0:	e3a0c02c 	mov	ip, #44	; 0x2c

00000ba4 <l619>:
     ba4:	e60db00c 	str	fp, [sp], -ip

00000ba8 <l620>:
     ba8:	e49d4013 	ldr	r4, [sp], #19

00000bac <l621>:
     bac:	a50d6013 	strge	r6, [sp, #-19]

00000bb0 <l622>:
     bb0:	e3a0500a 	mov	r5, #10

00000bb4 <l623>:
     bb4:	e69dc005 	ldr	ip, [sp], r5

00000bb8 <l624>:
     bb8:	e3a05007 	mov	r5, #7

00000bbc <l625>:
     bbc:	e7bd5005 	ldr	r5, [sp, r5]!

00000bc0 <l626>:
     bc0:	e40db01c 	str	fp, [sp], #-28

00000bc4 <l627>:
     bc4:	e3a0201c 	mov	r2, #28

00000bc8 <l628>:
     bc8:	271d3002 	ldrcs	r3, [sp, -r2]

00000bcc <l629>:
     bcc:	e3a01006 	mov	r1, #6

00000bd0 <l630>:
     bd0:	071d5001 	ldreq	r5, [sp, -r1]

00000bd4 <l631>:
     bd4:	e5bda01b 	ldr	sl, [sp, #27]!

00000bd8 <l632>:
     bd8:	e40d9037 	str	r9, [sp], #-55	; 0x37

00000bdc <l633>:
     bdc:	e5ad5010 	str	r5, [sp, #16]!

00000be0 <l634>:
     be0:	e59d5000 	ldr	r5, [sp]

00000be4 <l635>:
     be4:	e59d5005 	ldr	r5, [sp, #5]

00000be8 <l636>:
     be8:	e3a08028 	mov	r8, #40	; 0x28

00000bec <l637>:
     bec:	178d8008 	strne	r8, [sp, r8]

00000bf0 <l638>:
     bf0:	e40d1004 	str	r1, [sp], #-4

00000bf4 <l639>:
     bf4:	e49d2015 	ldr	r2, [sp], #21

00000bf8 <l640>:
     bf8:	e3a0401d 	mov	r4, #29

00000bfc <l641>:
     bfc:	e71d9004 	ldr	r9, [sp, -r4]

00000c00 <l642>:
     c00:	e52d9019 	str	r9, [sp, #-25]!

00000c04 <l643>:
     c04:	659d0035 	ldrvs	r0, [sp, #53]	; 0x35

00000c08 <l644>:
     c08:	e5ad501c 	str	r5, [sp, #28]!

00000c0c <l645>:
     c0c:	e3a06016 	mov	r6, #22

00000c10 <l646>:
     c10:	379d9006 	ldrcc	r9, [sp, r6]

00000c14 <l647>:
     c14:	e50d2010 	str	r2, [sp, #-16]

00000c18 <l648>:
     c18:	958df004 	strls	pc, [sp, #4]

00000c1c <l649>:
     c1c:	e3a04000 	mov	r4, #0

00000c20 <l650>:
     c20:	c79d9004 	ldrgt	r9, [sp, r4]

00000c24 <l651>:
     c24:	e3a0101c 	mov	r1, #28

00000c28 <l652>:
     c28:	e72d3001 	str	r3, [sp, -r1]!

00000c2c <l653>:
     c2c:	e3a0000c 	mov	r0, #12

00000c30 <l654>:
     c30:	e7ad6000 	str	r6, [sp, r0]!

00000c34 <l655>:
     c34:	e3a0b028 	mov	fp, #40	; 0x28

00000c38 <l656>:
     c38:	c78de00b 	strgt	lr, [sp, fp]

00000c3c <l657>:
     c3c:	e5adf014 	str	pc, [sp, #20]!

00000c40 <l658>:
     c40:	e53d201a 	ldr	r2, [sp, #-26]!

00000c44 <l659>:
     c44:	e3a0e036 	mov	lr, #54	; 0x36

00000c48 <l660>:
     c48:	e7bd400e 	ldr	r4, [sp, lr]!

00000c4c <l661>:
     c4c:	e3a06002 	mov	r6, #2

00000c50 <l662>:
     c50:	e7bd1006 	ldr	r1, [sp, r6]!

00000c54 <l663>:
     c54:	650d401e 	strvs	r4, [sp, #-30]

00000c58 <l664>:
     c58:	e3a05026 	mov	r5, #38	; 0x26

00000c5c <l665>:
     c5c:	e60dc005 	str	ip, [sp], -r5

00000c60 <l666>:
     c60:	e48d5010 	str	r5, [sp], #16

00000c64 <l667>:
     c64:	e3a06000 	mov	r6, #0

00000c68 <l668>:
     c68:	e7bd8006 	ldr	r8, [sp, r6]!

00000c6c <l669>:
     c6c:	e3a0e01c 	mov	lr, #28

00000c70 <l670>:
     c70:	e72de00e 	str	lr, [sp, -lr]!

00000c74 <l671>:
     c74:	e3a0a00c 	mov	sl, #12

00000c78 <l672>:
     c78:	e70d100a 	str	r1, [sp, -sl]

00000c7c <l673>:
     c7c:	e3a00004 	mov	r0, #4

00000c80 <l674>:
     c80:	e68da000 	str	sl, [sp], r0

00000c84 <l675>:
     c84:	250d5008 	strcs	r5, [sp, #-8]

00000c88 <l676>:
     c88:	e51de00a 	ldr	lr, [sp, #-10]

00000c8c <l677>:
     c8c:	e3a0602f 	mov	r6, #47	; 0x2f

00000c90 <l678>:
     c90:	e7bd6006 	ldr	r6, [sp, r6]!

00000c94 <l679>:
     c94:	e41d700a 	ldr	r7, [sp], #-10

00000c98 <l680>:
     c98:	e3a01035 	mov	r1, #53	; 0x35

00000c9c <l681>:
     c9c:	e72df001 	str	pc, [sp, -r1]!

00000ca0 <l682>:
     ca0:	e5bd603d 	ldr	r6, [sp, #61]!	; 0x3d

00000ca4 <l683>:
     ca4:	e51d0040 	ldr	r0, [sp, #-64]	; 0x40

00000ca8 <l684>:
     ca8:	e3a0801d 	mov	r8, #29

00000cac <l685>:
     cac:	e72d6008 	str	r6, [sp, -r8]!

00000cb0 <l686>:
     cb0:	551da007 	ldrpl	sl, [sp, #-7]

00000cb4 <l687>:
     cb4:	e3a09014 	mov	r9, #20

00000cb8 <l688>:
     cb8:	e72d2009 	str	r2, [sp, -r9]!

00000cbc <l689>:
     cbc:	e3a0a020 	mov	sl, #32

00000cc0 <l690>:
     cc0:	e7ad100a 	str	r1, [sp, sl]!

00000cc4 <l691>:
     cc4:	e40d0024 	str	r0, [sp], #-36	; 0x24

00000cc8 <l692>:
     cc8:	e3a05028 	mov	r5, #40	; 0x28

00000ccc <l693>:
     ccc:	e69dc005 	ldr	ip, [sp], r5

00000cd0 <l694>:
     cd0:	e5ad7004 	str	r7, [sp, #4]!

00000cd4 <l695>:
     cd4:	e3a0c00c 	mov	ip, #12

00000cd8 <l696>:
     cd8:	e68dc00c 	str	ip, [sp], ip

00000cdc <l697>:
     cdc:	e3a02035 	mov	r2, #53	; 0x35

00000ce0 <l698>:
     ce0:	e61d1002 	ldr	r1, [sp], -r2

00000ce4 <l699>:
     ce4:	e48d1025 	str	r1, [sp], #37	; 0x25

00000ce8 <l700>:
     ce8:	e3a05034 	mov	r5, #52	; 0x34

00000cec <l701>:
     cec:	e70de005 	str	lr, [sp, -r5]

00000cf0 <l702>:
     cf0:	e52db030 	str	fp, [sp, #-48]!	; 0x30

00000cf4 <l703>:
     cf4:	e5bd9039 	ldr	r9, [sp, #57]!	; 0x39

00000cf8 <l704>:
     cf8:	e53d8014 	ldr	r8, [sp, #-20]!

00000cfc <l705>:
     cfc:	e3a0400d 	mov	r4, #13

00000d00 <l706>:
     d00:	e69dc004 	ldr	ip, [sp], r4

00000d04 <l707>:
     d04:	e3a0302a 	mov	r3, #42	; 0x2a

00000d08 <l708>:
     d08:	771d0003 	ldrvc	r0, [sp, -r3]

00000d0c <l709>:
     d0c:	e3a0b018 	mov	fp, #24

00000d10 <l710>:
     d10:	e61d800b 	ldr	r8, [sp], -fp

00000d14 <l711>:
     d14:	e3a02002 	mov	r2, #2

00000d18 <l712>:
     d18:	e60d9002 	str	r9, [sp], -r2

00000d1c <l713>:
     d1c:	e3a0b004 	mov	fp, #4

00000d20 <l714>:
     d20:	e69da00b 	ldr	sl, [sp], fp

00000d24 <l715>:
     d24:	e3a0500d 	mov	r5, #13

00000d28 <l716>:
     d28:	c79d9005 	ldrgt	r9, [sp, r5]

00000d2c <l717>:
     d2c:	e3a0501b 	mov	r5, #27

00000d30 <l718>:
     d30:	e73de005 	ldr	lr, [sp, -r5]!

00000d34 <l719>:
     d34:	e3a0201f 	mov	r2, #31

00000d38 <l720>:
     d38:	e68dc002 	str	ip, [sp], r2

00000d3c <l721>:
     d3c:	e52d1014 	str	r1, [sp, #-20]!

00000d40 <l722>:
     d40:	e5bd5009 	ldr	r5, [sp, #9]!

00000d44 <l723>:
     d44:	e3a02027 	mov	r2, #39	; 0x27

00000d48 <l724>:
     d48:	e69db002 	ldr	fp, [sp], r2

00000d4c <l725>:
     d4c:	e3a0702f 	mov	r7, #47	; 0x2f

00000d50 <l726>:
     d50:	671da007 	ldrvs	sl, [sp, -r7]

00000d54 <l727>:
     d54:	e41db042 	ldr	fp, [sp], #-66	; 0x42

00000d58 <l728>:
     d58:	e3a0303e 	mov	r3, #62	; 0x3e

00000d5c <l729>:
     d5c:	d78d2003 	strle	r2, [sp, r3]

00000d60 <l730>:
     d60:	e3a0902e 	mov	r9, #46	; 0x2e

00000d64 <l731>:
     d64:	e7ada009 	str	sl, [sp, r9]!

00000d68 <l732>:
     d68:	e53d4015 	ldr	r4, [sp, #-21]!

00000d6c <l733>:
     d6c:	e3a00019 	mov	r0, #25

00000d70 <l734>:
     d70:	e73da000 	ldr	sl, [sp, -r0]!

00000d74 <l735>:
     d74:	e5adf01e 	str	pc, [sp, #30]!

00000d78 <l736>:
     d78:	e49db01e 	ldr	fp, [sp], #30

00000d7c <l737>:
     d7c:	e3a0701a 	mov	r7, #26

00000d80 <l738>:
     d80:	e60d1007 	str	r1, [sp], -r7

00000d84 <l739>:
     d84:	e41db019 	ldr	fp, [sp], #-25

00000d88 <l740>:
     d88:	e5ad7011 	str	r7, [sp, #17]!

00000d8c <l741>:
     d8c:	e58d9020 	str	r9, [sp, #32]

00000d90 <l742>:
     d90:	e48d6000 	str	r6, [sp], #0

00000d94 <l743>:
     d94:	e3a0101b 	mov	r1, #27

00000d98 <l744>:
     d98:	679d1001 	ldrvs	r1, [sp, r1]

00000d9c <l745>:
     d9c:	e3a0c014 	mov	ip, #20

00000da0 <l746>:
     da0:	e79d000c 	ldr	r0, [sp, ip]

00000da4 <l747>:
     da4:	e49de01d 	ldr	lr, [sp], #29

00000da8 <l748>:
     da8:	e3a0c000 	mov	ip, #0

00000dac <l749>:
     dac:	e61d100c 	ldr	r1, [sp], -ip

00000db0 <l750>:
     db0:	e3a0b015 	mov	fp, #21

00000db4 <l751>:
     db4:	470d800b 	strmi	r8, [sp, -fp]

00000db8 <l752>:
     db8:	e52da001 	str	sl, [sp, #-1]!

00000dbc <l753>:
     dbc:	e3a0800c 	mov	r8, #12

00000dc0 <l754>:
     dc0:	b70de008 	strlt	lr, [sp, -r8]

00000dc4 <l755>:
     dc4:	e50de028 	str	lr, [sp, #-40]	; 0x28

00000dc8 <l756>:
     dc8:	e3a0e020 	mov	lr, #32

00000dcc <l757>:
     dcc:	e71d400e 	ldr	r4, [sp, -lr]

00000dd0 <l758>:
     dd0:	e53de002 	ldr	lr, [sp, #-2]!

00000dd4 <l759>:
     dd4:	e58d4012 	str	r4, [sp, #18]

00000dd8 <l760>:
     dd8:	e3a04006 	mov	r4, #6

00000ddc <l761>:
     ddc:	e68dc004 	str	ip, [sp], r4

00000de0 <l762>:
     de0:	e53db03b 	ldr	fp, [sp, #-59]!	; 0x3b

00000de4 <l763>:
     de4:	e3a01003 	mov	r1, #3

00000de8 <l764>:
     de8:	e7ad4001 	str	r4, [sp, r1]!

00000dec <l765>:
     dec:	e5bdb02f 	ldr	fp, [sp, #47]!	; 0x2f

00000df0 <l766>:
     df0:	e3a0102b 	mov	r1, #43	; 0x2b

00000df4 <l767>:
     df4:	e72d0001 	str	r0, [sp, -r1]!

00000df8 <l768>:
     df8:	e3a02020 	mov	r2, #32

00000dfc <l769>:
     dfc:	e7adb002 	str	fp, [sp, r2]!

00000e00 <l770>:
     e00:	e5ad7000 	str	r7, [sp, #0]!

00000e04 <l771>:
     e04:	e3a0a022 	mov	sl, #34	; 0x22

00000e08 <l772>:
     e08:	e7bde00a 	ldr	lr, [sp, sl]!

00000e0c <l773>:
     e0c:	e3a01036 	mov	r1, #54	; 0x36

00000e10 <l774>:
     e10:	e60dc001 	str	ip, [sp], -r1

00000e14 <l775>:
     e14:	e59d902c 	ldr	r9, [sp, #44]	; 0x2c

00000e18 <l776>:
     e18:	e59d2029 	ldr	r2, [sp, #41]	; 0x29

00000e1c <l777>:
     e1c:	e49d702d 	ldr	r7, [sp], #45	; 0x2d

00000e20 <l778>:
     e20:	c50d5019 	strgt	r5, [sp, #-25]

00000e24 <l779>:
     e24:	e3a0000e 	mov	r0, #14

00000e28 <l780>:
     e28:	e73da000 	ldr	sl, [sp, -r0]!

00000e2c <l781>:
     e2c:	e40d6017 	str	r6, [sp], #-23

00000e30 <l782>:
     e30:	e3a03008 	mov	r3, #8

00000e34 <l783>:
     e34:	e70de003 	str	lr, [sp, -r3]

00000e38 <l784>:
     e38:	e3a0b008 	mov	fp, #8

00000e3c <l785>:
     e3c:	e7ada00b 	str	sl, [sp, fp]!

00000e40 <l786>:
     e40:	e3a03014 	mov	r3, #20

00000e44 <l787>:
     e44:	278d8003 	strcs	r8, [sp, r3]

00000e48 <l788>:
     e48:	e40d9004 	str	r9, [sp], #-4

00000e4c <l789>:
     e4c:	e40d7014 	str	r7, [sp], #-20

00000e50 <l790>:
     e50:	e58db024 	str	fp, [sp, #36]	; 0x24

00000e54 <l791>:
     e54:	e3a09038 	mov	r9, #56	; 0x38

00000e58 <l792>:
     e58:	678de009 	strvs	lr, [sp, r9]

00000e5c <l793>:
     e5c:	e3a05008 	mov	r5, #8

00000e60 <l794>:
     e60:	e7adb005 	str	fp, [sp, r5]!

00000e64 <l795>:
     e64:	e3a06018 	mov	r6, #24

00000e68 <l796>:
     e68:	778de006 	strvc	lr, [sp, r6]

00000e6c <l797>:
     e6c:	e3a00001 	mov	r0, #1

00000e70 <l798>:
     e70:	371de000 	ldrcc	lr, [sp, -r0]

00000e74 <l799>:
     e74:	e3a06004 	mov	r6, #4

00000e78 <l800>:
     e78:	e72d7006 	str	r7, [sp, -r6]!

00000e7c <l801>:
     e7c:	e3a07004 	mov	r7, #4

00000e80 <l802>:
     e80:	e69d1007 	ldr	r1, [sp], r7

00000e84 <l803>:
     e84:	e48d0028 	str	r0, [sp], #40	; 0x28

00000e88 <l804>:
     e88:	e50de03c 	str	lr, [sp, #-60]	; 0x3c

00000e8c <l805>:
     e8c:	e3a08028 	mov	r8, #40	; 0x28

00000e90 <l806>:
     e90:	e72d7008 	str	r7, [sp, -r8]!

00000e94 <l807>:
     e94:	e3a0e016 	mov	lr, #22

00000e98 <l808>:
     e98:	e79d000e 	ldr	r0, [sp, lr]

00000e9c <l809>:
     e9c:	859da02b 	ldrhi	sl, [sp, #43]	; 0x2b

00000ea0 <l810>:
     ea0:	e51d0004 	ldr	r0, [sp, #-4]

00000ea4 <l811>:
     ea4:	e5ade008 	str	lr, [sp, #8]!

00000ea8 <l812>:
     ea8:	e5ad7028 	str	r7, [sp, #40]!	; 0x28

00000eac <l813>:
     eac:	459d8003 	ldrmi	r8, [sp, #3]

00000eb0 <l814>:
     eb0:	e51d500f 	ldr	r5, [sp, #-15]

00000eb4 <l815>:
     eb4:	950d6030 	strls	r6, [sp, #-48]	; 0x30

00000eb8 <l816>:
     eb8:	150d2020 	strne	r2, [sp, #-32]

00000ebc <l817>:
     ebc:	e53d300c 	ldr	r3, [sp, #-12]!

00000ec0 <l818>:
     ec0:	e3a03038 	mov	r3, #56	; 0x38

00000ec4 <l819>:
     ec4:	270d4003 	strcs	r4, [sp, -r3]

00000ec8 <l820>:
     ec8:	e3a0e019 	mov	lr, #25

00000ecc <l821>:
     ecc:	e61dc00e 	ldr	ip, [sp], -lr

00000ed0 <l822>:
     ed0:	e3a0100f 	mov	r1, #15

00000ed4 <l823>:
     ed4:	e72d1001 	str	r1, [sp, -r1]!

00000ed8 <l824>:
     ed8:	e5ad0038 	str	r0, [sp, #56]!	; 0x38

00000edc <l825>:
     edc:	e52da044 	str	sl, [sp, #-68]!	; 0x44

00000ee0 <l826>:
     ee0:	e3a06019 	mov	r6, #25

00000ee4 <l827>:
     ee4:	579d5006 	ldrpl	r5, [sp, r6]

00000ee8 <l828>:
     ee8:	e5bdc027 	ldr	ip, [sp, #39]!	; 0x27

00000eec <l829>:
     eec:	e3a0600f 	mov	r6, #15

00000ef0 <l830>:
     ef0:	e73db006 	ldr	fp, [sp, -r6]!

00000ef4 <l831>:
     ef4:	e5bd701d 	ldr	r7, [sp, #29]!

00000ef8 <l832>:
     ef8:	e53d500a 	ldr	r5, [sp, #-10]!

00000efc <l833>:
     efc:	d50d2013 	strle	r2, [sp, #-19]

00000f00 <l834>:
     f00:	e3a09017 	mov	r9, #23

00000f04 <l835>:
     f04:	e72dc009 	str	ip, [sp, -r9]!

00000f08 <l836>:
     f08:	e3a06030 	mov	r6, #48	; 0x30

00000f0c <l837>:
     f0c:	e78d5006 	str	r5, [sp, r6]

00000f10 <l838>:
     f10:	e3a08024 	mov	r8, #36	; 0x24

00000f14 <l839>:
     f14:	e68dc008 	str	ip, [sp], r8

00000f18 <l840>:
     f18:	e41da031 	ldr	sl, [sp], #-49	; 0x31

00000f1c <l841>:
     f1c:	e59d8010 	ldr	r8, [sp, #16]

00000f20 <l842>:
     f20:	e58d4035 	str	r4, [sp, #53]	; 0x35

00000f24 <l843>:
     f24:	e49da016 	ldr	sl, [sp], #22

00000f28 <l844>:
     f28:	e49d0020 	ldr	r0, [sp], #32

00000f2c <l845>:
     f2c:	e3a0702d 	mov	r7, #45	; 0x2d

00000f30 <l846>:
     f30:	e60df007 	str	pc, [sp], -r7

00000f34 <l847>:
     f34:	e3a02002 	mov	r2, #2

00000f38 <l848>:
     f38:	e7bd7002 	ldr	r7, [sp, r2]!

00000f3c <l849>:
     f3c:	e49d4012 	ldr	r4, [sp], #18

00000f40 <l850>:
     f40:	e3a0900b 	mov	r9, #11

00000f44 <l851>:
     f44:	e7bd1009 	ldr	r1, [sp, r9]!

00000f48 <l852>:
     f48:	e3a0e009 	mov	lr, #9

00000f4c <l853>:
     f4c:	e7ad000e 	str	r0, [sp, lr]!

00000f50 <l854>:
     f50:	e3a0a004 	mov	sl, #4

00000f54 <l855>:
     f54:	a78da00a 	strge	sl, [sp, sl]

00000f58 <l856>:
     f58:	e40d7020 	str	r7, [sp], #-32

00000f5c <l857>:
     f5c:	e3a05008 	mov	r5, #8

00000f60 <l858>:
     f60:	e72de005 	str	lr, [sp, -r5]!

00000f64 <l859>:
     f64:	e5bd602d 	ldr	r6, [sp, #45]!	; 0x2d

00000f68 <l860>:
     f68:	e40d6029 	str	r6, [sp], #-41	; 0x29

00000f6c <l861>:
     f6c:	e40da010 	str	sl, [sp], #-16

00000f70 <l862>:
     f70:	e3a06023 	mov	r6, #35	; 0x23

00000f74 <l863>:
     f74:	e7bd2006 	ldr	r2, [sp, r6]!

00000f78 <l864>:
     f78:	e3a0101b 	mov	r1, #27

00000f7c <l865>:
     f7c:	e60d6001 	str	r6, [sp], -r1

00000f80 <l866>:
     f80:	e52da00c 	str	sl, [sp, #-12]!

00000f84 <l867>:
     f84:	e3a02008 	mov	r2, #8

00000f88 <l868>:
     f88:	478d5002 	strmi	r5, [sp, r2]

00000f8c <l869>:
     f8c:	e3a0c01c 	mov	ip, #28

00000f90 <l870>:
     f90:	e68d000c 	str	r0, [sp], ip

00000f94 <l871>:
     f94:	e49d8022 	ldr	r8, [sp], #34	; 0x22

00000f98 <l872>:
     f98:	e3a0901b 	mov	r9, #27

00000f9c <l873>:
     f9c:	e61d9009 	ldr	r9, [sp], -r9

00000fa0 <l874>:
     fa0:	851d2007 	ldrhi	r2, [sp, #-7]

00000fa4 <l875>:
     fa4:	e5ad9011 	str	r9, [sp, #17]!

00000fa8 <l876>:
     fa8:	e3a07010 	mov	r7, #16

00000fac <l877>:
     fac:	e68d3007 	str	r3, [sp], r7

00000fb0 <l878>:
     fb0:	e40d2020 	str	r2, [sp], #-32

00000fb4 <l879>:
     fb4:	e3a0c010 	mov	ip, #16

00000fb8 <l880>:
     fb8:	b70d500c 	strlt	r5, [sp, -ip]

00000fbc <l881>:
     fbc:	e41db002 	ldr	fp, [sp], #-2

00000fc0 <l882>:
     fc0:	e5bd0003 	ldr	r0, [sp, #3]!

00000fc4 <l883>:
     fc4:	e3a0201d 	mov	r2, #29

00000fc8 <l884>:
     fc8:	e69db002 	ldr	fp, [sp], r2

00000fcc <l885>:
     fcc:	e3a0b00e 	mov	fp, #14

00000fd0 <l886>:
     fd0:	e70d500b 	str	r5, [sp, -fp]

00000fd4 <l887>:
     fd4:	e3a09002 	mov	r9, #2

00000fd8 <l888>:
     fd8:	870df009 	strhi	pc, [sp, -r9]

00000fdc <l889>:
     fdc:	e3a01012 	mov	r1, #18

00000fe0 <l890>:
     fe0:	870d3001 	strhi	r3, [sp, -r1]

00000fe4 <l891>:
     fe4:	e3a0c007 	mov	ip, #7

00000fe8 <l892>:
     fe8:	e71d000c 	ldr	r0, [sp, -ip]

00000fec <l893>:
     fec:	e3a02039 	mov	r2, #57	; 0x39

00000ff0 <l894>:
     ff0:	e73d5002 	ldr	r5, [sp, -r2]!

00000ff4 <l895>:
     ff4:	e5ad602f 	str	r6, [sp, #47]!	; 0x2f

00000ff8 <l896>:
     ff8:	450d5014 	strmi	r5, [sp, #-20]

00000ffc <l897>:
     ffc:	250d802c 	strcs	r8, [sp, #-44]	; 0x2c

00001000 <l898>:
    1000:	e3a0700b 	mov	r7, #11

00001004 <l899>:
    1004:	e61d5007 	ldr	r5, [sp], -r7

00001008 <l900>:
    1008:	750d8009 	strvc	r8, [sp, #-9]

0000100c <l901>:
    100c:	e3a04023 	mov	r4, #35	; 0x23

00001010 <l902>:
    1010:	e61de004 	ldr	lr, [sp], -r4

00001014 <l903>:
    1014:	e3a0a034 	mov	sl, #52	; 0x34

00001018 <l904>:
    1018:	e7bd600a 	ldr	r6, [sp, sl]!

0000101c <l905>:
    101c:	e5bd0004 	ldr	r0, [sp, #4]!

00001020 <l906>:
    1020:	e41d9004 	ldr	r9, [sp], #-4

00001024 <l907>:
    1024:	e50d0016 	str	r0, [sp, #-22]

00001028 <l908>:
    1028:	e51d7016 	ldr	r7, [sp, #-22]

0000102c <l909>:
    102c:	e40d0042 	str	r0, [sp], #-66	; 0x42

00001030 <l910>:
    1030:	e3a0401c 	mov	r4, #28

00001034 <l911>:
    1034:	e68d1004 	str	r1, [sp], r4

00001038 <l912>:
    1038:	e3a06009 	mov	r6, #9

0000103c <l913>:
    103c:	179d6006 	ldrne	r6, [sp, r6]

00001040 <l914>:
    1040:	e3a02020 	mov	r2, #32

00001044 <l915>:
    1044:	e68d0002 	str	r0, [sp], r2

00001048 <l916>:
    1048:	e3a07004 	mov	r7, #4

0000104c <l917>:
    104c:	d70dc007 	strle	ip, [sp, -r7]

00001050 <l918>:
    1050:	e3a0b030 	mov	fp, #48	; 0x30

00001054 <l919>:
    1054:	e60df00b 	str	pc, [sp], -fp

00001058 <l920>:
    1058:	e49d9027 	ldr	r9, [sp], #39	; 0x27

0000105c <l921>:
    105c:	e50d7027 	str	r7, [sp, #-39]	; 0x27

00001060 <l922>:
    1060:	e3a02027 	mov	r2, #39	; 0x27

00001064 <l923>:
    1064:	b70d3002 	strlt	r3, [sp, -r2]

00001068 <l924>:
    1068:	e52df007 	str	pc, [sp, #-7]!

0000106c <l925>:
    106c:	e40d6020 	str	r6, [sp], #-32

00001070 <l926>:
    1070:	e5bde02e 	ldr	lr, [sp, #46]!	; 0x2e

00001074 <l927>:
    1074:	958dc00e 	strls	ip, [sp, #14]

00001078 <l928>:
    1078:	151d5028 	ldrne	r5, [sp, #-40]	; 0x28

0000107c <l929>:
    107c:	e40de01e 	str	lr, [sp], #-30

00001080 <l930>:
    1080:	e3a0601c 	mov	r6, #28

00001084 <l931>:
    1084:	e61d6006 	ldr	r6, [sp], -r6

00001088 <l932>:
    1088:	e3a03048 	mov	r3, #72	; 0x48

0000108c <l933>:
    108c:	e7ad3003 	str	r3, [sp, r3]!

00001090 <l934>:
    1090:	e3a0a046 	mov	sl, #70	; 0x46

00001094 <l935>:
    1094:	e73d100a 	ldr	r1, [sp, -sl]!

00001098 <l936>:
    1098:	e3a0703a 	mov	r7, #58	; 0x3a

0000109c <l937>:
    109c:	e68d2007 	str	r2, [sp], r7

000010a0 <l938>:
    10a0:	e41d4025 	ldr	r4, [sp], #-37	; 0x25

000010a4 <l939>:
    10a4:	e3a0e001 	mov	lr, #1

000010a8 <l940>:
    10a8:	e7ad100e 	str	r1, [sp, lr]!

000010ac <l941>:
    10ac:	e3a00000 	mov	r0, #0

000010b0 <l942>:
    10b0:	e7adf000 	str	pc, [sp, r0]!

000010b4 <l943>:
    10b4:	e3a01030 	mov	r1, #48	; 0x30

000010b8 <l944>:
    10b8:	e68d2001 	str	r2, [sp], r1

000010bc <l945>:
    10bc:	e3a0602f 	mov	r6, #47	; 0x2f

000010c0 <l946>:
    10c0:	e61d8006 	ldr	r8, [sp], -r6

000010c4 <l947>:
    10c4:	e49d0030 	ldr	r0, [sp], #48	; 0x30

000010c8 <l948>:
    10c8:	e3a06024 	mov	r6, #36	; 0x24

000010cc <l949>:
    10cc:	871d1006 	ldrhi	r1, [sp, -r6]

000010d0 <l950>:
    10d0:	e3a0c035 	mov	ip, #53	; 0x35

000010d4 <l951>:
    10d4:	e72dc00c 	str	ip, [sp, -ip]!

000010d8 <l952>:
    10d8:	750d0014 	strvc	r0, [sp, #-20]

000010dc <l953>:
    10dc:	e3a0b000 	mov	fp, #0

000010e0 <l954>:
    10e0:	178d000b 	strne	r0, [sp, fp]

000010e4 <l955>:
    10e4:	e58db020 	str	fp, [sp, #32]

000010e8 <l956>:
    10e8:	950db00c 	strls	fp, [sp, #-12]

000010ec <l957>:
    10ec:	e3a0700f 	mov	r7, #15

000010f0 <l958>:
    10f0:	e7bd0007 	ldr	r0, [sp, r7]!

000010f4 <l959>:
    10f4:	e3a0200f 	mov	r2, #15

000010f8 <l960>:
    10f8:	e61db002 	ldr	fp, [sp], -r2

000010fc <l961>:
    10fc:	c59d300f 	ldrgt	r3, [sp, #15]

00001100 <l962>:
    1100:	e3a02012 	mov	r2, #18

00001104 <l963>:
    1104:	e7bd0002 	ldr	r0, [sp, r2]!

00001108 <l964>:
    1108:	e48df01a 	str	pc, [sp], #26

0000110c <l965>:
    110c:	e3a05000 	mov	r5, #0

00001110 <l966>:
    1110:	e7ad8005 	str	r8, [sp, r5]!

00001114 <l967>:
    1114:	e52d4008 	str	r4, [sp, #-8]!

00001118 <l968>:
    1118:	e41d600c 	ldr	r6, [sp], #-12

0000111c <l969>:
    111c:	e3a0602c 	mov	r6, #44	; 0x2c

00001120 <l970>:
    1120:	e72da006 	str	sl, [sp, -r6]!

00001124 <l971>:
    1124:	e3a0a023 	mov	sl, #35	; 0x23

00001128 <l972>:
    1128:	e7bd600a 	ldr	r6, [sp, sl]!

0000112c <l973>:
    112c:	e48d4019 	str	r4, [sp], #25

00001130 <l974>:
    1130:	e3a0e01a 	mov	lr, #26

00001134 <l975>:
    1134:	e73d200e 	ldr	r2, [sp, -lr]!

00001138 <l976>:
    1138:	e48d2012 	str	r2, [sp], #18

0000113c <l977>:
    113c:	e3a02010 	mov	r2, #16

00001140 <l978>:
    1140:	e61d8002 	ldr	r8, [sp], -r2

00001144 <l979>:
    1144:	e3a0b010 	mov	fp, #16

00001148 <l980>:
    1148:	e70d900b 	str	r9, [sp, -fp]

0000114c <l981>:
    114c:	158de000 	strne	lr, [sp]

00001150 <l982>:
    1150:	e5ad7020 	str	r7, [sp, #32]!

00001154 <l983>:
    1154:	e41d4043 	ldr	r4, [sp], #-67	; 0x43

00001158 <l984>:
    1158:	e48de02f 	str	lr, [sp], #47	; 0x2f

0000115c <l985>:
    115c:	e40d5014 	str	r5, [sp], #-20

00001160 <l986>:
    1160:	e3a03023 	mov	r3, #35	; 0x23

00001164 <l987>:
    1164:	e7bd8003 	ldr	r8, [sp, r3]!

00001168 <l988>:
    1168:	e3a05014 	mov	r5, #20

0000116c <l989>:
    116c:	e61d8005 	ldr	r8, [sp], -r5

00001170 <l990>:
    1170:	e3a02014 	mov	r2, #20

00001174 <l991>:
    1174:	e73d0002 	ldr	r0, [sp, -r2]!

00001178 <l992>:
    1178:	e48de005 	str	lr, [sp], #5

0000117c <l993>:
    117c:	e3a05008 	mov	r5, #8

00001180 <l994>:
    1180:	e73d9005 	ldr	r9, [sp, -r5]!

00001184 <l995>:
    1184:	c58d5018 	strgt	r5, [sp, #24]

00001188 <l996>:
    1188:	e3a02028 	mov	r2, #40	; 0x28

0000118c <l997>:
    118c:	e68df002 	str	pc, [sp], r2

00001190 <l998>:
    1190:	e3a04004 	mov	r4, #4

00001194 <l999>:
    1194:	e60df004 	str	pc, [sp], -r4

00001198 <l1000>:
    1198:	e5bdc007 	ldr	ip, [sp, #7]!

0000119c <end>:
    119c:	eafffffe 	b	119c <end>
