
mov_1000.o:     file format elf32-littlearm


Disassembly of section .text:

00000000 <main>:
       0:	e05f000f 	subs	r0, pc, pc
       4:	e59fd000 	ldr	sp, [pc]	; c <val>
       8:	ea000000 	b	10 <next>

0000000c <val>:
       c:	000ffff0 	.word	0x000ffff0

00000010 <next>:
      10:	e59f1000 	ldr	r1, [pc]	; 18 <val1>
      14:	ea000000 	b	1c <next1>

00000018 <val1>:
      18:	efe864f6 	.word	0xefe864f6

0000001c <next1>:
      1c:	e59f2000 	ldr	r2, [pc]	; 24 <val2>
      20:	ea000000 	b	28 <next2>

00000024 <val2>:
      24:	c9446d4b 	.word	0xc9446d4b

00000028 <next2>:
      28:	e59f3000 	ldr	r3, [pc]	; 30 <val3>
      2c:	ea000000 	b	34 <next3>

00000030 <val3>:
      30:	94900154 	.word	0x94900154

00000034 <next3>:
      34:	e59f4000 	ldr	r4, [pc]	; 3c <val4>
      38:	ea000000 	b	40 <next4>

0000003c <val4>:
      3c:	ae522aac 	.word	0xae522aac

00000040 <next4>:
      40:	e59f5000 	ldr	r5, [pc]	; 48 <val5>
      44:	ea000000 	b	4c <next5>

00000048 <val5>:
      48:	07d72d33 	.word	0x07d72d33

0000004c <next5>:
      4c:	e59f6000 	ldr	r6, [pc]	; 54 <val6>
      50:	ea000000 	b	58 <next6>

00000054 <val6>:
      54:	fd485985 	.word	0xfd485985

00000058 <next6>:
      58:	e59f7000 	ldr	r7, [pc]	; 60 <val7>
      5c:	ea000000 	b	64 <next7>

00000060 <val7>:
      60:	34f9cfff 	.word	0x34f9cfff

00000064 <next7>:
      64:	e59f8000 	ldr	r8, [pc]	; 6c <val8>
      68:	ea000000 	b	70 <next8>

0000006c <val8>:
      6c:	a05f115e 	.word	0xa05f115e

00000070 <next8>:
      70:	e59f9000 	ldr	r9, [pc]	; 78 <val9>
      74:	ea000000 	b	7c <next9>

00000078 <val9>:
      78:	74fc2c0e 	.word	0x74fc2c0e

0000007c <next9>:
      7c:	e59fa000 	ldr	sl, [pc]	; 84 <val10>
      80:	ea000000 	b	88 <next10>

00000084 <val10>:
      84:	74009d77 	.word	0x74009d77

00000088 <next10>:
      88:	e59fb000 	ldr	fp, [pc]	; 90 <val11>
      8c:	ea000000 	b	94 <next11>

00000090 <val11>:
      90:	1cd8a25a 	.word	0x1cd8a25a

00000094 <next11>:
      94:	e59fc000 	ldr	ip, [pc]	; 9c <val12>
      98:	ea000000 	b	a0 <next12>

0000009c <val12>:
      9c:	6fde0b8f 	.word	0x6fde0b8f

000000a0 <next12>:
      a0:	e59fe000 	ldr	lr, [pc]	; a8 <val14>
      a4:	ea000000 	b	ac <next14>

000000a8 <val14>:
      a8:	45cdeb89 	.word	0x45cdeb89

000000ac <next14>:
      ac:	e59f1000 	ldr	r1, [pc]	; b4 <val15>
      b0:	ea000000 	b	b8 <next15>

000000b4 <val15>:
      b4:	ff7a17e4 	.word	0xff7a17e4

000000b8 <next15>:
      b8:	e58d1000 	str	r1, [sp]
      bc:	e59f1000 	ldr	r1, [pc]	; c4 <val16>
      c0:	ea000000 	b	c8 <next16>

000000c4 <val16>:
      c4:	f03c1918 	.word	0xf03c1918

000000c8 <next16>:
      c8:	e50d1004 	str	r1, [sp, #-4]
      cc:	e59f1000 	ldr	r1, [pc]	; d4 <val17>
      d0:	ea000000 	b	d8 <next17>

000000d4 <val17>:
      d4:	372582ee 	.word	0x372582ee

000000d8 <next17>:
      d8:	e50d1008 	str	r1, [sp, #-8]
      dc:	e59f1000 	ldr	r1, [pc]	; e4 <val18>
      e0:	ea000000 	b	e8 <next18>

000000e4 <val18>:
      e4:	96b02ca9 	.word	0x96b02ca9

000000e8 <next18>:
      e8:	e50d100c 	str	r1, [sp, #-12]
      ec:	e59f1000 	ldr	r1, [pc]	; f4 <val19>
      f0:	ea000000 	b	f8 <next19>

000000f4 <val19>:
      f4:	29cb601f 	.word	0x29cb601f

000000f8 <next19>:
      f8:	e50d1010 	str	r1, [sp, #-16]
      fc:	e59f1000 	ldr	r1, [pc]	; 104 <val20>
     100:	ea000000 	b	108 <next20>

00000104 <val20>:
     104:	84615e52 	.word	0x84615e52

00000108 <next20>:
     108:	e50d1014 	str	r1, [sp, #-20]
     10c:	e59f1000 	ldr	r1, [pc]	; 114 <val21>
     110:	ea000000 	b	118 <next21>

00000114 <val21>:
     114:	5a584902 	.word	0x5a584902

00000118 <next21>:
     118:	e50d1018 	str	r1, [sp, #-24]
     11c:	e59f1000 	ldr	r1, [pc]	; 124 <val22>
     120:	ea000000 	b	128 <next22>

00000124 <val22>:
     124:	a727b12d 	.word	0xa727b12d

00000128 <next22>:
     128:	e50d101c 	str	r1, [sp, #-28]
     12c:	e59f1000 	ldr	r1, [pc]	; 134 <val23>
     130:	ea000000 	b	138 <next23>

00000134 <val23>:
     134:	cbaad0b2 	.word	0xcbaad0b2

00000138 <next23>:
     138:	e50d1020 	str	r1, [sp, #-32]
     13c:	e59f1000 	ldr	r1, [pc]	; 144 <val24>
     140:	ea000000 	b	148 <next24>

00000144 <val24>:
     144:	61acfad4 	.word	0x61acfad4

00000148 <next24>:
     148:	e50d1024 	str	r1, [sp, #-36]	; 0x24
     14c:	e59f1000 	ldr	r1, [pc]	; 154 <val25>
     150:	ea000000 	b	158 <next25>

00000154 <val25>:
     154:	a740c762 	.word	0xa740c762

00000158 <next25>:
     158:	e50d1028 	str	r1, [sp, #-40]	; 0x28
     15c:	e59f1000 	ldr	r1, [pc]	; 164 <val26>
     160:	ea000000 	b	168 <next26>

00000164 <val26>:
     164:	d46e7832 	.word	0xd46e7832

00000168 <next26>:
     168:	e50d102c 	str	r1, [sp, #-44]	; 0x2c
     16c:	e59f1000 	ldr	r1, [pc]	; 174 <val27>
     170:	ea000000 	b	178 <next27>

00000174 <val27>:
     174:	dffdf3c4 	.word	0xdffdf3c4

00000178 <next27>:
     178:	e50d1030 	str	r1, [sp, #-48]	; 0x30
     17c:	e59f1000 	ldr	r1, [pc]	; 184 <val28>
     180:	ea000000 	b	188 <next28>

00000184 <val28>:
     184:	48ec93ae 	.word	0x48ec93ae

00000188 <next28>:
     188:	e50d1034 	str	r1, [sp, #-52]	; 0x34
     18c:	e59f1000 	ldr	r1, [pc]	; 194 <val29>
     190:	ea000000 	b	198 <next29>

00000194 <val29>:
     194:	01b67089 	.word	0x01b67089

00000198 <next29>:
     198:	e50d1038 	str	r1, [sp, #-56]	; 0x38
     19c:	e59f1000 	ldr	r1, [pc]	; 1a4 <val30>
     1a0:	ea000000 	b	1a8 <next30>

000001a4 <val30>:
     1a4:	7289f5fb 	.word	0x7289f5fb

000001a8 <next30>:
     1a8:	e50d103c 	str	r1, [sp, #-60]	; 0x3c
     1ac:	e59f1000 	ldr	r1, [pc]	; 1b4 <val31>
     1b0:	ea000000 	b	1b8 <next31>

000001b4 <val31>:
     1b4:	3b15fea3 	.word	0x3b15fea3

000001b8 <next31>:
     1b8:	e50d1040 	str	r1, [sp, #-64]	; 0x40
     1bc:	e59f1000 	ldr	r1, [pc]	; 1c4 <val32>
     1c0:	ea000000 	b	1c8 <next32>

000001c4 <val32>:
     1c4:	a89ee509 	.word	0xa89ee509

000001c8 <next32>:
     1c8:	e50d1044 	str	r1, [sp, #-68]	; 0x44
     1cc:	e59f1000 	ldr	r1, [pc]	; 1d4 <val33>
     1d0:	ea000000 	b	1d8 <next33>

000001d4 <val33>:
     1d4:	f8cd3ea0 	.word	0xf8cd3ea0

000001d8 <next33>:
     1d8:	e50d1048 	str	r1, [sp, #-72]	; 0x48
     1dc:	e59f1000 	ldr	r1, [pc]	; 1e4 <val34>
     1e0:	ea000000 	b	1e8 <next34>

000001e4 <val34>:
     1e4:	b3117d7a 	.word	0xb3117d7a

000001e8 <next34>:
     1e8:	e50d104c 	str	r1, [sp, #-76]	; 0x4c
     1ec:	e59f1000 	ldr	r1, [pc]	; 1f4 <val35>
     1f0:	ea000000 	b	1f8 <next35>

000001f4 <val35>:
     1f4:	7bf46a0b 	.word	0x7bf46a0b

000001f8 <next35>:
     1f8:	e50d1050 	str	r1, [sp, #-80]	; 0x50

000001fc <l1>:
     1fc:	11a0a438 	lsrne	sl, r8, r4

00000200 <l2>:
     200:	01b0e36a 	rorseq	lr, sl, #6

00000204 <l3>:
     204:	d1a0c003 	movle	ip, r3

00000208 <l4>:
     208:	e1a06902 	lsl	r6, r2, #18

0000020c <l5>:
     20c:	e1b0a00e 	movs	sl, lr

00000210 <l6>:
     210:	c1a07065 	rrxgt	r7, r5

00000214 <l7>:
     214:	d3b0e47b 	movsle	lr, #2063597568	; 0x7b000000

00000218 <l8>:
     218:	31a0eccb 	asrcc	lr, fp, #25

0000021c <l9>:
     21c:	81b0043e 	lsrshi	r0, lr, r4

00000220 <l10>:
     220:	e3a054e3 	mov	r5, #-486539264	; 0xe3000000

00000224 <l11>:
     224:	01a0c004 	moveq	ip, r4

00000228 <l12>:
     228:	41a09009 	movmi	r9, r9

0000022c <l13>:
     22c:	c1a02632 	lsrgt	r2, r2, r6

00000230 <l14>:
     230:	81b00f66 	rorshi	r0, r6, #30

00000234 <l15>:
     234:	d1a0100f 	movle	r1, pc

00000238 <l16>:
     238:	d1b03001 	movsle	r3, r1

0000023c <l17>:
     23c:	b1b0606f 	rrxslt	r6, pc

00000240 <l18>:
     240:	01a0a64a 	asreq	sl, sl, #12

00000244 <l19>:
     244:	b1a09007 	movlt	r9, r7

00000248 <l20>:
     248:	91b0173a 	lsrsls	r1, sl, r7

0000024c <l21>:
     24c:	31b085e1 	rorscc	r8, r1, #11

00000250 <l22>:
     250:	41b0693c 	lsrsmi	r6, ip, r9

00000254 <l23>:
     254:	81b0306e 	rrxshi	r3, lr

00000258 <l24>:
     258:	61a0e8cb 	asrvs	lr, fp, #17

0000025c <l25>:
     25c:	e1b0500b 	movs	r5, fp

00000260 <l26>:
     260:	e1a01b33 	lsr	r1, r3, fp

00000264 <l27>:
     264:	e1b0400a 	movs	r4, sl

00000268 <l28>:
     268:	a3b009b9 	movsge	r0, #3031040	; 0x2e4000

0000026c <l29>:
     26c:	73b0c493 	movsvc	ip, #-1828716544	; 0x93000000

00000270 <l30>:
     270:	e1b03411 	lsls	r3, r1, r4

00000274 <l31>:
     274:	e3a044de 	mov	r4, #-570425344	; 0xde000000

00000278 <l32>:
     278:	e1a09007 	mov	r9, r7

0000027c <l33>:
     27c:	e3a07df1 	mov	r7, #15424	; 0x3c40

00000280 <l34>:
     280:	63b0ad1f 	movsvs	sl, #1984	; 0x7c0

00000284 <l35>:
     284:	e3b0e319 	movs	lr, #1677721600	; 0x64000000

00000288 <l36>:
     288:	a1a01a28 	lsrge	r1, r8, #20

0000028c <l37>:
     28c:	e1b08068 	rrxs	r8, r8

00000290 <l38>:
     290:	51a09e35 	lsrpl	r9, r5, lr

00000294 <l39>:
     294:	e1a01009 	mov	r1, r9

00000298 <l40>:
     298:	53a09f4f 	movpl	r9, #316	; 0x13c

0000029c <l41>:
     29c:	e1b0e00f 	movs	lr, pc

000002a0 <l42>:
     2a0:	61b05612 	lslsvs	r5, r2, r6

000002a4 <l43>:
     2a4:	51b0300c 	movspl	r3, ip

000002a8 <l44>:
     2a8:	11a01878 	rorne	r1, r8, r8

000002ac <l45>:
     2ac:	e1b0a431 	lsrs	sl, r1, r4

000002b0 <l46>:
     2b0:	e3a030a8 	mov	r3, #168	; 0xa8

000002b4 <l47>:
     2b4:	d3b04671 	movsle	r4, #118489088	; 0x7100000

000002b8 <l48>:
     2b8:	d1a0cc24 	lsrle	ip, r4, #24

000002bc <l49>:
     2bc:	71a0306a 	rrxvc	r3, sl

000002c0 <l50>:
     2c0:	d3b01d67 	movsle	r1, #6592	; 0x19c0

000002c4 <l51>:
     2c4:	e1b04009 	movs	r4, r9

000002c8 <l52>:
     2c8:	31a0b479 	rorcc	fp, r9, r4

000002cc <l53>:
     2cc:	e1b0e009 	movs	lr, r9

000002d0 <l54>:
     2d0:	91b05840 	asrsls	r5, r0, #16

000002d4 <l55>:
     2d4:	31a0b001 	movcc	fp, r1

000002d8 <l56>:
     2d8:	c1b07971 	rorsgt	r7, r1, r9

000002dc <l57>:
     2dc:	13a06721 	movne	r6, #8650752	; 0x840000

000002e0 <l58>:
     2e0:	e3a09a95 	mov	r9, #610304	; 0x95000

000002e4 <l59>:
     2e4:	c1a0c00c 	movgt	ip, ip

000002e8 <l60>:
     2e8:	c1b09aeb 	rorsgt	r9, fp, #21

000002ec <l61>:
     2ec:	61b06ec0 	asrsvs	r6, r0, #29

000002f0 <l62>:
     2f0:	31a0a064 	rrxcc	sl, r4

000002f4 <l63>:
     2f4:	33a08c95 	movcc	r8, #38144	; 0x9500

000002f8 <l64>:
     2f8:	e1a06006 	mov	r6, r6

000002fc <l65>:
     2fc:	71b0b77b 	rorsvc	fp, fp, r7

00000300 <l66>:
     300:	e1a053a7 	lsr	r5, r7, #7

00000304 <l67>:
     304:	e3b06ded 	movs	r6, #15168	; 0x3b40

00000308 <l68>:
     308:	d1a03004 	movle	r3, r4

0000030c <l69>:
     30c:	a1b0bf0b 	lslsge	fp, fp, #30

00000310 <l70>:
     310:	41b01009 	movsmi	r1, r9

00000314 <l71>:
     314:	31b06e1b 	lslscc	r6, fp, lr

00000318 <l72>:
     318:	e1a0475c 	asr	r4, ip, r7

0000031c <l73>:
     31c:	e1b05003 	movs	r5, r3

00000320 <l74>:
     320:	e3a06c62 	mov	r6, #25088	; 0x6200

00000324 <l75>:
     324:	e3a0e233 	mov	lr, #805306371	; 0x30000003

00000328 <l76>:
     328:	e1b0100b 	movs	r1, fp

0000032c <l77>:
     32c:	b3a00b4e 	movlt	r0, #79872	; 0x13800

00000330 <l78>:
     330:	31b0b004 	movscc	fp, r4

00000334 <l79>:
     334:	e1b0ea1e 	lsls	lr, lr, sl

00000338 <l80>:
     338:	01b02061 	rrxseq	r2, r1

0000033c <l81>:
     33c:	01b0b413 	lslseq	fp, r3, r4

00000340 <l82>:
     340:	53a0a16a 	movpl	sl, #-2147483622	; 0x8000001a

00000344 <l83>:
     344:	a1a0a00e 	movge	sl, lr

00000348 <l84>:
     348:	e1b0c405 	lsls	ip, r5, #8

0000034c <l85>:
     34c:	e1a0e001 	mov	lr, r1

00000350 <l86>:
     350:	e3b0343d 	movs	r3, #1023410176	; 0x3d000000

00000354 <l87>:
     354:	e1a06069 	rrx	r6, r9

00000358 <l88>:
     358:	71a02c54 	asrvc	r2, r4, ip

0000035c <l89>:
     35c:	53a0cb4f 	movpl	ip, #80896	; 0x13c00

00000360 <l90>:
     360:	b1b01060 	rrxslt	r1, r0

00000364 <l91>:
     364:	e1b01060 	rrxs	r1, r0

00000368 <l92>:
     368:	c3a0662f 	movgt	r6, #49283072	; 0x2f00000

0000036c <l93>:
     36c:	e1b05069 	rrxs	r5, r9

00000370 <l94>:
     370:	e1a0200c 	mov	r2, ip

00000374 <l95>:
     374:	43a02e91 	movmi	r2, #2320	; 0x910

00000378 <l96>:
     378:	e1a0e271 	ror	lr, r1, r2

0000037c <l97>:
     37c:	b3b0914f 	movslt	r9, #-1073741805	; 0xc0000013

00000380 <l98>:
     380:	41a0100a 	movmi	r1, sl

00000384 <l99>:
     384:	71a07755 	asrvc	r7, r5, r7

00000388 <l100>:
     388:	41a04e80 	lslmi	r4, r0, #29

0000038c <l101>:
     38c:	e3b0310b 	movs	r3, #-1073741822	; 0xc0000002

00000390 <l102>:
     390:	e1a02062 	rrx	r2, r2

00000394 <l103>:
     394:	e3b0cb2f 	movs	ip, #48128	; 0xbc00

00000398 <l104>:
     398:	a1a08003 	movge	r8, r3

0000039c <l105>:
     39c:	71a0306a 	rrxvc	r3, sl

000003a0 <l106>:
     3a0:	53a001bd 	movpl	r0, #1073741871	; 0x4000002f

000003a4 <l107>:
     3a4:	e3b06846 	movs	r6, #4587520	; 0x460000

000003a8 <l108>:
     3a8:	e1b07005 	movs	r7, r5

000003ac <l109>:
     3ac:	e3b03fc3 	movs	r3, #780	; 0x30c

000003b0 <l110>:
     3b0:	e3a097d7 	mov	r9, #56360960	; 0x35c0000

000003b4 <l111>:
     3b4:	a1b0606c 	rrxsge	r6, ip

000003b8 <l112>:
     3b8:	c1a02510 	lslgt	r2, r0, r5

000003bc <l113>:
     3bc:	01a05dac 	lsreq	r5, ip, #27

000003c0 <l114>:
     3c0:	e3a07064 	mov	r7, #100	; 0x64

000003c4 <l115>:
     3c4:	e3b0b052 	movs	fp, #82	; 0x52

000003c8 <l116>:
     3c8:	e1b0b5ee 	rors	fp, lr, #11

000003cc <l117>:
     3cc:	c1a02ca3 	lsrgt	r2, r3, #25

000003d0 <l118>:
     3d0:	21b0300e 	movscs	r3, lr

000003d4 <l119>:
     3d4:	d1b0c060 	rrxsle	ip, r0

000003d8 <l120>:
     3d8:	a3a0c206 	movge	ip, #1610612736	; 0x60000000

000003dc <l121>:
     3dc:	c1a00461 	rorgt	r0, r1, #8

000003e0 <l122>:
     3e0:	81b06006 	movshi	r6, r6

000003e4 <l123>:
     3e4:	23a0e78f 	movcs	lr, #37486592	; 0x23c0000

000003e8 <l124>:
     3e8:	e1a04871 	ror	r4, r1, r8

000003ec <l125>:
     3ec:	11a0b063 	rrxne	fp, r3

000003f0 <l126>:
     3f0:	51b06518 	lslspl	r6, r8, r5

000003f4 <l127>:
     3f4:	91b02749 	asrsls	r2, r9, #14

000003f8 <l128>:
     3f8:	e1a06005 	mov	r6, r5

000003fc <l129>:
     3fc:	e3b08e42 	movs	r8, #1056	; 0x420

00000400 <l130>:
     400:	e3b086e6 	movs	r8, #241172480	; 0xe600000

00000404 <l131>:
     404:	e1b02710 	lsls	r2, r0, r7

00000408 <l132>:
     408:	e3b0281a 	movs	r2, #1703936	; 0x1a0000

0000040c <l133>:
     40c:	01a01c5b 	asreq	r1, fp, ip

00000410 <l134>:
     410:	d1b06ce3 	rorsle	r6, r3, #25

00000414 <l135>:
     414:	e1a0c000 	mov	ip, r0

00000418 <l136>:
     418:	a1b0a065 	rrxsge	sl, r5

0000041c <l137>:
     41c:	41b0a959 	asrsmi	sl, r9, r9

00000420 <l138>:
     420:	63a0ba83 	movvs	fp, #536576	; 0x83000

00000424 <l139>:
     424:	e1b05307 	lsls	r5, r7, #6

00000428 <l140>:
     428:	71a0e004 	movvc	lr, r4

0000042c <l141>:
     42c:	11a0a067 	rrxne	sl, r7

00000430 <l142>:
     430:	e3b04817 	movs	r4, #1507328	; 0x170000

00000434 <l143>:
     434:	a3b0027b 	movsge	r0, #-1342177273	; 0xb0000007

00000438 <l144>:
     438:	81b0855c 	asrshi	r8, ip, r5

0000043c <l145>:
     43c:	01a0b002 	moveq	fp, r2

00000440 <l146>:
     440:	e3b0040f 	movs	r0, #251658240	; 0xf000000

00000444 <l147>:
     444:	21a07157 	asrcs	r7, r7, r1

00000448 <l148>:
     448:	13b0572f 	movsne	r5, #12320768	; 0xbc0000

0000044c <l149>:
     44c:	31b0b001 	movscc	fp, r1

00000450 <l150>:
     450:	e1b05061 	rrxs	r5, r1

00000454 <l151>:
     454:	c1a0a000 	movgt	sl, r0

00000458 <l152>:
     458:	e3a0ee3a 	mov	lr, #928	; 0x3a0

0000045c <l153>:
     45c:	e1a05cc4 	asr	r5, r4, #25

00000460 <l154>:
     460:	91b09282 	lslsls	r9, r2, #5

00000464 <l155>:
     464:	21a0400a 	movcs	r4, sl

00000468 <l156>:
     468:	61b01812 	lslsvs	r1, r2, r8

0000046c <l157>:
     46c:	b1b00060 	rrxslt	r0, r0

00000470 <l158>:
     470:	71a0a006 	movvc	sl, r6

00000474 <l159>:
     474:	71b05b1a 	lslsvc	r5, sl, fp

00000478 <l160>:
     478:	e1a01a56 	asr	r1, r6, sl

0000047c <l161>:
     47c:	c1b0622f 	lsrsgt	r6, pc, #4

00000480 <l162>:
     480:	d3b0ed1b 	movsle	lr, #1728	; 0x6c0

00000484 <l163>:
     484:	e3b07c01 	movs	r7, #256	; 0x100

00000488 <l164>:
     488:	e1b06bae 	lsrs	r6, lr, #23

0000048c <l165>:
     48c:	e1a03172 	ror	r3, r2, r1

00000490 <l166>:
     490:	41b08920 	lsrsmi	r8, r0, #18

00000494 <l167>:
     494:	e1a03061 	rrx	r3, r1

00000498 <l168>:
     498:	e1a0a532 	lsr	sl, r2, r5

0000049c <l169>:
     49c:	81a07bca 	asrhi	r7, sl, #23

000004a0 <l170>:
     4a0:	91b07b69 	rorsls	r7, r9, #22

000004a4 <l171>:
     4a4:	c1b0500b 	movsgt	r5, fp

000004a8 <l172>:
     4a8:	d3b028ab 	movsle	r2, #11206656	; 0xab0000

000004ac <l173>:
     4ac:	d1a08b39 	lsrle	r8, r9, fp

000004b0 <l174>:
     4b0:	21a0e008 	movcs	lr, r8

000004b4 <l175>:
     4b4:	93a043ab 	movls	r4, #-1409286142	; 0xac000002

000004b8 <l176>:
     4b8:	e1a0c33b 	lsr	ip, fp, r3

000004bc <l177>:
     4bc:	61a00a30 	lsrvs	r0, r0, sl

000004c0 <l178>:
     4c0:	03a02b06 	moveq	r2, #6144	; 0x1800

000004c4 <l179>:
     4c4:	63a0c546 	movvs	ip, #293601280	; 0x11800000

000004c8 <l180>:
     4c8:	21a000ac 	lsrcs	r0, ip, #1

000004cc <l181>:
     4cc:	03b04222 	movseq	r4, #536870914	; 0x20000002

000004d0 <l182>:
     4d0:	e1b04004 	movs	r4, r4

000004d4 <l183>:
     4d4:	13b0408c 	movsne	r4, #140	; 0x8c

000004d8 <l184>:
     4d8:	11b0c56a 	rorsne	ip, sl, #10

000004dc <l185>:
     4dc:	a3b02c3e 	movsge	r2, #15872	; 0x3e00

000004e0 <l186>:
     4e0:	73a06ee2 	movvc	r6, #3616	; 0xe20

000004e4 <l187>:
     4e4:	e1a0b006 	mov	fp, r6

000004e8 <l188>:
     4e8:	e1b08fa4 	lsrs	r8, r4, #31

000004ec <l189>:
     4ec:	03b0b307 	movseq	fp, #469762048	; 0x1c000000

000004f0 <l190>:
     4f0:	e3b028f9 	movs	r2, #16318464	; 0xf90000

000004f4 <l191>:
     4f4:	c1a06d40 	asrgt	r6, r0, #26

000004f8 <l192>:
     4f8:	e1a06f44 	asr	r6, r4, #30

000004fc <l193>:
     4fc:	51b0c00b 	movspl	ip, fp

00000500 <l194>:
     500:	e1b08a75 	rors	r8, r5, sl

00000504 <l195>:
     504:	01b0b032 	lsrseq	fp, r2, r0

00000508 <l196>:
     508:	e1b03aac 	lsrs	r3, ip, #21

0000050c <l197>:
     50c:	31a00f03 	lslcc	r0, r3, #30

00000510 <l198>:
     510:	31a00009 	movcc	r0, r9

00000514 <l199>:
     514:	21b0aec4 	asrscs	sl, r4, #29

00000518 <l200>:
     518:	01a0ecc3 	asreq	lr, r3, #25

0000051c <l201>:
     51c:	e1a0e00a 	mov	lr, sl

00000520 <l202>:
     520:	e1a04d63 	ror	r4, r3, #26

00000524 <l203>:
     524:	e1a0c1a6 	lsr	ip, r6, #3

00000528 <l204>:
     528:	43b0b91f 	movsmi	fp, #507904	; 0x7c000

0000052c <l205>:
     52c:	e1b02e43 	asrs	r2, r3, #28

00000530 <l206>:
     530:	e3a00e62 	mov	r0, #1568	; 0x620

00000534 <l207>:
     534:	01a0ab13 	lsleq	sl, r3, fp

00000538 <l208>:
     538:	e1a0e183 	lsl	lr, r3, #3

0000053c <l209>:
     53c:	e1b0300a 	movs	r3, sl

00000540 <l210>:
     540:	a1b0333a 	lsrsge	r3, sl, r3

00000544 <l211>:
     544:	e1a0ec7a 	ror	lr, sl, ip

00000548 <l212>:
     548:	31b01065 	rrxscc	r1, r5

0000054c <l213>:
     54c:	63b0e115 	movsvs	lr, #1073741829	; 0x40000005

00000550 <l214>:
     550:	e3a057aa 	mov	r5, #44564480	; 0x2a80000

00000554 <l215>:
     554:	e1b0e003 	movs	lr, r3

00000558 <l216>:
     558:	d3a0b906 	movle	fp, #98304	; 0x18000

0000055c <l217>:
     55c:	c1b0e06f 	rrxsgt	lr, pc

00000560 <l218>:
     560:	d3a09c06 	movle	r9, #1536	; 0x600

00000564 <l219>:
     564:	41b0492e 	lsrsmi	r4, lr, #18

00000568 <l220>:
     568:	e1b0e008 	movs	lr, r8

0000056c <l221>:
     56c:	e1a029a0 	lsr	r2, r0, #19

00000570 <l222>:
     570:	e3a05029 	mov	r5, #41	; 0x29

00000574 <l223>:
     574:	c3a090d4 	movgt	r9, #212	; 0xd4

00000578 <l224>:
     578:	e3b0e4c6 	movs	lr, #-973078528	; 0xc6000000

0000057c <l225>:
     57c:	51b0c18a 	lslspl	ip, sl, #3

00000580 <l226>:
     580:	83b00c7e 	movshi	r0, #32256	; 0x7e00

00000584 <l227>:
     584:	e1b02d6e 	rors	r2, lr, #26

00000588 <l228>:
     588:	d1a05072 	rorle	r5, r2, r0

0000058c <l229>:
     58c:	e3a08d0f 	mov	r8, #960	; 0x3c0

00000590 <l230>:
     590:	e1b01c17 	lsls	r1, r7, ip

00000594 <l231>:
     594:	e3a0a2b6 	mov	sl, #1610612747	; 0x6000000b

00000598 <l232>:
     598:	d1a0c3a7 	lsrle	ip, r7, #7

0000059c <l233>:
     59c:	e1a0c459 	asr	ip, r9, r4

000005a0 <l234>:
     5a0:	63b01816 	movsvs	r1, #1441792	; 0x160000

000005a4 <l235>:
     5a4:	31b08000 	movscc	r8, r0

000005a8 <l236>:
     5a8:	c1b06515 	lslsgt	r6, r5, r5

000005ac <l237>:
     5ac:	d1b05008 	movsle	r5, r8

000005b0 <l238>:
     5b0:	33a0281a 	movcc	r2, #1703936	; 0x1a0000

000005b4 <l239>:
     5b4:	01a0e933 	lsreq	lr, r3, r9

000005b8 <l240>:
     5b8:	b1b0000b 	movslt	r0, fp

000005bc <l241>:
     5bc:	d1a0b063 	rrxle	fp, r3

000005c0 <l242>:
     5c0:	e1a043e8 	ror	r4, r8, #7

000005c4 <l243>:
     5c4:	e1a0300b 	mov	r3, fp

000005c8 <l244>:
     5c8:	e3b072ef 	movs	r7, #-268435442	; 0xf000000e

000005cc <l245>:
     5cc:	c3a0cc71 	movgt	ip, #28928	; 0x7100

000005d0 <l246>:
     5d0:	e1b0687c 	rors	r6, ip, r8

000005d4 <l247>:
     5d4:	51a01008 	movpl	r1, r8

000005d8 <l248>:
     5d8:	e3b0ee3e 	movs	lr, #992	; 0x3e0

000005dc <l249>:
     5dc:	d3a04931 	movle	r4, #802816	; 0xc4000

000005e0 <l250>:
     5e0:	d3a07736 	movle	r7, #14155776	; 0xd80000

000005e4 <l251>:
     5e4:	91b0bb55 	asrsls	fp, r5, fp

000005e8 <l252>:
     5e8:	e1b0e17c 	rors	lr, ip, r1

000005ec <l253>:
     5ec:	91b0600c 	movsls	r6, ip

000005f0 <l254>:
     5f0:	91a07065 	rrxls	r7, r5

000005f4 <l255>:
     5f4:	e1b03000 	movs	r3, r0

000005f8 <l256>:
     5f8:	83b061bf 	movshi	r6, #-1073741777	; 0xc000002f

000005fc <l257>:
     5fc:	d3b0c55f 	movsle	ip, #398458880	; 0x17c00000

00000600 <l258>:
     600:	e1b0238a 	lsls	r2, sl, #7

00000604 <l259>:
     604:	61a04f62 	rorvs	r4, r2, #30

00000608 <l260>:
     608:	31a0a00a 	movcc	sl, sl

0000060c <l261>:
     60c:	e3a010e0 	mov	r1, #224	; 0xe0

00000610 <l262>:
     610:	e1b0b007 	movs	fp, r7

00000614 <l263>:
     614:	71a02a54 	asrvc	r2, r4, sl

00000618 <l264>:
     618:	33a09422 	movcc	r9, #570425344	; 0x22000000

0000061c <l265>:
     61c:	a3a0bd8a 	movge	fp, #8832	; 0x2280

00000620 <l266>:
     620:	e1a04280 	lsl	r4, r0, #5

00000624 <l267>:
     624:	e1b0854f 	asrs	r8, pc, #10

00000628 <l268>:
     628:	e1a0a419 	lsl	sl, r9, r4

0000062c <l269>:
     62c:	a3a03c73 	movge	r3, #29440	; 0x7300

00000630 <l270>:
     630:	e1b0300f 	movs	r3, pc

00000634 <l271>:
     634:	e3b0890f 	movs	r8, #245760	; 0x3c000

00000638 <l272>:
     638:	41a02005 	movmi	r2, r5

0000063c <l273>:
     63c:	11b0b06a 	rrxsne	fp, sl

00000640 <l274>:
     640:	e1b03a0a 	lsls	r3, sl, #20

00000644 <l275>:
     644:	21a04851 	asrcs	r4, r1, r8

00000648 <l276>:
     648:	e1b06004 	movs	r6, r4

0000064c <l277>:
     64c:	91b00000 	movsls	r0, r0

00000650 <l278>:
     650:	91b07a79 	rorsls	r7, r9, sl

00000654 <l279>:
     654:	61a0b431 	lsrvs	fp, r1, r4

00000658 <l280>:
     658:	c1b093e3 	rorsgt	r9, r3, #7

0000065c <l281>:
     65c:	01b0e007 	movseq	lr, r7

00000660 <l282>:
     660:	d1a06062 	rrxle	r6, r2

00000664 <l283>:
     664:	e1a0ce6a 	ror	ip, sl, #28

00000668 <l284>:
     668:	e1b03009 	movs	r3, r9

0000066c <l285>:
     66c:	e3a0c7ca 	mov	ip, #52953088	; 0x3280000

00000670 <l286>:
     670:	41b01634 	lsrsmi	r1, r4, r6

00000674 <l287>:
     674:	41a0e002 	movmi	lr, r2

00000678 <l288>:
     678:	e1a08913 	lsl	r8, r3, r9

0000067c <l289>:
     67c:	a3a0ab4b 	movge	sl, #76800	; 0x12c00

00000680 <l290>:
     680:	41a06cc5 	asrmi	r6, r5, #25

00000684 <l291>:
     684:	e1a0600b 	mov	r6, fp

00000688 <l292>:
     688:	e1b05c7b 	rors	r5, fp, ip

0000068c <l293>:
     68c:	e1a05708 	lsl	r5, r8, #14

00000690 <l294>:
     690:	b1b01676 	rorslt	r1, r6, r6

00000694 <l295>:
     694:	71b0c935 	lsrsvc	ip, r5, r9

00000698 <l296>:
     698:	01b0657a 	rorseq	r6, sl, r5

0000069c <l297>:
     69c:	41a0a338 	lsrmi	sl, r8, r3

000006a0 <l298>:
     6a0:	d1a0006c 	rrxle	r0, ip

000006a4 <l299>:
     6a4:	31a0306b 	rrxcc	r3, fp

000006a8 <l300>:
     6a8:	61a0ad64 	rorvs	sl, r4, #26

000006ac <l301>:
     6ac:	53b0e7c2 	movspl	lr, #50855936	; 0x3080000

000006b0 <l302>:
     6b0:	e1a0e762 	ror	lr, r2, #14

000006b4 <l303>:
     6b4:	73a08a1b 	movvc	r8, #110592	; 0x1b000

000006b8 <l304>:
     6b8:	03b065bb 	movseq	r6, #784334848	; 0x2ec00000

000006bc <l305>:
     6bc:	e3b06889 	movs	r6, #8978432	; 0x890000

000006c0 <l306>:
     6c0:	93b0208f 	movsls	r2, #143	; 0x8f

000006c4 <l307>:
     6c4:	e3b0bd6d 	movs	fp, #6976	; 0x1b40

000006c8 <l308>:
     6c8:	01a0a00e 	moveq	sl, lr

000006cc <l309>:
     6cc:	e3a0230b 	mov	r2, #738197504	; 0x2c000000

000006d0 <l310>:
     6d0:	11b06007 	movsne	r6, r7

000006d4 <l311>:
     6d4:	e1a07003 	mov	r7, r3

000006d8 <l312>:
     6d8:	31b0a008 	movscc	sl, r8

000006dc <l313>:
     6dc:	01b0100b 	movseq	r1, fp

000006e0 <l314>:
     6e0:	e1a09928 	lsr	r9, r8, #18

000006e4 <l315>:
     6e4:	e1b08325 	lsrs	r8, r5, #6

000006e8 <l316>:
     6e8:	b1b0500c 	movslt	r5, ip

000006ec <l317>:
     6ec:	a1a0b472 	rorge	fp, r2, r4

000006f0 <l318>:
     6f0:	41b02344 	asrsmi	r2, r4, #6

000006f4 <l319>:
     6f4:	31a0ba3a 	lsrcc	fp, sl, sl

000006f8 <l320>:
     6f8:	d1b01b03 	lslsle	r1, r3, #22

000006fc <l321>:
     6fc:	e1a07002 	mov	r7, r2

00000700 <l322>:
     700:	01b07001 	movseq	r7, r1

00000704 <l323>:
     704:	e1b09766 	rors	r9, r6, #14

00000708 <l324>:
     708:	03a0ec41 	moveq	lr, #16640	; 0x4100

0000070c <l325>:
     70c:	d1b0435e 	asrsle	r4, lr, r3

00000710 <l326>:
     710:	53a0c7ce 	movpl	ip, #54001664	; 0x3380000

00000714 <l327>:
     714:	e1a097a3 	lsr	r9, r3, #15

00000718 <l328>:
     718:	41a0ea76 	rormi	lr, r6, sl

0000071c <l329>:
     71c:	e1b08008 	movs	r8, r8

00000720 <l330>:
     720:	e3b0798e 	movs	r7, #2326528	; 0x238000

00000724 <l331>:
     724:	31a08e37 	lsrcc	r8, r7, lr

00000728 <l332>:
     728:	e1b08016 	lsls	r8, r6, r0

0000072c <l333>:
     72c:	e1a01009 	mov	r1, r9

00000730 <l334>:
     730:	81b0e06c 	rrxshi	lr, ip

00000734 <l335>:
     734:	83b09c42 	movshi	r9, #16896	; 0x4200

00000738 <l336>:
     738:	51a0eb33 	lsrpl	lr, r3, fp

0000073c <l337>:
     73c:	e3b04d12 	movs	r4, #1152	; 0x480

00000740 <l338>:
     740:	a1b0adc1 	asrsge	sl, r1, #27

00000744 <l339>:
     744:	91a07543 	asrls	r7, r3, #10

00000748 <l340>:
     748:	e1b0b00f 	movs	fp, pc

0000074c <l341>:
     74c:	b1b02003 	movslt	r2, r3

00000750 <l342>:
     750:	61a0500c 	movvs	r5, ip

00000754 <l343>:
     754:	e1a0a805 	lsl	sl, r5, #16

00000758 <l344>:
     758:	e1b01000 	movs	r1, r0

0000075c <l345>:
     75c:	e1a0b06b 	rrx	fp, fp

00000760 <l346>:
     760:	51a0e463 	rorpl	lr, r3, #8

00000764 <l347>:
     764:	81b04c04 	lslshi	r4, r4, #24

00000768 <l348>:
     768:	23b01646 	movscs	r1, #73400320	; 0x4600000

0000076c <l349>:
     76c:	b3b08526 	movslt	r8, #159383552	; 0x9800000

00000770 <l350>:
     770:	31a0500c 	movcc	r5, ip

00000774 <l351>:
     774:	91b00870 	rorsls	r0, r0, r8

00000778 <l352>:
     778:	51b05001 	movspl	r5, r1

0000077c <l353>:
     77c:	e1a00060 	rrx	r0, r0

00000780 <l354>:
     780:	91b08003 	movsls	r8, r3

00000784 <l355>:
     784:	81a0700f 	movhi	r7, pc

00000788 <l356>:
     788:	41a0bb13 	lslmi	fp, r3, fp

0000078c <l357>:
     78c:	a1b0a432 	lsrsge	sl, r2, r4

00000790 <l358>:
     790:	a1b0a066 	rrxsge	sl, r6

00000794 <l359>:
     794:	e1a0306f 	rrx	r3, pc

00000798 <l360>:
     798:	e1b0aac9 	asrs	sl, r9, #21

0000079c <l361>:
     79c:	e1a02237 	lsr	r2, r7, r2

000007a0 <l362>:
     7a0:	01b0a068 	rrxseq	sl, r8

000007a4 <l363>:
     7a4:	71a02732 	lsrvc	r2, r2, r7

000007a8 <l364>:
     7a8:	41b04066 	rrxsmi	r4, r6

000007ac <l365>:
     7ac:	e1a06007 	mov	r6, r7

000007b0 <l366>:
     7b0:	81a0b1ab 	lsrhi	fp, fp, #3

000007b4 <l367>:
     7b4:	31a0b00e 	movcc	fp, lr

000007b8 <l368>:
     7b8:	01a02067 	rrxeq	r2, r7

000007bc <l369>:
     7bc:	e3b09281 	movs	r9, #268435464	; 0x10000008

000007c0 <l370>:
     7c0:	13a0c611 	movne	ip, #17825792	; 0x1100000

000007c4 <l371>:
     7c4:	61b0c236 	lsrsvs	ip, r6, r2

000007c8 <l372>:
     7c8:	c1b01002 	movsgt	r1, r2

000007cc <l373>:
     7cc:	e1b05061 	rrxs	r5, r1

000007d0 <l374>:
     7d0:	e1a03060 	rrx	r3, r0

000007d4 <l375>:
     7d4:	e1b09006 	movs	r9, r6

000007d8 <l376>:
     7d8:	a3a08137 	movge	r8, #-1073741811	; 0xc000000d

000007dc <l377>:
     7dc:	e3b08c36 	movs	r8, #13824	; 0x3600

000007e0 <l378>:
     7e0:	e1a03068 	rrx	r3, r8

000007e4 <l379>:
     7e4:	a1b08737 	lsrsge	r8, r7, r7

000007e8 <l380>:
     7e8:	11b0300f 	movsne	r3, pc

000007ec <l381>:
     7ec:	e3b07013 	movs	r7, #19

000007f0 <l382>:
     7f0:	41b05b07 	lslsmi	r5, r7, #22

000007f4 <l383>:
     7f4:	01a0700a 	moveq	r7, sl

000007f8 <l384>:
     7f8:	a1b03001 	movsge	r3, r1

000007fc <l385>:
     7fc:	c1b02470 	rorsgt	r2, r0, r4

00000800 <l386>:
     800:	01a04878 	roreq	r4, r8, r8

00000804 <l387>:
     804:	e1b08069 	rrxs	r8, r9

00000808 <l388>:
     808:	e3a0242f 	mov	r2, #788529152	; 0x2f000000

0000080c <l389>:
     80c:	11b0e008 	movsne	lr, r8

00000810 <l390>:
     810:	e1a0c00a 	mov	ip, sl

00000814 <l391>:
     814:	e1a0ba1a 	lsl	fp, sl, sl

00000818 <l392>:
     818:	e1b0b8a3 	lsrs	fp, r3, #17

0000081c <l393>:
     81c:	e1b04968 	rors	r4, r8, #18

00000820 <l394>:
     820:	e3b05112 	movs	r5, #-2147483644	; 0x80000004

00000824 <l395>:
     824:	e3b02ac3 	movs	r2, #798720	; 0xc3000

00000828 <l396>:
     828:	71b03004 	movsvc	r3, r4

0000082c <l397>:
     82c:	e1b01166 	rors	r1, r6, #2

00000830 <l398>:
     830:	e1a08006 	mov	r8, r6

00000834 <l399>:
     834:	91a0a653 	asrls	sl, r3, r6

00000838 <l400>:
     838:	c1a0400a 	movgt	r4, sl

0000083c <l401>:
     83c:	51a0500a 	movpl	r5, sl

00000840 <l402>:
     840:	c3b04c7f 	movsgt	r4, #32512	; 0x7f00

00000844 <l403>:
     844:	53a0a41b 	movpl	sl, #452984832	; 0x1b000000

00000848 <l404>:
     848:	e1b06004 	movs	r6, r4

0000084c <l405>:
     84c:	e1a0a164 	ror	sl, r4, #2

00000850 <l406>:
     850:	11a0ed62 	rorne	lr, r2, #26

00000854 <l407>:
     854:	63a0b3c7 	movvs	fp, #469762051	; 0x1c000003

00000858 <l408>:
     858:	e3a011b9 	mov	r1, #1073741870	; 0x4000002e

0000085c <l409>:
     85c:	81b0a376 	rorshi	sl, r6, r3

00000860 <l410>:
     860:	e1a09450 	asr	r9, r0, r4

00000864 <l411>:
     864:	e3b03783 	movs	r3, #34340864	; 0x20c0000

00000868 <l412>:
     868:	21a060a2 	lsrcs	r6, r2, #1

0000086c <l413>:
     86c:	51b0083e 	lsrspl	r0, lr, r8

00000870 <l414>:
     870:	21b06266 	rorscs	r6, r6, #4

00000874 <l415>:
     874:	e1b0a47c 	rors	sl, ip, r4

00000878 <l416>:
     878:	e1b04a17 	lsls	r4, r7, sl

0000087c <l417>:
     87c:	e1b0be54 	asrs	fp, r4, lr

00000880 <l418>:
     880:	01b0406c 	rrxseq	r4, ip

00000884 <l419>:
     884:	d1a0852c 	lsrle	r8, ip, #10

00000888 <l420>:
     888:	e3a0218f 	mov	r2, #-1073741789	; 0xc0000023

0000088c <l421>:
     88c:	e1b04008 	movs	r4, r8

00000890 <l422>:
     890:	03a01cf2 	moveq	r1, #61952	; 0xf200

00000894 <l423>:
     894:	e1b0a236 	lsrs	sl, r6, r2

00000898 <l424>:
     898:	93b0e49a 	movsls	lr, #-1711276032	; 0x9a000000

0000089c <l425>:
     89c:	b1b08156 	asrslt	r8, r6, r1

000008a0 <l426>:
     8a0:	d3b0a817 	movsle	sl, #1507328	; 0x170000

000008a4 <l427>:
     8a4:	d3a0874b 	movle	r8, #19660800	; 0x12c0000

000008a8 <l428>:
     8a8:	31a01b01 	lslcc	r1, r1, #22

000008ac <l429>:
     8ac:	e1a06f41 	asr	r6, r1, #30

000008b0 <l430>:
     8b0:	e3b02d16 	movs	r2, #1408	; 0x580

000008b4 <l431>:
     8b4:	e1a03dc7 	asr	r3, r7, #27

000008b8 <l432>:
     8b8:	b1a09a04 	lsllt	r9, r4, #20

000008bc <l433>:
     8bc:	e1b08c78 	rors	r8, r8, ip

000008c0 <l434>:
     8c0:	e1a0493c 	lsr	r4, ip, r9

000008c4 <l435>:
     8c4:	a1b08009 	movsge	r8, r9

000008c8 <l436>:
     8c8:	d1b0b031 	lsrsle	fp, r1, r0

000008cc <l437>:
     8cc:	d1a05001 	movle	r5, r1

000008d0 <l438>:
     8d0:	d1a03000 	movle	r3, r0

000008d4 <l439>:
     8d4:	93b043df 	movsls	r4, #2080374787	; 0x7c000003

000008d8 <l440>:
     8d8:	c1b0b064 	rrxsgt	fp, r4

000008dc <l441>:
     8dc:	e1a065eb 	ror	r6, fp, #11

000008e0 <l442>:
     8e0:	b1b0296a 	rorslt	r2, sl, #18

000008e4 <l443>:
     8e4:	e1a0a00e 	mov	sl, lr

000008e8 <l444>:
     8e8:	e1b08067 	rrxs	r8, r7

000008ec <l445>:
     8ec:	33b080cc 	movscc	r8, #204	; 0xcc

000008f0 <l446>:
     8f0:	41b08d45 	asrsmi	r8, r5, #26

000008f4 <l447>:
     8f4:	b3b0cd87 	movslt	ip, #8640	; 0x21c0

000008f8 <l448>:
     8f8:	c1b07003 	movsgt	r7, r3

000008fc <l449>:
     8fc:	51a0307a 	rorpl	r3, sl, r0

00000900 <l450>:
     900:	33b0cb56 	movscc	ip, #88064	; 0x15800

00000904 <l451>:
     904:	e1b0500b 	movs	r5, fp

00000908 <l452>:
     908:	e1a01000 	mov	r1, r0

0000090c <l453>:
     90c:	e1a0300f 	mov	r3, pc

00000910 <l454>:
     910:	11b07188 	lslsne	r7, r8, #3

00000914 <l455>:
     914:	e1b09006 	movs	r9, r6

00000918 <l456>:
     918:	e1b01819 	lsls	r1, r9, r8

0000091c <l457>:
     91c:	e1b0b367 	rors	fp, r7, #6

00000920 <l458>:
     920:	73a0b6af 	movvc	fp, #183500800	; 0xaf00000

00000924 <l459>:
     924:	01b04007 	movseq	r4, r7

00000928 <l460>:
     928:	03a00359 	moveq	r0, #1677721601	; 0x64000001

0000092c <l461>:
     92c:	e1b09009 	movs	r9, r9

00000930 <l462>:
     930:	71b0200c 	movsvc	r2, ip

00000934 <l463>:
     934:	93a0c335 	movls	ip, #-738197504	; 0xd4000000

00000938 <l464>:
     938:	c3b03e36 	movsgt	r3, #864	; 0x360

0000093c <l465>:
     93c:	b1a01061 	rrxlt	r1, r1

00000940 <l466>:
     940:	e1a0e004 	mov	lr, r4

00000944 <l467>:
     944:	e1a06006 	mov	r6, r6

00000948 <l468>:
     948:	51b06247 	asrspl	r6, r7, #4

0000094c <l469>:
     94c:	e1a05a36 	lsr	r5, r6, sl

00000950 <l470>:
     950:	93b0617e 	movsls	r6, #-2147483617	; 0x8000001f

00000954 <l471>:
     954:	e3b05ee6 	movs	r5, #3680	; 0xe60

00000958 <l472>:
     958:	33a00077 	movcc	r0, #119	; 0x77

0000095c <l473>:
     95c:	e1b07737 	lsrs	r7, r7, r7

00000960 <l474>:
     960:	61a0500f 	movvs	r5, pc

00000964 <l475>:
     964:	51b03007 	movspl	r3, r7

00000968 <l476>:
     968:	e3a00dde 	mov	r0, #14208	; 0x3780

0000096c <l477>:
     96c:	51a0e006 	movpl	lr, r6

00000970 <l478>:
     970:	31a026e0 	rorcc	r2, r0, #13

00000974 <l479>:
     974:	13b0bccb 	movsne	fp, #51968	; 0xcb00

00000978 <l480>:
     978:	21a0ab62 	rorcs	sl, r2, #22

0000097c <l481>:
     97c:	01a0000a 	moveq	r0, sl

00000980 <l482>:
     980:	81a01a7c 	rorhi	r1, ip, sl

00000984 <l483>:
     984:	01a0a000 	moveq	sl, r0

00000988 <l484>:
     988:	e1b0ae55 	asrs	sl, r5, lr

0000098c <l485>:
     98c:	d1b0700b 	movsle	r7, fp

00000990 <l486>:
     990:	51a08625 	lsrpl	r8, r5, #12

00000994 <l487>:
     994:	e1a09749 	asr	r9, r9, #14

00000998 <l488>:
     998:	93a07903 	movls	r7, #49152	; 0xc000

0000099c <l489>:
     99c:	e1b07935 	lsrs	r7, r5, r9

000009a0 <l490>:
     9a0:	c1a0a008 	movgt	sl, r8

000009a4 <l491>:
     9a4:	e1a00068 	rrx	r0, r8

000009a8 <l492>:
     9a8:	e1a04007 	mov	r4, r7

000009ac <l493>:
     9ac:	01b0200c 	movseq	r2, ip

000009b0 <l494>:
     9b0:	e1a03319 	lsl	r3, r9, r3

000009b4 <l495>:
     9b4:	e3a0c49f 	mov	ip, #-1627389952	; 0x9f000000

000009b8 <l496>:
     9b8:	e1a0897a 	ror	r8, sl, r9

000009bc <l497>:
     9bc:	e1b0af26 	lsrs	sl, r6, #30

000009c0 <l498>:
     9c0:	e1a0c3eb 	ror	ip, fp, #7

000009c4 <l499>:
     9c4:	e1b011af 	lsrs	r1, pc, #3

000009c8 <l500>:
     9c8:	73b0e176 	movsvc	lr, #-2147483619	; 0x8000001d

000009cc <l501>:
     9cc:	e3a052ce 	mov	r5, #-536870900	; 0xe000000c

000009d0 <l502>:
     9d0:	b1b01151 	asrslt	r1, r1, r1

000009d4 <l503>:
     9d4:	41a08455 	asrmi	r8, r5, r4

000009d8 <l504>:
     9d8:	e1a0200c 	mov	r2, ip

000009dc <l505>:
     9dc:	e1b09c0c 	lsls	r9, ip, #24

000009e0 <l506>:
     9e0:	d1b08005 	movsle	r8, r5

000009e4 <l507>:
     9e4:	d1a01907 	lslle	r1, r7, #18

000009e8 <l508>:
     9e8:	41a0a001 	movmi	sl, r1

000009ec <l509>:
     9ec:	b3a06553 	movlt	r6, #348127232	; 0x14c00000

000009f0 <l510>:
     9f0:	e1b0c82c 	lsrs	ip, ip, #16

000009f4 <l511>:
     9f4:	61a05461 	rorvs	r5, r1, #8

000009f8 <l512>:
     9f8:	e1a05005 	mov	r5, r5

000009fc <l513>:
     9fc:	43a0931d 	movmi	r9, #1946157056	; 0x74000000

00000a00 <l514>:
     a00:	c1a0e009 	movgt	lr, r9

00000a04 <l515>:
     a04:	e1b01007 	movs	r1, r7

00000a08 <l516>:
     a08:	e1b0807b 	rors	r8, fp, r0

00000a0c <l517>:
     a0c:	e1b002e8 	rors	r0, r8, #5

00000a10 <l518>:
     a10:	e1a0100c 	mov	r1, ip

00000a14 <l519>:
     a14:	31a03a5a 	asrcc	r3, sl, sl

00000a18 <l520>:
     a18:	e1b0806a 	rrxs	r8, sl

00000a1c <l521>:
     a1c:	c1b0a063 	rrxsgt	sl, r3

00000a20 <l522>:
     a20:	e3a09e67 	mov	r9, #1648	; 0x670

00000a24 <l523>:
     a24:	81a0a3ae 	lsrhi	sl, lr, #7

00000a28 <l524>:
     a28:	e1b02376 	rors	r2, r6, r3

00000a2c <l525>:
     a2c:	51a04401 	lslpl	r4, r1, #8

00000a30 <l526>:
     a30:	e1b041e0 	rors	r4, r0, #3

00000a34 <l527>:
     a34:	a3a07779 	movge	r7, #31719424	; 0x1e40000

00000a38 <l528>:
     a38:	91b05007 	movsls	r5, r7

00000a3c <l529>:
     a3c:	01b00634 	lsrseq	r0, r4, r6

00000a40 <l530>:
     a40:	b1b02cc9 	asrslt	r2, r9, #25

00000a44 <l531>:
     a44:	21b05912 	lslscs	r5, r2, r9

00000a48 <l532>:
     a48:	e1a0a016 	lsl	sl, r6, r0

00000a4c <l533>:
     a4c:	81b01000 	movshi	r1, r0

00000a50 <l534>:
     a50:	e1a05003 	mov	r5, r3

00000a54 <l535>:
     a54:	d1a09002 	movle	r9, r2

00000a58 <l536>:
     a58:	71b0a655 	asrsvc	sl, r5, r6

00000a5c <l537>:
     a5c:	e1b08001 	movs	r8, r1

00000a60 <l538>:
     a60:	e1b01b6e 	rors	r1, lr, #22

00000a64 <l539>:
     a64:	e1a02003 	mov	r2, r3

00000a68 <l540>:
     a68:	e1a0200c 	mov	r2, ip

00000a6c <l541>:
     a6c:	e3b009a9 	movs	r0, #2768896	; 0x2a4000

00000a70 <l542>:
     a70:	e1b0e06a 	rrxs	lr, sl

00000a74 <l543>:
     a74:	e3a0332d 	mov	r3, #-1275068416	; 0xb4000000

00000a78 <l544>:
     a78:	b3a0a2e9 	movlt	sl, #-1879048178	; 0x9000000e

00000a7c <l545>:
     a7c:	e1b0382a 	lsrs	r3, sl, #16

00000a80 <l546>:
     a80:	e3a0c913 	mov	ip, #311296	; 0x4c000

00000a84 <l547>:
     a84:	e1a05ea2 	lsr	r5, r2, #29

00000a88 <l548>:
     a88:	31a06063 	rrxcc	r6, r3

00000a8c <l549>:
     a8c:	b1a04008 	movlt	r4, r8

00000a90 <l550>:
     a90:	d1a02000 	movle	r2, r0

00000a94 <l551>:
     a94:	31a0600e 	movcc	r6, lr

00000a98 <l552>:
     a98:	e1b0000a 	movs	r0, sl

00000a9c <l553>:
     a9c:	a1a0800a 	movge	r8, sl

00000aa0 <l554>:
     aa0:	61a02061 	rrxvs	r2, r1

00000aa4 <l555>:
     aa4:	73b04e3b 	movsvc	r4, #944	; 0x3b0

00000aa8 <l556>:
     aa8:	73b0992d 	movsvc	r9, #737280	; 0xb4000

00000aac <l557>:
     aac:	21a0000e 	movcs	r0, lr

00000ab0 <l558>:
     ab0:	e1b0c206 	lsls	ip, r6, #4

00000ab4 <l559>:
     ab4:	91b0900a 	movsls	r9, sl

00000ab8 <l560>:
     ab8:	e3a0ea46 	mov	lr, #286720	; 0x46000

00000abc <l561>:
     abc:	53a03c17 	movpl	r3, #5888	; 0x1700

00000ac0 <l562>:
     ac0:	41a07006 	movmi	r7, r6

00000ac4 <l563>:
     ac4:	63b09c36 	movsvs	r9, #13824	; 0x3600

00000ac8 <l564>:
     ac8:	e3b02d0e 	movs	r2, #896	; 0x380

00000acc <l565>:
     acc:	e1b0800f 	movs	r8, pc

00000ad0 <l566>:
     ad0:	73b04a22 	movsvc	r4, #139264	; 0x22000

00000ad4 <l567>:
     ad4:	e1a0100f 	mov	r1, pc

00000ad8 <l568>:
     ad8:	01b04238 	lsrseq	r4, r8, r2

00000adc <l569>:
     adc:	e3b0e0a7 	movs	lr, #167	; 0xa7

00000ae0 <l570>:
     ae0:	c1a0676a 	rorgt	r6, sl, #14

00000ae4 <l571>:
     ae4:	e1b0b002 	movs	fp, r2

00000ae8 <l572>:
     ae8:	61a0a061 	rrxvs	sl, r1

00000aec <l573>:
     aec:	e3b04e11 	movs	r4, #272	; 0x110

00000af0 <l574>:
     af0:	e1a01002 	mov	r1, r2

00000af4 <l575>:
     af4:	93b084da 	movsls	r8, #-637534208	; 0xda000000

00000af8 <l576>:
     af8:	21a084c5 	asrcs	r8, r5, #9

00000afc <l577>:
     afc:	61b01002 	movsvs	r1, r2

00000b00 <l578>:
     b00:	e1a0600b 	mov	r6, fp

00000b04 <l579>:
     b04:	d1a08004 	movle	r8, r4

00000b08 <l580>:
     b08:	e1a04001 	mov	r4, r1

00000b0c <l581>:
     b0c:	c1a09e58 	asrgt	r9, r8, lr

00000b10 <l582>:
     b10:	41b00088 	lslsmi	r0, r8, #1

00000b14 <l583>:
     b14:	a3a02903 	movge	r2, #49152	; 0xc000

00000b18 <l584>:
     b18:	e1a0b3c8 	asr	fp, r8, #7

00000b1c <l585>:
     b1c:	43b0bd8f 	movsmi	fp, #9152	; 0x23c0

00000b20 <l586>:
     b20:	e1a0e064 	rrx	lr, r4

00000b24 <l587>:
     b24:	a1b03002 	movsge	r3, r2

00000b28 <l588>:
     b28:	b1b00008 	movslt	r0, r8

00000b2c <l589>:
     b2c:	e1b08006 	movs	r8, r6

00000b30 <l590>:
     b30:	11b09672 	rorsne	r9, r2, r6

00000b34 <l591>:
     b34:	71a01009 	movvc	r1, r9

00000b38 <l592>:
     b38:	e1a0c00f 	mov	ip, pc

00000b3c <l593>:
     b3c:	e1b07a15 	lsls	r7, r5, sl

00000b40 <l594>:
     b40:	e3a026a9 	mov	r2, #177209344	; 0xa900000

00000b44 <l595>:
     b44:	73a0126d 	movvc	r1, #-805306362	; 0xd0000006

00000b48 <l596>:
     b48:	81b0645b 	asrshi	r6, fp, r4

00000b4c <l597>:
     b4c:	e3b0cfba 	movs	ip, #744	; 0x2e8

00000b50 <l598>:
     b50:	e3b0ba8a 	movs	fp, #565248	; 0x8a000

00000b54 <l599>:
     b54:	e1b0c000 	movs	ip, r0

00000b58 <l600>:
     b58:	71a0e008 	movvc	lr, r8

00000b5c <l601>:
     b5c:	e1b0a00f 	movs	sl, pc

00000b60 <l602>:
     b60:	21b05c3c 	lsrscs	r5, ip, ip

00000b64 <l603>:
     b64:	11a02a19 	lslne	r2, r9, sl

00000b68 <l604>:
     b68:	b1a09005 	movlt	r9, r5

00000b6c <l605>:
     b6c:	51b0a06b 	rrxspl	sl, fp

00000b70 <l606>:
     b70:	e1b04007 	movs	r4, r7

00000b74 <l607>:
     b74:	93b0466e 	movsls	r4, #115343360	; 0x6e00000

00000b78 <l608>:
     b78:	e1b0574f 	asrs	r5, pc, #14

00000b7c <l609>:
     b7c:	d1b04c09 	lslsle	r4, r9, #24

00000b80 <l610>:
     b80:	83a0b73d 	movhi	fp, #15990784	; 0xf40000

00000b84 <l611>:
     b84:	01b00031 	lsrseq	r0, r1, r0

00000b88 <l612>:
     b88:	e1b01963 	rors	r1, r3, #18

00000b8c <l613>:
     b8c:	e3b09037 	movs	r9, #55	; 0x37

00000b90 <l614>:
     b90:	e1b094e1 	rors	r9, r1, #9

00000b94 <l615>:
     b94:	13b0a91e 	movsne	sl, #491520	; 0x78000

00000b98 <l616>:
     b98:	e1a0033c 	lsr	r0, ip, r3

00000b9c <l617>:
     b9c:	e1b0ba25 	lsrs	fp, r5, #20

00000ba0 <l618>:
     ba0:	e1b0a17e 	rors	sl, lr, r1

00000ba4 <l619>:
     ba4:	23b08865 	movscs	r8, #6619136	; 0x650000

00000ba8 <l620>:
     ba8:	e1a07004 	mov	r7, r4

00000bac <l621>:
     bac:	d1a00005 	movle	r0, r5

00000bb0 <l622>:
     bb0:	41b07472 	rorsmi	r7, r2, r4

00000bb4 <l623>:
     bb4:	c1b0ac12 	lslsgt	sl, r2, ip

00000bb8 <l624>:
     bb8:	e1a01212 	lsl	r1, r2, r2

00000bbc <l625>:
     bbc:	a3a058fb 	movge	r5, #16449536	; 0xfb0000

00000bc0 <l626>:
     bc0:	d1b04009 	movsle	r4, r9

00000bc4 <l627>:
     bc4:	91b04008 	movsls	r4, r8

00000bc8 <l628>:
     bc8:	a3a081c3 	movge	r8, #-1073741776	; 0xc0000030

00000bcc <l629>:
     bcc:	e1b0800e 	movs	r8, lr

00000bd0 <l630>:
     bd0:	e1b0e001 	movs	lr, r1

00000bd4 <l631>:
     bd4:	e1b05003 	movs	r5, r3

00000bd8 <l632>:
     bd8:	83b0eaf9 	movshi	lr, #1019904	; 0xf9000

00000bdc <l633>:
     bdc:	e1b07000 	movs	r7, r0

00000be0 <l634>:
     be0:	c1b05177 	rorsgt	r5, r7, r1

00000be4 <l635>:
     be4:	e1b0ac53 	asrs	sl, r3, ip

00000be8 <l636>:
     be8:	21a0115b 	asrcs	r1, fp, r1

00000bec <l637>:
     bec:	31a0c000 	movcc	ip, r0

00000bf0 <l638>:
     bf0:	01a0500a 	moveq	r5, sl

00000bf4 <l639>:
     bf4:	21b011ae 	lsrscs	r1, lr, #3

00000bf8 <l640>:
     bf8:	e1b0e001 	movs	lr, r1

00000bfc <l641>:
     bfc:	e3a0a5f1 	mov	sl, #1010827264	; 0x3c400000

00000c00 <l642>:
     c00:	e1a0800f 	mov	r8, pc

00000c04 <l643>:
     c04:	e1a0b375 	ror	fp, r5, r3

00000c08 <l644>:
     c08:	e3b0574f 	movs	r5, #20709376	; 0x13c0000

00000c0c <l645>:
     c0c:	71b08a23 	lsrsvc	r8, r3, #20

00000c10 <l646>:
     c10:	71a0b009 	movvc	fp, r9

00000c14 <l647>:
     c14:	71a0b001 	movvc	fp, r1

00000c18 <l648>:
     c18:	33b0ea09 	movscc	lr, #36864	; 0x9000

00000c1c <l649>:
     c1c:	e1a0a08f 	lsl	sl, pc, #1

00000c20 <l650>:
     c20:	e1b0b062 	rrxs	fp, r2

00000c24 <l651>:
     c24:	e1b0b615 	lsls	fp, r5, r6

00000c28 <l652>:
     c28:	11b0041b 	lslsne	r0, fp, r4

00000c2c <l653>:
     c2c:	e1b0c324 	lsrs	ip, r4, #6

00000c30 <l654>:
     c30:	e1a01a01 	lsl	r1, r1, #20

00000c34 <l655>:
     c34:	41b07a0b 	lslsmi	r7, fp, #20

00000c38 <l656>:
     c38:	81a0201b 	lslhi	r2, fp, r0

00000c3c <l657>:
     c3c:	31b0117c 	rorscc	r1, ip, r1

00000c40 <l658>:
     c40:	e3a0ba22 	mov	fp, #139264	; 0x22000

00000c44 <l659>:
     c44:	61b0b7aa 	lsrsvs	fp, sl, #15

00000c48 <l660>:
     c48:	91b0b670 	rorsls	fp, r0, r6

00000c4c <l661>:
     c4c:	e1a0a00a 	mov	sl, sl

00000c50 <l662>:
     c50:	e1a0760c 	lsl	r7, ip, #12

00000c54 <l663>:
     c54:	e3a049e7 	mov	r4, #3784704	; 0x39c000

00000c58 <l664>:
     c58:	01a09314 	lsleq	r9, r4, r3

00000c5c <l665>:
     c5c:	91a02574 	rorls	r2, r4, r5

00000c60 <l666>:
     c60:	81b0b009 	movshi	fp, r9

00000c64 <l667>:
     c64:	e3b02fd6 	movs	r2, #856	; 0x358

00000c68 <l668>:
     c68:	d1b06faa 	lsrsle	r6, sl, #31

00000c6c <l669>:
     c6c:	e3b0cc23 	movs	ip, #8960	; 0x2300

00000c70 <l670>:
     c70:	c1b03615 	lslsgt	r3, r5, r6

00000c74 <l671>:
     c74:	b1b0300c 	movslt	r3, ip

00000c78 <l672>:
     c78:	e1b0317a 	rors	r3, sl, r1

00000c7c <l673>:
     c7c:	11a0600f 	movne	r6, pc

00000c80 <l674>:
     c80:	c1a0e004 	movgt	lr, r4

00000c84 <l675>:
     c84:	e3a01201 	mov	r1, #268435456	; 0x10000000

00000c88 <l676>:
     c88:	a1b00b78 	rorsge	r0, r8, fp

00000c8c <l677>:
     c8c:	e1b0ec78 	rors	lr, r8, ip

00000c90 <l678>:
     c90:	e1a0b002 	mov	fp, r2

00000c94 <l679>:
     c94:	e3b0ea53 	movs	lr, #339968	; 0x53000

00000c98 <l680>:
     c98:	e1a0800c 	mov	r8, ip

00000c9c <l681>:
     c9c:	e1b0c003 	movs	ip, r3

00000ca0 <l682>:
     ca0:	91a08410 	lslls	r8, r0, r4

00000ca4 <l683>:
     ca4:	43b0552d 	movsmi	r5, #188743680	; 0xb400000

00000ca8 <l684>:
     ca8:	e1b0a15b 	asrs	sl, fp, r1

00000cac <l685>:
     cac:	e1b0b06a 	rrxs	fp, sl

00000cb0 <l686>:
     cb0:	81b0c72e 	lsrshi	ip, lr, #14

00000cb4 <l687>:
     cb4:	e3a0806e 	mov	r8, #110	; 0x6e

00000cb8 <l688>:
     cb8:	d3a02207 	movle	r2, #1879048192	; 0x70000000

00000cbc <l689>:
     cbc:	e1b083cf 	asrs	r8, pc, #7

00000cc0 <l690>:
     cc0:	31a0800a 	movcc	r8, sl

00000cc4 <l691>:
     cc4:	21a0300c 	movcs	r3, ip

00000cc8 <l692>:
     cc8:	e1a0172c 	lsr	r1, ip, #14

00000ccc <l693>:
     ccc:	71b0e858 	asrsvc	lr, r8, r8

00000cd0 <l694>:
     cd0:	e3a09cc9 	mov	r9, #51456	; 0xc900

00000cd4 <l695>:
     cd4:	e1a06006 	mov	r6, r6

00000cd8 <l696>:
     cd8:	e3a0ac4d 	mov	sl, #19712	; 0x4d00

00000cdc <l697>:
     cdc:	71b09c1c 	lslsvc	r9, ip, ip

00000ce0 <l698>:
     ce0:	e3a0b301 	mov	fp, #67108864	; 0x4000000

00000ce4 <l699>:
     ce4:	a1a00878 	rorge	r0, r8, r8

00000ce8 <l700>:
     ce8:	51a0000c 	movpl	r0, ip

00000cec <l701>:
     cec:	11a05172 	rorne	r5, r2, r1

00000cf0 <l702>:
     cf0:	81a0a515 	lslhi	sl, r5, r5

00000cf4 <l703>:
     cf4:	b1b0b007 	movslt	fp, r7

00000cf8 <l704>:
     cf8:	63a02c7d 	movvs	r2, #32000	; 0x7d00

00000cfc <l705>:
     cfc:	01a03a76 	roreq	r3, r6, sl

00000d00 <l706>:
     d00:	41b01b14 	lslsmi	r1, r4, fp

00000d04 <l707>:
     d04:	e1a02008 	mov	r2, r8

00000d08 <l708>:
     d08:	e3b06553 	movs	r6, #348127232	; 0x14c00000

00000d0c <l709>:
     d0c:	73a04071 	movvc	r4, #113	; 0x71

00000d10 <l710>:
     d10:	51a0b735 	lsrpl	fp, r5, r7

00000d14 <l711>:
     d14:	31b0106f 	rrxscc	r1, pc

00000d18 <l712>:
     d18:	d1b0b00f 	movsle	fp, pc

00000d1c <l713>:
     d1c:	71a01005 	movvc	r1, r5

00000d20 <l714>:
     d20:	a1b0c85b 	asrsge	ip, fp, r8

00000d24 <l715>:
     d24:	41b0a068 	rrxsmi	sl, r8

00000d28 <l716>:
     d28:	21a01009 	movcs	r1, r9

00000d2c <l717>:
     d2c:	e3b0b79b 	movs	fp, #40632320	; 0x26c0000

00000d30 <l718>:
     d30:	73b0b407 	movsvc	fp, #117440512	; 0x7000000

00000d34 <l719>:
     d34:	e1b0500b 	movs	r5, fp

00000d38 <l720>:
     d38:	01a03063 	rrxeq	r3, r3

00000d3c <l721>:
     d3c:	e3a0c725 	mov	ip, #9699328	; 0x940000

00000d40 <l722>:
     d40:	a3b0cf8d 	movsge	ip, #564	; 0x234

00000d44 <l723>:
     d44:	71b08007 	movsvc	r8, r7

00000d48 <l724>:
     d48:	e1a085e1 	ror	r8, r1, #11

00000d4c <l725>:
     d4c:	23a0a45a 	movcs	sl, #1509949440	; 0x5a000000

00000d50 <l726>:
     d50:	a1b0921c 	lslsge	r9, ip, r2

00000d54 <l727>:
     d54:	03a08127 	moveq	r8, #-1073741815	; 0xc0000009

00000d58 <l728>:
     d58:	21a0225c 	asrcs	r2, ip, r2

00000d5c <l729>:
     d5c:	a1a0a861 	rorge	sl, r1, #16

00000d60 <l730>:
     d60:	21a0900e 	movcs	r9, lr

00000d64 <l731>:
     d64:	d3a08345 	movle	r8, #335544321	; 0x14000001

00000d68 <l732>:
     d68:	01a0713b 	lsreq	r7, fp, r1

00000d6c <l733>:
     d6c:	11b0655e 	asrsne	r6, lr, r5

00000d70 <l734>:
     d70:	e1b0706e 	rrxs	r7, lr

00000d74 <l735>:
     d74:	e1b044e5 	rors	r4, r5, #9

00000d78 <l736>:
     d78:	01a0b5e1 	roreq	fp, r1, #11

00000d7c <l737>:
     d7c:	e1a09872 	ror	r9, r2, r8

00000d80 <l738>:
     d80:	91a0e00f 	movls	lr, pc

00000d84 <l739>:
     d84:	51a059e8 	rorpl	r5, r8, #19

00000d88 <l740>:
     d88:	11a08b76 	rorne	r8, r6, fp

00000d8c <l741>:
     d8c:	d1b0025e 	asrsle	r0, lr, r2

00000d90 <l742>:
     d90:	e1b06caf 	lsrs	r6, pc, #25

00000d94 <l743>:
     d94:	b3a033ce 	movlt	r3, #939524099	; 0x38000003

00000d98 <l744>:
     d98:	23a0532a 	movcs	r5, #-1476395008	; 0xa8000000

00000d9c <l745>:
     d9c:	93a0ab07 	movls	sl, #7168	; 0x1c00

00000da0 <l746>:
     da0:	53b0aa37 	movspl	sl, #225280	; 0x37000

00000da4 <l747>:
     da4:	e1a0400e 	mov	r4, lr

00000da8 <l748>:
     da8:	e3b070c8 	movs	r7, #200	; 0xc8

00000dac <l749>:
     dac:	e1a08065 	rrx	r8, r5

00000db0 <l750>:
     db0:	e1a08006 	mov	r8, r6

00000db4 <l751>:
     db4:	63b097db 	movsvs	r9, #57409536	; 0x36c0000

00000db8 <l752>:
     db8:	e1a0b00c 	mov	fp, ip

00000dbc <l753>:
     dbc:	31b0962e 	lsrscc	r9, lr, #12

00000dc0 <l754>:
     dc0:	31b05009 	movscc	r5, r9

00000dc4 <l755>:
     dc4:	e1a0b000 	mov	fp, r0

00000dc8 <l756>:
     dc8:	91a0117a 	rorls	r1, sl, r1

00000dcc <l757>:
     dcc:	61a0c069 	rrxvs	ip, r9

00000dd0 <l758>:
     dd0:	43a04b02 	movmi	r4, #2048	; 0x800

00000dd4 <l759>:
     dd4:	a1b08173 	rorsge	r8, r3, r1

00000dd8 <l760>:
     dd8:	e3a07b16 	mov	r7, #22528	; 0x5800

00000ddc <l761>:
     ddc:	31b00001 	movscc	r0, r1

00000de0 <l762>:
     de0:	73b0c71f 	movsvc	ip, #8126464	; 0x7c0000

00000de4 <l763>:
     de4:	e1b0500b 	movs	r5, fp

00000de8 <l764>:
     de8:	43a0c4d9 	movmi	ip, #-654311424	; 0xd9000000

00000dec <l765>:
     dec:	21a04018 	lslcs	r4, r8, r0

00000df0 <l766>:
     df0:	e3b03525 	movs	r3, #155189248	; 0x9400000

00000df4 <l767>:
     df4:	01a04fec 	roreq	r4, ip, #31

00000df8 <l768>:
     df8:	e1b049c9 	asrs	r4, r9, #19

00000dfc <l769>:
     dfc:	b1a0c00b 	movlt	ip, fp

00000e00 <l770>:
     e00:	a1a01452 	asrge	r1, r2, r4

00000e04 <l771>:
     e04:	e1b0eb3a 	lsrs	lr, sl, fp

00000e08 <l772>:
     e08:	91a09b12 	lslls	r9, r2, fp

00000e0c <l773>:
     e0c:	91a0194e 	asrls	r1, lr, #18

00000e10 <l774>:
     e10:	e1a0800a 	mov	r8, sl

00000e14 <l775>:
     e14:	c1b0c031 	lsrsgt	ip, r1, r0

00000e18 <l776>:
     e18:	a3a0b159 	movge	fp, #1073741846	; 0x40000016

00000e1c <l777>:
     e1c:	a1a0a00e 	movge	sl, lr

00000e20 <l778>:
     e20:	e1a0e063 	rrx	lr, r3

00000e24 <l779>:
     e24:	e1b0c621 	lsrs	ip, r1, #12

00000e28 <l780>:
     e28:	31b0be66 	rorscc	fp, r6, #28

00000e2c <l781>:
     e2c:	e3a0145a 	mov	r1, #1509949440	; 0x5a000000

00000e30 <l782>:
     e30:	01b0e06b 	rrxseq	lr, fp

00000e34 <l783>:
     e34:	81b0b005 	movshi	fp, r5

00000e38 <l784>:
     e38:	b3a02caa 	movlt	r2, #43520	; 0xaa00

00000e3c <l785>:
     e3c:	e1a07a74 	ror	r7, r4, sl

00000e40 <l786>:
     e40:	e3b09506 	movs	r9, #25165824	; 0x1800000

00000e44 <l787>:
     e44:	e1b03e50 	asrs	r3, r0, lr

00000e48 <l788>:
     e48:	71a04516 	lslvc	r4, r6, r5

00000e4c <l789>:
     e4c:	e1b08068 	rrxs	r8, r8

00000e50 <l790>:
     e50:	31a0e533 	lsrcc	lr, r3, r5

00000e54 <l791>:
     e54:	a1a03006 	movge	r3, r6

00000e58 <l792>:
     e58:	e3a03c75 	mov	r3, #29952	; 0x7500

00000e5c <l793>:
     e5c:	a1a082aa 	lsrge	r8, sl, #5

00000e60 <l794>:
     e60:	b1b0e060 	rrxslt	lr, r0

00000e64 <l795>:
     e64:	91a07d66 	rorls	r7, r6, #26

00000e68 <l796>:
     e68:	93a08050 	movls	r8, #80	; 0x50

00000e6c <l797>:
     e6c:	a1b09c0e 	lslsge	r9, lr, #24

00000e70 <l798>:
     e70:	e3a0330f 	mov	r3, #1006632960	; 0x3c000000

00000e74 <l799>:
     e74:	e3b0ed2a 	movs	lr, #2688	; 0xa80

00000e78 <l800>:
     e78:	a1a05009 	movge	r5, r9

00000e7c <l801>:
     e7c:	c1b0a81e 	lslsgt	sl, lr, r8

00000e80 <l802>:
     e80:	e1b0b060 	rrxs	fp, r0

00000e84 <l803>:
     e84:	e1a0b000 	mov	fp, r0

00000e88 <l804>:
     e88:	93b0a040 	movsls	sl, #64	; 0x40

00000e8c <l805>:
     e8c:	e1a05983 	lsl	r5, r3, #19

00000e90 <l806>:
     e90:	e1a0b004 	mov	fp, r4

00000e94 <l807>:
     e94:	e1b0cd46 	asrs	ip, r6, #26

00000e98 <l808>:
     e98:	11b0b534 	lsrsne	fp, r4, r5

00000e9c <l809>:
     e9c:	e1a0294c 	asr	r2, ip, #18

00000ea0 <l810>:
     ea0:	e3b0e987 	movs	lr, #2211840	; 0x21c000

00000ea4 <l811>:
     ea4:	73b0b529 	movsvc	fp, #171966464	; 0xa400000

00000ea8 <l812>:
     ea8:	e1a0794a 	asr	r7, sl, #18

00000eac <l813>:
     eac:	d1a0aea6 	lsrle	sl, r6, #29

00000eb0 <l814>:
     eb0:	93b03709 	movsls	r3, #2359296	; 0x240000

00000eb4 <l815>:
     eb4:	51a0506a 	rrxpl	r5, sl

00000eb8 <l816>:
     eb8:	91b0ab71 	rorsls	sl, r1, fp

00000ebc <l817>:
     ebc:	e1a0a069 	rrx	sl, r9

00000ec0 <l818>:
     ec0:	11b09255 	asrsne	r9, r5, r2

00000ec4 <l819>:
     ec4:	e1a03650 	asr	r3, r0, r6

00000ec8 <l820>:
     ec8:	e1a07009 	mov	r7, r9

00000ecc <l821>:
     ecc:	61b09001 	movsvs	r9, r1

00000ed0 <l822>:
     ed0:	21b0acaf 	lsrscs	sl, pc, #25

00000ed4 <l823>:
     ed4:	11b03720 	lsrsne	r3, r0, #14

00000ed8 <l824>:
     ed8:	e1a017a5 	lsr	r1, r5, #15

00000edc <l825>:
     edc:	e1a0900a 	mov	r9, sl

00000ee0 <l826>:
     ee0:	e3b0811e 	movs	r8, #-2147483641	; 0x80000007

00000ee4 <l827>:
     ee4:	e1a04004 	mov	r4, r4

00000ee8 <l828>:
     ee8:	71b0a005 	movsvc	sl, r5

00000eec <l829>:
     eec:	11b0800c 	movsne	r8, ip

00000ef0 <l830>:
     ef0:	e3a0a93e 	mov	sl, #1015808	; 0xf8000

00000ef4 <l831>:
     ef4:	e1a08eca 	asr	r8, sl, #29

00000ef8 <l832>:
     ef8:	71a0000b 	movvc	r0, fp

00000efc <l833>:
     efc:	e1a08065 	rrx	r8, r5

00000f00 <l834>:
     f00:	e1b07002 	movs	r7, r2

00000f04 <l835>:
     f04:	91b0506b 	rrxsls	r5, fp

00000f08 <l836>:
     f08:	e1a05c30 	lsr	r5, r0, ip

00000f0c <l837>:
     f0c:	e1b0c570 	rors	ip, r0, r5

00000f10 <l838>:
     f10:	e3a0456f 	mov	r4, #465567744	; 0x1bc00000

00000f14 <l839>:
     f14:	c3b017a6 	movsgt	r1, #43515904	; 0x2980000

00000f18 <l840>:
     f18:	53b09028 	movspl	r9, #40	; 0x28

00000f1c <l841>:
     f1c:	e3b03d3d 	movs	r3, #3904	; 0xf40

00000f20 <l842>:
     f20:	71b04a88 	lslsvc	r4, r8, #21

00000f24 <l843>:
     f24:	21a041cc 	asrcs	r4, ip, #3

00000f28 <l844>:
     f28:	e3b043cb 	movs	r4, #738197507	; 0x2c000003

00000f2c <l845>:
     f2c:	d1a06004 	movle	r6, r4

00000f30 <l846>:
     f30:	71b0000a 	movsvc	r0, sl

00000f34 <l847>:
     f34:	b1b0ac30 	lsrslt	sl, r0, ip

00000f38 <l848>:
     f38:	e1b09b5a 	asrs	r9, sl, fp

00000f3c <l849>:
     f3c:	e1a04006 	mov	r4, r6

00000f40 <l850>:
     f40:	b1a0a06c 	rrxlt	sl, ip

00000f44 <l851>:
     f44:	41b06000 	movsmi	r6, r0

00000f48 <l852>:
     f48:	e1a0e069 	rrx	lr, r9

00000f4c <l853>:
     f4c:	b1a0c065 	rrxlt	ip, r5

00000f50 <l854>:
     f50:	31b0c002 	movscc	ip, r2

00000f54 <l855>:
     f54:	e1b03b2e 	lsrs	r3, lr, #22

00000f58 <l856>:
     f58:	21b0b24f 	asrscs	fp, pc, #4

00000f5c <l857>:
     f5c:	e1a09068 	rrx	r9, r8

00000f60 <l858>:
     f60:	e1a01619 	lsl	r1, r9, r6

00000f64 <l859>:
     f64:	e1b09675 	rors	r9, r5, r6

00000f68 <l860>:
     f68:	e1a05f03 	lsl	r5, r3, #30

00000f6c <l861>:
     f6c:	63a041e9 	movvs	r4, #1073741882	; 0x4000003a

00000f70 <l862>:
     f70:	71a02935 	lsrvc	r2, r5, r9

00000f74 <l863>:
     f74:	e1b02755 	asrs	r2, r5, r7

00000f78 <l864>:
     f78:	e3a08d19 	mov	r8, #1600	; 0x640

00000f7c <l865>:
     f7c:	e1a0146a 	ror	r1, sl, #8

00000f80 <l866>:
     f80:	e1a02009 	mov	r2, r9

00000f84 <l867>:
     f84:	e1b0a3aa 	lsrs	sl, sl, #7

00000f88 <l868>:
     f88:	11a0cb2b 	lsrne	ip, fp, #22

00000f8c <l869>:
     f8c:	a1b01671 	rorsge	r1, r1, r6

00000f90 <l870>:
     f90:	e1b08008 	movs	r8, r8

00000f94 <l871>:
     f94:	d1b07003 	movsle	r7, r3

00000f98 <l872>:
     f98:	81b0921e 	lslshi	r9, lr, r2

00000f9c <l873>:
     f9c:	e1a04004 	mov	r4, r4

00000fa0 <l874>:
     fa0:	e3a0470d 	mov	r4, #3407872	; 0x340000

00000fa4 <l875>:
     fa4:	d1a04888 	lslle	r4, r8, #17

00000fa8 <l876>:
     fa8:	61a01069 	rrxvs	r1, r9

00000fac <l877>:
     fac:	61a0c351 	asrvs	ip, r1, r3

00000fb0 <l878>:
     fb0:	e1b0900c 	movs	r9, ip

00000fb4 <l879>:
     fb4:	31a0806c 	rrxcc	r8, ip

00000fb8 <l880>:
     fb8:	e1a0c000 	mov	ip, r0

00000fbc <l881>:
     fbc:	e1b04066 	rrxs	r4, r6

00000fc0 <l882>:
     fc0:	61a0a001 	movvs	sl, r1

00000fc4 <l883>:
     fc4:	61a02065 	rrxvs	r2, r5

00000fc8 <l884>:
     fc8:	e1b0a06b 	rrxs	sl, fp

00000fcc <l885>:
     fcc:	c1b00777 	rorsgt	r0, r7, r7

00000fd0 <l886>:
     fd0:	e3a00c07 	mov	r0, #1792	; 0x700

00000fd4 <l887>:
     fd4:	13a04905 	movne	r4, #81920	; 0x14000

00000fd8 <l888>:
     fd8:	e1b0b00c 	movs	fp, ip

00000fdc <l889>:
     fdc:	51b091ef 	rorspl	r9, pc, #3

00000fe0 <l890>:
     fe0:	e3b09561 	movs	r9, #406847488	; 0x18400000

00000fe4 <l891>:
     fe4:	e1b0971a 	lsls	r9, sl, r7

00000fe8 <l892>:
     fe8:	e3b065be 	movs	r6, #796917760	; 0x2f800000

00000fec <l893>:
     fec:	73b07223 	movsvc	r7, #805306370	; 0x30000002

00000ff0 <l894>:
     ff0:	e3a06951 	mov	r6, #1327104	; 0x144000

00000ff4 <l895>:
     ff4:	a3b0552f 	movsge	r5, #197132288	; 0xbc00000

00000ff8 <l896>:
     ff8:	21a04c5a 	asrcs	r4, sl, ip

00000ffc <l897>:
     ffc:	e1a0126a 	ror	r1, sl, #4

00001000 <l898>:
    1000:	e1a0a359 	asr	sl, r9, r3

00001004 <l899>:
    1004:	e3a04a2e 	mov	r4, #188416	; 0x2e000

00001008 <l900>:
    1008:	e3b06805 	movs	r6, #327680	; 0x50000

0000100c <l901>:
    100c:	31b06060 	rrxscc	r6, r0

00001010 <l902>:
    1010:	11b0e009 	movsne	lr, r9

00001014 <l903>:
    1014:	53a02a11 	movpl	r2, #69632	; 0x11000

00001018 <l904>:
    1018:	43b0aa29 	movsmi	sl, #167936	; 0x29000

0000101c <l905>:
    101c:	a1a02a23 	lsrge	r2, r3, #20

00001020 <l906>:
    1020:	31b06061 	rrxscc	r6, r1

00001024 <l907>:
    1024:	41a0600c 	movmi	r6, ip

00001028 <l908>:
    1028:	e3b0e026 	movs	lr, #38	; 0x26

0000102c <l909>:
    102c:	e3b07575 	movs	r7, #490733568	; 0x1d400000

00001030 <l910>:
    1030:	71a00ac2 	asrvc	r0, r2, #21

00001034 <l911>:
    1034:	71a0ba53 	asrvc	fp, r3, sl

00001038 <l912>:
    1038:	a1b04552 	asrsge	r4, r2, r5

0000103c <l913>:
    103c:	91a00e0a 	lslls	r0, sl, #28

00001040 <l914>:
    1040:	e1b09005 	movs	r9, r5

00001044 <l915>:
    1044:	01a0806a 	rrxeq	r8, sl

00001048 <l916>:
    1048:	e3b0a407 	movs	sl, #117440512	; 0x7000000

0000104c <l917>:
    104c:	31a02950 	asrcc	r2, r0, r9

00001050 <l918>:
    1050:	91b0025e 	asrsls	r0, lr, r2

00001054 <l919>:
    1054:	11b0a81c 	lslsne	sl, ip, r8

00001058 <l920>:
    1058:	e1a02035 	lsr	r2, r5, r0

0000105c <l921>:
    105c:	e3a04dae 	mov	r4, #11136	; 0x2b80

00001060 <l922>:
    1060:	93a00db3 	movls	r0, #11456	; 0x2cc0

00001064 <l923>:
    1064:	23a08ed1 	movcs	r8, #3344	; 0xd10

00001068 <l924>:
    1068:	01b0bfc2 	asrseq	fp, r2, #31

0000106c <l925>:
    106c:	e3b00579 	movs	r0, #507510784	; 0x1e400000

00001070 <l926>:
    1070:	31a0e254 	asrcc	lr, r4, r2

00001074 <l927>:
    1074:	b1b0a71e 	lslslt	sl, lr, r7

00001078 <l928>:
    1078:	e1b0100f 	movs	r1, pc

0000107c <l929>:
    107c:	d1b06f87 	lslsle	r6, r7, #31

00001080 <l930>:
    1080:	b1b03002 	movslt	r3, r2

00001084 <l931>:
    1084:	e1a08001 	mov	r8, r1

00001088 <l932>:
    1088:	c3a07d9e 	movgt	r7, #10112	; 0x2780

0000108c <l933>:
    108c:	e1a06002 	mov	r6, r2

00001090 <l934>:
    1090:	e1b0ae63 	rors	sl, r3, #28

00001094 <l935>:
    1094:	81b068a1 	lsrshi	r6, r1, #17

00001098 <l936>:
    1098:	e1a0c063 	rrx	ip, r3

0000109c <l937>:
    109c:	81a04a39 	lsrhi	r4, r9, sl

000010a0 <l938>:
    10a0:	51b0300b 	movspl	r3, fp

000010a4 <l939>:
    10a4:	43a02ffd 	movmi	r2, #1012	; 0x3f4

000010a8 <l940>:
    10a8:	93a04fd1 	movls	r4, #836	; 0x344

000010ac <l941>:
    10ac:	e1b09480 	lsls	r9, r0, #9

000010b0 <l942>:
    10b0:	01b07008 	movseq	r7, r8

000010b4 <l943>:
    10b4:	53b07d39 	movspl	r7, #3648	; 0xe40

000010b8 <l944>:
    10b8:	63a07c45 	movvs	r7, #17664	; 0x4500

000010bc <l945>:
    10bc:	51b03068 	rrxspl	r3, r8

000010c0 <l946>:
    10c0:	e1b0900f 	movs	r9, pc

000010c4 <l947>:
    10c4:	01a02213 	lsleq	r2, r3, r2

000010c8 <l948>:
    10c8:	31a0b132 	lsrcc	fp, r2, r1

000010cc <l949>:
    10cc:	e3b032ed 	movs	r3, #-805306354	; 0xd000000e

000010d0 <l950>:
    10d0:	e3b0b10b 	movs	fp, #-1073741822	; 0xc0000002

000010d4 <l951>:
    10d4:	e1b058c3 	asrs	r5, r3, #17

000010d8 <l952>:
    10d8:	11b0e87a 	rorsne	lr, sl, r8

000010dc <l953>:
    10dc:	e1a09534 	lsr	r9, r4, r5

000010e0 <l954>:
    10e0:	e1b03007 	movs	r3, r7

000010e4 <l955>:
    10e4:	e1a0875e 	asr	r8, lr, r7

000010e8 <l956>:
    10e8:	e1b0ae07 	lsls	sl, r7, #28

000010ec <l957>:
    10ec:	83a00cf1 	movhi	r0, #61696	; 0xf100

000010f0 <l958>:
    10f0:	a1b03005 	movsge	r3, r5

000010f4 <l959>:
    10f4:	01a0ae00 	lsleq	sl, r0, #28

000010f8 <l960>:
    10f8:	e3b0e074 	movs	lr, #116	; 0x74

000010fc <l961>:
    10fc:	e1a09c12 	lsl	r9, r2, ip

00001100 <l962>:
    1100:	e3a06b6d 	mov	r6, #111616	; 0x1b400

00001104 <l963>:
    1104:	e1b08008 	movs	r8, r8

00001108 <l964>:
    1108:	e3a010c5 	mov	r1, #197	; 0xc5

0000110c <l965>:
    110c:	73b0b50d 	movsvc	fp, #54525952	; 0x3400000

00001110 <l966>:
    1110:	e1b074ce 	asrs	r7, lr, #9

00001114 <l967>:
    1114:	e1b0906f 	rrxs	r9, pc

00001118 <l968>:
    1118:	e1b0e537 	lsrs	lr, r7, r5

0000111c <l969>:
    111c:	61b0700f 	movsvs	r7, pc

00001120 <l970>:
    1120:	11b0cb17 	lslsne	ip, r7, fp

00001124 <l971>:
    1124:	93a0afad 	movls	sl, #692	; 0x2b4

00001128 <l972>:
    1128:	e1b06001 	movs	r6, r1

0000112c <l973>:
    112c:	e1a09002 	mov	r9, r2

00001130 <l974>:
    1130:	b3a0002a 	movlt	r0, #42	; 0x2a

00001134 <l975>:
    1134:	33b0eee9 	movscc	lr, #3728	; 0xe90

00001138 <l976>:
    1138:	e3b082eb 	movs	r8, #-1342177266	; 0xb000000e

0000113c <l977>:
    113c:	e1a03064 	rrx	r3, r4

00001140 <l978>:
    1140:	b1a0c156 	asrlt	ip, r6, r1

00001144 <l979>:
    1144:	83b05e22 	movshi	r5, #544	; 0x220

00001148 <l980>:
    1148:	51b0a003 	movspl	sl, r3

0000114c <l981>:
    114c:	a1a07273 	rorge	r7, r3, r2

00001150 <l982>:
    1150:	e1b05002 	movs	r5, r2

00001154 <l983>:
    1154:	01a05001 	moveq	r5, r1

00001158 <l984>:
    1158:	b1a0877c 	rorlt	r8, ip, r7

0000115c <l985>:
    115c:	c1b0c00f 	movsgt	ip, pc

00001160 <l986>:
    1160:	b3a061bb 	movlt	r6, #-1073741778	; 0xc000002e

00001164 <l987>:
    1164:	41b0e002 	movsmi	lr, r2

00001168 <l988>:
    1168:	81a0e861 	rorhi	lr, r1, #16

0000116c <l989>:
    116c:	61a02b19 	lslvs	r2, r9, fp

00001170 <l990>:
    1170:	43b05403 	movsmi	r5, #50331648	; 0x3000000

00001174 <l991>:
    1174:	51a0700a 	movpl	r7, sl

00001178 <l992>:
    1178:	e1a02cef 	ror	r2, pc, #25

0000117c <l993>:
    117c:	11b01713 	lslsne	r1, r3, r7

00001180 <l994>:
    1180:	91b08457 	asrsls	r8, r7, r4

00001184 <l995>:
    1184:	e1b05278 	rors	r5, r8, r2

00001188 <l996>:
    1188:	e1a09000 	mov	r9, r0

0000118c <l997>:
    118c:	e1b0c00f 	movs	ip, pc

00001190 <l998>:
    1190:	41a00679 	rormi	r0, r9, r6

00001194 <l999>:
    1194:	d1b0800e 	movsle	r8, lr

00001198 <l1000>:
    1198:	91a06907 	lslls	r6, r7, #18

0000119c <end>:
    119c:	eafffffe 	b	119c <end>
