
mul_1000.o:     file format elf32-littlearm


Disassembly of section .text:

00000000 <main>:
       0:	e05f000f 	subs	r0, pc, pc
       4:	e59fd000 	ldr	sp, [pc]	; c <val>
       8:	ea000000 	b	10 <next>

0000000c <val>:
       c:	000ffff0 	.word	0x000ffff0

00000010 <next>:
      10:	e59f1000 	ldr	r1, [pc]	; 18 <val1>
      14:	ea000000 	b	1c <next1>

00000018 <val1>:
      18:	762f7a02 	.word	0x762f7a02

0000001c <next1>:
      1c:	e59f2000 	ldr	r2, [pc]	; 24 <val2>
      20:	ea000000 	b	28 <next2>

00000024 <val2>:
      24:	a0145a23 	.word	0xa0145a23

00000028 <next2>:
      28:	e59f3000 	ldr	r3, [pc]	; 30 <val3>
      2c:	ea000000 	b	34 <next3>

00000030 <val3>:
      30:	465245c1 	.word	0x465245c1

00000034 <next3>:
      34:	e59f4000 	ldr	r4, [pc]	; 3c <val4>
      38:	ea000000 	b	40 <next4>

0000003c <val4>:
      3c:	925353e3 	.word	0x925353e3

00000040 <next4>:
      40:	e59f5000 	ldr	r5, [pc]	; 48 <val5>
      44:	ea000000 	b	4c <next5>

00000048 <val5>:
      48:	ab4ad66a 	.word	0xab4ad66a

0000004c <next5>:
      4c:	e59f6000 	ldr	r6, [pc]	; 54 <val6>
      50:	ea000000 	b	58 <next6>

00000054 <val6>:
      54:	87910db4 	.word	0x87910db4

00000058 <next6>:
      58:	e59f7000 	ldr	r7, [pc]	; 60 <val7>
      5c:	ea000000 	b	64 <next7>

00000060 <val7>:
      60:	1bd97661 	.word	0x1bd97661

00000064 <next7>:
      64:	e59f8000 	ldr	r8, [pc]	; 6c <val8>
      68:	ea000000 	b	70 <next8>

0000006c <val8>:
      6c:	a887f23a 	.word	0xa887f23a

00000070 <next8>:
      70:	e59f9000 	ldr	r9, [pc]	; 78 <val9>
      74:	ea000000 	b	7c <next9>

00000078 <val9>:
      78:	e3a9d9fd 	.word	0xe3a9d9fd

0000007c <next9>:
      7c:	e59fa000 	ldr	sl, [pc]	; 84 <val10>
      80:	ea000000 	b	88 <next10>

00000084 <val10>:
      84:	99a3e642 	.word	0x99a3e642

00000088 <next10>:
      88:	e59fb000 	ldr	fp, [pc]	; 90 <val11>
      8c:	ea000000 	b	94 <next11>

00000090 <val11>:
      90:	749e498f 	.word	0x749e498f

00000094 <next11>:
      94:	e59fc000 	ldr	ip, [pc]	; 9c <val12>
      98:	ea000000 	b	a0 <next12>

0000009c <val12>:
      9c:	77d6e109 	.word	0x77d6e109

000000a0 <next12>:
      a0:	e59fe000 	ldr	lr, [pc]	; a8 <val14>
      a4:	ea000000 	b	ac <next14>

000000a8 <val14>:
      a8:	491d5084 	.word	0x491d5084

000000ac <next14>:
      ac:	e59f1000 	ldr	r1, [pc]	; b4 <val15>
      b0:	ea000000 	b	b8 <next15>

000000b4 <val15>:
      b4:	cadc69af 	.word	0xcadc69af

000000b8 <next15>:
      b8:	e58d1000 	str	r1, [sp]
      bc:	e59f1000 	ldr	r1, [pc]	; c4 <val16>
      c0:	ea000000 	b	c8 <next16>

000000c4 <val16>:
      c4:	4c51204b 	.word	0x4c51204b

000000c8 <next16>:
      c8:	e50d1004 	str	r1, [sp, #-4]
      cc:	e59f1000 	ldr	r1, [pc]	; d4 <val17>
      d0:	ea000000 	b	d8 <next17>

000000d4 <val17>:
      d4:	1cbc6905 	.word	0x1cbc6905

000000d8 <next17>:
      d8:	e50d1008 	str	r1, [sp, #-8]
      dc:	e59f1000 	ldr	r1, [pc]	; e4 <val18>
      e0:	ea000000 	b	e8 <next18>

000000e4 <val18>:
      e4:	241ce659 	.word	0x241ce659

000000e8 <next18>:
      e8:	e50d100c 	str	r1, [sp, #-12]
      ec:	e59f1000 	ldr	r1, [pc]	; f4 <val19>
      f0:	ea000000 	b	f8 <next19>

000000f4 <val19>:
      f4:	6311e6f5 	.word	0x6311e6f5

000000f8 <next19>:
      f8:	e50d1010 	str	r1, [sp, #-16]
      fc:	e59f1000 	ldr	r1, [pc]	; 104 <val20>
     100:	ea000000 	b	108 <next20>

00000104 <val20>:
     104:	f38b223d 	.word	0xf38b223d

00000108 <next20>:
     108:	e50d1014 	str	r1, [sp, #-20]
     10c:	e59f1000 	ldr	r1, [pc]	; 114 <val21>
     110:	ea000000 	b	118 <next21>

00000114 <val21>:
     114:	bdcab9f5 	.word	0xbdcab9f5

00000118 <next21>:
     118:	e50d1018 	str	r1, [sp, #-24]
     11c:	e59f1000 	ldr	r1, [pc]	; 124 <val22>
     120:	ea000000 	b	128 <next22>

00000124 <val22>:
     124:	06d03f7b 	.word	0x06d03f7b

00000128 <next22>:
     128:	e50d101c 	str	r1, [sp, #-28]
     12c:	e59f1000 	ldr	r1, [pc]	; 134 <val23>
     130:	ea000000 	b	138 <next23>

00000134 <val23>:
     134:	20d7474e 	.word	0x20d7474e

00000138 <next23>:
     138:	e50d1020 	str	r1, [sp, #-32]
     13c:	e59f1000 	ldr	r1, [pc]	; 144 <val24>
     140:	ea000000 	b	148 <next24>

00000144 <val24>:
     144:	c30ac5d2 	.word	0xc30ac5d2

00000148 <next24>:
     148:	e50d1024 	str	r1, [sp, #-36]	; 0x24
     14c:	e59f1000 	ldr	r1, [pc]	; 154 <val25>
     150:	ea000000 	b	158 <next25>

00000154 <val25>:
     154:	5d7429b1 	.word	0x5d7429b1

00000158 <next25>:
     158:	e50d1028 	str	r1, [sp, #-40]	; 0x28
     15c:	e59f1000 	ldr	r1, [pc]	; 164 <val26>
     160:	ea000000 	b	168 <next26>

00000164 <val26>:
     164:	a0b83719 	.word	0xa0b83719

00000168 <next26>:
     168:	e50d102c 	str	r1, [sp, #-44]	; 0x2c
     16c:	e59f1000 	ldr	r1, [pc]	; 174 <val27>
     170:	ea000000 	b	178 <next27>

00000174 <val27>:
     174:	b8ca1e41 	.word	0xb8ca1e41

00000178 <next27>:
     178:	e50d1030 	str	r1, [sp, #-48]	; 0x30
     17c:	e59f1000 	ldr	r1, [pc]	; 184 <val28>
     180:	ea000000 	b	188 <next28>

00000184 <val28>:
     184:	93280f90 	.word	0x93280f90

00000188 <next28>:
     188:	e50d1034 	str	r1, [sp, #-52]	; 0x34
     18c:	e59f1000 	ldr	r1, [pc]	; 194 <val29>
     190:	ea000000 	b	198 <next29>

00000194 <val29>:
     194:	56a26ba4 	.word	0x56a26ba4

00000198 <next29>:
     198:	e50d1038 	str	r1, [sp, #-56]	; 0x38
     19c:	e59f1000 	ldr	r1, [pc]	; 1a4 <val30>
     1a0:	ea000000 	b	1a8 <next30>

000001a4 <val30>:
     1a4:	4b536c52 	.word	0x4b536c52

000001a8 <next30>:
     1a8:	e50d103c 	str	r1, [sp, #-60]	; 0x3c
     1ac:	e59f1000 	ldr	r1, [pc]	; 1b4 <val31>
     1b0:	ea000000 	b	1b8 <next31>

000001b4 <val31>:
     1b4:	1b3822ee 	.word	0x1b3822ee

000001b8 <next31>:
     1b8:	e50d1040 	str	r1, [sp, #-64]	; 0x40
     1bc:	e59f1000 	ldr	r1, [pc]	; 1c4 <val32>
     1c0:	ea000000 	b	1c8 <next32>

000001c4 <val32>:
     1c4:	c570f105 	.word	0xc570f105

000001c8 <next32>:
     1c8:	e50d1044 	str	r1, [sp, #-68]	; 0x44
     1cc:	e59f1000 	ldr	r1, [pc]	; 1d4 <val33>
     1d0:	ea000000 	b	1d8 <next33>

000001d4 <val33>:
     1d4:	6f6d9fc9 	.word	0x6f6d9fc9

000001d8 <next33>:
     1d8:	e50d1048 	str	r1, [sp, #-72]	; 0x48
     1dc:	e59f1000 	ldr	r1, [pc]	; 1e4 <val34>
     1e0:	ea000000 	b	1e8 <next34>

000001e4 <val34>:
     1e4:	e9b288e0 	.word	0xe9b288e0

000001e8 <next34>:
     1e8:	e50d104c 	str	r1, [sp, #-76]	; 0x4c
     1ec:	e59f1000 	ldr	r1, [pc]	; 1f4 <val35>
     1f0:	ea000000 	b	1f8 <next35>

000001f4 <val35>:
     1f4:	2d0560a3 	.word	0x2d0560a3

000001f8 <next35>:
     1f8:	e50d1050 	str	r1, [sp, #-80]	; 0x50

000001fc <l1>:
     1fc:	00150093 	mulseq	r5, r3, r0

00000200 <l2>:
     200:	e0030490 	mul	r3, r0, r4

00000204 <l3>:
     204:	6000089e 	mulvs	r0, lr, r8

00000208 <l4>:
     208:	400e0a9b 	mulmi	lr, fp, sl

0000020c <l5>:
     20c:	900e0198 	mulls	lr, r8, r1

00000210 <l6>:
     210:	e00b0c9e 	mul	fp, lr, ip

00000214 <l7>:
     214:	701e069a 	mulsvc	lr, sl, r6

00000218 <l8>:
     218:	c0110a9b 	mulsgt	r1, fp, sl

0000021c <l9>:
     21c:	b0020990 	mullt	r2, r0, r9

00000220 <l10>:
     220:	60160c90 	mulsvs	r6, r0, ip

00000224 <l11>:
     224:	5001039b 	mulpl	r1, fp, r3

00000228 <l12>:
     228:	0013089b 	mulseq	r3, fp, r8

0000022c <l13>:
     22c:	e001079a 	mul	r1, sl, r7

00000230 <l14>:
     230:	401a0397 	mulsmi	sl, r7, r3

00000234 <l15>:
     234:	d0120696 	mulsle	r2, r6, r6

00000238 <l16>:
     238:	8005009c 	mulhi	r5, ip, r0

0000023c <l17>:
     23c:	300b039a 	mulcc	fp, sl, r3

00000240 <l18>:
     240:	9010049b 	mulsls	r0, fp, r4

00000244 <l19>:
     244:	40170198 	mulsmi	r7, r8, r1

00000248 <l20>:
     248:	50060490 	mulpl	r6, r0, r4

0000024c <l21>:
     24c:	0009069e 	muleq	r9, lr, r6

00000250 <l22>:
     250:	e0020c9a 	mul	r2, sl, ip

00000254 <l23>:
     254:	e0040592 	mul	r4, r2, r5

00000258 <l24>:
     258:	e0010a93 	mul	r1, r3, sl

0000025c <l25>:
     25c:	e0190190 	muls	r9, r0, r1

00000260 <l26>:
     260:	e011009b 	muls	r1, fp, r0

00000264 <l27>:
     264:	e0090593 	mul	r9, r3, r5

00000268 <l28>:
     268:	601a069e 	mulsvs	sl, lr, r6

0000026c <l29>:
     26c:	800c0a93 	mulhi	ip, r3, sl

00000270 <l30>:
     270:	c0020690 	mulgt	r2, r0, r6

00000274 <l31>:
     274:	e0090698 	mul	r9, r8, r6

00000278 <l32>:
     278:	d003019c 	mulle	r3, ip, r1

0000027c <l33>:
     27c:	e019009b 	muls	r9, fp, r0

00000280 <l34>:
     280:	e0020a93 	mul	r2, r3, sl

00000284 <l35>:
     284:	10070e99 	mulne	r7, r9, lr

00000288 <l36>:
     288:	000c0799 	muleq	ip, r9, r7

0000028c <l37>:
     28c:	e008009b 	mul	r8, fp, r0

00000290 <l38>:
     290:	501a0495 	mulspl	sl, r5, r4

00000294 <l39>:
     294:	400b0b92 	mulmi	fp, r2, fp

00000298 <l40>:
     298:	60040699 	mulvs	r4, r9, r6

0000029c <l41>:
     29c:	e00e0e96 	mul	lr, r6, lr

000002a0 <l42>:
     2a0:	001b0896 	mulseq	fp, r6, r8

000002a4 <l43>:
     2a4:	e0190c94 	muls	r9, r4, ip

000002a8 <l44>:
     2a8:	e0120795 	muls	r2, r5, r7

000002ac <l45>:
     2ac:	0016009b 	mulseq	r6, fp, r0

000002b0 <l46>:
     2b0:	e0160e92 	muls	r6, r2, lr

000002b4 <l47>:
     2b4:	8014009e 	mulshi	r4, lr, r0

000002b8 <l48>:
     2b8:	50150a97 	mulspl	r5, r7, sl

000002bc <l49>:
     2bc:	4013099a 	mulsmi	r3, sl, r9

000002c0 <l50>:
     2c0:	c01c0692 	mulsgt	ip, r2, r6

000002c4 <l51>:
     2c4:	600b089c 	mulvs	fp, ip, r8

000002c8 <l52>:
     2c8:	e0180290 	muls	r8, r0, r2

000002cc <l53>:
     2cc:	a0000194 	mulge	r0, r4, r1

000002d0 <l54>:
     2d0:	40060392 	mulmi	r6, r2, r3

000002d4 <l55>:
     2d4:	d0140695 	mulsle	r4, r5, r6

000002d8 <l56>:
     2d8:	3019089b 	mulscc	r9, fp, r8

000002dc <l57>:
     2dc:	e012009b 	muls	r2, fp, r0

000002e0 <l58>:
     2e0:	e0100596 	muls	r0, r6, r5

000002e4 <l59>:
     2e4:	e01c0791 	muls	ip, r1, r7

000002e8 <l60>:
     2e8:	201a0c92 	mulscs	sl, r2, ip

000002ec <l61>:
     2ec:	c003089e 	mulgt	r3, lr, r8

000002f0 <l62>:
     2f0:	e0170c99 	muls	r7, r9, ip

000002f4 <l63>:
     2f4:	d003029c 	mulle	r3, ip, r2

000002f8 <l64>:
     2f8:	e0070192 	mul	r7, r2, r1

000002fc <l65>:
     2fc:	201b0499 	mulscs	fp, r9, r4

00000300 <l66>:
     300:	e0130197 	muls	r3, r7, r1

00000304 <l67>:
     304:	e0030699 	mul	r3, r9, r6

00000308 <l68>:
     308:	e01b0698 	muls	fp, r8, r6

0000030c <l69>:
     30c:	e00e0e97 	mul	lr, r7, lr

00000310 <l70>:
     310:	901b0a95 	mulsls	fp, r5, sl

00000314 <l71>:
     314:	101a0493 	mulsne	sl, r3, r4

00000318 <l72>:
     318:	e0100596 	muls	r0, r6, r5

0000031c <l73>:
     31c:	6001089c 	mulvs	r1, ip, r8

00000320 <l74>:
     320:	200c039e 	mulcs	ip, lr, r3

00000324 <l75>:
     324:	e0130c9a 	muls	r3, sl, ip

00000328 <l76>:
     328:	a00b039a 	mulge	fp, sl, r3

0000032c <l77>:
     32c:	e012059b 	muls	r2, fp, r5

00000330 <l78>:
     330:	e0030e92 	mul	r3, r2, lr

00000334 <l79>:
     334:	e0140c99 	muls	r4, r9, ip

00000338 <l80>:
     338:	e00b0a91 	mul	fp, r1, sl

0000033c <l81>:
     33c:	00110696 	mulseq	r1, r6, r6

00000340 <l82>:
     340:	e0080a9e 	mul	r8, lr, sl

00000344 <l83>:
     344:	e0090795 	mul	r9, r5, r7

00000348 <l84>:
     348:	e00e0e99 	mul	lr, r9, lr

0000034c <l85>:
     34c:	50100291 	mulspl	r0, r1, r2

00000350 <l86>:
     350:	e0010b99 	mul	r1, r9, fp

00000354 <l87>:
     354:	b0020c90 	mullt	r2, r0, ip

00000358 <l88>:
     358:	e00a0993 	mul	sl, r3, r9

0000035c <l89>:
     35c:	d0060399 	mulle	r6, r9, r3

00000360 <l90>:
     360:	b013029e 	mulslt	r3, lr, r2

00000364 <l91>:
     364:	901a0795 	mulsls	sl, r5, r7

00000368 <l92>:
     368:	e00a0898 	mul	sl, r8, r8

0000036c <l93>:
     36c:	001e0c90 	mulseq	lr, r0, ip

00000370 <l94>:
     370:	e0010692 	mul	r1, r2, r6

00000374 <l95>:
     374:	10120a97 	mulsne	r2, r7, sl

00000378 <l96>:
     378:	20050c9c 	mulcs	r5, ip, ip

0000037c <l97>:
     37c:	d01e059a 	mulsle	lr, sl, r5

00000380 <l98>:
     380:	50170c9c 	mulspl	r7, ip, ip

00000384 <l99>:
     384:	4003099b 	mulmi	r3, fp, r9

00000388 <l100>:
     388:	40060297 	mulmi	r6, r7, r2

0000038c <l101>:
     38c:	e0150290 	muls	r5, r0, r2

00000390 <l102>:
     390:	10180e9b 	mulsne	r8, fp, lr

00000394 <l103>:
     394:	00090696 	muleq	r9, r6, r6

00000398 <l104>:
     398:	e01a0797 	muls	sl, r7, r7

0000039c <l105>:
     39c:	a01c0797 	mulsge	ip, r7, r7

000003a0 <l106>:
     3a0:	b0040796 	mullt	r4, r6, r7

000003a4 <l107>:
     3a4:	e008009b 	mul	r8, fp, r0

000003a8 <l108>:
     3a8:	200e049a 	mulcs	lr, sl, r4

000003ac <l109>:
     3ac:	100a0a9c 	mulne	sl, ip, sl

000003b0 <l110>:
     3b0:	e0170890 	muls	r7, r0, r8

000003b4 <l111>:
     3b4:	700e0698 	mulvc	lr, r8, r6

000003b8 <l112>:
     3b8:	50170499 	mulspl	r7, r9, r4

000003bc <l113>:
     3bc:	e0180c9c 	muls	r8, ip, ip

000003c0 <l114>:
     3c0:	e0070091 	mul	r7, r1, r0

000003c4 <l115>:
     3c4:	40070698 	mulmi	r7, r8, r6

000003c8 <l116>:
     3c8:	e0190a97 	muls	r9, r7, sl

000003cc <l117>:
     3cc:	e0070195 	mul	r7, r5, r1

000003d0 <l118>:
     3d0:	e00e0199 	mul	lr, r9, r1

000003d4 <l119>:
     3d4:	80120894 	mulshi	r2, r4, r8

000003d8 <l120>:
     3d8:	e0150091 	muls	r5, r1, r0

000003dc <l121>:
     3dc:	e006089b 	mul	r6, fp, r8

000003e0 <l122>:
     3e0:	901b0693 	mulsls	fp, r3, r6

000003e4 <l123>:
     3e4:	e00b0799 	mul	fp, r9, r7

000003e8 <l124>:
     3e8:	e0040b99 	mul	r4, r9, fp

000003ec <l125>:
     3ec:	a0000495 	mulge	r0, r5, r4

000003f0 <l126>:
     3f0:	e007009b 	mul	r7, fp, r0

000003f4 <l127>:
     3f4:	50120597 	mulspl	r2, r7, r5

000003f8 <l128>:
     3f8:	e0150a9b 	muls	r5, fp, sl

000003fc <l129>:
     3fc:	e0120198 	muls	r2, r8, r1

00000400 <l130>:
     400:	00180191 	mulseq	r8, r1, r1

00000404 <l131>:
     404:	e0110592 	muls	r1, r2, r5

00000408 <l132>:
     408:	e0170b94 	muls	r7, r4, fp

0000040c <l133>:
     40c:	800e0795 	mulhi	lr, r5, r7

00000410 <l134>:
     410:	40110a9b 	mulsmi	r1, fp, sl

00000414 <l135>:
     414:	e01c0593 	muls	ip, r3, r5

00000418 <l136>:
     418:	40080490 	mulmi	r8, r0, r4

0000041c <l137>:
     41c:	6005039a 	mulvs	r5, sl, r3

00000420 <l138>:
     420:	e00b0195 	mul	fp, r5, r1

00000424 <l139>:
     424:	10040b98 	mulne	r4, r8, fp

00000428 <l140>:
     428:	e0160397 	muls	r6, r7, r3

0000042c <l141>:
     42c:	c0010098 	mulgt	r1, r8, r0

00000430 <l142>:
     430:	400c0497 	mulmi	ip, r7, r4

00000434 <l143>:
     434:	901e019b 	mulsls	lr, fp, r1

00000438 <l144>:
     438:	900b029c 	mulls	fp, ip, r2

0000043c <l145>:
     43c:	200b0b93 	mulcs	fp, r3, fp

00000440 <l146>:
     440:	e01e0191 	muls	lr, r1, r1

00000444 <l147>:
     444:	90080095 	mulls	r8, r5, r0

00000448 <l148>:
     448:	90150a9c 	mulsls	r5, ip, sl

0000044c <l149>:
     44c:	00030598 	muleq	r3, r8, r5

00000450 <l150>:
     450:	b0070c99 	mullt	r7, r9, ip

00000454 <l151>:
     454:	e014089e 	muls	r4, lr, r8

00000458 <l152>:
     458:	e0050693 	mul	r5, r3, r6

0000045c <l153>:
     45c:	e00a0096 	mul	sl, r6, r0

00000460 <l154>:
     460:	4007049e 	mulmi	r7, lr, r4

00000464 <l155>:
     464:	1008059a 	mulne	r8, sl, r5

00000468 <l156>:
     468:	e00a0096 	mul	sl, r6, r0

0000046c <l157>:
     46c:	40150299 	mulsmi	r5, r9, r2

00000470 <l158>:
     470:	e0030394 	mul	r3, r4, r3

00000474 <l159>:
     474:	80100399 	mulshi	r0, r9, r3

00000478 <l160>:
     478:	d0010394 	mulle	r1, r4, r3

0000047c <l161>:
     47c:	b01e0891 	mulslt	lr, r1, r8

00000480 <l162>:
     480:	e01c0399 	muls	ip, r9, r3

00000484 <l163>:
     484:	d011069e 	mulsle	r1, lr, r6

00000488 <l164>:
     488:	001a0b94 	mulseq	sl, r4, fp

0000048c <l165>:
     48c:	00180799 	mulseq	r8, r9, r7

00000490 <l166>:
     490:	5008079b 	mulpl	r8, fp, r7

00000494 <l167>:
     494:	e0000493 	mul	r0, r3, r4

00000498 <l168>:
     498:	c0000a9a 	mulgt	r0, sl, sl

0000049c <l169>:
     49c:	20140793 	mulscs	r4, r3, r7

000004a0 <l170>:
     4a0:	e0100993 	muls	r0, r3, r9

000004a4 <l171>:
     4a4:	e0180299 	muls	r8, r9, r2

000004a8 <l172>:
     4a8:	e00c0a9e 	mul	ip, lr, sl

000004ac <l173>:
     4ac:	e013019c 	muls	r3, ip, r1

000004b0 <l174>:
     4b0:	00170e95 	mulseq	r7, r5, lr

000004b4 <l175>:
     4b4:	e0010c9c 	mul	r1, ip, ip

000004b8 <l176>:
     4b8:	7004059c 	mulvc	r4, ip, r5

000004bc <l177>:
     4bc:	c01c0393 	mulsgt	ip, r3, r3

000004c0 <l178>:
     4c0:	00080e95 	muleq	r8, r5, lr

000004c4 <l179>:
     4c4:	e0070898 	mul	r7, r8, r8

000004c8 <l180>:
     4c8:	e0140395 	muls	r4, r5, r3

000004cc <l181>:
     4cc:	70130895 	mulsvc	r3, r5, r8

000004d0 <l182>:
     4d0:	e0050292 	mul	r5, r2, r2

000004d4 <l183>:
     4d4:	e00e0b97 	mul	lr, r7, fp

000004d8 <l184>:
     4d8:	80030598 	mulhi	r3, r8, r5

000004dc <l185>:
     4dc:	e0150397 	muls	r5, r7, r3

000004e0 <l186>:
     4e0:	e0150a92 	muls	r5, r2, sl

000004e4 <l187>:
     4e4:	e00a0a9b 	mul	sl, fp, sl

000004e8 <l188>:
     4e8:	c00a049c 	mulgt	sl, ip, r4

000004ec <l189>:
     4ec:	b01b0898 	mulslt	fp, r8, r8

000004f0 <l190>:
     4f0:	80120c99 	mulshi	r2, r9, ip

000004f4 <l191>:
     4f4:	b00e0395 	mullt	lr, r5, r3

000004f8 <l192>:
     4f8:	e0180699 	muls	r8, r9, r6

000004fc <l193>:
     4fc:	e0180599 	muls	r8, r9, r5

00000500 <l194>:
     500:	e0030598 	mul	r3, r8, r5

00000504 <l195>:
     504:	20090498 	mulcs	r9, r8, r4

00000508 <l196>:
     508:	e0130b9e 	muls	r3, lr, fp

0000050c <l197>:
     50c:	90120298 	mulsls	r2, r8, r2

00000510 <l198>:
     510:	50070694 	mulpl	r7, r4, r6

00000514 <l199>:
     514:	80050793 	mulhi	r5, r3, r7

00000518 <l200>:
     518:	200b039a 	mulcs	fp, sl, r3

0000051c <l201>:
     51c:	e0150790 	muls	r5, r0, r7

00000520 <l202>:
     520:	c010079a 	mulsgt	r0, sl, r7

00000524 <l203>:
     524:	50020c94 	mulpl	r2, r4, ip

00000528 <l204>:
     528:	b0120095 	mulslt	r2, r5, r0

0000052c <l205>:
     52c:	e0100795 	muls	r0, r5, r7

00000530 <l206>:
     530:	e00e0e95 	mul	lr, r5, lr

00000534 <l207>:
     534:	0009089a 	muleq	r9, sl, r8

00000538 <l208>:
     538:	10070299 	mulne	r7, r9, r2

0000053c <l209>:
     53c:	e0080099 	mul	r8, r9, r0

00000540 <l210>:
     540:	60080b96 	mulvs	r8, r6, fp

00000544 <l211>:
     544:	800b0092 	mulhi	fp, r2, r0

00000548 <l212>:
     548:	c00a0697 	mulgt	sl, r7, r6

0000054c <l213>:
     54c:	e0190496 	muls	r9, r6, r4

00000550 <l214>:
     550:	e00a009b 	mul	sl, fp, r0

00000554 <l215>:
     554:	501b0895 	mulspl	fp, r5, r8

00000558 <l216>:
     558:	c0070a98 	mulgt	r7, r8, sl

0000055c <l217>:
     55c:	5005039b 	mulpl	r5, fp, r3

00000560 <l218>:
     560:	e0070193 	mul	r7, r3, r1

00000564 <l219>:
     564:	400a0896 	mulmi	sl, r6, r8

00000568 <l220>:
     568:	801a0c92 	mulshi	sl, r2, ip

0000056c <l221>:
     56c:	70010a94 	mulvc	r1, r4, sl

00000570 <l222>:
     570:	c007089b 	mulgt	r7, fp, r8

00000574 <l223>:
     574:	500c0e91 	mulpl	ip, r1, lr

00000578 <l224>:
     578:	e008039e 	mul	r8, lr, r3

0000057c <l225>:
     57c:	e00b0396 	mul	fp, r6, r3

00000580 <l226>:
     580:	e004049a 	mul	r4, sl, r4

00000584 <l227>:
     584:	30040a91 	mulcc	r4, r1, sl

00000588 <l228>:
     588:	20000797 	mulcs	r0, r7, r7

0000058c <l229>:
     58c:	a0170898 	mulsge	r7, r8, r8

00000590 <l230>:
     590:	000c0b90 	muleq	ip, r0, fp

00000594 <l231>:
     594:	e0070792 	mul	r7, r2, r7

00000598 <l232>:
     598:	10140c9e 	mulsne	r4, lr, ip

0000059c <l233>:
     59c:	90000993 	mulls	r0, r3, r9

000005a0 <l234>:
     5a0:	e0060494 	mul	r6, r4, r4

000005a4 <l235>:
     5a4:	50020696 	mulpl	r2, r6, r6

000005a8 <l236>:
     5a8:	30160699 	mulscc	r6, r9, r6

000005ac <l237>:
     5ac:	e00c0992 	mul	ip, r2, r9

000005b0 <l238>:
     5b0:	60150499 	mulsvs	r5, r9, r4

000005b4 <l239>:
     5b4:	30040798 	mulcc	r4, r8, r7

000005b8 <l240>:
     5b8:	e0040a9c 	mul	r4, ip, sl

000005bc <l241>:
     5bc:	e01b0999 	muls	fp, r9, r9

000005c0 <l242>:
     5c0:	c003059a 	mulgt	r3, sl, r5

000005c4 <l243>:
     5c4:	a0100a99 	mulsge	r0, r9, sl

000005c8 <l244>:
     5c8:	200a0196 	mulcs	sl, r6, r1

000005cc <l245>:
     5cc:	10000b98 	mulne	r0, r8, fp

000005d0 <l246>:
     5d0:	70140092 	mulsvc	r4, r2, r0

000005d4 <l247>:
     5d4:	e0140693 	muls	r4, r3, r6

000005d8 <l248>:
     5d8:	d0060b9b 	mulle	r6, fp, fp

000005dc <l249>:
     5dc:	a0150996 	mulsge	r5, r6, r9

000005e0 <l250>:
     5e0:	10010b9b 	mulne	r1, fp, fp

000005e4 <l251>:
     5e4:	d016039e 	mulsle	r6, lr, r3

000005e8 <l252>:
     5e8:	60020b94 	mulvs	r2, r4, fp

000005ec <l253>:
     5ec:	90160299 	mulsls	r6, r9, r2

000005f0 <l254>:
     5f0:	e01e0497 	muls	lr, r7, r4

000005f4 <l255>:
     5f4:	e01c089b 	muls	ip, fp, r8

000005f8 <l256>:
     5f8:	e01a0298 	muls	sl, r8, r2

000005fc <l257>:
     5fc:	50070192 	mulpl	r7, r2, r1

00000600 <l258>:
     600:	e01e039c 	muls	lr, ip, r3

00000604 <l259>:
     604:	60070e95 	mulvs	r7, r5, lr

00000608 <l260>:
     608:	400a039c 	mulmi	sl, ip, r3

0000060c <l261>:
     60c:	d011089e 	mulsle	r1, lr, r8

00000610 <l262>:
     610:	e0150190 	muls	r5, r0, r1

00000614 <l263>:
     614:	b0110594 	mulslt	r1, r4, r5

00000618 <l264>:
     618:	801b0293 	mulshi	fp, r3, r2

0000061c <l265>:
     61c:	e014069b 	muls	r4, fp, r6

00000620 <l266>:
     620:	300b0890 	mulcc	fp, r0, r8

00000624 <l267>:
     624:	e0110e97 	muls	r1, r7, lr

00000628 <l268>:
     628:	40170996 	mulsmi	r7, r6, r9

0000062c <l269>:
     62c:	e0090a98 	mul	r9, r8, sl

00000630 <l270>:
     630:	a0010890 	mulge	r1, r0, r8

00000634 <l271>:
     634:	e01a089e 	muls	sl, lr, r8

00000638 <l272>:
     638:	e004059e 	mul	r4, lr, r5

0000063c <l273>:
     63c:	e0040c99 	mul	r4, r9, ip

00000640 <l274>:
     640:	80030895 	mulhi	r3, r5, r8

00000644 <l275>:
     644:	c009069c 	mulgt	r9, ip, r6

00000648 <l276>:
     648:	500b0c92 	mulpl	fp, r2, ip

0000064c <l277>:
     64c:	e00e0893 	mul	lr, r3, r8

00000650 <l278>:
     650:	4014049b 	mulsmi	r4, fp, r4

00000654 <l279>:
     654:	b0190491 	mulslt	r9, r1, r4

00000658 <l280>:
     658:	80010592 	mulhi	r1, r2, r5

0000065c <l281>:
     65c:	d01a0e9e 	mulsle	sl, lr, lr

00000660 <l282>:
     660:	10070a98 	mulne	r7, r8, sl

00000664 <l283>:
     664:	9013079a 	mulsls	r3, sl, r7

00000668 <l284>:
     668:	901b0593 	mulsls	fp, r3, r5

0000066c <l285>:
     66c:	e0180194 	muls	r8, r4, r1

00000670 <l286>:
     670:	001b0e99 	mulseq	fp, r9, lr

00000674 <l287>:
     674:	e0160b9e 	muls	r6, lr, fp

00000678 <l288>:
     678:	901c0395 	mulsls	ip, r5, r3

0000067c <l289>:
     67c:	e00a0c97 	mul	sl, r7, ip

00000680 <l290>:
     680:	000a0c91 	muleq	sl, r1, ip

00000684 <l291>:
     684:	e01e0198 	muls	lr, r8, r1

00000688 <l292>:
     688:	e0170a92 	muls	r7, r2, sl

0000068c <l293>:
     68c:	100b0091 	mulne	fp, r1, r0

00000690 <l294>:
     690:	900b0299 	mulls	fp, r9, r2

00000694 <l295>:
     694:	e0050a91 	mul	r5, r1, sl

00000698 <l296>:
     698:	e011069a 	muls	r1, sl, r6

0000069c <l297>:
     69c:	40090393 	mulmi	r9, r3, r3

000006a0 <l298>:
     6a0:	e0190195 	muls	r9, r5, r1

000006a4 <l299>:
     6a4:	e01a0c9e 	muls	sl, lr, ip

000006a8 <l300>:
     6a8:	b0010b9c 	mullt	r1, ip, fp

000006ac <l301>:
     6ac:	e005019c 	mul	r5, ip, r1

000006b0 <l302>:
     6b0:	e00a019e 	mul	sl, lr, r1

000006b4 <l303>:
     6b4:	80130391 	mulshi	r3, r1, r3

000006b8 <l304>:
     6b8:	90160599 	mulsls	r6, r9, r5

000006bc <l305>:
     6bc:	b0010498 	mullt	r1, r8, r4

000006c0 <l306>:
     6c0:	e01c0492 	muls	ip, r2, r4

000006c4 <l307>:
     6c4:	e0190096 	muls	r9, r6, r0

000006c8 <l308>:
     6c8:	70190092 	mulsvc	r9, r2, r0

000006cc <l309>:
     6cc:	e00a0e9b 	mul	sl, fp, lr

000006d0 <l310>:
     6d0:	001a0098 	mulseq	sl, r8, r0

000006d4 <l311>:
     6d4:	d015029b 	mulsle	r5, fp, r2

000006d8 <l312>:
     6d8:	e016029a 	muls	r6, sl, r2

000006dc <l313>:
     6dc:	501a0795 	mulspl	sl, r5, r7

000006e0 <l314>:
     6e0:	e0110790 	muls	r1, r0, r7

000006e4 <l315>:
     6e4:	e0080090 	mul	r8, r0, r0

000006e8 <l316>:
     6e8:	e003049b 	mul	r3, fp, r4

000006ec <l317>:
     6ec:	e0140e90 	muls	r4, r0, lr

000006f0 <l318>:
     6f0:	000c019e 	muleq	ip, lr, r1

000006f4 <l319>:
     6f4:	501c0494 	mulspl	ip, r4, r4

000006f8 <l320>:
     6f8:	a001089e 	mulge	r1, lr, r8

000006fc <l321>:
     6fc:	e018079e 	muls	r8, lr, r7

00000700 <l322>:
     700:	70090395 	mulvc	r9, r5, r3

00000704 <l323>:
     704:	20190e97 	mulscs	r9, r7, lr

00000708 <l324>:
     708:	e01e0a93 	muls	lr, r3, sl

0000070c <l325>:
     70c:	d0040696 	mulle	r4, r6, r6

00000710 <l326>:
     710:	e0130699 	muls	r3, r9, r6

00000714 <l327>:
     714:	e0050698 	mul	r5, r8, r6

00000718 <l328>:
     718:	90050b97 	mulls	r5, r7, fp

0000071c <l329>:
     71c:	e0150a9c 	muls	r5, ip, sl

00000720 <l330>:
     720:	e0050c94 	mul	r5, r4, ip

00000724 <l331>:
     724:	e0090a9b 	mul	r9, fp, sl

00000728 <l332>:
     728:	70170c95 	mulsvc	r7, r5, ip

0000072c <l333>:
     72c:	601e0097 	mulsvs	lr, r7, r0

00000730 <l334>:
     730:	e001089e 	mul	r1, lr, r8

00000734 <l335>:
     734:	e0130292 	muls	r3, r2, r2

00000738 <l336>:
     738:	e0180591 	muls	r8, r1, r5

0000073c <l337>:
     73c:	e0170e9a 	muls	r7, sl, lr

00000740 <l338>:
     740:	d0010396 	mulle	r1, r6, r3

00000744 <l339>:
     744:	b0170493 	mulslt	r7, r3, r4

00000748 <l340>:
     748:	e00a0591 	mul	sl, r1, r5

0000074c <l341>:
     74c:	e019089b 	muls	r9, fp, r8

00000750 <l342>:
     750:	e0130b95 	muls	r3, r5, fp

00000754 <l343>:
     754:	e0140b92 	muls	r4, r2, fp

00000758 <l344>:
     758:	e007099c 	mul	r7, ip, r9

0000075c <l345>:
     75c:	e01b0696 	muls	fp, r6, r6

00000760 <l346>:
     760:	3011049a 	mulscc	r1, sl, r4

00000764 <l347>:
     764:	60180b93 	mulsvs	r8, r3, fp

00000768 <l348>:
     768:	70070e90 	mulvc	r7, r0, lr

0000076c <l349>:
     76c:	90040198 	mulls	r4, r8, r1

00000770 <l350>:
     770:	40100a9b 	mulsmi	r0, fp, sl

00000774 <l351>:
     774:	300b0a9c 	mulcc	fp, ip, sl

00000778 <l352>:
     778:	40150190 	mulsmi	r5, r0, r1

0000077c <l353>:
     77c:	90150397 	mulsls	r5, r7, r3

00000780 <l354>:
     780:	c0120394 	mulsgt	r2, r4, r3

00000784 <l355>:
     784:	e0040698 	mul	r4, r8, r6

00000788 <l356>:
     788:	30020395 	mulcc	r2, r5, r3

0000078c <l357>:
     78c:	e00e0499 	mul	lr, r9, r4

00000790 <l358>:
     790:	e0050091 	mul	r5, r1, r0

00000794 <l359>:
     794:	e0160098 	muls	r6, r8, r0

00000798 <l360>:
     798:	e008089c 	mul	r8, ip, r8

0000079c <l361>:
     79c:	701a0290 	mulsvc	sl, r0, r2

000007a0 <l362>:
     7a0:	e000039a 	mul	r0, sl, r3

000007a4 <l363>:
     7a4:	e0010697 	mul	r1, r7, r6

000007a8 <l364>:
     7a8:	e0080e91 	mul	r8, r1, lr

000007ac <l365>:
     7ac:	d007099b 	mulle	r7, fp, r9

000007b0 <l366>:
     7b0:	d0170a9c 	mulsle	r7, ip, sl

000007b4 <l367>:
     7b4:	a00c0a94 	mulge	ip, r4, sl

000007b8 <l368>:
     7b8:	e01b0b95 	muls	fp, r5, fp

000007bc <l369>:
     7bc:	e0120c99 	muls	r2, r9, ip

000007c0 <l370>:
     7c0:	e0030797 	mul	r3, r7, r7

000007c4 <l371>:
     7c4:	c0000895 	mulgt	r0, r5, r8

000007c8 <l372>:
     7c8:	a00a0297 	mulge	sl, r7, r2

000007cc <l373>:
     7cc:	0017029e 	mulseq	r7, lr, r2

000007d0 <l374>:
     7d0:	e0070099 	mul	r7, r9, r0

000007d4 <l375>:
     7d4:	001c0194 	mulseq	ip, r4, r1

000007d8 <l376>:
     7d8:	80100b97 	mulshi	r0, r7, fp

000007dc <l377>:
     7dc:	e0170e92 	muls	r7, r2, lr

000007e0 <l378>:
     7e0:	e013039c 	muls	r3, ip, r3

000007e4 <l379>:
     7e4:	e0120490 	muls	r2, r0, r4

000007e8 <l380>:
     7e8:	d0020a95 	mulle	r2, r5, sl

000007ec <l381>:
     7ec:	40080693 	mulmi	r8, r3, r6

000007f0 <l382>:
     7f0:	40130592 	mulsmi	r3, r2, r5

000007f4 <l383>:
     7f4:	e01a0e9b 	muls	sl, fp, lr

000007f8 <l384>:
     7f8:	e0060591 	mul	r6, r1, r5

000007fc <l385>:
     7fc:	e00a0793 	mul	sl, r3, r7

00000800 <l386>:
     800:	501a0994 	mulspl	sl, r4, r9

00000804 <l387>:
     804:	301c0599 	mulscc	ip, r9, r5

00000808 <l388>:
     808:	00160190 	mulseq	r6, r0, r1

0000080c <l389>:
     80c:	60120e9e 	mulsvs	r2, lr, lr

00000810 <l390>:
     810:	90190193 	mulsls	r9, r3, r1

00000814 <l391>:
     814:	10020c9e 	mulne	r2, lr, ip

00000818 <l392>:
     818:	c0040493 	mulgt	r4, r3, r4

0000081c <l393>:
     81c:	80160b9a 	mulshi	r6, sl, fp

00000820 <l394>:
     820:	e0060697 	mul	r6, r7, r6

00000824 <l395>:
     824:	e0100297 	muls	r0, r7, r2

00000828 <l396>:
     828:	e005029b 	mul	r5, fp, r2

0000082c <l397>:
     82c:	e0190194 	muls	r9, r4, r1

00000830 <l398>:
     830:	e019059c 	muls	r9, ip, r5

00000834 <l399>:
     834:	d01b0593 	mulsle	fp, r3, r5

00000838 <l400>:
     838:	b0100a91 	mulslt	r0, r1, sl

0000083c <l401>:
     83c:	e0080494 	mul	r8, r4, r4

00000840 <l402>:
     840:	e00b0395 	mul	fp, r5, r3

00000844 <l403>:
     844:	a00e0a97 	mulge	lr, r7, sl

00000848 <l404>:
     848:	e00c0991 	mul	ip, r1, r9

0000084c <l405>:
     84c:	90000293 	mulls	r0, r3, r2

00000850 <l406>:
     850:	e0030198 	mul	r3, r8, r1

00000854 <l407>:
     854:	70150e92 	mulsvc	r5, r2, lr

00000858 <l408>:
     858:	601a0b97 	mulsvs	sl, r7, fp

0000085c <l409>:
     85c:	e0060499 	mul	r6, r9, r4

00000860 <l410>:
     860:	3018059a 	mulscc	r8, sl, r5

00000864 <l411>:
     864:	30110598 	mulscc	r1, r8, r5

00000868 <l412>:
     868:	e0120290 	muls	r2, r0, r2

0000086c <l413>:
     86c:	e01c0c9a 	muls	ip, sl, ip

00000870 <l414>:
     870:	90100195 	mulsls	r0, r5, r1

00000874 <l415>:
     874:	9000099c 	mulls	r0, ip, r9

00000878 <l416>:
     878:	e0190793 	muls	r9, r3, r7

0000087c <l417>:
     87c:	00180393 	mulseq	r8, r3, r3

00000880 <l418>:
     880:	700a0a9b 	mulvc	sl, fp, sl

00000884 <l419>:
     884:	0003049e 	muleq	r3, lr, r4

00000888 <l420>:
     888:	e01a0a97 	muls	sl, r7, sl

0000088c <l421>:
     88c:	40160791 	mulsmi	r6, r1, r7

00000890 <l422>:
     890:	e0060698 	mul	r6, r8, r6

00000894 <l423>:
     894:	300e0295 	mulcc	lr, r5, r2

00000898 <l424>:
     898:	e0170393 	muls	r7, r3, r3

0000089c <l425>:
     89c:	a008009b 	mulge	r8, fp, r0

000008a0 <l426>:
     8a0:	e0090195 	mul	r9, r5, r1

000008a4 <l427>:
     8a4:	60050699 	mulvs	r5, r9, r6

000008a8 <l428>:
     8a8:	b0190b96 	mulslt	r9, r6, fp

000008ac <l429>:
     8ac:	20190a93 	mulscs	r9, r3, sl

000008b0 <l430>:
     8b0:	e0110297 	muls	r1, r7, r2

000008b4 <l431>:
     8b4:	50070296 	mulpl	r7, r6, r2

000008b8 <l432>:
     8b8:	e013079e 	muls	r3, lr, r7

000008bc <l433>:
     8bc:	e00c0290 	mul	ip, r0, r2

000008c0 <l434>:
     8c0:	e0120c9c 	muls	r2, ip, ip

000008c4 <l435>:
     8c4:	d0000c9b 	mulle	r0, fp, ip

000008c8 <l436>:
     8c8:	40020395 	mulmi	r2, r5, r3

000008cc <l437>:
     8cc:	e0000791 	mul	r0, r1, r7

000008d0 <l438>:
     8d0:	80060299 	mulhi	r6, r9, r2

000008d4 <l439>:
     8d4:	a0170c93 	mulsge	r7, r3, ip

000008d8 <l440>:
     8d8:	701a049c 	mulsvc	sl, ip, r4

000008dc <l441>:
     8dc:	70150e98 	mulsvc	r5, r8, lr

000008e0 <l442>:
     8e0:	6004049c 	mulvs	r4, ip, r4

000008e4 <l443>:
     8e4:	d0150094 	mulsle	r5, r4, r0

000008e8 <l444>:
     8e8:	b0050394 	mullt	r5, r4, r3

000008ec <l445>:
     8ec:	401b0393 	mulsmi	fp, r3, r3

000008f0 <l446>:
     8f0:	00060b9e 	muleq	r6, lr, fp

000008f4 <l447>:
     8f4:	e00e0199 	mul	lr, r9, r1

000008f8 <l448>:
     8f8:	e01a0697 	muls	sl, r7, r6

000008fc <l449>:
     8fc:	8017049e 	mulshi	r7, lr, r4

00000900 <l450>:
     900:	e0000e97 	mul	r0, r7, lr

00000904 <l451>:
     904:	a00b049c 	mulge	fp, ip, r4

00000908 <l452>:
     908:	c0150c92 	mulsgt	r5, r2, ip

0000090c <l453>:
     90c:	e01c009b 	muls	ip, fp, r0

00000910 <l454>:
     910:	e002019a 	mul	r2, sl, r1

00000914 <l455>:
     914:	e0140699 	muls	r4, r9, r6

00000918 <l456>:
     918:	a0020e95 	mulge	r2, r5, lr

0000091c <l457>:
     91c:	b0000296 	mullt	r0, r6, r2

00000920 <l458>:
     920:	e006029b 	mul	r6, fp, r2

00000924 <l459>:
     924:	e01c0794 	muls	ip, r4, r7

00000928 <l460>:
     928:	e01e0a9c 	muls	lr, ip, sl

0000092c <l461>:
     92c:	e0070998 	mul	r7, r8, r9

00000930 <l462>:
     930:	a0080993 	mulge	r8, r3, r9

00000934 <l463>:
     934:	e00a0090 	mul	sl, r0, r0

00000938 <l464>:
     938:	00170995 	mulseq	r7, r5, r9

0000093c <l465>:
     93c:	30160799 	mulscc	r6, r9, r7

00000940 <l466>:
     940:	e012029b 	muls	r2, fp, r2

00000944 <l467>:
     944:	e002069c 	mul	r2, ip, r6

00000948 <l468>:
     948:	a0070b94 	mulge	r7, r4, fp

0000094c <l469>:
     94c:	800b0294 	mulhi	fp, r4, r2

00000950 <l470>:
     950:	e007089b 	mul	r7, fp, r8

00000954 <l471>:
     954:	e0110697 	muls	r1, r7, r6

00000958 <l472>:
     958:	e01a0395 	muls	sl, r5, r3

0000095c <l473>:
     95c:	d012069c 	mulsle	r2, ip, r6

00000960 <l474>:
     960:	e018039c 	muls	r8, ip, r3

00000964 <l475>:
     964:	e0010e93 	mul	r1, r3, lr

00000968 <l476>:
     968:	e015089a 	muls	r5, sl, r8

0000096c <l477>:
     96c:	10120c93 	mulsne	r2, r3, ip

00000970 <l478>:
     970:	40020898 	mulmi	r2, r8, r8

00000974 <l479>:
     974:	e0090b94 	mul	r9, r4, fp

00000978 <l480>:
     978:	901a0099 	mulsls	sl, r9, r0

0000097c <l481>:
     97c:	e0140b9e 	muls	r4, lr, fp

00000980 <l482>:
     980:	e0160b9b 	muls	r6, fp, fp

00000984 <l483>:
     984:	500b0098 	mulpl	fp, r8, r0

00000988 <l484>:
     988:	e0020890 	mul	r2, r0, r8

0000098c <l485>:
     98c:	9010079b 	mulsls	r0, fp, r7

00000990 <l486>:
     990:	e0180c93 	muls	r8, r3, ip

00000994 <l487>:
     994:	20160a97 	mulscs	r6, r7, sl

00000998 <l488>:
     998:	e00e0293 	mul	lr, r3, r2

0000099c <l489>:
     99c:	101b039e 	mulsne	fp, lr, r3

000009a0 <l490>:
     9a0:	e0100b95 	muls	r0, r5, fp

000009a4 <l491>:
     9a4:	90070496 	mulls	r7, r6, r4

000009a8 <l492>:
     9a8:	e0140b90 	muls	r4, r0, fp

000009ac <l493>:
     9ac:	d0010c93 	mulle	r1, r3, ip

000009b0 <l494>:
     9b0:	e0030091 	mul	r3, r1, r0

000009b4 <l495>:
     9b4:	e01e0292 	muls	lr, r2, r2

000009b8 <l496>:
     9b8:	8008099b 	mulhi	r8, fp, r9

000009bc <l497>:
     9bc:	6008049e 	mulvs	r8, lr, r4

000009c0 <l498>:
     9c0:	600e089b 	mulvs	lr, fp, r8

000009c4 <l499>:
     9c4:	e0110090 	muls	r1, r0, r0

000009c8 <l500>:
     9c8:	e0180b9a 	muls	r8, sl, fp

000009cc <l501>:
     9cc:	40140b96 	mulsmi	r4, r6, fp

000009d0 <l502>:
     9d0:	40060094 	mulmi	r6, r4, r0

000009d4 <l503>:
     9d4:	e0070196 	mul	r7, r6, r1

000009d8 <l504>:
     9d8:	e0000394 	mul	r0, r4, r3

000009dc <l505>:
     9dc:	e0100092 	muls	r0, r2, r0

000009e0 <l506>:
     9e0:	90160694 	mulsls	r6, r4, r6

000009e4 <l507>:
     9e4:	10150599 	mulsne	r5, r9, r5

000009e8 <l508>:
     9e8:	30150a92 	mulscc	r5, r2, sl

000009ec <l509>:
     9ec:	900b0690 	mulls	fp, r0, r6

000009f0 <l510>:
     9f0:	e0000e9c 	mul	r0, ip, lr

000009f4 <l511>:
     9f4:	b01e0b91 	mulslt	lr, r1, fp

000009f8 <l512>:
     9f8:	e000039c 	mul	r0, ip, r3

000009fc <l513>:
     9fc:	e0060292 	mul	r6, r2, r2

00000a00 <l514>:
     a00:	e0110e9c 	muls	r1, ip, lr

00000a04 <l515>:
     a04:	e0080097 	mul	r8, r7, r0

00000a08 <l516>:
     a08:	a0090098 	mulge	r9, r8, r0

00000a0c <l517>:
     a0c:	10010796 	mulne	r1, r6, r7

00000a10 <l518>:
     a10:	40130391 	mulsmi	r3, r1, r3

00000a14 <l519>:
     a14:	c0150193 	mulsgt	r5, r3, r1

00000a18 <l520>:
     a18:	100b079e 	mulne	fp, lr, r7

00000a1c <l521>:
     a1c:	701b0797 	mulsvc	fp, r7, r7

00000a20 <l522>:
     a20:	e0190e96 	muls	r9, r6, lr

00000a24 <l523>:
     a24:	a001039c 	mulge	r1, ip, r3

00000a28 <l524>:
     a28:	500a0792 	mulpl	sl, r2, r7

00000a2c <l525>:
     a2c:	400a0799 	mulmi	sl, r9, r7

00000a30 <l526>:
     a30:	7014029a 	mulsvc	r4, sl, r2

00000a34 <l527>:
     a34:	d0080595 	mulle	r8, r5, r5

00000a38 <l528>:
     a38:	6008009e 	mulvs	r8, lr, r0

00000a3c <l529>:
     a3c:	801a0997 	mulshi	sl, r7, r9

00000a40 <l530>:
     a40:	a0060390 	mulge	r6, r0, r3

00000a44 <l531>:
     a44:	e0100e9b 	muls	r0, fp, lr

00000a48 <l532>:
     a48:	e0100c99 	muls	r0, r9, ip

00000a4c <l533>:
     a4c:	10050694 	mulne	r5, r4, r6

00000a50 <l534>:
     a50:	40070a95 	mulmi	r7, r5, sl

00000a54 <l535>:
     a54:	b0190792 	mulslt	r9, r2, r7

00000a58 <l536>:
     a58:	e0080193 	mul	r8, r3, r1

00000a5c <l537>:
     a5c:	300b0899 	mulcc	fp, r9, r8

00000a60 <l538>:
     a60:	200b0991 	mulcs	fp, r1, r9

00000a64 <l539>:
     a64:	e0070c9c 	mul	r7, ip, ip

00000a68 <l540>:
     a68:	801a0096 	mulshi	sl, r6, r0

00000a6c <l541>:
     a6c:	d01a059e 	mulsle	sl, lr, r5

00000a70 <l542>:
     a70:	e0130292 	muls	r3, r2, r2

00000a74 <l543>:
     a74:	e000069a 	mul	r0, sl, r6

00000a78 <l544>:
     a78:	50150a91 	mulspl	r5, r1, sl

00000a7c <l545>:
     a7c:	e0120490 	muls	r2, r0, r4

00000a80 <l546>:
     a80:	e01a089b 	muls	sl, fp, r8

00000a84 <l547>:
     a84:	e018089e 	muls	r8, lr, r8

00000a88 <l548>:
     a88:	e003039e 	mul	r3, lr, r3

00000a8c <l549>:
     a8c:	600a0b97 	mulvs	sl, r7, fp

00000a90 <l550>:
     a90:	e00b0090 	mul	fp, r0, r0

00000a94 <l551>:
     a94:	9010019e 	mulsls	r0, lr, r1

00000a98 <l552>:
     a98:	60140a98 	mulsvs	r4, r8, sl

00000a9c <l553>:
     a9c:	e01c0297 	muls	ip, r7, r2

00000aa0 <l554>:
     aa0:	20130294 	mulscs	r3, r4, r2

00000aa4 <l555>:
     aa4:	50070693 	mulpl	r7, r3, r6

00000aa8 <l556>:
     aa8:	70160b99 	mulsvc	r6, r9, fp

00000aac <l557>:
     aac:	30050c9c 	mulcc	r5, ip, ip

00000ab0 <l558>:
     ab0:	b0180e91 	mulslt	r8, r1, lr

00000ab4 <l559>:
     ab4:	a0160591 	mulsge	r6, r1, r5

00000ab8 <l560>:
     ab8:	e006099b 	mul	r6, fp, r9

00000abc <l561>:
     abc:	10020898 	mulne	r2, r8, r8

00000ac0 <l562>:
     ac0:	b0040698 	mullt	r4, r8, r6

00000ac4 <l563>:
     ac4:	b0190a94 	mulslt	r9, r4, sl

00000ac8 <l564>:
     ac8:	e00c0695 	mul	ip, r5, r6

00000acc <l565>:
     acc:	8001089e 	mulhi	r1, lr, r8

00000ad0 <l566>:
     ad0:	8008089c 	mulhi	r8, ip, r8

00000ad4 <l567>:
     ad4:	e011089a 	muls	r1, sl, r8

00000ad8 <l568>:
     ad8:	e0160e98 	muls	r6, r8, lr

00000adc <l569>:
     adc:	e0080b91 	mul	r8, r1, fp

00000ae0 <l570>:
     ae0:	e0010b9b 	mul	r1, fp, fp

00000ae4 <l571>:
     ae4:	e00c0198 	mul	ip, r8, r1

00000ae8 <l572>:
     ae8:	e0100298 	muls	r0, r8, r2

00000aec <l573>:
     aec:	500a0195 	mulpl	sl, r5, r1

00000af0 <l574>:
     af0:	d01b0c9e 	mulsle	fp, lr, ip

00000af4 <l575>:
     af4:	40070198 	mulmi	r7, r8, r1

00000af8 <l576>:
     af8:	a00b0c94 	mulge	fp, r4, ip

00000afc <l577>:
     afc:	e0080696 	mul	r8, r6, r6

00000b00 <l578>:
     b00:	e016019e 	muls	r6, lr, r1

00000b04 <l579>:
     b04:	e0120a9a 	muls	r2, sl, sl

00000b08 <l580>:
     b08:	80170699 	mulshi	r7, r9, r6

00000b0c <l581>:
     b0c:	80020c9a 	mulhi	r2, sl, ip

00000b10 <l582>:
     b10:	e0050c90 	mul	r5, r0, ip

00000b14 <l583>:
     b14:	e0130299 	muls	r3, r9, r2

00000b18 <l584>:
     b18:	90050e9e 	mulls	r5, lr, lr

00000b1c <l585>:
     b1c:	e01e0b9b 	muls	lr, fp, fp

00000b20 <l586>:
     b20:	9015039b 	mulsls	r5, fp, r3

00000b24 <l587>:
     b24:	a0020399 	mulge	r2, r9, r3

00000b28 <l588>:
     b28:	60120c99 	mulsvs	r2, r9, ip

00000b2c <l589>:
     b2c:	c0100991 	mulsgt	r0, r1, r9

00000b30 <l590>:
     b30:	e00e0491 	mul	lr, r1, r4

00000b34 <l591>:
     b34:	7001069c 	mulvc	r1, ip, r6

00000b38 <l592>:
     b38:	80040297 	mulhi	r4, r7, r2

00000b3c <l593>:
     b3c:	e014039c 	muls	r4, ip, r3

00000b40 <l594>:
     b40:	e004019b 	mul	r4, fp, r1

00000b44 <l595>:
     b44:	301c0295 	mulscc	ip, r5, r2

00000b48 <l596>:
     b48:	501e0491 	mulspl	lr, r1, r4

00000b4c <l597>:
     b4c:	00130692 	mulseq	r3, r2, r6

00000b50 <l598>:
     b50:	601e0e95 	mulsvs	lr, r5, lr

00000b54 <l599>:
     b54:	e01b0c98 	muls	fp, r8, ip

00000b58 <l600>:
     b58:	40010b95 	mulmi	r1, r5, fp

00000b5c <l601>:
     b5c:	e0120393 	muls	r2, r3, r3

00000b60 <l602>:
     b60:	301a0499 	mulscc	sl, r9, r4

00000b64 <l603>:
     b64:	e00b0992 	mul	fp, r2, r9

00000b68 <l604>:
     b68:	c0180a9e 	mulsgt	r8, lr, sl

00000b6c <l605>:
     b6c:	c00e019c 	mulgt	lr, ip, r1

00000b70 <l606>:
     b70:	c018009a 	mulsgt	r8, sl, r0

00000b74 <l607>:
     b74:	30000694 	mulcc	r0, r4, r6

00000b78 <l608>:
     b78:	e01c0196 	muls	ip, r6, r1

00000b7c <l609>:
     b7c:	e01b0290 	muls	fp, r0, r2

00000b80 <l610>:
     b80:	30110297 	mulscc	r1, r7, r2

00000b84 <l611>:
     b84:	c0170594 	mulsgt	r7, r4, r5

00000b88 <l612>:
     b88:	c0190c90 	mulsgt	r9, r0, ip

00000b8c <l613>:
     b8c:	e0080099 	mul	r8, r9, r0

00000b90 <l614>:
     b90:	70020b98 	mulvc	r2, r8, fp

00000b94 <l615>:
     b94:	e0010692 	mul	r1, r2, r6

00000b98 <l616>:
     b98:	80180199 	mulshi	r8, r9, r1

00000b9c <l617>:
     b9c:	e019039b 	muls	r9, fp, r3

00000ba0 <l618>:
     ba0:	a011069c 	mulsge	r1, ip, r6

00000ba4 <l619>:
     ba4:	e01e0796 	muls	lr, r6, r7

00000ba8 <l620>:
     ba8:	9009099b 	mulls	r9, fp, r9

00000bac <l621>:
     bac:	a00c0199 	mulge	ip, r9, r1

00000bb0 <l622>:
     bb0:	e0120999 	muls	r2, r9, r9

00000bb4 <l623>:
     bb4:	e004079a 	mul	r4, sl, r7

00000bb8 <l624>:
     bb8:	e0100b96 	muls	r0, r6, fp

00000bbc <l625>:
     bbc:	a0100b97 	mulsge	r0, r7, fp

00000bc0 <l626>:
     bc0:	e017059a 	muls	r7, sl, r5

00000bc4 <l627>:
     bc4:	e0060299 	mul	r6, r9, r2

00000bc8 <l628>:
     bc8:	70140492 	mulsvc	r4, r2, r4

00000bcc <l629>:
     bcc:	e01e0699 	muls	lr, r9, r6

00000bd0 <l630>:
     bd0:	e00b0192 	mul	fp, r2, r1

00000bd4 <l631>:
     bd4:	e0020090 	mul	r2, r0, r0

00000bd8 <l632>:
     bd8:	e008019b 	mul	r8, fp, r1

00000bdc <l633>:
     bdc:	50130798 	mulspl	r3, r8, r7

00000be0 <l634>:
     be0:	80060b9c 	mulhi	r6, ip, fp

00000be4 <l635>:
     be4:	60100e9c 	mulsvs	r0, ip, lr

00000be8 <l636>:
     be8:	50060192 	mulpl	r6, r2, r1

00000bec <l637>:
     bec:	80110390 	mulshi	r1, r0, r3

00000bf0 <l638>:
     bf0:	60030390 	mulvs	r3, r0, r3

00000bf4 <l639>:
     bf4:	e0030590 	mul	r3, r0, r5

00000bf8 <l640>:
     bf8:	90170991 	mulsls	r7, r1, r9

00000bfc <l641>:
     bfc:	50180b96 	mulspl	r8, r6, fp

00000c00 <l642>:
     c00:	e001029b 	mul	r1, fp, r2

00000c04 <l643>:
     c04:	e0000595 	mul	r0, r5, r5

00000c08 <l644>:
     c08:	0010009b 	mulseq	r0, fp, r0

00000c0c <l645>:
     c0c:	901c0491 	mulsls	ip, r1, r4

00000c10 <l646>:
     c10:	e0080899 	mul	r8, r9, r8

00000c14 <l647>:
     c14:	c00e0c90 	mulgt	lr, r0, ip

00000c18 <l648>:
     c18:	00120297 	mulseq	r2, r7, r2

00000c1c <l649>:
     c1c:	e01a0b93 	muls	sl, r3, fp

00000c20 <l650>:
     c20:	e0140392 	muls	r4, r2, r3

00000c24 <l651>:
     c24:	60030494 	mulvs	r3, r4, r4

00000c28 <l652>:
     c28:	501b0e95 	mulspl	fp, r5, lr

00000c2c <l653>:
     c2c:	e008059a 	mul	r8, sl, r5

00000c30 <l654>:
     c30:	e00a0c93 	mul	sl, r3, ip

00000c34 <l655>:
     c34:	e01b0997 	muls	fp, r7, r9

00000c38 <l656>:
     c38:	10170892 	mulsne	r7, r2, r8

00000c3c <l657>:
     c3c:	e0160690 	muls	r6, r0, r6

00000c40 <l658>:
     c40:	70130194 	mulsvc	r3, r4, r1

00000c44 <l659>:
     c44:	50070c9c 	mulpl	r7, ip, ip

00000c48 <l660>:
     c48:	00020990 	muleq	r2, r0, r9

00000c4c <l661>:
     c4c:	400c0190 	mulmi	ip, r0, r1

00000c50 <l662>:
     c50:	701a099e 	mulsvc	sl, lr, r9

00000c54 <l663>:
     c54:	e019039b 	muls	r9, fp, r3

00000c58 <l664>:
     c58:	e0140a93 	muls	r4, r3, sl

00000c5c <l665>:
     c5c:	e0190698 	muls	r9, r8, r6

00000c60 <l666>:
     c60:	a01a0397 	mulsge	sl, r7, r3

00000c64 <l667>:
     c64:	e00c0a93 	mul	ip, r3, sl

00000c68 <l668>:
     c68:	e0040c99 	mul	r4, r9, ip

00000c6c <l669>:
     c6c:	9016079c 	mulsls	r6, ip, r7

00000c70 <l670>:
     c70:	200b0a98 	mulcs	fp, r8, sl

00000c74 <l671>:
     c74:	e01e0597 	muls	lr, r7, r5

00000c78 <l672>:
     c78:	1019049c 	mulsne	r9, ip, r4

00000c7c <l673>:
     c7c:	6002079b 	mulvs	r2, fp, r7

00000c80 <l674>:
     c80:	e00b0c9c 	mul	fp, ip, ip

00000c84 <l675>:
     c84:	5009049e 	mulpl	r9, lr, r4

00000c88 <l676>:
     c88:	d012039b 	mulsle	r2, fp, r3

00000c8c <l677>:
     c8c:	e0040499 	mul	r4, r9, r4

00000c90 <l678>:
     c90:	30030990 	mulcc	r3, r0, r9

00000c94 <l679>:
     c94:	90130699 	mulsls	r3, r9, r6

00000c98 <l680>:
     c98:	30150792 	mulscc	r5, r2, r7

00000c9c <l681>:
     c9c:	c0090995 	mulgt	r9, r5, r9

00000ca0 <l682>:
     ca0:	b0170396 	mulslt	r7, r6, r3

00000ca4 <l683>:
     ca4:	e00a0c9b 	mul	sl, fp, ip

00000ca8 <l684>:
     ca8:	e0170c96 	muls	r7, r6, ip

00000cac <l685>:
     cac:	e01a0594 	muls	sl, r4, r5

00000cb0 <l686>:
     cb0:	c01c029b 	mulsgt	ip, fp, r2

00000cb4 <l687>:
     cb4:	5008019b 	mulpl	r8, fp, r1

00000cb8 <l688>:
     cb8:	e013019a 	muls	r3, sl, r1

00000cbc <l689>:
     cbc:	101c059a 	mulsne	ip, sl, r5

00000cc0 <l690>:
     cc0:	e0050c97 	mul	r5, r7, ip

00000cc4 <l691>:
     cc4:	a00c079a 	mulge	ip, sl, r7

00000cc8 <l692>:
     cc8:	4006019a 	mulmi	r6, sl, r1

00000ccc <l693>:
     ccc:	6000059a 	mulvs	r0, sl, r5

00000cd0 <l694>:
     cd0:	e0010b9a 	mul	r1, sl, fp

00000cd4 <l695>:
     cd4:	201e019c 	mulscs	lr, ip, r1

00000cd8 <l696>:
     cd8:	e013009b 	muls	r3, fp, r0

00000cdc <l697>:
     cdc:	70040890 	mulvc	r4, r0, r8

00000ce0 <l698>:
     ce0:	e0090b90 	mul	r9, r0, fp

00000ce4 <l699>:
     ce4:	e0190893 	muls	r9, r3, r8

00000ce8 <l700>:
     ce8:	80150199 	mulshi	r5, r9, r1

00000cec <l701>:
     cec:	e01e0b92 	muls	lr, r2, fp

00000cf0 <l702>:
     cf0:	70060695 	mulvc	r6, r5, r6

00000cf4 <l703>:
     cf4:	30150e98 	mulscc	r5, r8, lr

00000cf8 <l704>:
     cf8:	e0070b98 	mul	r7, r8, fp

00000cfc <l705>:
     cfc:	c0020598 	mulgt	r2, r8, r5

00000d00 <l706>:
     d00:	e004009a 	mul	r4, sl, r0

00000d04 <l707>:
     d04:	d01a0c94 	mulsle	sl, r4, ip

00000d08 <l708>:
     d08:	7001049c 	mulvc	r1, ip, r4

00000d0c <l709>:
     d0c:	701e0591 	mulsvc	lr, r1, r5

00000d10 <l710>:
     d10:	60040c9c 	mulvs	r4, ip, ip

00000d14 <l711>:
     d14:	a0060a95 	mulge	r6, r5, sl

00000d18 <l712>:
     d18:	500e0593 	mulpl	lr, r3, r5

00000d1c <l713>:
     d1c:	e0070592 	mul	r7, r2, r5

00000d20 <l714>:
     d20:	600e0993 	mulvs	lr, r3, r9

00000d24 <l715>:
     d24:	e0040198 	mul	r4, r8, r1

00000d28 <l716>:
     d28:	701a0297 	mulsvc	sl, r7, r2

00000d2c <l717>:
     d2c:	c0080b94 	mulgt	r8, r4, fp

00000d30 <l718>:
     d30:	d0120393 	mulsle	r2, r3, r3

00000d34 <l719>:
     d34:	70140595 	mulsvc	r4, r5, r5

00000d38 <l720>:
     d38:	a00b019e 	mulge	fp, lr, r1

00000d3c <l721>:
     d3c:	10000293 	mulne	r0, r3, r2

00000d40 <l722>:
     d40:	e0110197 	muls	r1, r7, r1

00000d44 <l723>:
     d44:	a00b0594 	mulge	fp, r4, r5

00000d48 <l724>:
     d48:	10140291 	mulsne	r4, r1, r2

00000d4c <l725>:
     d4c:	20130095 	mulscs	r3, r5, r0

00000d50 <l726>:
     d50:	9019029b 	mulsls	r9, fp, r2

00000d54 <l727>:
     d54:	5008029a 	mulpl	r8, sl, r2

00000d58 <l728>:
     d58:	00120699 	mulseq	r2, r9, r6

00000d5c <l729>:
     d5c:	701a0a97 	mulsvc	sl, r7, sl

00000d60 <l730>:
     d60:	00050191 	muleq	r5, r1, r1

00000d64 <l731>:
     d64:	70160891 	mulsvc	r6, r1, r8

00000d68 <l732>:
     d68:	00100693 	mulseq	r0, r3, r6

00000d6c <l733>:
     d6c:	e00a0898 	mul	sl, r8, r8

00000d70 <l734>:
     d70:	601b029e 	mulsvs	fp, lr, r2

00000d74 <l735>:
     d74:	50190095 	mulspl	r9, r5, r0

00000d78 <l736>:
     d78:	e0030b97 	mul	r3, r7, fp

00000d7c <l737>:
     d7c:	e0070b94 	mul	r7, r4, fp

00000d80 <l738>:
     d80:	901a079b 	mulsls	sl, fp, r7

00000d84 <l739>:
     d84:	50020e96 	mulpl	r2, r6, lr

00000d88 <l740>:
     d88:	2013019c 	mulscs	r3, ip, r1

00000d8c <l741>:
     d8c:	d0000894 	mulle	r0, r4, r8

00000d90 <l742>:
     d90:	e01b099c 	muls	fp, ip, r9

00000d94 <l743>:
     d94:	e011079b 	muls	r1, fp, r7

00000d98 <l744>:
     d98:	e0070c99 	mul	r7, r9, ip

00000d9c <l745>:
     d9c:	e00c0b93 	mul	ip, r3, fp

00000da0 <l746>:
     da0:	e0030a9c 	mul	r3, ip, sl

00000da4 <l747>:
     da4:	e00c0197 	mul	ip, r7, r1

00000da8 <l748>:
     da8:	90160091 	mulsls	r6, r1, r0

00000dac <l749>:
     dac:	7001029e 	mulvc	r1, lr, r2

00000db0 <l750>:
     db0:	500a099b 	mulpl	sl, fp, r9

00000db4 <l751>:
     db4:	a0180195 	mulsge	r8, r5, r1

00000db8 <l752>:
     db8:	50130a9b 	mulspl	r3, fp, sl

00000dbc <l753>:
     dbc:	00090892 	muleq	r9, r2, r8

00000dc0 <l754>:
     dc0:	e0170a9c 	muls	r7, ip, sl

00000dc4 <l755>:
     dc4:	e007079a 	mul	r7, sl, r7

00000dc8 <l756>:
     dc8:	40130295 	mulsmi	r3, r5, r2

00000dcc <l757>:
     dcc:	e019079c 	muls	r9, ip, r7

00000dd0 <l758>:
     dd0:	e0140e9e 	muls	r4, lr, lr

00000dd4 <l759>:
     dd4:	e015069b 	muls	r5, fp, r6

00000dd8 <l760>:
     dd8:	b0070298 	mullt	r7, r8, r2

00000ddc <l761>:
     ddc:	c0190493 	mulsgt	r9, r3, r4

00000de0 <l762>:
     de0:	70020896 	mulvc	r2, r6, r8

00000de4 <l763>:
     de4:	c0090194 	mulgt	r9, r4, r1

00000de8 <l764>:
     de8:	10180994 	mulsne	r8, r4, r9

00000dec <l765>:
     dec:	60120a97 	mulsvs	r2, r7, sl

00000df0 <l766>:
     df0:	e00c0293 	mul	ip, r3, r2

00000df4 <l767>:
     df4:	e014069e 	muls	r4, lr, r6

00000df8 <l768>:
     df8:	80060a9b 	mulhi	r6, fp, sl

00000dfc <l769>:
     dfc:	20060297 	mulcs	r6, r7, r2

00000e00 <l770>:
     e00:	90060e90 	mulls	r6, r0, lr

00000e04 <l771>:
     e04:	601b0995 	mulsvs	fp, r5, r9

00000e08 <l772>:
     e08:	3008019e 	mulcc	r8, lr, r1

00000e0c <l773>:
     e0c:	e00b0e95 	mul	fp, r5, lr

00000e10 <l774>:
     e10:	e01e0b91 	muls	lr, r1, fp

00000e14 <l775>:
     e14:	00100593 	mulseq	r0, r3, r5

00000e18 <l776>:
     e18:	e0060799 	mul	r6, r9, r7

00000e1c <l777>:
     e1c:	e0160395 	muls	r6, r5, r3

00000e20 <l778>:
     e20:	e0060b9c 	mul	r6, ip, fp

00000e24 <l779>:
     e24:	901b0490 	mulsls	fp, r0, r4

00000e28 <l780>:
     e28:	e00b0597 	mul	fp, r7, r5

00000e2c <l781>:
     e2c:	e0120a97 	muls	r2, r7, sl

00000e30 <l782>:
     e30:	5008089b 	mulpl	r8, fp, r8

00000e34 <l783>:
     e34:	e0000792 	mul	r0, r2, r7

00000e38 <l784>:
     e38:	5000039a 	mulpl	r0, sl, r3

00000e3c <l785>:
     e3c:	b0160b97 	mulslt	r6, r7, fp

00000e40 <l786>:
     e40:	80110c98 	mulshi	r1, r8, ip

00000e44 <l787>:
     e44:	c00c0392 	mulgt	ip, r2, r3

00000e48 <l788>:
     e48:	90090694 	mulls	r9, r4, r6

00000e4c <l789>:
     e4c:	1009079a 	mulne	r9, sl, r7

00000e50 <l790>:
     e50:	e0130896 	muls	r3, r6, r8

00000e54 <l791>:
     e54:	e01e0095 	muls	lr, r5, r0

00000e58 <l792>:
     e58:	e0010a9b 	mul	r1, fp, sl

00000e5c <l793>:
     e5c:	b00e0b96 	mullt	lr, r6, fp

00000e60 <l794>:
     e60:	6016009a 	mulsvs	r6, sl, r0

00000e64 <l795>:
     e64:	d00a0a99 	mulle	sl, r9, sl

00000e68 <l796>:
     e68:	e0100c93 	muls	r0, r3, ip

00000e6c <l797>:
     e6c:	e01a0a90 	muls	sl, r0, sl

00000e70 <l798>:
     e70:	3015019c 	mulscc	r5, ip, r1

00000e74 <l799>:
     e74:	10020e91 	mulne	r2, r1, lr

00000e78 <l800>:
     e78:	000e0391 	muleq	lr, r1, r3

00000e7c <l801>:
     e7c:	30080095 	mulcc	r8, r5, r0

00000e80 <l802>:
     e80:	e004059b 	mul	r4, fp, r5

00000e84 <l803>:
     e84:	50180193 	mulspl	r8, r3, r1

00000e88 <l804>:
     e88:	00030b9e 	muleq	r3, lr, fp

00000e8c <l805>:
     e8c:	e0100599 	muls	r0, r9, r5

00000e90 <l806>:
     e90:	00110b93 	mulseq	r1, r3, fp

00000e94 <l807>:
     e94:	e0190a95 	muls	r9, r5, sl

00000e98 <l808>:
     e98:	e01e0596 	muls	lr, r6, r5

00000e9c <l809>:
     e9c:	3016019e 	mulscc	r6, lr, r1

00000ea0 <l810>:
     ea0:	100b0194 	mulne	fp, r4, r1

00000ea4 <l811>:
     ea4:	90110097 	mulsls	r1, r7, r0

00000ea8 <l812>:
     ea8:	e01b0297 	muls	fp, r7, r2

00000eac <l813>:
     eac:	e0020e9c 	mul	r2, ip, lr

00000eb0 <l814>:
     eb0:	e003019e 	mul	r3, lr, r1

00000eb4 <l815>:
     eb4:	60130095 	mulsvs	r3, r5, r0

00000eb8 <l816>:
     eb8:	e0090995 	mul	r9, r5, r9

00000ebc <l817>:
     ebc:	700c0b97 	mulvc	ip, r7, fp

00000ec0 <l818>:
     ec0:	001b0199 	mulseq	fp, r9, r1

00000ec4 <l819>:
     ec4:	e0050694 	mul	r5, r4, r6

00000ec8 <l820>:
     ec8:	40010295 	mulmi	r1, r5, r2

00000ecc <l821>:
     ecc:	e0120390 	muls	r2, r0, r3

00000ed0 <l822>:
     ed0:	000a0891 	muleq	sl, r1, r8

00000ed4 <l823>:
     ed4:	8015089a 	mulshi	r5, sl, r8

00000ed8 <l824>:
     ed8:	900e0a96 	mulls	lr, r6, sl

00000edc <l825>:
     edc:	50020798 	mulpl	r2, r8, r7

00000ee0 <l826>:
     ee0:	e014049a 	muls	r4, sl, r4

00000ee4 <l827>:
     ee4:	a00b0b9a 	mulge	fp, sl, fp

00000ee8 <l828>:
     ee8:	b009099b 	mullt	r9, fp, r9

00000eec <l829>:
     eec:	600b0294 	mulvs	fp, r4, r2

00000ef0 <l830>:
     ef0:	e01c0594 	muls	ip, r4, r5

00000ef4 <l831>:
     ef4:	701b0e98 	mulsvc	fp, r8, lr

00000ef8 <l832>:
     ef8:	e0080b93 	mul	r8, r3, fp

00000efc <l833>:
     efc:	60180794 	mulsvs	r8, r4, r7

00000f00 <l834>:
     f00:	60040795 	mulvs	r4, r5, r7

00000f04 <l835>:
     f04:	600c0698 	mulvs	ip, r8, r6

00000f08 <l836>:
     f08:	500e009b 	mulpl	lr, fp, r0

00000f0c <l837>:
     f0c:	b0180999 	mulslt	r8, r9, r9

00000f10 <l838>:
     f10:	e0150291 	muls	r5, r1, r2

00000f14 <l839>:
     f14:	50060c92 	mulpl	r6, r2, ip

00000f18 <l840>:
     f18:	a018089b 	mulsge	r8, fp, r8

00000f1c <l841>:
     f1c:	e0090e9c 	mul	r9, ip, lr

00000f20 <l842>:
     f20:	101b0499 	mulsne	fp, r9, r4

00000f24 <l843>:
     f24:	b01a0292 	mulslt	sl, r2, r2

00000f28 <l844>:
     f28:	90130499 	mulsls	r3, r9, r4

00000f2c <l845>:
     f2c:	8007019c 	mulhi	r7, ip, r1

00000f30 <l846>:
     f30:	e0060c93 	mul	r6, r3, ip

00000f34 <l847>:
     f34:	b0010b9c 	mullt	r1, ip, fp

00000f38 <l848>:
     f38:	301a0398 	mulscc	sl, r8, r3

00000f3c <l849>:
     f3c:	c00c0397 	mulgt	ip, r7, r3

00000f40 <l850>:
     f40:	a0050293 	mulge	r5, r3, r2

00000f44 <l851>:
     f44:	e0140a93 	muls	r4, r3, sl

00000f48 <l852>:
     f48:	30080a9c 	mulcc	r8, ip, sl

00000f4c <l853>:
     f4c:	b0100095 	mulslt	r0, r5, r0

00000f50 <l854>:
     f50:	501e0e92 	mulspl	lr, r2, lr

00000f54 <l855>:
     f54:	10070792 	mulne	r7, r2, r7

00000f58 <l856>:
     f58:	e0150a9b 	muls	r5, fp, sl

00000f5c <l857>:
     f5c:	00050393 	muleq	r5, r3, r3

00000f60 <l858>:
     f60:	e01b0091 	muls	fp, r1, r0

00000f64 <l859>:
     f64:	e0080c97 	mul	r8, r7, ip

00000f68 <l860>:
     f68:	e001029e 	mul	r1, lr, r2

00000f6c <l861>:
     f6c:	e012019b 	muls	r2, fp, r1

00000f70 <l862>:
     f70:	90000e9b 	mulls	r0, fp, lr

00000f74 <l863>:
     f74:	e0080990 	mul	r8, r0, r9

00000f78 <l864>:
     f78:	701e0593 	mulsvc	lr, r3, r5

00000f7c <l865>:
     f7c:	00080193 	muleq	r8, r3, r1

00000f80 <l866>:
     f80:	401b0994 	mulsmi	fp, r4, r9

00000f84 <l867>:
     f84:	b0020597 	mullt	r2, r7, r5

00000f88 <l868>:
     f88:	40080093 	mulmi	r8, r3, r0

00000f8c <l869>:
     f8c:	9018049a 	mulsls	r8, sl, r4

00000f90 <l870>:
     f90:	a00e039b 	mulge	lr, fp, r3

00000f94 <l871>:
     f94:	00090594 	muleq	r9, r4, r5

00000f98 <l872>:
     f98:	700c0b9a 	mulvc	ip, sl, fp

00000f9c <l873>:
     f9c:	60030c9c 	mulvs	r3, ip, ip

00000fa0 <l874>:
     fa0:	e00c0c9b 	mul	ip, fp, ip

00000fa4 <l875>:
     fa4:	e0020e99 	mul	r2, r9, lr

00000fa8 <l876>:
     fa8:	e0170995 	muls	r7, r5, r9

00000fac <l877>:
     fac:	001a039b 	mulseq	sl, fp, r3

00000fb0 <l878>:
     fb0:	00190992 	mulseq	r9, r2, r9

00000fb4 <l879>:
     fb4:	e01a0492 	muls	sl, r2, r4

00000fb8 <l880>:
     fb8:	400b0090 	mulmi	fp, r0, r0

00000fbc <l881>:
     fbc:	7009059a 	mulvc	r9, sl, r5

00000fc0 <l882>:
     fc0:	7014059a 	mulsvc	r4, sl, r5

00000fc4 <l883>:
     fc4:	e002089e 	mul	r2, lr, r8

00000fc8 <l884>:
     fc8:	e01a0494 	muls	sl, r4, r4

00000fcc <l885>:
     fcc:	30160a93 	mulscc	r6, r3, sl

00000fd0 <l886>:
     fd0:	e0150b99 	muls	r5, r9, fp

00000fd4 <l887>:
     fd4:	e00c0b9b 	mul	ip, fp, fp

00000fd8 <l888>:
     fd8:	e01e0b90 	muls	lr, r0, fp

00000fdc <l889>:
     fdc:	7014089b 	mulsvc	r4, fp, r8

00000fe0 <l890>:
     fe0:	80050893 	mulhi	r5, r3, r8

00000fe4 <l891>:
     fe4:	d01a0790 	mulsle	sl, r0, r7

00000fe8 <l892>:
     fe8:	101e0591 	mulsne	lr, r1, r5

00000fec <l893>:
     fec:	b0100a91 	mulslt	r0, r1, sl

00000ff0 <l894>:
     ff0:	e00c0797 	mul	ip, r7, r7

00000ff4 <l895>:
     ff4:	a0080e91 	mulge	r8, r1, lr

00000ff8 <l896>:
     ff8:	50140192 	mulspl	r4, r2, r1

00000ffc <l897>:
     ffc:	e0110090 	muls	r1, r0, r0

00001000 <l898>:
    1000:	00100891 	mulseq	r0, r1, r8

00001004 <l899>:
    1004:	c008099b 	mulgt	r8, fp, r9

00001008 <l900>:
    1008:	80140292 	mulshi	r4, r2, r2

0000100c <l901>:
    100c:	e01a0898 	muls	sl, r8, r8

00001010 <l902>:
    1010:	e0030892 	mul	r3, r2, r8

00001014 <l903>:
    1014:	80160e98 	mulshi	r6, r8, lr

00001018 <l904>:
    1018:	e00b0499 	mul	fp, r9, r4

0000101c <l905>:
    101c:	90170b9c 	mulsls	r7, ip, fp

00001020 <l906>:
    1020:	b0050a9a 	mullt	r5, sl, sl

00001024 <l907>:
    1024:	20100896 	mulscs	r0, r6, r8

00001028 <l908>:
    1028:	e00a0198 	mul	sl, r8, r1

0000102c <l909>:
    102c:	500b0491 	mulpl	fp, r1, r4

00001030 <l910>:
    1030:	30080195 	mulcc	r8, r5, r1

00001034 <l911>:
    1034:	90120a95 	mulsls	r2, r5, sl

00001038 <l912>:
    1038:	400b0897 	mulmi	fp, r7, r8

0000103c <l913>:
    103c:	0009039e 	muleq	r9, lr, r3

00001040 <l914>:
    1040:	b01c0797 	mulslt	ip, r7, r7

00001044 <l915>:
    1044:	e016059a 	muls	r6, sl, r5

00001048 <l916>:
    1048:	5006099c 	mulpl	r6, ip, r9

0000104c <l917>:
    104c:	9006049c 	mulls	r6, ip, r4

00001050 <l918>:
    1050:	1010059c 	mulsne	r0, ip, r5

00001054 <l919>:
    1054:	e0010b9a 	mul	r1, sl, fp

00001058 <l920>:
    1058:	e00a089b 	mul	sl, fp, r8

0000105c <l921>:
    105c:	00000e95 	muleq	r0, r5, lr

00001060 <l922>:
    1060:	6018059b 	mulsvs	r8, fp, r5

00001064 <l923>:
    1064:	d01a0c9c 	mulsle	sl, ip, ip

00001068 <l924>:
    1068:	6019089e 	mulsvs	r9, lr, r8

0000106c <l925>:
    106c:	e00a0692 	mul	sl, r2, r6

00001070 <l926>:
    1070:	e0000591 	mul	r0, r1, r5

00001074 <l927>:
    1074:	a01a0898 	mulsge	sl, r8, r8

00001078 <l928>:
    1078:	e00a0395 	mul	sl, r5, r3

0000107c <l929>:
    107c:	50070893 	mulpl	r7, r3, r8

00001080 <l930>:
    1080:	e0040e95 	mul	r4, r5, lr

00001084 <l931>:
    1084:	a00e089a 	mulge	lr, sl, r8

00001088 <l932>:
    1088:	e019019a 	muls	r9, sl, r1

0000108c <l933>:
    108c:	e0060598 	mul	r6, r8, r5

00001090 <l934>:
    1090:	50170196 	mulspl	r7, r6, r1

00001094 <l935>:
    1094:	401e079a 	mulsmi	lr, sl, r7

00001098 <l936>:
    1098:	e003089e 	mul	r3, lr, r8

0000109c <l937>:
    109c:	e0060191 	mul	r6, r1, r1

000010a0 <l938>:
    10a0:	50100b9c 	mulspl	r0, ip, fp

000010a4 <l939>:
    10a4:	e0040192 	mul	r4, r2, r1

000010a8 <l940>:
    10a8:	e00e0993 	mul	lr, r3, r9

000010ac <l941>:
    10ac:	d0100696 	mulsle	r0, r6, r6

000010b0 <l942>:
    10b0:	e0150596 	muls	r5, r6, r5

000010b4 <l943>:
    10b4:	e0160c95 	muls	r6, r5, ip

000010b8 <l944>:
    10b8:	e017069c 	muls	r7, ip, r6

000010bc <l945>:
    10bc:	e0010693 	mul	r1, r3, r6

000010c0 <l946>:
    10c0:	6014069e 	mulsvs	r4, lr, r6

000010c4 <l947>:
    10c4:	901c0a99 	mulsls	ip, r9, sl

000010c8 <l948>:
    10c8:	201b079c 	mulscs	fp, ip, r7

000010cc <l949>:
    10cc:	701e0290 	mulsvc	lr, r0, r2

000010d0 <l950>:
    10d0:	b0040291 	mullt	r4, r1, r2

000010d4 <l951>:
    10d4:	e00c0094 	mul	ip, r4, r0

000010d8 <l952>:
    10d8:	6010039a 	mulsvs	r0, sl, r3

000010dc <l953>:
    10dc:	e01e0e96 	muls	lr, r6, lr

000010e0 <l954>:
    10e0:	80130191 	mulshi	r3, r1, r1

000010e4 <l955>:
    10e4:	0008049b 	muleq	r8, fp, r4

000010e8 <l956>:
    10e8:	b01c0a98 	mulslt	ip, r8, sl

000010ec <l957>:
    10ec:	e0130c92 	muls	r3, r2, ip

000010f0 <l958>:
    10f0:	50170994 	mulspl	r7, r4, r9

000010f4 <l959>:
    10f4:	a00b0895 	mulge	fp, r5, r8

000010f8 <l960>:
    10f8:	00140890 	mulseq	r4, r0, r8

000010fc <l961>:
    10fc:	90170b92 	mulsls	r7, r2, fp

00001100 <l962>:
    1100:	e0130498 	muls	r3, r8, r4

00001104 <l963>:
    1104:	10010e94 	mulne	r1, r4, lr

00001108 <l964>:
    1108:	e0140992 	muls	r4, r2, r9

0000110c <l965>:
    110c:	e00c0c96 	mul	ip, r6, ip

00001110 <l966>:
    1110:	000b0797 	muleq	fp, r7, r7

00001114 <l967>:
    1114:	e01e009c 	muls	lr, ip, r0

00001118 <l968>:
    1118:	e0080695 	mul	r8, r5, r6

0000111c <l969>:
    111c:	201a0997 	mulscs	sl, r7, r9

00001120 <l970>:
    1120:	800a0a90 	mulhi	sl, r0, sl

00001124 <l971>:
    1124:	e01b0e94 	muls	fp, r4, lr

00001128 <l972>:
    1128:	e0120695 	muls	r2, r5, r6

0000112c <l973>:
    112c:	c0030196 	mulgt	r3, r6, r1

00001130 <l974>:
    1130:	e004059c 	mul	r4, ip, r5

00001134 <l975>:
    1134:	9004089e 	mulls	r4, lr, r8

00001138 <l976>:
    1138:	e0130597 	muls	r3, r7, r5

0000113c <l977>:
    113c:	e0180193 	muls	r8, r3, r1

00001140 <l978>:
    1140:	e013079e 	muls	r3, lr, r7

00001144 <l979>:
    1144:	80030e9e 	mulhi	r3, lr, lr

00001148 <l980>:
    1148:	e0130090 	muls	r3, r0, r0

0000114c <l981>:
    114c:	e0190e95 	muls	r9, r5, lr

00001150 <l982>:
    1150:	e0170194 	muls	r7, r4, r1

00001154 <l983>:
    1154:	a0170595 	mulsge	r7, r5, r5

00001158 <l984>:
    1158:	80180491 	mulshi	r8, r1, r4

0000115c <l985>:
    115c:	e012099e 	muls	r2, lr, r9

00001160 <l986>:
    1160:	c0160095 	mulsgt	r6, r5, r0

00001164 <l987>:
    1164:	e0020094 	mul	r2, r4, r0

00001168 <l988>:
    1168:	e01b0c99 	muls	fp, r9, ip

0000116c <l989>:
    116c:	d0070991 	mulle	r7, r1, r9

00001170 <l990>:
    1170:	e00c0390 	mul	ip, r0, r3

00001174 <l991>:
    1174:	e0060590 	mul	r6, r0, r5

00001178 <l992>:
    1178:	30020998 	mulcc	r2, r8, r9

0000117c <l993>:
    117c:	401e0693 	mulsmi	lr, r3, r6

00001180 <l994>:
    1180:	a0010492 	mulge	r1, r2, r4

00001184 <l995>:
    1184:	50130b98 	mulspl	r3, r8, fp

00001188 <l996>:
    1188:	e0100e94 	muls	r0, r4, lr

0000118c <l997>:
    118c:	80080a97 	mulhi	r8, r7, sl

00001190 <l998>:
    1190:	1015039c 	mulsne	r5, ip, r3

00001194 <l999>:
    1194:	e01c0c91 	muls	ip, r1, ip

00001198 <l1000>:
    1198:	b0030994 	mullt	r3, r4, r9

0000119c <end>:
    119c:	eafffffe 	b	119c <end>
