
mvn_1000.o:     file format elf32-littlearm


Disassembly of section .text:

00000000 <main>:
       0:	e05f000f 	subs	r0, pc, pc
       4:	e59fd000 	ldr	sp, [pc]	; c <val>
       8:	ea000000 	b	10 <next>

0000000c <val>:
       c:	000ffff0 	.word	0x000ffff0

00000010 <next>:
      10:	e59f1000 	ldr	r1, [pc]	; 18 <val1>
      14:	ea000000 	b	1c <next1>

00000018 <val1>:
      18:	38731dfa 	.word	0x38731dfa

0000001c <next1>:
      1c:	e59f2000 	ldr	r2, [pc]	; 24 <val2>
      20:	ea000000 	b	28 <next2>

00000024 <val2>:
      24:	82b133d0 	.word	0x82b133d0

00000028 <next2>:
      28:	e59f3000 	ldr	r3, [pc]	; 30 <val3>
      2c:	ea000000 	b	34 <next3>

00000030 <val3>:
      30:	a1f4f45d 	.word	0xa1f4f45d

00000034 <next3>:
      34:	e59f4000 	ldr	r4, [pc]	; 3c <val4>
      38:	ea000000 	b	40 <next4>

0000003c <val4>:
      3c:	5c15d7be 	.word	0x5c15d7be

00000040 <next4>:
      40:	e59f5000 	ldr	r5, [pc]	; 48 <val5>
      44:	ea000000 	b	4c <next5>

00000048 <val5>:
      48:	c6610f16 	.word	0xc6610f16

0000004c <next5>:
      4c:	e59f6000 	ldr	r6, [pc]	; 54 <val6>
      50:	ea000000 	b	58 <next6>

00000054 <val6>:
      54:	b162b442 	.word	0xb162b442

00000058 <next6>:
      58:	e59f7000 	ldr	r7, [pc]	; 60 <val7>
      5c:	ea000000 	b	64 <next7>

00000060 <val7>:
      60:	54936dff 	.word	0x54936dff

00000064 <next7>:
      64:	e59f8000 	ldr	r8, [pc]	; 6c <val8>
      68:	ea000000 	b	70 <next8>

0000006c <val8>:
      6c:	5645f55f 	.word	0x5645f55f

00000070 <next8>:
      70:	e59f9000 	ldr	r9, [pc]	; 78 <val9>
      74:	ea000000 	b	7c <next9>

00000078 <val9>:
      78:	9f3de975 	.word	0x9f3de975

0000007c <next9>:
      7c:	e59fa000 	ldr	sl, [pc]	; 84 <val10>
      80:	ea000000 	b	88 <next10>

00000084 <val10>:
      84:	f37909da 	.word	0xf37909da

00000088 <next10>:
      88:	e59fb000 	ldr	fp, [pc]	; 90 <val11>
      8c:	ea000000 	b	94 <next11>

00000090 <val11>:
      90:	f89e65dc 	.word	0xf89e65dc

00000094 <next11>:
      94:	e59fc000 	ldr	ip, [pc]	; 9c <val12>
      98:	ea000000 	b	a0 <next12>

0000009c <val12>:
      9c:	89ce90a6 	.word	0x89ce90a6

000000a0 <next12>:
      a0:	e59fe000 	ldr	lr, [pc]	; a8 <val14>
      a4:	ea000000 	b	ac <next14>

000000a8 <val14>:
      a8:	494798f0 	.word	0x494798f0

000000ac <next14>:
      ac:	e59f1000 	ldr	r1, [pc]	; b4 <val15>
      b0:	ea000000 	b	b8 <next15>

000000b4 <val15>:
      b4:	ba8fc453 	.word	0xba8fc453

000000b8 <next15>:
      b8:	e58d1000 	str	r1, [sp]
      bc:	e59f1000 	ldr	r1, [pc]	; c4 <val16>
      c0:	ea000000 	b	c8 <next16>

000000c4 <val16>:
      c4:	9728e6c0 	.word	0x9728e6c0

000000c8 <next16>:
      c8:	e50d1004 	str	r1, [sp, #-4]
      cc:	e59f1000 	ldr	r1, [pc]	; d4 <val17>
      d0:	ea000000 	b	d8 <next17>

000000d4 <val17>:
      d4:	c385380d 	.word	0xc385380d

000000d8 <next17>:
      d8:	e50d1008 	str	r1, [sp, #-8]
      dc:	e59f1000 	ldr	r1, [pc]	; e4 <val18>
      e0:	ea000000 	b	e8 <next18>

000000e4 <val18>:
      e4:	13fa91ea 	.word	0x13fa91ea

000000e8 <next18>:
      e8:	e50d100c 	str	r1, [sp, #-12]
      ec:	e59f1000 	ldr	r1, [pc]	; f4 <val19>
      f0:	ea000000 	b	f8 <next19>

000000f4 <val19>:
      f4:	c8f238dd 	.word	0xc8f238dd

000000f8 <next19>:
      f8:	e50d1010 	str	r1, [sp, #-16]
      fc:	e59f1000 	ldr	r1, [pc]	; 104 <val20>
     100:	ea000000 	b	108 <next20>

00000104 <val20>:
     104:	176f8790 	.word	0x176f8790

00000108 <next20>:
     108:	e50d1014 	str	r1, [sp, #-20]
     10c:	e59f1000 	ldr	r1, [pc]	; 114 <val21>
     110:	ea000000 	b	118 <next21>

00000114 <val21>:
     114:	b77c7044 	.word	0xb77c7044

00000118 <next21>:
     118:	e50d1018 	str	r1, [sp, #-24]
     11c:	e59f1000 	ldr	r1, [pc]	; 124 <val22>
     120:	ea000000 	b	128 <next22>

00000124 <val22>:
     124:	a83b4a8d 	.word	0xa83b4a8d

00000128 <next22>:
     128:	e50d101c 	str	r1, [sp, #-28]
     12c:	e59f1000 	ldr	r1, [pc]	; 134 <val23>
     130:	ea000000 	b	138 <next23>

00000134 <val23>:
     134:	b8a15479 	.word	0xb8a15479

00000138 <next23>:
     138:	e50d1020 	str	r1, [sp, #-32]
     13c:	e59f1000 	ldr	r1, [pc]	; 144 <val24>
     140:	ea000000 	b	148 <next24>

00000144 <val24>:
     144:	3d46c162 	.word	0x3d46c162

00000148 <next24>:
     148:	e50d1024 	str	r1, [sp, #-36]	; 0x24
     14c:	e59f1000 	ldr	r1, [pc]	; 154 <val25>
     150:	ea000000 	b	158 <next25>

00000154 <val25>:
     154:	73bdfc19 	.word	0x73bdfc19

00000158 <next25>:
     158:	e50d1028 	str	r1, [sp, #-40]	; 0x28
     15c:	e59f1000 	ldr	r1, [pc]	; 164 <val26>
     160:	ea000000 	b	168 <next26>

00000164 <val26>:
     164:	a5611ab8 	.word	0xa5611ab8

00000168 <next26>:
     168:	e50d102c 	str	r1, [sp, #-44]	; 0x2c
     16c:	e59f1000 	ldr	r1, [pc]	; 174 <val27>
     170:	ea000000 	b	178 <next27>

00000174 <val27>:
     174:	92c5b7ae 	.word	0x92c5b7ae

00000178 <next27>:
     178:	e50d1030 	str	r1, [sp, #-48]	; 0x30
     17c:	e59f1000 	ldr	r1, [pc]	; 184 <val28>
     180:	ea000000 	b	188 <next28>

00000184 <val28>:
     184:	2c2101b0 	.word	0x2c2101b0

00000188 <next28>:
     188:	e50d1034 	str	r1, [sp, #-52]	; 0x34
     18c:	e59f1000 	ldr	r1, [pc]	; 194 <val29>
     190:	ea000000 	b	198 <next29>

00000194 <val29>:
     194:	de513b2f 	.word	0xde513b2f

00000198 <next29>:
     198:	e50d1038 	str	r1, [sp, #-56]	; 0x38
     19c:	e59f1000 	ldr	r1, [pc]	; 1a4 <val30>
     1a0:	ea000000 	b	1a8 <next30>

000001a4 <val30>:
     1a4:	b60204e5 	.word	0xb60204e5

000001a8 <next30>:
     1a8:	e50d103c 	str	r1, [sp, #-60]	; 0x3c
     1ac:	e59f1000 	ldr	r1, [pc]	; 1b4 <val31>
     1b0:	ea000000 	b	1b8 <next31>

000001b4 <val31>:
     1b4:	31a2a52b 	.word	0x31a2a52b

000001b8 <next31>:
     1b8:	e50d1040 	str	r1, [sp, #-64]	; 0x40
     1bc:	e59f1000 	ldr	r1, [pc]	; 1c4 <val32>
     1c0:	ea000000 	b	1c8 <next32>

000001c4 <val32>:
     1c4:	aa176567 	.word	0xaa176567

000001c8 <next32>:
     1c8:	e50d1044 	str	r1, [sp, #-68]	; 0x44
     1cc:	e59f1000 	ldr	r1, [pc]	; 1d4 <val33>
     1d0:	ea000000 	b	1d8 <next33>

000001d4 <val33>:
     1d4:	4883a8ba 	.word	0x4883a8ba

000001d8 <next33>:
     1d8:	e50d1048 	str	r1, [sp, #-72]	; 0x48
     1dc:	e59f1000 	ldr	r1, [pc]	; 1e4 <val34>
     1e0:	ea000000 	b	1e8 <next34>

000001e4 <val34>:
     1e4:	8ad7c0c4 	.word	0x8ad7c0c4

000001e8 <next34>:
     1e8:	e50d104c 	str	r1, [sp, #-76]	; 0x4c
     1ec:	e59f1000 	ldr	r1, [pc]	; 1f4 <val35>
     1f0:	ea000000 	b	1f8 <next35>

000001f4 <val35>:
     1f4:	6223f7dd 	.word	0x6223f7dd

000001f8 <next35>:
     1f8:	e50d1050 	str	r1, [sp, #-80]	; 0x50

000001fc <l1>:
     1fc:	93f0ae73 	mvnsls	sl, #1840	; 0x730

00000200 <l2>:
     200:	01e06006 	mvneq	r6, r6

00000204 <l3>:
     204:	b1e08000 	mvnlt	r8, r0

00000208 <l4>:
     208:	e1f01474 	mvns	r1, r4, ror r4

0000020c <l5>:
     20c:	a1e0033b 	mvnge	r0, fp, lsr r3

00000210 <l6>:
     210:	91f07069 	mvnsls	r7, r9, rrx

00000214 <l7>:
     214:	b1e03007 	mvnlt	r3, r7

00000218 <l8>:
     218:	e1e09009 	mvn	r9, r9

0000021c <l9>:
     21c:	d1e06062 	mvnle	r6, r2, rrx

00000220 <l10>:
     220:	e1f03002 	mvns	r3, r2

00000224 <l11>:
     224:	43f000fc 	mvnsmi	r0, #252	; 0xfc

00000228 <l12>:
     228:	e1e03e70 	mvn	r3, r0, ror lr

0000022c <l13>:
     22c:	51e0e332 	mvnpl	lr, r2, lsr r3

00000230 <l14>:
     230:	e1e0300b 	mvn	r3, fp

00000234 <l15>:
     234:	a1e06144 	mvnge	r6, r4, asr #2

00000238 <l16>:
     238:	e3f069e2 	mvns	r6, #3702784	; 0x388000

0000023c <l17>:
     23c:	e1f04060 	mvns	r4, r0, rrx

00000240 <l18>:
     240:	51f04fc5 	mvnspl	r4, r5, asr #31

00000244 <l19>:
     244:	e1f03458 	mvns	r3, r8, asr r4

00000248 <l20>:
     248:	e3e07196 	mvn	r7, #-2147483611	; 0x80000025

0000024c <l21>:
     24c:	e1f0b96c 	mvns	fp, ip, ror #18

00000250 <l22>:
     250:	e1e0b066 	mvn	fp, r6, rrx

00000254 <l23>:
     254:	a3f0349f 	mvnsge	r3, #-1627389952	; 0x9f000000

00000258 <l24>:
     258:	e3e0841e 	mvn	r8, #503316480	; 0x1e000000

0000025c <l25>:
     25c:	e1f00319 	mvns	r0, r9, lsl r3

00000260 <l26>:
     260:	51e00078 	mvnpl	r0, r8, ror r0

00000264 <l27>:
     264:	e1e07b79 	mvn	r7, r9, ror fp

00000268 <l28>:
     268:	b1f025e8 	mvnslt	r2, r8, ror #11

0000026c <l29>:
     26c:	e1e0c21c 	mvn	ip, ip, lsl r2

00000270 <l30>:
     270:	03f08733 	mvnseq	r8, #13369344	; 0xcc0000

00000274 <l31>:
     274:	e1e0c014 	mvn	ip, r4, lsl r0

00000278 <l32>:
     278:	a3e04d73 	mvnge	r4, #7360	; 0x1cc0

0000027c <l33>:
     27c:	e3f0283f 	mvns	r2, #4128768	; 0x3f0000

00000280 <l34>:
     280:	e3f02353 	mvns	r2, #1275068417	; 0x4c000001

00000284 <l35>:
     284:	91f0a062 	mvnsls	sl, r2, rrx

00000288 <l36>:
     288:	e3e006fd 	mvn	r0, #265289728	; 0xfd00000

0000028c <l37>:
     28c:	b1e0a069 	mvnlt	sl, r9, rrx

00000290 <l38>:
     290:	e1f0481b 	mvns	r4, fp, lsl r8

00000294 <l39>:
     294:	a3e092c7 	mvnge	r9, #1879048204	; 0x7000000c

00000298 <l40>:
     298:	e3e0730f 	mvn	r7, #1006632960	; 0x3c000000

0000029c <l41>:
     29c:	c1f02c89 	mvnsgt	r2, r9, lsl #25

000002a0 <l42>:
     2a0:	21f06062 	mvnscs	r6, r2, rrx

000002a4 <l43>:
     2a4:	81f03009 	mvnshi	r3, r9

000002a8 <l44>:
     2a8:	e1e0c410 	mvn	ip, r0, lsl r4

000002ac <l45>:
     2ac:	e1f0c00a 	mvns	ip, sl

000002b0 <l46>:
     2b0:	81f0b007 	mvnshi	fp, r7

000002b4 <l47>:
     2b4:	e1f08018 	mvns	r8, r8, lsl r0

000002b8 <l48>:
     2b8:	e1e0c712 	mvn	ip, r2, lsl r7

000002bc <l49>:
     2bc:	e1f02066 	mvns	r2, r6, rrx

000002c0 <l50>:
     2c0:	91e06003 	mvnls	r6, r3

000002c4 <l51>:
     2c4:	71f0121b 	mvnsvc	r1, fp, lsl r2

000002c8 <l52>:
     2c8:	71e00001 	mvnvc	r0, r1

000002cc <l53>:
     2cc:	e1e01136 	mvn	r1, r6, lsr r1

000002d0 <l54>:
     2d0:	d1f0905b 	mvnsle	r9, fp, asr r0

000002d4 <l55>:
     2d4:	71e0173b 	mvnvc	r1, fp, lsr r7

000002d8 <l56>:
     2d8:	c1f06003 	mvnsgt	r6, r3

000002dc <l57>:
     2dc:	b1f0c002 	mvnslt	ip, r2

000002e0 <l58>:
     2e0:	41f06062 	mvnsmi	r6, r2, rrx

000002e4 <l59>:
     2e4:	21e0600c 	mvncs	r6, ip

000002e8 <l60>:
     2e8:	71e02368 	mvnvc	r2, r8, ror #6

000002ec <l61>:
     2ec:	91f0a00f 	mvnsls	sl, pc

000002f0 <l62>:
     2f0:	41f01007 	mvnsmi	r1, r7

000002f4 <l63>:
     2f4:	e1e0425c 	mvn	r4, ip, asr r2

000002f8 <l64>:
     2f8:	11e0448c 	mvnne	r4, ip, lsl #9

000002fc <l65>:
     2fc:	33f08522 	mvnscc	r8, #142606336	; 0x8800000

00000300 <l66>:
     300:	61f0e003 	mvnsvs	lr, r3

00000304 <l67>:
     304:	e1f03654 	mvns	r3, r4, asr r6

00000308 <l68>:
     308:	b1f02003 	mvnslt	r2, r3

0000030c <l69>:
     30c:	e1e0e00a 	mvn	lr, sl

00000310 <l70>:
     310:	61e0875a 	mvnvs	r8, sl, asr r7

00000314 <l71>:
     314:	e1e0200a 	mvn	r2, sl

00000318 <l72>:
     318:	e1f05008 	mvns	r5, r8

0000031c <l73>:
     31c:	b1f0500a 	mvnslt	r5, sl

00000320 <l74>:
     320:	e3e02ef1 	mvn	r2, #3856	; 0xf10

00000324 <l75>:
     324:	61f0a00b 	mvnsvs	sl, fp

00000328 <l76>:
     328:	d1f07007 	mvnsle	r7, r7

0000032c <l77>:
     32c:	21e01062 	mvncs	r1, r2, rrx

00000330 <l78>:
     330:	e3f08a0e 	mvns	r8, #57344	; 0xe000

00000334 <l79>:
     334:	e1f0c00c 	mvns	ip, ip

00000338 <l80>:
     338:	e1e00da5 	mvn	r0, r5, lsr #27

0000033c <l81>:
     33c:	e3f04a41 	mvns	r4, #266240	; 0x41000

00000340 <l82>:
     340:	e1e06da1 	mvn	r6, r1, lsr #27

00000344 <l83>:
     344:	e1f01001 	mvns	r1, r1

00000348 <l84>:
     348:	e1e07009 	mvn	r7, r9

0000034c <l85>:
     34c:	91e0b011 	mvnls	fp, r1, lsl r0

00000350 <l86>:
     350:	21f00aa8 	mvnscs	r0, r8, lsr #21

00000354 <l87>:
     354:	81f0c332 	mvnshi	ip, r2, lsr r3

00000358 <l88>:
     358:	33e00a09 	mvncc	r0, #36864	; 0x9000

0000035c <l89>:
     35c:	e1f0a005 	mvns	sl, r5

00000360 <l90>:
     360:	b1e0000e 	mvnlt	r0, lr

00000364 <l91>:
     364:	e1f029a3 	mvns	r2, r3, lsr #19

00000368 <l92>:
     368:	e1e08736 	mvn	r8, r6, lsr r7

0000036c <l93>:
     36c:	e3f0436f 	mvns	r4, #-1140850687	; 0xbc000001

00000370 <l94>:
     370:	e1f07153 	mvns	r7, r3, asr r1

00000374 <l95>:
     374:	73f009e3 	mvnsvc	r0, #3719168	; 0x38c000

00000378 <l96>:
     378:	e1e0b065 	mvn	fp, r5, rrx

0000037c <l97>:
     37c:	e3e03465 	mvn	r3, #1694498816	; 0x65000000

00000380 <l98>:
     380:	83f050ce 	mvnshi	r5, #206	; 0xce

00000384 <l99>:
     384:	e1e0300e 	mvn	r3, lr

00000388 <l100>:
     388:	e1f08061 	mvns	r8, r1, rrx

0000038c <l101>:
     38c:	81e03004 	mvnhi	r3, r4

00000390 <l102>:
     390:	e1e0968e 	mvn	r9, lr, lsl #13

00000394 <l103>:
     394:	63f07044 	mvnsvs	r7, #68	; 0x44

00000398 <l104>:
     398:	21f0e004 	mvnscs	lr, r4

0000039c <l105>:
     39c:	e3f00a9e 	mvns	r0, #647168	; 0x9e000

000003a0 <l106>:
     3a0:	b1f0c069 	mvnslt	ip, r9, rrx

000003a4 <l107>:
     3a4:	21f06955 	mvnscs	r6, r5, asr r9

000003a8 <l108>:
     3a8:	31f0010c 	mvnscc	r0, ip, lsl #2

000003ac <l109>:
     3ac:	81f0bb1b 	mvnshi	fp, fp, lsl fp

000003b0 <l110>:
     3b0:	e3f073b1 	mvns	r7, #-1006632958	; 0xc4000002

000003b4 <l111>:
     3b4:	93e03e41 	mvnls	r3, #1040	; 0x410

000003b8 <l112>:
     3b8:	d1e06151 	mvnle	r6, r1, asr r1

000003bc <l113>:
     3bc:	81e0765b 	mvnhi	r7, fp, asr r6

000003c0 <l114>:
     3c0:	73e0c0cd 	mvnvc	ip, #205	; 0xcd

000003c4 <l115>:
     3c4:	a1e04d4c 	mvnge	r4, ip, asr #26

000003c8 <l116>:
     3c8:	e3e0bb0e 	mvn	fp, #14336	; 0x3800

000003cc <l117>:
     3cc:	e1f0600f 	mvns	r6, pc

000003d0 <l118>:
     3d0:	c1e00468 	mvngt	r0, r8, ror #8

000003d4 <l119>:
     3d4:	e3e05e29 	mvn	r5, #656	; 0x290

000003d8 <l120>:
     3d8:	c3f0025d 	mvnsgt	r0, #-805306363	; 0xd0000005

000003dc <l121>:
     3dc:	51f04007 	mvnspl	r4, r7

000003e0 <l122>:
     3e0:	23e0540a 	mvncs	r5, #167772160	; 0xa000000

000003e4 <l123>:
     3e4:	e1e05004 	mvn	r5, r4

000003e8 <l124>:
     3e8:	c1f0a32a 	mvnsgt	sl, sl, lsr #6

000003ec <l125>:
     3ec:	03f03d15 	mvnseq	r3, #1344	; 0x540

000003f0 <l126>:
     3f0:	13e01219 	mvnne	r1, #-1879048191	; 0x90000001

000003f4 <l127>:
     3f4:	e3f03257 	mvns	r3, #1879048197	; 0x70000005

000003f8 <l128>:
     3f8:	d1e01a69 	mvnle	r1, r9, ror #20

000003fc <l129>:
     3fc:	71f02773 	mvnsvc	r2, r3, ror r7

00000400 <l130>:
     400:	51f04213 	mvnspl	r4, r3, lsl r2

00000404 <l131>:
     404:	e1f03066 	mvns	r3, r6, rrx

00000408 <l132>:
     408:	91e0a069 	mvnls	sl, r9, rrx

0000040c <l133>:
     40c:	51f00148 	mvnspl	r0, r8, asr #2

00000410 <l134>:
     410:	e1e09579 	mvn	r9, r9, ror r5

00000414 <l135>:
     414:	e1f01000 	mvns	r1, r0

00000418 <l136>:
     418:	e1e05281 	mvn	r5, r1, lsl #5

0000041c <l137>:
     41c:	81f02068 	mvnshi	r2, r8, rrx

00000420 <l138>:
     420:	e1f00001 	mvns	r0, r1

00000424 <l139>:
     424:	e3f0ba9d 	mvns	fp, #643072	; 0x9d000

00000428 <l140>:
     428:	21f0ab40 	mvnscs	sl, r0, asr #22

0000042c <l141>:
     42c:	e1f05007 	mvns	r5, r7

00000430 <l142>:
     430:	e1f058c5 	mvns	r5, r5, asr #17

00000434 <l143>:
     434:	e3e04803 	mvn	r4, #196608	; 0x30000

00000438 <l144>:
     438:	e1f0b978 	mvns	fp, r8, ror r9

0000043c <l145>:
     43c:	e1f07001 	mvns	r7, r1

00000440 <l146>:
     440:	e1e0c007 	mvn	ip, r7

00000444 <l147>:
     444:	c3f055d9 	mvnsgt	r5, #910163968	; 0x36400000

00000448 <l148>:
     448:	e1f05009 	mvns	r5, r9

0000044c <l149>:
     44c:	e3f0b7a6 	mvns	fp, #43515904	; 0x2980000

00000450 <l150>:
     450:	71e06063 	mvnvc	r6, r3, rrx

00000454 <l151>:
     454:	81e03008 	mvnhi	r3, r8

00000458 <l152>:
     458:	a1f00b16 	mvnsge	r0, r6, lsl fp

0000045c <l153>:
     45c:	e1f0cfa9 	mvns	ip, r9, lsr #31

00000460 <l154>:
     460:	e1f01c1b 	mvns	r1, fp, lsl ip

00000464 <l155>:
     464:	61f043c3 	mvnsvs	r4, r3, asr #7

00000468 <l156>:
     468:	61e0c00a 	mvnvs	ip, sl

0000046c <l157>:
     46c:	01f07851 	mvnseq	r7, r1, asr r8

00000470 <l158>:
     470:	e3e023e2 	mvn	r2, #-2013265917	; 0x88000003

00000474 <l159>:
     474:	31e02004 	mvncc	r2, r4

00000478 <l160>:
     478:	d1f08066 	mvnsle	r8, r6, rrx

0000047c <l161>:
     47c:	a1f06dc8 	mvnsge	r6, r8, asr #27

00000480 <l162>:
     480:	e1e0400f 	mvn	r4, pc

00000484 <l163>:
     484:	91e02006 	mvnls	r2, r6

00000488 <l164>:
     488:	a1f01066 	mvnsge	r1, r6, rrx

0000048c <l165>:
     48c:	11f0e36b 	mvnsne	lr, fp, ror #6

00000490 <l166>:
     490:	e1f06662 	mvns	r6, r2, ror #12

00000494 <l167>:
     494:	b3f09816 	mvnslt	r9, #1441792	; 0x160000

00000498 <l168>:
     498:	e1f0cb66 	mvns	ip, r6, ror #22

0000049c <l169>:
     49c:	e3f06747 	mvns	r6, #18612224	; 0x11c0000

000004a0 <l170>:
     4a0:	31f034e6 	mvnscc	r3, r6, ror #9

000004a4 <l171>:
     4a4:	e1e0c067 	mvn	ip, r7, rrx

000004a8 <l172>:
     4a8:	11f0bfea 	mvnsne	fp, sl, ror #31

000004ac <l173>:
     4ac:	e3e01819 	mvn	r1, #1638400	; 0x190000

000004b0 <l174>:
     4b0:	e1e02d8e 	mvn	r2, lr, lsl #27

000004b4 <l175>:
     4b4:	b1e0e242 	mvnlt	lr, r2, asr #4

000004b8 <l176>:
     4b8:	01e0e00e 	mvneq	lr, lr

000004bc <l177>:
     4bc:	41e093eb 	mvnmi	r9, fp, ror #7

000004c0 <l178>:
     4c0:	e1f0b35a 	mvns	fp, sl, asr r3

000004c4 <l179>:
     4c4:	e1f08000 	mvns	r8, r0

000004c8 <l180>:
     4c8:	31f07138 	mvnscc	r7, r8, lsr r1

000004cc <l181>:
     4cc:	e1f0c309 	mvns	ip, r9, lsl #6

000004d0 <l182>:
     4d0:	41f08ba1 	mvnsmi	r8, r1, lsr #23

000004d4 <l183>:
     4d4:	71e03005 	mvnvc	r3, r5

000004d8 <l184>:
     4d8:	e1f09468 	mvns	r9, r8, ror #8

000004dc <l185>:
     4dc:	e1e0506b 	mvn	r5, fp, rrx

000004e0 <l186>:
     4e0:	e1f07005 	mvns	r7, r5

000004e4 <l187>:
     4e4:	e1e03069 	mvn	r3, r9, rrx

000004e8 <l188>:
     4e8:	e1f0306c 	mvns	r3, ip, rrx

000004ec <l189>:
     4ec:	11f03c32 	mvnsne	r3, r2, lsr ip

000004f0 <l190>:
     4f0:	e3f050de 	mvns	r5, #222	; 0xde

000004f4 <l191>:
     4f4:	e1e09006 	mvn	r9, r6

000004f8 <l192>:
     4f8:	e1f02465 	mvns	r2, r5, ror #8

000004fc <l193>:
     4fc:	e1e04c6a 	mvn	r4, sl, ror #24

00000500 <l194>:
     500:	61e04229 	mvnvs	r4, r9, lsr #4

00000504 <l195>:
     504:	53e05805 	mvnpl	r5, #327680	; 0x50000

00000508 <l196>:
     508:	91e06d69 	mvnls	r6, r9, ror #26

0000050c <l197>:
     50c:	41f02054 	mvnsmi	r2, r4, asr r0

00000510 <l198>:
     510:	11e0700f 	mvnne	r7, pc

00000514 <l199>:
     514:	e3f03b2f 	mvns	r3, #48128	; 0xbc00

00000518 <l200>:
     518:	e1e005e5 	mvn	r0, r5, ror #11

0000051c <l201>:
     51c:	73f0673f 	mvnsvc	r6, #16515072	; 0xfc0000

00000520 <l202>:
     520:	e1f03b7c 	mvns	r3, ip, ror fp

00000524 <l203>:
     524:	c1f0051e 	mvnsgt	r0, lr, lsl r5

00000528 <l204>:
     528:	01e0606a 	mvneq	r6, sl, rrx

0000052c <l205>:
     52c:	93e03f66 	mvnls	r3, #408	; 0x198

00000530 <l206>:
     530:	21f0a00a 	mvnscs	sl, sl

00000534 <l207>:
     534:	e3e0aa39 	mvn	sl, #233472	; 0x39000

00000538 <l208>:
     538:	61f07066 	mvnsvs	r7, r6, rrx

0000053c <l209>:
     53c:	b1e05139 	mvnlt	r5, r9, lsr r1

00000540 <l210>:
     540:	e1f0806a 	mvns	r8, sl, rrx

00000544 <l211>:
     544:	71e0ac0b 	mvnvc	sl, fp, lsl #24

00000548 <l212>:
     548:	41f087ef 	mvnsmi	r8, pc, ror #15

0000054c <l213>:
     54c:	11e0c67b 	mvnne	ip, fp, ror r6

00000550 <l214>:
     550:	b1e0c003 	mvnlt	ip, r3

00000554 <l215>:
     554:	51f0c064 	mvnspl	ip, r4, rrx

00000558 <l216>:
     558:	11e00622 	mvnne	r0, r2, lsr #12

0000055c <l217>:
     55c:	e1e0e62f 	mvn	lr, pc, lsr #12

00000560 <l218>:
     560:	e1f0b00e 	mvns	fp, lr

00000564 <l219>:
     564:	71e09009 	mvnvc	r9, r9

00000568 <l220>:
     568:	31f073c2 	mvnscc	r7, r2, asr #7

0000056c <l221>:
     56c:	41e03005 	mvnmi	r3, r5

00000570 <l222>:
     570:	71e03069 	mvnvc	r3, r9, rrx

00000574 <l223>:
     574:	e3e0cc7f 	mvn	ip, #32512	; 0x7f00

00000578 <l224>:
     578:	61e06009 	mvnvs	r6, r9

0000057c <l225>:
     57c:	01f02001 	mvnseq	r2, r1

00000580 <l226>:
     580:	31f0a5c1 	mvnscc	sl, r1, asr #11

00000584 <l227>:
     584:	61e0ba57 	mvnvs	fp, r7, asr sl

00000588 <l228>:
     588:	81f0c5a7 	mvnshi	ip, r7, lsr #11

0000058c <l229>:
     58c:	e1f0a21e 	mvns	sl, lr, lsl r2

00000590 <l230>:
     590:	93e0e449 	mvnls	lr, #1224736768	; 0x49000000

00000594 <l231>:
     594:	e1e0b002 	mvn	fp, r2

00000598 <l232>:
     598:	d1e03524 	mvnle	r3, r4, lsr #10

0000059c <l233>:
     59c:	e1e03cc1 	mvn	r3, r1, asr #25

000005a0 <l234>:
     5a0:	43e03b21 	mvnmi	r3, #33792	; 0x8400

000005a4 <l235>:
     5a4:	e3e0978f 	mvn	r9, #37486592	; 0x23c0000

000005a8 <l236>:
     5a8:	e1e00009 	mvn	r0, r9

000005ac <l237>:
     5ac:	a1f09358 	mvnsge	r9, r8, asr r3

000005b0 <l238>:
     5b0:	e1f0900f 	mvns	r9, pc

000005b4 <l239>:
     5b4:	23f0ad99 	mvnscs	sl, #9792	; 0x2640

000005b8 <l240>:
     5b8:	d3e0b03e 	mvnle	fp, #62	; 0x3e

000005bc <l241>:
     5bc:	21e0c009 	mvncs	ip, r9

000005c0 <l242>:
     5c0:	91e03a0b 	mvnls	r3, fp, lsl #20

000005c4 <l243>:
     5c4:	a1f05231 	mvnsge	r5, r1, lsr r2

000005c8 <l244>:
     5c8:	e1e03ce1 	mvn	r3, r1, ror #25

000005cc <l245>:
     5cc:	01f0cf82 	mvnseq	ip, r2, lsl #31

000005d0 <l246>:
     5d0:	e1e02006 	mvn	r2, r6

000005d4 <l247>:
     5d4:	a1f08633 	mvnsge	r8, r3, lsr r6

000005d8 <l248>:
     5d8:	11f0200b 	mvnsne	r2, fp

000005dc <l249>:
     5dc:	e3f0e246 	mvns	lr, #1610612740	; 0x60000004

000005e0 <l250>:
     5e0:	41e0ac32 	mvnmi	sl, r2, lsr ip

000005e4 <l251>:
     5e4:	13f043e1 	mvnsne	r4, #-2080374781	; 0x84000003

000005e8 <l252>:
     5e8:	23e0931b 	mvncs	r9, #1811939328	; 0x6c000000

000005ec <l253>:
     5ec:	71e04008 	mvnvc	r4, r8

000005f0 <l254>:
     5f0:	a1f03034 	mvnsge	r3, r4, lsr r0

000005f4 <l255>:
     5f4:	e1f09003 	mvns	r9, r3

000005f8 <l256>:
     5f8:	71e0487a 	mvnvc	r4, sl, ror r8

000005fc <l257>:
     5fc:	e1e0a007 	mvn	sl, r7

00000600 <l258>:
     600:	41f02c01 	mvnsmi	r2, r1, lsl #24

00000604 <l259>:
     604:	e1e03658 	mvn	r3, r8, asr r6

00000608 <l260>:
     608:	93e0a000 	mvnls	sl, #0

0000060c <l261>:
     60c:	a1e03007 	mvnge	r3, r7

00000610 <l262>:
     610:	83f04e1e 	mvnshi	r4, #480	; 0x1e0

00000614 <l263>:
     614:	b1f0ab12 	mvnslt	sl, r2, lsl fp

00000618 <l264>:
     618:	81e0c005 	mvnhi	ip, r5

0000061c <l265>:
     61c:	91f0ee12 	mvnsls	lr, r2, lsl lr

00000620 <l266>:
     620:	e1f01009 	mvns	r1, r9

00000624 <l267>:
     624:	b3e047e5 	mvnlt	r4, #60030976	; 0x3940000

00000628 <l268>:
     628:	e1f08ea2 	mvns	r8, r2, lsr #29

0000062c <l269>:
     62c:	e1e0800a 	mvn	r8, sl

00000630 <l270>:
     630:	51f0c002 	mvnspl	ip, r2

00000634 <l271>:
     634:	e3f07e7b 	mvns	r7, #1968	; 0x7b0

00000638 <l272>:
     638:	e1e0ac1e 	mvn	sl, lr, lsl ip

0000063c <l273>:
     63c:	61e03060 	mvnvs	r3, r0, rrx

00000640 <l274>:
     640:	e1e0aa01 	mvn	sl, r1, lsl #20

00000644 <l275>:
     644:	d1e06675 	mvnle	r6, r5, ror r6

00000648 <l276>:
     648:	e1f07920 	mvns	r7, r0, lsr #18

0000064c <l277>:
     64c:	53e0c612 	mvnpl	ip, #18874368	; 0x1200000

00000650 <l278>:
     650:	e3f0e635 	mvns	lr, #55574528	; 0x3500000

00000654 <l279>:
     654:	e3f0147f 	mvns	r1, #2130706432	; 0x7f000000

00000658 <l280>:
     658:	71e0906c 	mvnvc	r9, ip, rrx

0000065c <l281>:
     65c:	c1f00005 	mvnsgt	r0, r5

00000660 <l282>:
     660:	e1e0a371 	mvn	sl, r1, ror r3

00000664 <l283>:
     664:	81f05ca6 	mvnshi	r5, r6, lsr #25

00000668 <l284>:
     668:	61e07b37 	mvnvs	r7, r7, lsr fp

0000066c <l285>:
     66c:	71e03b53 	mvnvc	r3, r3, asr fp

00000670 <l286>:
     670:	e1f02005 	mvns	r2, r5

00000674 <l287>:
     674:	71e06a3e 	mvnvc	r6, lr, lsr sl

00000678 <l288>:
     678:	e1f0b009 	mvns	fp, r9

0000067c <l289>:
     67c:	43f0855e 	mvnsmi	r8, #394264576	; 0x17800000

00000680 <l290>:
     680:	61e035ea 	mvnvs	r3, sl, ror #11

00000684 <l291>:
     684:	11e0e9a0 	mvnne	lr, r0, lsr #19

00000688 <l292>:
     688:	e3e0849d 	mvn	r8, #-1660944384	; 0x9d000000

0000068c <l293>:
     68c:	e1f08779 	mvns	r8, r9, ror r7

00000690 <l294>:
     690:	81e05823 	mvnhi	r5, r3, lsr #16

00000694 <l295>:
     694:	e1f01e42 	mvns	r1, r2, asr #28

00000698 <l296>:
     698:	e1e0c745 	mvn	ip, r5, asr #14

0000069c <l297>:
     69c:	e3f00639 	mvns	r0, #59768832	; 0x3900000

000006a0 <l298>:
     6a0:	23e04976 	mvncs	r4, #1933312	; 0x1d8000

000006a4 <l299>:
     6a4:	51e01006 	mvnpl	r1, r6

000006a8 <l300>:
     6a8:	41f01412 	mvnsmi	r1, r2, lsl r4

000006ac <l301>:
     6ac:	51e08652 	mvnpl	r8, r2, asr r6

000006b0 <l302>:
     6b0:	41e01e78 	mvnmi	r1, r8, ror lr

000006b4 <l303>:
     6b4:	e1f09f67 	mvns	r9, r7, ror #30

000006b8 <l304>:
     6b8:	61f08e25 	mvnsvs	r8, r5, lsr #28

000006bc <l305>:
     6bc:	e1f0c00e 	mvns	ip, lr

000006c0 <l306>:
     6c0:	e3f010a0 	mvns	r1, #160	; 0xa0

000006c4 <l307>:
     6c4:	61f01951 	mvnsvs	r1, r1, asr r9

000006c8 <l308>:
     6c8:	21f0933c 	mvnscs	r9, ip, lsr r3

000006cc <l309>:
     6cc:	b1e0a009 	mvnlt	sl, r9

000006d0 <l310>:
     6d0:	d1f05a2f 	mvnsle	r5, pc, lsr #20

000006d4 <l311>:
     6d4:	43e0eb11 	mvnmi	lr, #17408	; 0x4400

000006d8 <l312>:
     6d8:	91f0b000 	mvnsls	fp, r0

000006dc <l313>:
     6dc:	e1e0b27a 	mvn	fp, sl, ror r2

000006e0 <l314>:
     6e0:	e1e0400f 	mvn	r4, pc

000006e4 <l315>:
     6e4:	33e03fef 	mvncc	r3, #956	; 0x3bc

000006e8 <l316>:
     6e8:	e1e0781a 	mvn	r7, sl, lsl r8

000006ec <l317>:
     6ec:	e1e08064 	mvn	r8, r4, rrx

000006f0 <l318>:
     6f0:	e1f0406f 	mvns	r4, pc, rrx

000006f4 <l319>:
     6f4:	e1f00d62 	mvns	r0, r2, ror #26

000006f8 <l320>:
     6f8:	03f0ed4a 	mvnseq	lr, #4736	; 0x1280

000006fc <l321>:
     6fc:	e1f04bc1 	mvns	r4, r1, asr #23

00000700 <l322>:
     700:	e3f050a7 	mvns	r5, #167	; 0xa7

00000704 <l323>:
     704:	e1f0800c 	mvns	r8, ip

00000708 <l324>:
     708:	e1e07004 	mvn	r7, r4

0000070c <l325>:
     70c:	11e07009 	mvnne	r7, r9

00000710 <l326>:
     710:	51e01000 	mvnpl	r1, r0

00000714 <l327>:
     714:	31f07009 	mvnscc	r7, r9

00000718 <l328>:
     718:	61e0c8ec 	mvnvs	ip, ip, ror #17

0000071c <l329>:
     71c:	63f0e78f 	mvnsvs	lr, #37486592	; 0x23c0000

00000720 <l330>:
     720:	b1f07b1c 	mvnslt	r7, ip, lsl fp

00000724 <l331>:
     724:	a1f08007 	mvnsge	r8, r7

00000728 <l332>:
     728:	e3f08e52 	mvns	r8, #1312	; 0x520

0000072c <l333>:
     72c:	e1e0a9a8 	mvn	sl, r8, lsr #19

00000730 <l334>:
     730:	83f06873 	mvnshi	r6, #7536640	; 0x730000

00000734 <l335>:
     734:	31f04868 	mvnscc	r4, r8, ror #16

00000738 <l336>:
     738:	e3e00203 	mvn	r0, #805306368	; 0x30000000

0000073c <l337>:
     73c:	61e0e001 	mvnvs	lr, r1

00000740 <l338>:
     740:	a1f06060 	mvnsge	r6, r0, rrx

00000744 <l339>:
     744:	e1e05c59 	mvn	r5, r9, asr ip

00000748 <l340>:
     748:	d1f0c00e 	mvnsle	ip, lr

0000074c <l341>:
     74c:	11e02954 	mvnne	r2, r4, asr r9

00000750 <l342>:
     750:	81e00060 	mvnhi	r0, r0, rrx

00000754 <l343>:
     754:	81e07009 	mvnhi	r7, r9

00000758 <l344>:
     758:	81e09002 	mvnhi	r9, r2

0000075c <l345>:
     75c:	b1f0600a 	mvnslt	r6, sl

00000760 <l346>:
     760:	e1f0300a 	mvns	r3, sl

00000764 <l347>:
     764:	e1f04000 	mvns	r4, r0

00000768 <l348>:
     768:	c1f06000 	mvnsgt	r6, r0

0000076c <l349>:
     76c:	b1e03003 	mvnlt	r3, r3

00000770 <l350>:
     770:	e1f00001 	mvns	r0, r1

00000774 <l351>:
     774:	e1f01002 	mvns	r1, r2

00000778 <l352>:
     778:	e1f03a06 	mvns	r3, r6, lsl #20

0000077c <l353>:
     77c:	81e03da2 	mvnhi	r3, r2, lsr #27

00000780 <l354>:
     780:	e1f03004 	mvns	r3, r4

00000784 <l355>:
     784:	e1f08009 	mvns	r8, r9

00000788 <l356>:
     788:	11e0c4c3 	mvnne	ip, r3, asr #9

0000078c <l357>:
     78c:	e1e06005 	mvn	r6, r5

00000790 <l358>:
     790:	01e00066 	mvneq	r0, r6, rrx

00000794 <l359>:
     794:	61f02004 	mvnsvs	r2, r4

00000798 <l360>:
     798:	e1e07230 	mvn	r7, r0, lsr r2

0000079c <l361>:
     79c:	93f09c12 	mvnsls	r9, #4608	; 0x1200

000007a0 <l362>:
     7a0:	33e0a8d9 	mvncc	sl, #14221312	; 0xd90000

000007a4 <l363>:
     7a4:	e1e0000f 	mvn	r0, pc

000007a8 <l364>:
     7a8:	31f0a065 	mvnscc	sl, r5, rrx

000007ac <l365>:
     7ac:	e1f03008 	mvns	r3, r8

000007b0 <l366>:
     7b0:	83f0120f 	mvnshi	r1, #-268435456	; 0xf0000000

000007b4 <l367>:
     7b4:	d1e0806a 	mvnle	r8, sl, rrx

000007b8 <l368>:
     7b8:	b1f09ce8 	mvnslt	r9, r8, ror #25

000007bc <l369>:
     7bc:	e1e04ea7 	mvn	r4, r7, lsr #29

000007c0 <l370>:
     7c0:	71e0600e 	mvnvc	r6, lr

000007c4 <l371>:
     7c4:	b3e0c0a2 	mvnlt	ip, #162	; 0xa2

000007c8 <l372>:
     7c8:	e3f0e4fa 	mvns	lr, #-100663296	; 0xfa000000

000007cc <l373>:
     7cc:	e1e095ae 	mvn	r9, lr, lsr #11

000007d0 <l374>:
     7d0:	01f0906e 	mvnseq	r9, lr, rrx

000007d4 <l375>:
     7d4:	41f00009 	mvnsmi	r0, r9

000007d8 <l376>:
     7d8:	11f0a06c 	mvnsne	sl, ip, rrx

000007dc <l377>:
     7dc:	b1f05755 	mvnslt	r5, r5, asr r7

000007e0 <l378>:
     7e0:	d3e051f9 	mvnle	r5, #1073741886	; 0x4000003e

000007e4 <l379>:
     7e4:	d3e01ad1 	mvnle	r1, #856064	; 0xd1000

000007e8 <l380>:
     7e8:	e1e01089 	mvn	r1, r9, lsl #1

000007ec <l381>:
     7ec:	a1e00c35 	mvnge	r0, r5, lsr ip

000007f0 <l382>:
     7f0:	e1f01069 	mvns	r1, r9, rrx

000007f4 <l383>:
     7f4:	e3e0903f 	mvn	r9, #63	; 0x3f

000007f8 <l384>:
     7f8:	c1f02009 	mvnsgt	r2, r9

000007fc <l385>:
     7fc:	e1e02065 	mvn	r2, r5, rrx

00000800 <l386>:
     800:	81f0c00b 	mvnshi	ip, fp

00000804 <l387>:
     804:	e1e017a8 	mvn	r1, r8, lsr #15

00000808 <l388>:
     808:	11f00878 	mvnsne	r0, r8, ror r8

0000080c <l389>:
     80c:	71f0e005 	mvnsvc	lr, r5

00000810 <l390>:
     810:	33e04486 	mvncc	r4, #-2046820352	; 0x86000000

00000814 <l391>:
     814:	91f0c411 	mvnsls	ip, r1, lsl r4

00000818 <l392>:
     818:	e1e08539 	mvn	r8, r9, lsr r5

0000081c <l393>:
     81c:	e1e0bea2 	mvn	fp, r2, lsr #29

00000820 <l394>:
     820:	01f01c88 	mvnseq	r1, r8, lsl #25

00000824 <l395>:
     824:	81f0cee6 	mvnshi	ip, r6, ror #29

00000828 <l396>:
     828:	71e0c753 	mvnvc	ip, r3, asr r7

0000082c <l397>:
     82c:	d1f0e061 	mvnsle	lr, r1, rrx

00000830 <l398>:
     830:	53e0a9f5 	mvnpl	sl, #4014080	; 0x3d4000

00000834 <l399>:
     834:	e1f093e7 	mvns	r9, r7, ror #7

00000838 <l400>:
     838:	d1e01aef 	mvnle	r1, pc, ror #21

0000083c <l401>:
     83c:	e1e0a716 	mvn	sl, r6, lsl r7

00000840 <l402>:
     840:	e3f07b22 	mvns	r7, #34816	; 0x8800

00000844 <l403>:
     844:	e3f04c1a 	mvns	r4, #6656	; 0x1a00

00000848 <l404>:
     848:	e3e02de2 	mvn	r2, #14464	; 0x3880

0000084c <l405>:
     84c:	e1f0a54e 	mvns	sl, lr, asr #10

00000850 <l406>:
     850:	e1e02be5 	mvn	r2, r5, ror #23

00000854 <l407>:
     854:	91f0b33a 	mvnsls	fp, sl, lsr r3

00000858 <l408>:
     858:	e3f004de 	mvns	r0, #-570425344	; 0xde000000

0000085c <l409>:
     85c:	13f03189 	mvnsne	r3, #1073741858	; 0x40000022

00000860 <l410>:
     860:	41e09636 	mvnmi	r9, r6, lsr r6

00000864 <l411>:
     864:	71f0b844 	mvnsvc	fp, r4, asr #16

00000868 <l412>:
     868:	61f0068b 	mvnsvs	r0, fp, lsl #13

0000086c <l413>:
     86c:	b1f0600e 	mvnslt	r6, lr

00000870 <l414>:
     870:	e1e00452 	mvn	r0, r2, asr r4

00000874 <l415>:
     874:	71f0e002 	mvnsvc	lr, r2

00000878 <l416>:
     878:	e3e06e93 	mvn	r6, #2352	; 0x930

0000087c <l417>:
     87c:	e1e01a15 	mvn	r1, r5, lsl sl

00000880 <l418>:
     880:	21e06068 	mvncs	r6, r8, rrx

00000884 <l419>:
     884:	21f0891c 	mvnscs	r8, ip, lsl r9

00000888 <l420>:
     888:	81e00060 	mvnhi	r0, r0, rrx

0000088c <l421>:
     88c:	c3f0c429 	mvnsgt	ip, #687865856	; 0x29000000

00000890 <l422>:
     890:	b1f05064 	mvnslt	r5, r4, rrx

00000894 <l423>:
     894:	31f0b062 	mvnscc	fp, r2, rrx

00000898 <l424>:
     898:	d1f0100a 	mvnsle	r1, sl

0000089c <l425>:
     89c:	81e00a11 	mvnhi	r0, r1, lsl sl

000008a0 <l426>:
     8a0:	61f0c007 	mvnsvs	ip, r7

000008a4 <l427>:
     8a4:	31f01d68 	mvnscc	r1, r8, ror #26

000008a8 <l428>:
     8a8:	b1f046c9 	mvnslt	r4, r9, asr #13

000008ac <l429>:
     8ac:	a3f04576 	mvnsge	r4, #494927872	; 0x1d800000

000008b0 <l430>:
     8b0:	b3e04367 	mvnlt	r4, #-1677721599	; 0x9c000001

000008b4 <l431>:
     8b4:	e3f0a419 	mvns	sl, #419430400	; 0x19000000

000008b8 <l432>:
     8b8:	e1e02b7e 	mvn	r2, lr, ror fp

000008bc <l433>:
     8bc:	a1e07066 	mvnge	r7, r6, rrx

000008c0 <l434>:
     8c0:	11f0600f 	mvnsne	r6, pc

000008c4 <l435>:
     8c4:	e3f0a19b 	mvns	sl, #-1073741786	; 0xc0000026

000008c8 <l436>:
     8c8:	e1e08174 	mvn	r8, r4, ror r1

000008cc <l437>:
     8cc:	51e06378 	mvnpl	r6, r8, ror r3

000008d0 <l438>:
     8d0:	51e0806c 	mvnpl	r8, ip, rrx

000008d4 <l439>:
     8d4:	e1e05210 	mvn	r5, r0, lsl r2

000008d8 <l440>:
     8d8:	81e0000c 	mvnhi	r0, ip

000008dc <l441>:
     8dc:	e1f004c2 	mvns	r0, r2, asr #9

000008e0 <l442>:
     8e0:	91e02cea 	mvnls	r2, sl, ror #25

000008e4 <l443>:
     8e4:	91e0e00f 	mvnls	lr, pc

000008e8 <l444>:
     8e8:	e1f0a00a 	mvns	sl, sl

000008ec <l445>:
     8ec:	41f04003 	mvnsmi	r4, r3

000008f0 <l446>:
     8f0:	83f0ebd9 	mvnshi	lr, #222208	; 0x36400

000008f4 <l447>:
     8f4:	d1f05a70 	mvnsle	r5, r0, ror sl

000008f8 <l448>:
     8f8:	e1e0ee44 	mvn	lr, r4, asr #28

000008fc <l449>:
     8fc:	e1f04063 	mvns	r4, r3, rrx

00000900 <l450>:
     900:	e1e0c005 	mvn	ip, r5

00000904 <l451>:
     904:	e3e05916 	mvn	r5, #360448	; 0x58000

00000908 <l452>:
     908:	e1f0e9c0 	mvns	lr, r0, asr #19

0000090c <l453>:
     90c:	41e0b677 	mvnmi	fp, r7, ror r6

00000910 <l454>:
     910:	33e0a439 	mvncc	sl, #956301312	; 0x39000000

00000914 <l455>:
     914:	e1f0ae7a 	mvns	sl, sl, ror lr

00000918 <l456>:
     918:	01f0786e 	mvnseq	r7, lr, ror #16

0000091c <l457>:
     91c:	d1e0b002 	mvnle	fp, r2

00000920 <l458>:
     920:	e3e04806 	mvn	r4, #393216	; 0x60000

00000924 <l459>:
     924:	51f0595b 	mvnspl	r5, fp, asr r9

00000928 <l460>:
     928:	11f09008 	mvnsne	r9, r8

0000092c <l461>:
     92c:	e1f087ae 	mvns	r8, lr, lsr #15

00000930 <l462>:
     930:	91e03e20 	mvnls	r3, r0, lsr #28

00000934 <l463>:
     934:	71e09003 	mvnvc	r9, r3

00000938 <l464>:
     938:	e1e06000 	mvn	r6, r0

0000093c <l465>:
     93c:	b1f05000 	mvnslt	r5, r0

00000940 <l466>:
     940:	e1e0025b 	mvn	r0, fp, asr r2

00000944 <l467>:
     944:	e1f08ec9 	mvns	r8, r9, asr #29

00000948 <l468>:
     948:	a1f00830 	mvnsge	r0, r0, lsr r8

0000094c <l469>:
     94c:	e3e0a19e 	mvn	sl, #-2147483609	; 0x80000027

00000950 <l470>:
     950:	b1f0a007 	mvnslt	sl, r7

00000954 <l471>:
     954:	e1e08067 	mvn	r8, r7, rrx

00000958 <l472>:
     958:	71f0ac41 	mvnsvc	sl, r1, asr #24

0000095c <l473>:
     95c:	e1e0c00b 	mvn	ip, fp

00000960 <l474>:
     960:	53f06a2b 	mvnspl	r6, #176128	; 0x2b000

00000964 <l475>:
     964:	01f0b06c 	mvnseq	fp, ip, rrx

00000968 <l476>:
     968:	a1e00832 	mvnge	r0, r2, lsr r8

0000096c <l477>:
     96c:	e1e01826 	mvn	r1, r6, lsr #16

00000970 <l478>:
     970:	81f06007 	mvnshi	r6, r7

00000974 <l479>:
     974:	03e04303 	mvneq	r4, #201326592	; 0xc000000

00000978 <l480>:
     978:	81e09e73 	mvnhi	r9, r3, ror lr

0000097c <l481>:
     97c:	e1f05b66 	mvns	r5, r6, ror #22

00000980 <l482>:
     980:	e1e0800c 	mvn	r8, ip

00000984 <l483>:
     984:	e1e08005 	mvn	r8, r5

00000988 <l484>:
     988:	d1f08757 	mvnsle	r8, r7, asr r7

0000098c <l485>:
     98c:	e1f09813 	mvns	r9, r3, lsl r8

00000990 <l486>:
     990:	81f0ba17 	mvnshi	fp, r7, lsl sl

00000994 <l487>:
     994:	23f0c119 	mvnscs	ip, #1073741830	; 0x40000006

00000998 <l488>:
     998:	e3f06635 	mvns	r6, #55574528	; 0x3500000

0000099c <l489>:
     99c:	81e0451e 	mvnhi	r4, lr, lsl r5

000009a0 <l490>:
     9a0:	01e0aac0 	mvneq	sl, r0, asr #21

000009a4 <l491>:
     9a4:	11e09009 	mvnne	r9, r9

000009a8 <l492>:
     9a8:	51e0406a 	mvnpl	r4, sl, rrx

000009ac <l493>:
     9ac:	b3e0ab97 	mvnlt	sl, #154624	; 0x25c00

000009b0 <l494>:
     9b0:	93e0570f 	mvnls	r5, #3932160	; 0x3c0000

000009b4 <l495>:
     9b4:	e1f0e06a 	mvns	lr, sl, rrx

000009b8 <l496>:
     9b8:	e1e01069 	mvn	r1, r9, rrx

000009bc <l497>:
     9bc:	e3f03ad1 	mvns	r3, #856064	; 0xd1000

000009c0 <l498>:
     9c0:	e1f0b007 	mvns	fp, r7

000009c4 <l499>:
     9c4:	e1e08fa3 	mvn	r8, r3, lsr #31

000009c8 <l500>:
     9c8:	e1e0b00e 	mvn	fp, lr

000009cc <l501>:
     9cc:	81f046e8 	mvnshi	r4, r8, ror #13

000009d0 <l502>:
     9d0:	01e09005 	mvneq	r9, r5

000009d4 <l503>:
     9d4:	e3f08e1f 	mvns	r8, #496	; 0x1f0

000009d8 <l504>:
     9d8:	e1e06912 	mvn	r6, r2, lsl r9

000009dc <l505>:
     9dc:	33e00931 	mvncc	r0, #802816	; 0xc4000

000009e0 <l506>:
     9e0:	e3f060b9 	mvns	r6, #185	; 0xb9

000009e4 <l507>:
     9e4:	03f01040 	mvnseq	r1, #64	; 0x40

000009e8 <l508>:
     9e8:	e1e06210 	mvn	r6, r0, lsl r2

000009ec <l509>:
     9ec:	d3f04433 	mvnsle	r4, #855638016	; 0x33000000

000009f0 <l510>:
     9f0:	d3e06011 	mvnle	r6, #17

000009f4 <l511>:
     9f4:	51e06008 	mvnpl	r6, r8

000009f8 <l512>:
     9f8:	e1e07573 	mvn	r7, r3, ror r5

000009fc <l513>:
     9fc:	51e04b24 	mvnpl	r4, r4, lsr #22

00000a00 <l514>:
     a00:	61e0c00b 	mvnvs	ip, fp

00000a04 <l515>:
     a04:	b1e095e7 	mvnlt	r9, r7, ror #11

00000a08 <l516>:
     a08:	e1f01611 	mvns	r1, r1, lsl r6

00000a0c <l517>:
     a0c:	51e07006 	mvnpl	r7, r6

00000a10 <l518>:
     a10:	e1f05952 	mvns	r5, r2, asr r9

00000a14 <l519>:
     a14:	a1f0c915 	mvnsge	ip, r5, lsl r9

00000a18 <l520>:
     a18:	e3f037ba 	mvns	r3, #48758784	; 0x2e80000

00000a1c <l521>:
     a1c:	e1e0a00b 	mvn	sl, fp

00000a20 <l522>:
     a20:	91f0000e 	mvnsls	r0, lr

00000a24 <l523>:
     a24:	31f0e3e5 	mvnscc	lr, r5, ror #7

00000a28 <l524>:
     a28:	41e0b556 	mvnmi	fp, r6, asr r5

00000a2c <l525>:
     a2c:	31f0e11c 	mvnscc	lr, ip, lsl r1

00000a30 <l526>:
     a30:	a1f04064 	mvnsge	r4, r4, rrx

00000a34 <l527>:
     a34:	e3f03d29 	mvns	r3, #2624	; 0xa40

00000a38 <l528>:
     a38:	73f0ca0a 	mvnsvc	ip, #40960	; 0xa000

00000a3c <l529>:
     a3c:	51e08069 	mvnpl	r8, r9, rrx

00000a40 <l530>:
     a40:	61f06148 	mvnsvs	r6, r8, asr #2

00000a44 <l531>:
     a44:	e1f0ada2 	mvns	sl, r2, lsr #27

00000a48 <l532>:
     a48:	01e0700e 	mvneq	r7, lr

00000a4c <l533>:
     a4c:	01f0b24f 	mvnseq	fp, pc, asr #4

00000a50 <l534>:
     a50:	e1f0c068 	mvns	ip, r8, rrx

00000a54 <l535>:
     a54:	e1e0543c 	mvn	r5, ip, lsr r4

00000a58 <l536>:
     a58:	71e06850 	mvnvc	r6, r0, asr r8

00000a5c <l537>:
     a5c:	b3f0eabb 	mvnslt	lr, #765952	; 0xbb000

00000a60 <l538>:
     a60:	e1e09003 	mvn	r9, r3

00000a64 <l539>:
     a64:	41f0e2e9 	mvnsmi	lr, r9, ror #5

00000a68 <l540>:
     a68:	91e0be32 	mvnls	fp, r2, lsr lr

00000a6c <l541>:
     a6c:	51e08000 	mvnpl	r8, r0

00000a70 <l542>:
     a70:	73f06dfd 	mvnsvc	r6, #16192	; 0x3f40

00000a74 <l543>:
     a74:	e1e03177 	mvn	r3, r7, ror r1

00000a78 <l544>:
     a78:	e1e0a377 	mvn	sl, r7, ror r3

00000a7c <l545>:
     a7c:	91e00060 	mvnls	r0, r0, rrx

00000a80 <l546>:
     a80:	11e0c5a9 	mvnne	ip, r9, lsr #11

00000a84 <l547>:
     a84:	81e0b004 	mvnhi	fp, r4

00000a88 <l548>:
     a88:	41e0c9c7 	mvnmi	ip, r7, asr #19

00000a8c <l549>:
     a8c:	e1f05112 	mvns	r5, r2, lsl r1

00000a90 <l550>:
     a90:	b1e05a70 	mvnlt	r5, r0, ror sl

00000a94 <l551>:
     a94:	71f0b007 	mvnsvc	fp, r7

00000a98 <l552>:
     a98:	13f0e481 	mvnsne	lr, #-2130706432	; 0x81000000

00000a9c <l553>:
     a9c:	e3f0331d 	mvns	r3, #1946157056	; 0x74000000

00000aa0 <l554>:
     aa0:	21e02006 	mvncs	r2, r6

00000aa4 <l555>:
     aa4:	e3e0250b 	mvn	r2, #46137344	; 0x2c00000

00000aa8 <l556>:
     aa8:	e1f0206c 	mvns	r2, ip, rrx

00000aac <l557>:
     aac:	33e0210a 	mvncc	r2, #-2147483646	; 0x80000002

00000ab0 <l558>:
     ab0:	41f01224 	mvnsmi	r1, r4, lsr #4

00000ab4 <l559>:
     ab4:	21e01063 	mvncs	r1, r3, rrx

00000ab8 <l560>:
     ab8:	c1e0a543 	mvngt	sl, r3, asr #10

00000abc <l561>:
     abc:	e1f0bc46 	mvns	fp, r6, asr #24

00000ac0 <l562>:
     ac0:	e1f05137 	mvns	r5, r7, lsr r1

00000ac4 <l563>:
     ac4:	21f03e7b 	mvnscs	r3, fp, ror lr

00000ac8 <l564>:
     ac8:	31f07009 	mvnscc	r7, r9

00000acc <l565>:
     acc:	21e0906e 	mvncs	r9, lr, rrx

00000ad0 <l566>:
     ad0:	a1e08308 	mvnge	r8, r8, lsl #6

00000ad4 <l567>:
     ad4:	21e0c068 	mvncs	ip, r8, rrx

00000ad8 <l568>:
     ad8:	c1e08f04 	mvngt	r8, r4, lsl #30

00000adc <l569>:
     adc:	e1f0a3ea 	mvns	sl, sl, ror #7

00000ae0 <l570>:
     ae0:	51f059c4 	mvnspl	r5, r4, asr #19

00000ae4 <l571>:
     ae4:	e1f04652 	mvns	r4, r2, asr r6

00000ae8 <l572>:
     ae8:	23e0afc1 	mvncs	sl, #772	; 0x304

00000aec <l573>:
     aec:	21f0805a 	mvnscs	r8, sl, asr r0

00000af0 <l574>:
     af0:	e1f0400c 	mvns	r4, ip

00000af4 <l575>:
     af4:	23e06c1a 	mvncs	r6, #6656	; 0x1a00

00000af8 <l576>:
     af8:	e1f03065 	mvns	r3, r5, rrx

00000afc <l577>:
     afc:	81e09004 	mvnhi	r9, r4

00000b00 <l578>:
     b00:	e1e03658 	mvn	r3, r8, asr r6

00000b04 <l579>:
     b04:	41e0b00e 	mvnmi	fp, lr

00000b08 <l580>:
     b08:	91f0ca07 	mvnsls	ip, r7, lsl #20

00000b0c <l581>:
     b0c:	21e0c008 	mvncs	ip, r8

00000b10 <l582>:
     b10:	31e09511 	mvncc	r9, r1, lsl r5

00000b14 <l583>:
     b14:	e1f02066 	mvns	r2, r6, rrx

00000b18 <l584>:
     b18:	c1e0b202 	mvngt	fp, r2, lsl #4

00000b1c <l585>:
     b1c:	31f04c77 	mvnscc	r4, r7, ror ip

00000b20 <l586>:
     b20:	51f0a060 	mvnspl	sl, r0, rrx

00000b24 <l587>:
     b24:	a1f0c009 	mvnsge	ip, r9

00000b28 <l588>:
     b28:	e1e0b064 	mvn	fp, r4, rrx

00000b2c <l589>:
     b2c:	13f00325 	mvnsne	r0, #-1811939328	; 0x94000000

00000b30 <l590>:
     b30:	e1f0743b 	mvns	r7, fp, lsr r4

00000b34 <l591>:
     b34:	23f00b39 	mvnscs	r0, #58368	; 0xe400

00000b38 <l592>:
     b38:	d1e0900f 	mvnle	r9, pc

00000b3c <l593>:
     b3c:	53e02dcf 	mvnpl	r2, #13248	; 0x33c0

00000b40 <l594>:
     b40:	e1f09601 	mvns	r9, r1, lsl #12

00000b44 <l595>:
     b44:	e3f011c7 	mvns	r1, #-1073741775	; 0xc0000031

00000b48 <l596>:
     b48:	e3f03e3f 	mvns	r3, #1008	; 0x3f0

00000b4c <l597>:
     b4c:	d1e0a002 	mvnle	sl, r2

00000b50 <l598>:
     b50:	e3f0438e 	mvns	r4, #939524098	; 0x38000002

00000b54 <l599>:
     b54:	d3e0c477 	mvnle	ip, #1996488704	; 0x77000000

00000b58 <l600>:
     b58:	e1e085eb 	mvn	r8, fp, ror #11

00000b5c <l601>:
     b5c:	e3f00dd5 	mvns	r0, #13632	; 0x3540

00000b60 <l602>:
     b60:	e1e08a69 	mvn	r8, r9, ror #20

00000b64 <l603>:
     b64:	01f05350 	mvnseq	r5, r0, asr r3

00000b68 <l604>:
     b68:	e1f08f2f 	mvns	r8, pc, lsr #30

00000b6c <l605>:
     b6c:	61e05eea 	mvnvs	r5, sl, ror #29

00000b70 <l606>:
     b70:	01f09469 	mvnseq	r9, r9, ror #8

00000b74 <l607>:
     b74:	d1e0a002 	mvnle	sl, r2

00000b78 <l608>:
     b78:	a1e0706a 	mvnge	r7, sl, rrx

00000b7c <l609>:
     b7c:	e1e05a85 	mvn	r5, r5, lsl #21

00000b80 <l610>:
     b80:	e1e0335e 	mvn	r3, lr, asr r3

00000b84 <l611>:
     b84:	61e0975a 	mvnvs	r9, sl, asr r7

00000b88 <l612>:
     b88:	e1f0700e 	mvns	r7, lr

00000b8c <l613>:
     b8c:	31e06063 	mvncc	r6, r3, rrx

00000b90 <l614>:
     b90:	e1f0ac70 	mvns	sl, r0, ror ip

00000b94 <l615>:
     b94:	e1e0900a 	mvn	r9, sl

00000b98 <l616>:
     b98:	51f08007 	mvnspl	r8, r7

00000b9c <l617>:
     b9c:	d1f09753 	mvnsle	r9, r3, asr r7

00000ba0 <l618>:
     ba0:	b1f05008 	mvnslt	r5, r8

00000ba4 <l619>:
     ba4:	e1e0261a 	mvn	r2, sl, lsl r6

00000ba8 <l620>:
     ba8:	91e04002 	mvnls	r4, r2

00000bac <l621>:
     bac:	91e09e85 	mvnls	r9, r5, lsl #29

00000bb0 <l622>:
     bb0:	e3f0af9d 	mvns	sl, #628	; 0x274

00000bb4 <l623>:
     bb4:	e1f01001 	mvns	r1, r1

00000bb8 <l624>:
     bb8:	41f06066 	mvnsmi	r6, r6, rrx

00000bbc <l625>:
     bbc:	e1e03b78 	mvn	r3, r8, ror fp

00000bc0 <l626>:
     bc0:	e3f05835 	mvns	r5, #3473408	; 0x350000

00000bc4 <l627>:
     bc4:	91e0e003 	mvnls	lr, r3

00000bc8 <l628>:
     bc8:	21e0c008 	mvncs	ip, r8

00000bcc <l629>:
     bcc:	21e0e003 	mvncs	lr, r3

00000bd0 <l630>:
     bd0:	21f05f0c 	mvnscs	r5, ip, lsl #30

00000bd4 <l631>:
     bd4:	e1f01352 	mvns	r1, r2, asr r3

00000bd8 <l632>:
     bd8:	51e0200f 	mvnpl	r2, pc

00000bdc <l633>:
     bdc:	61e02002 	mvnvs	r2, r2

00000be0 <l634>:
     be0:	c1f06007 	mvnsgt	r6, r7

00000be4 <l635>:
     be4:	31e0070e 	mvncc	r0, lr, lsl #14

00000be8 <l636>:
     be8:	e3f08da9 	mvns	r8, #10816	; 0x2a40

00000bec <l637>:
     bec:	e1f0b25c 	mvns	fp, ip, asr r2

00000bf0 <l638>:
     bf0:	01f01068 	mvnseq	r1, r8, rrx

00000bf4 <l639>:
     bf4:	e1f0300b 	mvns	r3, fp

00000bf8 <l640>:
     bf8:	e1e05803 	mvn	r5, r3, lsl #16

00000bfc <l641>:
     bfc:	b1f09c17 	mvnslt	r9, r7, lsl ip

00000c00 <l642>:
     c00:	e1e06555 	mvn	r6, r5, asr r5

00000c04 <l643>:
     c04:	a1e0ea07 	mvnge	lr, r7, lsl #20

00000c08 <l644>:
     c08:	01e0848b 	mvneq	r8, fp, lsl #9

00000c0c <l645>:
     c0c:	e1f06062 	mvns	r6, r2, rrx

00000c10 <l646>:
     c10:	c1f0200a 	mvnsgt	r2, sl

00000c14 <l647>:
     c14:	41e0600e 	mvnmi	r6, lr

00000c18 <l648>:
     c18:	63e0916a 	mvnvs	r9, #-2147483622	; 0x8000001a

00000c1c <l649>:
     c1c:	73f03293 	mvnsvc	r3, #805306377	; 0x30000009

00000c20 <l650>:
     c20:	e1e0e001 	mvn	lr, r1

00000c24 <l651>:
     c24:	31f0e003 	mvnscc	lr, r3

00000c28 <l652>:
     c28:	e1e00038 	mvn	r0, r8, lsr r0

00000c2c <l653>:
     c2c:	91f0b00f 	mvnsls	fp, pc

00000c30 <l654>:
     c30:	e1e07068 	mvn	r7, r8, rrx

00000c34 <l655>:
     c34:	e3e082ba 	mvn	r8, #-1610612725	; 0xa000000b

00000c38 <l656>:
     c38:	e1f0154a 	mvns	r1, sl, asr #10

00000c3c <l657>:
     c3c:	e1f08a06 	mvns	r8, r6, lsl #20

00000c40 <l658>:
     c40:	63e00126 	mvnvs	r0, #-2147483639	; 0x80000009

00000c44 <l659>:
     c44:	e1e0800a 	mvn	r8, sl

00000c48 <l660>:
     c48:	e1e06c34 	mvn	r6, r4, lsr ip

00000c4c <l661>:
     c4c:	e1e0b009 	mvn	fp, r9

00000c50 <l662>:
     c50:	31e08002 	mvncc	r8, r2

00000c54 <l663>:
     c54:	e3f0353e 	mvns	r3, #260046848	; 0xf800000

00000c58 <l664>:
     c58:	e1e0817e 	mvn	r8, lr, ror r1

00000c5c <l665>:
     c5c:	c3e05561 	mvngt	r5, #406847488	; 0x18400000

00000c60 <l666>:
     c60:	31f078e6 	mvnscc	r7, r6, ror #17

00000c64 <l667>:
     c64:	91e05a2f 	mvnls	r5, pc, lsr #20

00000c68 <l668>:
     c68:	53f0c01f 	mvnspl	ip, #31

00000c6c <l669>:
     c6c:	e1e06000 	mvn	r6, r0

00000c70 <l670>:
     c70:	71f0ab74 	mvnsvc	sl, r4, ror fp

00000c74 <l671>:
     c74:	41e01007 	mvnmi	r1, r7

00000c78 <l672>:
     c78:	c1f01b30 	mvnsgt	r1, r0, lsr fp

00000c7c <l673>:
     c7c:	93e0490d 	mvnls	r4, #212992	; 0x34000

00000c80 <l674>:
     c80:	e1e0600f 	mvn	r6, pc

00000c84 <l675>:
     c84:	61f0835e 	mvnsvs	r8, lr, asr r3

00000c88 <l676>:
     c88:	e1f0226a 	mvns	r2, sl, ror #4

00000c8c <l677>:
     c8c:	e1e0a004 	mvn	sl, r4

00000c90 <l678>:
     c90:	51f01000 	mvnspl	r1, r0

00000c94 <l679>:
     c94:	e3f026fd 	mvns	r2, #265289728	; 0xfd00000

00000c98 <l680>:
     c98:	31f0000a 	mvnscc	r0, sl

00000c9c <l681>:
     c9c:	31e07582 	mvncc	r7, r2, lsl #11

00000ca0 <l682>:
     ca0:	e1f06b84 	mvns	r6, r4, lsl #23

00000ca4 <l683>:
     ca4:	e1e0100c 	mvn	r1, ip

00000ca8 <l684>:
     ca8:	e1f05873 	mvns	r5, r3, ror r8

00000cac <l685>:
     cac:	71e00007 	mvnvc	r0, r7

00000cb0 <l686>:
     cb0:	61f0a586 	mvnsvs	sl, r6, lsl #11

00000cb4 <l687>:
     cb4:	31e00dc5 	mvncc	r0, r5, asr #27

00000cb8 <l688>:
     cb8:	b1f063ef 	mvnslt	r6, pc, ror #7

00000cbc <l689>:
     cbc:	41e03536 	mvnmi	r3, r6, lsr r5

00000cc0 <l690>:
     cc0:	21f0e347 	mvnscs	lr, r7, asr #6

00000cc4 <l691>:
     cc4:	e1f07066 	mvns	r7, r6, rrx

00000cc8 <l692>:
     cc8:	81f0623b 	mvnshi	r6, fp, lsr r2

00000ccc <l693>:
     ccc:	b1e07064 	mvnlt	r7, r4, rrx

00000cd0 <l694>:
     cd0:	71e07971 	mvnvc	r7, r1, ror r9

00000cd4 <l695>:
     cd4:	e3e08a53 	mvn	r8, #339968	; 0x53000

00000cd8 <l696>:
     cd8:	a3f0502b 	mvnsge	r5, #43	; 0x2b

00000cdc <l697>:
     cdc:	e1f00926 	mvns	r0, r6, lsr #18

00000ce0 <l698>:
     ce0:	21f019eb 	mvnscs	r1, fp, ror #19

00000ce4 <l699>:
     ce4:	e1e0c063 	mvn	ip, r3, rrx

00000ce8 <l700>:
     ce8:	e3f0b018 	mvns	fp, #24

00000cec <l701>:
     cec:	e3e0a5e2 	mvn	sl, #947912704	; 0x38800000

00000cf0 <l702>:
     cf0:	c3f07bab 	mvnsgt	r7, #175104	; 0x2ac00

00000cf4 <l703>:
     cf4:	43f06689 	mvnsmi	r6, #143654912	; 0x8900000

00000cf8 <l704>:
     cf8:	21f07ec3 	mvnscs	r7, r3, asr #29

00000cfc <l705>:
     cfc:	c1e0300f 	mvngt	r3, pc

00000d00 <l706>:
     d00:	c3f0c53b 	mvnsgt	ip, #247463936	; 0xec00000

00000d04 <l707>:
     d04:	e3f0221e 	mvns	r2, #-536870911	; 0xe0000001

00000d08 <l708>:
     d08:	21e0600b 	mvncs	r6, fp

00000d0c <l709>:
     d0c:	61e04eca 	mvnvs	r4, sl, asr #29

00000d10 <l710>:
     d10:	13f00a5f 	mvnsne	r0, #389120	; 0x5f000

00000d14 <l711>:
     d14:	e3e0a3b6 	mvn	sl, #-671088638	; 0xd8000002

00000d18 <l712>:
     d18:	a3e006e5 	mvnge	r0, #240123904	; 0xe500000

00000d1c <l713>:
     d1c:	e1f08cef 	mvns	r8, pc, ror #25

00000d20 <l714>:
     d20:	a1f00005 	mvnsge	r0, r5

00000d24 <l715>:
     d24:	a1e07a0c 	mvnge	r7, ip, lsl #20

00000d28 <l716>:
     d28:	e1f0806e 	mvns	r8, lr, rrx

00000d2c <l717>:
     d2c:	81f05077 	mvnshi	r5, r7, ror r0

00000d30 <l718>:
     d30:	e1e04126 	mvn	r4, r6, lsr #2

00000d34 <l719>:
     d34:	e1e02c79 	mvn	r2, r9, ror ip

00000d38 <l720>:
     d38:	e1f028ee 	mvns	r2, lr, ror #17

00000d3c <l721>:
     d3c:	23f03866 	mvnscs	r3, #6684672	; 0x660000

00000d40 <l722>:
     d40:	e1f09000 	mvns	r9, r0

00000d44 <l723>:
     d44:	01e0493e 	mvneq	r4, lr, lsr r9

00000d48 <l724>:
     d48:	83f09371 	mvnshi	r9, #-1006632959	; 0xc4000001

00000d4c <l725>:
     d4c:	e1e09b71 	mvn	r9, r1, ror fp

00000d50 <l726>:
     d50:	e1f0061b 	mvns	r0, fp, lsl r6

00000d54 <l727>:
     d54:	61f0a953 	mvnsvs	sl, r3, asr r9

00000d58 <l728>:
     d58:	91f0e000 	mvnsls	lr, r0

00000d5c <l729>:
     d5c:	e1e07744 	mvn	r7, r4, asr #14

00000d60 <l730>:
     d60:	e3f02991 	mvns	r2, #2375680	; 0x244000

00000d64 <l731>:
     d64:	e3f05d4e 	mvns	r5, #4992	; 0x1380

00000d68 <l732>:
     d68:	11e01009 	mvnne	r1, r9

00000d6c <l733>:
     d6c:	41e0c004 	mvnmi	ip, r4

00000d70 <l734>:
     d70:	61e06007 	mvnvs	r6, r7

00000d74 <l735>:
     d74:	e1e0900f 	mvn	r9, pc

00000d78 <l736>:
     d78:	e3f0c22f 	mvns	ip, #-268435454	; 0xf0000002

00000d7c <l737>:
     d7c:	81e0b065 	mvnhi	fp, r5, rrx

00000d80 <l738>:
     d80:	e1e03525 	mvn	r3, r5, lsr #10

00000d84 <l739>:
     d84:	e1f03f83 	mvns	r3, r3, lsl #31

00000d88 <l740>:
     d88:	e1f0e008 	mvns	lr, r8

00000d8c <l741>:
     d8c:	e1f06001 	mvns	r6, r1

00000d90 <l742>:
     d90:	d1f08060 	mvnsle	r8, r0, rrx

00000d94 <l743>:
     d94:	33e05112 	mvncc	r5, #-2147483644	; 0x80000004

00000d98 <l744>:
     d98:	e1f08c53 	mvns	r8, r3, asr ip

00000d9c <l745>:
     d9c:	e1f082e6 	mvns	r8, r6, ror #5

00000da0 <l746>:
     da0:	e1e0674c 	mvn	r6, ip, asr #14

00000da4 <l747>:
     da4:	a1f08006 	mvnsge	r8, r6

00000da8 <l748>:
     da8:	a1e03011 	mvnge	r3, r1, lsl r0

00000dac <l749>:
     dac:	e1e0b06b 	mvn	fp, fp, rrx

00000db0 <l750>:
     db0:	c3e061e1 	mvngt	r6, #1073741880	; 0x40000038

00000db4 <l751>:
     db4:	41f02886 	mvnsmi	r2, r6, lsl #17

00000db8 <l752>:
     db8:	31f0a50e 	mvnscc	sl, lr, lsl #10

00000dbc <l753>:
     dbc:	b1e0a061 	mvnlt	sl, r1, rrx

00000dc0 <l754>:
     dc0:	e1f00114 	mvns	r0, r4, lsl r1

00000dc4 <l755>:
     dc4:	e1f06ac6 	mvns	r6, r6, asr #21

00000dc8 <l756>:
     dc8:	91e0e06b 	mvnls	lr, fp, rrx

00000dcc <l757>:
     dcc:	41f09158 	mvnsmi	r9, r8, asr r1

00000dd0 <l758>:
     dd0:	b1e03004 	mvnlt	r3, r4

00000dd4 <l759>:
     dd4:	01e05062 	mvneq	r5, r2, rrx

00000dd8 <l760>:
     dd8:	e1e0ea7a 	mvn	lr, sl, ror sl

00000ddc <l761>:
     ddc:	e1e0400e 	mvn	r4, lr

00000de0 <l762>:
     de0:	d1f06001 	mvnsle	r6, r1

00000de4 <l763>:
     de4:	e3f0a8a5 	mvns	sl, #10813440	; 0xa50000

00000de8 <l764>:
     de8:	83f0ee55 	mvnshi	lr, #1360	; 0x550

00000dec <l765>:
     dec:	43f0110e 	mvnsmi	r1, #-2147483645	; 0x80000003

00000df0 <l766>:
     df0:	e1f02062 	mvns	r2, r2, rrx

00000df4 <l767>:
     df4:	e1e0a307 	mvn	sl, r7, lsl #6

00000df8 <l768>:
     df8:	e3f0c543 	mvns	ip, #281018368	; 0x10c00000

00000dfc <l769>:
     dfc:	d1f06000 	mvnsle	r6, r0

00000e00 <l770>:
     e00:	e1e06ae1 	mvn	r6, r1, ror #21

00000e04 <l771>:
     e04:	e3f03c2d 	mvns	r3, #11520	; 0x2d00

00000e08 <l772>:
     e08:	31e04068 	mvncc	r4, r8, rrx

00000e0c <l773>:
     e0c:	41e01253 	mvnmi	r1, r3, asr r2

00000e10 <l774>:
     e10:	11f01002 	mvnsne	r1, r2

00000e14 <l775>:
     e14:	41f01aae 	mvnsmi	r1, lr, lsr #21

00000e18 <l776>:
     e18:	e1e0706e 	mvn	r7, lr, rrx

00000e1c <l777>:
     e1c:	11f0b3e3 	mvnsne	fp, r3, ror #7

00000e20 <l778>:
     e20:	e3e06812 	mvn	r6, #1179648	; 0x120000

00000e24 <l779>:
     e24:	e1f0b47c 	mvns	fp, ip, ror r4

00000e28 <l780>:
     e28:	91f04c56 	mvnsls	r4, r6, asr ip

00000e2c <l781>:
     e2c:	83e085de 	mvnhi	r8, #931135488	; 0x37800000

00000e30 <l782>:
     e30:	e1f00005 	mvns	r0, r5

00000e34 <l783>:
     e34:	e1e0aa8e 	mvn	sl, lr, lsl #21

00000e38 <l784>:
     e38:	b1e09468 	mvnlt	r9, r8, ror #8

00000e3c <l785>:
     e3c:	c1f0b00f 	mvnsgt	fp, pc

00000e40 <l786>:
     e40:	c3f058a6 	mvnsgt	r5, #10878976	; 0xa60000

00000e44 <l787>:
     e44:	63e0ea17 	mvnvs	lr, #94208	; 0x17000

00000e48 <l788>:
     e48:	a1e0a00b 	mvnge	sl, fp

00000e4c <l789>:
     e4c:	e3f000b0 	mvns	r0, #176	; 0xb0

00000e50 <l790>:
     e50:	e1e05c72 	mvn	r5, r2, ror ip

00000e54 <l791>:
     e54:	91e03550 	mvnls	r3, r0, asr r5

00000e58 <l792>:
     e58:	b3f0546d 	mvnslt	r5, #1828716544	; 0x6d000000

00000e5c <l793>:
     e5c:	a1e08033 	mvnge	r8, r3, lsr r0

00000e60 <l794>:
     e60:	e3f0e296 	mvns	lr, #1610612745	; 0x60000009

00000e64 <l795>:
     e64:	41f0c004 	mvnsmi	ip, r4

00000e68 <l796>:
     e68:	e1e0486f 	mvn	r4, pc, ror #16

00000e6c <l797>:
     e6c:	41f01b73 	mvnsmi	r1, r3, ror fp

00000e70 <l798>:
     e70:	e1f06006 	mvns	r6, r6

00000e74 <l799>:
     e74:	e1e08060 	mvn	r8, r0, rrx

00000e78 <l800>:
     e78:	81e09004 	mvnhi	r9, r4

00000e7c <l801>:
     e7c:	e1e08061 	mvn	r8, r1, rrx

00000e80 <l802>:
     e80:	21f0e005 	mvnscs	lr, r5

00000e84 <l803>:
     e84:	e3e0ccd1 	mvn	ip, #53504	; 0xd100

00000e88 <l804>:
     e88:	11f08007 	mvnsne	r8, r7

00000e8c <l805>:
     e8c:	e3f09e2b 	mvns	r9, #688	; 0x2b0

00000e90 <l806>:
     e90:	c1e03ce9 	mvngt	r3, r9, ror #25

00000e94 <l807>:
     e94:	e1f0600a 	mvns	r6, sl

00000e98 <l808>:
     e98:	21e0e937 	mvncs	lr, r7, lsr r9

00000e9c <l809>:
     e9c:	e3e03546 	mvn	r3, #293601280	; 0x11800000

00000ea0 <l810>:
     ea0:	e3f055bb 	mvns	r5, #784334848	; 0x2ec00000

00000ea4 <l811>:
     ea4:	31f06002 	mvnscc	r6, r2

00000ea8 <l812>:
     ea8:	e3f09e56 	mvns	r9, #1376	; 0x560

00000eac <l813>:
     eac:	51e05004 	mvnpl	r5, r4

00000eb0 <l814>:
     eb0:	e1f0ece8 	mvns	lr, r8, ror #25

00000eb4 <l815>:
     eb4:	e1e0000e 	mvn	r0, lr

00000eb8 <l816>:
     eb8:	51e02838 	mvnpl	r2, r8, lsr r8

00000ebc <l817>:
     ebc:	71f0b069 	mvnsvc	fp, r9, rrx

00000ec0 <l818>:
     ec0:	e3f0532b 	mvns	r5, #-1409286144	; 0xac000000

00000ec4 <l819>:
     ec4:	d1e00000 	mvnle	r0, r0

00000ec8 <l820>:
     ec8:	11f08a70 	mvnsne	r8, r0, ror sl

00000ecc <l821>:
     ecc:	b3e0b80d 	mvnlt	fp, #851968	; 0xd0000

00000ed0 <l822>:
     ed0:	e1f0600f 	mvns	r6, pc

00000ed4 <l823>:
     ed4:	e1f02767 	mvns	r2, r7, ror #14

00000ed8 <l824>:
     ed8:	e1f0b004 	mvns	fp, r4

00000edc <l825>:
     edc:	03f02492 	mvnseq	r2, #-1845493760	; 0x92000000

00000ee0 <l826>:
     ee0:	e1f03b1e 	mvns	r3, lr, lsl fp

00000ee4 <l827>:
     ee4:	e1e04b85 	mvn	r4, r5, lsl #23

00000ee8 <l828>:
     ee8:	a1e0a512 	mvnge	sl, r2, lsl r5

00000eec <l829>:
     eec:	51e08066 	mvnpl	r8, r6, rrx

00000ef0 <l830>:
     ef0:	e3f0e63a 	mvns	lr, #60817408	; 0x3a00000

00000ef4 <l831>:
     ef4:	a1e00000 	mvnge	r0, r0

00000ef8 <l832>:
     ef8:	e1f05572 	mvns	r5, r2, ror r5

00000efc <l833>:
     efc:	c1e075a4 	mvngt	r7, r4, lsr #11

00000f00 <l834>:
     f00:	e3f07ffa 	mvns	r7, #1000	; 0x3e8

00000f04 <l835>:
     f04:	e1f0e0ce 	mvns	lr, lr, asr #1

00000f08 <l836>:
     f08:	e3e00521 	mvn	r0, #138412032	; 0x8400000

00000f0c <l837>:
     f0c:	a1f08007 	mvnsge	r8, r7

00000f10 <l838>:
     f10:	31f02336 	mvnscc	r2, r6, lsr r3

00000f14 <l839>:
     f14:	81e0a573 	mvnhi	sl, r3, ror r5

00000f18 <l840>:
     f18:	b1f0b8ea 	mvnslt	fp, sl, ror #17

00000f1c <l841>:
     f1c:	d3e0906e 	mvnle	r9, #110	; 0x6e

00000f20 <l842>:
     f20:	d1e00536 	mvnle	r0, r6, lsr r5

00000f24 <l843>:
     f24:	e3e0bea2 	mvn	fp, #2592	; 0xa20

00000f28 <l844>:
     f28:	63f00586 	mvnsvs	r0, #562036736	; 0x21800000

00000f2c <l845>:
     f2c:	e3f01501 	mvns	r1, #4194304	; 0x400000

00000f30 <l846>:
     f30:	83f07402 	mvnshi	r7, #33554432	; 0x2000000

00000f34 <l847>:
     f34:	d1e0e067 	mvnle	lr, r7, rrx

00000f38 <l848>:
     f38:	e3e04211 	mvn	r4, #268435457	; 0x10000001

00000f3c <l849>:
     f3c:	21f06009 	mvnscs	r6, r9

00000f40 <l850>:
     f40:	63f0664e 	mvnsvs	r6, #81788928	; 0x4e00000

00000f44 <l851>:
     f44:	61e0b00b 	mvnvs	fp, fp

00000f48 <l852>:
     f48:	e1f0600e 	mvns	r6, lr

00000f4c <l853>:
     f4c:	d1f0500e 	mvnsle	r5, lr

00000f50 <l854>:
     f50:	e1e08477 	mvn	r8, r7, ror r4

00000f54 <l855>:
     f54:	81f0887a 	mvnshi	r8, sl, ror r8

00000f58 <l856>:
     f58:	e1e02065 	mvn	r2, r5, rrx

00000f5c <l857>:
     f5c:	e1f0bd4a 	mvns	fp, sl, asr #26

00000f60 <l858>:
     f60:	e1e06e73 	mvn	r6, r3, ror lr

00000f64 <l859>:
     f64:	e1f0133b 	mvns	r1, fp, lsr r3

00000f68 <l860>:
     f68:	b3e0ab6d 	mvnlt	sl, #111616	; 0x1b400

00000f6c <l861>:
     f6c:	e3f019cb 	mvns	r1, #3325952	; 0x32c000

00000f70 <l862>:
     f70:	e1e0600e 	mvn	r6, lr

00000f74 <l863>:
     f74:	31f01759 	mvnscc	r1, r9, asr r7

00000f78 <l864>:
     f78:	51f03331 	mvnspl	r3, r1, lsr r3

00000f7c <l865>:
     f7c:	91e04005 	mvnls	r4, r5

00000f80 <l866>:
     f80:	31f03ac2 	mvnscc	r3, r2, asr #21

00000f84 <l867>:
     f84:	01f00b56 	mvnseq	r0, r6, asr fp

00000f88 <l868>:
     f88:	e1f06983 	mvns	r6, r3, lsl #19

00000f8c <l869>:
     f8c:	81f05064 	mvnshi	r5, r4, rrx

00000f90 <l870>:
     f90:	e3e01f67 	mvn	r1, #412	; 0x19c

00000f94 <l871>:
     f94:	43f03d36 	mvnsmi	r3, #3456	; 0xd80

00000f98 <l872>:
     f98:	e1f01005 	mvns	r1, r5

00000f9c <l873>:
     f9c:	81e0300a 	mvnhi	r3, sl

00000fa0 <l874>:
     fa0:	e1f0941c 	mvns	r9, ip, lsl r4

00000fa4 <l875>:
     fa4:	d3f096cd 	mvnsle	r9, #214958080	; 0xcd00000

00000fa8 <l876>:
     fa8:	e1f01007 	mvns	r1, r7

00000fac <l877>:
     fac:	e1f0a000 	mvns	sl, r0

00000fb0 <l878>:
     fb0:	31e01a7b 	mvncc	r1, fp, ror sl

00000fb4 <l879>:
     fb4:	63f0101e 	mvnsvs	r1, #30

00000fb8 <l880>:
     fb8:	b3f0b71f 	mvnslt	fp, #8126464	; 0x7c0000

00000fbc <l881>:
     fbc:	e1e0400a 	mvn	r4, sl

00000fc0 <l882>:
     fc0:	e1f07a5a 	mvns	r7, sl, asr sl

00000fc4 <l883>:
     fc4:	e1f0627b 	mvns	r6, fp, ror r2

00000fc8 <l884>:
     fc8:	e3e0714b 	mvn	r7, #-1073741806	; 0xc0000012

00000fcc <l885>:
     fcc:	51e0b613 	mvnpl	fp, r3, lsl r6

00000fd0 <l886>:
     fd0:	e1e0700e 	mvn	r7, lr

00000fd4 <l887>:
     fd4:	01e0e000 	mvneq	lr, r0

00000fd8 <l888>:
     fd8:	71f04e51 	mvnsvc	r4, r1, asr lr

00000fdc <l889>:
     fdc:	c3f0834a 	mvnsgt	r8, #671088641	; 0x28000001

00000fe0 <l890>:
     fe0:	31f0ec33 	mvnscc	lr, r3, lsr ip

00000fe4 <l891>:
     fe4:	11f0c0c5 	mvnsne	ip, r5, asr #1

00000fe8 <l892>:
     fe8:	53f0ac53 	mvnspl	sl, #21248	; 0x5300

00000fec <l893>:
     fec:	e1e08617 	mvn	r8, r7, lsl r6

00000ff0 <l894>:
     ff0:	61e0910f 	mvnvs	r9, pc, lsl #2

00000ff4 <l895>:
     ff4:	e1e0e00b 	mvn	lr, fp

00000ff8 <l896>:
     ff8:	53e0204f 	mvnpl	r2, #79	; 0x4f

00000ffc <l897>:
     ffc:	e1e09064 	mvn	r9, r4, rrx

00001000 <l898>:
    1000:	e3f04526 	mvns	r4, #159383552	; 0x9800000

00001004 <l899>:
    1004:	e1e0e00a 	mvn	lr, sl

00001008 <l900>:
    1008:	31e02000 	mvncc	r2, r0

0000100c <l901>:
    100c:	03e0efcf 	mvneq	lr, #828	; 0x33c

00001010 <l902>:
    1010:	e1f0047a 	mvns	r0, sl, ror r4

00001014 <l903>:
    1014:	e3f0eba5 	mvns	lr, #168960	; 0x29400

00001018 <l904>:
    1018:	e1f05062 	mvns	r5, r2, rrx

0000101c <l905>:
    101c:	c1f0b002 	mvnsgt	fp, r2

00001020 <l906>:
    1020:	e1f08009 	mvns	r8, r9

00001024 <l907>:
    1024:	e3f0363b 	mvns	r3, #61865984	; 0x3b00000

00001028 <l908>:
    1028:	e1f01006 	mvns	r1, r6

0000102c <l909>:
    102c:	11f0b063 	mvnsne	fp, r3, rrx

00001030 <l910>:
    1030:	d1f04c1e 	mvnsle	r4, lr, lsl ip

00001034 <l911>:
    1034:	e1f00065 	mvns	r0, r5, rrx

00001038 <l912>:
    1038:	e1f058af 	mvns	r5, pc, lsr #17

0000103c <l913>:
    103c:	41f0c71a 	mvnsmi	ip, sl, lsl r7

00001040 <l914>:
    1040:	b1f06000 	mvnslt	r6, r0

00001044 <l915>:
    1044:	e1e0886e 	mvn	r8, lr, ror #16

00001048 <l916>:
    1048:	43e0b65b 	mvnmi	fp, #95420416	; 0x5b00000

0000104c <l917>:
    104c:	51f08061 	mvnspl	r8, r1, rrx

00001050 <l918>:
    1050:	a1e05f68 	mvnge	r5, r8, ror #30

00001054 <l919>:
    1054:	c1e06325 	mvngt	r6, r5, lsr #6

00001058 <l920>:
    1058:	e3f05421 	mvns	r5, #553648128	; 0x21000000

0000105c <l921>:
    105c:	01e04277 	mvneq	r4, r7, ror r2

00001060 <l922>:
    1060:	e1e04ca2 	mvn	r4, r2, lsr #25

00001064 <l923>:
    1064:	21f09065 	mvnscs	r9, r5, rrx

00001068 <l924>:
    1068:	b1f0ee7a 	mvnslt	lr, sl, ror lr

0000106c <l925>:
    106c:	31e0a00c 	mvncc	sl, ip

00001070 <l926>:
    1070:	e1f032e6 	mvns	r3, r6, ror #5

00001074 <l927>:
    1074:	61e05c33 	mvnvs	r5, r3, lsr ip

00001078 <l928>:
    1078:	31e09006 	mvncc	r9, r6

0000107c <l929>:
    107c:	e1f0c067 	mvns	ip, r7, rrx

00001080 <l930>:
    1080:	83f04142 	mvnshi	r4, #-2147483632	; 0x80000010

00001084 <l931>:
    1084:	e1f0a064 	mvns	sl, r4, rrx

00001088 <l932>:
    1088:	91e0642b 	mvnls	r6, fp, lsr #8

0000108c <l933>:
    108c:	e1e05fc5 	mvn	r5, r5, asr #31

00001090 <l934>:
    1090:	01f06338 	mvnseq	r6, r8, lsr r3

00001094 <l935>:
    1094:	e3f066b5 	mvns	r6, #189792256	; 0xb500000

00001098 <l936>:
    1098:	e1e0e3c3 	mvn	lr, r3, asr #7

0000109c <l937>:
    109c:	11e08b33 	mvnne	r8, r3, lsr fp

000010a0 <l938>:
    10a0:	01e0a06f 	mvneq	sl, pc, rrx

000010a4 <l939>:
    10a4:	e3f096a7 	mvns	r9, #175112192	; 0xa700000

000010a8 <l940>:
    10a8:	c3e09b3b 	mvngt	r9, #60416	; 0xec00

000010ac <l941>:
    10ac:	61f0c931 	mvnsvs	ip, r1, lsr r9

000010b0 <l942>:
    10b0:	21e06a7e 	mvncs	r6, lr, ror sl

000010b4 <l943>:
    10b4:	31e03402 	mvncc	r3, r2, lsl #8

000010b8 <l944>:
    10b8:	41f096ae 	mvnsmi	r9, lr, lsr #13

000010bc <l945>:
    10bc:	e1f0a2c0 	mvns	sl, r0, asr #5

000010c0 <l946>:
    10c0:	63f06a6e 	mvnsvs	r6, #450560	; 0x6e000

000010c4 <l947>:
    10c4:	e3f08c13 	mvns	r8, #4864	; 0x1300

000010c8 <l948>:
    10c8:	d1f08062 	mvnsle	r8, r2, rrx

000010cc <l949>:
    10cc:	b1e0100b 	mvnlt	r1, fp

000010d0 <l950>:
    10d0:	e3e00d22 	mvn	r0, #2176	; 0x880

000010d4 <l951>:
    10d4:	51f06007 	mvnspl	r6, r7

000010d8 <l952>:
    10d8:	23e07a0e 	mvncs	r7, #57344	; 0xe000

000010dc <l953>:
    10dc:	91f06008 	mvnsls	r6, r8

000010e0 <l954>:
    10e0:	e3f0b866 	mvns	fp, #6684672	; 0x660000

000010e4 <l955>:
    10e4:	53e09b1d 	mvnpl	r9, #29696	; 0x7400

000010e8 <l956>:
    10e8:	e3f03053 	mvns	r3, #83	; 0x53

000010ec <l957>:
    10ec:	e1e0a009 	mvn	sl, r9

000010f0 <l958>:
    10f0:	e1e076e0 	mvn	r7, r0, ror #13

000010f4 <l959>:
    10f4:	e1f02001 	mvns	r2, r1

000010f8 <l960>:
    10f8:	e1e03714 	mvn	r3, r4, lsl r7

000010fc <l961>:
    10fc:	e1f0800b 	mvns	r8, fp

00001100 <l962>:
    1100:	e1e03004 	mvn	r3, r4

00001104 <l963>:
    1104:	03e08676 	mvneq	r8, #123731968	; 0x7600000

00001108 <l964>:
    1108:	71f07806 	mvnsvc	r7, r6, lsl #16

0000110c <l965>:
    110c:	71e09500 	mvnvc	r9, r0, lsl #10

00001110 <l966>:
    1110:	d3f01aa7 	mvnsle	r1, #684032	; 0xa7000

00001114 <l967>:
    1114:	e1e0975e 	mvn	r9, lr, asr r7

00001118 <l968>:
    1118:	41f0000c 	mvnsmi	r0, ip

0000111c <l969>:
    111c:	03f0a12e 	mvnseq	sl, #-2147483637	; 0x8000000b

00001120 <l970>:
    1120:	01f09001 	mvnseq	r9, r1

00001124 <l971>:
    1124:	c3e0a453 	mvngt	sl, #1392508928	; 0x53000000

00001128 <l972>:
    1128:	61e0ea52 	mvnvs	lr, r2, asr sl

0000112c <l973>:
    112c:	a3f0b625 	mvnsge	fp, #38797312	; 0x2500000

00001130 <l974>:
    1130:	31e059e4 	mvncc	r5, r4, ror #19

00001134 <l975>:
    1134:	c1f02155 	mvnsgt	r2, r5, asr r1

00001138 <l976>:
    1138:	e1f03014 	mvns	r3, r4, lsl r0

0000113c <l977>:
    113c:	b1e07e53 	mvnlt	r7, r3, asr lr

00001140 <l978>:
    1140:	91e06258 	mvnls	r6, r8, asr r2

00001144 <l979>:
    1144:	91e06068 	mvnls	r6, r8, rrx

00001148 <l980>:
    1148:	d1e09ba5 	mvnle	r9, r5, lsr #23

0000114c <l981>:
    114c:	41f02016 	mvnsmi	r2, r6, lsl r0

00001150 <l982>:
    1150:	e1f0cb1b 	mvns	ip, fp, lsl fp

00001154 <l983>:
    1154:	53e0411b 	mvnpl	r4, #-1073741818	; 0xc0000006

00001158 <l984>:
    1158:	61e00008 	mvnvs	r0, r8

0000115c <l985>:
    115c:	e1e0300c 	mvn	r3, ip

00001160 <l986>:
    1160:	41e02059 	mvnmi	r2, r9, asr r0

00001164 <l987>:
    1164:	21f02eeb 	mvnscs	r2, fp, ror #29

00001168 <l988>:
    1168:	93f0c98f 	mvnsls	ip, #2342912	; 0x23c000

0000116c <l989>:
    116c:	e3f012c7 	mvns	r1, #1879048204	; 0x7000000c

00001170 <l990>:
    1170:	53e07102 	mvnpl	r7, #-2147483648	; 0x80000000

00001174 <l991>:
    1174:	e1e0a90f 	mvn	sl, pc, lsl #18

00001178 <l992>:
    1178:	21f04415 	mvnscs	r4, r5, lsl r4

0000117c <l993>:
    117c:	e1e02733 	mvn	r2, r3, lsr r7

00001180 <l994>:
    1180:	11e0006b 	mvnne	r0, fp, rrx

00001184 <l995>:
    1184:	c3f078f3 	mvnsgt	r7, #15925248	; 0xf30000

00001188 <l996>:
    1188:	c3f0170f 	mvnsgt	r1, #3932160	; 0x3c0000

0000118c <l997>:
    118c:	e3f0eaa9 	mvns	lr, #692224	; 0xa9000

00001190 <l998>:
    1190:	e1f00004 	mvns	r0, r4

00001194 <l999>:
    1194:	e3e00dc7 	mvn	r0, #12736	; 0x31c0

00001198 <l1000>:
    1198:	51f01005 	mvnspl	r1, r5

0000119c <end>:
    119c:	eafffffe 	b	119c <end>
