
noMul.o:     file format elf32-littlearm


Disassembly of section .text:

00000000 <main>:
       0:	e05f000f 	subs	r0, pc, pc
       4:	e59fd000 	ldr	sp, [pc]	; c <val>
       8:	ea000000 	b	10 <next>

0000000c <val>:
       c:	000ffff0 	.word	0x000ffff0

00000010 <next>:
      10:	e59f1000 	ldr	r1, [pc]	; 18 <val1>
      14:	ea000000 	b	1c <next1>

00000018 <val1>:
      18:	a0a6b7c5 	.word	0xa0a6b7c5

0000001c <next1>:
      1c:	e59f2000 	ldr	r2, [pc]	; 24 <val2>
      20:	ea000000 	b	28 <next2>

00000024 <val2>:
      24:	fe83f55e 	.word	0xfe83f55e

00000028 <next2>:
      28:	e59f3000 	ldr	r3, [pc]	; 30 <val3>
      2c:	ea000000 	b	34 <next3>

00000030 <val3>:
      30:	4c63d878 	.word	0x4c63d878

00000034 <next3>:
      34:	e59f4000 	ldr	r4, [pc]	; 3c <val4>
      38:	ea000000 	b	40 <next4>

0000003c <val4>:
      3c:	be1c7853 	.word	0xbe1c7853

00000040 <next4>:
      40:	e59f5000 	ldr	r5, [pc]	; 48 <val5>
      44:	ea000000 	b	4c <next5>

00000048 <val5>:
      48:	02983a66 	.word	0x02983a66

0000004c <next5>:
      4c:	e59f6000 	ldr	r6, [pc]	; 54 <val6>
      50:	ea000000 	b	58 <next6>

00000054 <val6>:
      54:	d73ad47a 	.word	0xd73ad47a

00000058 <next6>:
      58:	e59f7000 	ldr	r7, [pc]	; 60 <val7>
      5c:	ea000000 	b	64 <next7>

00000060 <val7>:
      60:	68a31efb 	.word	0x68a31efb

00000064 <next7>:
      64:	e59f8000 	ldr	r8, [pc]	; 6c <val8>
      68:	ea000000 	b	70 <next8>

0000006c <val8>:
      6c:	61c17592 	.word	0x61c17592

00000070 <next8>:
      70:	e59f9000 	ldr	r9, [pc]	; 78 <val9>
      74:	ea000000 	b	7c <next9>

00000078 <val9>:
      78:	59228c89 	.word	0x59228c89

0000007c <next9>:
      7c:	e59fa000 	ldr	sl, [pc]	; 84 <val10>
      80:	ea000000 	b	88 <next10>

00000084 <val10>:
      84:	b509ba0e 	.word	0xb509ba0e

00000088 <next10>:
      88:	e59fb000 	ldr	fp, [pc]	; 90 <val11>
      8c:	ea000000 	b	94 <next11>

00000090 <val11>:
      90:	2555873a 	.word	0x2555873a

00000094 <next11>:
      94:	e59fc000 	ldr	ip, [pc]	; 9c <val12>
      98:	ea000000 	b	a0 <next12>

0000009c <val12>:
      9c:	5dcf0a2c 	.word	0x5dcf0a2c

000000a0 <next12>:
      a0:	e59fe000 	ldr	lr, [pc]	; a8 <val14>
      a4:	ea000000 	b	ac <next14>

000000a8 <val14>:
      a8:	64f65d6a 	.word	0x64f65d6a

000000ac <next14>:
      ac:	e59f1000 	ldr	r1, [pc]	; b4 <val15>
      b0:	ea000000 	b	b8 <next15>

000000b4 <val15>:
      b4:	e7159dd9 	.word	0xe7159dd9

000000b8 <next15>:
      b8:	e58d1000 	str	r1, [sp]
      bc:	e59f1000 	ldr	r1, [pc]	; c4 <val16>
      c0:	ea000000 	b	c8 <next16>

000000c4 <val16>:
      c4:	8f0ffed6 	.word	0x8f0ffed6

000000c8 <next16>:
      c8:	e50d1004 	str	r1, [sp, #-4]
      cc:	e59f1000 	ldr	r1, [pc]	; d4 <val17>
      d0:	ea000000 	b	d8 <next17>

000000d4 <val17>:
      d4:	20eb7b6c 	.word	0x20eb7b6c

000000d8 <next17>:
      d8:	e50d1008 	str	r1, [sp, #-8]
      dc:	e59f1000 	ldr	r1, [pc]	; e4 <val18>
      e0:	ea000000 	b	e8 <next18>

000000e4 <val18>:
      e4:	1df89837 	.word	0x1df89837

000000e8 <next18>:
      e8:	e50d100c 	str	r1, [sp, #-12]
      ec:	e59f1000 	ldr	r1, [pc]	; f4 <val19>
      f0:	ea000000 	b	f8 <next19>

000000f4 <val19>:
      f4:	b66366ed 	.word	0xb66366ed

000000f8 <next19>:
      f8:	e50d1010 	str	r1, [sp, #-16]
      fc:	e59f1000 	ldr	r1, [pc]	; 104 <val20>
     100:	ea000000 	b	108 <next20>

00000104 <val20>:
     104:	7c648cd4 	.word	0x7c648cd4

00000108 <next20>:
     108:	e50d1014 	str	r1, [sp, #-20]
     10c:	e59f1000 	ldr	r1, [pc]	; 114 <val21>
     110:	ea000000 	b	118 <next21>

00000114 <val21>:
     114:	857c3953 	.word	0x857c3953

00000118 <next21>:
     118:	e50d1018 	str	r1, [sp, #-24]
     11c:	e59f1000 	ldr	r1, [pc]	; 124 <val22>
     120:	ea000000 	b	128 <next22>

00000124 <val22>:
     124:	aadd420f 	.word	0xaadd420f

00000128 <next22>:
     128:	e50d101c 	str	r1, [sp, #-28]
     12c:	e59f1000 	ldr	r1, [pc]	; 134 <val23>
     130:	ea000000 	b	138 <next23>

00000134 <val23>:
     134:	6b6e3ba6 	.word	0x6b6e3ba6

00000138 <next23>:
     138:	e50d1020 	str	r1, [sp, #-32]
     13c:	e59f1000 	ldr	r1, [pc]	; 144 <val24>
     140:	ea000000 	b	148 <next24>

00000144 <val24>:
     144:	0f323d3d 	.word	0x0f323d3d

00000148 <next24>:
     148:	e50d1024 	str	r1, [sp, #-36]	; 0x24
     14c:	e59f1000 	ldr	r1, [pc]	; 154 <val25>
     150:	ea000000 	b	158 <next25>

00000154 <val25>:
     154:	b5130e2b 	.word	0xb5130e2b

00000158 <next25>:
     158:	e50d1028 	str	r1, [sp, #-40]	; 0x28
     15c:	e59f1000 	ldr	r1, [pc]	; 164 <val26>
     160:	ea000000 	b	168 <next26>

00000164 <val26>:
     164:	461c857a 	.word	0x461c857a

00000168 <next26>:
     168:	e50d102c 	str	r1, [sp, #-44]	; 0x2c
     16c:	e59f1000 	ldr	r1, [pc]	; 174 <val27>
     170:	ea000000 	b	178 <next27>

00000174 <val27>:
     174:	9efe524c 	.word	0x9efe524c

00000178 <next27>:
     178:	e50d1030 	str	r1, [sp, #-48]	; 0x30
     17c:	e59f1000 	ldr	r1, [pc]	; 184 <val28>
     180:	ea000000 	b	188 <next28>

00000184 <val28>:
     184:	6ce95e45 	.word	0x6ce95e45

00000188 <next28>:
     188:	e50d1034 	str	r1, [sp, #-52]	; 0x34
     18c:	e59f1000 	ldr	r1, [pc]	; 194 <val29>
     190:	ea000000 	b	198 <next29>

00000194 <val29>:
     194:	4cf07e31 	.word	0x4cf07e31

00000198 <next29>:
     198:	e50d1038 	str	r1, [sp, #-56]	; 0x38
     19c:	e59f1000 	ldr	r1, [pc]	; 1a4 <val30>
     1a0:	ea000000 	b	1a8 <next30>

000001a4 <val30>:
     1a4:	ad3e051d 	.word	0xad3e051d

000001a8 <next30>:
     1a8:	e50d103c 	str	r1, [sp, #-60]	; 0x3c
     1ac:	e59f1000 	ldr	r1, [pc]	; 1b4 <val31>
     1b0:	ea000000 	b	1b8 <next31>

000001b4 <val31>:
     1b4:	bf2b3116 	.word	0xbf2b3116

000001b8 <next31>:
     1b8:	e50d1040 	str	r1, [sp, #-64]	; 0x40
     1bc:	e59f1000 	ldr	r1, [pc]	; 1c4 <val32>
     1c0:	ea000000 	b	1c8 <next32>

000001c4 <val32>:
     1c4:	fb58d52f 	.word	0xfb58d52f

000001c8 <next32>:
     1c8:	e50d1044 	str	r1, [sp, #-68]	; 0x44
     1cc:	e59f1000 	ldr	r1, [pc]	; 1d4 <val33>
     1d0:	ea000000 	b	1d8 <next33>

000001d4 <val33>:
     1d4:	9c5ae944 	.word	0x9c5ae944

000001d8 <next33>:
     1d8:	e50d1048 	str	r1, [sp, #-72]	; 0x48
     1dc:	e59f1000 	ldr	r1, [pc]	; 1e4 <val34>
     1e0:	ea000000 	b	1e8 <next34>

000001e4 <val34>:
     1e4:	cfb5430a 	.word	0xcfb5430a

000001e8 <next34>:
     1e8:	e50d104c 	str	r1, [sp, #-76]	; 0x4c
     1ec:	e59f1000 	ldr	r1, [pc]	; 1f4 <val35>
     1f0:	ea000000 	b	1f8 <next35>

000001f4 <val35>:
     1f4:	21b80f8e 	.word	0x21b80f8e

000001f8 <next35>:
     1f8:	e50d1050 	str	r1, [sp, #-80]	; 0x50

000001fc <l1>:
     1fc:	e0639064 	rsb	r9, r3, r4, rrx

00000200 <l2>:
     200:	90537536 	subsls	r7, r3, r6, lsr r5

00000204 <l3>:
     204:	e2b4eb87 	adcs	lr, r4, #138240	; 0x21c00

00000208 <l4>:
     208:	50c49c3c 	sbcpl	r9, r4, ip, lsr ip

0000020c <l5>:
     20c:	00d159e4 	sbcseq	r5, r1, r4, ror #19

00000210 <l6>:
     210:	20ae0457 	adccs	r0, lr, r7, asr r4

00000214 <l7>:
     214:	e3a0a01a 	mov	sl, #26

00000218 <l8>:
     218:	e74de00a 	strb	lr, [sp, -sl]

0000021c <l9>:
     21c:	9017e005 	andsls	lr, r7, r5

00000220 <l10>:
     220:	e3a07030 	mov	r7, #48	; 0x30

00000224 <l11>:
     224:	011d20b7 	ldrheq	r2, [sp, -r7]

00000228 <l12>:
     228:	e0654b62 	rsb	r4, r5, r2, ror #22

0000022c <l13>:
     22c:	ea000006 	b	24c <l21>

00000230 <l14>:
     230:	e2801032 	add	r1, r0, #50	; 0x32

00000234 <l15>:
     234:	b16f6f1a 	clzlt	r6, sl

00000238 <l16>:
     238:	e208b10f 	and	fp, r8, #-1073741821	; 0xc0000003

0000023c <l17>:
     23c:	903fa009 	eorsls	sl, pc, r9

00000240 <l18>:
     240:	a19a400a 	orrsge	r4, sl, sl

00000244 <l19>:
     244:	d1e02535 	mvnle	r2, r5, lsr r5

00000248 <l20>:
     248:	ea000000 	b	250 <l22>

0000024c <l21>:
     24c:	eafffff8 	b	234 <l15>

00000250 <l22>:
     250:	e06ca002 	rsb	sl, ip, r2

00000254 <l23>:
     254:	e82d0040 	stmda	sp!, {r6}

00000258 <l24>:
     258:	e0608065 	rsb	r8, r0, r5, rrx

0000025c <l25>:
     25c:	e59f1000 	ldr	r1, [pc]	; 264 <l27>

00000260 <l26>:
     260:	ea000000 	b	268 <l28>

00000264 <l27>:
     264:	000fffd0 	.word	0x000fffd0

00000268 <l28>:
     268:	e1412093 	swpb	r2, r3, [r1]

0000026c <l29>:
     26c:	e1310001 	teq	r1, r1

00000270 <l30>:
     270:	e3a0700e 	mov	r7, #14

00000274 <l31>:
     274:	e11d00b7 	ldrh	r0, [sp, -r7]

00000278 <l32>:
     278:	e3f08b17 	mvns	r8, #23552	; 0x5c00

0000027c <l33>:
     27c:	41190002 	tstmi	r9, r2

00000280 <l34>:
     280:	e1865c0c 	orr	r5, r6, ip, lsl #24

00000284 <l35>:
     284:	e3a0903d 	mov	r9, #61	; 0x3d

00000288 <l36>:
     288:	e74d2009 	strb	r2, [sp, -r9]

0000028c <l37>:
     28c:	e59f1000 	ldr	r1, [pc]	; 294 <l39>

00000290 <l38>:
     290:	ea000000 	b	298 <l40>

00000294 <l39>:
     294:	000fffac 	.word	0x000fffac

00000298 <l40>:
     298:	e101509c 	swp	r5, ip, [r1]

0000029c <l41>:
     29c:	50f8a732 	rscspl	sl, r8, r2, lsr r7

000002a0 <l42>:
     2a0:	e59f2000 	ldr	r2, [pc]	; 2a8 <l44>

000002a4 <l43>:
     2a4:	ea000000 	b	2ac <l45>

000002a8 <l44>:
     2a8:	000fffac 	.word	0x000fffac

000002ac <l45>:
     2ac:	4102709b 	swpmi	r7, fp, [r2]

000002b0 <l46>:
     2b0:	780d04c5 	stmdavc	sp, {r0, r2, r6, r7, sl}

000002b4 <l47>:
     2b4:	711b0004 	tstvc	fp, r4

000002b8 <l48>:
     2b8:	e046a039 	sub	sl, r6, r9, lsr r0

000002bc <l49>:
     2bc:	e3a01014 	mov	r1, #20

000002c0 <l50>:
     2c0:	e73d0001 	ldr	r0, [sp, -r1]!

000002c4 <l51>:
     2c4:	e82ddfbc 	stmda	sp!, {r2, r3, r4, r5, r7, r8, r9, sl, fp, ip, lr, pc}

000002c8 <l52>:
     2c8:	61903c1a 	orrsvs	r3, r0, sl, lsl ip

000002cc <l53>:
     2cc:	e0de1008 	sbcs	r1, lr, r8

000002d0 <l54>:
     2d0:	e8bd1150 	pop	{r4, r6, r8, ip}

000002d4 <l55>:
     2d4:	a90d0140 	stmdbge	sp, {r6, r8}

000002d8 <l56>:
     2d8:	40a6aa24 	adcmi	sl, r6, r4, lsr #20

000002dc <l57>:
     2dc:	40a0206f 	adcmi	r2, r0, pc, rrx

000002e0 <l58>:
     2e0:	d0486009 	suble	r6, r8, r9

000002e4 <l59>:
     2e4:	61e0700e 	mvnvs	r7, lr

000002e8 <l60>:
     2e8:	e1cd62bc 	strh	r6, [sp, #44]	; 0x2c

000002ec <l61>:
     2ec:	e3c4a3fa 	bic	sl, r4, #-402653181	; 0xe8000003

000002f0 <l62>:
     2f0:	e3a09024 	mov	r9, #36	; 0x24

000002f4 <l63>:
     2f4:	619d20b9 	ldrhvs	r2, [sp, r9]

000002f8 <l64>:
     2f8:	016f9f13 	clzeq	r9, r3

000002fc <l65>:
     2fc:	7a000002 	bvc	30c <l69>

00000300 <l66>:
     300:	e28010c0 	add	r1, r0, #192	; 0xc0

00000304 <l67>:
     304:	e1f0a009 	mvns	sl, r9

00000308 <l68>:
     308:	ea000000 	b	310 <l70>

0000030c <l69>:
     30c:	eafffffc 	b	304 <l67>

00000310 <l70>:
     310:	e029706b 	eor	r7, r9, fp, rrx

00000314 <l71>:
     314:	e3a0102f 	mov	r1, #47	; 0x2f

00000318 <l72>:
     318:	e7dd4001 	ldrb	r4, [sp, r1]

0000031c <l73>:
     31c:	e3a09002 	mov	r9, #2

00000320 <l74>:
     320:	e11d30f9 	ldrsh	r3, [sp, -r9]

00000324 <l75>:
     324:	e3a0e008 	mov	lr, #8

00000328 <l76>:
     328:	418da0be 	strhmi	sl, [sp, lr]

0000032c <l77>:
     32c:	e3a07032 	mov	r7, #50	; 0x32

00000330 <l78>:
     330:	a19d40f7 	ldrshge	r4, [sp, r7]

00000334 <l79>:
     334:	1013106a 	andsne	r1, r3, sl, rrx

00000338 <l80>:
     338:	e187e068 	orr	lr, r7, r8, rrx

0000033c <l81>:
     33c:	e5cd9019 	strb	r9, [sp, #25]

00000340 <l82>:
     340:	323b888f 	eorscc	r8, fp, #9371648	; 0x8f0000

00000344 <l83>:
     344:	e3a04031 	mov	r4, #49	; 0x31

00000348 <l84>:
     348:	e7cd6004 	strb	r6, [sp, r4]

0000034c <l85>:
     34c:	e1f0ee8c 	mvns	lr, ip, lsl #29

00000350 <l86>:
     350:	40524570 	subsmi	r4, r2, r0, ror r5

00000354 <l87>:
     354:	e15c0007 	cmp	ip, r7

00000358 <l88>:
     358:	e3b08080 	movs	r8, #128	; 0x80

0000035c <l89>:
     35c:	e88d4044 	stm	sp, {r2, r6, lr}

00000360 <l90>:
     360:	e59f7000 	ldr	r7, [pc]	; 368 <l92>

00000364 <l91>:
     364:	ea000000 	b	36c <l93>

00000368 <l92>:
     368:	000fffb8 	.word	0x000fffb8

0000036c <l93>:
     36c:	5107309b 	swppl	r3, fp, [r7]

00000370 <l94>:
     370:	da000006 	ble	390 <l102>

00000374 <l95>:
     374:	e28010fe 	add	r1, r0, #254	; 0xfe

00000378 <l96>:
     378:	20d3e20a 	sbcscs	lr, r3, sl, lsl #4

0000037c <l97>:
     37c:	e299173a 	adds	r1, r9, #15204352	; 0xe80000

00000380 <l98>:
     380:	e1f01b2c 	mvns	r1, ip, lsr #22

00000384 <l99>:
     384:	e191900c 	orrs	r9, r1, ip

00000388 <l100>:
     388:	e31e0696 	tst	lr, #157286400	; 0x9600000

0000038c <l101>:
     38c:	ea000000 	b	394 <l103>

00000390 <l102>:
     390:	eafffff8 	b	378 <l96>

00000394 <l103>:
     394:	c0eb817b 	rscgt	r8, fp, fp, ror r1

00000398 <l104>:
     398:	aa000002 	bge	3a8 <l108>

0000039c <l105>:
     39c:	e28010ab 	add	r1, r0, #171	; 0xab

000003a0 <l106>:
     3a0:	533b08df 	teqpl	fp, #14614528	; 0xdf0000

000003a4 <l107>:
     3a4:	ea000000 	b	3ac <l109>

000003a8 <l108>:
     3a8:	eafffffc 	b	3a0 <l106>

000003ac <l109>:
     3ac:	e0402374 	sub	r2, r0, r4, ror r3

000003b0 <l110>:
     3b0:	b2908521 	addslt	r8, r0, #138412032	; 0x8400000

000003b4 <l111>:
     3b4:	e3a0b006 	mov	fp, #6

000003b8 <l112>:
     3b8:	c11d50db 	ldrsbgt	r5, [sp, -fp]

000003bc <l113>:
     3bc:	53d3cdc9 	bicspl	ip, r3, #12864	; 0x3240

000003c0 <l114>:
     3c0:	e3a0a018 	mov	sl, #24

000003c4 <l115>:
     3c4:	e19d80ba 	ldrh	r8, [sp, sl]

000003c8 <l116>:
     3c8:	c196ce39 	orrsgt	ip, r6, r9, lsr lr

000003cc <l117>:
     3cc:	e274883f 	rsbs	r8, r4, #4128768	; 0x3f0000

000003d0 <l118>:
     3d0:	e05e106b 	subs	r1, lr, fp, rrx

000003d4 <l119>:
     3d4:	61c6a002 	bicvs	sl, r6, r2

000003d8 <l120>:
     3d8:	e3a04018 	mov	r4, #24

000003dc <l121>:
     3dc:	571d3004 	ldrpl	r3, [sp, -r4]

000003e0 <l122>:
     3e0:	e3a00022 	mov	r0, #34	; 0x22

000003e4 <l123>:
     3e4:	b7cd2000 	strblt	r2, [sp, r0]

000003e8 <l124>:
     3e8:	22242421 	eorcs	r2, r4, #553648128	; 0x21000000

000003ec <l125>:
     3ec:	e59f6000 	ldr	r6, [pc]	; 3f4 <l127>

000003f0 <l126>:
     3f0:	ea000000 	b	3f8 <l128>

000003f4 <l127>:
     3f4:	000fffcc 	.word	0x000fffcc

000003f8 <l128>:
     3f8:	e1064097 	swp	r4, r7, [r6]

000003fc <l129>:
     3fc:	1a000006 	bne	41c <l137>

00000400 <l130>:
     400:	e16f2f15 	clz	r2, r5

00000404 <l131>:
     404:	8003300c 	andhi	r3, r3, ip

00000408 <l132>:
     408:	216f7f18 	clzcs	r7, r8

0000040c <l133>:
     40c:	413e0eea 	teqmi	lr, sl, ror #29

00000410 <l134>:
     410:	30472013 	subcc	r2, r7, r3, lsl r0

00000414 <l135>:
     414:	939fc842 	orrsls	ip, pc, #4325376	; 0x420000

00000418 <l136>:
     418:	e0163067 	ands	r3, r6, r7, rrx

0000041c <l137>:
     41c:	e3e0b306 	mvn	fp, #402653184	; 0x18000000

00000420 <l138>:
     420:	e0eb0477 	rsc	r0, fp, r7, ror r4

00000424 <l139>:
     424:	e59fa000 	ldr	sl, [pc]	; 42c <l141>

00000428 <l140>:
     428:	ea000000 	b	430 <l142>

0000042c <l141>:
     42c:	000fffd8 	.word	0x000fffd8

00000430 <l142>:
     430:	e14a109c 	swpb	r1, ip, [sl]

00000434 <l143>:
     434:	e59f0000 	ldr	r0, [pc]	; 43c <l145>

00000438 <l144>:
     438:	ea000000 	b	440 <l146>

0000043c <l145>:
     43c:	000fffa0 	.word	0x000fffa0

00000440 <l146>:
     440:	31406099 	swpbcc	r6, r9, [r0]

00000444 <l147>:
     444:	e3a0c00e 	mov	ip, #14

00000448 <l148>:
     448:	711d30fc 	ldrshvc	r3, [sp, -ip]

0000044c <l149>:
     44c:	e3a03000 	mov	r3, #0

00000450 <l150>:
     450:	e7cda003 	strb	sl, [sp, r3]

00000454 <l151>:
     454:	e3a0e026 	mov	lr, #38	; 0x26

00000458 <l152>:
     458:	e19d00fe 	ldrsh	r0, [sp, lr]

0000045c <l153>:
     45c:	e3a0a027 	mov	sl, #39	; 0x27

00000460 <l154>:
     460:	419d30da 	ldrsbmi	r3, [sp, sl]

00000464 <l155>:
     464:	60a7ee89 	adcvs	lr, r7, r9, lsl #29

00000468 <l156>:
     468:	e3a05020 	mov	r5, #32

0000046c <l157>:
     46c:	e79d1005 	ldr	r1, [sp, r5]

00000470 <l158>:
     470:	81f02973 	mvnshi	r2, r3, ror r9

00000474 <l159>:
     474:	716f6f13 	clzvc	r6, r3

00000478 <l160>:
     478:	73f0829b 	mvnsvc	r8, #-1342177271	; 0xb0000009

0000047c <l161>:
     47c:	e3c52ebe 	bic	r2, r5, #3040	; 0xbe0

00000480 <l162>:
     480:	e188bec6 	orr	fp, r8, r6, asr #29

00000484 <l163>:
     484:	e5dd702c 	ldrb	r7, [sp, #44]	; 0x2c

00000488 <l164>:
     488:	e16f9f1c 	clz	r9, ip

0000048c <l165>:
     48c:	e3b0a406 	movs	sl, #100663296	; 0x6000000

00000490 <l166>:
     490:	1008300b 	andne	r3, r8, fp

00000494 <l167>:
     494:	50758009 	rsbspl	r8, r5, r9

00000498 <l168>:
     498:	155d9006 	ldrbne	r9, [sp, #-6]

0000049c <l169>:
     49c:	e48d602c 	str	r6, [sp], #44	; 0x2c

000004a0 <l170>:
     4a0:	e052ab31 	subs	sl, r2, r1, lsr fp

000004a4 <l171>:
     4a4:	e3a09007 	mov	r9, #7

000004a8 <l172>:
     4a8:	b19d60d9 	ldrsblt	r6, [sp, r9]

000004ac <l173>:
     4ac:	e3a08006 	mov	r8, #6

000004b0 <l174>:
     4b0:	511da0d8 	ldrsbpl	sl, [sp, -r8]

000004b4 <l175>:
     4b4:	e3a01029 	mov	r1, #41	; 0x29

000004b8 <l176>:
     4b8:	e11d50d1 	ldrsb	r5, [sp, -r1]

000004bc <l177>:
     4bc:	e3a05020 	mov	r5, #32

000004c0 <l178>:
     4c0:	e70d0005 	str	r0, [sp, -r5]

000004c4 <l179>:
     4c4:	e82de000 	stmda	sp!, {sp, lr, pc}

000004c8 <l180>:
     4c8:	a99d0016 	ldmibge	sp, {r1, r2, r4}

000004cc <l181>:
     4cc:	e0eac00a 	rsc	ip, sl, sl

000004d0 <l182>:
     4d0:	e3720269 	cmn	r2, #-1879048186	; 0x90000006

000004d4 <l183>:
     4d4:	e16f5f1b 	clz	r5, fp

000004d8 <l184>:
     4d8:	e2725523 	rsbs	r5, r2, #146800640	; 0x8c00000

000004dc <l185>:
     4dc:	e41d6028 	ldr	r6, [sp], #-40	; 0x28

000004e0 <l186>:
     4e0:	e5adc01c 	str	ip, [sp, #28]!

000004e4 <l187>:
     4e4:	e1b09002 	movs	r9, r2

000004e8 <l188>:
     4e8:	ca000006 	bgt	508 <l196>

000004ec <l189>:
     4ec:	e280102f 	add	r1, r0, #47	; 0x2f

000004f0 <l190>:
     4f0:	91d3200e 	bicsls	r2, r3, lr

000004f4 <l191>:
     4f4:	425bc406 	subsmi	ip, fp, #100663296	; 0x6000000

000004f8 <l192>:
     4f8:	91110ac5 	tstls	r1, r5, asr #21

000004fc <l193>:
     4fc:	e262c009 	rsb	ip, r2, #9

00000500 <l194>:
     500:	e1d3500b 	bics	r5, r3, fp

00000504 <l195>:
     504:	ea000000 	b	50c <l197>

00000508 <l196>:
     508:	eafffff8 	b	4f0 <l190>

0000050c <l197>:
     50c:	e59f3000 	ldr	r3, [pc]	; 514 <l199>

00000510 <l198>:
     510:	ea000000 	b	518 <l200>

00000514 <l199>:
     514:	000fffe4 	.word	0x000fffe4

00000518 <l200>:
     518:	e1035091 	swp	r5, r1, [r3]

0000051c <l201>:
     51c:	e3720c91 	cmn	r2, #37120	; 0x9100

00000520 <l202>:
     520:	e0761c18 	rsbs	r1, r6, r8, lsl ip

00000524 <l203>:
     524:	116f5f12 	clzne	r5, r2

00000528 <l204>:
     528:	ea000006 	b	548 <l212>

0000052c <l205>:
     52c:	e28010b2 	add	r1, r0, #178	; 0xb2

00000530 <l206>:
     530:	216fef19 	clzcs	lr, r9

00000534 <l207>:
     534:	e3760bfb 	cmn	r6, #257024	; 0x3ec00

00000538 <l208>:
     538:	e330002d 	teq	r0, #45	; 0x2d

0000053c <l209>:
     53c:	e16faf11 	clz	sl, r1

00000540 <l210>:
     540:	e1a0b065 	rrx	fp, r5

00000544 <l211>:
     544:	ea000000 	b	54c <l213>

00000548 <l212>:
     548:	eafffff8 	b	530 <l206>

0000054c <l213>:
     54c:	e3a02006 	mov	r2, #6

00000550 <l214>:
     550:	c11d40f2 	ldrshgt	r4, [sp, -r2]

00000554 <l215>:
     554:	e5dd0002 	ldrb	r0, [sp, #2]

00000558 <l216>:
     558:	3183c004 	orrcc	ip, r3, r4

0000055c <l217>:
     55c:	80d82373 	sbcshi	r2, r8, r3, ror r3

00000560 <l218>:
     560:	e2308995 	eors	r8, r0, #2441216	; 0x254000

00000564 <l219>:
     564:	e3a0a007 	mov	sl, #7

00000568 <l220>:
     568:	97cd700a 	strbls	r7, [sp, sl]

0000056c <l221>:
     56c:	e0b01847 	adcs	r1, r0, r7, asr #16

00000570 <l222>:
     570:	e3a09010 	mov	r9, #16

00000574 <l223>:
     574:	575d4009 	ldrbpl	r4, [sp, -r9]

00000578 <l224>:
     578:	80034a72 	andhi	r4, r3, r2, ror sl

0000057c <l225>:
     57c:	e15e0060 	cmp	lr, r0, rrx

00000580 <l226>:
     580:	aa000008 	bge	5a8 <l236>

00000584 <l227>:
     584:	b17e062e 	cmnlt	lr, lr, lsr #12

00000588 <l228>:
     588:	82ee3d73 	rschi	r3, lr, #7360	; 0x1cc0

0000058c <l229>:
     58c:	c08730a9 	addgt	r3, r7, r9, lsr #1

00000590 <l230>:
     590:	916f3f1b 	clzls	r3, fp

00000594 <l231>:
     594:	e0a25919 	adc	r5, r2, r9, lsl r9

00000598 <l232>:
     598:	10aa9ac1 	adcne	r9, sl, r1, asr #21

0000059c <l233>:
     59c:	e0b7067b 	adcs	r0, r7, fp, ror r6

000005a0 <l234>:
     5a0:	e26889ae 	rsb	r8, r8, #2850816	; 0x2b8000

000005a4 <l235>:
     5a4:	e0d888ec 	sbcs	r8, r8, ip, ror #17

000005a8 <l236>:
     5a8:	b16fcf18 	clzlt	ip, r8

000005ac <l237>:
     5ac:	e3a0b009 	mov	fp, #9

000005b0 <l238>:
     5b0:	575d300b 	ldrbpl	r3, [sp, -fp]

000005b4 <l239>:
     5b4:	c010c331 	andsgt	ip, r0, r1, lsr r3

000005b8 <l240>:
     5b8:	8a000004 	bhi	5d0 <l246>

000005bc <l241>:
     5bc:	20c75066 	sbccs	r5, r7, r6, rrx

000005c0 <l242>:
     5c0:	e2149801 	ands	r9, r4, #65536	; 0x10000

000005c4 <l243>:
     5c4:	e277373a 	rsbs	r3, r7, #15204352	; 0xe80000

000005c8 <l244>:
     5c8:	e17a0008 	cmn	sl, r8

000005cc <l245>:
     5cc:	e0cf5188 	sbc	r5, pc, r8, lsl #3

000005d0 <l246>:
     5d0:	4135030e 	teqmi	r5, lr, lsl #6

000005d4 <l247>:
     5d4:	e8bd0040 	ldmfd	sp!, {r6}

000005d8 <l248>:
     5d8:	e192200a 	orrs	r2, r2, sl

000005dc <l249>:
     5dc:	50c4e06b 	sbcpl	lr, r4, fp, rrx

000005e0 <l250>:
     5e0:	e0e60dc8 	rsc	r0, r6, r8, asr #27

000005e4 <l251>:
     5e4:	e0889589 	add	r9, r8, r9, lsl #11

000005e8 <l252>:
     5e8:	e3740403 	cmn	r4, #50331648	; 0x3000000

000005ec <l253>:
     5ec:	e59fa000 	ldr	sl, [pc]	; 5f4 <l255>

000005f0 <l254>:
     5f0:	ea000000 	b	5f8 <l256>

000005f4 <l255>:
     5f4:	000fffb4 	.word	0x000fffb4

000005f8 <l256>:
     5f8:	e14a6099 	swpb	r6, r9, [sl]

000005fc <l257>:
     5fc:	b2ca933a 	sbclt	r9, sl, #-402653184	; 0xe8000000

00000600 <l258>:
     600:	e1750064 	cmn	r5, r4, rrx

00000604 <l259>:
     604:	a31a0621 	tstge	sl, #34603008	; 0x2100000

00000608 <l260>:
     608:	e0cc8423 	sbc	r8, ip, r3, lsr #8

0000060c <l261>:
     60c:	e3a0900e 	mov	r9, #14

00000610 <l262>:
     610:	818d50b9 	strhhi	r5, [sp, r9]

00000614 <l263>:
     614:	01160009 	tsteq	r6, r9

00000618 <l264>:
     618:	e59f7000 	ldr	r7, [pc]	; 620 <l266>

0000061c <l265>:
     61c:	ea000000 	b	624 <l267>

00000620 <l266>:
     620:	000fffc0 	.word	0x000fffc0

00000624 <l267>:
     624:	8107209b 	swphi	r2, fp, [r7]

00000628 <l268>:
     628:	e1c0300e 	bic	r3, r0, lr

0000062c <l269>:
     62c:	116f9f15 	clzne	r9, r5

00000630 <l270>:
     630:	915d82ba 	ldrhls	r8, [sp, #-42]	; 0xffffffd6

00000634 <l271>:
     634:	e5bd8018 	ldr	r8, [sp, #24]!

00000638 <l272>:
     638:	e14d13b0 	strh	r1, [sp, #-48]	; 0xffffffd0

0000063c <l273>:
     63c:	b2f9063a 	rscslt	r0, r9, #60817408	; 0x3a00000

00000640 <l274>:
     640:	d09ca009 	addsle	sl, ip, r9

00000644 <l275>:
     644:	e82de000 	stmda	sp!, {sp, lr, pc}

00000648 <l276>:
     648:	e3a06004 	mov	r6, #4

0000064c <l277>:
     64c:	e74d4006 	strb	r4, [sp, -r6]

00000650 <l278>:
     650:	a1580000 	cmpge	r8, r0

00000654 <l279>:
     654:	e59f0000 	ldr	r0, [pc]	; 65c <l281>

00000658 <l280>:
     658:	ea000000 	b	660 <l282>

0000065c <l281>:
     65c:	000fffd4 	.word	0x000fffd4

00000660 <l282>:
     660:	e1007099 	swp	r7, r9, [r0]

00000664 <l283>:
     664:	e8ad1000 	stmia	sp!, {ip}

00000668 <l284>:
     668:	e14da3ba 	strh	sl, [sp, #-58]	; 0xffffffc6

0000066c <l285>:
     66c:	60a80b57 	adcvs	r0, r8, r7, asr fp

00000670 <l286>:
     670:	e21e1403 	ands	r1, lr, #50331648	; 0x3000000

00000674 <l287>:
     674:	e59f5000 	ldr	r5, [pc]	; 67c <l289>

00000678 <l288>:
     678:	ea000000 	b	680 <l290>

0000067c <l289>:
     67c:	000fffd0 	.word	0x000fffd0

00000680 <l290>:
     680:	e1456090 	swpb	r6, r0, [r5]

00000684 <l291>:
     684:	d15f0006 	cmple	pc, r6

00000688 <l292>:
     688:	e16f5f1b 	clz	r5, fp

0000068c <l293>:
     68c:	a0961385 	addsge	r1, r6, r5, lsl #7

00000690 <l294>:
     690:	e0c3b003 	sbc	fp, r3, r3

00000694 <l295>:
     694:	c00a4061 	andgt	r4, sl, r1, rrx

00000698 <l296>:
     698:	e59fa000 	ldr	sl, [pc]	; 6a0 <l298>

0000069c <l297>:
     69c:	ea000000 	b	6a4 <l299>

000006a0 <l298>:
     6a0:	000fffd4 	.word	0x000fffd4

000006a4 <l299>:
     6a4:	e10a6095 	swp	r6, r5, [sl]

000006a8 <l300>:
     6a8:	e3a02006 	mov	r2, #6

000006ac <l301>:
     6ac:	e19d60b2 	ldrh	r6, [sp, r2]

000006b0 <l302>:
     6b0:	e1a06125 	lsr	r6, r5, #2

000006b4 <l303>:
     6b4:	e1a0750e 	lsl	r7, lr, #10

000006b8 <l304>:
     6b8:	e1cea005 	bic	sl, lr, r5

000006bc <l305>:
     6bc:	b133006f 	teqlt	r3, pc, rrx

000006c0 <l306>:
     6c0:	e2988ba9 	adds	r8, r8, #173056	; 0x2a400

000006c4 <l307>:
     6c4:	50b31b5b 	adcspl	r1, r3, fp, asr fp

000006c8 <l308>:
     6c8:	71770b58 	cmnvc	r7, r8, asr fp

000006cc <l309>:
     6cc:	9a000002 	bls	6dc <l313>

000006d0 <l310>:
     6d0:	e280104f 	add	r1, r0, #79	; 0x4f

000006d4 <l311>:
     6d4:	7026a30b 	eorvc	sl, r6, fp, lsl #6

000006d8 <l312>:
     6d8:	ea000000 	b	6e0 <l314>

000006dc <l313>:
     6dc:	eafffffc 	b	6d4 <l311>

000006e0 <l314>:
     6e0:	7a000003 	bvc	6f4 <l319>

000006e4 <l315>:
     6e4:	e28010c1 	add	r1, r0, #193	; 0xc1

000006e8 <l316>:
     6e8:	e0d9c073 	sbcs	ip, r9, r3, ror r0

000006ec <l317>:
     6ec:	8319069e 	tsthi	r9, #165675008	; 0x9e00000

000006f0 <l318>:
     6f0:	ea000000 	b	6f8 <l320>

000006f4 <l319>:
     6f4:	eafffffb 	b	6e8 <l316>

000006f8 <l320>:
     6f8:	e16fbf13 	clz	fp, r3

000006fc <l321>:
     6fc:	e92d0802 	push	{r1, fp}

00000700 <l322>:
     700:	b0053c17 	andlt	r3, r5, r7, lsl ip

00000704 <l323>:
     704:	e37c0163 	cmn	ip, #-1073741800	; 0xc0000018

00000708 <l324>:
     708:	e0e1453c 	rsc	r4, r1, ip, lsr r5

0000070c <l325>:
     70c:	e59f2000 	ldr	r2, [pc]	; 714 <l327>

00000710 <l326>:
     710:	ea000000 	b	718 <l328>

00000714 <l327>:
     714:	000fffd8 	.word	0x000fffd8

00000718 <l328>:
     718:	a102809b 	swpge	r8, fp, [r2]

0000071c <l329>:
     71c:	e3a0a008 	mov	sl, #8

00000720 <l330>:
     720:	e7bd900a 	ldr	r9, [sp, sl]!

00000724 <l331>:
     724:	002c9055 	eoreq	r9, ip, r5, asr r0

00000728 <l332>:
     728:	b290503c 	addslt	r5, r0, #60	; 0x3c

0000072c <l333>:
     72c:	c133000f 	teqgt	r3, pc

00000730 <l334>:
     730:	e15d50d2 	ldrsb	r5, [sp, #-2]

00000734 <l335>:
     734:	32ce9239 	sbccc	r9, lr, #-1879048189	; 0x90000003

00000738 <l336>:
     738:	e3a0b028 	mov	fp, #40	; 0x28

0000073c <l337>:
     73c:	911d40fb 	ldrshls	r4, [sp, -fp]

00000740 <l338>:
     740:	e9bd0042 	ldmib	sp!, {r1, r6}

00000744 <l339>:
     744:	215e0060 	cmpcs	lr, r0, rrx

00000748 <l340>:
     748:	837a041e 	cmnhi	sl, #503316480	; 0x1e000000

0000074c <l341>:
     74c:	e3a0c028 	mov	ip, #40	; 0x28

00000750 <l342>:
     750:	e72dc00c 	str	ip, [sp, -ip]!

00000754 <l343>:
     754:	80eee27a 	rschi	lr, lr, sl, ror r2

00000758 <l344>:
     758:	b3f00135 	mvnslt	r0, #1073741837	; 0x4000000d

0000075c <l345>:
     75c:	e013cc54 	ands	ip, r3, r4, asr ip

00000760 <l346>:
     760:	611f0183 	tstvs	pc, r3, lsl #3

00000764 <l347>:
     764:	e0544116 	subs	r4, r4, r6, lsl r1

00000768 <l348>:
     768:	807ba7ef 	rsbshi	sl, fp, pc, ror #15

0000076c <l349>:
     76c:	e93d0347 	ldmdb	sp!, {r0, r1, r2, r6, r8, r9}

00000770 <l350>:
     770:	ca000007 	bgt	794 <l359>

00000774 <l351>:
     774:	213b0c3b 	teqcs	fp, fp, lsr ip

00000778 <l352>:
     778:	61590611 	cmpvs	r9, r1, lsl r6

0000077c <l353>:
     77c:	831a0a7d 	tsthi	sl, #512000	; 0x7d000

00000780 <l354>:
     780:	30df00c2 	sbcscc	r0, pc, r2, asr #1

00000784 <l355>:
     784:	53720c32 	cmnpl	r2, #12800	; 0x3200

00000788 <l356>:
     788:	516fef11 	clzpl	lr, r1

0000078c <l357>:
     78c:	e0d61e7a 	sbcs	r1, r6, sl, ror lr

00000790 <l358>:
     790:	100fe009 	andne	lr, pc, r9

00000794 <l359>:
     794:	e0416aac 	sub	r6, r1, ip, lsr #21

00000798 <l360>:
     798:	b1dd73de 	ldrsblt	r7, [sp, #62]	; 0x3e

0000079c <l361>:
     79c:	358d100c 	strcc	r1, [sp, #12]

000007a0 <l362>:
     7a0:	e0517a0b 	subs	r7, r1, fp, lsl #20

000007a4 <l363>:
     7a4:	e0bfb06f 	adcs	fp, pc, pc, rrx

000007a8 <l364>:
     7a8:	e1a00000 	nop			; (mov r0, r0)

000007ac <l365>:
     7ac:	e3a0800e 	mov	r8, #14

000007b0 <l366>:
     7b0:	019d70f8 	ldrsheq	r7, [sp, r8]

000007b4 <l367>:
     7b4:	e59f8000 	ldr	r8, [pc]	; 7bc <l369>

000007b8 <l368>:
     7b8:	ea000000 	b	7c0 <l370>

000007bc <l369>:
     7bc:	000fffb8 	.word	0x000fffb8

000007c0 <l370>:
     7c0:	a148c097 	swpbge	ip, r7, [r8]

000007c4 <l371>:
     7c4:	e1a0473a 	lsr	r4, sl, r7

000007c8 <l372>:
     7c8:	95dd1027 	ldrbls	r1, [sp, #39]	; 0x27

000007cc <l373>:
     7cc:	0a000000 	beq	7d4 <l375>

000007d0 <l374>:
     7d0:	71f0780c 	mvnsvc	r7, ip, lsl #16

000007d4 <l375>:
     7d4:	c2f80b1e 	rscsgt	r0, r8, #30720	; 0x7800

000007d8 <l376>:
     7d8:	e0e3e007 	rsc	lr, r3, r7

000007dc <l377>:
     7dc:	b1a0ef21 	lsrlt	lr, r1, #30

000007e0 <l378>:
     7e0:	e8ade000 	stmia	sp!, {sp, lr, pc}

000007e4 <l379>:
     7e4:	e59f1000 	ldr	r1, [pc]	; 7ec <l381>

000007e8 <l380>:
     7e8:	ea000000 	b	7f0 <l382>

000007ec <l381>:
     7ec:	000fffd4 	.word	0x000fffd4

000007f0 <l382>:
     7f0:	1101c099 	swpne	ip, r9, [r1]

000007f4 <l383>:
     7f4:	316f1f1b 	clzcc	r1, fp

000007f8 <l384>:
     7f8:	e0289009 	eor	r9, r8, r9

000007fc <l385>:
     7fc:	627c94cb 	rsbsvs	r9, ip, #-889192448	; 0xcb000000

00000800 <l386>:
     800:	e3a01010 	mov	r1, #16

00000804 <l387>:
     804:	e61d9001 	ldr	r9, [sp], -r1

00000808 <l388>:
     808:	e0e91005 	rsc	r1, r9, r5

0000080c <l389>:
     80c:	e1770472 	cmn	r7, r2, ror r4

00000810 <l390>:
     810:	e1dd41fa 	ldrsh	r4, [sp, #26]

00000814 <l391>:
     814:	e3a0302c 	mov	r3, #44	; 0x2c

00000818 <l392>:
     818:	e19d70b3 	ldrh	r7, [sp, r3]

0000081c <l393>:
     81c:	eaffffff 	b	820 <l394>

00000820 <l394>:
     820:	e08ce007 	add	lr, ip, r7

00000824 <l395>:
     824:	e1550881 	cmp	r5, r1, lsl #17

00000828 <l396>:
     828:	e3a0300a 	mov	r3, #10

0000082c <l397>:
     82c:	e7cd1003 	strb	r1, [sp, r3]

00000830 <l398>:
     830:	80c8762e 	sbchi	r7, r8, lr, lsr #12

00000834 <l399>:
     834:	e387360f 	orr	r3, r7, #15728640	; 0xf00000

00000838 <l400>:
     838:	e00b8a36 	and	r8, fp, r6, lsr sl

0000083c <l401>:
     83c:	e1dda1dd 	ldrsb	sl, [sp, #29]

00000840 <l402>:
     840:	30208006 	eorcc	r8, r0, r6

00000844 <l403>:
     844:	8a000000 	bhi	84c <l405>

00000848 <l404>:
     848:	31590b16 	cmpcc	r9, r6, lsl fp

0000084c <l405>:
     84c:	716f5f10 	clzvc	r5, r0

00000850 <l406>:
     850:	e59f4000 	ldr	r4, [pc]	; 858 <l408>

00000854 <l407>:
     854:	ea000000 	b	85c <l409>

00000858 <l408>:
     858:	000fffbc 	.word	0x000fffbc

0000085c <l409>:
     85c:	2144c090 	swpbcs	ip, r0, [r4]

00000860 <l410>:
     860:	e2bc640b 	adcs	r6, ip, #184549376	; 0xb000000

00000864 <l411>:
     864:	ea000006 	b	884 <l419>

00000868 <l412>:
     868:	b1936c4a 	orrslt	r6, r3, sl, asr #24

0000086c <l413>:
     86c:	9134005e 	teqls	r4, lr, asr r0

00000870 <l414>:
     870:	e17c0a70 	cmn	ip, r0, ror sl

00000874 <l415>:
     874:	83700045 	cmnhi	r0, #69	; 0x45

00000878 <l416>:
     878:	e3d0a103 	bics	sl, r0, #-1073741824	; 0xc0000000

0000087c <l417>:
     87c:	21110005 	tstcs	r1, r5

00000880 <l418>:
     880:	d2b2e4b1 	adcsle	lr, r2, #-1325400064	; 0xb1000000

00000884 <l419>:
     884:	e2d0a68a 	sbcs	sl, r0, #144703488	; 0x8a00000

00000888 <l420>:
     888:	115a0037 	cmpne	sl, r7, lsr r0

0000088c <l421>:
     88c:	e0034d8a 	and	r4, r3, sl, lsl #27

00000890 <l422>:
     890:	350d2004 	strcc	r2, [sp, #-4]

00000894 <l423>:
     894:	00b77e77 	adcseq	r7, r7, r7, ror lr

00000898 <l424>:
     898:	30ac700c 	adccc	r7, ip, ip

0000089c <l425>:
     89c:	e3a07042 	mov	r7, #66	; 0x42

000008a0 <l426>:
     8a0:	e7dd9007 	ldrb	r9, [sp, r7]

000008a4 <l427>:
     8a4:	e59fe000 	ldr	lr, [pc]	; 8ac <l429>

000008a8 <l428>:
     8a8:	ea000000 	b	8b0 <l430>

000008ac <l429>:
     8ac:	000fffdc 	.word	0x000fffdc

000008b0 <l430>:
     8b0:	e10e5092 	swp	r5, r2, [lr]

000008b4 <l431>:
     8b4:	e8bd57fb 	pop	{r0, r1, r3, r4, r5, r6, r7, r8, r9, sl, ip, lr}

000008b8 <l432>:
     8b8:	00b95678 	adcseq	r5, r9, r8, ror r6

000008bc <l433>:
     8bc:	e038200a 	eors	r2, r8, sl

000008c0 <l434>:
     8c0:	e3a0c010 	mov	ip, #16

000008c4 <l435>:
     8c4:	919db0bc 	ldrhls	fp, [sp, ip]

000008c8 <l436>:
     8c8:	3affffff 	bcc	8cc <l437>

000008cc <l437>:
     8cc:	a0de8007 	sbcsge	r8, lr, r7

000008d0 <l438>:
     8d0:	e14d62ba 	strh	r6, [sp, #-42]	; 0xffffffd6

000008d4 <l439>:
     8d4:	e83d0ebd 	ldmda	sp!, {r0, r2, r3, r4, r5, r7, r9, sl, fp}

000008d8 <l440>:
     8d8:	e38ba126 	orr	sl, fp, #-2147483639	; 0x80000009

000008dc <l441>:
     8dc:	e0eaac7c 	rsc	sl, sl, ip, ror ip

000008e0 <l442>:
     8e0:	5010c06f 	andspl	ip, r0, pc, rrx

000008e4 <l443>:
     8e4:	e3a0b008 	mov	fp, #8

000008e8 <l444>:
     8e8:	179d300b 	ldrne	r3, [sp, fp]

000008ec <l445>:
     8ec:	42fb5bfa 	rscsmi	r5, fp, #256000	; 0x3e800

000008f0 <l446>:
     8f0:	e16fcf11 	clz	ip, r1

000008f4 <l447>:
     8f4:	e240c652 	sub	ip, r0, #85983232	; 0x5200000

000008f8 <l448>:
     8f8:	e063400a 	rsb	r4, r3, sl

000008fc <l449>:
     8fc:	e59f3000 	ldr	r3, [pc]	; 904 <l451>

00000900 <l450>:
     900:	ea000000 	b	908 <l452>

00000904 <l451>:
     904:	000fffbc 	.word	0x000fffbc

00000908 <l452>:
     908:	c143b09e 	swpbgt	fp, lr, [r3]

0000090c <l453>:
     90c:	50d60054 	sbcspl	r0, r6, r4, asr r0

00000910 <l454>:
     910:	e15e0004 	cmp	lr, r4

00000914 <l455>:
     914:	e1dc7064 	bics	r7, ip, r4, rrx

00000918 <l456>:
     918:	915e000a 	cmpls	lr, sl

0000091c <l457>:
     91c:	33997b95 	orrscc	r7, r9, #152576	; 0x25400

00000920 <l458>:
     920:	e9bd5fdf 	ldmib	sp!, {r0, r1, r2, r3, r4, r6, r7, r8, r9, sl, fp, ip, lr}

00000924 <l459>:
     924:	e3a0c044 	mov	ip, #68	; 0x44

00000928 <l460>:
     928:	e60d400c 	str	r4, [sp], -ip

0000092c <l461>:
     92c:	e3a0501b 	mov	r5, #27

00000930 <l462>:
     930:	27ddc005 	ldrbcs	ip, [sp, r5]

00000934 <l463>:
     934:	e8bd0813 	pop	{r0, r1, r4, fp}

00000938 <l464>:
     938:	a16f7f14 	clzge	r7, r4

0000093c <l465>:
     93c:	e3a06000 	mov	r6, #0

00000940 <l466>:
     940:	e7cd2006 	strb	r2, [sp, r6]

00000944 <l467>:
     944:	20dbc873 	sbcscs	ip, fp, r3, ror r8

00000948 <l468>:
     948:	6358043b 	cmpvs	r8, #989855744	; 0x3b000000

0000094c <l469>:
     94c:	7a000002 	bvc	95c <l473>

00000950 <l470>:
     950:	e2801029 	add	r1, r0, #41	; 0x29

00000954 <l471>:
     954:	e0a63a73 	adc	r3, r6, r3, ror sl

00000958 <l472>:
     958:	ea000000 	b	960 <l474>

0000095c <l473>:
     95c:	eafffffc 	b	954 <l471>

00000960 <l474>:
     960:	e5ad6034 	str	r6, [sp, #52]!	; 0x34

00000964 <l475>:
     964:	81e01a7a 	mvnhi	r1, sl, ror sl

00000968 <l476>:
     968:	e3a0e001 	mov	lr, #1

0000096c <l477>:
     96c:	e19d10de 	ldrsb	r1, [sp, lr]

00000970 <l478>:
     970:	ea000006 	b	990 <l486>

00000974 <l479>:
     974:	b1d3c061 	bicslt	ip, r3, r1, rrx

00000978 <l480>:
     978:	e1390000 	teq	r9, r0

0000097c <l481>:
     97c:	9057ade2 	subsls	sl, r7, r2, ror #27

00000980 <l482>:
     980:	6018306b 	andsvs	r3, r8, fp, rrx

00000984 <l483>:
     984:	e0ee200e 	rsc	r2, lr, lr

00000988 <l484>:
     988:	e1cb4008 	bic	r4, fp, r8

0000098c <l485>:
     98c:	e02ec005 	eor	ip, lr, r5

00000990 <l486>:
     990:	e0a6900a 	adc	r9, r6, sl

00000994 <l487>:
     994:	e92d928b 	push	{r0, r1, r3, r7, r9, ip, pc}

00000998 <l488>:
     998:	e0a3e87a 	adc	lr, r3, sl, ror r8

0000099c <l489>:
     99c:	e22723d5 	eor	r2, r7, #1409286147	; 0x54000003

000009a0 <l490>:
     9a0:	e1b0431a 	lsls	r4, sl, r3

000009a4 <l491>:
     9a4:	e59f2000 	ldr	r2, [pc]	; 9ac <l493>

000009a8 <l492>:
     9a8:	ea000000 	b	9b0 <l494>

000009ac <l493>:
     9ac:	000fffd8 	.word	0x000fffd8

000009b0 <l494>:
     9b0:	71428096 	swpbvc	r8, r6, [r2]

000009b4 <l495>:
     9b4:	320bc349 	andcc	ip, fp, #603979777	; 0x24000001

000009b8 <l496>:
     9b8:	62029ff2 	andvs	r9, r2, #968	; 0x3c8

000009bc <l497>:
     9bc:	e1a05006 	mov	r5, r6

000009c0 <l498>:
     9c0:	11cd60b8 	strhne	r6, [sp, #8]

000009c4 <l499>:
     9c4:	43350725 	teqmi	r5, #9699328	; 0x940000

000009c8 <l500>:
     9c8:	81d57007 	bicshi	r7, r5, r7

000009cc <l501>:
     9cc:	e0474005 	sub	r4, r7, r5

000009d0 <l502>:
     9d0:	81cc3064 	bichi	r3, ip, r4, rrx

000009d4 <l503>:
     9d4:	4a000002 	bmi	9e4 <l507>

000009d8 <l504>:
     9d8:	e2801040 	add	r1, r0, #64	; 0x40

000009dc <l505>:
     9dc:	8016c004 	andshi	ip, r6, r4

000009e0 <l506>:
     9e0:	ea000000 	b	9e8 <l508>

000009e4 <l507>:
     9e4:	eafffffc 	b	9dc <l505>

000009e8 <l508>:
     9e8:	e1570c51 	cmp	r7, r1, asr ip

000009ec <l509>:
     9ec:	93a06e7b 	movls	r6, #1968	; 0x7b0

000009f0 <l510>:
     9f0:	899d0022 	ldmibhi	sp, {r1, r5}

000009f4 <l511>:
     9f4:	e25b60e9 	subs	r6, fp, #233	; 0xe9

000009f8 <l512>:
     9f8:	b16fef18 	clzlt	lr, r8

000009fc <l513>:
     9fc:	b16f3f11 	clzlt	r3, r1

00000a00 <l514>:
     a00:	ea000005 	b	a1c <l521>

00000a04 <l515>:
     a04:	e3ccc411 	bic	ip, ip, #285212672	; 0x11000000

00000a08 <l516>:
     a08:	e31105e2 	tst	r1, #947912704	; 0x38800000

00000a0c <l517>:
     a0c:	e135007a 	teq	r5, sl, ror r0

00000a10 <l518>:
     a10:	e17a0000 	cmn	sl, r0

00000a14 <l519>:
     a14:	d1808543 	orrle	r8, r0, r3, asr #10

00000a18 <l520>:
     a18:	705a806f 	subsvc	r8, sl, pc, rrx

00000a1c <l521>:
     a1c:	e0f1a227 	rscs	sl, r1, r7, lsr #4

00000a20 <l522>:
     a20:	ea000001 	b	a2c <l525>

00000a24 <l523>:
     a24:	e2b3c245 	adcs	ip, r3, #1342177284	; 0x50000004

00000a28 <l524>:
     a28:	205b5066 	subscs	r5, fp, r6, rrx

00000a2c <l525>:
     a2c:	e37a0413 	cmn	sl, #318767104	; 0x13000000

00000a30 <l526>:
     a30:	10e3900b 	rscne	r9, r3, fp

00000a34 <l527>:
     a34:	52d3a333 	sbcspl	sl, r3, #-872415232	; 0xcc000000

00000a38 <l528>:
     a38:	017f0000 	cmneq	pc, r0

00000a3c <l529>:
     a3c:	e0b0c069 	adcs	ip, r0, r9, rrx

00000a40 <l530>:
     a40:	e1db7de8 	bics	r7, fp, r8, ror #27

00000a44 <l531>:
     a44:	259dc018 	ldrcs	ip, [sp, #24]

00000a48 <l532>:
     a48:	c05743a7 	subsgt	r4, r7, r7, lsr #7

00000a4c <l533>:
     a4c:	a072a00b 	rsbsge	sl, r2, fp

00000a50 <l534>:
     a50:	e1b0000b 	movs	r0, fp

00000a54 <l535>:
     a54:	921770f5 	andsls	r7, r7, #245	; 0xf5

00000a58 <l536>:
     a58:	11a0b06a 	rrxne	fp, sl

00000a5c <l537>:
     a5c:	e0244063 	eor	r4, r4, r3, rrx

00000a60 <l538>:
     a60:	a0448008 	subge	r8, r4, r8

00000a64 <l539>:
     a64:	e3a0a007 	mov	sl, #7

00000a68 <l540>:
     a68:	e19db0da 	ldrsb	fp, [sp, sl]

00000a6c <l541>:
     a6c:	e16f2f10 	clz	r2, r0

00000a70 <l542>:
     a70:	e24ebfd3 	sub	fp, lr, #844	; 0x34c

00000a74 <l543>:
     a74:	e3a0001d 	mov	r0, #29

00000a78 <l544>:
     a78:	d19d90d0 	ldrsble	r9, [sp, r0]

00000a7c <l545>:
     a7c:	e9ad0052 	stmib	sp!, {r1, r4, r6}

00000a80 <l546>:
     a80:	433f026b 	teqmi	pc, #-1342177274	; 0xb0000006

00000a84 <l547>:
     a84:	ba000006 	blt	aa4 <l555>

00000a88 <l548>:
     a88:	e2801055 	add	r1, r0, #85	; 0x55

00000a8c <l549>:
     a8c:	d2f682d5 	rscsle	r8, r6, #1342177293	; 0x5000000d

00000a90 <l550>:
     a90:	61f0500c 	mvnsvs	r5, ip

00000a94 <l551>:
     a94:	20eb8131 	rsccs	r8, fp, r1, lsr r1

00000a98 <l552>:
     a98:	10f56000 	rscsne	r6, r5, r0

00000a9c <l553>:
     a9c:	205bab7e 	subscs	sl, fp, lr, ror fp

00000aa0 <l554>:
     aa0:	ea000000 	b	aa8 <l556>

00000aa4 <l555>:
     aa4:	eafffff8 	b	a8c <l549>

00000aa8 <l556>:
     aa8:	e59f8000 	ldr	r8, [pc]	; ab0 <l558>

00000aac <l557>:
     aac:	ea000000 	b	ab4 <l559>

00000ab0 <l558>:
     ab0:	000fffac 	.word	0x000fffac

00000ab4 <l559>:
     ab4:	6108009a 	swpvs	r0, sl, [r8]

00000ab8 <l560>:
     ab8:	e15d02d3 	ldrsb	r0, [sp, #-35]	; 0xffffffdd

00000abc <l561>:
     abc:	e29048e1 	adds	r4, r0, #14745600	; 0xe10000

00000ac0 <l562>:
     ac0:	e3120dfd 	tst	r2, #16192	; 0x3f40

00000ac4 <l563>:
     ac4:	b0e2052a 	rsclt	r0, r2, sl, lsr #10

00000ac8 <l564>:
     ac8:	e3a03016 	mov	r3, #22

00000acc <l565>:
     acc:	e19da0f3 	ldrsh	sl, [sp, r3]

00000ad0 <l566>:
     ad0:	e59f9000 	ldr	r9, [pc]	; ad8 <l568>

00000ad4 <l567>:
     ad4:	ea000000 	b	adc <l569>

00000ad8 <l568>:
     ad8:	000fffdc 	.word	0x000fffdc

00000adc <l569>:
     adc:	d149e095 	swpble	lr, r5, [r9]

00000ae0 <l570>:
     ae0:	e59f3000 	ldr	r3, [pc]	; ae8 <l572>

00000ae4 <l571>:
     ae4:	ea000000 	b	aec <l573>

00000ae8 <l572>:
     ae8:	000fffd0 	.word	0x000fffd0

00000aec <l573>:
     aec:	8143809e 	swpbhi	r8, lr, [r3]

00000af0 <l574>:
     af0:	e9ad8000 	stmib	sp!, {pc}

00000af4 <l575>:
     af4:	e55d5034 	ldrb	r5, [sp, #-52]	; 0x34

00000af8 <l576>:
     af8:	315f0120 	cmpcc	pc, r0, lsr #2

00000afc <l577>:
     afc:	91330c37 	teqls	r3, r7, lsr ip

00000b00 <l578>:
     b00:	e1500003 	cmp	r0, r3

00000b04 <l579>:
     b04:	e18c1002 	orr	r1, ip, r2

00000b08 <l580>:
     b08:	303c0002 	eorscc	r0, ip, r2

00000b0c <l581>:
     b0c:	e14d20b2 	strh	r2, [sp, #-2]

00000b10 <l582>:
     b10:	e05b99ec 	subs	r9, fp, ip, ror #19

00000b14 <l583>:
     b14:	e0484425 	sub	r4, r8, r5, lsr #8

00000b18 <l584>:
     b18:	1389062e 	orrne	r0, r9, #48234496	; 0x2e00000

00000b1c <l585>:
     b1c:	e17307c3 	cmn	r3, r3, asr #15

00000b20 <l586>:
     b20:	e2a9c43a 	adc	ip, r9, #973078528	; 0x3a000000

00000b24 <l587>:
     b24:	e3a07004 	mov	r7, #4

00000b28 <l588>:
     b28:	e68d0007 	str	r0, [sp], r7

00000b2c <l589>:
     b2c:	21d1b005 	bicscs	fp, r1, r5

00000b30 <l590>:
     b30:	11dd70b8 	ldrhne	r7, [sp, #8]

00000b34 <l591>:
     b34:	717a0003 	cmnvc	sl, r3

00000b38 <l592>:
     b38:	ba000000 	blt	b40 <l594>

00000b3c <l593>:
     b3c:	e0c23002 	sbc	r3, r2, r2

00000b40 <l594>:
     b40:	40104236 	andsmi	r4, r0, r6, lsr r2

00000b44 <l595>:
     b44:	40e16065 	rscmi	r6, r1, r5, rrx

00000b48 <l596>:
     b48:	115d92b6 	ldrhne	r9, [sp, #-38]	; 0xffffffda

00000b4c <l597>:
     b4c:	e1a0e062 	rrx	lr, r2

00000b50 <l598>:
     b50:	d1780000 	cmnle	r8, r0

00000b54 <l599>:
     b54:	507c7065 	rsbspl	r7, ip, r5, rrx

00000b58 <l600>:
     b58:	e3540009 	cmp	r4, #9

00000b5c <l601>:
     b5c:	e15b0921 	cmp	fp, r1, lsr #18

00000b60 <l602>:
     b60:	e3a02006 	mov	r2, #6

00000b64 <l603>:
     b64:	e19d60b2 	ldrh	r6, [sp, r2]

00000b68 <l604>:
     b68:	e1a06ecb 	asr	r6, fp, #29

00000b6c <l605>:
     b6c:	e3c5cbd2 	bic	ip, r5, #215040	; 0x34800

00000b70 <l606>:
     b70:	00b11002 	adcseq	r1, r1, r2

00000b74 <l607>:
     b74:	7a000000 	bvc	b7c <l609>

00000b78 <l608>:
     b78:	00427007 	subeq	r7, r2, r7

00000b7c <l609>:
     b7c:	e1819003 	orr	r9, r1, r3

00000b80 <l610>:
     b80:	e2c57d95 	sbc	r7, r5, #9536	; 0x2540

00000b84 <l611>:
     b84:	a1500eca 	cmpge	r0, sl, asr #29

00000b88 <l612>:
     b88:	71b0c5c0 	asrsvc	ip, r0, #11

00000b8c <l613>:
     b8c:	e3a00021 	mov	r0, #33	; 0x21

00000b90 <l614>:
     b90:	a74d5000 	strbge	r5, [sp, -r0]

00000b94 <l615>:
     b94:	e13f016c 	teq	pc, ip, ror #2

00000b98 <l616>:
     b98:	824992be 	subhi	r9, r9, #-536870901	; 0xe000000b

00000b9c <l617>:
     b9c:	e3300cbe 	teq	r0, #48640	; 0xbe00

00000ba0 <l618>:
     ba0:	e3a08005 	mov	r8, #5

00000ba4 <l619>:
     ba4:	e75db008 	ldrb	fp, [sp, -r8]

00000ba8 <l620>:
     ba8:	e3a08024 	mov	r8, #36	; 0x24

00000bac <l621>:
     bac:	e60d4008 	str	r4, [sp], -r8

00000bb0 <l622>:
     bb0:	e02ae002 	eor	lr, sl, r2

00000bb4 <l623>:
     bb4:	33c153cb 	biccc	r5, r1, #738197507	; 0x2c000003

00000bb8 <l624>:
     bb8:	e01e7003 	ands	r7, lr, r3

00000bbc <l625>:
     bbc:	e2d6a5c6 	sbcs	sl, r6, #830472192	; 0x31800000

00000bc0 <l626>:
     bc0:	a59d0000 	ldrge	r0, [sp]

00000bc4 <l627>:
     bc4:	e59f5000 	ldr	r5, [pc]	; bcc <l629>

00000bc8 <l628>:
     bc8:	ea000000 	b	bd0 <l630>

00000bcc <l629>:
     bcc:	000fffe8 	.word	0x000fffe8

00000bd0 <l630>:
     bd0:	e105b09c 	swp	fp, ip, [r5]

00000bd4 <l631>:
     bd4:	e203619d 	and	r6, r3, #1073741863	; 0x40000027

00000bd8 <l632>:
     bd8:	6184bb75 	orrvs	fp, r4, r5, ror fp

00000bdc <l633>:
     bdc:	e2098965 	and	r8, r9, #1654784	; 0x194000

00000be0 <l634>:
     be0:	c16f0f10 	clzgt	r0, r0

00000be4 <l635>:
     be4:	e3e09a9b 	mvn	r9, #634880	; 0x9b000

00000be8 <l636>:
     be8:	b15a0571 	cmplt	sl, r1, ror r5

00000bec <l637>:
     bec:	e1dda0d2 	ldrsb	sl, [sp, #2]

00000bf0 <l638>:
     bf0:	616fbf1b 	clzvs	fp, fp

00000bf4 <l639>:
     bf4:	e13c0635 	teq	ip, r5, lsr r6

00000bf8 <l640>:
     bf8:	326ec28a 	rsbcc	ip, lr, #-1610612728	; 0xa0000008

00000bfc <l641>:
     bfc:	e003c068 	and	ip, r3, r8, rrx

00000c00 <l642>:
     c00:	5018932b 	andspl	r9, r8, fp, lsr #6

00000c04 <l643>:
     c04:	655d2005 	ldrbvs	r2, [sp, #-5]

00000c08 <l644>:
     c08:	e59f9000 	ldr	r9, [pc]	; c10 <l646>

00000c0c <l645>:
     c0c:	ea000000 	b	c14 <l647>

00000c10 <l646>:
     c10:	000fffa4 	.word	0x000fffa4

00000c14 <l647>:
     c14:	e1491090 	swpb	r1, r0, [r9]

00000c18 <l648>:
     c18:	3affffff 	bcc	c1c <l649>

00000c1c <l649>:
     c1c:	e1900068 	orrs	r0, r0, r8, rrx

00000c20 <l650>:
     c20:	e8addd36 	stmia	sp!, {r1, r2, r4, r5, r8, sl, fp, ip, lr, pc}

00000c24 <l651>:
     c24:	2068b985 	rsbcs	fp, r8, r5, lsl #19

00000c28 <l652>:
     c28:	e15d21fa 	ldrsh	r2, [sp, #-26]	; 0xffffffe6

00000c2c <l653>:
     c2c:	820f642e 	andhi	r6, pc, #771751936	; 0x2e000000

00000c30 <l654>:
     c30:	e1a05c1e 	lsl	r5, lr, ip

00000c34 <l655>:
     c34:	e3a05004 	mov	r5, #4

00000c38 <l656>:
     c38:	e19dc0f5 	ldrsh	ip, [sp, r5]

00000c3c <l657>:
     c3c:	a1cda0b2 	strhge	sl, [sp, #2]

00000c40 <l658>:
     c40:	b091200f 	addslt	r2, r1, pc

00000c44 <l659>:
     c44:	83937a05 	orrshi	r7, r3, #20480	; 0x5000

00000c48 <l660>:
     c48:	1280132e 	addne	r1, r0, #-1207959552	; 0xb8000000

00000c4c <l661>:
     c4c:	e54d9034 	strb	r9, [sp, #-52]	; 0x34

00000c50 <l662>:
     c50:	606a1758 	rsbvs	r1, sl, r8, asr r7

00000c54 <l663>:
     c54:	e084122e 	add	r1, r4, lr, lsr #4

00000c58 <l664>:
     c58:	e2b46b1e 	adcs	r6, r4, #30720	; 0x7800

00000c5c <l665>:
     c5c:	858d3004 	strhi	r3, [sp, #4]

00000c60 <l666>:
     c60:	311b0278 	tstcc	fp, r8, ror r2

00000c64 <l667>:
     c64:	b17c0063 	cmnlt	ip, r3, rrx

00000c68 <l668>:
     c68:	e93d47df 	ldmdb	sp!, {r0, r1, r2, r3, r4, r6, r7, r8, r9, sl, lr}

00000c6c <l669>:
     c6c:	e82d0110 	stmda	sp!, {r4, r8}

00000c70 <l670>:
     c70:	e3a09030 	mov	r9, #48	; 0x30

00000c74 <l671>:
     c74:	619de0b9 	ldrhvs	lr, [sp, r9]

00000c78 <l672>:
     c78:	40512001 	subsmi	r2, r1, r1

00000c7c <l673>:
     c7c:	23d80037 	bicscs	r0, r8, #55	; 0x37

00000c80 <l674>:
     c80:	10dac961 	sbcsne	ip, sl, r1, ror #18

00000c84 <l675>:
     c84:	2a000008 	bcs	cac <l685>

00000c88 <l676>:
     c88:	e151006a 	cmp	r1, sl, rrx

00000c8c <l677>:
     c8c:	21cb38e4 	biccs	r3, fp, r4, ror #17

00000c90 <l678>:
     c90:	e2ba8eee 	adcs	r8, sl, #3808	; 0xee0

00000c94 <l679>:
     c94:	a078c30a 	rsbsge	ip, r8, sl, lsl #6

00000c98 <l680>:
     c98:	a13b000a 	teqge	fp, sl

00000c9c <l681>:
     c9c:	10c64064 	sbcne	r4, r6, r4, rrx

00000ca0 <l682>:
     ca0:	e1700756 	cmn	r0, r6, asr r7

00000ca4 <l683>:
     ca4:	e049b224 	sub	fp, r9, r4, lsr #4

00000ca8 <l684>:
     ca8:	917c0007 	cmnls	ip, r7

00000cac <l685>:
     cac:	a31a0dba 	tstge	sl, #11904	; 0x2e80

00000cb0 <l686>:
     cb0:	e8bd0001 	ldmfd	sp!, {r0}

00000cb4 <l687>:
     cb4:	e59f6000 	ldr	r6, [pc]	; cbc <l689>

00000cb8 <l688>:
     cb8:	ea000000 	b	cc0 <l690>

00000cbc <l689>:
     cbc:	000fffa8 	.word	0x000fffa8

00000cc0 <l690>:
     cc0:	a106b09a 	swpge	fp, sl, [r6]

00000cc4 <l691>:
     cc4:	935f003b 	cmpls	pc, #59	; 0x3b

00000cc8 <l692>:
     cc8:	e1d1a00a 	bics	sl, r1, sl

00000ccc <l693>:
     ccc:	108a406a 	addne	r4, sl, sl, rrx

00000cd0 <l694>:
     cd0:	d2fb1559 	rscsle	r1, fp, #373293056	; 0x16400000

00000cd4 <l695>:
     cd4:	316f2f19 	clzcc	r2, r9

00000cd8 <l696>:
     cd8:	61f0ad22 	mvnsvs	sl, r2, lsr #26

00000cdc <l697>:
     cdc:	117f0003 	cmnne	pc, r3

00000ce0 <l698>:
     ce0:	e0754de8 	rsbs	r4, r5, r8, ror #27

00000ce4 <l699>:
     ce4:	e3a0e02c 	mov	lr, #44	; 0x2c

00000ce8 <l700>:
     ce8:	319d30de 	ldrsbcc	r3, [sp, lr]

00000cec <l701>:
     cec:	e01a600c 	ands	r6, sl, ip

00000cf0 <l702>:
     cf0:	e59f4000 	ldr	r4, [pc]	; cf8 <l704>

00000cf4 <l703>:
     cf4:	ea000000 	b	cfc <l705>

00000cf8 <l704>:
     cf8:	000fffcc 	.word	0x000fffcc

00000cfc <l705>:
     cfc:	51440096 	swpbpl	r0, r6, [r4]

00000d00 <l706>:
     d00:	e48d9004 	str	r9, [sp], #4

00000d04 <l707>:
     d04:	e0c2463b 	sbc	r4, r2, fp, lsr r6

00000d08 <l708>:
     d08:	e8ad2000 	stmia	sp!, {sp}

00000d0c <l709>:
     d0c:	5a000002 	bpl	d1c <l713>

00000d10 <l710>:
     d10:	e280102f 	add	r1, r0, #47	; 0x2f

00000d14 <l711>:
     d14:	31c80410 	biccc	r0, r8, r0, lsl r4

00000d18 <l712>:
     d18:	ea000000 	b	d20 <l714>

00000d1c <l713>:
     d1c:	eafffffc 	b	d14 <l711>

00000d20 <l714>:
     d20:	e59fc000 	ldr	ip, [pc]	; d28 <l716>

00000d24 <l715>:
     d24:	ea000000 	b	d2c <l717>

00000d28 <l716>:
     d28:	000fffc8 	.word	0x000fffc8

00000d2c <l717>:
     d2c:	114ca099 	swpbne	sl, r9, [ip]

00000d30 <l718>:
     d30:	e3a04003 	mov	r4, #3

00000d34 <l719>:
     d34:	311da0d4 	ldrsbcc	sl, [sp, -r4]

00000d38 <l720>:
     d38:	2a000000 	bcs	d40 <l722>

00000d3c <l721>:
     d3c:	e1f07976 	mvns	r7, r6, ror r9

00000d40 <l722>:
     d40:	91120452 	tstls	r2, r2, asr r4

00000d44 <l723>:
     d44:	e3a05008 	mov	r5, #8

00000d48 <l724>:
     d48:	e7bd9005 	ldr	r9, [sp, r5]!

00000d4c <l725>:
     d4c:	e1f0e000 	mvns	lr, r0

00000d50 <l726>:
     d50:	e40d801c 	str	r8, [sp], #-28

00000d54 <l727>:
     d54:	e0a17006 	adc	r7, r1, r6

00000d58 <l728>:
     d58:	a15b031a 	cmpge	fp, sl, lsl r3

00000d5c <l729>:
     d5c:	e0ebe00a 	rsc	lr, fp, sl

00000d60 <l730>:
     d60:	e1180063 	tst	r8, r3, rrx

00000d64 <l731>:
     d64:	d2705e2b 	rsbsle	r5, r0, #688	; 0x2b0

00000d68 <l732>:
     d68:	e3a0b030 	mov	fp, #48	; 0x30

00000d6c <l733>:
     d6c:	919d60bb 	ldrhls	r6, [sp, fp]

00000d70 <l734>:
     d70:	e8bd1bdf 	pop	{r0, r1, r2, r3, r4, r6, r7, r8, r9, fp, ip}

00000d74 <l735>:
     d74:	e9ad9010 	stmib	sp!, {r4, ip, pc}

00000d78 <l736>:
     d78:	ea000004 	b	d90 <l742>

00000d7c <l737>:
     d7c:	e280108c 	add	r1, r0, #140	; 0x8c

00000d80 <l738>:
     d80:	d1f0e00e 	mvnsle	lr, lr

00000d84 <l739>:
     d84:	0058a069 	subseq	sl, r8, r9, rrx

00000d88 <l740>:
     d88:	e0c36c8a 	sbc	r6, r3, sl, lsl #25

00000d8c <l741>:
     d8c:	ea000000 	b	d94 <l743>

00000d90 <l742>:
     d90:	eafffffa 	b	d80 <l738>

00000d94 <l743>:
     d94:	e3a0301c 	mov	r3, #28

00000d98 <l744>:
     d98:	e71d6003 	ldr	r6, [sp, -r3]

00000d9c <l745>:
     d9c:	e59f5000 	ldr	r5, [pc]	; da4 <l747>

00000da0 <l746>:
     da0:	ea000000 	b	da8 <l748>

00000da4 <l747>:
     da4:	000fffc0 	.word	0x000fffc0

00000da8 <l748>:
     da8:	e1450092 	swpb	r0, r2, [r5]

00000dac <l749>:
     dac:	ea000006 	b	dcc <l757>

00000db0 <l750>:
     db0:	e28010bd 	add	r1, r0, #189	; 0xbd

00000db4 <l751>:
     db4:	31c25e34 	biccc	r5, r2, r4, lsr lr

00000db8 <l752>:
     db8:	e0be6338 	adcs	r6, lr, r8, lsr r3

00000dbc <l753>:
     dbc:	a007070a 	andge	r0, r7, sl, lsl #14

00000dc0 <l754>:
     dc0:	e152070f 	cmp	r2, pc, lsl #14

00000dc4 <l755>:
     dc4:	62914017 	addsvs	r4, r1, #23

00000dc8 <l756>:
     dc8:	ea000000 	b	dd0 <l758>

00000dcc <l757>:
     dcc:	eafffff8 	b	db4 <l751>

00000dd0 <l758>:
     dd0:	e048aa59 	sub	sl, r8, r9, asr sl

00000dd4 <l759>:
     dd4:	e13b0731 	teq	fp, r1, lsr r7

00000dd8 <l760>:
     dd8:	e2e7a91d 	rsc	sl, r7, #475136	; 0x74000

00000ddc <l761>:
     ddc:	c15dc2be 	ldrhgt	ip, [sp, #-46]	; 0xffffffd2

00000de0 <l762>:
     de0:	e0d20b2a 	sbcs	r0, r2, sl, lsr #22

00000de4 <l763>:
     de4:	e0b92505 	adcs	r2, r9, r5, lsl #10

00000de8 <l764>:
     de8:	e59f9000 	ldr	r9, [pc]	; df0 <l766>

00000dec <l765>:
     dec:	ea000000 	b	df4 <l767>

00000df0 <l766>:
     df0:	000fffa0 	.word	0x000fffa0

00000df4 <l767>:
     df4:	e149c09c 	swpb	ip, ip, [r9]

00000df8 <l768>:
     df8:	b0947c15 	addslt	r7, r4, r5, lsl ip

00000dfc <l769>:
     dfc:	716f1f10 	clzvc	r1, r0

00000e00 <l770>:
     e00:	e59f6000 	ldr	r6, [pc]	; e08 <l772>

00000e04 <l771>:
     e04:	ea000000 	b	e0c <l773>

00000e08 <l772>:
     e08:	000fffd4 	.word	0x000fffd4

00000e0c <l773>:
     e0c:	e1469091 	swpb	r9, r1, [r6]

00000e10 <l774>:
     e10:	e1160000 	tst	r6, r0

00000e14 <l775>:
     e14:	e82dcefd 	stmda	sp!, {r0, r2, r3, r4, r5, r6, r7, r9, sl, fp, lr, pc}

00000e18 <l776>:
     e18:	e3dea419 	bics	sl, lr, #419430400	; 0x19000000

00000e1c <l777>:
     e1c:	e3a0a000 	mov	sl, #0

00000e20 <l778>:
     e20:	679d600a 	ldrvs	r6, [sp, sl]

00000e24 <l779>:
     e24:	e11a0e88 	tst	sl, r8, lsl #29

00000e28 <l780>:
     e28:	e1a00000 	nop			; (mov r0, r0)

00000e2c <l781>:
     e2c:	e3a04006 	mov	r4, #6

00000e30 <l782>:
     e30:	b11db0f4 	ldrshlt	fp, [sp, -r4]

00000e34 <l783>:
     e34:	ca000004 	bgt	e4c <l789>

00000e38 <l784>:
     e38:	e16fcf1e 	clz	ip, lr

00000e3c <l785>:
     e3c:	e039a004 	eors	sl, r9, r4

00000e40 <l786>:
     e40:	413506a1 	teqmi	r5, r1, lsr #13

00000e44 <l787>:
     e44:	e1160004 	tst	r6, r4

00000e48 <l788>:
     e48:	d15c0009 	cmple	ip, r9

00000e4c <l789>:
     e4c:	b3b0e5a3 	movslt	lr, #683671552	; 0x28c00000

00000e50 <l790>:
     e50:	c15e0004 	cmpgt	lr, r4

00000e54 <l791>:
     e54:	ea000007 	b	e78 <l800>

00000e58 <l792>:
     e58:	e2801060 	add	r1, r0, #96	; 0x60

00000e5c <l793>:
     e5c:	e061400b 	rsb	r4, r1, fp

00000e60 <l794>:
     e60:	d2ac5c7e 	adcle	r5, ip, #32256	; 0x7e00

00000e64 <l795>:
     e64:	333f0725 	teqcc	pc, #9699328	; 0x940000

00000e68 <l796>:
     e68:	e2558731 	subs	r8, r5, #12845056	; 0xc40000

00000e6c <l797>:
     e6c:	30c7600f 	sbccc	r6, r7, pc

00000e70 <l798>:
     e70:	2015106c 	andscs	r1, r5, ip, rrx

00000e74 <l799>:
     e74:	ea000000 	b	e7c <l801>

00000e78 <l800>:
     e78:	eafffff7 	b	e5c <l793>

00000e7c <l801>:
     e7c:	e5ad1024 	str	r1, [sp, #36]!	; 0x24

00000e80 <l802>:
     e80:	ea000002 	b	e90 <l806>

00000e84 <l803>:
     e84:	e280101e 	add	r1, r0, #30

00000e88 <l804>:
     e88:	e0c08212 	sbc	r8, r0, r2, lsl r2

00000e8c <l805>:
     e8c:	ea000000 	b	e94 <l807>

00000e90 <l806>:
     e90:	eafffffc 	b	e88 <l804>

00000e94 <l807>:
     e94:	b046200b 	sublt	r2, r6, fp

00000e98 <l808>:
     e98:	e9ad0018 	stmib	sp!, {r3, r4}

00000e9c <l809>:
     e9c:	d071b00e 	rsbsle	fp, r1, lr

00000ea0 <l810>:
     ea0:	e0fe7935 	rscs	r7, lr, r5, lsr r9

00000ea4 <l811>:
     ea4:	e0e9b77e 	rsc	fp, r9, lr, ror r7

00000ea8 <l812>:
     ea8:	e53d0028 	ldr	r0, [sp, #-40]!	; 0x28

00000eac <l813>:
     eac:	e2bb2813 	adcs	r2, fp, #1245184	; 0x130000

00000eb0 <l814>:
     eb0:	e0b1800b 	adcs	r8, r1, fp

00000eb4 <l815>:
     eb4:	e59f4000 	ldr	r4, [pc]	; ebc <l817>

00000eb8 <l816>:
     eb8:	ea000000 	b	ec0 <l818>

00000ebc <l817>:
     ebc:	000fffcc 	.word	0x000fffcc

00000ec0 <l818>:
     ec0:	c144c09e 	swpbgt	ip, lr, [r4]

00000ec4 <l819>:
     ec4:	322b5613 	eorcc	r5, fp, #19922944	; 0x1300000

00000ec8 <l820>:
     ec8:	11a0141e 	lslne	r1, lr, r4

00000ecc <l821>:
     ecc:	e58d3028 	str	r3, [sp, #40]	; 0x28

00000ed0 <l822>:
     ed0:	d0905011 	addsle	r5, r0, r1, lsl r0

00000ed4 <l823>:
     ed4:	e59f1000 	ldr	r1, [pc]	; edc <l825>

00000ed8 <l824>:
     ed8:	ea000000 	b	ee0 <l826>

00000edc <l825>:
     edc:	000fffd0 	.word	0x000fffd0

00000ee0 <l826>:
     ee0:	e1013092 	swp	r3, r2, [r1]

00000ee4 <l827>:
     ee4:	e3a07020 	mov	r7, #32

00000ee8 <l828>:
     ee8:	518d30b7 	strhpl	r3, [sp, r7]

00000eec <l829>:
     eec:	933e0327 	teqls	lr, #-1677721600	; 0x9c000000

00000ef0 <l830>:
     ef0:	e0d9a00b 	sbcs	sl, r9, fp

00000ef4 <l831>:
     ef4:	e3a0a007 	mov	sl, #7

00000ef8 <l832>:
     ef8:	e75d100a 	ldrb	r1, [sp, -sl]

00000efc <l833>:
     efc:	e59f9000 	ldr	r9, [pc]	; f04 <l835>

00000f00 <l834>:
     f00:	ea000000 	b	f08 <l836>

00000f04 <l835>:
     f04:	000fffdc 	.word	0x000fffdc

00000f08 <l836>:
     f08:	6109b09e 	swpvs	fp, lr, [r9]

00000f0c <l837>:
     f0c:	e5bd7020 	ldr	r7, [sp, #32]!

00000f10 <l838>:
     f10:	e59fa000 	ldr	sl, [pc]	; f18 <l840>

00000f14 <l839>:
     f14:	ea000000 	b	f1c <l841>

00000f18 <l840>:
     f18:	000fffe4 	.word	0x000fffe4

00000f1c <l841>:
     f1c:	014a8091 	swpbeq	r8, r1, [sl]

00000f20 <l842>:
     f20:	e8ad0024 	stmia	sp!, {r2, r5}

00000f24 <l843>:
     f24:	80c00e52 	sbchi	r0, r0, r2, asr lr

00000f28 <l844>:
     f28:	b1851009 	orrlt	r1, r5, r9

00000f2c <l845>:
     f2c:	e33602fa 	teq	r6, #-1610612721	; 0xa000000f

00000f30 <l846>:
     f30:	00c89003 	sbceq	r9, r8, r3

00000f34 <l847>:
     f34:	e55d5004 	ldrb	r5, [sp, #-4]

00000f38 <l848>:
     f38:	e1b09062 	rrxs	r9, r2

00000f3c <l849>:
     f3c:	e2061fb7 	and	r1, r6, #732	; 0x2dc

00000f40 <l850>:
     f40:	e04f9062 	sub	r9, pc, r2, rrx

00000f44 <l851>:
     f44:	e1de9b07 	bics	r9, lr, r7, lsl #22

00000f48 <l852>:
     f48:	411e03ae 	tstmi	lr, lr, lsr #7

00000f4c <l853>:
     f4c:	e1b0e763 	rors	lr, r3, #14

00000f50 <l854>:
     f50:	e005c003 	and	ip, r5, r3

00000f54 <l855>:
     f54:	708aac19 	addvc	sl, sl, r9, lsl ip

00000f58 <l856>:
     f58:	715de0fe 	ldrshvc	lr, [sp, #-14]

00000f5c <l857>:
     f5c:	e59f5000 	ldr	r5, [pc]	; f64 <l859>

00000f60 <l858>:
     f60:	ea000000 	b	f68 <l860>

00000f64 <l859>:
     f64:	000fffcc 	.word	0x000fffcc

00000f68 <l860>:
     f68:	61454091 	swpbvs	r4, r1, [r5]

00000f6c <l861>:
     f6c:	454d3014 	strbmi	r3, [sp, #-20]

00000f70 <l862>:
     f70:	715dc0b2 	ldrhvc	ip, [sp, #-2]

00000f74 <l863>:
     f74:	e3a01006 	mov	r1, #6

00000f78 <l864>:
     f78:	d10d90b1 	strhle	r9, [sp, -r1]

00000f7c <l865>:
     f7c:	e33209b3 	teq	r2, #2932736	; 0x2cc000

00000f80 <l866>:
     f80:	61d36065 	bicsvs	r6, r3, r5, rrx

00000f84 <l867>:
     f84:	e59f6000 	ldr	r6, [pc]	; f8c <l869>

00000f88 <l868>:
     f88:	ea000000 	b	f90 <l870>

00000f8c <l869>:
     f8c:	000fffcc 	.word	0x000fffcc

00000f90 <l870>:
     f90:	51067090 	swppl	r7, r0, [r6]

00000f94 <l871>:
     f94:	037607d5 	cmneq	r6, #55836672	; 0x3540000

00000f98 <l872>:
     f98:	a1520fee 	cmpge	r2, lr, ror #31

00000f9c <l873>:
     f9c:	90e77c73 	rscls	r7, r7, r3, ror ip

00000fa0 <l874>:
     fa0:	e3a0a00b 	mov	sl, #11

00000fa4 <l875>:
     fa4:	d74d200a 	strble	r2, [sp, -sl]

00000fa8 <l876>:
     fa8:	71550008 	cmpvc	r5, r8

00000fac <l877>:
     fac:	ea000004 	b	fc4 <l883>

00000fb0 <l878>:
     fb0:	e1f0c2c8 	mvns	ip, r8, asr #5

00000fb4 <l879>:
     fb4:	60905e3c 	addsvs	r5, r0, ip, lsr lr

00000fb8 <l880>:
     fb8:	516f9f1a 	clzpl	r9, sl

00000fbc <l881>:
     fbc:	e0b49083 	adcs	r9, r4, r3, lsl #1

00000fc0 <l882>:
     fc0:	516f7f16 	clzpl	r7, r6

00000fc4 <l883>:
     fc4:	e064a06a 	rsb	sl, r4, sl, rrx

00000fc8 <l884>:
     fc8:	6198606e 	orrsvs	r6, r8, lr, rrx

00000fcc <l885>:
     fcc:	e49d900c 	ldr	r9, [sp], #12

00000fd0 <l886>:
     fd0:	a08a606c 	addge	r6, sl, ip, rrx

00000fd4 <l887>:
     fd4:	155d2036 	ldrbne	r2, [sp, #-54]	; 0x36

00000fd8 <l888>:
     fd8:	e92de000 	push	{sp, lr, pc}

00000fdc <l889>:
     fdc:	e17e0b82 	cmn	lr, r2, lsl #23

00000fe0 <l890>:
     fe0:	ea000002 	b	ff0 <l894>

00000fe4 <l891>:
     fe4:	e1370838 	teq	r7, r8, lsr r8

00000fe8 <l892>:
     fe8:	e1f00004 	mvns	r0, r4

00000fec <l893>:
     fec:	e0d04003 	sbcs	r4, r0, r3

00000ff0 <l894>:
     ff0:	c16f4f17 	clzgt	r4, r7

00000ff4 <l895>:
     ff4:	e82d1943 	stmda	sp!, {r0, r1, r6, r8, fp, ip}

00000ff8 <l896>:
     ff8:	e013c55a 	ands	ip, r3, sl, asr r5

00000ffc <l897>:
     ffc:	10cce007 	sbcne	lr, ip, r7

00001000 <l898>:
    1000:	e05aeb07 	subs	lr, sl, r7, lsl #22

00001004 <l899>:
    1004:	e1ddb2d4 	ldrsb	fp, [sp, #36]	; 0x24

00001008 <l900>:
    1008:	e59f2000 	ldr	r2, [pc]	; 1010 <l902>

0000100c <l901>:
    100c:	ea000000 	b	1014 <l903>

00001010 <l902>:
    1010:	000fffb8 	.word	0x000fffb8

00001014 <l903>:
    1014:	e1023099 	swp	r3, r9, [r2]

00001018 <l904>:
    1018:	e18c4b58 	orr	r4, ip, r8, asr fp

0000101c <l905>:
    101c:	e3a0600c 	mov	r6, #12

00001020 <l906>:
    1020:	c19d90b6 	ldrhgt	r9, [sp, r6]

00001024 <l907>:
    1024:	d58d0008 	strle	r0, [sp, #8]

00001028 <l908>:
    1028:	80158b2c 	andshi	r8, r5, ip, lsr #22

0000102c <l909>:
    102c:	e09a300c 	adds	r3, sl, ip

00001030 <l910>:
    1030:	e04e6002 	sub	r6, lr, r2

00001034 <l911>:
    1034:	4072100c 	rsbsmi	r1, r2, ip

00001038 <l912>:
    1038:	e058ee55 	subs	lr, r8, r5, asr lr

0000103c <l913>:
    103c:	a29fe51b 	addsge	lr, pc, #113246208	; 0x6c00000

00001040 <l914>:
    1040:	e3a0801c 	mov	r8, #28

00001044 <l915>:
    1044:	d79dc008 	ldrle	ip, [sp, r8]

00001048 <l916>:
    1048:	d1e0406a 	mvnle	r4, sl, rrx

0000104c <l917>:
    104c:	7132055c 	teqvc	r2, ip, asr r5

00001050 <l918>:
    1050:	ea000006 	b	1070 <l926>

00001054 <l919>:
    1054:	e16f4f15 	clz	r4, r5

00001058 <l920>:
    1058:	e0405066 	sub	r5, r0, r6, rrx

0000105c <l921>:
    105c:	60e7e246 	rscvs	lr, r7, r6, asr #4

00001060 <l922>:
    1060:	d16f2f16 	clzle	r2, r6

00001064 <l923>:
    1064:	90c9c43e 	sbcls	ip, r9, lr, lsr r4

00001068 <l924>:
    1068:	e15a0582 	cmp	sl, r2, lsl #11

0000106c <l925>:
    106c:	e0c8600c 	sbc	r6, r8, ip

00001070 <l926>:
    1070:	30f8c860 	rscscc	ip, r8, r0, ror #16

00001074 <l927>:
    1074:	9054b00b 	subsls	fp, r4, fp

00001078 <l928>:
    1078:	e3a03010 	mov	r3, #16

0000107c <l929>:
    107c:	775de003 	ldrbvc	lr, [sp, -r3]

00001080 <l930>:
    1080:	e3350c3e 	teq	r5, #15872	; 0x3e00

00001084 <l931>:
    1084:	81cdc2b8 	strhhi	ip, [sp, #40]	; 0x28

00001088 <l932>:
    1088:	e54d800d 	strb	r8, [sp, #-13]

0000108c <l933>:
    108c:	e2439577 	sub	r9, r3, #499122176	; 0x1dc00000

00001090 <l934>:
    1090:	e3a0b018 	mov	fp, #24

00001094 <l935>:
    1094:	e61d300b 	ldr	r3, [sp], -fp

00001098 <l936>:
    1098:	e3a00034 	mov	r0, #52	; 0x34

0000109c <l937>:
    109c:	a7dd2000 	ldrbge	r2, [sp, r0]

000010a0 <l938>:
    10a0:	e1170474 	tst	r7, r4, ror r4

000010a4 <l939>:
    10a4:	e59f3000 	ldr	r3, [pc]	; 10ac <l941>

000010a8 <l940>:
    10a8:	ea000000 	b	10b0 <l942>

000010ac <l941>:
    10ac:	000fffd4 	.word	0x000fffd4

000010b0 <l942>:
    10b0:	b1436094 	swpblt	r6, r4, [r3]

000010b4 <l943>:
    10b4:	00a0400c 	adceq	r4, r0, ip

000010b8 <l944>:
    10b8:	31cd81bc 	strhcc	r8, [sp, #28]

000010bc <l945>:
    10bc:	4021c00f 	eormi	ip, r1, pc

000010c0 <l946>:
    10c0:	d98d7eff 	stmible	sp, {r0, r1, r2, r3, r4, r5, r6, r7, r9, sl, fp, ip, sp, lr}

000010c4 <l947>:
    10c4:	51500757 	cmppl	r0, r7, asr r7

000010c8 <l948>:
    10c8:	e3a0700e 	mov	r7, #14

000010cc <l949>:
    10cc:	319d50f7 	ldrshcc	r5, [sp, r7]

000010d0 <l950>:
    10d0:	01dde0b4 	ldrheq	lr, [sp, #4]

000010d4 <l951>:
    10d4:	e1a00000 	nop			; (mov r0, r0)

000010d8 <l952>:
    10d8:	e3a03021 	mov	r3, #33	; 0x21

000010dc <l953>:
    10dc:	e7dd0003 	ldrb	r0, [sp, r3]

000010e0 <l954>:
    10e0:	60be4e80 	adcsvs	r4, lr, r0, lsl #29

000010e4 <l955>:
    10e4:	e0537936 	subs	r7, r3, r6, lsr r9

000010e8 <l956>:
    10e8:	a0b40a6e 	adcsge	r0, r4, lr, ror #20

000010ec <l957>:
    10ec:	7247a673 	subvc	sl, r7, #120586240	; 0x7300000

000010f0 <l958>:
    10f0:	e3a0300c 	mov	r3, #12

000010f4 <l959>:
    10f4:	77cd1003 	strbvc	r1, [sp, r3]

000010f8 <l960>:
    10f8:	c0480006 	subgt	r0, r8, r6

000010fc <l961>:
    10fc:	e069600e 	rsb	r6, r9, lr

00001100 <l962>:
    1100:	e0582006 	subs	r2, r8, r6

00001104 <l963>:
    1104:	e9ad5020 	stmib	sp!, {r5, ip, lr}

00001108 <l964>:
    1108:	ea000005 	b	1124 <l971>

0000110c <l965>:
    110c:	e2801079 	add	r1, r0, #121	; 0x79

00001110 <l966>:
    1110:	70705d0f 	rsbsvc	r5, r0, pc, lsl #26

00001114 <l967>:
    1114:	e1f09006 	mvns	r9, r6

00001118 <l968>:
    1118:	516f8f11 	clzpl	r8, r1

0000111c <l969>:
    111c:	e2110d22 	ands	r0, r1, #2176	; 0x880

00001120 <l970>:
    1120:	ea000000 	b	1128 <l972>

00001124 <l971>:
    1124:	eafffff9 	b	1110 <l966>

00001128 <l972>:
    1128:	a0105033 	andsge	r5, r0, r3, lsr r0

0000112c <l973>:
    112c:	20418708 	subcs	r8, r1, r8, lsl #14

00001130 <l974>:
    1130:	e91d0804 	ldmdb	sp, {r2, fp}

00001134 <l975>:
    1134:	e1580e03 	cmp	r8, r3, lsl #28

00001138 <l976>:
    1138:	e1b0a951 	asrs	sl, r1, r9

0000113c <l977>:
    113c:	e2abc402 	adc	ip, fp, #33554432	; 0x2000000

00001140 <l978>:
    1140:	e3a0302a 	mov	r3, #42	; 0x2a

00001144 <l979>:
    1144:	619de0b3 	ldrhvs	lr, [sp, r3]

00001148 <l980>:
    1148:	815e0988 	cmphi	lr, r8, lsl #19

0000114c <l981>:
    114c:	e3a05014 	mov	r5, #20

00001150 <l982>:
    1150:	e68db005 	str	fp, [sp], r5

00001154 <l983>:
    1154:	e3a0c00d 	mov	ip, #13

00001158 <l984>:
    1158:	e75dc00c 	ldrb	ip, [sp, -ip]

0000115c <l985>:
    115c:	21f0b072 	mvnscs	fp, r2, ror r0

00001160 <l986>:
    1160:	e41db01c 	ldr	fp, [sp], #-28

00001164 <l987>:
    1164:	e59f2000 	ldr	r2, [pc]	; 116c <l989>

00001168 <l988>:
    1168:	ea000000 	b	1170 <l990>

0000116c <l989>:
    116c:	000fffb0 	.word	0x000fffb0

00001170 <l990>:
    1170:	e142a096 	swpb	sl, r6, [r2]

00001174 <l991>:
    1174:	d28e33a9 	addle	r3, lr, #-1543503870	; 0xa4000002

00001178 <l992>:
    1178:	e3a09007 	mov	r9, #7

0000117c <l993>:
    117c:	d7dda009 	ldrble	sl, [sp, r9]

00001180 <l994>:
    1180:	e1a00000 	nop			; (mov r0, r0)

00001184 <l995>:
    1184:	e3a0700a 	mov	r7, #10

00001188 <l996>:
    1188:	e19d90d7 	ldrsb	r9, [sp, r7]

0000118c <l997>:
    118c:	03790000 	cmneq	r9, #0

00001190 <l998>:
    1190:	e59f5000 	ldr	r5, [pc]	; 1198 <l1000>

00001194 <l999>:
    1194:	ea000000 	b	119c <l1001>

00001198 <l1000>:
    1198:	000fffd8 	.word	0x000fffd8

0000119c <l1001>:
    119c:	0105b090 	swpeq	fp, r0, [r5]

000011a0 <l1002>:
    11a0:	ca000003 	bgt	11b4 <l1007>

000011a4 <l1003>:
    11a4:	e1e02843 	mvn	r2, r3, asr #16

000011a8 <l1004>:
    11a8:	e2c99cbb 	sbc	r9, r9, #47872	; 0xbb00

000011ac <l1005>:
    11ac:	01530253 	cmpeq	r3, r3, asr r2

000011b0 <l1006>:
    11b0:	a1e0100f 	mvnge	r1, pc

000011b4 <l1007>:
    11b4:	e0ba7a19 	adcs	r7, sl, r9, lsl sl

000011b8 <l1008>:
    11b8:	e59f3000 	ldr	r3, [pc]	; 11c0 <l1010>

000011bc <l1009>:
    11bc:	ea000000 	b	11c4 <l1011>

000011c0 <l1010>:
    11c0:	000fffc0 	.word	0x000fffc0

000011c4 <l1011>:
    11c4:	e1031099 	swp	r1, r9, [r3]

000011c8 <l1012>:
    11c8:	c0b5b008 	adcsgt	fp, r5, r8

000011cc <l1013>:
    11cc:	ea000006 	b	11ec <l1021>

000011d0 <l1014>:
    11d0:	23f0bd55 	mvnscs	fp, #5440	; 0x1540

000011d4 <l1015>:
    11d4:	e0de6060 	sbcs	r6, lr, r0, rrx

000011d8 <l1016>:
    11d8:	40f21a5b 	rscsmi	r1, r2, fp, asr sl

000011dc <l1017>:
    11dc:	517f0065 	cmnpl	pc, r5, rrx

000011e0 <l1018>:
    11e0:	12273939 	eorne	r3, r7, #933888	; 0xe4000

000011e4 <l1019>:
    11e4:	b1d8c400 	bicslt	ip, r8, r0, lsl #8

000011e8 <l1020>:
    11e8:	50ec4004 	rscpl	r4, ip, r4

000011ec <l1021>:
    11ec:	e1e0c51c 	mvn	ip, ip, lsl r5

000011f0 <l1022>:
    11f0:	e15d70d5 	ldrsb	r7, [sp, #-5]

000011f4 <l1023>:
    11f4:	b179000a 	cmnlt	r9, sl

000011f8 <l1024>:
    11f8:	03d3c403 	bicseq	ip, r3, #50331648	; 0x3000000

000011fc <l1025>:
    11fc:	e1a00000 	nop			; (mov r0, r0)

00001200 <l1026>:
    1200:	52e3230e 	rscpl	r2, r3, #939524096	; 0x38000000

00001204 <l1027>:
    1204:	b1590c09 	cmplt	r9, r9, lsl #24

00001208 <l1028>:
    1208:	117f0000 	cmnne	pc, r0

0000120c <l1029>:
    120c:	e0de7514 	sbcs	r7, lr, r4, lsl r5

00001210 <l1030>:
    1210:	e3a09010 	mov	r9, #16

00001214 <l1031>:
    1214:	e68d6009 	str	r6, [sp], r9

00001218 <l1032>:
    1218:	e0e92a2e 	rsc	r2, r9, lr, lsr #20

0000121c <l1033>:
    121c:	e3a06004 	mov	r6, #4

00001220 <l1034>:
    1220:	e73d8006 	ldr	r8, [sp, -r6]!

00001224 <l1035>:
    1224:	e31609ca 	tst	r6, #3309568	; 0x328000

00001228 <l1036>:
    1228:	e3a01006 	mov	r1, #6

0000122c <l1037>:
    122c:	e10d50b1 	strh	r5, [sp, -r1]

00001230 <l1038>:
    1230:	32b04329 	adcscc	r4, r0, #-1543503872	; 0xa4000000

00001234 <l1039>:
    1234:	c0fa450b 	rscsgt	r4, sl, fp, lsl #10

00001238 <l1040>:
    1238:	e03ece2b 	eors	ip, lr, fp, lsr #28

0000123c <l1041>:
    123c:	42f410f3 	rscsmi	r1, r4, #243	; 0xf3

00001240 <l1042>:
    1240:	e3a0c026 	mov	ip, #38	; 0x26

00001244 <l1043>:
    1244:	e19d80bc 	ldrh	r8, [sp, ip]

00001248 <l1044>:
    1248:	e3a0c005 	mov	ip, #5

0000124c <l1045>:
    124c:	e74d700c 	strb	r7, [sp, -ip]

00001250 <l1046>:
    1250:	10776e4e 	rsbsne	r6, r7, lr, asr #28

00001254 <l1047>:
    1254:	d3720c6a 	cmnle	r2, #27136	; 0x6a00

00001258 <l1048>:
    1258:	825913a7 	subshi	r1, r9, #-1677721598	; 0x9c000002

0000125c <l1049>:
    125c:	e59f8000 	ldr	r8, [pc]	; 1264 <l1051>

00001260 <l1050>:
    1260:	ea000000 	b	1268 <l1052>

00001264 <l1051>:
    1264:	000fffe8 	.word	0x000fffe8

00001268 <l1052>:
    1268:	7108e09b 	swpvc	lr, fp, [r8]

0000126c <l1053>:
    126c:	e3a0000e 	mov	r0, #14

00001270 <l1054>:
    1270:	e19d10f0 	ldrsh	r1, [sp, r0]

00001274 <l1055>:
    1274:	e2e0e421 	rsc	lr, r0, #553648128	; 0x21000000

00001278 <l1056>:
    1278:	e3a01018 	mov	r1, #24

0000127c <l1057>:
    127c:	610da0b1 	strhvs	sl, [sp, -r1]

00001280 <l1058>:
    1280:	2002a00f 	andcs	sl, r2, pc

00001284 <l1059>:
    1284:	a0d21178 	sbcsge	r1, r2, r8, ror r1

00001288 <l1060>:
    1288:	80ce697c 	sbchi	r6, lr, ip, ror r9

0000128c <l1061>:
    128c:	9050b342 	subsls	fp, r0, r2, asr #6

00001290 <l1062>:
    1290:	e3a0a00c 	mov	sl, #12

00001294 <l1063>:
    1294:	e71d400a 	ldr	r4, [sp, -sl]

00001298 <l1064>:
    1298:	e8ade000 	stmia	sp!, {sp, lr, pc}

0000129c <l1065>:
    129c:	e59f9000 	ldr	r9, [pc]	; 12a4 <l1067>

000012a0 <l1066>:
    12a0:	ea000000 	b	12a8 <l1068>

000012a4 <l1067>:
    12a4:	000fffd0 	.word	0x000fffd0

000012a8 <l1068>:
    12a8:	3149509b 	swpbcc	r5, fp, [r9]

000012ac <l1069>:
    12ac:	858db020 	strhi	fp, [sp, #32]

000012b0 <l1070>:
    12b0:	c14de0b8 	strhgt	lr, [sp, #-8]

000012b4 <l1071>:
    12b4:	e59f0000 	ldr	r0, [pc]	; 12bc <l1073>

000012b8 <l1072>:
    12b8:	ea000000 	b	12c0 <l1074>

000012bc <l1073>:
    12bc:	000fffb0 	.word	0x000fffb0

000012c0 <l1074>:
    12c0:	e100b097 	swp	fp, r7, [r0]

000012c4 <l1075>:
    12c4:	e52d6024 	str	r6, [sp, #-36]!	; 0x24

000012c8 <l1076>:
    12c8:	61510fa6 	cmpvs	r1, r6, lsr #31

000012cc <l1077>:
    12cc:	7a000000 	bvc	12d4 <l1079>

000012d0 <l1078>:
    12d0:	e0270063 	eor	r0, r7, r3, rrx

000012d4 <l1079>:
    12d4:	e1380060 	teq	r8, r0, rrx

000012d8 <l1080>:
    12d8:	e5ade044 	str	lr, [sp, #68]!	; 0x44

000012dc <l1081>:
    12dc:	e2be9e46 	adcs	r9, lr, #1120	; 0x460

000012e0 <l1082>:
    12e0:	e1150066 	tst	r5, r6, rrx

000012e4 <l1083>:
    12e4:	50507068 	subspl	r7, r0, r8, rrx

000012e8 <l1084>:
    12e8:	e59fa000 	ldr	sl, [pc]	; 12f0 <l1086>

000012ec <l1085>:
    12ec:	ea000000 	b	12f4 <l1087>

000012f0 <l1086>:
    12f0:	000fffd0 	.word	0x000fffd0

000012f4 <l1087>:
    12f4:	914ac090 	swpbls	ip, r0, [sl]

000012f8 <l1088>:
    12f8:	e1a00000 	nop			; (mov r0, r0)

000012fc <l1089>:
    12fc:	e086200b 	add	r2, r6, fp

00001300 <l1090>:
    1300:	a37705e2 	cmnge	r7, #947912704	; 0x38800000

00001304 <l1091>:
    1304:	5067500a 	rsbpl	r5, r7, sl

00001308 <l1092>:
    1308:	ea000006 	b	1328 <l1100>

0000130c <l1093>:
    130c:	e28010fd 	add	r1, r0, #253	; 0xfd

00001310 <l1094>:
    1310:	d2b0a018 	adcsle	sl, r0, #24

00001314 <l1095>:
    1314:	c11f0064 	tstgt	pc, r4, rrx

00001318 <l1096>:
    1318:	11390782 	teqne	r9, r2, lsl #15

0000131c <l1097>:
    131c:	e0028a7e 	and	r8, r2, lr, ror sl

00001320 <l1098>:
    1320:	e16f3f14 	clz	r3, r4

00001324 <l1099>:
    1324:	ea000000 	b	132c <l1101>

00001328 <l1100>:
    1328:	eafffff8 	b	1310 <l1094>

0000132c <l1101>:
    132c:	80e4c260 	rschi	ip, r4, r0, ror #4

00001330 <l1102>:
    1330:	705a23ab 	subsvc	r2, sl, fp, lsr #7

00001334 <l1103>:
    1334:	e82d6000 	stmda	sp!, {sp, lr}

00001338 <l1104>:
    1338:	e59f2000 	ldr	r2, [pc]	; 1340 <l1106>

0000133c <l1105>:
    133c:	ea000000 	b	1344 <l1107>

00001340 <l1106>:
    1340:	000fffa0 	.word	0x000fffa0

00001344 <l1107>:
    1344:	e102b094 	swp	fp, r4, [r2]

00001348 <l1108>:
    1348:	e41db004 	ldr	fp, [sp], #-4

0000134c <l1109>:
    134c:	c2ef991e 	rscgt	r9, pc, #491520	; 0x78000

00001350 <l1110>:
    1350:	e3a0a028 	mov	sl, #40	; 0x28

00001354 <l1111>:
    1354:	e11d50fa 	ldrsh	r5, [sp, -sl]

00001358 <l1112>:
    1358:	e59f7000 	ldr	r7, [pc]	; 1360 <l1114>

0000135c <l1113>:
    135c:	ea000000 	b	1364 <l1115>

00001360 <l1114>:
    1360:	000fffdc 	.word	0x000fffdc

00001364 <l1115>:
    1364:	0147a093 	swpbeq	sl, r3, [r7]

00001368 <l1116>:
    1368:	e3a0b00c 	mov	fp, #12

0000136c <l1117>:
    136c:	d71da00b 	ldrle	sl, [sp, -fp]

00001370 <l1118>:
    1370:	e0a4574a 	adc	r5, r4, sl, asr #14

00001374 <l1119>:
    1374:	e15d32df 	ldrsb	r3, [sp, #-47]	; 0xffffffd1

00001378 <l1120>:
    1378:	e1320940 	teq	r2, r0, asr #18

0000137c <l1121>:
    137c:	e3a09029 	mov	r9, #41	; 0x29

00001380 <l1122>:
    1380:	511d80d9 	ldrsbpl	r8, [sp, -r9]

00001384 <l1123>:
    1384:	01a09011 	lsleq	r9, r1, r0

00001388 <l1124>:
    1388:	aa000000 	bge	1390 <l1126>

0000138c <l1125>:
    138c:	e16f9f1e 	clz	r9, lr

00001390 <l1126>:
    1390:	e01fb008 	ands	fp, pc, r8

00001394 <l1127>:
    1394:	e5cdc004 	strb	ip, [sp, #4]

00001398 <l1128>:
    1398:	a1310110 	teqge	r1, r0, lsl r1

0000139c <l1129>:
    139c:	da000008 	ble	13c4 <l1139>

000013a0 <l1130>:
    13a0:	e0570002 	subs	r0, r7, r2

000013a4 <l1131>:
    13a4:	b33e0c59 	teqlt	lr, #22784	; 0x5900

000013a8 <l1132>:
    13a8:	609c3656 	addsvs	r3, ip, r6, asr r6

000013ac <l1133>:
    13ac:	e0333008 	eors	r3, r3, r8

000013b0 <l1134>:
    13b0:	e3a0a295 	mov	sl, #1342177289	; 0x50000009

000013b4 <l1135>:
    13b4:	b056b576 	subslt	fp, r6, r6, ror r5

000013b8 <l1136>:
    13b8:	d0522008 	subsle	r2, r2, r8

000013bc <l1137>:
    13bc:	c27fa2f3 	rsbsgt	sl, pc, #805306383	; 0x3000000f

000013c0 <l1138>:
    13c0:	e31807f2 	tst	r8, #63438848	; 0x3c80000

000013c4 <l1139>:
    13c4:	43170fdf 	tstmi	r7, #892	; 0x37c

000013c8 <l1140>:
    13c8:	515e0004 	cmppl	lr, r4

000013cc <l1141>:
    13cc:	e0ef5007 	rsc	r5, pc, r7

000013d0 <l1142>:
    13d0:	a37a049e 	cmnge	sl, #-1644167168	; 0x9e000000

000013d4 <l1143>:
    13d4:	00630061 	rsbeq	r0, r3, r1, rrx

000013d8 <l1144>:
    13d8:	e93d4141 	ldmdb	sp!, {r0, r6, r8, lr}

000013dc <l1145>:
    13dc:	e3a0a014 	mov	sl, #20

000013e0 <l1146>:
    13e0:	411d80da 	ldrsbmi	r8, [sp, -sl]

000013e4 <l1147>:
    13e4:	e59f6000 	ldr	r6, [pc]	; 13ec <l1149>

000013e8 <l1148>:
    13e8:	ea000000 	b	13f0 <l1150>

000013ec <l1149>:
    13ec:	000fffbc 	.word	0x000fffbc

000013f0 <l1150>:
    13f0:	e106b094 	swp	fp, r4, [r6]

000013f4 <l1151>:
    13f4:	e3a01006 	mov	r1, #6

000013f8 <l1152>:
    13f8:	374de001 	strbcc	lr, [sp, -r1]

000013fc <l1153>:
    13fc:	654d1006 	strbvs	r1, [sp, #-6]

00001400 <l1154>:
    1400:	e3a0600b 	mov	r6, #11

00001404 <l1155>:
    1404:	c19d90d6 	ldrsbgt	r9, [sp, r6]

00001408 <l1156>:
    1408:	216f1f17 	clzcs	r1, r7

0000140c <l1157>:
    140c:	e59fc000 	ldr	ip, [pc]	; 1414 <l1159>

00001410 <l1158>:
    1410:	ea000000 	b	1418 <l1160>

00001414 <l1159>:
    1414:	000fffa0 	.word	0x000fffa0

00001418 <l1160>:
    1418:	110c3092 	swpne	r3, r2, [ip]

0000141c <l1161>:
    141c:	02cb4706 	sbceq	r4, fp, #1572864	; 0x180000

00001420 <l1162>:
    1420:	30cc3955 	sbccc	r3, ip, r5, asr r9

00001424 <l1163>:
    1424:	e336037d 	teq	r6, #-201326591	; 0xf4000001

00001428 <l1164>:
    1428:	e82dc490 	stmda	sp!, {r4, r7, sl, lr, pc}

0000142c <l1165>:
    142c:	e31a071f 	tst	sl, #8126464	; 0x7c0000

00001430 <l1166>:
    1430:	a277792d 	rsbsge	r7, r7, #737280	; 0xb4000

00001434 <l1167>:
    1434:	81190007 	tsthi	r9, r7

00001438 <l1168>:
    1438:	523a3cc2 	eorspl	r3, sl, #49664	; 0xc200

0000143c <l1169>:
    143c:	e59f0000 	ldr	r0, [pc]	; 1444 <l1171>

00001440 <l1170>:
    1440:	ea000000 	b	1448 <l1172>

00001444 <l1171>:
    1444:	000fffb8 	.word	0x000fffb8

00001448 <l1172>:
    1448:	e100e09b 	swp	lr, fp, [r0]

0000144c <l1173>:
    144c:	e3a03020 	mov	r3, #32

00001450 <l1174>:
    1450:	e68d8003 	str	r8, [sp], r3

00001454 <l1175>:
    1454:	e1807aeb 	orr	r7, r0, fp, ror #21

00001458 <l1176>:
    1458:	a1b068a0 	lsrsge	r6, r0, #17

0000145c <l1177>:
    145c:	e046cb59 	sub	ip, r6, r9, asr fp

00001460 <l1178>:
    1460:	e59f6000 	ldr	r6, [pc]	; 1468 <l1180>

00001464 <l1179>:
    1464:	ea000000 	b	146c <l1181>

00001468 <l1180>:
    1468:	000fffcc 	.word	0x000fffcc

0000146c <l1181>:
    146c:	91465098 	swpbls	r5, r8, [r6]

00001470 <l1182>:
    1470:	b55d2028 	ldrblt	r2, [sp, #-40]	; 0x28

00001474 <l1183>:
    1474:	708e1a18 	addvc	r1, lr, r8, lsl sl

00001478 <l1184>:
    1478:	e59f4000 	ldr	r4, [pc]	; 1480 <l1186>

0000147c <l1185>:
    147c:	ea000000 	b	1484 <l1187>

00001480 <l1186>:
    1480:	000fffc0 	.word	0x000fffc0

00001484 <l1187>:
    1484:	3144c098 	swpbcc	ip, r8, [r4]

00001488 <l1188>:
    1488:	5137000e 	teqpl	r7, lr

0000148c <l1189>:
    148c:	ea000006 	b	14ac <l1197>

00001490 <l1190>:
    1490:	e2801053 	add	r1, r0, #83	; 0x53

00001494 <l1191>:
    1494:	505ba003 	subspl	sl, fp, r3

00001498 <l1192>:
    1498:	20a5206a 	adccs	r2, r5, sl, rrx

0000149c <l1193>:
    149c:	e0a4a06a 	adc	sl, r4, sl, rrx

000014a0 <l1194>:
    14a0:	e2e07327 	rsc	r7, r0, #-1677721600	; 0x9c000000

000014a4 <l1195>:
    14a4:	917b04a5 	cmnls	fp, r5, lsr #9

000014a8 <l1196>:
    14a8:	ea000000 	b	14b0 <l1198>

000014ac <l1197>:
    14ac:	eafffff8 	b	1494 <l1191>

000014b0 <l1198>:
    14b0:	e0884002 	add	r4, r8, r2

000014b4 <l1199>:
    14b4:	e0314009 	eors	r4, r1, r9

000014b8 <l1200>:
    14b8:	e1915960 	orrs	r5, r1, r0, ror #18

000014bc <l1201>:
    14bc:	b183c00f 	orrlt	ip, r3, pc

000014c0 <l1202>:
    14c0:	e3b0a902 	movs	sl, #32768	; 0x8000

000014c4 <l1203>:
    14c4:	62233e45 	eorvs	r3, r3, #1104	; 0x450

000014c8 <l1204>:
    14c8:	e3a08033 	mov	r8, #51	; 0x33

000014cc <l1205>:
    14cc:	474d8008 	strbmi	r8, [sp, -r8]

000014d0 <l1206>:
    14d0:	e020e413 	eor	lr, r0, r3, lsl r4

000014d4 <l1207>:
    14d4:	4012b00a 	andsmi	fp, r2, sl

000014d8 <l1208>:
    14d8:	42b3cb02 	adcsmi	ip, r3, #2048	; 0x800

000014dc <l1209>:
    14dc:	a98d00a0 	stmibge	sp, {r5, r7}

000014e0 <l1210>:
    14e0:	515a0b76 	cmppl	sl, r6, ror fp

000014e4 <l1211>:
    14e4:	e59f4000 	ldr	r4, [pc]	; 14ec <l1213>

000014e8 <l1212>:
    14e8:	ea000000 	b	14f0 <l1214>

000014ec <l1213>:
    14ec:	000fffdc 	.word	0x000fffdc

000014f0 <l1214>:
    14f0:	21041096 	swpcs	r1, r6, [r4]

000014f4 <l1215>:
    14f4:	ba000003 	blt	1508 <l1220>

000014f8 <l1216>:
    14f8:	e280103b 	add	r1, r0, #59	; 0x3b

000014fc <l1217>:
    14fc:	c04b6009 	subgt	r6, fp, r9

00001500 <l1218>:
    1500:	e22e13c9 	eor	r1, lr, #603979779	; 0x24000003

00001504 <l1219>:
    1504:	ea000000 	b	150c <l1221>

00001508 <l1220>:
    1508:	eafffffb 	b	14fc <l1217>

0000150c <l1221>:
    150c:	e3a01014 	mov	r1, #20

00001510 <l1222>:
    1510:	210d10b1 	strhcs	r1, [sp, -r1]

00001514 <l1223>:
    1514:	e39fbf75 	orrs	fp, pc, #468	; 0x1d4

00001518 <l1224>:
    1518:	e3a0e010 	mov	lr, #16

0000151c <l1225>:
    151c:	e72d500e 	str	r5, [sp, -lr]!

00001520 <l1226>:
    1520:	711c0e14 	tstvc	ip, r4, lsl lr

00001524 <l1227>:
    1524:	71cd90bc 	strhvc	r9, [sp, #12]

00001528 <l1228>:
    1528:	ea000003 	b	153c <l1233>

0000152c <l1229>:
    152c:	30403001 	subcc	r3, r0, r1

00001530 <l1230>:
    1530:	e057a91e 	subs	sl, r7, lr, lsl r9

00001534 <l1231>:
    1534:	7237b40b 	eorsvc	fp, r7, #184549376	; 0xb000000

00001538 <l1232>:
    1538:	52414a03 	subpl	r4, r1, #12288	; 0x3000

0000153c <l1233>:
    153c:	116f6f15 	clzne	r6, r5

00001540 <l1234>:
    1540:	e53d9014 	ldr	r9, [sp, #-20]!

00001544 <l1235>:
    1544:	0133006b 	teqeq	r3, fp, rrx

00001548 <l1236>:
    1548:	d3c003f2 	bicle	r0, r0, #-939524093	; 0xc8000003

0000154c <l1237>:
    154c:	d31805d3 	tstle	r8, #884998144	; 0x34c00000

00001550 <l1238>:
    1550:	e068b007 	rsb	fp, r8, r7

00001554 <l1239>:
    1554:	319bb005 	orrscc	fp, fp, r5

00001558 <l1240>:
    1558:	71310378 	teqvc	r1, r8, ror r3

0000155c <l1241>:
    155c:	e1740000 	cmn	r4, r0

00001560 <l1242>:
    1560:	e3a0c002 	mov	ip, #2

00001564 <l1243>:
    1564:	719db0fc 	ldrshvc	fp, [sp, ip]

00001568 <l1244>:
    1568:	e18fc000 	orr	ip, pc, r0

0000156c <l1245>:
    156c:	ea000004 	b	1584 <l1251>

00001570 <l1246>:
    1570:	e0a35063 	adc	r5, r3, r3, rrx

00001574 <l1247>:
    1574:	a1780b50 	cmnge	r8, r0, asr fp

00001578 <l1248>:
    1578:	e3e0353b 	mvn	r3, #247463936	; 0xec00000

0000157c <l1249>:
    157c:	a01ec61b 	andsge	ip, lr, fp, lsl r6

00001580 <l1250>:
    1580:	e0cee066 	sbc	lr, lr, r6, rrx

00001584 <l1251>:
    1584:	e1720a18 	cmn	r2, r8, lsl sl

00001588 <l1252>:
    1588:	e59f0000 	ldr	r0, [pc]	; 1590 <l1254>

0000158c <l1253>:
    158c:	ea000000 	b	1594 <l1255>

00001590 <l1254>:
    1590:	000fffe0 	.word	0x000fffe0

00001594 <l1255>:
    1594:	c1002098 	swpgt	r2, r8, [r0]

00001598 <l1256>:
    1598:	03d246b1 	bicseq	r4, r2, #185597952	; 0xb100000

0000159c <l1257>:
    159c:	a136098c 	teqge	r6, ip, lsl #19

000015a0 <l1258>:
    15a0:	e59f5000 	ldr	r5, [pc]	; 15a8 <l1260>

000015a4 <l1259>:
    15a4:	ea000000 	b	15ac <l1261>

000015a8 <l1260>:
    15a8:	000fffd0 	.word	0x000fffd0

000015ac <l1261>:
    15ac:	e105b09e 	swp	fp, lr, [r5]

000015b0 <l1262>:
    15b0:	e1c5463e 	bic	r4, r5, lr, lsr r6

000015b4 <l1263>:
    15b4:	31b01b63 	rorscc	r1, r3, #22

000015b8 <l1264>:
    15b8:	53170dc9 	tstpl	r7, #12864	; 0x3240

000015bc <l1265>:
    15bc:	e59fa000 	ldr	sl, [pc]	; 15c4 <l1267>

000015c0 <l1266>:
    15c0:	ea000000 	b	15c8 <l1268>

000015c4 <l1267>:
    15c4:	000fffdc 	.word	0x000fffdc

000015c8 <l1268>:
    15c8:	e14a209c 	swpb	r2, ip, [sl]

000015cc <l1269>:
    15cc:	c1520e53 	cmpgt	r2, r3, asr lr

000015d0 <l1270>:
    15d0:	60b7553e 	adcsvs	r5, r7, lr, lsr r5

000015d4 <l1271>:
    15d4:	e59fc000 	ldr	ip, [pc]	; 15dc <l1273>

000015d8 <l1272>:
    15d8:	ea000000 	b	15e0 <l1274>

000015dc <l1273>:
    15dc:	000fffc0 	.word	0x000fffc0

000015e0 <l1274>:
    15e0:	e10c2093 	swp	r2, r3, [ip]

000015e4 <l1275>:
    15e4:	11dd61d7 	ldrsbne	r6, [sp, #23]

000015e8 <l1276>:
    15e8:	e3a0a004 	mov	sl, #4

000015ec <l1277>:
    15ec:	479db00a 	ldrmi	fp, [sp, sl]

000015f0 <l1278>:
    15f0:	502fe003 	eorpl	lr, pc, r3

000015f4 <l1279>:
    15f4:	e59f0000 	ldr	r0, [pc]	; 15fc <l1281>

000015f8 <l1280>:
    15f8:	ea000000 	b	1600 <l1282>

000015fc <l1281>:
    15fc:	000fffc4 	.word	0x000fffc4

00001600 <l1282>:
    1600:	b140e097 	swpblt	lr, r7, [r0]

00001604 <l1283>:
    1604:	e1500705 	cmp	r0, r5, lsl #14

00001608 <l1284>:
    1608:	a14db1b0 	strhge	fp, [sp, #-16]

0000160c <l1285>:
    160c:	e5ad0034 	str	r0, [sp, #52]!	; 0x34

00001610 <l1286>:
    1610:	1a000005 	bne	162c <l1293>

00001614 <l1287>:
    1614:	e280106b 	add	r1, r0, #107	; 0x6b

00001618 <l1288>:
    1618:	31875232 	orrcc	r5, r7, r2, lsr r2

0000161c <l1289>:
    161c:	e20ae1f5 	and	lr, sl, #1073741885	; 0x4000003d

00001620 <l1290>:
    1620:	10286373 	eorne	r6, r8, r3, ror r3

00001624 <l1291>:
    1624:	e0a03450 	adc	r3, r0, r0, asr r4

00001628 <l1292>:
    1628:	ea000000 	b	1630 <l1294>

0000162c <l1293>:
    162c:	eafffff9 	b	1618 <l1288>

00001630 <l1294>:
    1630:	e059200c 	subs	r2, r9, ip

00001634 <l1295>:
    1634:	d1821005 	orrle	r1, r2, r5

00001638 <l1296>:
    1638:	e1f07150 	mvns	r7, r0, asr r1

0000163c <l1297>:
    163c:	e14db3bc 	strh	fp, [sp, #-60]	; 0xffffffc4

00001640 <l1298>:
    1640:	e3a00034 	mov	r0, #52	; 0x34

00001644 <l1299>:
    1644:	e61d4000 	ldr	r4, [sp], -r0

00001648 <l1300>:
    1648:	e0432064 	sub	r2, r3, r4, rrx

0000164c <l1301>:
    164c:	21ddc1b0 	ldrhcs	ip, [sp, #16]

00001650 <l1302>:
    1650:	a02ae7cb 	eorge	lr, sl, fp, asr #15

00001654 <l1303>:
    1654:	e22ccb32 	eor	ip, ip, #51200	; 0xc800

00001658 <l1304>:
    1658:	e5ad002c 	str	r0, [sp, #44]!	; 0x2c

0000165c <l1305>:
    165c:	e3a07006 	mov	r7, #6

00001660 <l1306>:
    1660:	e7dd1007 	ldrb	r1, [sp, r7]

00001664 <l1307>:
    1664:	e028600a 	eor	r6, r8, sl

00001668 <l1308>:
    1668:	20c3a614 	sbccs	sl, r3, r4, lsl r6

0000166c <l1309>:
    166c:	eaffffff 	b	1670 <l1310>

00001670 <l1310>:
    1670:	70471352 	subvc	r1, r7, r2, asr r3

00001674 <l1311>:
    1674:	3a000003 	bcc	1688 <l1316>

00001678 <l1312>:
    1678:	417b0003 	cmnmi	fp, r3

0000167c <l1313>:
    167c:	c1cfe067 	bicgt	lr, pc, r7, rrx

00001680 <l1314>:
    1680:	0178006c 	cmneq	r8, ip, rrx

00001684 <l1315>:
    1684:	e16f0f19 	clz	r0, r9

00001688 <l1316>:
    1688:	e3f0779a 	mvns	r7, #40370176	; 0x2680000

0000168c <l1317>:
    168c:	e3a06022 	mov	r6, #34	; 0x22

00001690 <l1318>:
    1690:	e75d2006 	ldrb	r2, [sp, -r6]

00001694 <l1319>:
    1694:	d88d8800 	stmle	sp, {fp, pc}

00001698 <l1320>:
    1698:	e82dcfa3 	stmda	sp!, {r0, r1, r5, r7, r8, r9, sl, fp, lr, pc}

0000169c <l1321>:
    169c:	61e0b00b 	mvnvs	fp, fp

000016a0 <l1322>:
    16a0:	ea000004 	b	16b8 <l1328>

000016a4 <l1323>:
    16a4:	e280104e 	add	r1, r0, #78	; 0x4e

000016a8 <l1324>:
    16a8:	51f02067 	mvnspl	r2, r7, rrx

000016ac <l1325>:
    16ac:	e11906aa 	tst	r9, sl, lsr #13

000016b0 <l1326>:
    16b0:	c0e65007 	rscgt	r5, r6, r7

000016b4 <l1327>:
    16b4:	ea000000 	b	16bc <l1329>

000016b8 <l1328>:
    16b8:	eafffffa 	b	16a8 <l1324>

000016bc <l1329>:
    16bc:	a199a007 	orrsge	sl, r9, r7

000016c0 <l1330>:
    16c0:	e16f3f16 	clz	r3, r6

000016c4 <l1331>:
    16c4:	40cb89c7 	sbcmi	r8, fp, r7, asr #19

000016c8 <l1332>:
    16c8:	73380b01 	teqvc	r8, #1024	; 0x400

000016cc <l1333>:
    16cc:	63cf5806 	bicvs	r5, pc, #393216	; 0x60000

000016d0 <l1334>:
    16d0:	6a000004 	bvs	16e8 <l1340>

000016d4 <l1335>:
    16d4:	731a0533 	tstvc	sl, #213909504	; 0xcc00000

000016d8 <l1336>:
    16d8:	e04b4007 	sub	r4, fp, r7

000016dc <l1337>:
    16dc:	e25c86b3 	subs	r8, ip, #187695104	; 0xb300000

000016e0 <l1338>:
    16e0:	e045a53e 	sub	sl, r5, lr, lsr r5

000016e4 <l1339>:
    16e4:	1272adcf 	rsbsne	sl, r2, #13248	; 0x33c0

000016e8 <l1340>:
    16e8:	e3320db7 	teq	r2, #11712	; 0x2dc0

000016ec <l1341>:
    16ec:	11700510 	cmnne	r0, r0, lsl r5

000016f0 <l1342>:
    16f0:	00beb220 	adcseq	fp, lr, r0, lsr #4

000016f4 <l1343>:
    16f4:	e8bd052b 	pop	{r0, r1, r3, r5, r8, sl}

000016f8 <l1344>:
    16f8:	a15da1f2 	ldrshge	sl, [sp, #-18]	; 0xffffffee

000016fc <l1345>:
    16fc:	e024c06a 	eor	ip, r4, sl, rrx

00001700 <l1346>:
    1700:	a0f6600e 	rscsge	r6, r6, lr

00001704 <l1347>:
    1704:	e3a05002 	mov	r5, #2

00001708 <l1348>:
    1708:	119d60b5 	ldrhne	r6, [sp, r5]

0000170c <l1349>:
    170c:	e224a0ec 	eor	sl, r4, #236	; 0xec

00001710 <l1350>:
    1710:	e11504e5 	tst	r5, r5, ror #9

00001714 <l1351>:
    1714:	e3a09010 	mov	r9, #16

00001718 <l1352>:
    1718:	e7ad1009 	str	r1, [sp, r9]!

0000171c <l1353>:
    171c:	e337089a 	teq	r7, #10092544	; 0x9a0000

00001720 <l1354>:
    1720:	e92d2000 	stmfd	sp!, {sp}

00001724 <l1355>:
    1724:	e3a0502b 	mov	r5, #43	; 0x2b

00001728 <l1356>:
    1728:	e75de005 	ldrb	lr, [sp, -r5]

0000172c <l1357>:
    172c:	e83d0010 	ldmda	sp!, {r4}

00001730 <l1358>:
    1730:	7a000001 	bvc	173c <l1361>

00001734 <l1359>:
    1734:	b0422433 	sublt	r2, r2, r3, lsr r4

00001738 <l1360>:
    1738:	e1b0ba3a 	lsrs	fp, sl, sl

0000173c <l1361>:
    173c:	e178092c 	cmn	r8, ip, lsr #18

00001740 <l1362>:
    1740:	e92d2000 	stmfd	sp!, {sp}

00001744 <l1363>:
    1744:	a17e0007 	cmnge	lr, r7

00001748 <l1364>:
    1748:	e81d1040 	ldmda	sp, {r6, ip}

0000174c <l1365>:
    174c:	c0f50066 	rscsgt	r0, r5, r6, rrx

00001750 <l1366>:
    1750:	e1b0bb34 	lsrs	fp, r4, fp

00001754 <l1367>:
    1754:	01a002a1 	lsreq	r0, r1, #5

00001758 <l1368>:
    1758:	4037c006 	eorsmi	ip, r7, r6

0000175c <l1369>:
    175c:	81a02002 	movhi	r2, r2

00001760 <l1370>:
    1760:	e3a00004 	mov	r0, #4

00001764 <l1371>:
    1764:	211d50d0 	ldrsbcs	r5, [sp, -r0]

00001768 <l1372>:
    1768:	2058ba56 	subscs	fp, r8, r6, asr sl

0000176c <l1373>:
    176c:	d58d0000 	strle	r0, [sp]

00001770 <l1374>:
    1770:	a1ddb1d5 	ldrsbge	fp, [sp, #21]

00001774 <l1375>:
    1774:	1a000003 	bne	1788 <l1380>

00001778 <l1376>:
    1778:	a0cca064 	sbcge	sl, ip, r4, rrx

0000177c <l1377>:
    177c:	b1f06061 	mvnslt	r6, r1, rrx

00001780 <l1378>:
    1780:	63580b15 	cmpvs	r8, #21504	; 0x5400

00001784 <l1379>:
    1784:	e029525a 	eor	r5, r9, sl, asr r2

00001788 <l1380>:
    1788:	d3f08f8b 	mvnsle	r8, #556	; 0x22c

0000178c <l1381>:
    178c:	e24ba637 	sub	sl, fp, #57671680	; 0x3700000

00001790 <l1382>:
    1790:	30788001 	rsbscc	r8, r8, r1

00001794 <l1383>:
    1794:	216f8f1e 	clzcs	r8, lr

00001798 <l1384>:
    1798:	616f4f11 	clzvs	r4, r1

0000179c <l1385>:
    179c:	72698e2b 	rsbvc	r8, r9, #688	; 0x2b0

000017a0 <l1386>:
    17a0:	e2922323 	adds	r2, r2, #-1946157056	; 0x8c000000

000017a4 <l1387>:
    17a4:	e59f4000 	ldr	r4, [pc]	; 17ac <l1389>

000017a8 <l1388>:
    17a8:	ea000000 	b	17b0 <l1390>

000017ac <l1389>:
    17ac:	000fffb8 	.word	0x000fffb8

000017b0 <l1390>:
    17b0:	d1447098 	swpble	r7, r8, [r4]

000017b4 <l1391>:
    17b4:	e159006b 	cmp	r9, fp, rrx

000017b8 <l1392>:
    17b8:	ea000005 	b	17d4 <l1399>

000017bc <l1393>:
    17bc:	40033067 	andmi	r3, r3, r7, rrx

000017c0 <l1394>:
    17c0:	516f4f1e 	clzpl	r4, lr

000017c4 <l1395>:
    17c4:	e09e9266 	adds	r9, lr, r6, ror #4

000017c8 <l1396>:
    17c8:	e1e0c4a1 	mvn	ip, r1, lsr #9

000017cc <l1397>:
    17cc:	e1580539 	cmp	r8, r9, lsr r5

000017d0 <l1398>:
    17d0:	e2d8b01c 	sbcs	fp, r8, #28

000017d4 <l1399>:
    17d4:	e16f2f14 	clz	r2, r4

000017d8 <l1400>:
    17d8:	e0406007 	sub	r6, r0, r7

000017dc <l1401>:
    17dc:	e14de0ba 	strh	lr, [sp, #-10]

000017e0 <l1402>:
    17e0:	9002beaa 	andls	fp, r2, sl, lsr #29

000017e4 <l1403>:
    17e4:	e053c612 	subs	ip, r3, r2, lsl r6

000017e8 <l1404>:
    17e8:	0038741a 	eorseq	r7, r8, sl, lsl r4

000017ec <l1405>:
    17ec:	e1140326 	tst	r4, r6, lsr #6

000017f0 <l1406>:
    17f0:	e02c7139 	eor	r7, ip, r9, lsr r1

000017f4 <l1407>:
    17f4:	63d1450a 	bicsvs	r4, r1, #41943040	; 0x2800000

000017f8 <l1408>:
    17f8:	e59f3000 	ldr	r3, [pc]	; 1800 <l1410>

000017fc <l1409>:
    17fc:	ea000000 	b	1804 <l1411>

00001800 <l1410>:
    1800:	000fffe8 	.word	0x000fffe8

00001804 <l1411>:
    1804:	9103b094 	swpls	fp, r4, [r3]

00001808 <l1412>:
    1808:	e0045065 	and	r5, r4, r5, rrx

0000180c <l1413>:
    180c:	e3a0500f 	mov	r5, #15

00001810 <l1414>:
    1810:	e19d70d5 	ldrsb	r7, [sp, r5]

00001814 <l1415>:
    1814:	e0b1400f 	adcs	r4, r1, pc

00001818 <l1416>:
    1818:	e3a0e004 	mov	lr, #4

0000181c <l1417>:
    181c:	010d60be 	strheq	r6, [sp, -lr]

00001820 <l1418>:
    1820:	e59fc000 	ldr	ip, [pc]	; 1828 <l1420>

00001824 <l1419>:
    1824:	ea000000 	b	182c <l1421>

00001828 <l1420>:
    1828:	000fffd8 	.word	0x000fffd8

0000182c <l1421>:
    182c:	e14c709a 	swpb	r7, sl, [ip]

00001830 <l1422>:
    1830:	e59f8000 	ldr	r8, [pc]	; 1838 <l1424>

00001834 <l1423>:
    1834:	ea000000 	b	183c <l1425>

00001838 <l1424>:
    1838:	000fffb0 	.word	0x000fffb0

0000183c <l1425>:
    183c:	21080095 	swpcs	r0, r5, [r8]

00001840 <l1426>:
    1840:	e1a03061 	rrx	r3, r1

00001844 <l1427>:
    1844:	e3a0a02f 	mov	sl, #47	; 0x2f

00001848 <l1428>:
    1848:	d75d000a 	ldrble	r0, [sp, -sl]

0000184c <l1429>:
    184c:	e0234066 	eor	r4, r3, r6, rrx

00001850 <l1430>:
    1850:	e1a00000 	nop			; (mov r0, r0)

00001854 <l1431>:
    1854:	32126a9e 	andscc	r6, r2, #647168	; 0x9e000

00001858 <l1432>:
    1858:	e19f8863 	orrs	r8, pc, r3, ror #16

0000185c <l1433>:
    185c:	00b63b04 	adcseq	r3, r6, r4, lsl #22

00001860 <l1434>:
    1860:	e111000a 	tst	r1, sl

00001864 <l1435>:
    1864:	e59f4000 	ldr	r4, [pc]	; 186c <l1437>

00001868 <l1436>:
    1868:	ea000000 	b	1870 <l1438>

0000186c <l1437>:
    186c:	000fffc0 	.word	0x000fffc0

00001870 <l1438>:
    1870:	e1049093 	swp	r9, r3, [r4]

00001874 <l1439>:
    1874:	e3a0501c 	mov	r5, #28

00001878 <l1440>:
    1878:	710d40b5 	strhvc	r4, [sp, -r5]

0000187c <l1441>:
    187c:	e31e0d9d 	tst	lr, #10048	; 0x2740

00001880 <l1442>:
    1880:	e0154154 	ands	r4, r5, r4, asr r1

00001884 <l1443>:
    1884:	e83d0600 	ldmda	sp!, {r9, sl}

00001888 <l1444>:
    1888:	233804aa 	teqcs	r8, #-1442840576	; 0xaa000000

0000188c <l1445>:
    188c:	e40d5018 	str	r5, [sp], #-24

00001890 <l1446>:
    1890:	e1c651e6 	bic	r5, r6, r6, ror #3

00001894 <l1447>:
    1894:	70b4b5a9 	adcsvc	fp, r4, r9, lsr #11

00001898 <l1448>:
    1898:	52016b02 	andpl	r6, r1, #2048	; 0x800

0000189c <l1449>:
    189c:	31b00004 	movscc	r0, r4

000018a0 <l1450>:
    18a0:	206eb187 	rsbcs	fp, lr, r7, lsl #3

000018a4 <l1451>:
    18a4:	808caa71 	addhi	sl, ip, r1, ror sl

000018a8 <l1452>:
    18a8:	304ae00a 	subcc	lr, sl, sl

000018ac <l1453>:
    18ac:	015c000e 	cmpeq	ip, lr

000018b0 <l1454>:
    18b0:	e299a215 	adds	sl, r9, #1342177281	; 0x50000001

000018b4 <l1455>:
    18b4:	ea000004 	b	18cc <l1461>

000018b8 <l1456>:
    18b8:	e280109b 	add	r1, r0, #155	; 0x9b

000018bc <l1457>:
    18bc:	e33a05ad 	teq	sl, #725614592	; 0x2b400000

000018c0 <l1458>:
    18c0:	b020c874 	eorlt	ip, r0, r4, ror r8

000018c4 <l1459>:
    18c4:	e0833c22 	add	r3, r3, r2, lsr #24

000018c8 <l1460>:
    18c8:	ea000000 	b	18d0 <l1462>

000018cc <l1461>:
    18cc:	eafffffa 	b	18bc <l1457>

000018d0 <l1462>:
    18d0:	e191ce75 	orrs	ip, r1, r5, ror lr

000018d4 <l1463>:
    18d4:	339be776 	orrscc	lr, fp, #30932992	; 0x1d80000

000018d8 <l1464>:
    18d8:	e16f6f18 	clz	r6, r8

000018dc <l1465>:
    18dc:	11790729 	cmnne	r9, r9, lsr #14

000018e0 <l1466>:
    18e0:	622aea46 	eorvs	lr, sl, #286720	; 0x46000

000018e4 <l1467>:
    18e4:	615d90d2 	ldrsbvs	r9, [sp, #-2]

000018e8 <l1468>:
    18e8:	e080cf6a 	add	ip, r0, sl, ror #30

000018ec <l1469>:
    18ec:	219a594c 	orrscs	r5, sl, ip, asr #18

000018f0 <l1470>:
    18f0:	0056506a 	subseq	r5, r6, sl, rrx

000018f4 <l1471>:
    18f4:	e40db010 	str	fp, [sp], #-16

000018f8 <l1472>:
    18f8:	e13c0616 	teq	ip, r6, lsl r6

000018fc <l1473>:
    18fc:	63832a53 	orrvs	r2, r3, #339968	; 0x53000

00001900 <l1474>:
    1900:	a0cccb7a 	sbcge	ip, ip, sl, ror fp

00001904 <l1475>:
    1904:	ea000006 	b	1924 <l1483>

00001908 <l1476>:
    1908:	a16f8f19 	clzge	r8, r9

0000190c <l1477>:
    190c:	e2e94abf 	rsc	r4, r9, #782336	; 0xbf000

00001910 <l1478>:
    1910:	e1130ee2 	tst	r3, r2, ror #29

00001914 <l1479>:
    1914:	e31a0068 	tst	sl, #104	; 0x68

00001918 <l1480>:
    1918:	e18e0009 	orr	r0, lr, r9

0000191c <l1481>:
    191c:	e112057e 	tst	r2, lr, ror r5

00001920 <l1482>:
    1920:	e3cccd26 	bic	ip, ip, #2432	; 0x980

00001924 <l1483>:
    1924:	e117055a 	tst	r7, sl, asr r5

00001928 <l1484>:
    1928:	b1350152 	teqlt	r5, r2, asr r1

0000192c <l1485>:
    192c:	13140ad6 	tstne	r4, #876544	; 0xd6000

00001930 <l1486>:
    1930:	a0663e3a 	rsbge	r3, r6, sl, lsr lr

00001934 <l1487>:
    1934:	e054300c 	subs	r3, r4, ip

00001938 <l1488>:
    1938:	c03a3004 	eorsgt	r3, sl, r4

0000193c <l1489>:
    193c:	e3190f91 	tst	r9, #580	; 0x244

00001940 <l1490>:
    1940:	e59fb000 	ldr	fp, [pc]	; 1948 <l1492>

00001944 <l1491>:
    1944:	ea000000 	b	194c <l1493>

00001948 <l1492>:
    1948:	000fffb8 	.word	0x000fffb8

0000194c <l1493>:
    194c:	914b2092 	swpbls	r2, r2, [fp]

00001950 <l1494>:
    1950:	d2a020dc 	adcle	r2, r0, #220	; 0xdc

00001954 <l1495>:
    1954:	12a86c02 	adcne	r6, r8, #512	; 0x200

00001958 <l1496>:
    1958:	e3a0b047 	mov	fp, #71	; 0x47

0000195c <l1497>:
    195c:	e7dd600b 	ldrb	r6, [sp, fp]

00001960 <l1498>:
    1960:	91d499e1 	bicsls	r9, r4, r1, ror #19

00001964 <l1499>:
    1964:	e3a0b03c 	mov	fp, #60	; 0x3c

00001968 <l1500>:
    1968:	118d10bb 	strhne	r1, [sp, fp]

0000196c <l1501>:
    196c:	e0bb965a 	adcs	r9, fp, sl, asr r6

00001970 <l1502>:
    1970:	e1f0563b 	mvns	r5, fp, lsr r6

00001974 <l1503>:
    1974:	d232a236 	eorsle	sl, r2, #1610612739	; 0x60000003

00001978 <l1504>:
    1978:	e3a00026 	mov	r0, #38	; 0x26

0000197c <l1505>:
    197c:	218dc0b0 	strhcs	ip, [sp, r0]

00001980 <l1506>:
    1980:	e59f1000 	ldr	r1, [pc]	; 1988 <l1508>

00001984 <l1507>:
    1984:	ea000000 	b	198c <l1509>

00001988 <l1508>:
    1988:	000fffdc 	.word	0x000fffdc

0000198c <l1509>:
    198c:	b141a094 	swpblt	sl, r4, [r1]

00001990 <l1510>:
    1990:	11dde0f2 	ldrshne	lr, [sp, #2]

00001994 <l1511>:
    1994:	e88dbe7b 	stm	sp, {r0, r1, r3, r4, r5, r6, r9, sl, fp, ip, sp, pc}

00001998 <l1512>:
    1998:	e9bd17f3 	ldmib	sp!, {r0, r1, r4, r5, r6, r7, r8, r9, sl, ip}

0000199c <l1513>:
    199c:	e3a05d59 	mov	r5, #5696	; 0x1640

000019a0 <l1514>:
    19a0:	e2c2c1af 	sbc	ip, r2, #-1073741781	; 0xc000002b

000019a4 <l1515>:
    19a4:	ea000005 	b	19c0 <l1522>

000019a8 <l1516>:
    19a8:	e16f0f1a 	clz	r0, sl

000019ac <l1517>:
    19ac:	e1b0300f 	movs	r3, pc

000019b0 <l1518>:
    19b0:	e1540a50 	cmp	r4, r0, asr sl

000019b4 <l1519>:
    19b4:	e19ec060 	orrs	ip, lr, r0, rrx

000019b8 <l1520>:
    19b8:	e37e033a 	cmn	lr, #-402653184	; 0xe8000000

000019bc <l1521>:
    19bc:	e06210cc 	rsb	r1, r2, ip, asr #1

000019c0 <l1522>:
    19c0:	80557d61 	subshi	r7, r5, r1, ror #26

000019c4 <l1523>:
    19c4:	e0d9206a 	sbcs	r2, r9, sl, rrx

000019c8 <l1524>:
    19c8:	e1f0ea2e 	mvns	lr, lr, lsr #20

000019cc <l1525>:
    19cc:	92353406 	eorsls	r3, r5, #100663296	; 0x6000000

000019d0 <l1526>:
    19d0:	e82d97c4 	stmda	sp!, {r2, r6, r7, r8, r9, sl, ip, pc}

000019d4 <l1527>:
    19d4:	11cd73b4 	strhne	r7, [sp, #52]	; 0x34

000019d8 <l1528>:
    19d8:	01cf2bcc 	biceq	r2, pc, ip, asr #23

000019dc <l1529>:
    19dc:	0a000006 	beq	19fc <l1537>

000019e0 <l1530>:
    19e0:	d20e3509 	andle	r3, lr, #37748736	; 0x2400000

000019e4 <l1531>:
    19e4:	60487601 	subvs	r7, r8, r1, lsl #12

000019e8 <l1532>:
    19e8:	e137075e 	teq	r7, lr, asr r7

000019ec <l1533>:
    19ec:	31f07fa2 	mvnscc	r7, r2, lsr #31

000019f0 <l1534>:
    19f0:	735e0333 	cmpvc	lr, #-872415232	; 0xcc000000

000019f4 <l1535>:
    19f4:	e0435474 	sub	r5, r3, r4, ror r4

000019f8 <l1536>:
    19f8:	003f0002 	eorseq	r0, pc, r2

000019fc <l1537>:
    19fc:	416fcf16 	clzmi	ip, r6

00001a00 <l1538>:
    1a00:	016f5f19 	clzeq	r5, r9

00001a04 <l1539>:
    1a04:	e59f3000 	ldr	r3, [pc]	; 1a0c <l1541>

00001a08 <l1540>:
    1a08:	ea000000 	b	1a10 <l1542>

00001a0c <l1541>:
    1a0c:	000fffe0 	.word	0x000fffe0

00001a10 <l1542>:
    1a10:	b1434092 	swpblt	r4, r2, [r3]

00001a14 <l1543>:
    1a14:	4043c519 	submi	ip, r3, r9, lsl r5

00001a18 <l1544>:
    1a18:	60ec3009 	rscvs	r3, ip, r9

00001a1c <l1545>:
    1a1c:	217e0364 	cmncs	lr, r4, ror #6

00001a20 <l1546>:
    1a20:	e59fb000 	ldr	fp, [pc]	; 1a28 <l1548>

00001a24 <l1547>:
    1a24:	ea000000 	b	1a2c <l1549>

00001a28 <l1548>:
    1a28:	000fffe8 	.word	0x000fffe8

00001a2c <l1549>:
    1a2c:	e10b409a 	swp	r4, sl, [fp]

00001a30 <l1550>:
    1a30:	c317001f 	tstgt	r7, #31

00001a34 <l1551>:
    1a34:	9131000c 	teqls	r1, ip

00001a38 <l1552>:
    1a38:	e99d0031 	ldmib	sp, {r0, r4, r5}

00001a3c <l1553>:
    1a3c:	e1e02259 	mvn	r2, r9, asr r2

00001a40 <l1554>:
    1a40:	ea000005 	b	1a5c <l1561>

00001a44 <l1555>:
    1a44:	80b15000 	adcshi	r5, r1, r0

00001a48 <l1556>:
    1a48:	e16f3f1e 	clz	r3, lr

00001a4c <l1557>:
    1a4c:	e04119aa 	sub	r1, r1, sl, lsr #19

00001a50 <l1558>:
    1a50:	10b2a651 	adcsne	sl, r2, r1, asr r6

00001a54 <l1559>:
    1a54:	d16f0f17 	clzle	r0, r7

00001a58 <l1560>:
    1a58:	816fbf16 	clzhi	fp, r6

00001a5c <l1561>:
    1a5c:	e2396633 	eors	r6, r9, #53477376	; 0x3300000

00001a60 <l1562>:
    1a60:	b03a107a 	eorslt	r1, sl, sl, ror r0

00001a64 <l1563>:
    1a64:	61dd22f4 	ldrshvs	r2, [sp, #36]	; 0x24

00001a68 <l1564>:
    1a68:	50e81001 	rscpl	r1, r8, r1

00001a6c <l1565>:
    1a6c:	70125677 	andsvc	r5, r2, r7, ror r6

00001a70 <l1566>:
    1a70:	e13406a3 	teq	r4, r3, lsr #13

00001a74 <l1567>:
    1a74:	d338045e 	teqle	r8, #1577058304	; 0x5e000000

00001a78 <l1568>:
    1a78:	7a000004 	bvc	1a90 <l1574>

00001a7c <l1569>:
    1a7c:	e28010a0 	add	r1, r0, #160	; 0xa0

00001a80 <l1570>:
    1a80:	e1c0700e 	bic	r7, r0, lr

00001a84 <l1571>:
    1a84:	11dca004 	bicsne	sl, ip, r4

00001a88 <l1572>:
    1a88:	a28553b3 	addge	r5, r5, #-872415230	; 0xcc000002

00001a8c <l1573>:
    1a8c:	ea000000 	b	1a94 <l1575>

00001a90 <l1574>:
    1a90:	eafffffa 	b	1a80 <l1570>

00001a94 <l1575>:
    1a94:	2a000003 	bcs	1aa8 <l1580>

00001a98 <l1576>:
    1a98:	e2801071 	add	r1, r0, #113	; 0x71

00001a9c <l1577>:
    1a9c:	82a7a6db 	adchi	sl, r7, #229638144	; 0xdb00000

00001aa0 <l1578>:
    1aa0:	e074887b 	rsbs	r8, r4, fp, ror r8

00001aa4 <l1579>:
    1aa4:	ea000000 	b	1aac <l1581>

00001aa8 <l1580>:
    1aa8:	eafffffb 	b	1a9c <l1577>

00001aac <l1581>:
    1aac:	81dbe01a 	bicshi	lr, fp, sl, lsl r0

00001ab0 <l1582>:
    1ab0:	e39c0715 	orrs	r0, ip, #5505024	; 0x540000

00001ab4 <l1583>:
    1ab4:	e2844001 	add	r4, r4, #1

00001ab8 <l1584>:
    1ab8:	10d21001 	sbcsne	r1, r2, r1

00001abc <l1585>:
    1abc:	204138a2 	subcs	r3, r1, r2, lsr #17

00001ac0 <l1586>:
    1ac0:	e1720275 	cmn	r2, r5, ror r2

00001ac4 <l1587>:
    1ac4:	e243b9b7 	sub	fp, r3, #2998272	; 0x2dc000

00001ac8 <l1588>:
    1ac8:	e3a01013 	mov	r1, #19

00001acc <l1589>:
    1acc:	e19d60d1 	ldrsb	r6, [sp, r1]

00001ad0 <l1590>:
    1ad0:	c177098e 	cmngt	r7, lr, lsl #19

00001ad4 <l1591>:
    1ad4:	21e0300b 	mvncs	r3, fp

00001ad8 <l1592>:
    1ad8:	e3a03000 	mov	r3, #0

00001adc <l1593>:
    1adc:	e7ad0003 	str	r0, [sp, r3]!

00001ae0 <l1594>:
    1ae0:	e359075e 	cmp	r9, #24641536	; 0x1780000

00001ae4 <l1595>:
    1ae4:	e06eb000 	rsb	fp, lr, r0

00001ae8 <l1596>:
    1ae8:	e3a03019 	mov	r3, #25

00001aec <l1597>:
    1aec:	e19d50d3 	ldrsb	r5, [sp, r3]

00001af0 <l1598>:
    1af0:	e1b0c8c7 	asrs	ip, r7, #17

00001af4 <l1599>:
    1af4:	62591665 	subsvs	r1, r9, #105906176	; 0x6500000

00001af8 <l1600>:
    1af8:	e1560001 	cmp	r6, r1

00001afc <l1601>:
    1afc:	716fcf1b 	clzvc	ip, fp

00001b00 <l1602>:
    1b00:	5a000000 	bpl	1b08 <l1604>

00001b04 <l1603>:
    1b04:	e0dc4001 	sbcs	r4, ip, r1

00001b08 <l1604>:
    1b08:	e2a087be 	adc	r8, r0, #49807360	; 0x2f80000

00001b0c <l1605>:
    1b0c:	e3a04042 	mov	r4, #66	; 0x42

00001b10 <l1606>:
    1b10:	e19d90f4 	ldrsh	r9, [sp, r4]

00001b14 <l1607>:
    1b14:	e59f8000 	ldr	r8, [pc]	; 1b1c <l1609>

00001b18 <l1608>:
    1b18:	ea000000 	b	1b20 <l1610>

00001b1c <l1609>:
    1b1c:	000fffcc 	.word	0x000fffcc

00001b20 <l1610>:
    1b20:	7108e099 	swpvc	lr, r9, [r8]

00001b24 <l1611>:
    1b24:	40866a1b 	addmi	r6, r6, fp, lsl sl

00001b28 <l1612>:
    1b28:	e1a00000 	nop			; (mov r0, r0)

00001b2c <l1613>:
    1b2c:	eaffffff 	b	1b30 <l1614>

00001b30 <l1614>:
    1b30:	61140060 	tstvs	r4, r0, rrx

00001b34 <l1615>:
    1b34:	d1dd92b8 	ldrhle	r9, [sp, #40]	; 0x28

00001b38 <l1616>:
    1b38:	b1dde1d7 	ldrsblt	lr, [sp, #23]

00001b3c <l1617>:
    1b3c:	e1a00000 	nop			; (mov r0, r0)

00001b40 <l1618>:
    1b40:	e0597e1a 	subs	r7, r9, sl, lsl lr

00001b44 <l1619>:
    1b44:	e1dde0dc 	ldrsb	lr, [sp, #12]

00001b48 <l1620>:
    1b48:	e18b3006 	orr	r3, fp, r6

00001b4c <l1621>:
    1b4c:	d03c700c 	eorsle	r7, ip, ip

00001b50 <l1622>:
    1b50:	e1a00000 	nop			; (mov r0, r0)

00001b54 <l1623>:
    1b54:	e0a49334 	adc	r9, r4, r4, lsr r3

00001b58 <l1624>:
    1b58:	e3a0a01f 	mov	sl, #31

00001b5c <l1625>:
    1b5c:	e7dd800a 	ldrb	r8, [sp, sl]

00001b60 <l1626>:
    1b60:	b1f07063 	mvnslt	r7, r3, rrx

00001b64 <l1627>:
    1b64:	004a32cb 	subeq	r3, sl, fp, asr #5

00001b68 <l1628>:
    1b68:	35ddc020 	ldrbcc	ip, [sp, #32]

00001b6c <l1629>:
    1b6c:	e3992ce7 	orrs	r2, r9, #59136	; 0xe700

00001b70 <l1630>:
    1b70:	51170062 	tstpl	r7, r2, rrx

00001b74 <l1631>:
    1b74:	e2eba07a 	rsc	sl, fp, #122	; 0x7a

00001b78 <l1632>:
    1b78:	e3a0501c 	mov	r5, #28

00001b7c <l1633>:
    1b7c:	418dc0b5 	strhmi	ip, [sp, r5]

00001b80 <l1634>:
    1b80:	e11f07ee 	tst	pc, lr, ror #15

00001b84 <l1635>:
    1b84:	00490000 	subeq	r0, r9, r0

00001b88 <l1636>:
    1b88:	e1a07001 	mov	r7, r1

00001b8c <l1637>:
    1b8c:	31cda0b0 	strhcc	sl, [sp]

00001b90 <l1638>:
    1b90:	b50d7004 	strlt	r7, [sp, #-4]

00001b94 <l1639>:
    1b94:	e1a00000 	nop			; (mov r0, r0)

00001b98 <l1640>:
    1b98:	1020a002 	eorne	sl, r0, r2

00001b9c <l1641>:
    1b9c:	907185c0 	rsbsls	r8, r1, r0, asr #11

00001ba0 <l1642>:
    1ba0:	2041013a 	subcs	r0, r1, sl, lsr r1

00001ba4 <l1643>:
    1ba4:	e59f2000 	ldr	r2, [pc]	; 1bac <l1645>

00001ba8 <l1644>:
    1ba8:	ea000000 	b	1bb0 <l1646>

00001bac <l1645>:
    1bac:	000fffac 	.word	0x000fffac

00001bb0 <l1646>:
    1bb0:	c142a098 	swpbgt	sl, r8, [r2]

00001bb4 <l1647>:
    1bb4:	d5dd7018 	ldrble	r7, [sp, #24]

00001bb8 <l1648>:
    1bb8:	ea000006 	b	1bd8 <l1656>

00001bbc <l1649>:
    1bbc:	e280103a 	add	r1, r0, #58	; 0x3a

00001bc0 <l1650>:
    1bc0:	637e009b 	cmnvs	lr, #155	; 0x9b

00001bc4 <l1651>:
    1bc4:	e1710002 	cmn	r1, r2

00001bc8 <l1652>:
    1bc8:	d1f02061 	mvnsle	r2, r1, rrx

00001bcc <l1653>:
    1bcc:	81c02a1e 	bichi	r2, r0, lr, lsl sl

00001bd0 <l1654>:
    1bd0:	22ec1ac3 	rsccs	r1, ip, #798720	; 0xc3000

00001bd4 <l1655>:
    1bd4:	ea000000 	b	1bdc <l1657>

00001bd8 <l1656>:
    1bd8:	eafffff8 	b	1bc0 <l1650>

00001bdc <l1657>:
    1bdc:	215c0358 	cmpcs	ip, r8, asr r3

00001be0 <l1658>:
    1be0:	93780103 	cmnls	r8, #-1073741824	; 0xc0000000

00001be4 <l1659>:
    1be4:	617b0a49 	cmnvs	fp, r9, asr #20

00001be8 <l1660>:
    1be8:	6206572d 	andvs	r5, r6, #11796480	; 0xb40000

00001bec <l1661>:
    1bec:	42eeb54a 	rscmi	fp, lr, #310378496	; 0x12800000

00001bf0 <l1662>:
    1bf0:	e1a00000 	nop			; (mov r0, r0)

00001bf4 <l1663>:
    1bf4:	e1cd31b0 	strh	r3, [sp, #16]

00001bf8 <l1664>:
    1bf8:	e59d2038 	ldr	r2, [sp, #56]	; 0x38

00001bfc <l1665>:
    1bfc:	e0c4501a 	sbc	r5, r4, sl, lsl r0

00001c00 <l1666>:
    1c00:	814db0b4 	strhhi	fp, [sp, #-4]

00001c04 <l1667>:
    1c04:	e1ddb1f6 	ldrsh	fp, [sp, #22]

00001c08 <l1668>:
    1c08:	8058e31a 	subshi	lr, r8, sl, lsl r3

00001c0c <l1669>:
    1c0c:	81dde0f0 	ldrshhi	lr, [sp]

00001c10 <l1670>:
    1c10:	e26eeab7 	rsb	lr, lr, #749568	; 0xb7000

00001c14 <l1671>:
    1c14:	c0594009 	subsgt	r4, r9, r9

00001c18 <l1672>:
    1c18:	e3a0601e 	mov	r6, #30

00001c1c <l1673>:
    1c1c:	819d50f6 	ldrshhi	r5, [sp, r6]

00001c20 <l1674>:
    1c20:	7affffff 	bvc	1c24 <l1675>

00001c24 <l1675>:
    1c24:	716f4f1c 	clzvc	r4, ip

00001c28 <l1676>:
    1c28:	90238008 	eorls	r8, r3, r8

00001c2c <l1677>:
    1c2c:	71cb4009 	bicvc	r4, fp, r9

00001c30 <l1678>:
    1c30:	e1a00000 	nop			; (mov r0, r0)

00001c34 <l1679>:
    1c34:	e1d36007 	bics	r6, r3, r7

00001c38 <l1680>:
    1c38:	c08c250c 	addgt	r2, ip, ip, lsl #10

00001c3c <l1681>:
    1c3c:	1052e112 	subsne	lr, r2, r2, lsl r1

00001c40 <l1682>:
    1c40:	01150e4a 	tsteq	r5, sl, asr #28

00001c44 <l1683>:
    1c44:	e3a0503f 	mov	r5, #63	; 0x3f

00001c48 <l1684>:
    1c48:	e7dd3005 	ldrb	r3, [sp, r5]

00001c4c <l1685>:
    1c4c:	e3a00000 	mov	r0, #0

00001c50 <l1686>:
    1c50:	07cd4000 	strbeq	r4, [sp, r0]

00001c54 <l1687>:
    1c54:	e3d65bde 	bics	r5, r6, #227328	; 0x37800

00001c58 <l1688>:
    1c58:	ea000005 	b	1c74 <l1695>

00001c5c <l1689>:
    1c5c:	e2801066 	add	r1, r0, #102	; 0x66

00001c60 <l1690>:
    1c60:	e0f5a0a6 	rscs	sl, r5, r6, lsr #1

00001c64 <l1691>:
    1c64:	d0815009 	addle	r5, r1, r9

00001c68 <l1692>:
    1c68:	30470251 	subcc	r0, r7, r1, asr r2

00001c6c <l1693>:
    1c6c:	e0f5a437 	rscs	sl, r5, r7, lsr r4

00001c70 <l1694>:
    1c70:	ea000000 	b	1c78 <l1696>

00001c74 <l1695>:
    1c74:	eafffff9 	b	1c60 <l1690>

00001c78 <l1696>:
    1c78:	3a000004 	bcc	1c90 <l1702>

00001c7c <l1697>:
    1c7c:	e1360069 	teq	r6, r9, rrx

00001c80 <l1698>:
    1c80:	e1f0443b 	mvns	r4, fp, lsr r4

00001c84 <l1699>:
    1c84:	b382e2de 	orrlt	lr, r2, #-536870899	; 0xe000000d

00001c88 <l1700>:
    1c88:	e046b000 	sub	fp, r6, r0

00001c8c <l1701>:
    1c8c:	e05bce6e 	subs	ip, fp, lr, ror #28

00001c90 <l1702>:
    1c90:	e06c6068 	rsb	r6, ip, r8, rrx

00001c94 <l1703>:
    1c94:	e5cd802d 	strb	r8, [sp, #45]	; 0x2d

00001c98 <l1704>:
    1c98:	11740fe2 	cmnne	r4, r2, ror #31

00001c9c <l1705>:
    1c9c:	c11b0c33 	tstgt	fp, r3, lsr ip

00001ca0 <l1706>:
    1ca0:	e3b02365 	movs	r2, #-1811939327	; 0x94000001

00001ca4 <l1707>:
    1ca4:	e218262b 	ands	r2, r8, #45088768	; 0x2b00000

00001ca8 <l1708>:
    1ca8:	a17703ef 	cmnge	r7, pc, ror #7

00001cac <l1709>:
    1cac:	e1190149 	tst	r9, r9, asr #2

00001cb0 <l1710>:
    1cb0:	e1f0200c 	mvns	r2, ip

00001cb4 <l1711>:
    1cb4:	e3a02018 	mov	r2, #24

00001cb8 <l1712>:
    1cb8:	e69da002 	ldr	sl, [sp], r2

00001cbc <l1713>:
    1cbc:	e93d41c4 	ldmdb	sp!, {r2, r6, r7, r8, lr}

00001cc0 <l1714>:
    1cc0:	6195700e 	orrsvs	r7, r5, lr

00001cc4 <l1715>:
    1cc4:	c05e900c 	subsgt	r9, lr, ip

00001cc8 <l1716>:
    1cc8:	4191206f 	orrsmi	r2, r1, pc, rrx

00001ccc <l1717>:
    1ccc:	51dd23d1 	ldrsbpl	r2, [sp, #49]	; 0x31

00001cd0 <l1718>:
    1cd0:	e1770506 	cmn	r7, r6, lsl #10

00001cd4 <l1719>:
    1cd4:	127eb289 	rsbsne	fp, lr, #-1879048184	; 0x90000008

00001cd8 <l1720>:
    1cd8:	e3a06004 	mov	r6, #4

00001cdc <l1721>:
    1cdc:	e7bde006 	ldr	lr, [sp, r6]!

00001ce0 <l1722>:
    1ce0:	2a000008 	bcs	1d08 <l1732>

00001ce4 <l1723>:
    1ce4:	71540d20 	cmpvc	r4, r0, lsr #26

00001ce8 <l1724>:
    1ce8:	e2d07432 	sbcs	r7, r0, #838860800	; 0x32000000

00001cec <l1725>:
    1cec:	e1b012ef 	rors	r1, pc, #5

00001cf0 <l1726>:
    1cf0:	63a0020b 	movvs	r0, #-1342177280	; 0xb0000000

00001cf4 <l1727>:
    1cf4:	b3c00902 	biclt	r0, r0, #32768	; 0x8000

00001cf8 <l1728>:
    1cf8:	e2c3b33a 	sbc	fp, r3, #-402653184	; 0xe8000000

00001cfc <l1729>:
    1cfc:	52c59d07 	sbcpl	r9, r5, #448	; 0x1c0

00001d00 <l1730>:
    1d00:	80224065 	eorhi	r4, r2, r5, rrx

00001d04 <l1731>:
    1d04:	e1b01c70 	rors	r1, r0, ip

00001d08 <l1732>:
    1d08:	e0016001 	and	r6, r1, r1

00001d0c <l1733>:
    1d0c:	b3ca6073 	biclt	r6, sl, #115	; 0x73

00001d10 <l1734>:
    1d10:	e0205bae 	eor	r5, r0, lr, lsr #23

00001d14 <l1735>:
    1d14:	e3a03022 	mov	r3, #34	; 0x22

00001d18 <l1736>:
    1d18:	e18de0b3 	strh	lr, [sp, r3]

00001d1c <l1737>:
    1d1c:	40247004 	eormi	r7, r4, r4

00001d20 <l1738>:
    1d20:	e59f0000 	ldr	r0, [pc]	; 1d28 <l1740>

00001d24 <l1739>:
    1d24:	ea000000 	b	1d2c <l1741>

00001d28 <l1740>:
    1d28:	000fffa4 	.word	0x000fffa4

00001d2c <l1741>:
    1d2c:	d100c094 	swple	ip, r4, [r0]

00001d30 <l1742>:
    1d30:	e59f1000 	ldr	r1, [pc]	; 1d38 <l1744>

00001d34 <l1743>:
    1d34:	ea000000 	b	1d3c <l1745>

00001d38 <l1744>:
    1d38:	000fffc4 	.word	0x000fffc4

00001d3c <l1745>:
    1d3c:	7141c096 	swpbvc	ip, r6, [r1]

00001d40 <l1746>:
    1d40:	80ceb967 	sbchi	fp, lr, r7, ror #18

00001d44 <l1747>:
    1d44:	e034aeaa 	eors	sl, r4, sl, lsr #29

00001d48 <l1748>:
    1d48:	51f0106a 	mvnspl	r1, sl, rrx

00001d4c <l1749>:
    1d4c:	e0eb260c 	rsc	r2, fp, ip, lsl #12

00001d50 <l1750>:
    1d50:	e16f8f1a 	clz	r8, sl

00001d54 <l1751>:
    1d54:	45ddb00d 	ldrbmi	fp, [sp, #13]

00001d58 <l1752>:
    1d58:	40fc5001 	rscsmi	r5, ip, r1

00001d5c <l1753>:
    1d5c:	e3a09011 	mov	r9, #17

00001d60 <l1754>:
    1d60:	019da0d9 	ldrsbeq	sl, [sp, r9]

00001d64 <l1755>:
    1d64:	9002b342 	andls	fp, r2, r2, asr #6

00001d68 <l1756>:
    1d68:	491d0404 	ldmdbmi	sp, {r2, sl}

00001d6c <l1757>:
    1d6c:	b1310034 	teqlt	r1, r4, lsr r0

00001d70 <l1758>:
    1d70:	e1c2a067 	bic	sl, r2, r7, rrx

00001d74 <l1759>:
    1d74:	e3a07010 	mov	r7, #16

00001d78 <l1760>:
    1d78:	77dd6007 	ldrbvc	r6, [sp, r7]

00001d7c <l1761>:
    1d7c:	e59fe000 	ldr	lr, [pc]	; 1d84 <l1763>

00001d80 <l1762>:
    1d80:	ea000000 	b	1d88 <l1764>

00001d84 <l1763>:
    1d84:	000fffb0 	.word	0x000fffb0

00001d88 <l1764>:
    1d88:	c14ea096 	swpbgt	sl, r6, [lr]

00001d8c <l1765>:
    1d8c:	02385619 	eorseq	r5, r8, #26214400	; 0x1900000

00001d90 <l1766>:
    1d90:	e017a007 	ands	sl, r7, r7

00001d94 <l1767>:
    1d94:	e39c02f6 	orrs	r0, ip, #1610612751	; 0x6000000f

00001d98 <l1768>:
    1d98:	e37e0c33 	cmn	lr, #13056	; 0x3300

00001d9c <l1769>:
    1d9c:	c1b0900f 	movsgt	r9, pc

00001da0 <l1770>:
    1da0:	70a6900b 	adcvc	r9, r6, fp

00001da4 <l1771>:
    1da4:	00756062 	rsbseq	r6, r5, r2, rrx

00001da8 <l1772>:
    1da8:	b2a4a19e 	adclt	sl, r4, #-2147483609	; 0x80000027

00001dac <l1773>:
    1dac:	51806060 	orrpl	r6, r0, r0, rrx

00001db0 <l1774>:
    1db0:	e59f8000 	ldr	r8, [pc]	; 1db8 <l1776>

00001db4 <l1775>:
    1db4:	ea000000 	b	1dbc <l1777>

00001db8 <l1776>:
    1db8:	000fffb8 	.word	0x000fffb8

00001dbc <l1777>:
    1dbc:	51483097 	swpbpl	r3, r7, [r8]

00001dc0 <l1778>:
    1dc0:	e1a00000 	nop			; (mov r0, r0)

00001dc4 <l1779>:
    1dc4:	e3a00007 	mov	r0, #7

00001dc8 <l1780>:
    1dc8:	275d1000 	ldrbcs	r1, [sp, -r0]

00001dcc <l1781>:
    1dcc:	e3a09007 	mov	r9, #7

00001dd0 <l1782>:
    1dd0:	775d7009 	ldrbvc	r7, [sp, -r9]

00001dd4 <l1783>:
    1dd4:	411b000f 	tstmi	fp, pc

00001dd8 <l1784>:
    1dd8:	631c03d7 	tstvs	ip, #1543503875	; 0x5c000003

00001ddc <l1785>:
    1ddc:	e3a02020 	mov	r2, #32

00001de0 <l1786>:
    1de0:	e7dd9002 	ldrb	r9, [sp, r2]

00001de4 <l1787>:
    1de4:	41e0000f 	mvnmi	r0, pc

00001de8 <l1788>:
    1de8:	e35604cf 	cmp	r6, #-822083584	; 0xcf000000

00001dec <l1789>:
    1dec:	e5dd8023 	ldrb	r8, [sp, #35]	; 0x23

00001df0 <l1790>:
    1df0:	716f7f15 	clzvc	r7, r5

00001df4 <l1791>:
    1df4:	aa000007 	bge	1e18 <l1800>

00001df8 <l1792>:
    1df8:	e2f97201 	rscs	r7, r9, #268435456	; 0x10000000

00001dfc <l1793>:
    1dfc:	e028ccee 	eor	ip, r8, lr, ror #25

00001e00 <l1794>:
    1e00:	6136000c 	teqvs	r6, ip

00001e04 <l1795>:
    1e04:	e0c91060 	sbc	r1, r9, r0, rrx

00001e08 <l1796>:
    1e08:	b19e800c 	orrslt	r8, lr, ip

00001e0c <l1797>:
    1e0c:	c0563003 	subsgt	r3, r6, r3

00001e10 <l1798>:
    1e10:	416f0f13 	clzmi	r0, r3

00001e14 <l1799>:
    1e14:	516faf1c 	clzpl	sl, ip

00001e18 <l1800>:
    1e18:	b2563326 	subslt	r3, r6, #-1744830464	; 0x98000000

00001e1c <l1801>:
    1e1c:	01819f4a 	orreq	r9, r1, sl, asr #30

00001e20 <l1802>:
    1e20:	e2b2775d 	adcs	r7, r2, #24379392	; 0x1740000

00001e24 <l1803>:
    1e24:	e5cda01a 	strb	sl, [sp, #26]

00001e28 <l1804>:
    1e28:	e3a0202c 	mov	r2, #44	; 0x2c

00001e2c <l1805>:
    1e2c:	e7ad8002 	str	r8, [sp, r2]!

00001e30 <l1806>:
    1e30:	b0632570 	rsblt	r2, r3, r0, ror r5

00001e34 <l1807>:
    1e34:	121c09a2 	andsne	r0, ip, #2654208	; 0x288000

00001e38 <l1808>:
    1e38:	0178006c 	cmneq	r8, ip, rrx

00001e3c <l1809>:
    1e3c:	425a5ff5 	subsmi	r5, sl, #980	; 0x3d4

00001e40 <l1810>:
    1e40:	e90d0204 	stmdb	sp, {r2, r9}

00001e44 <l1811>:
    1e44:	1a000003 	bne	1e58 <l1816>

00001e48 <l1812>:
    1e48:	e2801015 	add	r1, r0, #21

00001e4c <l1813>:
    1e4c:	e1370004 	teq	r7, r4

00001e50 <l1814>:
    1e50:	e1570bc9 	cmp	r7, r9, asr #23

00001e54 <l1815>:
    1e54:	ea000000 	b	1e5c <l1817>

00001e58 <l1816>:
    1e58:	eafffffb 	b	1e4c <l1813>

00001e5c <l1817>:
    1e5c:	e3a05008 	mov	r5, #8

00001e60 <l1818>:
    1e60:	e19d80b5 	ldrh	r8, [sp, r5]

00001e64 <l1819>:
    1e64:	e55d3017 	ldrb	r3, [sp, #-23]

00001e68 <l1820>:
    1e68:	481d54bd 	ldmdami	sp, {r0, r2, r3, r4, r5, r7, sl, ip, lr}

00001e6c <l1821>:
    1e6c:	e59f6000 	ldr	r6, [pc]	; 1e74 <l1823>

00001e70 <l1822>:
    1e70:	ea000000 	b	1e78 <l1824>

00001e74 <l1823>:
    1e74:	000fffa4 	.word	0x000fffa4

00001e78 <l1824>:
    1e78:	6146009c 	swpbvs	r0, ip, [r6]

00001e7c <l1825>:
    1e7c:	e0efb008 	rsc	fp, pc, r8

00001e80 <l1826>:
    1e80:	41dd40dd 	ldrsbmi	r4, [sp, #13]

00001e84 <l1827>:
    1e84:	a193106c 	orrsge	r1, r3, ip, rrx

00001e88 <l1828>:
    1e88:	ea000002 	b	1e98 <l1832>

00001e8c <l1829>:
    1e8c:	70883682 	addvc	r3, r8, r2, lsl #13

00001e90 <l1830>:
    1e90:	e15808eb 	cmp	r8, fp, ror #17

00001e94 <l1831>:
    1e94:	e01f100c 	ands	r1, pc, ip

00001e98 <l1832>:
    1e98:	20495503 	subcs	r5, r9, r3, lsl #10

00001e9c <l1833>:
    1e9c:	d15d11d7 	ldrsble	r1, [sp, #-23]	; 0xffffffe9

00001ea0 <l1834>:
    1ea0:	354d4030 	strbcc	r4, [sp, #-48]	; 0x30

00001ea4 <l1835>:
    1ea4:	91780751 	cmnls	r8, r1, asr r7

00001ea8 <l1836>:
    1ea8:	e15da3b0 	ldrh	sl, [sp, #-48]	; 0xffffffd0

00001eac <l1837>:
    1eac:	e16f8f1e 	clz	r8, lr

00001eb0 <l1838>:
    1eb0:	9a000002 	bls	1ec0 <l1842>

00001eb4 <l1839>:
    1eb4:	e280105c 	add	r1, r0, #92	; 0x5c

00001eb8 <l1840>:
    1eb8:	e1b08003 	movs	r8, r3

00001ebc <l1841>:
    1ebc:	ea000000 	b	1ec4 <l1843>

00001ec0 <l1842>:
    1ec0:	eafffffc 	b	1eb8 <l1840>

00001ec4 <l1843>:
    1ec4:	e59f3000 	ldr	r3, [pc]	; 1ecc <l1845>

00001ec8 <l1844>:
    1ec8:	ea000000 	b	1ed0 <l1846>

00001ecc <l1845>:
    1ecc:	000fffc8 	.word	0x000fffc8

00001ed0 <l1846>:
    1ed0:	e1437094 	swpb	r7, r4, [r3]

00001ed4 <l1847>:
    1ed4:	e3a05006 	mov	r5, #6

00001ed8 <l1848>:
    1ed8:	919d20f5 	ldrshls	r2, [sp, r5]

00001edc <l1849>:
    1edc:	a15da2f4 	ldrshge	sl, [sp, #-36]	; 0xffffffdc

00001ee0 <l1850>:
    1ee0:	a15dc1f0 	ldrshge	ip, [sp, #-16]

00001ee4 <l1851>:
    1ee4:	e15dc3d7 	ldrsb	ip, [sp, #-55]	; 0xffffffc9

00001ee8 <l1852>:
    1ee8:	c1dc0002 	bicsgt	r0, ip, r2

00001eec <l1853>:
    1eec:	b3a0b0df 	movlt	fp, #223	; 0xdf

00001ef0 <l1854>:
    1ef0:	e15d61fe 	ldrsh	r6, [sp, #-30]	; 0xffffffe2

00001ef4 <l1855>:
    1ef4:	3050800b 	subscc	r8, r0, fp

00001ef8 <l1856>:
    1ef8:	591d57bf 	ldmdbpl	sp, {r0, r1, r2, r3, r4, r5, r7, r8, r9, sl, ip, lr}

00001efc <l1857>:
    1efc:	e04e94cc 	sub	r9, lr, ip, asr #9

00001f00 <l1858>:
    1f00:	b55d402a 	ldrblt	r4, [sp, #-42]	; 0x2a

00001f04 <l1859>:
    1f04:	e02a3e3e 	eor	r3, sl, lr, lsr lr

00001f08 <l1860>:
    1f08:	aa000003 	bge	1f1c <l1865>

00001f0c <l1861>:
    1f0c:	e2801092 	add	r1, r0, #146	; 0x92

00001f10 <l1862>:
    1f10:	11f04b32 	mvnsne	r4, r2, lsr fp

00001f14 <l1863>:
    1f14:	41300785 	teqmi	r0, r5, lsl #15

00001f18 <l1864>:
    1f18:	ea000000 	b	1f20 <l1866>

00001f1c <l1865>:
    1f1c:	eafffffb 	b	1f10 <l1862>

00001f20 <l1866>:
    1f20:	e9bd0500 	ldmib	sp!, {r8, sl}

00001f24 <l1867>:
    1f24:	e3790b3f 	cmn	r9, #64512	; 0xfc00

00001f28 <l1868>:
    1f28:	e00a5006 	and	r5, sl, r6

00001f2c <l1869>:
    1f2c:	e15d02d8 	ldrsb	r0, [sp, #-40]	; 0xffffffd8

00001f30 <l1870>:
    1f30:	a395cde9 	orrsge	ip, r5, #14912	; 0x3a40

00001f34 <l1871>:
    1f34:	c1c47142 	bicgt	r7, r4, r2, asr #2

00001f38 <l1872>:
    1f38:	e52df008 	str	pc, [sp, #-8]!

00001f3c <l1873>:
    1f3c:	e3a03000 	mov	r3, #0

00001f40 <l1874>:
    1f40:	e68d9003 	str	r9, [sp], r3

00001f44 <l1875>:
    1f44:	80ae2000 	adchi	r2, lr, r0

00001f48 <l1876>:
    1f48:	e59f4000 	ldr	r4, [pc]	; 1f50 <l1878>

00001f4c <l1877>:
    1f4c:	ea000000 	b	1f54 <l1879>

00001f50 <l1878>:
    1f50:	000fffb8 	.word	0x000fffb8

00001f54 <l1879>:
    1f54:	e104b093 	swp	fp, r3, [r4]

00001f58 <l1880>:
    1f58:	e59f1000 	ldr	r1, [pc]	; 1f60 <l1882>

00001f5c <l1881>:
    1f5c:	ea000000 	b	1f64 <l1883>

00001f60 <l1882>:
    1f60:	000fffe4 	.word	0x000fffe4

00001f64 <l1883>:
    1f64:	e1019092 	swp	r9, r2, [r1]

00001f68 <l1884>:
    1f68:	e9ad1000 	stmib	sp!, {ip}

00001f6c <l1885>:
    1f6c:	051d303c 	ldreq	r3, [sp, #-60]	; 0x3c

00001f70 <l1886>:
    1f70:	e3cc9003 	bic	r9, ip, #3

00001f74 <l1887>:
    1f74:	e1c1500e 	bic	r5, r1, lr

00001f78 <l1888>:
    1f78:	61d9b004 	bicsvs	fp, r9, r4

00001f7c <l1889>:
    1f7c:	e1c352c6 	bic	r5, r3, r6, asr #5

00001f80 <l1890>:
    1f80:	e83d5b76 	ldmda	sp!, {r1, r2, r4, r5, r6, r8, r9, fp, ip, lr}

00001f84 <l1891>:
    1f84:	e13b0e51 	teq	fp, r1, asr lr

00001f88 <l1892>:
    1f88:	e1d822a9 	bics	r2, r8, r9, lsr #5

00001f8c <l1893>:
    1f8c:	ea000006 	b	1fac <l1901>

00001f90 <l1894>:
    1f90:	e2801059 	add	r1, r0, #89	; 0x59

00001f94 <l1895>:
    1f94:	017a01ce 	cmneq	sl, lr, asr #3

00001f98 <l1896>:
    1f98:	a2ae160e 	adcge	r1, lr, #14680064	; 0xe00000

00001f9c <l1897>:
    1f9c:	e080e006 	add	lr, r0, r6

00001fa0 <l1898>:
    1fa0:	328483ab 	addcc	r8, r4, #-1409286142	; 0xac000002

00001fa4 <l1899>:
    1fa4:	e0e89000 	rsc	r9, r8, r0

00001fa8 <l1900>:
    1fa8:	ea000000 	b	1fb0 <l1902>

00001fac <l1901>:
    1fac:	eafffff8 	b	1f94 <l1895>

00001fb0 <l1902>:
    1fb0:	8189200f 	orrhi	r2, r9, pc

00001fb4 <l1903>:
    1fb4:	e1875d80 	orr	r5, r7, r0, lsl #27

00001fb8 <l1904>:
    1fb8:	52b324ed 	adcspl	r2, r3, #-318767104	; 0xed000000

00001fbc <l1905>:
    1fbc:	e048a854 	sub	sl, r8, r4, asr r8

00001fc0 <l1906>:
    1fc0:	e59f8000 	ldr	r8, [pc]	; 1fc8 <l1908>

00001fc4 <l1907>:
    1fc4:	ea000000 	b	1fcc <l1909>

00001fc8 <l1908>:
    1fc8:	000fffe4 	.word	0x000fffe4

00001fcc <l1909>:
    1fcc:	a108e094 	swpge	lr, r4, [r8]

00001fd0 <l1910>:
    1fd0:	e59fe000 	ldr	lr, [pc]	; 1fd8 <l1912>

00001fd4 <l1911>:
    1fd4:	ea000000 	b	1fdc <l1913>

00001fd8 <l1912>:
    1fd8:	000fffac 	.word	0x000fffac

00001fdc <l1913>:
    1fdc:	e14e909a 	swpb	r9, sl, [lr]

00001fe0 <l1914>:
    1fe0:	e1a00000 	nop			; (mov r0, r0)

00001fe4 <l1915>:
    1fe4:	e11a0064 	tst	sl, r4, rrx

00001fe8 <l1916>:
    1fe8:	958df00c 	strls	pc, [sp, #12]

00001fec <l1917>:
    1fec:	e0db52af 	sbcs	r5, fp, pc, lsr #5

00001ff0 <l1918>:
    1ff0:	e3a06026 	mov	r6, #38	; 0x26

00001ff4 <l1919>:
    1ff4:	819d00b6 	ldrhhi	r0, [sp, r6]

00001ff8 <l1920>:
    1ff8:	b5cd600f 	strblt	r6, [sp, #15]

00001ffc <l1921>:
    1ffc:	51a0438e 	lslpl	r4, lr, #7

00002000 <l1922>:
    2000:	70d05833 	sbcsvc	r5, r0, r3, lsr r8

00002004 <l1923>:
    2004:	e8bd4001 	pop	{r0, lr}

00002008 <l1924>:
    2008:	854d000e 	strbhi	r0, [sp, #-14]

0000200c <l1925>:
    200c:	115f0009 	cmpne	pc, r9

00002010 <l1926>:
    2010:	e3a08008 	mov	r8, #8

00002014 <l1927>:
    2014:	e7bde008 	ldr	lr, [sp, r8]!

00002018 <l1928>:
    2018:	d1dd70b4 	ldrhle	r7, [sp, #4]

0000201c <l1929>:
    201c:	20b01004 	adcscs	r1, r0, r4

00002020 <l1930>:
    2020:	e3a06023 	mov	r6, #35	; 0x23

00002024 <l1931>:
    2024:	e7cd0006 	strb	r0, [sp, r6]

00002028 <l1932>:
    2028:	ea000002 	b	2038 <l1936>

0000202c <l1933>:
    202c:	e0c36061 	sbc	r6, r3, r1, rrx

00002030 <l1934>:
    2030:	60b4a234 	adcsvs	sl, r4, r4, lsr r2

00002034 <l1935>:
    2034:	e261000e 	rsb	r0, r1, #14

00002038 <l1936>:
    2038:	e11a06c0 	tst	sl, r0, asr #13

0000203c <l1937>:
    203c:	e3a0201d 	mov	r2, #29

00002040 <l1938>:
    2040:	e75d4002 	ldrb	r4, [sp, -r2]

00002044 <l1939>:
    2044:	d3f09c1f 	mvnsle	r9, #7936	; 0x1f00

00002048 <l1940>:
    2048:	11c7800f 	bicne	r8, r7, pc

0000204c <l1941>:
    204c:	e3a02027 	mov	r2, #39	; 0x27

00002050 <l1942>:
    2050:	611db0d2 	ldrsbvs	fp, [sp, -r2]

00002054 <l1943>:
    2054:	6270c801 	rsbsvs	ip, r0, #65536	; 0x10000

00002058 <l1944>:
    2058:	e59f5000 	ldr	r5, [pc]	; 2060 <l1946>

0000205c <l1945>:
    205c:	ea000000 	b	2064 <l1947>

00002060 <l1946>:
    2060:	000fffb8 	.word	0x000fffb8

00002064 <l1947>:
    2064:	2105a09a 	swpcs	sl, sl, [r5]

00002068 <l1948>:
    2068:	e0202e8a 	eor	r2, r0, sl, lsl #29

0000206c <l1949>:
    206c:	a097200b 	addsge	r2, r7, fp

00002070 <l1950>:
    2070:	e19f2006 	orrs	r2, pc, r6

00002074 <l1951>:
    2074:	21cd00be 	strhcs	r0, [sp, #14]

00002078 <l1952>:
    2078:	716f9f1e 	clzvc	r9, lr

0000207c <l1953>:
    207c:	ea000005 	b	2098 <l1960>

00002080 <l1954>:
    2080:	e2801024 	add	r1, r0, #36	; 0x24

00002084 <l1955>:
    2084:	e0d5806b 	sbcs	r8, r5, fp, rrx

00002088 <l1956>:
    2088:	e05fa58e 	subs	sl, pc, lr, lsl #11

0000208c <l1957>:
    208c:	e0398003 	eors	r8, r9, r3

00002090 <l1958>:
    2090:	e22f282e 	eor	r2, pc, #3014656	; 0x2e0000

00002094 <l1959>:
    2094:	ea000000 	b	209c <l1961>

00002098 <l1960>:
    2098:	eafffff9 	b	2084 <l1955>

0000209c <l1961>:
    209c:	e3a08020 	mov	r8, #32

000020a0 <l1962>:
    20a0:	e7cd6008 	strb	r6, [sp, r8]

000020a4 <l1963>:
    20a4:	e3a0a018 	mov	sl, #24

000020a8 <l1964>:
    20a8:	619d40da 	ldrsbvs	r4, [sp, sl]

000020ac <l1965>:
    20ac:	d54db01e 	strble	fp, [sp, #-30]

000020b0 <l1966>:
    20b0:	e15db2d8 	ldrsb	fp, [sp, #-40]	; 0xffffffd8

000020b4 <l1967>:
    20b4:	e00b7333 	and	r7, fp, r3, lsr r3

000020b8 <l1968>:
    20b8:	e3510fed 	cmp	r1, #948	; 0x3b4

000020bc <l1969>:
    20bc:	11a011c5 	asrne	r1, r5, #3

000020c0 <l1970>:
    20c0:	e5dde01a 	ldrb	lr, [sp, #26]

000020c4 <l1971>:
    20c4:	e0f11b8a 	rscs	r1, r1, sl, lsl #23

000020c8 <l1972>:
    20c8:	455da026 	ldrbmi	sl, [sp, #-38]	; 0x26

000020cc <l1973>:
    20cc:	4a000004 	bmi	20e4 <l1979>

000020d0 <l1974>:
    20d0:	80545000 	subshi	r5, r4, r0

000020d4 <l1975>:
    20d4:	e3140469 	tst	r4, #1761607680	; 0x69000000

000020d8 <l1976>:
    20d8:	91b03933 	lsrsls	r3, r3, r9

000020dc <l1977>:
    20dc:	403c5438 	eorsmi	r5, ip, r8, lsr r4

000020e0 <l1978>:
    20e0:	a16f4f11 	clzge	r4, r1

000020e4 <l1979>:
    20e4:	d2e63e3f 	rscle	r3, r6, #1008	; 0x3f0

000020e8 <l1980>:
    20e8:	531001e6 	tstpl	r0, #-2147483591	; 0x80000039

000020ec <l1981>:
    20ec:	e39bc0d7 	orrs	ip, fp, #215	; 0xd7

000020f0 <l1982>:
    20f0:	61f0c00e 	mvnsvs	ip, lr

000020f4 <l1983>:
    20f4:	0a000008 	beq	211c <l1993>

000020f8 <l1984>:
    20f8:	e3360e83 	teq	r6, #2096	; 0x830

000020fc <l1985>:
    20fc:	2138025c 	teqcs	r8, ip, asr r2

00002100 <l1986>:
    2100:	719b706a 	orrsvc	r7, fp, sl, rrx

00002104 <l1987>:
    2104:	e0b9b872 	adcs	fp, r9, r2, ror r8

00002108 <l1988>:
    2108:	b19e206b 	orrslt	r2, lr, fp, rrx

0000210c <l1989>:
    210c:	e0f4a55e 	rscs	sl, r4, lr, asr r5

00002110 <l1990>:
    2110:	e29c0637 	adds	r0, ip, #57671680	; 0x3700000

00002114 <l1991>:
    2114:	a067300e 	rsbge	r3, r7, lr

00002118 <l1992>:
    2118:	23f0ad17 	mvnscs	sl, #1472	; 0x5c0

0000211c <l1993>:
    211c:	e1e053cc 	mvn	r5, ip, asr #7

00002120 <l1994>:
    2120:	e3a0200c 	mov	r2, #12

00002124 <l1995>:
    2124:	e11d60d2 	ldrsb	r6, [sp, -r2]

00002128 <l1996>:
    2128:	e3a0a004 	mov	sl, #4

0000212c <l1997>:
    212c:	819d10ba 	ldrhhi	r1, [sp, sl]

00002130 <l1998>:
    2130:	c04f606c 	subgt	r6, pc, ip, rrx

00002134 <l1999>:
    2134:	e29c6098 	adds	r6, ip, #152	; 0x98

00002138 <l2000>:
    2138:	e49d800c 	ldr	r8, [sp], #12

0000213c <l2001>:
    213c:	b55dc011 	ldrblt	ip, [sp, #-17]

00002140 <l2002>:
    2140:	b1140739 	tstlt	r4, r9, lsr r7

00002144 <l2003>:
    2144:	e59f1000 	ldr	r1, [pc]	; 214c <l2005>

00002148 <l2004>:
    2148:	ea000000 	b	2150 <l2006>

0000214c <l2005>:
    214c:	000fffe0 	.word	0x000fffe0

00002150 <l2006>:
    2150:	c101309c 	swpgt	r3, ip, [r1]

00002154 <l2007>:
    2154:	e06c2008 	rsb	r2, ip, r8

00002158 <l2008>:
    2158:	919a5009 	orrsls	r5, sl, r9

0000215c <l2009>:
    215c:	e0ba9152 	adcs	r9, sl, r2, asr r1

00002160 <l2010>:
    2160:	6a000007 	bvs	2184 <l2019>

00002164 <l2011>:
    2164:	e28010a8 	add	r1, r0, #168	; 0xa8

00002168 <l2012>:
    2168:	e03a0c12 	eors	r0, sl, r2, lsl ip

0000216c <l2013>:
    216c:	e1c6e014 	bic	lr, r6, r4, lsl r0

00002170 <l2014>:
    2170:	800cb003 	andhi	fp, ip, r3

00002174 <l2015>:
    2174:	b0521002 	subslt	r1, r2, r2

00002178 <l2016>:
    2178:	a26571d3 	rsbge	r7, r5, #-1073741772	; 0xc0000034

0000217c <l2017>:
    217c:	00ee44cb 	rsceq	r4, lr, fp, asr #9

00002180 <l2018>:
    2180:	ea000000 	b	2188 <l2020>

00002184 <l2019>:
    2184:	eafffff7 	b	2168 <l2012>

00002188 <l2020>:
    2188:	53750a43 	cmnpl	r5, #274432	; 0x43000

0000218c <l2021>:
    218c:	e045700b 	sub	r7, r5, fp

00002190 <l2022>:
    2190:	350d3030 	strcc	r3, [sp, #-48]	; 0x30

00002194 <l2023>:
    2194:	da000007 	ble	21b8 <l2032>

00002198 <l2024>:
    2198:	e06c886a 	rsb	r8, ip, sl, ror #16

0000219c <l2025>:
    219c:	b3d1a11e 	bicslt	sl, r1, #-2147483641	; 0x80000007

000021a0 <l2026>:
    21a0:	701be182 	andsvc	lr, fp, r2, lsl #3

000021a4 <l2027>:
    21a4:	e174006e 	cmn	r4, lr, rrx

000021a8 <l2028>:
    21a8:	e1d6b65e 	bics	fp, r6, lr, asr r6

000021ac <l2029>:
    21ac:	e1790b52 	cmn	r9, r2, asr fp

000021b0 <l2030>:
    21b0:	e19e5060 	orrs	r5, lr, r0, rrx

000021b4 <l2031>:
    21b4:	e1740e1b 	cmn	r4, fp, lsl lr

000021b8 <l2032>:
    21b8:	43f0bc0d 	mvnsmi	fp, #3328	; 0xd00

000021bc <l2033>:
    21bc:	e048200f 	sub	r2, r8, pc

000021c0 <l2034>:
    21c0:	ea000007 	b	21e4 <l2043>

000021c4 <l2035>:
    21c4:	e1750007 	cmn	r5, r7

000021c8 <l2036>:
    21c8:	113f0067 	teqne	pc, r7, rrx

000021cc <l2037>:
    21cc:	d0c95e51 	sbcle	r5, r9, r1, asr lr

000021d0 <l2038>:
    21d0:	711f000f 	tstvc	pc, pc

000021d4 <l2039>:
    21d4:	e17e0008 	cmn	lr, r8

000021d8 <l2040>:
    21d8:	e15e0004 	cmp	lr, r4

000021dc <l2041>:
    21dc:	01110005 	tsteq	r1, r5

000021e0 <l2042>:
    21e0:	e1160333 	tst	r6, r3, lsr r3

000021e4 <l2043>:
    21e4:	71e02916 	mvnvc	r2, r6, lsl r9

000021e8 <l2044>:
    21e8:	61720e39 	cmnvs	r2, r9, lsr lr

000021ec <l2045>:
    21ec:	116fcf17 	clzne	ip, r7

000021f0 <l2046>:
    21f0:	e079a064 	rsbs	sl, r9, r4, rrx

000021f4 <l2047>:
    21f4:	015d11f0 	ldrsheq	r1, [sp, #-16]

000021f8 <l2048>:
    21f8:	e59f3000 	ldr	r3, [pc]	; 2200 <l2050>

000021fc <l2049>:
    21fc:	ea000000 	b	2204 <l2051>

00002200 <l2050>:
    2200:	000fffe0 	.word	0x000fffe0

00002204 <l2051>:
    2204:	e143709c 	swpb	r7, ip, [r3]

00002208 <l2052>:
    2208:	e0f8c069 	rscs	ip, r8, r9, rrx

0000220c <l2053>:
    220c:	e38f5eae 	orr	r5, pc, #2784	; 0xae0

00002210 <l2054>:
    2210:	3a000007 	bcc	2234 <l2063>

00002214 <l2055>:
    2214:	e2801001 	add	r1, r0, #1

00002218 <l2056>:
    2218:	e1b0933b 	lsrs	r9, fp, r3

0000221c <l2057>:
    221c:	e3550d1b 	cmp	r5, #1728	; 0x6c0

00002220 <l2058>:
    2220:	e19fc00a 	orrs	ip, pc, sl

00002224 <l2059>:
    2224:	235f0de5 	cmpcs	pc, #14656	; 0x3940

00002228 <l2060>:
    2228:	31a058cc 	asrcc	r5, ip, #17

0000222c <l2061>:
    222c:	c238b56b 	eorsgt	fp, r8, #448790528	; 0x1ac00000

00002230 <l2062>:
    2230:	ea000000 	b	2238 <l2064>

00002234 <l2063>:
    2234:	eafffff7 	b	2218 <l2056>

00002238 <l2064>:
    2238:	e58d1004 	str	r1, [sp, #4]

0000223c <l2065>:
    223c:	e59fa000 	ldr	sl, [pc]	; 2244 <l2067>

00002240 <l2066>:
    2240:	ea000000 	b	2248 <l2068>

00002244 <l2067>:
    2244:	000fffb0 	.word	0x000fffb0

00002248 <l2068>:
    2248:	e14a7097 	swpb	r7, r7, [sl]

0000224c <l2069>:
    224c:	b07b8009 	rsbslt	r8, fp, r9

00002250 <l2070>:
    2250:	e0086065 	and	r6, r8, r5, rrx

00002254 <l2071>:
    2254:	e20360a0 	and	r6, r3, #160	; 0xa0

00002258 <l2072>:
    2258:	750de018 	strvc	lr, [sp, #-24]

0000225c <l2073>:
    225c:	e50d1014 	str	r1, [sp, #-20]

00002260 <l2074>:
    2260:	e15a0523 	cmp	sl, r3, lsr #10

00002264 <l2075>:
    2264:	61a0ab79 	rorvs	sl, r9, fp

00002268 <l2076>:
    2268:	e1cfa8e0 	bic	sl, pc, r0, ror #17

0000226c <l2077>:
    226c:	8a000001 	bhi	2278 <l2080>

00002270 <l2078>:
    2270:	e152000b 	cmp	r2, fp

00002274 <l2079>:
    2274:	104a903b 	subne	r9, sl, fp, lsr r0

00002278 <l2080>:
    2278:	a16fef1a 	clzge	lr, sl

0000227c <l2081>:
    227c:	a1760a33 	cmnge	r6, r3, lsr sl

00002280 <l2082>:
    2280:	e3a04028 	mov	r4, #40	; 0x28

00002284 <l2083>:
    2284:	e72dc004 	str	ip, [sp, -r4]!

00002288 <l2084>:
    2288:	e3a02003 	mov	r2, #3

0000228c <l2085>:
    228c:	e7cd2002 	strb	r2, [sp, r2]

00002290 <l2086>:
    2290:	a1d923a4 	bicsge	r2, r9, r4, lsr #7

00002294 <l2087>:
    2294:	45dd0020 	ldrbmi	r0, [sp, #32]

00002298 <l2088>:
    2298:	d044800c 	suble	r8, r4, ip

0000229c <l2089>:
    229c:	e58da034 	str	sl, [sp, #52]	; 0x34

000022a0 <l2090>:
    22a0:	e80d0200 	stmda	sp, {r9}

000022a4 <l2091>:
    22a4:	12f11d8a 	rscsne	r1, r1, #8832	; 0x2280

000022a8 <l2092>:
    22a8:	e3a05008 	mov	r5, #8

000022ac <l2093>:
    22ac:	e11dc0d5 	ldrsb	ip, [sp, -r5]

000022b0 <l2094>:
    22b0:	c5cd100a 	strbgt	r1, [sp, #10]

000022b4 <l2095>:
    22b4:	e8ada000 	stmia	sp!, {sp, pc}

000022b8 <l2096>:
    22b8:	71cd10ba 	strhvc	r1, [sp, #10]

000022bc <l2097>:
    22bc:	e82d000b 	stmda	sp!, {r0, r1, r3}

000022c0 <l2098>:
    22c0:	52ba92c3 	adcspl	r9, sl, #805306380	; 0x3000000c

000022c4 <l2099>:
    22c4:	8a000008 	bhi	22ec <l2109>

000022c8 <l2100>:
    22c8:	316f8f1b 	clzcc	r8, fp

000022cc <l2101>:
    22cc:	e1f01007 	mvns	r1, r7

000022d0 <l2102>:
    22d0:	d1b0a009 	movsle	sl, r9

000022d4 <l2103>:
    22d4:	80172006 	andshi	r2, r7, r6

000022d8 <l2104>:
    22d8:	41e03846 	mvnmi	r3, r6, asr #16

000022dc <l2105>:
    22dc:	e0fb9000 	rscs	r9, fp, r0

000022e0 <l2106>:
    22e0:	e0408c09 	sub	r8, r0, r9, lsl #24

000022e4 <l2107>:
    22e4:	70c0a618 	sbcvc	sl, r0, r8, lsl r6

000022e8 <l2108>:
    22e8:	e3550083 	cmp	r5, #131	; 0x83

000022ec <l2109>:
    22ec:	e1580a23 	cmp	r8, r3, lsr #20

000022f0 <l2110>:
    22f0:	e1a00000 	nop			; (mov r0, r0)

000022f4 <l2111>:
    22f4:	e0058068 	and	r8, r5, r8, rrx

000022f8 <l2112>:
    22f8:	30281c17 	eorcc	r1, r8, r7, lsl ip

000022fc <l2113>:
    22fc:	e3a0b038 	mov	fp, #56	; 0x38

00002300 <l2114>:
    2300:	278d300b 	strcs	r3, [sp, fp]

00002304 <l2115>:
    2304:	15cd600d 	strbne	r6, [sp, #13]

00002308 <l2116>:
    2308:	e59fe000 	ldr	lr, [pc]	; 2310 <l2118>

0000230c <l2117>:
    230c:	ea000000 	b	2314 <l2119>

00002310 <l2118>:
    2310:	000fffb0 	.word	0x000fffb0

00002314 <l2119>:
    2314:	514e5096 	swpbpl	r5, r6, [lr]

00002318 <l2120>:
    2318:	e08e5008 	add	r5, lr, r8

0000231c <l2121>:
    231c:	e59f9000 	ldr	r9, [pc]	; 2324 <l2123>

00002320 <l2122>:
    2320:	ea000000 	b	2328 <l2124>

00002324 <l2123>:
    2324:	000fffe8 	.word	0x000fffe8

00002328 <l2124>:
    2328:	e1493090 	swpb	r3, r0, [r9]

0000232c <l2125>:
    232c:	e88d6c03 	stm	sp, {r0, r1, sl, fp, sp, lr}

00002330 <l2126>:
    2330:	e3a01039 	mov	r1, #57	; 0x39

00002334 <l2127>:
    2334:	b19d10d1 	ldrsblt	r1, [sp, r1]

00002338 <l2128>:
    2338:	e1e09066 	mvn	r9, r6, rrx

0000233c <l2129>:
    233c:	e393421b 	orrs	r4, r3, #-1342177279	; 0xb0000001

00002340 <l2130>:
    2340:	e0753a52 	rsbs	r3, r5, r2, asr sl

00002344 <l2131>:
    2344:	e17b02ea 	cmn	fp, sl, ror #5

00002348 <l2132>:
    2348:	e1ddb0b0 	ldrh	fp, [sp]

0000234c <l2133>:
    234c:	e59f2000 	ldr	r2, [pc]	; 2354 <l2135>

00002350 <l2134>:
    2350:	ea000000 	b	2358 <l2136>

00002354 <l2135>:
    2354:	000fffc0 	.word	0x000fffc0

00002358 <l2136>:
    2358:	2142c093 	swpbcs	ip, r3, [r2]

0000235c <l2137>:
    235c:	e3a0402c 	mov	r4, #44	; 0x2c

00002360 <l2138>:
    2360:	e79d7004 	ldr	r7, [sp, r4]

00002364 <l2139>:
    2364:	e3a03018 	mov	r3, #24

00002368 <l2140>:
    2368:	e7bd1003 	ldr	r1, [sp, r3]!

0000236c <l2141>:
    236c:	c2861ba5 	addgt	r1, r6, #168960	; 0x29400

00002370 <l2142>:
    2370:	e3a0200d 	mov	r2, #13

00002374 <l2143>:
    2374:	c11d30d2 	ldrsbgt	r3, [sp, -r2]

00002378 <l2144>:
    2378:	e0fe506a 	rscs	r5, lr, sl, rrx

0000237c <l2145>:
    237c:	e9bd4c44 	ldmib	sp!, {r2, r6, sl, fp, lr}

00002380 <l2146>:
    2380:	a1300e12 	teqge	r0, r2, lsl lr

00002384 <l2147>:
    2384:	015f000f 	cmpeq	pc, pc

00002388 <l2148>:
    2388:	e3a0c024 	mov	ip, #36	; 0x24

0000238c <l2149>:
    238c:	011db0bc 	ldrheq	fp, [sp, -ip]

00002390 <l2150>:
    2390:	a14d91b8 	strhge	r9, [sp, #-24]	; 0xffffffe8

00002394 <l2151>:
    2394:	13380037 	teqne	r8, #55	; 0x37

00002398 <l2152>:
    2398:	e3a0800a 	mov	r8, #10

0000239c <l2153>:
    239c:	17cdb008 	strbne	fp, [sp, r8]

000023a0 <l2154>:
    23a0:	ba000004 	blt	23b8 <l2160>

000023a4 <l2155>:
    23a4:	e2801087 	add	r1, r0, #135	; 0x87

000023a8 <l2156>:
    23a8:	e1b0e006 	movs	lr, r6

000023ac <l2157>:
    23ac:	61540233 	cmpvs	r4, r3, lsr r2

000023b0 <l2158>:
    23b0:	e1a0006f 	rrx	r0, pc

000023b4 <l2159>:
    23b4:	ea000000 	b	23bc <l2161>

000023b8 <l2160>:
    23b8:	eafffffa 	b	23a8 <l2156>

000023bc <l2161>:
    23bc:	b05fe066 	subslt	lr, pc, r6, rrx

000023c0 <l2162>:
    23c0:	e50d201c 	str	r2, [sp, #-28]

000023c4 <l2163>:
    23c4:	e117040a 	tst	r7, sl, lsl #8

000023c8 <l2164>:
    23c8:	e59fe000 	ldr	lr, [pc]	; 23d0 <l2166>

000023cc <l2165>:
    23cc:	ea000000 	b	23d4 <l2167>

000023d0 <l2166>:
    23d0:	000fffb0 	.word	0x000fffb0

000023d4 <l2167>:
    23d4:	e14e6093 	swpb	r6, r3, [lr]

000023d8 <l2168>:
    23d8:	b5cdc012 	strblt	ip, [sp, #18]

000023dc <l2169>:
    23dc:	e3a0201a 	mov	r2, #26

000023e0 <l2170>:
    23e0:	311d00f2 	ldrshcc	r0, [sp, -r2]

000023e4 <l2171>:
    23e4:	51710410 	cmnpl	r1, r0, lsl r4

000023e8 <l2172>:
    23e8:	614db1b0 	strhvs	fp, [sp, #-16]

000023ec <l2173>:
    23ec:	5a000003 	bpl	2400 <l2178>

000023f0 <l2174>:
    23f0:	e28010fe 	add	r1, r0, #254	; 0xfe

000023f4 <l2175>:
    23f4:	30144006 	andscc	r4, r4, r6

000023f8 <l2176>:
    23f8:	61e0e2cc 	mvnvs	lr, ip, asr #5

000023fc <l2177>:
    23fc:	ea000000 	b	2404 <l2179>

00002400 <l2178>:
    2400:	eafffffb 	b	23f4 <l2175>

00002404 <l2179>:
    2404:	c0c04053 	sbcgt	r4, r0, r3, asr r0

00002408 <l2180>:
    2408:	e8ad0909 	stmia	sp!, {r0, r3, r8, fp}

0000240c <l2181>:
    240c:	80d342a9 	sbcshi	r4, r3, r9, lsr #5

00002410 <l2182>:
    2410:	e0f6c25c 	rscs	ip, r6, ip, asr r2

00002414 <l2183>:
    2414:	e41d8040 	ldr	r8, [sp], #-64	; 0x40

00002418 <l2184>:
    2418:	e3a0101c 	mov	r1, #28

0000241c <l2185>:
    241c:	b19d20d1 	ldrsblt	r2, [sp, r1]

00002420 <l2186>:
    2420:	e3a03036 	mov	r3, #54	; 0x36

00002424 <l2187>:
    2424:	919d90b3 	ldrhls	r9, [sp, r3]

00002428 <l2188>:
    2428:	e3a0400c 	mov	r4, #12

0000242c <l2189>:
    242c:	b7cde004 	strblt	lr, [sp, r4]

00002430 <l2190>:
    2430:	008638cc 	addeq	r3, r6, ip, asr #17

00002434 <l2191>:
    2434:	c1879546 	orrgt	r9, r7, r6, asr #10

00002438 <l2192>:
    2438:	d1a0a0e5 	rorle	sl, r5, #1

0000243c <l2193>:
    243c:	ea000007 	b	2460 <l2202>

00002440 <l2194>:
    2440:	81160378 	tsthi	r6, r8, ror r3

00002444 <l2195>:
    2444:	e021100a 	eor	r1, r1, sl

00002448 <l2196>:
    2448:	e052aa38 	subs	sl, r2, r8, lsr sl

0000244c <l2197>:
    244c:	317b033e 	cmncc	fp, lr, lsr r3

00002450 <l2198>:
    2450:	51965006 	orrspl	r5, r6, r6

00002454 <l2199>:
    2454:	311a0008 	tstcc	sl, r8

00002458 <l2200>:
    2458:	121a9020 	andsne	r9, sl, #32

0000245c <l2201>:
    245c:	e07faf41 	rsbs	sl, pc, r1, asr #30

00002460 <l2202>:
    2460:	e054bb1c 	subs	fp, r4, ip, lsl fp

00002464 <l2203>:
    2464:	b1f09a62 	mvnslt	r9, r2, ror #20

00002468 <l2204>:
    2468:	60346067 	eorsvs	r6, r4, r7, rrx

0000246c <l2205>:
    246c:	e5dd6041 	ldrb	r6, [sp, #65]	; 0x41

00002470 <l2206>:
    2470:	117f0d85 	cmnne	pc, r5, lsl #27

00002474 <l2207>:
    2474:	b1cd32b0 	strhlt	r3, [sp, #32]

00002478 <l2208>:
    2478:	4227e6dd 	eormi	lr, r7, #231735296	; 0xdd00000

0000247c <l2209>:
    247c:	61a0b001 	movvs	fp, r1

00002480 <l2210>:
    2480:	40481c67 	submi	r1, r8, r7, ror #24

00002484 <l2211>:
    2484:	e1a00000 	nop			; (mov r0, r0)

00002488 <l2212>:
    2488:	e3a05018 	mov	r5, #24

0000248c <l2213>:
    248c:	e7ad6005 	str	r6, [sp, r5]!

00002490 <l2214>:
    2490:	200a3002 	andcs	r3, sl, r2

00002494 <l2215>:
    2494:	e59fa000 	ldr	sl, [pc]	; 249c <l2217>

00002498 <l2216>:
    2498:	ea000000 	b	24a0 <l2218>

0000249c <l2217>:
    249c:	000fffa8 	.word	0x000fffa8

000024a0 <l2218>:
    24a0:	e10a1098 	swp	r1, r8, [sl]

000024a4 <l2219>:
    24a4:	e1710288 	cmn	r1, r8, lsl #5

000024a8 <l2220>:
    24a8:	e1a00000 	nop			; (mov r0, r0)

000024ac <l2221>:
    24ac:	9232990b 	eorsls	r9, r2, #180224	; 0x2c000

000024b0 <l2222>:
    24b0:	e3a0c012 	mov	ip, #18

000024b4 <l2223>:
    24b4:	075d400c 	ldrbeq	r4, [sp, -ip]

000024b8 <l2224>:
    24b8:	e3a05015 	mov	r5, #21

000024bc <l2225>:
    24bc:	e11d20d5 	ldrsb	r2, [sp, -r5]

000024c0 <l2226>:
    24c0:	b006106b 	andlt	r1, r6, fp, rrx

000024c4 <l2227>:
    24c4:	ea000007 	b	24e8 <l2236>

000024c8 <l2228>:
    24c8:	e28010af 	add	r1, r0, #175	; 0xaf

000024cc <l2229>:
    24cc:	e352063e 	cmp	r2, #65011712	; 0x3e00000

000024d0 <l2230>:
    24d0:	d0d0064a 	sbcsle	r0, r0, sl, asr #12

000024d4 <l2231>:
    24d4:	e29fb937 	adds	fp, pc, #901120	; 0xdc000

000024d8 <l2232>:
    24d8:	115e0005 	cmpne	lr, r5

000024dc <l2233>:
    24dc:	10790577 	rsbsne	r0, r9, r7, ror r5

000024e0 <l2234>:
    24e0:	123bb346 	eorsne	fp, fp, #402653185	; 0x18000001

000024e4 <l2235>:
    24e4:	ea000000 	b	24ec <l2237>

000024e8 <l2236>:
    24e8:	eafffff7 	b	24cc <l2229>

000024ec <l2237>:
    24ec:	21c05f8f 	biccs	r5, r0, pc, lsl #31

000024f0 <l2238>:
    24f0:	73c346b7 	bicvc	r4, r3, #191889408	; 0xb700000

000024f4 <l2239>:
    24f4:	d3190536 	tstle	r9, #226492416	; 0xd800000

000024f8 <l2240>:
    24f8:	e3a08004 	mov	r8, #4

000024fc <l2241>:
    24fc:	911da0f8 	ldrshls	sl, [sp, -r8]

00002500 <l2242>:
    2500:	e59fb000 	ldr	fp, [pc]	; 2508 <l2244>

00002504 <l2243>:
    2504:	ea000000 	b	250c <l2245>

00002508 <l2244>:
    2508:	000fffd4 	.word	0x000fffd4

0000250c <l2245>:
    250c:	510b9092 	swppl	r9, r2, [fp]

00002510 <l2246>:
    2510:	e3a01009 	mov	r1, #9

00002514 <l2247>:
    2514:	b7dd5001 	ldrblt	r5, [sp, r1]

00002518 <l2248>:
    2518:	21891b3e 	orrcs	r1, r9, lr, lsr fp

0000251c <l2249>:
    251c:	a26b1bef 	rsbge	r1, fp, #244736	; 0x3bc00

00002520 <l2250>:
    2520:	a0d4a005 	sbcsge	sl, r4, r5

00002524 <l2251>:
    2524:	e3a00014 	mov	r0, #20

00002528 <l2252>:
    2528:	e60db000 	str	fp, [sp], -r0

0000252c <l2253>:
    252c:	e185bb7a 	orr	fp, r5, sl, ror fp

00002530 <l2254>:
    2530:	c16f4f18 	clzgt	r4, r8

00002534 <l2255>:
    2534:	c3f07701 	mvnsgt	r7, #262144	; 0x40000

00002538 <l2256>:
    2538:	40b31061 	adcsmi	r1, r3, r1, rrx

0000253c <l2257>:
    253c:	e5ddc010 	ldrb	ip, [sp, #16]

00002540 <l2258>:
    2540:	3a000004 	bcc	2558 <l2264>

00002544 <l2259>:
    2544:	50dce00a 	sbcspl	lr, ip, sl

00002548 <l2260>:
    2548:	e0e31f82 	rsc	r1, r3, r2, lsl #31

0000254c <l2261>:
    254c:	10ba874c 	adcsne	r8, sl, ip, asr #14

00002550 <l2262>:
    2550:	91e08000 	mvnls	r8, r0

00002554 <l2263>:
    2554:	71590e55 	cmpvc	r9, r5, asr lr

00002558 <l2264>:
    2558:	e0dcc002 	sbcs	ip, ip, r2

0000255c <l2265>:
    255c:	915d20d8 	ldrsbls	r2, [sp, #-8]

00002560 <l2266>:
    2560:	b24f1201 	sublt	r1, pc, #268435456	; 0x10000000

00002564 <l2267>:
    2564:	e1a00000 	nop			; (mov r0, r0)

00002568 <l2268>:
    2568:	e1a03004 	mov	r3, r4

0000256c <l2269>:
    256c:	c11e082f 	tstgt	lr, pc, lsr #16

00002570 <l2270>:
    2570:	35dd2016 	ldrbcc	r2, [sp, #22]

00002574 <l2271>:
    2574:	e3a0500c 	mov	r5, #12

00002578 <l2272>:
    2578:	e69d8005 	ldr	r8, [sp], r5

0000257c <l2273>:
    257c:	e3a0200c 	mov	r2, #12

00002580 <l2274>:
    2580:	d18db0b2 	strhle	fp, [sp, r2]

00002584 <l2275>:
    2584:	e292860a 	adds	r8, r2, #10485760	; 0xa00000

00002588 <l2276>:
    2588:	606ab003 	rsbvs	fp, sl, r3

0000258c <l2277>:
    258c:	404b4e18 	submi	r4, fp, r8, lsl lr

00002590 <l2278>:
    2590:	c154000f 	cmpgt	r4, pc

00002594 <l2279>:
    2594:	d0009c3a 	andle	r9, r0, sl, lsr ip

00002598 <l2280>:
    2598:	e0d31553 	sbcs	r1, r3, r3, asr r5

0000259c <l2281>:
    259c:	e1160771 	tst	r6, r1, ror r7

000025a0 <l2282>:
    25a0:	e2d646ab 	sbcs	r4, r6, #179306496	; 0xab00000

000025a4 <l2283>:
    25a4:	c1710172 	cmngt	r1, r2, ror r1

000025a8 <l2284>:
    25a8:	e15db1d0 	ldrsb	fp, [sp, #-16]

000025ac <l2285>:
    25ac:	e17a000f 	cmn	sl, pc

000025b0 <l2286>:
    25b0:	e1730006 	cmn	r3, r6

000025b4 <l2287>:
    25b4:	e0de500b 	sbcs	r5, lr, fp

000025b8 <l2288>:
    25b8:	e59f2000 	ldr	r2, [pc]	; 25c0 <l2290>

000025bc <l2289>:
    25bc:	ea000000 	b	25c4 <l2291>

000025c0 <l2290>:
    25c0:	000fffe4 	.word	0x000fffe4

000025c4 <l2291>:
    25c4:	d102e099 	swple	lr, r9, [r2]

000025c8 <l2292>:
    25c8:	41f0900a 	mvnsmi	r9, sl

000025cc <l2293>:
    25cc:	816f2f14 	clzhi	r2, r4

000025d0 <l2294>:
    25d0:	a083603e 	addge	r6, r3, lr, lsr r0

000025d4 <l2295>:
    25d4:	d0cb800a 	sbcle	r8, fp, sl

000025d8 <l2296>:
    25d8:	398d080c 	stmibcc	sp, {r2, r3, fp}

000025dc <l2297>:
    25dc:	e59fc000 	ldr	ip, [pc]	; 25e4 <l2299>

000025e0 <l2298>:
    25e0:	ea000000 	b	25e8 <l2300>

000025e4 <l2299>:
    25e4:	000fffe4 	.word	0x000fffe4

000025e8 <l2300>:
    25e8:	914c2095 	swpbls	r2, r5, [ip]

000025ec <l2301>:
    25ec:	e52d9008 	str	r9, [sp, #-8]!

000025f0 <l2302>:
    25f0:	214d60b4 	strhcs	r6, [sp, #-4]

000025f4 <l2303>:
    25f4:	617508a1 	cmnvs	r5, r1, lsr #17

000025f8 <l2304>:
    25f8:	40de4516 	sbcsmi	r4, lr, r6, lsl r5

000025fc <l2305>:
    25fc:	e59fe000 	ldr	lr, [pc]	; 2604 <l2307>

00002600 <l2306>:
    2600:	ea000000 	b	2608 <l2308>

00002604 <l2307>:
    2604:	000fffa8 	.word	0x000fffa8

00002608 <l2308>:
    2608:	e14e009c 	swpb	r0, ip, [lr]

0000260c <l2309>:
    260c:	ea000003 	b	2620 <l2314>

00002610 <l2310>:
    2610:	e2801069 	add	r1, r0, #105	; 0x69

00002614 <l2311>:
    2614:	e16fef1b 	clz	lr, fp

00002618 <l2312>:
    2618:	61510e70 	cmpvs	r1, r0, ror lr

0000261c <l2313>:
    261c:	ea000000 	b	2624 <l2315>

00002620 <l2314>:
    2620:	eafffffb 	b	2614 <l2311>

00002624 <l2315>:
    2624:	c1dd53fe 	ldrshgt	r5, [sp, #62]	; 0x3e

00002628 <l2316>:
    2628:	e3a0c000 	mov	ip, #0

0000262c <l2317>:
    262c:	019d80fc 	ldrsheq	r8, [sp, ip]

00002630 <l2318>:
    2630:	e2741405 	rsbs	r1, r4, #83886080	; 0x5000000

00002634 <l2319>:
    2634:	ea000007 	b	2658 <l2328>

00002638 <l2320>:
    2638:	e28010c8 	add	r1, r0, #200	; 0xc8

0000263c <l2321>:
    263c:	e003ec7c 	and	lr, r3, ip, ror ip

00002640 <l2322>:
    2640:	73540856 	cmpvc	r4, #5636096	; 0x560000

00002644 <l2323>:
    2644:	e15b06e1 	cmp	fp, r1, ror #13

00002648 <l2324>:
    2648:	801b9069 	andshi	r9, fp, r9, rrx

0000264c <l2325>:
    264c:	60027069 	andvs	r7, r2, r9, rrx

00002650 <l2326>:
    2650:	70b5c51b 	adcsvc	ip, r5, fp, lsl r5

00002654 <l2327>:
    2654:	ea000000 	b	265c <l2329>

00002658 <l2328>:
    2658:	eafffff7 	b	263c <l2321>

0000265c <l2329>:
    265c:	e062e009 	rsb	lr, r2, r9

00002660 <l2330>:
    2660:	a1f01060 	mvnsge	r1, r0, rrx

00002664 <l2331>:
    2664:	ea000003 	b	2678 <l2336>

00002668 <l2332>:
    2668:	e28010da 	add	r1, r0, #218	; 0xda

0000266c <l2333>:
    266c:	d2757b19 	rsbsle	r7, r5, #25600	; 0x6400

00002670 <l2334>:
    2670:	80a2e740 	adchi	lr, r2, r0, asr #14

00002674 <l2335>:
    2674:	ea000000 	b	267c <l2337>

00002678 <l2336>:
    2678:	eafffffb 	b	266c <l2333>

0000267c <l2337>:
    267c:	e1884619 	orr	r4, r8, r9, lsl r6

00002680 <l2338>:
    2680:	e1a00000 	nop			; (mov r0, r0)

00002684 <l2339>:
    2684:	d069200a 	rsble	r2, r9, sl

00002688 <l2340>:
    2688:	e16f4f14 	clz	r4, r4

0000268c <l2341>:
    268c:	e1dd02f2 	ldrsh	r0, [sp, #34]	; 0x22

00002690 <l2342>:
    2690:	e1a00000 	nop			; (mov r0, r0)

00002694 <l2343>:
    2694:	e277c8c9 	rsbs	ip, r7, #13172736	; 0xc90000

00002698 <l2344>:
    2698:	e5cd501f 	strb	r5, [sp, #31]

0000269c <l2345>:
    269c:	b3d48335 	bicslt	r8, r4, #-738197504	; 0xd4000000

000026a0 <l2346>:
    26a0:	4112006a 	tstmi	r2, sl, rrx

000026a4 <l2347>:
    26a4:	e0454134 	sub	r4, r5, r4, lsr r1

000026a8 <l2348>:
    26a8:	31cd33b4 	strhcc	r3, [sp, #52]	; 0x34

000026ac <l2349>:
    26ac:	402e900b 	eormi	r9, lr, fp

000026b0 <l2350>:
    26b0:	e1f036c1 	mvns	r3, r1, asr #13

000026b4 <l2351>:
    26b4:	e3a0c026 	mov	ip, #38	; 0x26

000026b8 <l2352>:
    26b8:	018d70bc 	strheq	r7, [sp, ip]

000026bc <l2353>:
    26bc:	60135003 	andsvs	r5, r3, r3

000026c0 <l2354>:
    26c0:	50dab06a 	sbcspl	fp, sl, sl, rrx

000026c4 <l2355>:
    26c4:	638920d7 	orrvs	r2, r9, #215	; 0xd7

000026c8 <l2356>:
    26c8:	e1de533c 	bics	r5, lr, ip, lsr r3

000026cc <l2357>:
    26cc:	ea000007 	b	26f0 <l2366>

000026d0 <l2358>:
    26d0:	4073706b 	rsbsmi	r7, r3, fp, rrx

000026d4 <l2359>:
    26d4:	53cf42fe 	bicpl	r4, pc, #-536870897	; 0xe000000f

000026d8 <l2360>:
    26d8:	415c0e6b 	cmpmi	ip, fp, ror #28

000026dc <l2361>:
    26dc:	40e49da8 	rscmi	r9, r4, r8, lsr #27

000026e0 <l2362>:
    26e0:	e3b02207 	movs	r2, #1879048192	; 0x70000000

000026e4 <l2363>:
    26e4:	e09e1000 	adds	r1, lr, r0

000026e8 <l2364>:
    26e8:	6200053a 	andvs	r0, r0, #243269632	; 0xe800000

000026ec <l2365>:
    26ec:	e0f14069 	rscs	r4, r1, r9, rrx

000026f0 <l2366>:
    26f0:	e0402950 	sub	r2, r0, r0, asr r9

000026f4 <l2367>:
    26f4:	e59fa000 	ldr	sl, [pc]	; 26fc <l2369>

000026f8 <l2368>:
    26f8:	ea000000 	b	2700 <l2370>

000026fc <l2369>:
    26fc:	000fffcc 	.word	0x000fffcc

00002700 <l2370>:
    2700:	114a8098 	swpbne	r8, r8, [sl]

00002704 <l2371>:
    2704:	e48d7020 	str	r7, [sp], #32

00002708 <l2372>:
    2708:	e93d0020 	ldmdb	sp!, {r5}

0000270c <l2373>:
    270c:	d235ac01 	eorsle	sl, r5, #256	; 0x100

00002710 <l2374>:
    2710:	e1dd80df 	ldrsb	r8, [sp, #15]

00002714 <l2375>:
    2714:	60f0b00c 	rscsvs	fp, r0, ip

00002718 <l2376>:
    2718:	e13a0218 	teq	sl, r8, lsl r2

0000271c <l2377>:
    271c:	e3a02008 	mov	r2, #8

00002720 <l2378>:
    2720:	e18d20b2 	strh	r2, [sp, r2]

00002724 <l2379>:
    2724:	e59f6000 	ldr	r6, [pc]	; 272c <l2381>

00002728 <l2380>:
    2728:	ea000000 	b	2730 <l2382>

0000272c <l2381>:
    272c:	000fffa0 	.word	0x000fffa0

00002730 <l2382>:
    2730:	7146b095 	swpbvc	fp, r5, [r6]

00002734 <l2383>:
    2734:	e00fc002 	and	ip, pc, r2

00002738 <l2384>:
    2738:	11a0a964 	rorne	sl, r4, #18

0000273c <l2385>:
    273c:	da000007 	ble	2760 <l2394>

00002740 <l2386>:
    2740:	e28010ba 	add	r1, r0, #186	; 0xba

00002744 <l2387>:
    2744:	521a457e 	andspl	r4, sl, #528482304	; 0x1f800000

00002748 <l2388>:
    2748:	e0b3195b 	adcs	r1, r3, fp, asr r9

0000274c <l2389>:
    274c:	e2441b81 	sub	r1, r4, #132096	; 0x20400

00002750 <l2390>:
    2750:	e1ce9002 	bic	r9, lr, r2

00002754 <l2391>:
    2754:	c1710d04 	cmngt	r1, r4, lsl #26

00002758 <l2392>:
    2758:	000c171c 	andeq	r1, ip, ip, lsl r7

0000275c <l2393>:
    275c:	ea000000 	b	2764 <l2395>

00002760 <l2394>:
    2760:	eafffff7 	b	2744 <l2387>

00002764 <l2395>:
    2764:	e1dd60b4 	ldrh	r6, [sp, #4]

00002768 <l2396>:
    2768:	d254642b 	subsle	r6, r4, #721420288	; 0x2b000000

0000276c <l2397>:
    276c:	91943133 	orrsls	r3, r4, r3, lsr r1

00002770 <l2398>:
    2770:	e9ad2000 	stmib	sp!, {sp}

00002774 <l2399>:
    2774:	b15e0439 	cmplt	lr, r9, lsr r4

00002778 <l2400>:
    2778:	e5cdb01c 	strb	fp, [sp, #28]

0000277c <l2401>:
    277c:	525323d5 	subspl	r2, r3, #1409286147	; 0x54000003

00002780 <l2402>:
    2780:	d289c216 	addle	ip, r9, #1610612737	; 0x60000001

00002784 <l2403>:
    2784:	73a0638f 	movvc	r6, #1006632962	; 0x3c000002

00002788 <l2404>:
    2788:	e1c66ea9 	bic	r6, r6, r9, lsr #29

0000278c <l2405>:
    278c:	911804ca 	tstls	r8, sl, asr #9

00002790 <l2406>:
    2790:	55cd2004 	strbpl	r2, [sp, #4]

00002794 <l2407>:
    2794:	a17a0e2a 	cmnge	sl, sl, lsr #28

00002798 <l2408>:
    2798:	a0088009 	andge	r8, r8, r9

0000279c <l2409>:
    279c:	50e8332e 	rscpl	r3, r8, lr, lsr #6

000027a0 <l2410>:
    27a0:	30fb500e 	rscscc	r5, fp, lr

000027a4 <l2411>:
    27a4:	05cd9001 	strbeq	r9, [sp, #1]

000027a8 <l2412>:
    27a8:	00724003 	rsbseq	r4, r2, r3

000027ac <l2413>:
    27ac:	05cd8014 	strbeq	r8, [sp, #20]

000027b0 <l2414>:
    27b0:	d0210377 	eorle	r0, r1, r7, ror r3

000027b4 <l2415>:
    27b4:	e51d2028 	ldr	r2, [sp, #-40]	; 0x28

000027b8 <l2416>:
    27b8:	e3a09002 	mov	r9, #2

000027bc <l2417>:
    27bc:	d7cd6009 	strble	r6, [sp, r9]

000027c0 <l2418>:
    27c0:	d0b9600a 	adcsle	r6, r9, sl

000027c4 <l2419>:
    27c4:	537c0426 	cmnpl	ip, #637534208	; 0x26000000

000027c8 <l2420>:
    27c8:	009cc782 	addseq	ip, ip, r2, lsl #15

000027cc <l2421>:
    27cc:	3024706a 	eorcc	r7, r4, sl, rrx

000027d0 <l2422>:
    27d0:	e3a01018 	mov	r1, #24

000027d4 <l2423>:
    27d4:	e19db0f1 	ldrsh	fp, [sp, r1]

000027d8 <l2424>:
    27d8:	c1d3e375 	bicsgt	lr, r3, r5, ror r3

000027dc <l2425>:
    27dc:	41f01bec 	mvnsmi	r1, ip, ror #23

000027e0 <l2426>:
    27e0:	d043a001 	suble	sl, r3, r1

000027e4 <l2427>:
    27e4:	e40d6004 	str	r6, [sp], #-4

000027e8 <l2428>:
    27e8:	e1da0002 	bics	r0, sl, r2

000027ec <l2429>:
    27ec:	a1dd20be 	ldrhge	r2, [sp, #14]

000027f0 <l2430>:
    27f0:	315db1ba 	ldrhcc	fp, [sp, #-26]	; 0xffffffe6

000027f4 <l2431>:
    27f4:	e02b6c82 	eor	r6, fp, r2, lsl #25

000027f8 <l2432>:
    27f8:	e3a08018 	mov	r8, #24

000027fc <l2433>:
    27fc:	d10d10b8 	strhle	r1, [sp, -r8]

00002800 <l2434>:
    2800:	a1170242 	tstge	r7, r2, asr #4

00002804 <l2435>:
    2804:	e59fe000 	ldr	lr, [pc]	; 280c <l2437>

00002808 <l2436>:
    2808:	ea000000 	b	2810 <l2438>

0000280c <l2437>:
    280c:	000fffdc 	.word	0x000fffdc

00002810 <l2438>:
    2810:	e14e5098 	swpb	r5, r8, [lr]

00002814 <l2439>:
    2814:	c16f7f1c 	clzgt	r7, ip

00002818 <l2440>:
    2818:	e3a0200c 	mov	r2, #12

0000281c <l2441>:
    281c:	518d10b2 	strhpl	r1, [sp, r2]

00002820 <l2442>:
    2820:	e0476062 	sub	r6, r7, r2, rrx

00002824 <l2443>:
    2824:	e1c31c60 	bic	r1, r3, r0, ror #24

00002828 <l2444>:
    2828:	b89d1943 	ldmlt	sp, {r0, r1, r6, r8, fp, ip}

0000282c <l2445>:
    282c:	e40d2014 	str	r2, [sp], #-20

00002830 <l2446>:
    2830:	e0342608 	eors	r2, r4, r8, lsl #12

00002834 <l2447>:
    2834:	81cdb2b0 	strhhi	fp, [sp, #32]

00002838 <l2448>:
    2838:	70f41000 	rscsvc	r1, r4, r0

0000283c <l2449>:
    283c:	e50d4014 	str	r4, [sp, #-20]

00002840 <l2450>:
    2840:	81350066 	teqhi	r5, r6, rrx

00002844 <l2451>:
    2844:	10cb22a9 	sbcne	r2, fp, r9, lsr #5

00002848 <l2452>:
    2848:	e3a0a008 	mov	sl, #8

0000284c <l2453>:
    284c:	e73d200a 	ldr	r2, [sp, -sl]!

00002850 <l2454>:
    2850:	e8bd57f3 	pop	{r0, r1, r4, r5, r6, r7, r8, r9, sl, ip, lr}

00002854 <l2455>:
    2854:	1174087e 	cmnne	r4, lr, ror r8

00002858 <l2456>:
    2858:	e3a02010 	mov	r2, #16

0000285c <l2457>:
    285c:	e10d50b2 	strh	r5, [sp, -r2]

00002860 <l2458>:
    2860:	d14db0b6 	strhle	fp, [sp, #-6]

00002864 <l2459>:
    2864:	e33c002c 	teq	ip, #44	; 0x2c

00002868 <l2460>:
    2868:	b1f01d08 	mvnslt	r1, r8, lsl #26

0000286c <l2461>:
    286c:	e1a0a005 	mov	sl, r5

00002870 <l2462>:
    2870:	e3956eee 	orrs	r6, r5, #3808	; 0xee0

00002874 <l2463>:
    2874:	e3a06006 	mov	r6, #6

00002878 <l2464>:
    2878:	e19dc0f6 	ldrsh	ip, [sp, r6]

0000287c <l2465>:
    287c:	e02f8789 	eor	r8, pc, r9, lsl #15

00002880 <l2466>:
    2880:	83938a9a 	orrshi	r8, r3, #630784	; 0x9a000

00002884 <l2467>:
    2884:	e1a03005 	mov	r3, r5

00002888 <l2468>:
    2888:	e16f0f13 	clz	r0, r3

0000288c <l2469>:
    288c:	b17e006f 	cmnlt	lr, pc, rrx

00002890 <l2470>:
    2890:	e59f9000 	ldr	r9, [pc]	; 2898 <l2472>

00002894 <l2471>:
    2894:	ea000000 	b	289c <l2473>

00002898 <l2472>:
    2898:	000fffd0 	.word	0x000fffd0

0000289c <l2473>:
    289c:	e1092098 	swp	r2, r8, [r9]

000028a0 <l2474>:
    28a0:	d55d400b 	ldrble	r4, [sp, #-11]

000028a4 <l2475>:
    28a4:	3216b1aa 	andscc	fp, r6, #-2147483606	; 0x8000002a

000028a8 <l2476>:
    28a8:	e3a0302a 	mov	r3, #42	; 0x2a

000028ac <l2477>:
    28ac:	c10d10b3 	strhgt	r1, [sp, -r3]

000028b0 <l2478>:
    28b0:	e3a0a00e 	mov	sl, #14

000028b4 <l2479>:
    28b4:	419dc0ba 	ldrhmi	ip, [sp, sl]

000028b8 <l2480>:
    28b8:	e83d0002 	ldmda	sp!, {r1}

000028bc <l2481>:
    28bc:	1284283f 	addne	r2, r4, #4128768	; 0x3f0000

000028c0 <l2482>:
    28c0:	e1d8ee81 	bics	lr, r8, r1, lsl #29

000028c4 <l2483>:
    28c4:	e3a0b010 	mov	fp, #16

000028c8 <l2484>:
    28c8:	97dd500b 	ldrbls	r5, [sp, fp]

000028cc <l2485>:
    28cc:	81dd00da 	ldrsbhi	r0, [sp, #10]

000028d0 <l2486>:
    28d0:	10f25ec4 	rscsne	r5, r2, r4, asr #29

000028d4 <l2487>:
    28d4:	e58d1014 	str	r1, [sp, #20]

000028d8 <l2488>:
    28d8:	e01ac359 	ands	ip, sl, r9, asr r3

000028dc <l2489>:
    28dc:	e1a04003 	mov	r4, r3

000028e0 <l2490>:
    28e0:	e23639fb 	eors	r3, r6, #4112384	; 0x3ec000

000028e4 <l2491>:
    28e4:	b0239003 	eorlt	r9, r3, r3

000028e8 <l2492>:
    28e8:	e3a0200c 	mov	r2, #12

000028ec <l2493>:
    28ec:	670d9002 	strvs	r9, [sp, -r2]

000028f0 <l2494>:
    28f0:	e1190e79 	tst	r9, r9, ror lr

000028f4 <l2495>:
    28f4:	e16f3f14 	clz	r3, r4

000028f8 <l2496>:
    28f8:	e1e07a42 	mvn	r7, r2, asr #20

000028fc <l2497>:
    28fc:	e13a0110 	teq	sl, r0, lsl r1

00002900 <l2498>:
    2900:	831f028e 	tsthi	pc, #-536870904	; 0xe0000008

00002904 <l2499>:
    2904:	e3a08010 	mov	r8, #16

00002908 <l2500>:
    2908:	e73d0008 	ldr	r0, [sp, -r8]!

0000290c <l2501>:
    290c:	c0b3b06f 	adcsgt	fp, r3, pc, rrx

00002910 <l2502>:
    2910:	e3a09012 	mov	r9, #18

00002914 <l2503>:
    2914:	d18dc0b9 	strhle	ip, [sp, r9]

00002918 <l2504>:
    2918:	71a0700c 	movvc	r7, ip

0000291c <l2505>:
    291c:	01730065 	cmneq	r3, r5, rrx

00002920 <l2506>:
    2920:	e224b33e 	eor	fp, r4, #-134217728	; 0xf8000000

00002924 <l2507>:
    2924:	e3a0e018 	mov	lr, #24

00002928 <l2508>:
    2928:	a70d600e 	strge	r6, [sp, -lr]

0000292c <l2509>:
    292c:	e3a02018 	mov	r2, #24

00002930 <l2510>:
    2930:	e75d4002 	ldrb	r4, [sp, -r2]

00002934 <l2511>:
    2934:	933a06f9 	teqls	sl, #261095424	; 0xf900000

00002938 <l2512>:
    2938:	e18e0006 	orr	r0, lr, r6

0000293c <l2513>:
    293c:	e1cd70b6 	strh	r7, [sp, #6]

00002940 <l2514>:
    2940:	e0c4b35a 	sbc	fp, r4, sl, asr r3

00002944 <l2515>:
    2944:	e15f006e 	cmp	pc, lr, rrx

00002948 <l2516>:
    2948:	e045500c 	sub	r5, r5, ip

0000294c <l2517>:
    294c:	e177023c 	cmn	r7, ip, lsr r2

00002950 <l2518>:
    2950:	4affffff 	bmi	2954 <l2519>

00002954 <l2519>:
    2954:	e028a00a 	eor	sl, r8, sl

00002958 <l2520>:
    2958:	731b0bdd 	tstvc	fp, #226304	; 0x37400

0000295c <l2521>:
    295c:	7a000000 	bvc	2964 <l2523>

00002960 <l2522>:
    2960:	e22e9024 	eor	r9, lr, #36	; 0x24

00002964 <l2523>:
    2964:	c2cba2b3 	sbcgt	sl, fp, #805306379	; 0x3000000b

00002968 <l2524>:
    2968:	e3a01012 	mov	r1, #18

0000296c <l2525>:
    296c:	175db001 	ldrbne	fp, [sp, -r1]

00002970 <l2526>:
    2970:	d0c39e72 	sbcle	r9, r3, r2, ror lr

00002974 <l2527>:
    2974:	91120009 	tstls	r2, r9

00002978 <l2528>:
    2978:	b11809ae 	tstlt	r8, lr, lsr #19

0000297c <l2529>:
    297c:	e1dd61b4 	ldrh	r6, [sp, #20]

00002980 <l2530>:
    2980:	7002031b 	andvc	r0, r2, fp, lsl r3

00002984 <l2531>:
    2984:	851d4024 	ldrhi	r4, [sp, #-36]	; 0x24

00002988 <l2532>:
    2988:	e0e0700e 	rsc	r7, r0, lr

0000298c <l2533>:
    298c:	717c0064 	cmnvc	ip, r4, rrx

00002990 <l2534>:
    2990:	ea000007 	b	29b4 <l2543>

00002994 <l2535>:
    2994:	e2801057 	add	r1, r0, #87	; 0x57

00002998 <l2536>:
    2998:	e1530006 	cmp	r3, r6

0000299c <l2537>:
    299c:	e1f04006 	mvns	r4, r6

000029a0 <l2538>:
    29a0:	e0d97ea6 	sbcs	r7, r9, r6, lsr #29

000029a4 <l2539>:
    29a4:	61ca5a37 	bicvs	r5, sl, r7, lsr sl

000029a8 <l2540>:
    29a8:	e1f0c008 	mvns	ip, r8

000029ac <l2541>:
    29ac:	90a7700e 	adcls	r7, r7, lr

000029b0 <l2542>:
    29b0:	ea000000 	b	29b8 <l2544>

000029b4 <l2543>:
    29b4:	eafffff7 	b	2998 <l2536>

000029b8 <l2544>:
    29b8:	a89d0a09 	ldmge	sp, {r0, r3, r9, fp}

000029bc <l2545>:
    29bc:	915c0f4a 	cmpls	ip, sl, asr #30

000029c0 <l2546>:
    29c0:	e3a05012 	mov	r5, #18

000029c4 <l2547>:
    29c4:	e19d90f5 	ldrsh	r9, [sp, r5]

000029c8 <l2548>:
    29c8:	e040760a 	sub	r7, r0, sl, lsl #12

000029cc <l2549>:
    29cc:	e294a030 	adds	sl, r4, #48	; 0x30

000029d0 <l2550>:
    29d0:	61dde0be 	ldrhvs	lr, [sp, #14]

000029d4 <l2551>:
    29d4:	d1dd60d6 	ldrsble	r6, [sp, #6]

000029d8 <l2552>:
    29d8:	e3710aeb 	cmn	r1, #962560	; 0xeb000

000029dc <l2553>:
    29dc:	d0099235 	andle	r9, r9, r5, lsr r2

000029e0 <l2554>:
    29e0:	e59f3000 	ldr	r3, [pc]	; 29e8 <l2556>

000029e4 <l2555>:
    29e4:	ea000000 	b	29ec <l2557>

000029e8 <l2556>:
    29e8:	000fffd4 	.word	0x000fffd4

000029ec <l2557>:
    29ec:	e103609a 	swp	r6, sl, [r3]

000029f0 <l2558>:
    29f0:	c2a436e7 	adcgt	r3, r4, #242221056	; 0xe700000

000029f4 <l2559>:
    29f4:	e16f6f16 	clz	r6, r6

000029f8 <l2560>:
    29f8:	e59fb000 	ldr	fp, [pc]	; 2a00 <l2562>

000029fc <l2561>:
    29fc:	ea000000 	b	2a04 <l2563>

00002a00 <l2562>:
    2a00:	000fffbc 	.word	0x000fffbc

00002a04 <l2563>:
    2a04:	e14b7097 	swpb	r7, r7, [fp]

00002a08 <l2564>:
    2a08:	b0ec0bc1 	rsclt	r0, ip, r1, asr #23

00002a0c <l2565>:
    2a0c:	e3a0c016 	mov	ip, #22

00002a10 <l2566>:
    2a10:	911d60bc 	ldrhls	r6, [sp, -ip]

00002a14 <l2567>:
    2a14:	e3a00020 	mov	r0, #32

00002a18 <l2568>:
    2a18:	e10db0b0 	strh	fp, [sp, -r0]

00002a1c <l2569>:
    2a1c:	e3a0b008 	mov	fp, #8

00002a20 <l2570>:
    2a20:	e68d000b 	str	r0, [sp], fp

00002a24 <l2571>:
    2a24:	1029e006 	eorne	lr, r9, r6

00002a28 <l2572>:
    2a28:	80d2b000 	sbcshi	fp, r2, r0

00002a2c <l2573>:
    2a2c:	e93d4b34 	ldmdb	sp!, {r2, r4, r5, r8, r9, fp, lr}

00002a30 <l2574>:
    2a30:	73c91006 	bicvc	r1, r9, #6

00002a34 <l2575>:
    2a34:	e3180899 	tst	r8, #10027008	; 0x990000

00002a38 <l2576>:
    2a38:	91e00e11 	mvnls	r0, r1, lsl lr

00002a3c <l2577>:
    2a3c:	ea000005 	b	2a58 <l2584>

00002a40 <l2578>:
    2a40:	e28010a5 	add	r1, r0, #165	; 0xa5

00002a44 <l2579>:
    2a44:	e15b0386 	cmp	fp, r6, lsl #7

00002a48 <l2580>:
    2a48:	a03ab004 	eorsge	fp, sl, r4

00002a4c <l2581>:
    2a4c:	735f0ba5 	cmpvc	pc, #168960	; 0x29400

00002a50 <l2582>:
    2a50:	61a06e1b 	lslvs	r6, fp, lr

00002a54 <l2583>:
    2a54:	ea000000 	b	2a5c <l2585>

00002a58 <l2584>:
    2a58:	eafffff9 	b	2a44 <l2579>

00002a5c <l2585>:
    2a5c:	737b010e 	cmnvc	fp, #-2147483645	; 0x80000003

00002a60 <l2586>:
    2a60:	e3a07016 	mov	r7, #22

00002a64 <l2587>:
    2a64:	c18d30b7 	strhgt	r3, [sp, r7]

00002a68 <l2588>:
    2a68:	e3a00014 	mov	r0, #20

00002a6c <l2589>:
    2a6c:	e19d80b0 	ldrh	r8, [sp, r0]

00002a70 <l2590>:
    2a70:	42a34101 	adcmi	r4, r3, #1073741824	; 0x40000000

00002a74 <l2591>:
    2a74:	e3a0002c 	mov	r0, #44	; 0x2c

00002a78 <l2592>:
    2a78:	219da0f0 	ldrshcs	sl, [sp, r0]

00002a7c <l2593>:
    2a7c:	e1f0597b 	mvns	r5, fp, ror r9

00002a80 <l2594>:
    2a80:	d1cd12b0 	strhle	r1, [sp, #32]

00002a84 <l2595>:
    2a84:	b2d5a146 	sbcslt	sl, r5, #-2147483631	; 0x80000011

00002a88 <l2596>:
    2a88:	4032300a 	eorsmi	r3, r2, sl

00002a8c <l2597>:
    2a8c:	e0718005 	rsbs	r8, r1, r5

00002a90 <l2598>:
    2a90:	d09ec579 	addsle	ip, lr, r9, ror r5

00002a94 <l2599>:
    2a94:	e240e33b 	sub	lr, r0, #-335544320	; 0xec000000

00002a98 <l2600>:
    2a98:	11ddc1b8 	ldrhne	ip, [sp, #24]

00002a9c <l2601>:
    2a9c:	e59f8000 	ldr	r8, [pc]	; 2aa4 <l2603>

00002aa0 <l2602>:
    2aa0:	ea000000 	b	2aa8 <l2604>

00002aa4 <l2603>:
    2aa4:	000fffd4 	.word	0x000fffd4

00002aa8 <l2604>:
    2aa8:	e1086097 	swp	r6, r7, [r8]

00002aac <l2605>:
    2aac:	8061000c 	rsbhi	r0, r1, ip

00002ab0 <l2606>:
    2ab0:	e3a0a034 	mov	sl, #52	; 0x34

00002ab4 <l2607>:
    2ab4:	e69d600a 	ldr	r6, [sp], sl

00002ab8 <l2608>:
    2ab8:	20066137 	andcs	r6, r6, r7, lsr r1

00002abc <l2609>:
    2abc:	61ca3850 	bicvs	r3, sl, r0, asr r8

00002ac0 <l2610>:
    2ac0:	50b34874 	adcspl	r4, r3, r4, ror r8

00002ac4 <l2611>:
    2ac4:	b0aa9630 	adclt	r9, sl, r0, lsr r6

00002ac8 <l2612>:
    2ac8:	311e0065 	tstcc	lr, r5, rrx

00002acc <l2613>:
    2acc:	314dc3b0 	strhcc	ip, [sp, #-48]	; 0xffffffd0

00002ad0 <l2614>:
    2ad0:	206fb00b 	rsbcs	fp, pc, fp

00002ad4 <l2615>:
    2ad4:	e92d8880 	push	{r7, fp, pc}

00002ad8 <l2616>:
    2ad8:	8092200e 	addshi	r2, r2, lr

00002adc <l2617>:
    2adc:	b1c3ea16 	biclt	lr, r3, r6, lsl sl

00002ae0 <l2618>:
    2ae0:	73c43a7b 	bicvc	r3, r4, #503808	; 0x7b000

00002ae4 <l2619>:
    2ae4:	e21012bb 	ands	r1, r0, #-1342177269	; 0xb000000b

00002ae8 <l2620>:
    2ae8:	a1a0e2c7 	asrge	lr, r7, #5

00002aec <l2621>:
    2aec:	80211069 	eorhi	r1, r1, r9, rrx

00002af0 <l2622>:
    2af0:	e1a00000 	nop			; (mov r0, r0)

00002af4 <l2623>:
    2af4:	e3a0a509 	mov	sl, #37748736	; 0x2400000

00002af8 <l2624>:
    2af8:	12e0b91f 	rscne	fp, r0, #507904	; 0x7c000

00002afc <l2625>:
    2afc:	b11a007b 	tstlt	sl, fp, ror r0

00002b00 <l2626>:
    2b00:	903e745c 	eorsls	r7, lr, ip, asr r4

00002b04 <l2627>:
    2b04:	e9ad0831 	stmib	sp!, {r0, r4, r5, fp}

00002b08 <l2628>:
    2b08:	11dd80f0 	ldrshne	r8, [sp]

00002b0c <l2629>:
    2b0c:	e15f0c2b 	cmp	pc, fp, lsr #24

00002b10 <l2630>:
    2b10:	e3a0c048 	mov	ip, #72	; 0x48

00002b14 <l2631>:
    2b14:	511d70fc 	ldrshpl	r7, [sp, -ip]

00002b18 <l2632>:
    2b18:	0000713a 	andeq	r7, r0, sl, lsr r1

00002b1c <l2633>:
    2b1c:	ea000002 	b	2b2c <l2637>

00002b20 <l2634>:
    2b20:	007ce004 	rsbseq	lr, ip, r4

00002b24 <l2635>:
    2b24:	e2d7c326 	sbcs	ip, r7, #-1744830464	; 0x98000000

00002b28 <l2636>:
    2b28:	d0b009e1 	adcsle	r0, r0, r1, ror #19

00002b2c <l2637>:
    2b2c:	a16f6f1e 	clzge	r6, lr

00002b30 <l2638>:
    2b30:	01550014 	cmpeq	r5, r4, lsl r0

00002b34 <l2639>:
    2b34:	60647068 	rsbvs	r7, r4, r8, rrx

00002b38 <l2640>:
    2b38:	31750ea5 	cmncc	r5, r5, lsr #29

00002b3c <l2641>:
    2b3c:	a1ce0113 	bicge	r0, lr, r3, lsl r1

00002b40 <l2642>:
    2b40:	8060e00a 	rsbhi	lr, r0, sl

00002b44 <l2643>:
    2b44:	e83d4520 	ldmda	sp!, {r5, r8, sl, lr}

00002b48 <l2644>:
    2b48:	a15a0067 	cmpge	sl, r7, rrx

00002b4c <l2645>:
    2b4c:	c15a0063 	cmpgt	sl, r3, rrx

00002b50 <l2646>:
    2b50:	baffffff 	blt	2b54 <l2647>

00002b54 <l2647>:
    2b54:	817809af 	cmnhi	r8, pc, lsr #19

00002b58 <l2648>:
    2b58:	e14da0b2 	strh	sl, [sp, #-2]

00002b5c <l2649>:
    2b5c:	e3a0301a 	mov	r3, #26

00002b60 <l2650>:
    2b60:	e11d70f3 	ldrsh	r7, [sp, -r3]

00002b64 <l2651>:
    2b64:	e05aa00f 	subs	sl, sl, pc

00002b68 <l2652>:
    2b68:	b15c0e3b 	cmplt	ip, fp, lsr lr

00002b6c <l2653>:
    2b6c:	e3a02022 	mov	r2, #34	; 0x22

00002b70 <l2654>:
    2b70:	a75d7002 	ldrbge	r7, [sp, -r2]

00002b74 <l2655>:
    2b74:	e0097208 	and	r7, r9, r8, lsl #4

00002b78 <l2656>:
    2b78:	e3a00000 	mov	r0, #0

00002b7c <l2657>:
    2b7c:	e7ad7000 	str	r7, [sp, r0]!

00002b80 <l2658>:
    2b80:	e55da033 	ldrb	sl, [sp, #-51]	; 0x33

00002b84 <l2659>:
    2b84:	e1190855 	tst	r9, r5, asr r8

00002b88 <l2660>:
    2b88:	105b306a 	subsne	r3, fp, sl, rrx

00002b8c <l2661>:
    2b8c:	ea000007 	b	2bb0 <l2670>

00002b90 <l2662>:
    2b90:	e280103c 	add	r1, r0, #60	; 0x3c

00002b94 <l2663>:
    2b94:	406fef45 	rsbmi	lr, pc, r5, asr #30

00002b98 <l2664>:
    2b98:	a18c6510 	orrge	r6, ip, r0, lsl r5

00002b9c <l2665>:
    2b9c:	c0a92005 	adcgt	r2, r9, r5

00002ba0 <l2666>:
    2ba0:	c1f03e2e 	mvnsgt	r3, lr, lsr #28

00002ba4 <l2667>:
    2ba4:	313b0a17 	teqcc	fp, r7, lsl sl

00002ba8 <l2668>:
    2ba8:	0064300f 	rsbeq	r3, r4, pc

00002bac <l2669>:
    2bac:	ea000000 	b	2bb4 <l2671>

00002bb0 <l2670>:
    2bb0:	eafffff7 	b	2b94 <l2663>

00002bb4 <l2671>:
    2bb4:	b35c0f7b 	cmplt	ip, #492	; 0x1ec

00002bb8 <l2672>:
    2bb8:	c16f4f13 	clzgt	r4, r3

00002bbc <l2673>:
    2bbc:	e1f01067 	mvns	r1, r7, rrx

00002bc0 <l2674>:
    2bc0:	e1720875 	cmn	r2, r5, ror r8

00002bc4 <l2675>:
    2bc4:	e3a0300e 	mov	r3, #14

00002bc8 <l2676>:
    2bc8:	319d60d3 	ldrsbcc	r6, [sp, r3]

00002bcc <l2677>:
    2bcc:	e31903cf 	tst	r9, #1006632963	; 0x3c000003

00002bd0 <l2678>:
    2bd0:	605c106e 	subsvs	r1, ip, lr, rrx

00002bd4 <l2679>:
    2bd4:	e59fe000 	ldr	lr, [pc]	; 2bdc <l2681>

00002bd8 <l2680>:
    2bd8:	ea000000 	b	2be0 <l2682>

00002bdc <l2681>:
    2bdc:	000fffd4 	.word	0x000fffd4

00002be0 <l2682>:
    2be0:	910e5099 	swpls	r5, r9, [lr]

00002be4 <l2683>:
    2be4:	391d4cfe 	ldmdbcc	sp, {r1, r2, r3, r4, r5, r6, r7, sl, fp, lr}

00002be8 <l2684>:
    2be8:	516f7f10 	clzpl	r7, r0

00002bec <l2685>:
    2bec:	e00b500b 	and	r5, fp, fp

00002bf0 <l2686>:
    2bf0:	e3a09008 	mov	r9, #8

00002bf4 <l2687>:
    2bf4:	e72d9009 	str	r9, [sp, -r9]!

00002bf8 <l2688>:
    2bf8:	e15d72fe 	ldrsh	r7, [sp, #-46]	; 0xffffffd2

00002bfc <l2689>:
    2bfc:	e1979006 	orrs	r9, r7, r6

00002c00 <l2690>:
    2c00:	e116006c 	tst	r6, ip, rrx

00002c04 <l2691>:
    2c04:	e0a9263c 	adc	r2, r9, ip, lsr r6

00002c08 <l2692>:
    2c08:	d3b08226 	movsle	r8, #1610612738	; 0x60000002

00002c0c <l2693>:
    2c0c:	ba000001 	blt	2c18 <l2696>

00002c10 <l2694>:
    2c10:	c11e0001 	tstgt	lr, r1

00002c14 <l2695>:
    2c14:	01e05003 	mvneq	r5, r3

00002c18 <l2696>:
    2c18:	e11b0c83 	tst	fp, r3, lsl #25

00002c1c <l2697>:
    2c1c:	e59fa000 	ldr	sl, [pc]	; 2c24 <l2699>

00002c20 <l2698>:
    2c20:	ea000000 	b	2c28 <l2700>

00002c24 <l2699>:
    2c24:	000fffa0 	.word	0x000fffa0

00002c28 <l2700>:
    2c28:	e10a4094 	swp	r4, r4, [sl]

00002c2c <l2701>:
    2c2c:	31814066 	orrcc	r4, r1, r6, rrx

00002c30 <l2702>:
    2c30:	e0e13000 	rsc	r3, r1, r0

00002c34 <l2703>:
    2c34:	d81d4285 	ldmdale	sp, {r0, r2, r7, r9, lr}

00002c38 <l2704>:
    2c38:	491d1e37 	ldmdbmi	sp, {r0, r1, r2, r4, r5, r9, sl, fp, ip}

00002c3c <l2705>:
    2c3c:	e3150aa1 	tst	r5, #659456	; 0xa1000

00002c40 <l2706>:
    2c40:	31a06008 	movcc	r6, r8

00002c44 <l2707>:
    2c44:	e3a0b006 	mov	fp, #6

00002c48 <l2708>:
    2c48:	c19de0fb 	ldrshgt	lr, [sp, fp]

00002c4c <l2709>:
    2c4c:	e3a0e018 	mov	lr, #24

00002c50 <l2710>:
    2c50:	e73db00e 	ldr	fp, [sp, -lr]!

00002c54 <l2711>:
    2c54:	100c0b33 	andne	r0, ip, r3, lsr fp

00002c58 <l2712>:
    2c58:	e075b066 	rsbs	fp, r5, r6, rrx

00002c5c <l2713>:
    2c5c:	e1dde1d2 	ldrsb	lr, [sp, #18]

00002c60 <l2714>:
    2c60:	e40de008 	str	lr, [sp], #-8

00002c64 <l2715>:
    2c64:	c1110033 	tstgt	r1, r3, lsr r0

00002c68 <l2716>:
    2c68:	a0545538 	subsge	r5, r4, r8, lsr r5

00002c6c <l2717>:
    2c6c:	e59f2000 	ldr	r2, [pc]	; 2c74 <l2719>

00002c70 <l2718>:
    2c70:	ea000000 	b	2c78 <l2720>

00002c74 <l2719>:
    2c74:	000fffc8 	.word	0x000fffc8

00002c78 <l2720>:
    2c78:	1142b090 	swpbne	fp, r0, [r2]

00002c7c <l2721>:
    2c7c:	85cd1006 	strbhi	r1, [sp, #6]

00002c80 <l2722>:
    2c80:	21120270 	tstcs	r2, r0, ror r2

00002c84 <l2723>:
    2c84:	e37c0456 	cmn	ip, #1442840576	; 0x56000000

00002c88 <l2724>:
    2c88:	e1a0c60f 	lsl	ip, pc, #12

00002c8c <l2725>:
    2c8c:	700c8536 	andvc	r8, ip, r6, lsr r5

00002c90 <l2726>:
    2c90:	11a0806c 	rrxne	r8, ip

00002c94 <l2727>:
    2c94:	65cda003 	strbvs	sl, [sp, #3]

00002c98 <l2728>:
    2c98:	e1f01069 	mvns	r1, r9, rrx

00002c9c <l2729>:
    2c9c:	ea000007 	b	2cc0 <l2738>

00002ca0 <l2730>:
    2ca0:	e28010ca 	add	r1, r0, #202	; 0xca

00002ca4 <l2731>:
    2ca4:	00577a2b 	subseq	r7, r7, fp, lsr #20

00002ca8 <l2732>:
    2ca8:	e0a5700b 	adc	r7, r5, fp

00002cac <l2733>:
    2cac:	e065eb3b 	rsb	lr, r5, fp, lsr fp

00002cb0 <l2734>:
    2cb0:	e1deae21 	bics	sl, lr, r1, lsr #28

00002cb4 <l2735>:
    2cb4:	e0918180 	adds	r8, r1, r0, lsl #3

00002cb8 <l2736>:
    2cb8:	e11b0009 	tst	fp, r9

00002cbc <l2737>:
    2cbc:	ea000000 	b	2cc4 <l2739>

00002cc0 <l2738>:
    2cc0:	eafffff7 	b	2ca4 <l2731>

00002cc4 <l2739>:
    2cc4:	e9ad6000 	stmib	sp!, {sp, lr}

00002cc8 <l2740>:
    2cc8:	6236310e 	eorsvs	r3, r6, #-2147483645	; 0x80000003

00002ccc <l2741>:
    2ccc:	20f4781c 	rscscs	r7, r4, ip, lsl r8

00002cd0 <l2742>:
    2cd0:	e59f3000 	ldr	r3, [pc]	; 2cd8 <l2744>

00002cd4 <l2743>:
    2cd4:	ea000000 	b	2cdc <l2745>

00002cd8 <l2744>:
    2cd8:	000fffe8 	.word	0x000fffe8

00002cdc <l2745>:
    2cdc:	c143009e 	swpbgt	r0, lr, [r3]

00002ce0 <l2746>:
    2ce0:	e010c756 	ands	ip, r0, r6, asr r7

00002ce4 <l2747>:
    2ce4:	008fb060 	addeq	fp, pc, r0, rrx

00002ce8 <l2748>:
    2ce8:	e1b02f05 	lsls	r2, r5, #30

00002cec <l2749>:
    2cec:	e3a0400c 	mov	r4, #12

00002cf0 <l2750>:
    2cf0:	d11dc0b4 	ldrhle	ip, [sp, -r4]

00002cf4 <l2751>:
    2cf4:	e1b0687b 	rors	r6, fp, r8

00002cf8 <l2752>:
    2cf8:	e55d5012 	ldrb	r5, [sp, #-18]

00002cfc <l2753>:
    2cfc:	e1a06868 	ror	r6, r8, #16

00002d00 <l2754>:
    2d00:	615d20b8 	ldrhvs	r2, [sp, #-8]

00002d04 <l2755>:
    2d04:	319b7006 	orrscc	r7, fp, r6

00002d08 <l2756>:
    2d08:	30c1300e 	sbccc	r3, r1, lr

00002d0c <l2757>:
    2d0c:	e3a0e005 	mov	lr, #5

00002d10 <l2758>:
    2d10:	e19d90de 	ldrsb	r9, [sp, lr]

00002d14 <l2759>:
    2d14:	e92d8405 	push	{r0, r2, sl, pc}

00002d18 <l2760>:
    2d18:	7028b06c 	eorvc	fp, r8, ip, rrx

00002d1c <l2761>:
    2d1c:	e0f10008 	rscs	r0, r1, r8

00002d20 <l2762>:
    2d20:	e097600e 	adds	r6, r7, lr

00002d24 <l2763>:
    2d24:	51dd01f8 	ldrshpl	r0, [sp, #24]

00002d28 <l2764>:
    2d28:	e1dda1d3 	ldrsb	sl, [sp, #19]

00002d2c <l2765>:
    2d2c:	ea000003 	b	2d40 <l2770>

00002d30 <l2766>:
    2d30:	e2801049 	add	r1, r0, #73	; 0x49

00002d34 <l2767>:
    2d34:	60b53009 	adcsvs	r3, r5, r9

00002d38 <l2768>:
    2d38:	e16f0f19 	clz	r0, r9

00002d3c <l2769>:
    2d3c:	ea000000 	b	2d44 <l2771>

00002d40 <l2770>:
    2d40:	eafffffb 	b	2d34 <l2767>

00002d44 <l2771>:
    2d44:	b1790003 	cmnlt	r9, r3

00002d48 <l2772>:
    2d48:	e242acc6 	sub	sl, r2, #50688	; 0xc600

00002d4c <l2773>:
    2d4c:	e3a07006 	mov	r7, #6

00002d50 <l2774>:
    2d50:	e19d30f7 	ldrsh	r3, [sp, r7]

00002d54 <l2775>:
    2d54:	e053e008 	subs	lr, r3, r8

00002d58 <l2776>:
    2d58:	c061b0aa 	rsbgt	fp, r1, sl, lsr #1

00002d5c <l2777>:
    2d5c:	81710e35 	cmnhi	r1, r5, lsr lr

00002d60 <l2778>:
    2d60:	00507caa 	subseq	r7, r0, sl, lsr #25

00002d64 <l2779>:
    2d64:	e1a00000 	nop			; (mov r0, r0)

00002d68 <l2780>:
    2d68:	e228e617 	eor	lr, r8, #24117248	; 0x1700000

00002d6c <l2781>:
    2d6c:	e3a02014 	mov	r2, #20

00002d70 <l2782>:
    2d70:	918d50b2 	strhls	r5, [sp, r2]

00002d74 <l2783>:
    2d74:	b3770cab 	cmnlt	r7, #43776	; 0xab00

00002d78 <l2784>:
    2d78:	c0fec471 	rscsgt	ip, lr, r1, ror r4

00002d7c <l2785>:
    2d7c:	e1864002 	orr	r4, r6, r2

00002d80 <l2786>:
    2d80:	e2f70e3e 	rscs	r0, r7, #992	; 0x3e0

00002d84 <l2787>:
    2d84:	e16f6f1a 	clz	r6, sl

00002d88 <l2788>:
    2d88:	91520439 	cmpls	r2, r9, lsr r4

00002d8c <l2789>:
    2d8c:	e3b09e9d 	movs	r9, #2512	; 0x9d0

00002d90 <l2790>:
    2d90:	404a2467 	submi	r2, sl, r7, ror #8

00002d94 <l2791>:
    2d94:	20227c73 	eorcs	r7, r2, r3, ror ip

00002d98 <l2792>:
    2d98:	31cd50b0 	strhcc	r5, [sp]

00002d9c <l2793>:
    2d9c:	e1a00000 	nop			; (mov r0, r0)

00002da0 <l2794>:
    2da0:	e59fc000 	ldr	ip, [pc]	; 2da8 <l2796>

00002da4 <l2795>:
    2da4:	ea000000 	b	2dac <l2797>

00002da8 <l2796>:
    2da8:	000fffc8 	.word	0x000fffc8

00002dac <l2797>:
    2dac:	e14c8096 	swpb	r8, r6, [ip]

00002db0 <l2798>:
    2db0:	e0f1e8e7 	rscs	lr, r1, r7, ror #17

00002db4 <l2799>:
    2db4:	e31f0c15 	tst	pc, #5376	; 0x1500

00002db8 <l2800>:
    2db8:	e99d55d0 	ldmib	sp, {r4, r6, r7, r8, sl, ip, lr}

00002dbc <l2801>:
    2dbc:	41cd84b0 	strhmi	r8, [sp, #64]	; 0x40

00002dc0 <l2802>:
    2dc0:	c00b020e 	andgt	r0, fp, lr, lsl #4

00002dc4 <l2803>:
    2dc4:	c1cd72be 	strhgt	r7, [sp, #46]	; 0x2e

00002dc8 <l2804>:
    2dc8:	016fbf1c 	clzeq	fp, ip

00002dcc <l2805>:
    2dcc:	85cd1030 	strbhi	r1, [sp, #48]	; 0x30

00002dd0 <l2806>:
    2dd0:	41500e82 	cmpmi	r0, r2, lsl #29

00002dd4 <l2807>:
    2dd4:	e9bd0004 	ldmib	sp!, {r2}

00002dd8 <l2808>:
    2dd8:	01d40916 	bicseq	r0, r4, r6, lsl r9

00002ddc <l2809>:
    2ddc:	d5cdb038 	strble	fp, [sp, #56]	; 0x38

00002de0 <l2810>:
    2de0:	e15a0a33 	cmp	sl, r3, lsr sl

00002de4 <l2811>:
    2de4:	0001800e 	andeq	r8, r1, lr

00002de8 <l2812>:
    2de8:	e0aa7e3b 	adc	r7, sl, fp, lsr lr

00002dec <l2813>:
    2dec:	e2a62ee6 	adc	r2, r6, #3680	; 0xe60

00002df0 <l2814>:
    2df0:	d16f1f19 	clzle	r1, r9

00002df4 <l2815>:
    2df4:	e9addffc 	stmib	sp!, {r2, r3, r4, r5, r6, r7, r8, r9, sl, fp, ip, lr, pc}

00002df8 <l2816>:
    2df8:	e0a68008 	adc	r8, r6, r8

00002dfc <l2817>:
    2dfc:	11883215 	orrne	r3, r8, r5, lsl r2

00002e00 <l2818>:
    2e00:	e083100f 	add	r1, r3, pc

00002e04 <l2819>:
    2e04:	e3a0300d 	mov	r3, #13

00002e08 <l2820>:
    2e08:	674d2003 	strbvs	r2, [sp, -r3]

00002e0c <l2821>:
    2e0c:	e2e9c098 	rsc	ip, r9, #152	; 0x98

00002e10 <l2822>:
    2e10:	e3a09038 	mov	r9, #56	; 0x38

00002e14 <l2823>:
    2e14:	e60d4009 	str	r4, [sp], -r9

00002e18 <l2824>:
    2e18:	d1500008 	cmple	r0, r8

00002e1c <l2825>:
    2e1c:	5076c011 	rsbspl	ip, r6, r1, lsl r0

00002e20 <l2826>:
    2e20:	e03a99cc 	eors	r9, sl, ip, asr #19

00002e24 <l2827>:
    2e24:	e1a00000 	nop			; (mov r0, r0)

00002e28 <l2828>:
    2e28:	e22e212b 	eor	r2, lr, #-1073741814	; 0xc000000a

00002e2c <l2829>:
    2e2c:	10400002 	subne	r0, r0, r2

00002e30 <l2830>:
    2e30:	d0547000 	subsle	r7, r4, r0

00002e34 <l2831>:
    2e34:	e3a08020 	mov	r8, #32

00002e38 <l2832>:
    2e38:	e68dc008 	str	ip, [sp], r8

00002e3c <l2833>:
    2e3c:	e3a0e028 	mov	lr, #40	; 0x28

00002e40 <l2834>:
    2e40:	e74d300e 	strb	r3, [sp, -lr]

00002e44 <l2835>:
    2e44:	415d32d2 	ldrsbmi	r3, [sp, #-34]	; 0xffffffde

00002e48 <l2836>:
    2e48:	e1a00000 	nop			; (mov r0, r0)

00002e4c <l2837>:
    2e4c:	e59f7000 	ldr	r7, [pc]	; 2e54 <l2839>

00002e50 <l2838>:
    2e50:	ea000000 	b	2e58 <l2840>

00002e54 <l2839>:
    2e54:	000fffe4 	.word	0x000fffe4

00002e58 <l2840>:
    2e58:	e1076099 	swp	r6, r9, [r7]

00002e5c <l2841>:
    2e5c:	e3a01022 	mov	r1, #34	; 0x22

00002e60 <l2842>:
    2e60:	911dc0f1 	ldrshls	ip, [sp, -r1]

00002e64 <l2843>:
    2e64:	80711003 	rsbshi	r1, r1, r3

00002e68 <l2844>:
    2e68:	e59f1000 	ldr	r1, [pc]	; 2e70 <l2846>

00002e6c <l2845>:
    2e6c:	ea000000 	b	2e74 <l2847>

00002e70 <l2846>:
    2e70:	000fffa4 	.word	0x000fffa4

00002e74 <l2847>:
    2e74:	0141b099 	swpbeq	fp, r9, [r1]

00002e78 <l2848>:
    2e78:	e83d0249 	ldmda	sp!, {r0, r3, r6, r9}

00002e7c <l2849>:
    2e7c:	1a000002 	bne	2e8c <l2853>

00002e80 <l2850>:
    2e80:	e0455418 	sub	r5, r5, r8, lsl r4

00002e84 <l2851>:
    2e84:	e3816d8b 	orr	r6, r1, #8896	; 0x22c0

00002e88 <l2852>:
    2e88:	e0380750 	eors	r0, r8, r0, asr r7

00002e8c <l2853>:
    2e8c:	3130000c 	teqcc	r0, ip

00002e90 <l2854>:
    2e90:	b0452bc1 	sublt	r2, r5, r1, asr #23

00002e94 <l2855>:
    2e94:	633a0db1 	teqvs	sl, #11328	; 0x2c40

00002e98 <l2856>:
    2e98:	82fe77ff 	rscshi	r7, lr, #66846720	; 0x3fc0000

00002e9c <l2857>:
    2e9c:	65dd0033 	ldrbvs	r0, [sp, #51]	; 0x33

00002ea0 <l2858>:
    2ea0:	e3a0901e 	mov	r9, #30

00002ea4 <l2859>:
    2ea4:	e18d40b9 	strh	r4, [sp, r9]

00002ea8 <l2860>:
    2ea8:	e3a0c002 	mov	ip, #2

00002eac <l2861>:
    2eac:	118d00bc 	strhne	r0, [sp, ip]

00002eb0 <l2862>:
    2eb0:	10506000 	subsne	r6, r0, r0

00002eb4 <l2863>:
    2eb4:	e13b057c 	teq	fp, ip, ror r5

00002eb8 <l2864>:
    2eb8:	2014600a 	andscs	r6, r4, sl

00002ebc <l2865>:
    2ebc:	e5bdc010 	ldr	ip, [sp, #16]!

00002ec0 <l2866>:
    2ec0:	e061c918 	rsb	ip, r1, r8, lsl r9

00002ec4 <l2867>:
    2ec4:	60e06009 	rscvs	r6, r0, r9

00002ec8 <l2868>:
    2ec8:	619b2447 	orrsvs	r2, fp, r7, asr #8

00002ecc <l2869>:
    2ecc:	b090192e 	addslt	r1, r0, lr, lsr #18

00002ed0 <l2870>:
    2ed0:	70364215 	eorsvc	r4, r6, r5, lsl r2

00002ed4 <l2871>:
    2ed4:	e8ad8816 	stmia	sp!, {r1, r2, r4, fp, pc}

00002ed8 <l2872>:
    2ed8:	e15a0000 	cmp	sl, r0

00002edc <l2873>:
    2edc:	e16f4f10 	clz	r4, r0

00002ee0 <l2874>:
    2ee0:	41750c20 	cmnmi	r5, r0, lsr #24

00002ee4 <l2875>:
    2ee4:	41750557 	cmnmi	r5, r7, asr r5

00002ee8 <l2876>:
    2ee8:	e0126a16 	ands	r6, r2, r6, lsl sl

00002eec <l2877>:
    2eec:	00453e6e 	subeq	r3, r5, lr, ror #28

00002ef0 <l2878>:
    2ef0:	e16f3f15 	clz	r3, r5

00002ef4 <l2879>:
    2ef4:	115d03b2 	ldrhne	r0, [sp, #-50]	; 0xffffffce

00002ef8 <l2880>:
    2ef8:	e0e73151 	rsc	r3, r7, r1, asr r1

00002efc <l2881>:
    2efc:	e1780a71 	cmn	r8, r1, ror sl

00002f00 <l2882>:
    2f00:	c0e8ece0 	rscgt	lr, r8, r0, ror #25

00002f04 <l2883>:
    2f04:	e09c3004 	adds	r3, ip, r4

00002f08 <l2884>:
    2f08:	e00ee000 	and	lr, lr, r0

00002f0c <l2885>:
    2f0c:	a33b0a01 	teqge	fp, #4096	; 0x1000

00002f10 <l2886>:
    2f10:	e0798ecf 	rsbs	r8, r9, pc, asr #29

00002f14 <l2887>:
    2f14:	e55d2008 	ldrb	r2, [sp, #-8]

00002f18 <l2888>:
    2f18:	a17a05cf 	cmnge	sl, pc, asr #11

00002f1c <l2889>:
    2f1c:	e19c3009 	orrs	r3, ip, r9

00002f20 <l2890>:
    2f20:	eaffffff 	b	2f24 <l2891>

00002f24 <l2891>:
    2f24:	e16f8f1b 	clz	r8, fp

00002f28 <l2892>:
    2f28:	e23bbda3 	eors	fp, fp, #10432	; 0x28c0

00002f2c <l2893>:
    2f2c:	95ddc008 	ldrbls	ip, [sp, #8]

00002f30 <l2894>:
    2f30:	804f5008 	subhi	r5, pc, r8

00002f34 <l2895>:
    2f34:	ea000005 	b	2f50 <l2902>

00002f38 <l2896>:
    2f38:	e280107c 	add	r1, r0, #124	; 0x7c

00002f3c <l2897>:
    2f3c:	e1dee000 	bics	lr, lr, r0

00002f40 <l2898>:
    2f40:	c1901003 	orrsgt	r1, r0, r3

00002f44 <l2899>:
    2f44:	704405a0 	subvc	r0, r4, r0, lsr #11

00002f48 <l2900>:
    2f48:	201fcbaf 	andscs	ip, pc, pc, lsr #23

00002f4c <l2901>:
    2f4c:	ea000000 	b	2f54 <l2903>

00002f50 <l2902>:
    2f50:	eafffff9 	b	2f3c <l2897>

00002f54 <l2903>:
    2f54:	e16f3f19 	clz	r3, r9

00002f58 <l2904>:
    2f58:	e15d42d8 	ldrsb	r4, [sp, #-40]	; 0xffffffd8

00002f5c <l2905>:
    2f5c:	21d12007 	bicscs	r2, r1, r7

00002f60 <l2906>:
    2f60:	e15d51f8 	ldrsh	r5, [sp, #-24]	; 0xffffffe8

00002f64 <l2907>:
    2f64:	b55db004 	ldrblt	fp, [sp, #-4]

00002f68 <l2908>:
    2f68:	01140009 	tsteq	r4, r9

00002f6c <l2909>:
    2f6c:	c08be34a 	addgt	lr, fp, sl, asr #6

00002f70 <l2910>:
    2f70:	ea000002 	b	2f80 <l2914>

00002f74 <l2911>:
    2f74:	e2801059 	add	r1, r0, #89	; 0x59

00002f78 <l2912>:
    2f78:	705a4009 	subsvc	r4, sl, r9

00002f7c <l2913>:
    2f7c:	ea000000 	b	2f84 <l2915>

00002f80 <l2914>:
    2f80:	eafffffc 	b	2f78 <l2912>

00002f84 <l2915>:
    2f84:	e3a05009 	mov	r5, #9

00002f88 <l2916>:
    2f88:	e19d80d5 	ldrsb	r8, [sp, r5]

00002f8c <l2917>:
    2f8c:	91c7e3cb 	bicls	lr, r7, fp, asr #7

00002f90 <l2918>:
    2f90:	52bcef45 	adcspl	lr, ip, #276	; 0x114

00002f94 <l2919>:
    2f94:	e3a0501a 	mov	r5, #26

00002f98 <l2920>:
    2f98:	310d90b5 	strhcc	r9, [sp, -r5]

00002f9c <l2921>:
    2f9c:	e0de3003 	sbcs	r3, lr, r3

00002fa0 <l2922>:
    2fa0:	e19f5145 	orrs	r5, pc, r5, asr #2

00002fa4 <l2923>:
    2fa4:	e3a08008 	mov	r8, #8

00002fa8 <l2924>:
    2fa8:	e10d10b8 	strh	r1, [sp, -r8]

00002fac <l2925>:
    2fac:	e52d3004 	push	{r3}		; (str r3, [sp, #-4]!)

00002fb0 <l2926>:
    2fb0:	e16fcf1e 	clz	ip, lr

00002fb4 <l2927>:
    2fb4:	90124731 	andsls	r4, r2, r1, lsr r7

00002fb8 <l2928>:
    2fb8:	4266289e 	rsbmi	r2, r6, #10354688	; 0x9e0000

00002fbc <l2929>:
    2fbc:	e047c356 	sub	ip, r7, r6, asr r3

00002fc0 <l2930>:
    2fc0:	ea000005 	b	2fdc <l2937>

00002fc4 <l2931>:
    2fc4:	e280101a 	add	r1, r0, #26

00002fc8 <l2932>:
    2fc8:	b040b00b 	sublt	fp, r0, fp

00002fcc <l2933>:
    2fcc:	907e8a45 	rsbsls	r8, lr, r5, asr #20

00002fd0 <l2934>:
    2fd0:	e0a1a008 	adc	sl, r1, r8

00002fd4 <l2935>:
    2fd4:	00038b36 	andeq	r8, r3, r6, lsr fp

00002fd8 <l2936>:
    2fd8:	ea000000 	b	2fe0 <l2938>

00002fdc <l2937>:
    2fdc:	eafffff9 	b	2fc8 <l2932>

00002fe0 <l2938>:
    2fe0:	e16f6f10 	clz	r6, r0

00002fe4 <l2939>:
    2fe4:	e1b03631 	lsrs	r3, r1, r6

00002fe8 <l2940>:
    2fe8:	e11c0fa5 	tst	ip, r5, lsr #31

00002fec <l2941>:
    2fec:	00b1273b 	adcseq	r2, r1, fp, lsr r7

00002ff0 <l2942>:
    2ff0:	e83d4903 	ldmda	sp!, {r0, r1, r8, fp, lr}

00002ff4 <l2943>:
    2ff4:	91b0300b 	movsls	r3, fp

00002ff8 <l2944>:
    2ff8:	45cd701d 	strbmi	r7, [sp, #29]

00002ffc <l2945>:
    2ffc:	30e95009 	rsccc	r5, r9, r9

00003000 <l2946>:
    3000:	da000005 	ble	301c <l2953>

00003004 <l2947>:
    3004:	e280105c 	add	r1, r0, #92	; 0x5c

00003008 <l2948>:
    3008:	d33a071d 	teqle	sl, #7602176	; 0x740000

0000300c <l2949>:
    300c:	e17b0447 	cmn	fp, r7, asr #8

00003010 <l2950>:
    3010:	b0c41507 	sbclt	r1, r4, r7, lsl #10

00003014 <l2951>:
    3014:	81730921 	cmnhi	r3, r1, lsr #18

00003018 <l2952>:
    3018:	ea000000 	b	3020 <l2954>

0000301c <l2953>:
    301c:	eafffff9 	b	3008 <l2948>

00003020 <l2954>:
    3020:	ea000007 	b	3044 <l2963>

00003024 <l2955>:
    3024:	e2801078 	add	r1, r0, #120	; 0x78

00003028 <l2956>:
    3028:	9294b552 	addsls	fp, r4, #343932928	; 0x14800000

0000302c <l2957>:
    302c:	e0d155a0 	sbcs	r5, r1, r0, lsr #11

00003030 <l2958>:
    3030:	e1b0167b 	rors	r1, fp, r6

00003034 <l2959>:
    3034:	505faea4 	subspl	sl, pc, r4, lsr #29

00003038 <l2960>:
    3038:	e1d8c004 	bics	ip, r8, r4

0000303c <l2961>:
    303c:	71d00dc0 	bicsvc	r0, r0, r0, asr #27

00003040 <l2962>:
    3040:	ea000000 	b	3048 <l2964>

00003044 <l2963>:
    3044:	eafffff7 	b	3028 <l2956>

00003048 <l2964>:
    3048:	e59f8000 	ldr	r8, [pc]	; 3050 <l2966>

0000304c <l2965>:
    304c:	ea000000 	b	3054 <l2967>

00003050 <l2966>:
    3050:	000fffe8 	.word	0x000fffe8

00003054 <l2967>:
    3054:	51484094 	swpbpl	r4, r4, [r8]

00003058 <l2968>:
    3058:	e59f8000 	ldr	r8, [pc]	; 3060 <l2970>

0000305c <l2969>:
    305c:	ea000000 	b	3064 <l2971>

00003060 <l2970>:
    3060:	000fffc4 	.word	0x000fffc4

00003064 <l2971>:
    3064:	a148309a 	swpbge	r3, sl, [r8]

00003068 <l2972>:
    3068:	e05a8003 	subs	r8, sl, r3

0000306c <l2973>:
    306c:	01790060 	cmneq	r9, r0, rrx

00003070 <l2974>:
    3070:	e130006e 	teq	r0, lr, rrx

00003074 <l2975>:
    3074:	35cd7000 	strbcc	r7, [sp]

00003078 <l2976>:
    3078:	2011a00e 	andscs	sl, r1, lr

0000307c <l2977>:
    307c:	e3a0e024 	mov	lr, #36	; 0x24

00003080 <l2978>:
    3080:	e71d000e 	ldr	r0, [sp, -lr]

00003084 <l2979>:
    3084:	7197e00a 	orrsvc	lr, r7, sl

00003088 <l2980>:
    3088:	01500958 	cmpeq	r0, r8, asr r9

0000308c <l2981>:
    308c:	a2e6b7a5 	rscge	fp, r6, #43253760	; 0x2940000

00003090 <l2982>:
    3090:	e41d3014 	ldr	r3, [sp], #-20

00003094 <l2983>:
    3094:	11dd33d3 	ldrsbne	r3, [sp, #51]	; 0x33

00003098 <l2984>:
    3098:	e59f9000 	ldr	r9, [pc]	; 30a0 <l2986>

0000309c <l2985>:
    309c:	ea000000 	b	30a4 <l2987>

000030a0 <l2986>:
    30a0:	000fffa8 	.word	0x000fffa8

000030a4 <l2987>:
    30a4:	71498097 	swpbvc	r8, r7, [r9]

000030a8 <l2988>:
    30a8:	e82d0002 	stmda	sp!, {r1}

000030ac <l2989>:
    30ac:	32a1b312 	adccc	fp, r1, #1207959552	; 0x48000000

000030b0 <l2990>:
    30b0:	ea000003 	b	30c4 <l2995>

000030b4 <l2991>:
    30b4:	e28010a0 	add	r1, r0, #160	; 0xa0

000030b8 <l2992>:
    30b8:	e246c622 	sub	ip, r6, #35651584	; 0x2200000

000030bc <l2993>:
    30bc:	e08c405a 	add	r4, ip, sl, asr r0

000030c0 <l2994>:
    30c0:	ea000000 	b	30c8 <l2996>

000030c4 <l2995>:
    30c4:	eafffffb 	b	30b8 <l2992>

000030c8 <l2996>:
    30c8:	e1740213 	cmn	r4, r3, lsl r2

000030cc <l2997>:
    30cc:	e13c0950 	teq	ip, r0, asr r9

000030d0 <l2998>:
    30d0:	e3a0e00a 	mov	lr, #10

000030d4 <l2999>:
    30d4:	519da0de 	ldrsbpl	sl, [sp, lr]

000030d8 <l3000>:
    30d8:	e254a7b6 	subs	sl, r4, #47710208	; 0x2d80000

000030dc <l3001>:
    30dc:	e3a06010 	mov	r6, #16

000030e0 <l3002>:
    30e0:	b19d10b6 	ldrhlt	r1, [sp, r6]

000030e4 <l3003>:
    30e4:	e0826e54 	add	r6, r2, r4, asr lr

000030e8 <l3004>:
    30e8:	e1a00000 	nop			; (mov r0, r0)

000030ec <l3005>:
    30ec:	e1a05540 	asr	r5, r0, #10

000030f0 <l3006>:
    30f0:	e3a0b005 	mov	fp, #5

000030f4 <l3007>:
    30f4:	474d700b 	strbmi	r7, [sp, -fp]

000030f8 <l3008>:
    30f8:	e0d35005 	sbcs	r5, r3, r5

000030fc <l3009>:
    30fc:	e5ad7014 	str	r7, [sp, #20]!

00003100 <l3010>:
    3100:	e3a02008 	mov	r2, #8

00003104 <l3011>:
    3104:	818d00b2 	strhhi	r0, [sp, r2]

00003108 <l3012>:
    3108:	e1a0335c 	asr	r3, ip, r3

0000310c <l3013>:
    310c:	e05c740b 	subs	r7, ip, fp, lsl #8

00003110 <l3014>:
    3110:	e0e1300e 	rsc	r3, r1, lr

00003114 <l3015>:
    3114:	e1a00000 	nop			; (mov r0, r0)

00003118 <l3016>:
    3118:	d17f0008 	cmnle	pc, r8

0000311c <l3017>:
    311c:	e138006f 	teq	r8, pc, rrx

00003120 <l3018>:
    3120:	e3a0a014 	mov	sl, #20

00003124 <l3019>:
    3124:	211d00ba 	ldrhcs	r0, [sp, -sl]

00003128 <l3020>:
    3128:	e1330003 	teq	r3, r3

0000312c <l3021>:
    312c:	e3a00006 	mov	r0, #6

00003130 <l3022>:
    3130:	310d30b0 	strhcc	r3, [sp, -r0]

00003134 <l3023>:
    3134:	ea000003 	b	3148 <l3028>

00003138 <l3024>:
    3138:	e280105c 	add	r1, r0, #92	; 0x5c

0000313c <l3025>:
    313c:	006e8067 	rsbeq	r8, lr, r7, rrx

00003140 <l3026>:
    3140:	e1c1200e 	bic	r2, r1, lr

00003144 <l3027>:
    3144:	ea000000 	b	314c <l3029>

00003148 <l3028>:
    3148:	eafffffb 	b	313c <l3025>

0000314c <l3029>:
    314c:	e8bd1fe6 	pop	{r1, r2, r5, r6, r7, r8, r9, sl, fp, ip}

00003150 <l3030>:
    3150:	91c83434 	bicls	r3, r8, r4, lsr r4

00003154 <l3031>:
    3154:	90732f87 	rsbsls	r2, r3, r7, lsl #31

00003158 <l3032>:
    3158:	0a000003 	beq	316c <l3037>

0000315c <l3033>:
    315c:	a205682a 	andge	r6, r5, #2752512	; 0x2a0000

00003160 <l3034>:
    3160:	e1b0e275 	rors	lr, r5, r2

00003164 <l3035>:
    3164:	206a5067 	rsbcs	r5, sl, r7, rrx

00003168 <l3036>:
    3168:	e22e04c2 	eor	r0, lr, #-1040187392	; 0xc2000000

0000316c <l3037>:
    316c:	32a1cbae 	adccc	ip, r1, #178176	; 0x2b800

00003170 <l3038>:
    3170:	e59fa000 	ldr	sl, [pc]	; 3178 <l3040>

00003174 <l3039>:
    3174:	ea000000 	b	317c <l3041>

00003178 <l3040>:
    3178:	000fffa8 	.word	0x000fffa8

0000317c <l3041>:
    317c:	c14a109b 	swpbgt	r1, fp, [sl]

00003180 <l3042>:
    3180:	e154061b 	cmp	r4, fp, lsl r6

00003184 <l3043>:
    3184:	81c79000 	bichi	r9, r7, r0

00003188 <l3044>:
    3188:	0221b3ff 	eoreq	fp, r1, #-67108861	; 0xfc000003

0000318c <l3045>:
    318c:	e3a0c034 	mov	ip, #52	; 0x34

00003190 <l3046>:
    3190:	911d80dc 	ldrsbls	r8, [sp, -ip]

00003194 <l3047>:
    3194:	613b0a8b 	teqvs	fp, fp, lsl #21

00003198 <l3048>:
    3198:	e18c2009 	orr	r2, ip, r9

0000319c <l3049>:
    319c:	e3a0403c 	mov	r4, #60	; 0x3c

000031a0 <l3050>:
    31a0:	575d8004 	ldrbpl	r8, [sp, -r4]

000031a4 <l3051>:
    31a4:	e09c4fc6 	adds	r4, ip, r6, asr #31

000031a8 <l3052>:
    31a8:	e02ea009 	eor	sl, lr, r9

000031ac <l3053>:
    31ac:	2010e43a 	andscs	lr, r0, sl, lsr r4

000031b0 <l3054>:
    31b0:	71120005 	tstvc	r2, r5

000031b4 <l3055>:
    31b4:	5051c062 	subspl	ip, r1, r2, rrx

000031b8 <l3056>:
    31b8:	e14d82b8 	strh	r8, [sp, #-40]	; 0xffffffd8

000031bc <l3057>:
    31bc:	e55d8019 	ldrb	r8, [sp, #-25]

000031c0 <l3058>:
    31c0:	e3a0c002 	mov	ip, #2

000031c4 <l3059>:
    31c4:	e10d10bc 	strh	r1, [sp, -ip]

000031c8 <l3060>:
    31c8:	513404a0 	teqpl	r4, r0, lsr #9

000031cc <l3061>:
    31cc:	e193b112 	orrs	fp, r3, r2, lsl r1

000031d0 <l3062>:
    31d0:	e3a01023 	mov	r1, #35	; 0x23

000031d4 <l3063>:
    31d4:	b74d5001 	strblt	r5, [sp, -r1]

000031d8 <l3064>:
    31d8:	615d32fa 	ldrshvs	r3, [sp, #-42]	; 0xffffffd6

000031dc <l3065>:
    31dc:	e1b02278 	rors	r2, r8, r2

000031e0 <l3066>:
    31e0:	33993bc9 	orrscc	r3, r9, #205824	; 0x32400

000031e4 <l3067>:
    31e4:	e2136502 	ands	r6, r3, #8388608	; 0x800000

000031e8 <l3068>:
    31e8:	e0a2700c 	adc	r7, r2, ip

000031ec <l3069>:
    31ec:	e3a0302f 	mov	r3, #47	; 0x2f

000031f0 <l3070>:
    31f0:	675db003 	ldrbvs	fp, [sp, -r3]

000031f4 <l3071>:
    31f4:	21110066 	tstcs	r1, r6, rrx

000031f8 <l3072>:
    31f8:	e1de07c2 	bics	r0, lr, r2, asr #15

000031fc <l3073>:
    31fc:	e59f1000 	ldr	r1, [pc]	; 3204 <l3075>

00003200 <l3074>:
    3200:	ea000000 	b	3208 <l3076>

00003204 <l3075>:
    3204:	000fffc0 	.word	0x000fffc0

00003208 <l3076>:
    3208:	61019092 	swpvs	r9, r2, [r1]

0000320c <l3077>:
    320c:	7a000003 	bvc	3220 <l3082>

00003210 <l3078>:
    3210:	e2801082 	add	r1, r0, #130	; 0x82

00003214 <l3079>:
    3214:	51e0a91a 	mvnpl	sl, sl, lsl r9

00003218 <l3080>:
    3218:	405ea945 	subsmi	sl, lr, r5, asr #18

0000321c <l3081>:
    321c:	ea000000 	b	3224 <l3083>

00003220 <l3082>:
    3220:	eafffffb 	b	3214 <l3079>

00003224 <l3083>:
    3224:	11c1b31e 	bicne	fp, r1, lr, lsl r3

00003228 <l3084>:
    3228:	03cf5555 	biceq	r5, pc, #356515840	; 0x15400000

0000322c <l3085>:
    322c:	e3a0a045 	mov	sl, #69	; 0x45

00003230 <l3086>:
    3230:	311d30da 	ldrsbcc	r3, [sp, -sl]

00003234 <l3087>:
    3234:	e070300b 	rsbs	r3, r0, fp

00003238 <l3088>:
    3238:	a1570068 	cmpge	r7, r8, rrx

0000323c <l3089>:
    323c:	e51d203c 	ldr	r2, [sp, #-60]	; 0x3c

00003240 <l3090>:
    3240:	537e030f 	cmnpl	lr, #1006632960	; 0x3c000000

00003244 <l3091>:
    3244:	e0c12001 	sbc	r2, r1, r1

00003248 <l3092>:
    3248:	53980959 	orrspl	r0, r8, #1458176	; 0x164000

0000324c <l3093>:
    324c:	e0bab009 	adcs	fp, sl, r9

00003250 <l3094>:
    3250:	e155031a 	cmp	r5, sl, lsl r3

00003254 <l3095>:
    3254:	e40da044 	str	sl, [sp], #-68	; 0x44

00003258 <l3096>:
    3258:	7084000a 	addvc	r0, r4, sl

0000325c <l3097>:
    325c:	e1360008 	teq	r6, r8

00003260 <l3098>:
    3260:	ba000000 	blt	3268 <l3100>

00003264 <l3099>:
    3264:	e2cf5dab 	sbc	r5, pc, #10944	; 0x2ac0

00003268 <l3100>:
    3268:	e0b86000 	adcs	r6, r8, r0

0000326c <l3101>:
    326c:	e59f8000 	ldr	r8, [pc]	; 3274 <l3103>

00003270 <l3102>:
    3270:	ea000000 	b	3278 <l3104>

00003274 <l3103>:
    3274:	000fffd0 	.word	0x000fffd0

00003278 <l3104>:
    3278:	8108e090 	swphi	lr, r0, [r8]

0000327c <l3105>:
    327c:	e9bd1f22 	ldmib	sp!, {r1, r5, r8, r9, sl, fp, ip}

00003280 <l3106>:
    3280:	c1cd81b4 	strhgt	r8, [sp, #20]

00003284 <l3107>:
    3284:	31dd72b6 	ldrhcc	r7, [sp, #38]	; 0x26

00003288 <l3108>:
    3288:	e1d0900f 	bics	r9, r0, pc

0000328c <l3109>:
    328c:	e55d701b 	ldrb	r7, [sp, #-27]

00003290 <l3110>:
    3290:	ea000008 	b	32b8 <l3120>

00003294 <l3111>:
    3294:	e1520413 	cmp	r2, r3, lsl r4

00003298 <l3112>:
    3298:	53520e1d 	cmppl	r2, #464	; 0x1d0

0000329c <l3113>:
    329c:	a04050c2 	subge	r5, r0, r2, asr #1

000032a0 <l3114>:
    32a0:	e0dac001 	sbcs	ip, sl, r1

000032a4 <l3115>:
    32a4:	e37603a9 	cmn	r6, #-1543503870	; 0xa4000002

000032a8 <l3116>:
    32a8:	61300f6e 	teqvs	r0, lr, ror #30

000032ac <l3117>:
    32ac:	21da935a 	bicscs	r9, sl, sl, asr r3

000032b0 <l3118>:
    32b0:	51b08014 	lslspl	r8, r4, r0

000032b4 <l3119>:
    32b4:	e13b0e34 	teq	fp, r4, lsr lr

000032b8 <l3120>:
    32b8:	e00be064 	and	lr, fp, r4, rrx

000032bc <l3121>:
    32bc:	e3a06029 	mov	r6, #41	; 0x29

000032c0 <l3122>:
    32c0:	e19d90d6 	ldrsb	r9, [sp, r6]

000032c4 <l3123>:
    32c4:	30bc2856 	adcscc	r2, ip, r6, asr r8

000032c8 <l3124>:
    32c8:	a2d1041f 	sbcsge	r0, r1, #520093696	; 0x1f000000

000032cc <l3125>:
    32cc:	e0cf9001 	sbc	r9, pc, r1

000032d0 <l3126>:
    32d0:	e0114e8a 	ands	r4, r1, sl, lsl #29

000032d4 <l3127>:
    32d4:	a005400c 	andge	r4, r5, ip

000032d8 <l3128>:
    32d8:	e40db004 	str	fp, [sp], #-4

000032dc <l3129>:
    32dc:	e3a02009 	mov	r2, #9

000032e0 <l3130>:
    32e0:	e7cd9002 	strb	r9, [sp, r2]

000032e4 <l3131>:
    32e4:	50de463e 	sbcspl	r4, lr, lr, lsr r6

000032e8 <l3132>:
    32e8:	e9bd1091 	ldmib	sp!, {r0, r4, r7, ip}

000032ec <l3133>:
    32ec:	e1cd00b0 	strh	r0, [sp]

000032f0 <l3134>:
    32f0:	e1a00000 	nop			; (mov r0, r0)

000032f4 <l3135>:
    32f4:	e06c1060 	rsb	r1, ip, r0, rrx

000032f8 <l3136>:
    32f8:	815d70f6 	ldrshhi	r7, [sp, #-6]

000032fc <l3137>:
    32fc:	e0638d6a 	rsb	r8, r3, sl, ror #26

00003300 <l3138>:
    3300:	d1c49009 	bicle	r9, r4, r9

00003304 <l3139>:
    3304:	ea000000 	b	330c <l3141>

00003308 <l3140>:
    3308:	c20e947f 	andgt	r9, lr, #2130706432	; 0x7f000000

0000330c <l3141>:
    330c:	12cb564d 	sbcne	r5, fp, #80740352	; 0x4d00000

00003310 <l3142>:
    3310:	e1550317 	cmp	r5, r7, lsl r3

00003314 <l3143>:
    3314:	b193400a 	orrslt	r4, r3, sl

00003318 <l3144>:
    3318:	d0211004 	eorle	r1, r1, r4

0000331c <l3145>:
    331c:	e8ad2000 	stmia	sp!, {sp}

00003320 <l3146>:
    3320:	c0b6ae54 	adcsgt	sl, r6, r4, asr lr

00003324 <l3147>:
    3324:	e0611061 	rsb	r1, r1, r1, rrx

00003328 <l3148>:
    3328:	e59f5000 	ldr	r5, [pc]	; 3330 <l3150>

0000332c <l3149>:
    332c:	ea000000 	b	3334 <l3151>

00003330 <l3150>:
    3330:	000fffdc 	.word	0x000fffdc

00003334 <l3151>:
    3334:	5145809e 	swpbpl	r8, lr, [r5]

00003338 <l3152>:
    3338:	e051558a 	subs	r5, r1, sl, lsl #11

0000333c <l3153>:
    333c:	e3a0e00b 	mov	lr, #11

00003340 <l3154>:
    3340:	e7dd400e 	ldrb	r4, [sp, lr]

00003344 <l3155>:
    3344:	e59d500c 	ldr	r5, [sp, #12]

00003348 <l3156>:
    3348:	90723b66 	rsbsls	r3, r2, r6, ror #22

0000334c <l3157>:
    334c:	e29ce009 	adds	lr, ip, #9

00003350 <l3158>:
    3350:	e0472007 	sub	r2, r7, r7

00003354 <l3159>:
    3354:	e59f9000 	ldr	r9, [pc]	; 335c <l3161>

00003358 <l3160>:
    3358:	ea000000 	b	3360 <l3162>

0000335c <l3161>:
    335c:	000fffb8 	.word	0x000fffb8

00003360 <l3162>:
    3360:	d109009e 	swple	r0, lr, [r9]

00003364 <l3163>:
    3364:	e17f0062 	cmn	pc, r2, rrx

00003368 <l3164>:
    3368:	e13908e5 	teq	r9, r5, ror #17

0000336c <l3165>:
    336c:	00d62004 	sbcseq	r2, r6, r4

00003370 <l3166>:
    3370:	70082066 	andvc	r2, r8, r6, rrx

00003374 <l3167>:
    3374:	e3a0c002 	mov	ip, #2

00003378 <l3168>:
    3378:	618da0bc 	strhvs	sl, [sp, ip]

0000337c <l3169>:
    337c:	e3a03014 	mov	r3, #20

00003380 <l3170>:
    3380:	079d5003 	ldreq	r5, [sp, r3]

00003384 <l3171>:
    3384:	1034b005 	eorsne	fp, r4, r5

00003388 <l3172>:
    3388:	c29a1a0f 	addsgt	r1, sl, #61440	; 0xf000

0000338c <l3173>:
    338c:	829aba19 	addshi	fp, sl, #102400	; 0x19000

00003390 <l3174>:
    3390:	30565c74 	subscc	r5, r6, r4, ror ip

00003394 <l3175>:
    3394:	b90d1002 	stmdblt	sp, {r1, ip}

00003398 <l3176>:
    3398:	e9bd4090 	ldmib	sp!, {r4, r7, lr}

0000339c <l3177>:
    339c:	415d61f6 	ldrshmi	r6, [sp, #-22]	; 0xffffffea

000033a0 <l3178>:
    33a0:	e2770202 	rsbs	r0, r7, #536870912	; 0x20000000

000033a4 <l3179>:
    33a4:	e55d401a 	ldrb	r4, [sp, #-26]

000033a8 <l3180>:
    33a8:	e3a02022 	mov	r2, #34	; 0x22

000033ac <l3181>:
    33ac:	511db0d2 	ldrsbpl	fp, [sp, -r2]

000033b0 <l3182>:
    33b0:	a26ae7fa 	rsbge	lr, sl, #65536000	; 0x3e80000

000033b4 <l3183>:
    33b4:	e1160551 	tst	r6, r1, asr r5

000033b8 <l3184>:
    33b8:	81e0900b 	mvnhi	r9, fp

000033bc <l3185>:
    33bc:	e3550887 	cmp	r5, #8847360	; 0x870000

000033c0 <l3186>:
    33c0:	a55de003 	ldrbge	lr, [sp, #-3]

000033c4 <l3187>:
    33c4:	e0716061 	rsbs	r6, r1, r1, rrx

000033c8 <l3188>:
    33c8:	e3540c4f 	cmp	r4, #20224	; 0x4f00

000033cc <l3189>:
    33cc:	d0f0100c 	rscsle	r1, r0, ip

000033d0 <l3190>:
    33d0:	e59f8000 	ldr	r8, [pc]	; 33d8 <l3192>

000033d4 <l3191>:
    33d4:	ea000000 	b	33dc <l3193>

000033d8 <l3192>:
    33d8:	000fffb8 	.word	0x000fffb8

000033dc <l3193>:
    33dc:	21080091 	swpcs	r0, r1, [r8]

000033e0 <l3194>:
    33e0:	e35a0b86 	cmp	sl, #137216	; 0x21800

000033e4 <l3195>:
    33e4:	60a3ec5e 	adcvs	lr, r3, lr, asr ip

000033e8 <l3196>:
    33e8:	e25bb1a5 	subs	fp, fp, #1073741865	; 0x40000029

000033ec <l3197>:
    33ec:	d1f0600a 	mvnsle	r6, sl

000033f0 <l3198>:
    33f0:	81e0e069 	mvnhi	lr, r9, rrx

000033f4 <l3199>:
    33f4:	da000006 	ble	3414 <l3207>

000033f8 <l3200>:
    33f8:	0020225a 	eoreq	r2, r0, sl, asr r2

000033fc <l3201>:
    33fc:	11500069 	cmpne	r0, r9, rrx

00003400 <l3202>:
    3400:	e09f7003 	adds	r7, pc, r3

00003404 <l3203>:
    3404:	627a42af 	rsbsvs	r4, sl, #-268435446	; 0xf000000a

00003408 <l3204>:
    3408:	e099200e 	adds	r2, r9, lr

0000340c <l3205>:
    340c:	e1100d4e 	tst	r0, lr, asr #26

00003410 <l3206>:
    3410:	b0d9a82b 	sbcslt	sl, r9, fp, lsr #16

00003414 <l3207>:
    3414:	02f0304c 	rscseq	r3, r0, #76	; 0x4c

00003418 <l3208>:
    3418:	e110000f 	tst	r0, pc

0000341c <l3209>:
    341c:	a1e03000 	mvnge	r3, r0

00003420 <l3210>:
    3420:	d1e05869 	mvnle	r5, r9, ror #16

00003424 <l3211>:
    3424:	d15d12db 	ldrsble	r1, [sp, #-43]	; 0xffffffd5

00003428 <l3212>:
    3428:	e01b5005 	ands	r5, fp, r5

0000342c <l3213>:
    342c:	e2a135fb 	adc	r3, r1, #1052770304	; 0x3ec00000

00003430 <l3214>:
    3430:	1082600e 	addne	r6, r2, lr

00003434 <l3215>:
    3434:	43a0c637 	movmi	ip, #57671680	; 0x3700000

00003438 <l3216>:
    3438:	80cb8006 	sbchi	r8, fp, r6

0000343c <l3217>:
    343c:	81f0206a 	mvnshi	r2, sl, rrx

00003440 <l3218>:
    3440:	71120067 	tstvc	r2, r7, rrx

00003444 <l3219>:
    3444:	ba000005 	blt	3460 <l3226>

00003448 <l3220>:
    3448:	e13b0001 	teq	fp, r1

0000344c <l3221>:
    344c:	e1100565 	tst	r0, r5, ror #10

00003450 <l3222>:
    3450:	43d418ea 	bicsmi	r1, r4, #15335424	; 0xea0000

00003454 <l3223>:
    3454:	01d263aa 	bicseq	r6, r2, sl, lsr #7

00003458 <l3224>:
    3458:	e17c01c8 	cmn	ip, r8, asr #3

0000345c <l3225>:
    345c:	0136000e 	teqeq	r6, lr

00003460 <l3226>:
    3460:	e1d3ce5e 	bics	ip, r3, lr, asr lr

00003464 <l3227>:
    3464:	e1c6e45e 	bic	lr, r6, lr, asr r4

00003468 <l3228>:
    3468:	e1c89061 	bic	r9, r8, r1, rrx

0000346c <l3229>:
    346c:	e03c0f4b 	eors	r0, ip, fp, asr #30

00003470 <l3230>:
    3470:	c04f8007 	subgt	r8, pc, r7

00003474 <l3231>:
    3474:	e59f9000 	ldr	r9, [pc]	; 347c <l3233>

00003478 <l3232>:
    3478:	ea000000 	b	3480 <l3234>

0000347c <l3233>:
    347c:	000fffc0 	.word	0x000fffc0

00003480 <l3234>:
    3480:	4109a09e 	swpmi	sl, lr, [r9]

00003484 <l3235>:
    3484:	e3a00026 	mov	r0, #38	; 0x26

00003488 <l3236>:
    3488:	e11dc0b0 	ldrh	ip, [sp, -r0]

0000348c <l3237>:
    348c:	b0f8291c 	rscslt	r2, r8, ip, lsl r9

00003490 <l3238>:
    3490:	e0069779 	and	r9, r6, r9, ror r7

00003494 <l3239>:
    3494:	e2ca66e3 	sbc	r6, sl, #238026752	; 0xe300000

00003498 <l3240>:
    3498:	e079ac70 	rsbs	sl, r9, r0, ror ip

0000349c <l3241>:
    349c:	e3a0b007 	mov	fp, #7

000034a0 <l3242>:
    34a0:	e19d70db 	ldrsb	r7, [sp, fp]

000034a4 <l3243>:
    34a4:	e2a0aa13 	adc	sl, r0, #77824	; 0x13000

000034a8 <l3244>:
    34a8:	c198c067 	orrsgt	ip, r8, r7, rrx

000034ac <l3245>:
    34ac:	e59fc000 	ldr	ip, [pc]	; 34b4 <l3247>

000034b0 <l3246>:
    34b0:	ea000000 	b	34b8 <l3248>

000034b4 <l3247>:
    34b4:	000fffd0 	.word	0x000fffd0

000034b8 <l3248>:
    34b8:	914c609e 	swpbls	r6, lr, [ip]

000034bc <l3249>:
    34bc:	e48df004 	str	pc, [sp], #4

000034c0 <l3250>:
    34c0:	314da2ba 	strhcc	sl, [sp, #-42]	; 0xffffffd6

000034c4 <l3251>:
    34c4:	e0d04646 	sbcs	r4, r0, r6, asr #12

000034c8 <l3252>:
    34c8:	1288a196 	addne	sl, r8, #-2147483611	; 0x80000025

000034cc <l3253>:
    34cc:	e2094bab 	and	r4, r9, #175104	; 0x2ac00

000034d0 <l3254>:
    34d0:	e5adc004 	str	ip, [sp, #4]!

000034d4 <l3255>:
    34d4:	e3a04010 	mov	r4, #16

000034d8 <l3256>:
    34d8:	910dc0b4 	strhls	ip, [sp, -r4]

000034dc <l3257>:
    34dc:	e0423119 	sub	r3, r2, r9, lsl r1

000034e0 <l3258>:
    34e0:	ca000002 	bgt	34f0 <l3262>

000034e4 <l3259>:
    34e4:	10ea1f6f 	rscne	r1, sl, pc, ror #30

000034e8 <l3260>:
    34e8:	e182700a 	orr	r7, r2, sl

000034ec <l3261>:
    34ec:	10957003 	addsne	r7, r5, r3

000034f0 <l3262>:
    34f0:	b1320000 	teqlt	r2, r0

000034f4 <l3263>:
    34f4:	e51d0040 	ldr	r0, [sp, #-64]	; 0x40

000034f8 <l3264>:
    34f8:	80213611 	eorhi	r3, r1, r1, lsl r6

000034fc <l3265>:
    34fc:	e3710009 	cmn	r1, #9

00003500 <l3266>:
    3500:	6051b00a 	subsvs	fp, r1, sl

00003504 <l3267>:
    3504:	21550005 	cmpcs	r5, r5

00003508 <l3268>:
    3508:	81710f81 	cmnhi	r1, r1, lsl #31

0000350c <l3269>:
    350c:	70deec20 	sbcsvc	lr, lr, r0, lsr #24

00003510 <l3270>:
    3510:	e59fa000 	ldr	sl, [pc]	; 3518 <l3272>

00003514 <l3271>:
    3514:	ea000000 	b	351c <l3273>

00003518 <l3272>:
    3518:	000fffb4 	.word	0x000fffb4

0000351c <l3273>:
    351c:	114a9095 	swpbne	r9, r5, [sl]

00003520 <l3274>:
    3520:	e1e0106c 	mvn	r1, ip, rrx

00003524 <l3275>:
    3524:	e15d33ba 	ldrh	r3, [sp, #-58]	; 0xffffffc6

00003528 <l3276>:
    3528:	116f7f1a 	clzne	r7, sl

0000352c <l3277>:
    352c:	e15da4d4 	ldrsb	sl, [sp, #-68]	; 0xffffffbc

00003530 <l3278>:
    3530:	b16f2f17 	clzlt	r2, r7

00003534 <l3279>:
    3534:	e1e09e7b 	mvn	r9, fp, ror lr

00003538 <l3280>:
    3538:	30e16064 	rsccc	r6, r1, r4, rrx

0000353c <l3281>:
    353c:	115d22d2 	ldrsbne	r2, [sp, #-34]	; 0xffffffde

00003540 <l3282>:
    3540:	11f0e00e 	mvnsne	lr, lr

00003544 <l3283>:
    3544:	10410279 	subne	r0, r1, r9, ror r2

00003548 <l3284>:
    3548:	315d22d8 	ldrsbcc	r2, [sp, #-40]	; 0xffffffd8

0000354c <l3285>:
    354c:	83c08549 	bichi	r8, r0, #306184192	; 0x12400000

00003550 <l3286>:
    3550:	914d01b4 	strhls	r0, [sp, #-20]	; 0xffffffec

00003554 <l3287>:
    3554:	698d0010 	stmibvs	sp, {r4}

00003558 <l3288>:
    3558:	e058e150 	subs	lr, r8, r0, asr r1

0000355c <l3289>:
    355c:	62bf7343 	adcsvs	r7, pc, #201326593	; 0xc000001

00003560 <l3290>:
    3560:	e52de008 	str	lr, [sp, #-8]!

00003564 <l3291>:
    3564:	e24089c3 	sub	r8, r0, #3194880	; 0x30c000

00003568 <l3292>:
    3568:	92014123 	andls	r4, r1, #-1073741816	; 0xc0000008

0000356c <l3293>:
    356c:	e1150c8a 	tst	r5, sl, lsl #25

00003570 <l3294>:
    3570:	e15db1f8 	ldrsh	fp, [sp, #-24]	; 0xffffffe8

00003574 <l3295>:
    3574:	e15d71b0 	ldrh	r7, [sp, #-16]

00003578 <l3296>:
    3578:	a11a0003 	tstge	sl, r3

0000357c <l3297>:
    357c:	4130006c 	teqmi	r0, ip, rrx

00003580 <l3298>:
    3580:	30e13d27 	rsccc	r3, r1, r7, lsr #26

00003584 <l3299>:
    3584:	e3a0c016 	mov	ip, #22

00003588 <l3300>:
    3588:	910db0bc 	strhls	fp, [sp, -ip]

0000358c <l3301>:
    358c:	e1100318 	tst	r0, r8, lsl r3

00003590 <l3302>:
    3590:	855de01e 	ldrbhi	lr, [sp, #-30]

00003594 <l3303>:
    3594:	e55d8006 	ldrb	r8, [sp, #-6]

00003598 <l3304>:
    3598:	b55de005 	ldrblt	lr, [sp, #-5]

0000359c <l3305>:
    359c:	d1e05003 	mvnle	r5, r3

000035a0 <l3306>:
    35a0:	e3a0e008 	mov	lr, #8

000035a4 <l3307>:
    35a4:	d19d40de 	ldrsble	r4, [sp, lr]

000035a8 <l3308>:
    35a8:	e9bd0820 	ldmib	sp!, {r5, fp}

000035ac <l3309>:
    35ac:	e1f01782 	mvns	r1, r2, lsl #15

000035b0 <l3310>:
    35b0:	e3a04030 	mov	r4, #48	; 0x30

000035b4 <l3311>:
    35b4:	975d6004 	ldrbls	r6, [sp, -r4]

000035b8 <l3312>:
    35b8:	25cd0002 	strbcs	r0, [sp, #2]

000035bc <l3313>:
    35bc:	e50dc038 	str	ip, [sp, #-56]	; 0x38

000035c0 <l3314>:
    35c0:	e3a09008 	mov	r9, #8

000035c4 <l3315>:
    35c4:	e60d9009 	str	r9, [sp], -r9

000035c8 <l3316>:
    35c8:	31790b33 	cmncc	r9, r3, lsr fp

000035cc <l3317>:
    35cc:	b1120000 	tstlt	r2, r0

000035d0 <l3318>:
    35d0:	e1e09850 	mvn	r9, r0, asr r8

000035d4 <l3319>:
    35d4:	7035800e 	eorsvc	r8, r5, lr

000035d8 <l3320>:
    35d8:	e3a0b006 	mov	fp, #6

000035dc <l3321>:
    35dc:	e75d300b 	ldrb	r3, [sp, -fp]

000035e0 <l3322>:
    35e0:	91dd80f6 	ldrshls	r8, [sp, #6]

000035e4 <l3323>:
    35e4:	2221b004 	eorcs	fp, r1, #4

000035e8 <l3324>:
    35e8:	e15d32fa 	ldrsh	r3, [sp, #-42]	; 0xffffffd6

000035ec <l3325>:
    35ec:	e1dd80d4 	ldrsb	r8, [sp, #4]

000035f0 <l3326>:
    35f0:	735f0e66 	cmpvc	pc, #1632	; 0x660

000035f4 <l3327>:
    35f4:	409f2725 	addsmi	r2, pc, r5, lsr #14

000035f8 <l3328>:
    35f8:	ea000003 	b	360c <l3333>

000035fc <l3329>:
    35fc:	e28010e8 	add	r1, r0, #232	; 0xe8

00003600 <l3330>:
    3600:	8131091a 	teqhi	r1, sl, lsl r9

00003604 <l3331>:
    3604:	61e060cb 	mvnvs	r6, fp, asr #1

00003608 <l3332>:
    3608:	ea000000 	b	3610 <l3334>

0000360c <l3333>:
    360c:	eafffffb 	b	3600 <l3330>

00003610 <l3334>:
    3610:	c139007b 	teqgt	r9, fp, ror r0

00003614 <l3335>:
    3614:	016f1f15 	clzeq	r1, r5

00003618 <l3336>:
    3618:	e3b0b919 	movs	fp, #409600	; 0x64000

0000361c <l3337>:
    361c:	e0763867 	rsbs	r3, r6, r7, ror #16

00003620 <l3338>:
    3620:	c16f3f14 	clzgt	r3, r4

00003624 <l3339>:
    3624:	a04e3063 	subge	r3, lr, r3, rrx

00003628 <l3340>:
    3628:	21a0997e 	rorcs	r9, lr, r9

0000362c <l3341>:
    362c:	e075c6e2 	rsbs	ip, r5, r2, ror #13

00003630 <l3342>:
    3630:	b2883aab 	addlt	r3, r8, #700416	; 0xab000

00003634 <l3343>:
    3634:	e59f7000 	ldr	r7, [pc]	; 363c <l3345>

00003638 <l3344>:
    3638:	ea000000 	b	3640 <l3346>

0000363c <l3345>:
    363c:	000fffe4 	.word	0x000fffe4

00003640 <l3346>:
    3640:	e1079099 	swp	r9, r9, [r7]

00003644 <l3347>:
    3644:	e3a0c014 	mov	ip, #20

00003648 <l3348>:
    3648:	070d400c 	streq	r4, [sp, -ip]

0000364c <l3349>:
    364c:	a89d4300 	ldmge	sp, {r8, r9, lr}

00003650 <l3350>:
    3650:	90564a7e 	subsls	r4, r6, lr, ror sl

00003654 <l3351>:
    3654:	e1a00000 	nop			; (mov r0, r0)

00003658 <l3352>:
    3658:	e3a0c036 	mov	ip, #54	; 0x36

0000365c <l3353>:
    365c:	411d10bc 	ldrhmi	r1, [sp, -ip]

00003660 <l3354>:
    3660:	e82d2000 	stmda	sp!, {sp}

00003664 <l3355>:
    3664:	418aa002 	orrmi	sl, sl, r2

00003668 <l3356>:
    3668:	355d1026 	ldrbcc	r1, [sp, #-38]	; 0x26

0000366c <l3357>:
    366c:	e59d5004 	ldr	r5, [sp, #4]

00003670 <l3358>:
    3670:	ea000008 	b	3698 <l3368>

00003674 <l3359>:
    3674:	e38f4739 	orr	r4, pc, #14942208	; 0xe40000

00003678 <l3360>:
    3678:	32569235 	subscc	r9, r6, #1342177283	; 0x50000003

0000367c <l3361>:
    367c:	72fabcba 	rscsvc	fp, sl, #47616	; 0xba00

00003680 <l3362>:
    3680:	c015b448 	andsgt	fp, r5, r8, asr #8

00003684 <l3363>:
    3684:	e1d8006e 	bics	r0, r8, lr, rrx

00003688 <l3364>:
    3688:	024f553f 	subeq	r5, pc, #264241152	; 0xfc00000

0000368c <l3365>:
    368c:	8137090e 	teqhi	r7, lr, lsl #18

00003690 <l3366>:
    3690:	e08c0000 	add	r0, ip, r0

00003694 <l3367>:
    3694:	439eb7d6 	orrsmi	fp, lr, #56098816	; 0x3580000

00003698 <l3368>:
    3698:	30004d03 	andcc	r4, r0, r3, lsl #26

0000369c <l3369>:
    369c:	80010005 	andhi	r0, r1, r5

000036a0 <l3370>:
    36a0:	715908eb 	cmpvc	r9, fp, ror #17

000036a4 <l3371>:
    36a4:	b212b053 	andslt	fp, r2, #83	; 0x53

000036a8 <l3372>:
    36a8:	e59f8000 	ldr	r8, [pc]	; 36b0 <l3374>

000036ac <l3373>:
    36ac:	ea000000 	b	36b4 <l3375>

000036b0 <l3374>:
    36b0:	000fffd0 	.word	0x000fffd0

000036b4 <l3375>:
    36b4:	e1083097 	swp	r3, r7, [r8]

000036b8 <l3376>:
    36b8:	b54d402a 	strblt	r4, [sp, #-42]	; 0x2a

000036bc <l3377>:
    36bc:	40f1b003 	rscsmi	fp, r1, r3

000036c0 <l3378>:
    36c0:	52ea7a26 	rscpl	r7, sl, #155648	; 0x26000

000036c4 <l3379>:
    36c4:	e3a00014 	mov	r0, #20

000036c8 <l3380>:
    36c8:	e71db000 	ldr	fp, [sp, -r0]

000036cc <l3381>:
    36cc:	d0c72de8 	sbcle	r2, r7, r8, ror #27

000036d0 <l3382>:
    36d0:	115d12d6 	ldrsbne	r1, [sp, #-38]	; 0xffffffda

000036d4 <l3383>:
    36d4:	31b04f47 	asrscc	r4, r7, #30

000036d8 <l3384>:
    36d8:	a06f1469 	rsbge	r1, pc, r9, ror #8

000036dc <l3385>:
    36dc:	e3a0c004 	mov	ip, #4

000036e0 <l3386>:
    36e0:	e72d700c 	str	r7, [sp, -ip]!

000036e4 <l3387>:
    36e4:	e1da2008 	bics	r2, sl, r8

000036e8 <l3388>:
    36e8:	aa000004 	bge	3700 <l3394>

000036ec <l3389>:
    36ec:	e28010e4 	add	r1, r0, #228	; 0xe4

000036f0 <l3390>:
    36f0:	e16f5f1c 	clz	r5, ip

000036f4 <l3391>:
    36f4:	e185600c 	orr	r6, r5, ip

000036f8 <l3392>:
    36f8:	60e85061 	rscvs	r5, r8, r1, rrx

000036fc <l3393>:
    36fc:	ea000000 	b	3704 <l3395>

00003700 <l3394>:
    3700:	eafffffa 	b	36f0 <l3390>

00003704 <l3395>:
    3704:	116f7f17 	clzne	r7, r7

00003708 <l3396>:
    3708:	e59fe000 	ldr	lr, [pc]	; 3710 <l3398>

0000370c <l3397>:
    370c:	ea000000 	b	3714 <l3399>

00003710 <l3398>:
    3710:	000fffbc 	.word	0x000fffbc

00003714 <l3399>:
    3714:	d14e2095 	swpble	r2, r5, [lr]

00003718 <l3400>:
    3718:	099d504c 	ldmibeq	sp, {r2, r3, r6, ip, lr}

0000371c <l3401>:
    371c:	e15d10be 	ldrh	r1, [sp, #-14]

00003720 <l3402>:
    3720:	00781b76 	rsbseq	r1, r8, r6, ror fp

00003724 <l3403>:
    3724:	e3a0202c 	mov	r2, #44	; 0x2c

00003728 <l3404>:
    3728:	210d90b2 	strhcs	r9, [sp, -r2]

0000372c <l3405>:
    372c:	e3a08008 	mov	r8, #8

00003730 <l3406>:
    3730:	e79d5008 	ldr	r5, [sp, r8]

00003734 <l3407>:
    3734:	60eba5c8 	rscvs	sl, fp, r8, asr #11

00003738 <l3408>:
    3738:	e16f5f14 	clz	r5, r4

0000373c <l3409>:
    373c:	e059ca5e 	subs	ip, r9, lr, asr sl

00003740 <l3410>:
    3740:	1190b2c9 	orrsne	fp, r0, r9, asr #5

00003744 <l3411>:
    3744:	e3a0a008 	mov	sl, #8

00003748 <l3412>:
    3748:	e7bd800a 	ldr	r8, [sp, sl]!

0000374c <l3413>:
    374c:	715d71b6 	ldrhvc	r7, [sp, #-22]	; 0xffffffea

00003750 <l3414>:
    3750:	215d91db 	ldrsbcs	r9, [sp, #-27]	; 0xffffffe5

00003754 <l3415>:
    3754:	93790467 	cmnls	r9, #1728053248	; 0x67000000

00003758 <l3416>:
    3758:	a1b0400a 	movsge	r4, sl

0000375c <l3417>:
    375c:	e3817707 	orr	r7, r1, #1835008	; 0x1c0000

00003760 <l3418>:
    3760:	e3a0b00c 	mov	fp, #12

00003764 <l3419>:
    3764:	e68db00b 	str	fp, [sp], fp

00003768 <l3420>:
    3768:	30472b12 	subcc	r2, r7, r2, lsl fp

0000376c <l3421>:
    376c:	715d10f6 	ldrshvc	r1, [sp, #-6]

00003770 <l3422>:
    3770:	e097800c 	adds	r8, r7, ip

00003774 <l3423>:
    3774:	e111000c 	tst	r1, ip

00003778 <l3424>:
    3778:	e3a0e03c 	mov	lr, #60	; 0x3c

0000377c <l3425>:
    377c:	970d200e 	strls	r2, [sp, -lr]

00003780 <l3426>:
    3780:	51330d40 	teqpl	r3, r0, asr #26

00003784 <l3427>:
    3784:	ea000008 	b	37ac <l3437>

00003788 <l3428>:
    3788:	e1886069 	orr	r6, r8, r9, rrx

0000378c <l3429>:
    378c:	22c06665 	sbccs	r6, r0, #105906176	; 0x6500000

00003790 <l3430>:
    3790:	a1f04001 	mvnsge	r4, r1

00003794 <l3431>:
    3794:	90d2a063 	sbcsls	sl, r2, r3, rrx

00003798 <l3432>:
    3798:	91e0b03c 	mvnls	fp, ip, lsr r0

0000379c <l3433>:
    379c:	70d0b064 	sbcsvc	fp, r0, r4, rrx

000037a0 <l3434>:
    37a0:	e03fc00a 	eors	ip, pc, sl

000037a4 <l3435>:
    37a4:	61f01b08 	mvnsvs	r1, r8, lsl #22

000037a8 <l3436>:
    37a8:	e1c42061 	bic	r2, r4, r1, rrx

000037ac <l3437>:
    37ac:	116f9f1b 	clzne	r9, fp

000037b0 <l3438>:
    37b0:	415d22dd 	ldrsbmi	r2, [sp, #-45]	; 0xffffffd3

000037b4 <l3439>:
    37b4:	e59f2000 	ldr	r2, [pc]	; 37bc <l3441>

000037b8 <l3440>:
    37b8:	ea000000 	b	37c0 <l3442>

000037bc <l3441>:
    37bc:	000fffe8 	.word	0x000fffe8

000037c0 <l3442>:
    37c0:	9102b09e 	swpls	fp, lr, [r2]

000037c4 <l3443>:
    37c4:	e0c5bda6 	sbc	fp, r5, r6, lsr #27

000037c8 <l3444>:
    37c8:	e0605006 	rsb	r5, r0, r6

000037cc <l3445>:
    37cc:	e3a0201e 	mov	r2, #30

000037d0 <l3446>:
    37d0:	e75de002 	ldrb	lr, [sp, -r2]

000037d4 <l3447>:
    37d4:	e19c4479 	orrs	r4, ip, r9, ror r4

000037d8 <l3448>:
    37d8:	e0e0bae9 	rsc	fp, r0, r9, ror #21

000037dc <l3449>:
    37dc:	e59f8000 	ldr	r8, [pc]	; 37e4 <l3451>

000037e0 <l3450>:
    37e0:	ea000000 	b	37e8 <l3452>

000037e4 <l3451>:
    37e4:	000fffd8 	.word	0x000fffd8

000037e8 <l3452>:
    37e8:	8108b09a 	swphi	fp, sl, [r8]

000037ec <l3453>:
    37ec:	e1a02906 	lsl	r2, r6, #18

000037f0 <l3454>:
    37f0:	e40d6040 	str	r6, [sp], #-64	; 0x40

000037f4 <l3455>:
    37f4:	e1a00000 	nop			; (mov r0, r0)

000037f8 <l3456>:
    37f8:	e14d40b4 	strh	r4, [sp, #-4]

000037fc <l3457>:
    37fc:	e59f5000 	ldr	r5, [pc]	; 3804 <l3459>

00003800 <l3458>:
    3800:	ea000000 	b	3808 <l3460>

00003804 <l3459>:
    3804:	000fffe8 	.word	0x000fffe8

00003808 <l3460>:
    3808:	e1450099 	swpb	r0, r9, [r5]

0000380c <l3461>:
    380c:	e0932008 	adds	r2, r3, r8

00003810 <l3462>:
    3810:	e17c0912 	cmn	ip, r2, lsl r9

00003814 <l3463>:
    3814:	916f2f11 	clzls	r2, r1

00003818 <l3464>:
    3818:	e3a05038 	mov	r5, #56	; 0x38

0000381c <l3465>:
    381c:	e69dc005 	ldr	ip, [sp], r5

00003820 <l3466>:
    3820:	a0457009 	subge	r7, r5, r9

00003824 <l3467>:
    3824:	e065b657 	rsb	fp, r5, r7, asr r6

00003828 <l3468>:
    3828:	e3a07000 	mov	r7, #0

0000382c <l3469>:
    382c:	17cd3007 	strbne	r3, [sp, r7]

00003830 <l3470>:
    3830:	114d51be 	strhne	r5, [sp, #-30]	; 0xffffffe2

00003834 <l3471>:
    3834:	e3a0e008 	mov	lr, #8

00003838 <l3472>:
    3838:	e60dc00e 	str	ip, [sp], -lr

0000383c <l3473>:
    383c:	e3c5ed49 	bic	lr, r5, #4672	; 0x1240

00003840 <l3474>:
    3840:	e110000e 	tst	r0, lr

00003844 <l3475>:
    3844:	d99d5000 	ldmible	sp, {ip, lr}

00003848 <l3476>:
    3848:	e1710004 	cmn	r1, r4

0000384c <l3477>:
    384c:	809babab 	addshi	sl, fp, fp, lsr #23

00003850 <l3478>:
    3850:	e1dde0bc 	ldrh	lr, [sp, #12]

00003854 <l3479>:
    3854:	e33a0815 	teq	sl, #1376256	; 0x150000

00003858 <l3480>:
    3858:	43a02607 	movmi	r2, #7340032	; 0x700000

0000385c <l3481>:
    385c:	e3a0a00f 	mov	sl, #15

00003860 <l3482>:
    3860:	d7dd100a 	ldrble	r1, [sp, sl]

00003864 <l3483>:
    3864:	b3e08481 	mvnlt	r8, #-2130706432	; 0x81000000

00003868 <l3484>:
    3868:	b16fbf1a 	clzlt	fp, sl

0000386c <l3485>:
    386c:	e2f1105e 	rscs	r1, r1, #94	; 0x5e

00003870 <l3486>:
    3870:	e3a04007 	mov	r4, #7

00003874 <l3487>:
    3874:	27cd3004 	strbcs	r3, [sp, r4]

00003878 <l3488>:
    3878:	d0a25c16 	adcle	r5, r2, r6, lsl ip

0000387c <l3489>:
    387c:	e59fe000 	ldr	lr, [pc]	; 3884 <l3491>

00003880 <l3490>:
    3880:	ea000000 	b	3888 <l3492>

00003884 <l3491>:
    3884:	000fffd0 	.word	0x000fffd0

00003888 <l3492>:
    3888:	e14e4091 	swpb	r4, r1, [lr]

0000388c <l3493>:
    388c:	e59f8000 	ldr	r8, [pc]	; 3894 <l3495>

00003890 <l3494>:
    3890:	ea000000 	b	3898 <l3496>

00003894 <l3495>:
    3894:	000fffc8 	.word	0x000fffc8

00003898 <l3496>:
    3898:	e1086093 	swp	r6, r3, [r8]

0000389c <l3497>:
    389c:	e1710671 	cmn	r1, r1, ror r6

000038a0 <l3498>:
    38a0:	b19fb741 	orrslt	fp, pc, r1, asr #14

000038a4 <l3499>:
    38a4:	01859c12 	orreq	r9, r5, r2, lsl ip

000038a8 <l3500>:
    38a8:	e28b6239 	add	r6, fp, #-1879048189	; 0x90000003

000038ac <l3501>:
    38ac:	e3a0a024 	mov	sl, #36	; 0x24

000038b0 <l3502>:
    38b0:	671d500a 	ldrvs	r5, [sp, -sl]

000038b4 <l3503>:
    38b4:	ea000001 	b	38c0 <l3506>

000038b8 <l3504>:
    38b8:	515c0433 	cmppl	ip, r3, lsr r4

000038bc <l3505>:
    38bc:	e0463425 	sub	r3, r6, r5, lsr #8

000038c0 <l3506>:
    38c0:	e18bc97e 	orr	ip, fp, lr, ror r9

000038c4 <l3507>:
    38c4:	b1dd30db 	ldrsblt	r3, [sp, #11]

000038c8 <l3508>:
    38c8:	ea000006 	b	38e8 <l3516>

000038cc <l3509>:
    38cc:	e28010c6 	add	r1, r0, #198	; 0xc6

000038d0 <l3510>:
    38d0:	62fb2d16 	rscsvs	r2, fp, #1408	; 0x580

000038d4 <l3511>:
    38d4:	7007842f 	andvc	r8, r7, pc, lsr #8

000038d8 <l3512>:
    38d8:	502c2e00 	eorpl	r2, ip, r0, lsl #28

000038dc <l3513>:
    38dc:	e2b6162f 	adcs	r1, r6, #49283072	; 0x2f00000

000038e0 <l3514>:
    38e0:	4083e005 	addmi	lr, r3, r5

000038e4 <l3515>:
    38e4:	ea000000 	b	38ec <l3517>

000038e8 <l3516>:
    38e8:	eafffff8 	b	38d0 <l3510>

000038ec <l3517>:
    38ec:	b042b3ce 	sublt	fp, r2, lr, asr #7

000038f0 <l3518>:
    38f0:	61a05c00 	lslvs	r5, r0, #24

000038f4 <l3519>:
    38f4:	ea000004 	b	390c <l3525>

000038f8 <l3520>:
    38f8:	e2801026 	add	r1, r0, #38	; 0x26

000038fc <l3521>:
    38fc:	c2239949 	eorgt	r9, r3, #1196032	; 0x124000

00003900 <l3522>:
    3900:	215c080f 	cmpcs	ip, pc, lsl #16

00003904 <l3523>:
    3904:	e16f7f15 	clz	r7, r5

00003908 <l3524>:
    3908:	ea000000 	b	3910 <l3526>

0000390c <l3525>:
    390c:	eafffffa 	b	38fc <l3521>

00003910 <l3526>:
    3910:	e5bdb000 	ldr	fp, [sp, #0]!

00003914 <l3527>:
    3914:	e1a00000 	nop			; (mov r0, r0)

00003918 <l3528>:
    3918:	e0bf1009 	adcs	r1, pc, r9

0000391c <l3529>:
    391c:	111f04c9 	tstne	pc, r9, asr #9

00003920 <l3530>:
    3920:	70975570 	addsvc	r5, r7, r0, ror r5

00003924 <l3531>:
    3924:	716f0f1a 	clzvc	r0, sl

00003928 <l3532>:
    3928:	b16f3f18 	clzlt	r3, r8

0000392c <l3533>:
    392c:	33cc71ee 	biccc	r7, ip, #-2147483589	; 0x8000003b

00003930 <l3534>:
    3930:	e13f05e4 	teq	pc, r4, ror #11

00003934 <l3535>:
    3934:	d1dd90fe 	ldrshle	r9, [sp, #14]

00003938 <l3536>:
    3938:	e0e05069 	rsc	r5, r0, r9, rrx

0000393c <l3537>:
    393c:	82d3e013 	sbcshi	lr, r3, #19

00003940 <l3538>:
    3940:	033b0077 	teqeq	fp, #119	; 0x77

00003944 <l3539>:
    3944:	d0250233 	eorle	r0, r5, r3, lsr r2

00003948 <l3540>:
    3948:	31120639 	tstcc	r2, r9, lsr r6

0000394c <l3541>:
    394c:	e1170b11 	tst	r7, r1, lsl fp

00003950 <l3542>:
    3950:	e1922903 	orrs	r2, r2, r3, lsl #18

00003954 <l3543>:
    3954:	50f9c159 	rscspl	ip, r9, r9, asr r1

00003958 <l3544>:
    3958:	c0ce5881 	sbcgt	r5, lr, r1, lsl #17

0000395c <l3545>:
    395c:	e20a2336 	and	r2, sl, #-671088640	; 0xd8000000

00003960 <l3546>:
    3960:	502e46a2 	eorpl	r4, lr, r2, lsr #13

00003964 <l3547>:
    3964:	e046a338 	sub	sl, r6, r8, lsr r3

00003968 <l3548>:
    3968:	e1170068 	tst	r7, r8, rrx

0000396c <l3549>:
    396c:	c1330e18 	teqgt	r3, r8, lsl lr

00003970 <l3550>:
    3970:	00da76e0 	sbcseq	r7, sl, r0, ror #13

00003974 <l3551>:
    3974:	a55d4001 	ldrbge	r4, [sp, #-1]

00003978 <l3552>:
    3978:	e3a05020 	mov	r5, #32

0000397c <l3553>:
    397c:	e11d30f5 	ldrsh	r3, [sp, -r5]

00003980 <l3554>:
    3980:	217e0004 	cmncs	lr, r4

00003984 <l3555>:
    3984:	e3a0a00c 	mov	sl, #12

00003988 <l3556>:
    3988:	e73d400a 	ldr	r4, [sp, -sl]!

0000398c <l3557>:
    398c:	e9bd48ca 	ldmib	sp!, {r1, r3, r6, r7, fp, lr}

00003990 <l3558>:
    3990:	4a000005 	bmi	39ac <l3565>

00003994 <l3559>:
    3994:	e280102b 	add	r1, r0, #43	; 0x2b

00003998 <l3560>:
    3998:	e1e0c00f 	mvn	ip, pc

0000399c <l3561>:
    399c:	00ac6e36 	adceq	r6, ip, r6, lsr lr

000039a0 <l3562>:
    39a0:	e1a0e755 	asr	lr, r5, r7

000039a4 <l3563>:
    39a4:	e1f0b961 	mvns	fp, r1, ror #18

000039a8 <l3564>:
    39a8:	ea000000 	b	39b0 <l3566>

000039ac <l3565>:
    39ac:	eafffff9 	b	3998 <l3560>

000039b0 <l3566>:
    39b0:	ea000005 	b	39cc <l3573>

000039b4 <l3567>:
    39b4:	e280102a 	add	r1, r0, #42	; 0x2a

000039b8 <l3568>:
    39b8:	92064d1d 	andls	r4, r6, #1856	; 0x740

000039bc <l3569>:
    39bc:	b205866a 	andlt	r8, r5, #111149056	; 0x6a00000

000039c0 <l3570>:
    39c0:	e0069002 	and	r9, r6, r2

000039c4 <l3571>:
    39c4:	e1c7a003 	bic	sl, r7, r3

000039c8 <l3572>:
    39c8:	ea000000 	b	39d0 <l3574>

000039cc <l3573>:
    39cc:	eafffff9 	b	39b8 <l3568>

000039d0 <l3574>:
    39d0:	70790a35 	rsbsvc	r0, r9, r5, lsr sl

000039d4 <l3575>:
    39d4:	80498006 	subhi	r8, r9, r6

000039d8 <l3576>:
    39d8:	e5bd9004 	ldr	r9, [sp, #4]!

000039dc <l3577>:
    39dc:	e15b0a1b 	cmp	fp, fp, lsl sl

000039e0 <l3578>:
    39e0:	50134067 	andspl	r4, r3, r7, rrx

000039e4 <l3579>:
    39e4:	b384ce35 	orrlt	ip, r4, #848	; 0x350

000039e8 <l3580>:
    39e8:	908f6067 	addls	r6, pc, r7, rrx

000039ec <l3581>:
    39ec:	52264606 	eorpl	r4, r6, #6291456	; 0x600000

000039f0 <l3582>:
    39f0:	e16fef14 	clz	lr, r4

000039f4 <l3583>:
    39f4:	515d10fa 	ldrshpl	r1, [sp, #-10]

000039f8 <l3584>:
    39f8:	e59f2000 	ldr	r2, [pc]	; 3a00 <l3586>

000039fc <l3585>:
    39fc:	ea000000 	b	3a04 <l3587>

00003a00 <l3586>:
    3a00:	000fffd8 	.word	0x000fffd8

00003a04 <l3587>:
    3a04:	e1428093 	swpb	r8, r3, [r2]

00003a08 <l3588>:
    3a08:	e20aa30f 	and	sl, sl, #1006632960	; 0x3c000000

00003a0c <l3589>:
    3a0c:	e83d0c38 	ldmda	sp!, {r3, r4, r5, sl, fp}

00003a10 <l3590>:
    3a10:	e92d4c62 	push	{r1, r5, r6, sl, fp, lr}

00003a14 <l3591>:
    3a14:	3047b215 	subcc	fp, r7, r5, lsl r2

00003a18 <l3592>:
    3a18:	e3a0a028 	mov	sl, #40	; 0x28

00003a1c <l3593>:
    3a1c:	118dc0ba 	strhne	ip, [sp, sl]

00003a20 <l3594>:
    3a20:	e05bee50 	subs	lr, fp, r0, asr lr

00003a24 <l3595>:
    3a24:	c133087a 	teqgt	r3, sl, ror r8

00003a28 <l3596>:
    3a28:	e0c5106b 	sbc	r1, r5, fp, rrx

00003a2c <l3597>:
    3a2c:	30bf600e 	adcscc	r6, pc, lr

00003a30 <l3598>:
    3a30:	c1b0100e 	movsgt	r1, lr

00003a34 <l3599>:
    3a34:	116fef13 	clzne	lr, r3

00003a38 <l3600>:
    3a38:	b3f0ae2b 	mvnslt	sl, #688	; 0x2b0

00003a3c <l3601>:
    3a3c:	e31c0467 	tst	ip, #1728053248	; 0x67000000

00003a40 <l3602>:
    3a40:	5110000e 	tstpl	r0, lr

00003a44 <l3603>:
    3a44:	e01c7545 	ands	r7, ip, r5, asr #10

00003a48 <l3604>:
    3a48:	a04c2d23 	subge	r2, ip, r3, lsr #26

00003a4c <l3605>:
    3a4c:	82e68f47 	rschi	r8, r6, #284	; 0x11c

00003a50 <l3606>:
    3a50:	e3a0600c 	mov	r6, #12

00003a54 <l3607>:
    3a54:	e7cd6006 	strb	r6, [sp, r6]

00003a58 <l3608>:
    3a58:	e3a0b018 	mov	fp, #24

00003a5c <l3609>:
    3a5c:	a7dd800b 	ldrbge	r8, [sp, fp]

00003a60 <l3610>:
    3a60:	e243bf4f 	sub	fp, r3, #316	; 0x13c

00003a64 <l3611>:
    3a64:	e3a03020 	mov	r3, #32

00003a68 <l3612>:
    3a68:	e7ad5003 	str	r5, [sp, r3]!

00003a6c <l3613>:
    3a6c:	e184681a 	orr	r6, r4, sl, lsl r8

00003a70 <l3614>:
    3a70:	40ec6b64 	rscmi	r6, ip, r4, ror #22

00003a74 <l3615>:
    3a74:	90c6cb79 	sbcls	ip, r6, r9, ror fp

00003a78 <l3616>:
    3a78:	e3a06008 	mov	r6, #8

00003a7c <l3617>:
    3a7c:	310dc0b6 	strhcc	ip, [sp, -r6]

00003a80 <l3618>:
    3a80:	411a0003 	tstmi	sl, r3

00003a84 <l3619>:
    3a84:	e52d300c 	str	r3, [sp, #-12]!

00003a88 <l3620>:
    3a88:	e15db1dc 	ldrsb	fp, [sp, #-28]	; 0xffffffe4

00003a8c <l3621>:
    3a8c:	e3a0a01c 	mov	sl, #28

00003a90 <l3622>:
    3a90:	e72dc00a 	str	ip, [sp, -sl]!

00003a94 <l3623>:
    3a94:	a1520b12 	cmpge	r2, r2, lsl fp

00003a98 <l3624>:
    3a98:	e59f8000 	ldr	r8, [pc]	; 3aa0 <l3626>

00003a9c <l3625>:
    3a9c:	ea000000 	b	3aa4 <l3627>

00003aa0 <l3626>:
    3aa0:	000fffe0 	.word	0x000fffe0

00003aa4 <l3627>:
    3aa4:	e1486092 	swpb	r6, r2, [r8]

00003aa8 <l3628>:
    3aa8:	e5bdc028 	ldr	ip, [sp, #40]!	; 0x28

00003aac <l3629>:
    3aac:	e54d6038 	strb	r6, [sp, #-56]	; 0x38

00003ab0 <l3630>:
    3ab0:	d05f700c 	subsle	r7, pc, ip

00003ab4 <l3631>:
    3ab4:	50ce800a 	sbcpl	r8, lr, sl

00003ab8 <l3632>:
    3ab8:	e3a03034 	mov	r3, #52	; 0x34

00003abc <l3633>:
    3abc:	e73d8003 	ldr	r8, [sp, -r3]!

00003ac0 <l3634>:
    3ac0:	e11c000c 	tst	ip, ip

00003ac4 <l3635>:
    3ac4:	d16fef15 	clzle	lr, r5

00003ac8 <l3636>:
    3ac8:	a025e0e6 	eorge	lr, r5, r6, ror #1

00003acc <l3637>:
    3acc:	a110038a 	tstge	r0, sl, lsl #7

00003ad0 <l3638>:
    3ad0:	e3a03026 	mov	r3, #38	; 0x26

00003ad4 <l3639>:
    3ad4:	818d90b3 	strhhi	r9, [sp, r3]

00003ad8 <l3640>:
    3ad8:	e59f6000 	ldr	r6, [pc]	; 3ae0 <l3642>

00003adc <l3641>:
    3adc:	ea000000 	b	3ae4 <l3643>

00003ae0 <l3642>:
    3ae0:	000fffc8 	.word	0x000fffc8

00003ae4 <l3643>:
    3ae4:	e106109b 	swp	r1, fp, [r6]

00003ae8 <l3644>:
    3ae8:	25ddc021 	ldrbcs	ip, [sp, #33]	; 0x21

00003aec <l3645>:
    3aec:	8a000005 	bhi	3b08 <l3652>

00003af0 <l3646>:
    3af0:	e28010ba 	add	r1, r0, #186	; 0xba

00003af4 <l3647>:
    3af4:	e13b0002 	teq	fp, r2

00003af8 <l3648>:
    3af8:	439f3649 	orrsmi	r3, pc, #76546048	; 0x4900000

00003afc <l3649>:
    3afc:	e06ebf82 	rsb	fp, lr, r2, lsl #31

00003b00 <l3650>:
    3b00:	d16f0f10 	clzle	r0, r0

00003b04 <l3651>:
    3b04:	ea000000 	b	3b0c <l3653>

00003b08 <l3652>:
    3b08:	eafffff9 	b	3af4 <l3647>

00003b0c <l3653>:
    3b0c:	816fcf15 	clzhi	ip, r5

00003b10 <l3654>:
    3b10:	e59f9000 	ldr	r9, [pc]	; 3b18 <l3656>

00003b14 <l3655>:
    3b14:	ea000000 	b	3b1c <l3657>

00003b18 <l3656>:
    3b18:	000fffac 	.word	0x000fffac

00003b1c <l3657>:
    3b1c:	0149409e 	swpbeq	r4, lr, [r9]

00003b20 <l3658>:
    3b20:	e3a0c038 	mov	ip, #56	; 0x38

00003b24 <l3659>:
    3b24:	e19dc0bc 	ldrh	ip, [sp, ip]

00003b28 <l3660>:
    3b28:	c04fe001 	subgt	lr, pc, r1

00003b2c <l3661>:
    3b2c:	e1a00000 	nop			; (mov r0, r0)

00003b30 <l3662>:
    3b30:	e3a0c008 	mov	ip, #8

00003b34 <l3663>:
    3b34:	e73dc00c 	ldr	ip, [sp, -ip]!

00003b38 <l3664>:
    3b38:	d1dd30b6 	ldrhle	r3, [sp, #6]

00003b3c <l3665>:
    3b3c:	eaffffff 	b	3b40 <l3666>

00003b40 <l3666>:
    3b40:	b3f06626 	mvnslt	r6, #39845888	; 0x2600000

00003b44 <l3667>:
    3b44:	199d5fb3 	ldmibne	sp, {r0, r1, r4, r5, r7, r8, r9, sl, fp, ip, lr}

00003b48 <l3668>:
    3b48:	71c42627 	bicvc	r2, r4, r7, lsr #12

00003b4c <l3669>:
    3b4c:	e17f0007 	cmn	pc, r7

00003b50 <l3670>:
    3b50:	b5dd5044 	ldrblt	r5, [sp, #68]	; 0x44

00003b54 <l3671>:
    3b54:	e3a0b018 	mov	fp, #24

00003b58 <l3672>:
    3b58:	e18de0bb 	strh	lr, [sp, fp]

00003b5c <l3673>:
    3b5c:	10707410 	rsbsne	r7, r0, r0, lsl r4

00003b60 <l3674>:
    3b60:	ea000007 	b	3b84 <l3683>

00003b64 <l3675>:
    3b64:	e2801049 	add	r1, r0, #73	; 0x49

00003b68 <l3676>:
    3b68:	41710061 	cmnmi	r1, r1, rrx

00003b6c <l3677>:
    3b6c:	41c8e18c 	bicmi	lr, r8, ip, lsl #3

00003b70 <l3678>:
    3b70:	e1b01232 	lsrs	r1, r2, r2

00003b74 <l3679>:
    3b74:	b0e1ce73 	rsclt	ip, r1, r3, ror lr

00003b78 <l3680>:
    3b78:	83a06d72 	movhi	r6, #7296	; 0x1c80

00003b7c <l3681>:
    3b7c:	1388c9db 	orrne	ip, r8, #3588096	; 0x36c000

00003b80 <l3682>:
    3b80:	ea000000 	b	3b88 <l3684>

00003b84 <l3683>:
    3b84:	eafffff7 	b	3b68 <l3676>

00003b88 <l3684>:
    3b88:	e3a0601b 	mov	r6, #27

00003b8c <l3685>:
    3b8c:	219d10d6 	ldrsbcs	r1, [sp, r6]

00003b90 <l3686>:
    3b90:	e0e8b003 	rsc	fp, r8, r3

00003b94 <l3687>:
    3b94:	c0f4ae30 	rscsgt	sl, r4, r0, lsr lr

00003b98 <l3688>:
    3b98:	e8bd080d 	pop	{r0, r2, r3, fp}

00003b9c <l3689>:
    3b9c:	3290035f 	addscc	r0, r0, #2080374785	; 0x7c000001

00003ba0 <l3690>:
    3ba0:	20704002 	rsbscs	r4, r0, r2

00003ba4 <l3691>:
    3ba4:	e3a02007 	mov	r2, #7

00003ba8 <l3692>:
    3ba8:	97cdc002 	strbls	ip, [sp, r2]

00003bac <l3693>:
    3bac:	409a4e56 	addsmi	r4, sl, r6, asr lr

00003bb0 <l3694>:
    3bb0:	e3a0401e 	mov	r4, #30

00003bb4 <l3695>:
    3bb4:	e19d10b4 	ldrh	r1, [sp, r4]

00003bb8 <l3696>:
    3bb8:	e0aa300e 	adc	r3, sl, lr

00003bbc <l3697>:
    3bbc:	e3a0701e 	mov	r7, #30

00003bc0 <l3698>:
    3bc0:	e18d30b7 	strh	r3, [sp, r7]

00003bc4 <l3699>:
    3bc4:	a1a09003 	movge	r9, r3

00003bc8 <l3700>:
    3bc8:	b0881063 	addlt	r1, r8, r3, rrx

00003bcc <l3701>:
    3bcc:	e250a5be 	subs	sl, r0, #796917760	; 0x2f800000

00003bd0 <l3702>:
    3bd0:	d38a6103 	orrle	r6, sl, #-1073741824	; 0xc0000000

00003bd4 <l3703>:
    3bd4:	e59f3000 	ldr	r3, [pc]	; 3bdc <l3705>

00003bd8 <l3704>:
    3bd8:	ea000000 	b	3be0 <l3706>

00003bdc <l3705>:
    3bdc:	000fffe0 	.word	0x000fffe0

00003be0 <l3706>:
    3be0:	e143109a 	swpb	r1, sl, [r3]

00003be4 <l3707>:
    3be4:	2354056a 	cmpcs	r4, #444596224	; 0x1a800000

00003be8 <l3708>:
    3be8:	c0b58850 	adcsgt	r8, r5, r0, asr r8

00003bec <l3709>:
    3bec:	e2ea01af 	rsc	r0, sl, #-1073741781	; 0xc000002b

00003bf0 <l3710>:
    3bf0:	e1a00000 	nop			; (mov r0, r0)

00003bf4 <l3711>:
    3bf4:	e0a7a431 	adc	sl, r7, r1, lsr r4

00003bf8 <l3712>:
    3bf8:	e55d3001 	ldrb	r3, [sp, #-1]

00003bfc <l3713>:
    3bfc:	e3a0602c 	mov	r6, #44	; 0x2c

00003c00 <l3714>:
    3c00:	e7dd1006 	ldrb	r1, [sp, r6]

00003c04 <l3715>:
    3c04:	e59fe000 	ldr	lr, [pc]	; 3c0c <l3717>

00003c08 <l3716>:
    3c08:	ea000000 	b	3c10 <l3718>

00003c0c <l3717>:
    3c0c:	000fffd4 	.word	0x000fffd4

00003c10 <l3718>:
    3c10:	e14ec094 	swpb	ip, r4, [lr]

00003c14 <l3719>:
    3c14:	c39291c2 	orrsgt	r9, r2, #-2147483600	; 0x80000030

00003c18 <l3720>:
    3c18:	10656064 	rsbne	r6, r5, r4, rrx

00003c1c <l3721>:
    3c1c:	22fe61b2 	rscscs	r6, lr, #-2147483604	; 0x8000002c

00003c20 <l3722>:
    3c20:	11a08153 	asrne	r8, r3, r1

00003c24 <l3723>:
    3c24:	e1a00000 	nop			; (mov r0, r0)

00003c28 <l3724>:
    3c28:	800a800b 	andhi	r8, sl, fp

00003c2c <l3725>:
    3c2c:	50beb00c 	adcspl	fp, lr, ip

00003c30 <l3726>:
    3c30:	3240e18d 	subcc	lr, r0, #1073741859	; 0x40000023

00003c34 <l3727>:
    3c34:	e0d8500b 	sbcs	r5, r8, fp

00003c38 <l3728>:
    3c38:	e59f7000 	ldr	r7, [pc]	; 3c40 <l3730>

00003c3c <l3729>:
    3c3c:	ea000000 	b	3c44 <l3731>

00003c40 <l3730>:
    3c40:	000fffa4 	.word	0x000fffa4

00003c44 <l3731>:
    3c44:	e107c09e 	swp	ip, lr, [r7]

00003c48 <l3732>:
    3c48:	e59f0000 	ldr	r0, [pc]	; 3c50 <l3734>

00003c4c <l3733>:
    3c4c:	ea000000 	b	3c54 <l3735>

00003c50 <l3734>:
    3c50:	000fffe4 	.word	0x000fffe4

00003c54 <l3735>:
    3c54:	e140309e 	swpb	r3, lr, [r0]

00003c58 <l3736>:
    3c58:	a09b271e 	addsge	r2, fp, lr, lsl r7

00003c5c <l3737>:
    3c5c:	e9ad0b21 	stmib	sp!, {r0, r5, r8, r9, fp}

00003c60 <l3738>:
    3c60:	e0eb1005 	rsc	r1, fp, r5

00003c64 <l3739>:
    3c64:	e5bd1004 	ldr	r1, [sp, #4]!

00003c68 <l3740>:
    3c68:	e3a0b025 	mov	fp, #37	; 0x25

00003c6c <l3741>:
    3c6c:	811d90db 	ldrsbhi	r9, [sp, -fp]

00003c70 <l3742>:
    3c70:	e41d0018 	ldr	r0, [sp], #-24

00003c74 <l3743>:
    3c74:	e3a0c03a 	mov	ip, #58	; 0x3a

00003c78 <l3744>:
    3c78:	519d70dc 	ldrsbpl	r7, [sp, ip]

00003c7c <l3745>:
    3c7c:	b1d3200a 	bicslt	r2, r3, sl

00003c80 <l3746>:
    3c80:	e5bd9030 	ldr	r9, [sp, #48]!	; 0x30

00003c84 <l3747>:
    3c84:	e59f6000 	ldr	r6, [pc]	; 3c8c <l3749>

00003c88 <l3748>:
    3c88:	ea000000 	b	3c90 <l3750>

00003c8c <l3749>:
    3c8c:	000fffd4 	.word	0x000fffd4

00003c90 <l3750>:
    3c90:	6146e09a 	swpbvs	lr, sl, [r6]

00003c94 <l3751>:
    3c94:	e2953014 	adds	r3, r5, #20

00003c98 <l3752>:
    3c98:	e3a0c01c 	mov	ip, #28

00003c9c <l3753>:
    3c9c:	e11d20dc 	ldrsb	r2, [sp, -ip]

00003ca0 <l3754>:
    3ca0:	ea000003 	b	3cb4 <l3759>

00003ca4 <l3755>:
    3ca4:	e280108c 	add	r1, r0, #140	; 0x8c

00003ca8 <l3756>:
    3ca8:	61de4688 	bicsvs	r4, lr, r8, lsl #13

00003cac <l3757>:
    3cac:	315e086c 	cmpcc	lr, ip, ror #16

00003cb0 <l3758>:
    3cb0:	ea000000 	b	3cb8 <l3760>

00003cb4 <l3759>:
    3cb4:	eafffffb 	b	3ca8 <l3756>

00003cb8 <l3760>:
    3cb8:	1117000b 	tstne	r7, fp

00003cbc <l3761>:
    3cbc:	a3b06935 	movsge	r6, #868352	; 0xd4000

00003cc0 <l3762>:
    3cc0:	e1e03002 	mvn	r3, r2

00003cc4 <l3763>:
    3cc4:	e1a00000 	nop			; (mov r0, r0)

00003cc8 <l3764>:
    3cc8:	e151000c 	cmp	r1, ip

00003ccc <l3765>:
    3ccc:	30346002 	eorscc	r6, r4, r2

00003cd0 <l3766>:
    3cd0:	4a000002 	bmi	3ce0 <l3770>

00003cd4 <l3767>:
    3cd4:	e01b4663 	ands	r4, fp, r3, ror #12

00003cd8 <l3768>:
    3cd8:	e0a61425 	adc	r1, r6, r5, lsr #8

00003cdc <l3769>:
    3cdc:	e152000b 	cmp	r2, fp

00003ce0 <l3770>:
    3ce0:	e37e0912 	cmn	lr, #294912	; 0x48000

00003ce4 <l3771>:
    3ce4:	00605fe9 	rsbeq	r5, r0, r9, ror #31

00003ce8 <l3772>:
    3ce8:	515d21d2 	ldrsbpl	r2, [sp, #-18]	; 0xffffffee

00003cec <l3773>:
    3cec:	4a000006 	bmi	3d0c <l3781>

00003cf0 <l3774>:
    3cf0:	e28010f5 	add	r1, r0, #245	; 0xf5

00003cf4 <l3775>:
    3cf4:	e084a353 	add	sl, r4, r3, asr r3

00003cf8 <l3776>:
    3cf8:	e065bec5 	rsb	fp, r5, r5, asr #29

00003cfc <l3777>:
    3cfc:	c0fa4415 	rscsgt	r4, sl, r5, lsl r4

00003d00 <l3778>:
    3d00:	e150005a 	cmp	r0, sl, asr r0

00003d04 <l3779>:
    3d04:	b0b5896e 	adcslt	r8, r5, lr, ror #18

00003d08 <l3780>:
    3d08:	ea000000 	b	3d10 <l3782>

00003d0c <l3781>:
    3d0c:	eafffff8 	b	3cf4 <l3775>

00003d10 <l3782>:
    3d10:	211508c1 	tstcs	r5, r1, asr #17

00003d14 <l3783>:
    3d14:	e3a0c008 	mov	ip, #8

00003d18 <l3784>:
    3d18:	410d70bc 	strhmi	r7, [sp, -ip]

00003d1c <l3785>:
    3d1c:	e59f2000 	ldr	r2, [pc]	; 3d24 <l3787>

00003d20 <l3786>:
    3d20:	ea000000 	b	3d28 <l3788>

00003d24 <l3787>:
    3d24:	000fffc0 	.word	0x000fffc0

00003d28 <l3788>:
    3d28:	e1028093 	swp	r8, r3, [r2]

00003d2c <l3789>:
    3d2c:	21160276 	tstcs	r6, r6, ror r2

00003d30 <l3790>:
    3d30:	12036f5b 	andne	r6, r3, #364	; 0x16c

00003d34 <l3791>:
    3d34:	1110006e 	tstne	r0, lr, rrx

00003d38 <l3792>:
    3d38:	e0ebb931 	rsc	fp, fp, r1, lsr r9

00003d3c <l3793>:
    3d3c:	e3a05020 	mov	r5, #32

00003d40 <l3794>:
    3d40:	e61d0005 	ldr	r0, [sp], -r5

00003d44 <l3795>:
    3d44:	b1730060 	cmnlt	r3, r0, rrx

00003d48 <l3796>:
    3d48:	813c0065 	teqhi	ip, r5, rrx

00003d4c <l3797>:
    3d4c:	e3a03000 	mov	r3, #0

00003d50 <l3798>:
    3d50:	e69d3003 	ldr	r3, [sp], r3

00003d54 <l3799>:
    3d54:	c11f0923 	tstgt	pc, r3, lsr #18

00003d58 <l3800>:
    3d58:	e59f0000 	ldr	r0, [pc]	; 3d60 <l3802>

00003d5c <l3801>:
    3d5c:	ea000000 	b	3d64 <l3803>

00003d60 <l3802>:
    3d60:	000fffb4 	.word	0x000fffb4

00003d64 <l3803>:
    3d64:	1100b094 	swpne	fp, r4, [r0]

00003d68 <l3804>:
    3d68:	51dd70fe 	ldrshpl	r7, [sp, #14]

00003d6c <l3805>:
    3d6c:	e3a0200f 	mov	r2, #15

00003d70 <l3806>:
    3d70:	111d30d2 	ldrsbne	r3, [sp, -r2]

00003d74 <l3807>:
    3d74:	725f0f99 	subsvc	r0, pc, #612	; 0x264

00003d78 <l3808>:
    3d78:	51cd61b0 	strhpl	r6, [sp, #16]

00003d7c <l3809>:
    3d7c:	62625d21 	rsbvs	r5, r2, #2112	; 0x840

00003d80 <l3810>:
    3d80:	c2ffa029 	rscsgt	sl, pc, #41	; 0x29

00003d84 <l3811>:
    3d84:	e3a0800c 	mov	r8, #12

00003d88 <l3812>:
    3d88:	818d70b8 	strhhi	r7, [sp, r8]

00003d8c <l3813>:
    3d8c:	8a000008 	bhi	3db4 <l3823>

00003d90 <l3814>:
    3d90:	909ca06c 	addsls	sl, ip, ip, rrx

00003d94 <l3815>:
    3d94:	e0f577e7 	rscs	r7, r5, r7, ror #15

00003d98 <l3816>:
    3d98:	e3170b0d 	tst	r7, #13312	; 0x3400

00003d9c <l3817>:
    3d9c:	e299cb66 	adds	ip, r9, #104448	; 0x19800

00003da0 <l3818>:
    3da0:	c1db1b71 	bicsgt	r1, fp, r1, ror fp

00003da4 <l3819>:
    3da4:	80414ac9 	subhi	r4, r1, r9, asr #21

00003da8 <l3820>:
    3da8:	e25bc52f 	subs	ip, fp, #197132288	; 0xbc00000

00003dac <l3821>:
    3dac:	607f9526 	rsbsvs	r9, pc, r6, lsr #10

00003db0 <l3822>:
    3db0:	b134047a 	teqlt	r4, sl, ror r4

00003db4 <l3823>:
    3db4:	a042e00f 	subge	lr, r2, pc

00003db8 <l3824>:
    3db8:	e020a007 	eor	sl, r0, r7

00003dbc <l3825>:
    3dbc:	e9bd13d6 	ldmib	sp!, {r1, r2, r4, r6, r7, r8, r9, ip}

00003dc0 <l3826>:
    3dc0:	e59f2000 	ldr	r2, [pc]	; 3dc8 <l3828>

00003dc4 <l3827>:
    3dc4:	ea000000 	b	3dcc <l3829>

00003dc8 <l3828>:
    3dc8:	000fffc0 	.word	0x000fffc0

00003dcc <l3829>:
    3dcc:	e142909c 	swpb	r9, ip, [r2]

00003dd0 <l3830>:
    3dd0:	e04a58ea 	sub	r5, sl, sl, ror #17

00003dd4 <l3831>:
    3dd4:	e1ddb0ba 	ldrh	fp, [sp, #10]

00003dd8 <l3832>:
    3dd8:	21a08002 	movcs	r8, r2

00003ddc <l3833>:
    3ddc:	53570802 	cmppl	r7, #131072	; 0x20000

00003de0 <l3834>:
    3de0:	415d62b0 	ldrhmi	r6, [sp, #-32]	; 0xffffffe0

00003de4 <l3835>:
    3de4:	e99d0060 	ldmib	sp, {r5, r6}

00003de8 <l3836>:
    3de8:	a05a9001 	subsge	r9, sl, r1

00003dec <l3837>:
    3dec:	5352067b 	cmppl	r2, #128974848	; 0x7b00000

00003df0 <l3838>:
    3df0:	d07c3005 	rsbsle	r3, ip, r5

00003df4 <l3839>:
    3df4:	e03ee007 	eors	lr, lr, r7

00003df8 <l3840>:
    3df8:	d1b07758 	asrsle	r7, r8, r7

00003dfc <l3841>:
    3dfc:	c1973b59 	orrsgt	r3, r7, r9, asr fp

00003e00 <l3842>:
    3e00:	e82d6000 	stmda	sp!, {sp, lr}

00003e04 <l3843>:
    3e04:	10aa891e 	adcne	r8, sl, lr, lsl r9

00003e08 <l3844>:
    3e08:	d373078e 	cmnle	r3, #37224448	; 0x2380000

00003e0c <l3845>:
    3e0c:	e3a07024 	mov	r7, #36	; 0x24

00003e10 <l3846>:
    3e10:	e11d10f7 	ldrsh	r1, [sp, -r7]

00003e14 <l3847>:
    3e14:	617c0065 	cmnvs	ip, r5, rrx

00003e18 <l3848>:
    3e18:	e14d90b4 	strh	r9, [sp, #-4]

00003e1c <l3849>:
    3e1c:	254d6033 	strbcs	r6, [sp, #-51]	; 0x33

00003e20 <l3850>:
    3e20:	154d800c 	strbne	r8, [sp, #-12]

00003e24 <l3851>:
    3e24:	40b3cde0 	adcsmi	ip, r3, r0, ror #27

00003e28 <l3852>:
    3e28:	e59f9000 	ldr	r9, [pc]	; 3e30 <l3854>

00003e2c <l3853>:
    3e2c:	ea000000 	b	3e34 <l3855>

00003e30 <l3854>:
    3e30:	000fffe8 	.word	0x000fffe8

00003e34 <l3855>:
    3e34:	21094095 	swpcs	r4, r5, [r9]

00003e38 <l3856>:
    3e38:	616f3f12 	clzvs	r3, r2

00003e3c <l3857>:
    3e3c:	75dd100c 	ldrbvc	r1, [sp, #12]

00003e40 <l3858>:
    3e40:	c1a07001 	movgt	r7, r1

00003e44 <l3859>:
    3e44:	e3a0a038 	mov	sl, #56	; 0x38

00003e48 <l3860>:
    3e48:	e73d800a 	ldr	r8, [sp, -sl]!

00003e4c <l3861>:
    3e4c:	11da0001 	bicsne	r0, sl, r1

00003e50 <l3862>:
    3e50:	23f030d4 	mvnscs	r3, #212	; 0xd4

00003e54 <l3863>:
    3e54:	e0041c5c 	and	r1, r4, ip, asr ip

00003e58 <l3864>:
    3e58:	e3a0e024 	mov	lr, #36	; 0x24

00003e5c <l3865>:
    3e5c:	d19d50fe 	ldrshle	r5, [sp, lr]

00003e60 <l3866>:
    3e60:	e029a804 	eor	sl, r9, r4, lsl #16

00003e64 <l3867>:
    3e64:	71140005 	tstvc	r4, r5

00003e68 <l3868>:
    3e68:	80ffbee8 	rscshi	fp, pc, r8, ror #29

00003e6c <l3869>:
    3e6c:	e9bd4aa7 	ldmib	sp!, {r0, r1, r2, r5, r7, r9, fp, lr}

00003e70 <l3870>:
    3e70:	e026706f 	eor	r7, r6, pc, rrx

00003e74 <l3871>:
    3e74:	21dd60fe 	ldrshcs	r6, [sp, #14]

00003e78 <l3872>:
    3e78:	a00ee00c 	andge	lr, lr, ip

00003e7c <l3873>:
    3e7c:	c16f1f15 	clzgt	r1, r5

00003e80 <l3874>:
    3e80:	e3a0700a 	mov	r7, #10

00003e84 <l3875>:
    3e84:	17dd4007 	ldrbne	r4, [sp, r7]

00003e88 <l3876>:
    3e88:	537e0369 	cmnpl	lr, #-1543503871	; 0xa4000001

00003e8c <l3877>:
    3e8c:	c0a193c6 	adcgt	r9, r1, r6, asr #7

00003e90 <l3878>:
    3e90:	e82d0908 	stmda	sp!, {r3, r8, fp}

00003e94 <l3879>:
    3e94:	e59f9000 	ldr	r9, [pc]	; 3e9c <l3881>

00003e98 <l3880>:
    3e98:	ea000000 	b	3ea0 <l3882>

00003e9c <l3881>:
    3e9c:	000fffd0 	.word	0x000fffd0

00003ea0 <l3882>:
    3ea0:	a109309c 	swpge	r3, ip, [r9]

00003ea4 <l3883>:
    3ea4:	e3a06008 	mov	r6, #8

00003ea8 <l3884>:
    3ea8:	e7bd4006 	ldr	r4, [sp, r6]!

00003eac <l3885>:
    3eac:	e3a00025 	mov	r0, #37	; 0x25

00003eb0 <l3886>:
    3eb0:	e7cda000 	strb	sl, [sp, r0]

00003eb4 <l3887>:
    3eb4:	e03c900a 	eors	r9, ip, sl

00003eb8 <l3888>:
    3eb8:	e1390756 	teq	r9, r6, asr r7

00003ebc <l3889>:
    3ebc:	52f72b21 	rscspl	r2, r7, #33792	; 0x8400

00003ec0 <l3890>:
    3ec0:	e0422002 	sub	r2, r2, r2

00003ec4 <l3891>:
    3ec4:	e16f6f17 	clz	r6, r7

00003ec8 <l3892>:
    3ec8:	e1100005 	tst	r0, r5

00003ecc <l3893>:
    3ecc:	e1c1545e 	bic	r5, r1, lr, asr r4

00003ed0 <l3894>:
    3ed0:	017a08a9 	cmneq	sl, r9, lsr #17

00003ed4 <l3895>:
    3ed4:	e2512e9f 	subs	r2, r1, #2544	; 0x9f0

00003ed8 <l3896>:
    3ed8:	7204c147 	andvc	ip, r4, #-1073741807	; 0xc0000011

00003edc <l3897>:
    3edc:	e3a0c014 	mov	ip, #20

00003ee0 <l3898>:
    3ee0:	e19dc0bc 	ldrh	ip, [sp, ip]

00003ee4 <l3899>:
    3ee4:	721ec9e5 	andsvc	ip, lr, #3751936	; 0x394000

00003ee8 <l3900>:
    3ee8:	30537004 	subscc	r7, r3, r4

00003eec <l3901>:
    3eec:	22cc2a31 	sbccs	r2, ip, #200704	; 0x31000

00003ef0 <l3902>:
    3ef0:	40fc5938 	rscsmi	r5, ip, r8, lsr r9

00003ef4 <l3903>:
    3ef4:	e59f3000 	ldr	r3, [pc]	; 3efc <l3905>

00003ef8 <l3904>:
    3ef8:	ea000000 	b	3f00 <l3906>

00003efc <l3905>:
    3efc:	000fffd0 	.word	0x000fffd0

00003f00 <l3906>:
    3f00:	b1438095 	swpblt	r8, r5, [r3]

00003f04 <l3907>:
    3f04:	909b600a 	addsls	r6, fp, sl

00003f08 <l3908>:
    3f08:	e130067c 	teq	r0, ip, ror r6

00003f0c <l3909>:
    3f0c:	416f7f10 	clzmi	r7, r0

00003f10 <l3910>:
    3f10:	e3a0e024 	mov	lr, #36	; 0x24

00003f14 <l3911>:
    3f14:	e7dde00e 	ldrb	lr, [sp, lr]

00003f18 <l3912>:
    3f18:	70f922c8 	rscsvc	r2, r9, r8, asr #5

00003f1c <l3913>:
    3f1c:	e1d3912a 	bics	r9, r3, sl, lsr #2

00003f20 <l3914>:
    3f20:	e1dda0d5 	ldrsb	sl, [sp, #5]

00003f24 <l3915>:
    3f24:	719fa00f 	orrsvc	sl, pc, pc

00003f28 <l3916>:
    3f28:	901e0de0 	andsls	r0, lr, r0, ror #27

00003f2c <l3917>:
    3f2c:	e3a0701c 	mov	r7, #28

00003f30 <l3918>:
    3f30:	c7cd3007 	strbgt	r3, [sp, r7]

00003f34 <l3919>:
    3f34:	e82d9282 	stmda	sp!, {r1, r7, r9, ip, pc}

00003f38 <l3920>:
    3f38:	b31e0baf 	tstlt	lr, #179200	; 0x2bc00

00003f3c <l3921>:
    3f3c:	21e03007 	mvncs	r3, r7

00003f40 <l3922>:
    3f40:	d2c39a42 	sbcle	r9, r3, #270336	; 0x42000

00003f44 <l3923>:
    3f44:	75ddc01d 	ldrbvc	ip, [sp, #29]

00003f48 <l3924>:
    3f48:	811f0067 	tsthi	pc, r7, rrx

00003f4c <l3925>:
    3f4c:	e3a06004 	mov	r6, #4

00003f50 <l3926>:
    3f50:	e68d6006 	str	r6, [sp], r6

00003f54 <l3927>:
    3f54:	307c4359 	rsbscc	r4, ip, r9, asr r3

00003f58 <l3928>:
    3f58:	614d90bc 	strhvs	r9, [sp, #-12]

00003f5c <l3929>:
    3f5c:	20063271 	andcs	r3, r6, r1, ror r2

00003f60 <l3930>:
    3f60:	e3a00010 	mov	r0, #16

00003f64 <l3931>:
    3f64:	e18d60b0 	strh	r6, [sp, r0]

00003f68 <l3932>:
    3f68:	e3f0b003 	mvns	fp, #3

00003f6c <l3933>:
    3f6c:	e3a0c017 	mov	ip, #23

00003f70 <l3934>:
    3f70:	e19de0dc 	ldrsb	lr, [sp, ip]

00003f74 <l3935>:
    3f74:	015d80f2 	ldrsheq	r8, [sp, #-2]

00003f78 <l3936>:
    3f78:	e0b047a3 	adcs	r4, r0, r3, lsr #15

00003f7c <l3937>:
    3f7c:	e1dd23b2 	ldrh	r2, [sp, #50]	; 0x32

00003f80 <l3938>:
    3f80:	02e6278d 	rsceq	r2, r6, #36962304	; 0x2340000

00003f84 <l3939>:
    3f84:	e98d855c 	stmib	sp, {r2, r3, r4, r6, r8, sl, pc}

00003f88 <l3940>:
    3f88:	e2f6882f 	rscs	r8, r6, #3080192	; 0x2f0000

00003f8c <l3941>:
    3f8c:	7a000006 	bvc	3fac <l3949>

00003f90 <l3942>:
    3f90:	b18e1634 	orrlt	r1, lr, r4, lsr r6

00003f94 <l3943>:
    3f94:	40cee714 	sbcmi	lr, lr, r4, lsl r7

00003f98 <l3944>:
    3f98:	805bc00c 	subshi	ip, fp, ip

00003f9c <l3945>:
    3f9c:	e1a05068 	rrx	r5, r8

00003fa0 <l3946>:
    3fa0:	e25f59e2 	subs	r5, pc, #3702784	; 0x388000

00003fa4 <l3947>:
    3fa4:	8154000c 	cmphi	r4, ip

00003fa8 <l3948>:
    3fa8:	e16f7f1a 	clz	r7, sl

00003fac <l3949>:
    3fac:	e0511003 	subs	r1, r1, r3

00003fb0 <l3950>:
    3fb0:	139a590d 	orrsne	r5, sl, #212992	; 0x34000

00003fb4 <l3951>:
    3fb4:	e2895fe6 	add	r5, r9, #920	; 0x398

00003fb8 <l3952>:
    3fb8:	6009806b 	andvs	r8, r9, fp, rrx

00003fbc <l3953>:
    3fbc:	e0b64531 	adcs	r4, r6, r1, lsr r5

00003fc0 <l3954>:
    3fc0:	a1380f65 	teqge	r8, r5, ror #30

00003fc4 <l3955>:
    3fc4:	e21ca111 	ands	sl, ip, #1073741828	; 0x40000004

00003fc8 <l3956>:
    3fc8:	e1d59007 	bics	r9, r5, r7

00003fcc <l3957>:
    3fcc:	23170972 	tstcs	r7, #1867776	; 0x1c8000

00003fd0 <l3958>:
    3fd0:	e59f4000 	ldr	r4, [pc]	; 3fd8 <l3960>

00003fd4 <l3959>:
    3fd4:	ea000000 	b	3fdc <l3961>

00003fd8 <l3960>:
    3fd8:	000fffb4 	.word	0x000fffb4

00003fdc <l3961>:
    3fdc:	e104009e 	swp	r0, lr, [r4]

00003fe0 <l3962>:
    3fe0:	e1a0400f 	mov	r4, pc

00003fe4 <l3963>:
    3fe4:	e49d800c 	ldr	r8, [sp], #12

00003fe8 <l3964>:
    3fe8:	e0298009 	eor	r8, r9, r9

00003fec <l3965>:
    3fec:	d030b00e 	eorsle	fp, r0, lr

00003ff0 <l3966>:
    3ff0:	b59d4010 	ldrlt	r4, [sp, #16]

00003ff4 <l3967>:
    3ff4:	e80d8020 	stmda	sp, {r5, pc}

00003ff8 <l3968>:
    3ff8:	499d5bdf 	ldmibmi	sp, {r0, r1, r2, r3, r4, r6, r7, r8, r9, fp, ip, lr}

00003ffc <l3969>:
    3ffc:	43de137d 	bicsmi	r1, lr, #-201326591	; 0xf4000001

00004000 <l3970>:
    4000:	e15c0378 	cmp	ip, r8, ror r3

00004004 <l3971>:
    4004:	e3a0800d 	mov	r8, #13

00004008 <l3972>:
    4008:	e7cd6008 	strb	r6, [sp, r8]

0000400c <l3973>:
    400c:	e3a08010 	mov	r8, #16

00004010 <l3974>:
    4010:	37cd9008 	strbcc	r9, [sp, r8]

00004014 <l3975>:
    4014:	d33a0392 	teqle	sl, #1207959554	; 0x48000002

00004018 <l3976>:
    4018:	71dd13d1 	ldrsbvc	r1, [sp, #49]	; 0x31

0000401c <l3977>:
    401c:	e3a05030 	mov	r5, #48	; 0x30

00004020 <l3978>:
    4020:	e7cd6005 	strb	r6, [sp, r5]

00004024 <l3979>:
    4024:	e3a05018 	mov	r5, #24

00004028 <l3980>:
    4028:	419d20b5 	ldrhmi	r2, [sp, r5]

0000402c <l3981>:
    402c:	e26fa806 	rsb	sl, pc, #393216	; 0x60000

00004030 <l3982>:
    4030:	51510009 	cmppl	r1, r9

00004034 <l3983>:
    4034:	92e714ca 	rscls	r1, r7, #-905969664	; 0xca000000

00004038 <l3984>:
    4038:	45ddc01f 	ldrbmi	ip, [sp, #31]

0000403c <l3985>:
    403c:	1085b266 	addne	fp, r5, r6, ror #4

00004040 <l3986>:
    4040:	e3a03032 	mov	r3, #50	; 0x32

00004044 <l3987>:
    4044:	e19da0b3 	ldrh	sl, [sp, r3]

00004048 <l3988>:
    4048:	c1570928 	cmpgt	r7, r8, lsr #18

0000404c <l3989>:
    404c:	a03eb066 	eorsge	fp, lr, r6, rrx

00004050 <l3990>:
    4050:	e1a07034 	lsr	r7, r4, r0

00004054 <l3991>:
    4054:	a216043d 	andsge	r0, r6, #1023410176	; 0x3d000000

00004058 <l3992>:
    4058:	71550006 	cmpvc	r5, r6

0000405c <l3993>:
    405c:	e1790062 	cmn	r9, r2, rrx

00004060 <l3994>:
    4060:	e1f0308a 	mvns	r3, sl, lsl #1

00004064 <l3995>:
    4064:	e3a0b00b 	mov	fp, #11

00004068 <l3996>:
    4068:	27dd200b 	ldrbcs	r2, [sp, fp]

0000406c <l3997>:
    406c:	3357058e 	cmpcc	r7, #595591168	; 0x23800000

00004070 <l3998>:
    4070:	929e4d95 	addsls	r4, lr, #9536	; 0x2540

00004074 <l3999>:
    4074:	e1a04003 	mov	r4, r3

00004078 <l4000>:
    4078:	e3a0900b 	mov	r9, #11

0000407c <l4001>:
    407c:	e74d9009 	strb	r9, [sp, -r9]

00004080 <l4002>:
    4080:	a55d1011 	ldrbge	r1, [sp, #-17]

00004084 <l4003>:
    4084:	e2872227 	add	r2, r7, #1879048194	; 0x70000002

00004088 <l4004>:
    4088:	e37c00ae 	cmn	ip, #174	; 0xae

0000408c <l4005>:
    408c:	e8bd0500 	pop	{r8, sl}

00004090 <l4006>:
    4090:	3a000008 	bcc	40b8 <l4016>

00004094 <l4007>:
    4094:	50be1433 	adcspl	r1, lr, r3, lsr r4

00004098 <l4008>:
    4098:	30fe5068 	rscscc	r5, lr, r8, rrx

0000409c <l4009>:
    409c:	205e6318 	subscs	r6, lr, r8, lsl r3

000040a0 <l4010>:
    40a0:	806c74a7 	rsbhi	r7, ip, r7, lsr #9

000040a4 <l4011>:
    40a4:	21a0500b 	movcs	r5, fp

000040a8 <l4012>:
    40a8:	a0129687 	andsge	r9, r2, r7, lsl #13

000040ac <l4013>:
    40ac:	217b0aa3 	cmncs	fp, r3, lsr #21

000040b0 <l4014>:
    40b0:	01720009 	cmneq	r2, r9

000040b4 <l4015>:
    40b4:	30be800c 	adcscc	r8, lr, ip

000040b8 <l4016>:
    40b8:	e01b0067 	ands	r0, fp, r7, rrx

000040bc <l4017>:
    40bc:	e59f0000 	ldr	r0, [pc]	; 40c4 <l4019>

000040c0 <l4018>:
    40c0:	ea000000 	b	40c8 <l4020>

000040c4 <l4019>:
    40c4:	000fffa8 	.word	0x000fffa8

000040c8 <l4020>:
    40c8:	7100a09e 	swpvc	sl, lr, [r0]

000040cc <l4021>:
    40cc:	e3a0c02a 	mov	ip, #42	; 0x2a

000040d0 <l4022>:
    40d0:	e7cd100c 	strb	r1, [sp, ip]

000040d4 <l4023>:
    40d4:	800ea060 	andhi	sl, lr, r0, rrx

000040d8 <l4024>:
    40d8:	e54dc005 	strb	ip, [sp, #-5]

000040dc <l4025>:
    40dc:	e8ad0400 	stmia	sp!, {sl}

000040e0 <l4026>:
    40e0:	e82d4001 	stmda	sp!, {r0, lr}

000040e4 <l4027>:
    40e4:	e0573069 	subs	r3, r7, r9, rrx

000040e8 <l4028>:
    40e8:	e118006b 	tst	r8, fp, rrx

000040ec <l4029>:
    40ec:	90b90009 	adcsls	r0, r9, r9

000040f0 <l4030>:
    40f0:	e59f8000 	ldr	r8, [pc]	; 40f8 <l4032>

000040f4 <l4031>:
    40f4:	ea000000 	b	40fc <l4033>

000040f8 <l4032>:
    40f8:	000fffd0 	.word	0x000fffd0

000040fc <l4033>:
    40fc:	2108b095 	swpcs	fp, r5, [r8]

00004100 <l4034>:
    4100:	e3a0900e 	mov	r9, #14

00004104 <l4035>:
    4104:	618db0b9 	strhvs	fp, [sp, r9]

00004108 <l4036>:
    4108:	e09cc005 	adds	ip, ip, r5

0000410c <l4037>:
    410c:	659d2028 	ldrvs	r2, [sp, #40]	; 0x28

00004110 <l4038>:
    4110:	e59fa000 	ldr	sl, [pc]	; 4118 <l4040>

00004114 <l4039>:
    4114:	ea000000 	b	411c <l4041>

00004118 <l4040>:
    4118:	000fffe8 	.word	0x000fffe8

0000411c <l4041>:
    411c:	110a1090 	swpne	r1, r0, [sl]

00004120 <l4042>:
    4120:	e094e000 	adds	lr, r4, r0

00004124 <l4043>:
    4124:	e59f2000 	ldr	r2, [pc]	; 412c <l4045>

00004128 <l4044>:
    4128:	ea000000 	b	4130 <l4046>

0000412c <l4045>:
    412c:	000fffc0 	.word	0x000fffc0

00004130 <l4046>:
    4130:	91421097 	swpbls	r1, r7, [r2]

00004134 <l4047>:
    4134:	e172000e 	cmn	r2, lr

00004138 <l4048>:
    4138:	e110000b 	tst	r0, fp

0000413c <l4049>:
    413c:	e0b31c39 	adcs	r1, r3, r9, lsr ip

00004140 <l4050>:
    4140:	c0418e65 	subgt	r8, r1, r5, ror #28

00004144 <l4051>:
    4144:	e3a0600c 	mov	r6, #12

00004148 <l4052>:
    4148:	e18d30b6 	strh	r3, [sp, r6]

0000414c <l4053>:
    414c:	25ddc009 	ldrbcs	ip, [sp, #9]

00004150 <l4054>:
    4150:	ea000004 	b	4168 <l4060>

00004154 <l4055>:
    4154:	e28010e6 	add	r1, r0, #230	; 0xe6

00004158 <l4056>:
    4158:	e1b0be31 	lsrs	fp, r1, lr

0000415c <l4057>:
    415c:	81b00365 	rorshi	r0, r5, #6

00004160 <l4058>:
    4160:	51300005 	teqpl	r0, r5

00004164 <l4059>:
    4164:	ea000000 	b	416c <l4061>

00004168 <l4060>:
    4168:	eafffffa 	b	4158 <l4056>

0000416c <l4061>:
    416c:	e59fe000 	ldr	lr, [pc]	; 4174 <l4063>

00004170 <l4062>:
    4170:	ea000000 	b	4178 <l4064>

00004174 <l4063>:
    4174:	000fffac 	.word	0x000fffac

00004178 <l4064>:
    4178:	e10e709b 	swp	r7, fp, [lr]

0000417c <l4065>:
    417c:	e88d21c1 	stm	sp, {r0, r6, r7, r8, sp}

00004180 <l4066>:
    4180:	c1140bcb 	tstgt	r4, fp, asr #23

00004184 <l4067>:
    4184:	71c4c00e 	bicvc	ip, r4, lr

00004188 <l4068>:
    4188:	914d10b8 	strhls	r1, [sp, #-8]

0000418c <l4069>:
    418c:	e3350637 	teq	r5, #57671680	; 0x3700000

00004190 <l4070>:
    4190:	254d200d 	strbcs	r2, [sp, #-13]

00004194 <l4071>:
    4194:	e396c0e4 	orrs	ip, r6, #228	; 0xe4

00004198 <l4072>:
    4198:	b1e0a00a 	mvnlt	sl, sl

0000419c <l4073>:
    419c:	201a100a 	andscs	r1, sl, sl

000041a0 <l4074>:
    41a0:	ea000006 	b	41c0 <l4082>

000041a4 <l4075>:
    41a4:	e09aa067 	adds	sl, sl, r7, rrx

000041a8 <l4076>:
    41a8:	307baba3 	rsbscc	sl, fp, r3, lsr #23

000041ac <l4077>:
    41ac:	e239ae1f 	eors	sl, r9, #496	; 0x1f0

000041b0 <l4078>:
    41b0:	a1dc1062 	bicsge	r1, ip, r2, rrx

000041b4 <l4079>:
    41b4:	e030a06b 	eors	sl, r0, fp, rrx

000041b8 <l4080>:
    41b8:	e0a43e3e 	adc	r3, r4, lr, lsr lr

000041bc <l4081>:
    41bc:	722b7a25 	eorvc	r7, fp, #151552	; 0x25000

000041c0 <l4082>:
    41c0:	61cc0004 	bicvs	r0, ip, r4

000041c4 <l4083>:
    41c4:	118e5238 	orrne	r5, lr, r8, lsr r2

000041c8 <l4084>:
    41c8:	e59f8000 	ldr	r8, [pc]	; 41d0 <l4086>

000041cc <l4085>:
    41cc:	ea000000 	b	41d4 <l4087>

000041d0 <l4086>:
    41d0:	000fffb4 	.word	0x000fffb4

000041d4 <l4087>:
    41d4:	0108a094 	swpeq	sl, r4, [r8]

000041d8 <l4088>:
    41d8:	e011406c 	ands	r4, r1, ip, rrx

000041dc <l4089>:
    41dc:	2a000004 	bcs	41f4 <l4095>

000041e0 <l4090>:
    41e0:	e2801006 	add	r1, r0, #6

000041e4 <l4091>:
    41e4:	a0248616 	eorge	r8, r4, r6, lsl r6

000041e8 <l4092>:
    41e8:	33340173 	teqcc	r4, #-1073741796	; 0xc000001c

000041ec <l4093>:
    41ec:	e0480730 	sub	r0, r8, r0, lsr r7

000041f0 <l4094>:
    41f0:	ea000000 	b	41f8 <l4096>

000041f4 <l4095>:
    41f4:	eafffffa 	b	41e4 <l4091>

000041f8 <l4096>:
    41f8:	50069730 	andpl	r9, r6, r0, lsr r7

000041fc <l4097>:
    41fc:	e3a03002 	mov	r3, #2

00004200 <l4098>:
    4200:	019d60b3 	ldrheq	r6, [sp, r3]

00004204 <l4099>:
    4204:	d29eb00f 	addsle	fp, lr, #15

00004208 <l4100>:
    4208:	b2b18f8e 	adcslt	r8, r1, #568	; 0x238

0000420c <l4101>:
    420c:	e1510057 	cmp	r1, r7, asr r0

00004210 <l4102>:
    4210:	e1a09008 	mov	r9, r8

00004214 <l4103>:
    4214:	e06a7156 	rsb	r7, sl, r6, asr r1

00004218 <l4104>:
    4218:	01e0b250 	mvneq	fp, r0, asr r2

0000421c <l4105>:
    421c:	e029a009 	eor	sl, r9, r9

00004220 <l4106>:
    4220:	ea000007 	b	4244 <l4115>

00004224 <l4107>:
    4224:	e28010df 	add	r1, r0, #223	; 0xdf

00004228 <l4108>:
    4228:	e1b06833 	lsrs	r6, r3, r8

0000422c <l4109>:
    422c:	e3982901 	orrs	r2, r8, #16384	; 0x4000

00004230 <l4110>:
    4230:	7022c064 	eorvc	ip, r2, r4, rrx

00004234 <l4111>:
    4234:	e088b00c 	add	fp, r8, ip

00004238 <l4112>:
    4238:	3043e00b 	subcc	lr, r3, fp

0000423c <l4113>:
    423c:	301e6009 	andscc	r6, lr, r9

00004240 <l4114>:
    4240:	ea000000 	b	4248 <l4116>

00004244 <l4115>:
    4244:	eafffff7 	b	4228 <l4108>

00004248 <l4116>:
    4248:	e35a06a6 	cmp	sl, #174063616	; 0xa600000

0000424c <l4117>:
    424c:	c3c15d31 	bicgt	r5, r1, #3136	; 0xc40

00004250 <l4118>:
    4250:	7a000003 	bvc	4264 <l4123>

00004254 <l4119>:
    4254:	e2801006 	add	r1, r0, #6

00004258 <l4120>:
    4258:	924513cb 	subls	r1, r5, #738197507	; 0x2c000003

0000425c <l4121>:
    425c:	e1841461 	orr	r1, r4, r1, ror #8

00004260 <l4122>:
    4260:	ea000000 	b	4268 <l4124>

00004264 <l4123>:
    4264:	eafffffb 	b	4258 <l4120>

00004268 <l4124>:
    4268:	e0440001 	sub	r0, r4, r1

0000426c <l4125>:
    426c:	e214282b 	ands	r2, r4, #2818048	; 0x2b0000

00004270 <l4126>:
    4270:	e0f57556 	rscs	r7, r5, r6, asr r5

00004274 <l4127>:
    4274:	e08e6006 	add	r6, lr, r6

00004278 <l4128>:
    4278:	aa000000 	bge	4280 <l4130>

0000427c <l4129>:
    427c:	e1c38830 	bic	r8, r3, r0, lsr r8

00004280 <l4130>:
    4280:	11d39000 	bicsne	r9, r3, r0

00004284 <l4131>:
    4284:	e3a0000c 	mov	r0, #12

00004288 <l4132>:
    4288:	e68d3000 	str	r3, [sp], r0

0000428c <l4133>:
    428c:	e0715001 	rsbs	r5, r1, r1

00004290 <l4134>:
    4290:	e59fe000 	ldr	lr, [pc]	; 4298 <l4136>

00004294 <l4135>:
    4294:	ea000000 	b	429c <l4137>

00004298 <l4136>:
    4298:	000fffc8 	.word	0x000fffc8

0000429c <l4137>:
    429c:	a14e009b 	swpbge	r0, fp, [lr]

000042a0 <l4138>:
    42a0:	351d3010 	ldrcc	r3, [sp, #-16]

000042a4 <l4139>:
    42a4:	5318020b 	tstpl	r8, #-1342177280	; 0xb0000000

000042a8 <l4140>:
    42a8:	8a000005 	bhi	42c4 <l4147>

000042ac <l4141>:
    42ac:	e2801014 	add	r1, r0, #20

000042b0 <l4142>:
    42b0:	e31c0697 	tst	ip, #158334976	; 0x9700000

000042b4 <l4143>:
    42b4:	c048a25c 	subgt	sl, r8, ip, asr r2

000042b8 <l4144>:
    42b8:	e3f0e08a 	mvns	lr, #138	; 0x8a

000042bc <l4145>:
    42bc:	00a0b064 	adceq	fp, r0, r4, rrx

000042c0 <l4146>:
    42c0:	ea000000 	b	42c8 <l4148>

000042c4 <l4147>:
    42c4:	eafffff9 	b	42b0 <l4142>

000042c8 <l4148>:
    42c8:	10516e6b 	subsne	r6, r1, fp, ror #28

000042cc <l4149>:
    42cc:	e52d4024 	str	r4, [sp, #-36]!	; 0x24

000042d0 <l4150>:
    42d0:	e3a0a009 	mov	sl, #9

000042d4 <l4151>:
    42d4:	07dd900a 	ldrbeq	r9, [sp, sl]

000042d8 <l4152>:
    42d8:	20c19b06 	sbccs	r9, r1, r6, lsl #22

000042dc <l4153>:
    42dc:	e1f0900b 	mvns	r9, fp

000042e0 <l4154>:
    42e0:	917e005e 	cmnls	lr, lr, asr r0

000042e4 <l4155>:
    42e4:	e48d0010 	str	r0, [sp], #16

000042e8 <l4156>:
    42e8:	e98d2828 	stmib	sp, {r3, r5, fp, sp}

000042ec <l4157>:
    42ec:	72e94059 	rscvc	r4, r9, #89	; 0x59

000042f0 <l4158>:
    42f0:	e0f5a060 	rscs	sl, r5, r0, rrx

000042f4 <l4159>:
    42f4:	e1b06003 	movs	r6, r3

000042f8 <l4160>:
    42f8:	e3570b0b 	cmp	r7, #11264	; 0x2c00

000042fc <l4161>:
    42fc:	d54d1005 	strble	r1, [sp, #-5]

00004300 <l4162>:
    4300:	e11a04c7 	tst	sl, r7, asr #9

00004304 <l4163>:
    4304:	e011a6e8 	ands	sl, r1, r8, ror #13

00004308 <l4164>:
    4308:	5055b068 	subspl	fp, r5, r8, rrx

0000430c <l4165>:
    430c:	e3a0802b 	mov	r8, #43	; 0x2b

00004310 <l4166>:
    4310:	919d80d8 	ldrsbls	r8, [sp, r8]

00004314 <l4167>:
    4314:	516f2f17 	clzpl	r2, r7

00004318 <l4168>:
    4318:	91ddb0fa 	ldrshls	fp, [sp, #10]

0000431c <l4169>:
    431c:	0034800a 	eorseq	r8, r4, sl

00004320 <l4170>:
    4320:	e83d0208 	ldmda	sp!, {r3, r9}

00004324 <l4171>:
    4324:	e04ab431 	sub	fp, sl, r1, lsr r4

00004328 <l4172>:
    4328:	e3a04004 	mov	r4, #4

0000432c <l4173>:
    432c:	e11d60b4 	ldrh	r6, [sp, -r4]

00004330 <l4174>:
    4330:	e3a06034 	mov	r6, #52	; 0x34

00004334 <l4175>:
    4334:	178d1006 	strne	r1, [sp, r6]

00004338 <l4176>:
    4338:	e1750b0c 	cmn	r5, ip, lsl #22

0000433c <l4177>:
    433c:	e00f28c1 	and	r2, pc, r1, asr #17

00004340 <l4178>:
    4340:	20966457 	addscs	r6, r6, r7, asr r4

00004344 <l4179>:
    4344:	e3a08034 	mov	r8, #52	; 0x34

00004348 <l4180>:
    4348:	118d20b8 	strhne	r2, [sp, r8]

0000434c <l4181>:
    434c:	a03e0230 	eorsge	r0, lr, r0, lsr r2

00004350 <l4182>:
    4350:	e5dd6029 	ldrb	r6, [sp, #41]	; 0x29

00004354 <l4183>:
    4354:	3210b63e 	andscc	fp, r0, #65011712	; 0x3e00000

00004358 <l4184>:
    4358:	e3a0b00c 	mov	fp, #12

0000435c <l4185>:
    435c:	111da0fb 	ldrshne	sl, [sp, -fp]

00004360 <l4186>:
    4360:	e0550b40 	subs	r0, r5, r0, asr #22

00004364 <l4187>:
    4364:	91f0be1b 	mvnsls	fp, fp, lsl lr

00004368 <l4188>:
    4368:	605b005b 	subsvs	r0, fp, fp, asr r0

0000436c <l4189>:
    436c:	604e575c 	subvs	r5, lr, ip, asr r7

00004370 <l4190>:
    4370:	e3a0001e 	mov	r0, #30

00004374 <l4191>:
    4374:	e7dda000 	ldrb	sl, [sp, r0]

00004378 <l4192>:
    4378:	c2b8a09b 	adcsgt	sl, r8, #155	; 0x9b

0000437c <l4193>:
    437c:	513e0820 	teqpl	lr, r0, lsr #16

00004380 <l4194>:
    4380:	41dd30b8 	ldrhmi	r3, [sp, #8]

00004384 <l4195>:
    4384:	e0fc900f 	rscs	r9, ip, pc

00004388 <l4196>:
    4388:	a19cc47e 	orrsge	ip, ip, lr, ror r4

0000438c <l4197>:
    438c:	8059b473 	subshi	fp, r9, r3, ror r4

00004390 <l4198>:
    4390:	40ec5250 	rscmi	r5, ip, r0, asr r2

00004394 <l4199>:
    4394:	e192c610 	orrs	ip, r2, r0, lsl r6

00004398 <l4200>:
    4398:	60c9b826 	sbcvs	fp, r9, r6, lsr #16

0000439c <l4201>:
    439c:	718c0f45 	orrvc	r0, ip, r5, asr #30

000043a0 <l4202>:
    43a0:	d0a6cb52 	adcle	ip, r6, r2, asr fp

000043a4 <l4203>:
    43a4:	e0b74008 	adcs	r4, r7, r8

000043a8 <l4204>:
    43a8:	901f8062 	andsls	r8, pc, r2, rrx

000043ac <l4205>:
    43ac:	e2f0a09c 	rscs	sl, r0, #156	; 0x9c

000043b0 <l4206>:
    43b0:	4a000002 	bmi	43c0 <l4210>

000043b4 <l4207>:
    43b4:	e280104f 	add	r1, r0, #79	; 0x4f

000043b8 <l4208>:
    43b8:	515800c5 	cmppl	r8, r5, asr #1

000043bc <l4209>:
    43bc:	ea000000 	b	43c4 <l4211>

000043c0 <l4210>:
    43c0:	eafffffc 	b	43b8 <l4208>

000043c4 <l4211>:
    43c4:	70e54002 	rscvc	r4, r5, r2

000043c8 <l4212>:
    43c8:	8112068c 	tsthi	r2, ip, lsl #13

000043cc <l4213>:
    43cc:	e11b000b 	tst	fp, fp

000043d0 <l4214>:
    43d0:	e0ee155c 	rsc	r1, lr, ip, asr r5

000043d4 <l4215>:
    43d4:	c3120221 	tstgt	r2, #268435458	; 0x10000002

000043d8 <l4216>:
    43d8:	e31c0103 	tst	ip, #-1073741824	; 0xc0000000

000043dc <l4217>:
    43dc:	e3a04038 	mov	r4, #56	; 0x38

000043e0 <l4218>:
    43e0:	e7ad1004 	str	r1, [sp, r4]!

000043e4 <l4219>:
    43e4:	e3a09000 	mov	r9, #0

000043e8 <l4220>:
    43e8:	b19db0f9 	ldrshlt	fp, [sp, r9]

000043ec <l4221>:
    43ec:	ba000007 	blt	4410 <l4230>

000043f0 <l4222>:
    43f0:	10dae000 	sbcsne	lr, sl, r0

000043f4 <l4223>:
    43f4:	5156061e 	cmppl	r6, lr, lsl r6

000043f8 <l4224>:
    43f8:	b1b0b062 	rrxslt	fp, r2

000043fc <l4225>:
    43fc:	e0832002 	add	r2, r3, r2

00004400 <l4226>:
    4400:	91530a8f 	cmpls	r3, pc, lsl #21

00004404 <l4227>:
    4404:	d1730734 	cmnle	r3, r4, lsr r7

00004408 <l4228>:
    4408:	c0a5e06a 	adcgt	lr, r5, sl, rrx

0000440c <l4229>:
    440c:	e1c01005 	bic	r1, r0, r5

00004410 <l4230>:
    4410:	11570005 	cmpne	r7, r5

00004414 <l4231>:
    4414:	e3a02008 	mov	r2, #8

00004418 <l4232>:
    4418:	e10d80b2 	strh	r8, [sp, -r2]

0000441c <l4233>:
    441c:	e3a05004 	mov	r5, #4

00004420 <l4234>:
    4420:	e7bd4005 	ldr	r4, [sp, r5]!

00004424 <l4235>:
    4424:	e076800e 	rsbs	r8, r6, lr

00004428 <l4236>:
    4428:	e1750c77 	cmn	r5, r7, ror ip

0000442c <l4237>:
    442c:	e59f2000 	ldr	r2, [pc]	; 4434 <l4239>

00004430 <l4238>:
    4430:	ea000000 	b	4438 <l4240>

00004434 <l4239>:
    4434:	000fffd0 	.word	0x000fffd0

00004438 <l4240>:
    4438:	e142809e 	swpb	r8, lr, [r2]

0000443c <l4241>:
    443c:	13560f93 	cmpne	r6, #588	; 0x24c

00004440 <l4242>:
    4440:	8048851a 	subhi	r8, r8, sl, lsl r5

00004444 <l4243>:
    4444:	e3a0503c 	mov	r5, #60	; 0x3c

00004448 <l4244>:
    4448:	e11d90b5 	ldrh	r9, [sp, -r5]

0000444c <l4245>:
    444c:	e33400ce 	teq	r4, #206	; 0xce

00004450 <l4246>:
    4450:	b3720601 	cmnlt	r2, #1048576	; 0x100000

00004454 <l4247>:
    4454:	e110000e 	tst	r0, lr

00004458 <l4248>:
    4458:	e14d20b6 	strh	r2, [sp, #-6]

0000445c <l4249>:
    445c:	e16f0f18 	clz	r0, r8

00004460 <l4250>:
    4460:	1178035b 	cmnne	r8, fp, asr r3

00004464 <l4251>:
    4464:	e3a01039 	mov	r1, #57	; 0x39

00004468 <l4252>:
    4468:	e74da001 	strb	sl, [sp, -r1]

0000446c <l4253>:
    446c:	e33408e7 	teq	r4, #15138816	; 0xe70000

00004470 <l4254>:
    4470:	6a000005 	bvs	448c <l4261>

00004474 <l4255>:
    4474:	e280107c 	add	r1, r0, #124	; 0x7c

00004478 <l4256>:
    4478:	e0461008 	sub	r1, r6, r8

0000447c <l4257>:
    447c:	513c0576 	teqpl	ip, r6, ror r5

00004480 <l4258>:
    4480:	d02343a3 	eorle	r4, r3, r3, lsr #7

00004484 <l4259>:
    4484:	e1812059 	orr	r2, r1, r9, asr r0

00004488 <l4260>:
    4488:	ea000000 	b	4490 <l4262>

0000448c <l4261>:
    448c:	eafffff9 	b	4478 <l4256>

00004490 <l4262>:
    4490:	824b2e9f 	subhi	r2, fp, #2544	; 0x9f0

00004494 <l4263>:
    4494:	e3a08040 	mov	r8, #64	; 0x40

00004498 <l4264>:
    4498:	e11d50d8 	ldrsb	r5, [sp, -r8]

0000449c <l4265>:
    449c:	e3a0b028 	mov	fp, #40	; 0x28

000044a0 <l4266>:
    44a0:	d10de0bb 	strhle	lr, [sp, -fp]

000044a4 <l4267>:
    44a4:	e3a04020 	mov	r4, #32

000044a8 <l4268>:
    44a8:	b11d60d4 	ldrsblt	r6, [sp, -r4]

000044ac <l4269>:
    44ac:	63770a41 	cmnvs	r7, #266240	; 0x41000

000044b0 <l4270>:
    44b0:	e3550000 	cmp	r5, #0

000044b4 <l4271>:
    44b4:	e0320069 	eors	r0, r2, r9, rrx

000044b8 <l4272>:
    44b8:	719e0064 	orrsvc	r0, lr, r4, rrx

000044bc <l4273>:
    44bc:	e59f8000 	ldr	r8, [pc]	; 44c4 <l4275>

000044c0 <l4274>:
    44c0:	ea000000 	b	44c8 <l4276>

000044c4 <l4275>:
    44c4:	000fffc8 	.word	0x000fffc8

000044c8 <l4276>:
    44c8:	b148c094 	swpblt	ip, r4, [r8]

000044cc <l4277>:
    44cc:	815404e3 	cmphi	r4, r3, ror #9

000044d0 <l4278>:
    44d0:	e3a09019 	mov	r9, #25

000044d4 <l4279>:
    44d4:	e74d4009 	strb	r4, [sp, -r9]

000044d8 <l4280>:
    44d8:	e3a03048 	mov	r3, #72	; 0x48

000044dc <l4281>:
    44dc:	970d8003 	strls	r8, [sp, -r3]

000044e0 <l4282>:
    44e0:	b064c00b 	rsblt	ip, r4, fp

000044e4 <l4283>:
    44e4:	e59f0000 	ldr	r0, [pc]	; 44ec <l4285>

000044e8 <l4284>:
    44e8:	ea000000 	b	44f0 <l4286>

000044ec <l4285>:
    44ec:	000fffac 	.word	0x000fffac

000044f0 <l4286>:
    44f0:	e1009096 	swp	r9, r6, [r0]

000044f4 <l4287>:
    44f4:	e0917000 	adds	r7, r1, r0

000044f8 <l4288>:
    44f8:	b11f0704 	tstlt	pc, r4, lsl #14

000044fc <l4289>:
    44fc:	b1540009 	cmplt	r4, r9

00004500 <l4290>:
    4500:	e0982009 	adds	r2, r8, r9

00004504 <l4291>:
    4504:	e1a065e5 	ror	r6, r5, #11

00004508 <l4292>:
    4508:	e192abe9 	orrs	sl, r2, r9, ror #23

0000450c <l4293>:
    450c:	e1f0400c 	mvns	r4, ip

00004510 <l4294>:
    4510:	e33607bb 	teq	r6, #49020928	; 0x2ec0000

00004514 <l4295>:
    4514:	e1a00000 	nop			; (mov r0, r0)

00004518 <l4296>:
    4518:	b045bb05 	sublt	fp, r5, r5, lsl #22

0000451c <l4297>:
    451c:	e3a0802e 	mov	r8, #46	; 0x2e

00004520 <l4298>:
    4520:	874d8008 	strbhi	r8, [sp, -r8]

00004524 <l4299>:
    4524:	71dd10f0 	ldrshvc	r1, [sp]

00004528 <l4300>:
    4528:	e15d54d2 	ldrsb	r5, [sp, #-66]	; 0xffffffbe

0000452c <l4301>:
    452c:	e16f6f1c 	clz	r6, ip

00004530 <l4302>:
    4530:	e15d42fe 	ldrsh	r4, [sp, #-46]	; 0xffffffd2

00004534 <l4303>:
    4534:	5045bb61 	subpl	fp, r5, r1, ror #22

00004538 <l4304>:
    4538:	e1a00000 	nop			; (mov r0, r0)

0000453c <l4305>:
    453c:	d04134ea 	suble	r3, r1, sl, ror #9

00004540 <l4306>:
    4540:	e178000c 	cmn	r8, ip

00004544 <l4307>:
    4544:	e1a00000 	nop			; (mov r0, r0)

00004548 <l4308>:
    4548:	e3a00008 	mov	r0, #8

0000454c <l4309>:
    454c:	e74d8000 	strb	r8, [sp, -r0]

00004550 <l4310>:
    4550:	31912005 	orrscc	r2, r1, r5

00004554 <l4311>:
    4554:	a1740061 	cmnge	r4, r1, rrx

00004558 <l4312>:
    4558:	e15da2b6 	ldrh	sl, [sp, #-38]	; 0xffffffda

0000455c <l4313>:
    455c:	e3a0a00f 	mov	sl, #15

00004560 <l4314>:
    4560:	e75d300a 	ldrb	r3, [sp, -sl]

00004564 <l4315>:
    4564:	e3a0c002 	mov	ip, #2

00004568 <l4316>:
    4568:	e19d30fc 	ldrsh	r3, [sp, ip]

0000456c <l4317>:
    456c:	e3f00df2 	mvns	r0, #15488	; 0x3c80

00004570 <l4318>:
    4570:	e0a39f86 	adc	r9, r3, r6, lsl #31

00004574 <l4319>:
    4574:	e267e743 	rsb	lr, r7, #17563648	; 0x10c0000

00004578 <l4320>:
    4578:	a02a9669 	eorge	r9, sl, r9, ror #12

0000457c <l4321>:
    457c:	737e07eb 	cmnvc	lr, #61603840	; 0x3ac0000

00004580 <l4322>:
    4580:	604a2917 	subvs	r2, sl, r7, lsl r9

00004584 <l4323>:
    4584:	e0125061 	ands	r5, r2, r1, rrx

00004588 <l4324>:
    4588:	a115037e 	tstge	r5, lr, ror r3

0000458c <l4325>:
    458c:	e53d8048 	ldr	r8, [sp, #-72]!	; 0x48

00004590 <l4326>:
    4590:	e114041e 	tst	r4, lr, lsl r4

00004594 <l4327>:
    4594:	804c5c56 	subhi	r5, ip, r6, asr ip

00004598 <l4328>:
    4598:	95dd101b 	ldrbls	r1, [sp, #27]

0000459c <l4329>:
    459c:	e2f3c815 	rscs	ip, r3, #1376256	; 0x150000

000045a0 <l4330>:
    45a0:	e1e0300c 	mvn	r3, ip

000045a4 <l4331>:
    45a4:	8a000005 	bhi	45c0 <l4338>

000045a8 <l4332>:
    45a8:	60961552 	addsvs	r1, r6, r2, asr r5

000045ac <l4333>:
    45ac:	e0d9c06f 	sbcs	ip, r9, pc, rrx

000045b0 <l4334>:
    45b0:	d1d9a06b 	bicsle	sl, r9, fp, rrx

000045b4 <l4335>:
    45b4:	e27f1505 	rsbs	r1, pc, #20971520	; 0x1400000

000045b8 <l4336>:
    45b8:	e18e506a 	orr	r5, lr, sl, rrx

000045bc <l4337>:
    45bc:	e29f9931 	adds	r9, pc, #802816	; 0xc4000

000045c0 <l4338>:
    45c0:	131403d5 	tstne	r4, #1409286147	; 0x54000003

000045c4 <l4339>:
    45c4:	90896116 	addls	r6, r9, r6, lsl r1

000045c8 <l4340>:
    45c8:	d1dd30f0 	ldrshle	r3, [sp]

000045cc <l4341>:
    45cc:	e3a0c004 	mov	ip, #4

000045d0 <l4342>:
    45d0:	e7adc00c 	str	ip, [sp, ip]!

000045d4 <l4343>:
    45d4:	e3a0c034 	mov	ip, #52	; 0x34

000045d8 <l4344>:
    45d8:	a7dd500c 	ldrbge	r5, [sp, ip]

000045dc <l4345>:
    45dc:	80ea2f6e 	rschi	r2, sl, lr, ror #30

000045e0 <l4346>:
    45e0:	e268165f 	rsb	r1, r8, #99614720	; 0x5f00000

000045e4 <l4347>:
    45e4:	e3a0a01a 	mov	sl, #26

000045e8 <l4348>:
    45e8:	819d50ba 	ldrhhi	r5, [sp, sl]

000045ec <l4349>:
    45ec:	0394171f 	orrseq	r1, r4, #8126464	; 0x7c0000

000045f0 <l4350>:
    45f0:	416f0f11 	clzmi	r0, r1

000045f4 <l4351>:
    45f4:	e0e92008 	rsc	r2, r9, r8

000045f8 <l4352>:
    45f8:	e1a00000 	nop			; (mov r0, r0)

000045fc <l4353>:
    45fc:	e1e04000 	mvn	r4, r0

00004600 <l4354>:
    4600:	e0745511 	rsbs	r5, r4, r1, lsl r5

00004604 <l4355>:
    4604:	d1500005 	cmple	r0, r5

00004608 <l4356>:
    4608:	716fbf15 	clzvc	fp, r5

0000460c <l4357>:
    460c:	e1cdc1be 	strh	ip, [sp, #30]

00004610 <l4358>:
    4610:	d13a0279 	teqle	sl, r9, ror r2

00004614 <l4359>:
    4614:	e3a01038 	mov	r1, #56	; 0x38

00004618 <l4360>:
    4618:	e7bde001 	ldr	lr, [sp, r1]!

0000461c <l4361>:
    461c:	e1999006 	orrs	r9, r9, r6

00004620 <l4362>:
    4620:	e16fef17 	clz	lr, r7

00004624 <l4363>:
    4624:	e55da00f 	ldrb	sl, [sp, #-15]

00004628 <l4364>:
    4628:	e55dc020 	ldrb	ip, [sp, #-32]

0000462c <l4365>:
    462c:	e3a03000 	mov	r3, #0

00004630 <l4366>:
    4630:	e69d1003 	ldr	r1, [sp], r3

00004634 <l4367>:
    4634:	e0e9a0ca 	rsc	sl, r9, sl, asr #1

00004638 <l4368>:
    4638:	2234c439 	eorscs	ip, r4, #956301312	; 0x39000000

0000463c <l4369>:
    463c:	ea000005 	b	4658 <l4376>

00004640 <l4370>:
    4640:	e280102e 	add	r1, r0, #46	; 0x2e

00004644 <l4371>:
    4644:	1131000f 	teqne	r1, pc

00004648 <l4372>:
    4648:	51a042e4 	rorpl	r4, r4, #5

0000464c <l4373>:
    464c:	e1b02716 	lsls	r2, r6, r7

00004650 <l4374>:
    4650:	e0de291a 	sbcs	r2, lr, sl, lsl r9

00004654 <l4375>:
    4654:	ea000000 	b	465c <l4377>

00004658 <l4376>:
    4658:	eafffff9 	b	4644 <l4371>

0000465c <l4377>:
    465c:	e069b1ec 	rsb	fp, r9, ip, ror #3

00004660 <l4378>:
    4660:	706a5066 	rsbvc	r5, sl, r6, rrx

00004664 <l4379>:
    4664:	d14d12b4 	strhle	r1, [sp, #-36]	; 0xffffffdc

00004668 <l4380>:
    4668:	e59f8000 	ldr	r8, [pc]	; 4670 <l4382>

0000466c <l4381>:
    466c:	ea000000 	b	4674 <l4383>

00004670 <l4382>:
    4670:	000fffc8 	.word	0x000fffc8

00004674 <l4383>:
    4674:	4148a091 	swpbmi	sl, r1, [r8]

00004678 <l4384>:
    4678:	e17e0005 	cmn	lr, r5

0000467c <l4385>:
    467c:	e18e2343 	orr	r2, lr, r3, asr #6

00004680 <l4386>:
    4680:	339537fd 	orrscc	r3, r5, #66322432	; 0x3f40000

00004684 <l4387>:
    4684:	a15d82b6 	ldrhge	r8, [sp, #-38]	; 0xffffffda

00004688 <l4388>:
    4688:	105ba00b 	subsne	sl, fp, fp

0000468c <l4389>:
    468c:	71350000 	teqvc	r5, r0

00004690 <l4390>:
    4690:	c1c5655e 	bicgt	r6, r5, lr, asr r5

00004694 <l4391>:
    4694:	ca000006 	bgt	46b4 <l4399>

00004698 <l4392>:
    4698:	e03ce009 	eors	lr, ip, r9

0000469c <l4393>:
    469c:	e175000b 	cmn	r5, fp

000046a0 <l4394>:
    46a0:	e2d1b883 	sbcs	fp, r1, #8585216	; 0x830000

000046a4 <l4395>:
    46a4:	e3330225 	teq	r3, #1342177282	; 0x50000002

000046a8 <l4396>:
    46a8:	d02b9e09 	eorle	r9, fp, r9, lsl #28

000046ac <l4397>:
    46ac:	e0f9be0f 	rscs	fp, r9, pc, lsl #28

000046b0 <l4398>:
    46b0:	e1120430 	tst	r2, r0, lsr r4

000046b4 <l4399>:
    46b4:	e056a00f 	subs	sl, r6, pc

000046b8 <l4400>:
    46b8:	20555001 	subscs	r5, r5, r1

000046bc <l4401>:
    46bc:	e38e37ca 	orr	r3, lr, #52953088	; 0x3280000

000046c0 <l4402>:
    46c0:	e59f0000 	ldr	r0, [pc]	; 46c8 <l4404>

000046c4 <l4403>:
    46c4:	ea000000 	b	46cc <l4405>

000046c8 <l4404>:
    46c8:	000fffe4 	.word	0x000fffe4

000046cc <l4405>:
    46cc:	d140a091 	swpble	sl, r1, [r0]

000046d0 <l4406>:
    46d0:	e17a0f2e 	cmn	sl, lr, lsr #30

000046d4 <l4407>:
    46d4:	41a0c061 	rrxmi	ip, r1

000046d8 <l4408>:
    46d8:	a16f8f18 	clzge	r8, r8

000046dc <l4409>:
    46dc:	e2a80e4d 	adc	r0, r8, #1232	; 0x4d0

000046e0 <l4410>:
    46e0:	11140866 	tstne	r4, r6, ror #16

000046e4 <l4411>:
    46e4:	e59f3000 	ldr	r3, [pc]	; 46ec <l4413>

000046e8 <l4412>:
    46e8:	ea000000 	b	46f0 <l4414>

000046ec <l4413>:
    46ec:	000fffe0 	.word	0x000fffe0

000046f0 <l4414>:
    46f0:	61439095 	swpbvs	r9, r5, [r3]

000046f4 <l4415>:
    46f4:	e3a0c032 	mov	ip, #50	; 0x32

000046f8 <l4416>:
    46f8:	e11db0fc 	ldrsh	fp, [sp, -ip]

000046fc <l4417>:
    46fc:	e82d052e 	stmda	sp!, {r1, r2, r3, r5, r8, sl}

00004700 <l4418>:
    4700:	105f0004 	subsne	r0, pc, r4

00004704 <l4419>:
    4704:	c89d0080 	ldmgt	sp, {r7}

00004708 <l4420>:
    4708:	92e3e64f 	rscls	lr, r3, #82837504	; 0x4f00000

0000470c <l4421>:
    470c:	e13b0008 	teq	fp, r8

00004710 <l4422>:
    4710:	b0539065 	subslt	r9, r3, r5, rrx

00004714 <l4423>:
    4714:	e15d01ba 	ldrh	r0, [sp, #-26]	; 0xffffffe6

00004718 <l4424>:
    4718:	e1310c6c 	teq	r1, ip, ror #24

0000471c <l4425>:
    471c:	e49d5018 	ldr	r5, [sp], #24

00004720 <l4426>:
    4720:	b15600a7 	cmplt	r6, r7, lsr #1

00004724 <l4427>:
    4724:	e59f6000 	ldr	r6, [pc]	; 472c <l4429>

00004728 <l4428>:
    4728:	ea000000 	b	4730 <l4430>

0000472c <l4429>:
    472c:	000fffd0 	.word	0x000fffd0

00004730 <l4430>:
    4730:	0106009b 	swpeq	r0, fp, [r6]

00004734 <l4431>:
    4734:	c05b8006 	subsgt	r8, fp, r6

00004738 <l4432>:
    4738:	e55d8001 	ldrb	r8, [sp, #-1]

0000473c <l4433>:
    473c:	e3a0b011 	mov	fp, #17

00004740 <l4434>:
    4740:	975d100b 	ldrbls	r1, [sp, -fp]

00004744 <l4435>:
    4744:	e2ab5ed3 	adc	r5, fp, #3376	; 0xd30

00004748 <l4436>:
    4748:	e0c05e48 	sbc	r5, r0, r8, asr #28

0000474c <l4437>:
    474c:	e3a0e01f 	mov	lr, #31

00004750 <l4438>:
    4750:	974d700e 	strbls	r7, [sp, -lr]

00004754 <l4439>:
    4754:	e16f5f11 	clz	r5, r1

00004758 <l4440>:
    4758:	111a0006 	tstne	sl, r6

0000475c <l4441>:
    475c:	c13b006a 	teqgt	fp, sl, rrx

00004760 <l4442>:
    4760:	e0220d8f 	eor	r0, r2, pc, lsl #27

00004764 <l4443>:
    4764:	e16f7f1a 	clz	r7, sl

00004768 <l4444>:
    4768:	d206ab11 	andle	sl, r6, #17408	; 0x4400

0000476c <l4445>:
    476c:	e81d58fa 	ldmda	sp, {r1, r3, r4, r5, r6, r7, fp, ip, lr}

00004770 <l4446>:
    4770:	e051380a 	subs	r3, r1, sl, lsl #16

00004774 <l4447>:
    4774:	eaffffff 	b	4778 <l4448>

00004778 <l4448>:
    4778:	0049800f 	subeq	r8, r9, pc

0000477c <l4449>:
    477c:	e59f8000 	ldr	r8, [pc]	; 4784 <l4451>

00004780 <l4450>:
    4780:	ea000000 	b	4788 <l4452>

00004784 <l4451>:
    4784:	000fffa0 	.word	0x000fffa0

00004788 <l4452>:
    4788:	e1086096 	swp	r6, r6, [r8]

0000478c <l4453>:
    478c:	80ea6307 	rschi	r6, sl, r7, lsl #6

00004790 <l4454>:
    4790:	c285854e 	addgt	r8, r5, #327155712	; 0x13800000

00004794 <l4455>:
    4794:	e9bd0040 	ldmib	sp!, {r6}

00004798 <l4456>:
    4798:	a15d62b0 	ldrhge	r6, [sp, #-32]	; 0xffffffe0

0000479c <l4457>:
    479c:	40e80064 	rscmi	r0, r8, r4, rrx

000047a0 <l4458>:
    47a0:	e1c03e58 	bic	r3, r0, r8, asr lr

000047a4 <l4459>:
    47a4:	e27fc901 	rsbs	ip, pc, #16384	; 0x4000

000047a8 <l4460>:
    47a8:	e16f0f19 	clz	r0, r9

000047ac <l4461>:
    47ac:	e2a40306 	adc	r0, r4, #402653184	; 0x18000000

000047b0 <l4462>:
    47b0:	315da1f6 	ldrshcc	sl, [sp, #-22]	; 0xffffffea

000047b4 <l4463>:
    47b4:	e0b2000f 	adcs	r0, r2, pc

000047b8 <l4464>:
    47b8:	115e026a 	cmpne	lr, sl, ror #4

000047bc <l4465>:
    47bc:	ea000002 	b	47cc <l4469>

000047c0 <l4466>:
    47c0:	016f4f19 	clzeq	r4, r9

000047c4 <l4467>:
    47c4:	e31f0411 	tst	pc, #285212672	; 0x11000000

000047c8 <l4468>:
    47c8:	638e5651 	orrvs	r5, lr, #84934656	; 0x5100000

000047cc <l4469>:
    47cc:	40eae62e 	rscmi	lr, sl, lr, lsr #12

000047d0 <l4470>:
    47d0:	116f8f1b 	clzne	r8, fp

000047d4 <l4471>:
    47d4:	e14d43be 	strh	r4, [sp, #-62]	; 0xffffffc2

000047d8 <l4472>:
    47d8:	e1d7c10f 	bics	ip, r7, pc, lsl #2

000047dc <l4473>:
    47dc:	b1f09065 	mvnslt	r9, r5, rrx

000047e0 <l4474>:
    47e0:	e9bd0400 	ldmib	sp!, {sl}

000047e4 <l4475>:
    47e4:	e15d11fa 	ldrsh	r1, [sp, #-26]	; 0xffffffe6

000047e8 <l4476>:
    47e8:	3022e504 	eorcc	lr, r2, r4, lsl #10

000047ec <l4477>:
    47ec:	654d6020 	strbvs	r6, [sp, #-32]

000047f0 <l4478>:
    47f0:	e5cd0004 	strb	r0, [sp, #4]

000047f4 <l4479>:
    47f4:	e11b0316 	tst	fp, r6, lsl r3

000047f8 <l4480>:
    47f8:	e17f0006 	cmn	pc, r6

000047fc <l4481>:
    47fc:	e3380851 	teq	r8, #5308416	; 0x510000

00004800 <l4482>:
    4800:	717608a2 	cmnvc	r6, r2, lsr #17

00004804 <l4483>:
    4804:	e3a02002 	mov	r2, #2

00004808 <l4484>:
    4808:	87cd7002 	strbhi	r7, [sp, r2]

0000480c <l4485>:
    480c:	3a000007 	bcc	4830 <l4494>

00004810 <l4486>:
    4810:	e13a0001 	teq	sl, r1

00004814 <l4487>:
    4814:	516fcf13 	clzpl	ip, r3

00004818 <l4488>:
    4818:	01c38536 	biceq	r8, r3, r6, lsr r5

0000481c <l4489>:
    481c:	e1580004 	cmp	r8, r4

00004820 <l4490>:
    4820:	e29124f6 	adds	r2, r1, #-167772160	; 0xf6000000

00004824 <l4491>:
    4824:	e235b556 	eors	fp, r5, #360710144	; 0x15800000

00004828 <l4492>:
    4828:	717304cb 	cmnvc	r3, fp, asr #9

0000482c <l4493>:
    482c:	8228e6eb 	eorhi	lr, r8, #246415360	; 0xeb00000

00004830 <l4494>:
    4830:	e093b81a 	adds	fp, r3, sl, lsl r8

00004834 <l4495>:
    4834:	b55d2013 	ldrblt	r2, [sp, #-19]

00004838 <l4496>:
    4838:	e3a06006 	mov	r6, #6

0000483c <l4497>:
    483c:	c11dc0b6 	ldrhgt	ip, [sp, -r6]

00004840 <l4498>:
    4840:	e3a0203e 	mov	r2, #62	; 0x3e

00004844 <l4499>:
    4844:	211d80f2 	ldrshcs	r8, [sp, -r2]

00004848 <l4500>:
    4848:	e3a0e02b 	mov	lr, #43	; 0x2b

0000484c <l4501>:
    484c:	675dc00e 	ldrbvs	ip, [sp, -lr]

00004850 <l4502>:
    4850:	5195400e 	orrspl	r4, r5, lr

00004854 <l4503>:
    4854:	ca000004 	bgt	486c <l4509>

00004858 <l4504>:
    4858:	e2801076 	add	r1, r0, #118	; 0x76

0000485c <l4505>:
    485c:	e249c971 	sub	ip, r9, #1851392	; 0x1c4000

00004860 <l4506>:
    4860:	90c97068 	sbcls	r7, r9, r8, rrx

00004864 <l4507>:
    4864:	9013c06c 	andsls	ip, r3, ip, rrx

00004868 <l4508>:
    4868:	ea000000 	b	4870 <l4510>

0000486c <l4509>:
    486c:	eafffffa 	b	485c <l4505>

00004870 <l4510>:
    4870:	e006e001 	and	lr, r6, r1

00004874 <l4511>:
    4874:	ea000007 	b	4898 <l4520>

00004878 <l4512>:
    4878:	e2801087 	add	r1, r0, #135	; 0x87

0000487c <l4513>:
    487c:	839195a1 	orrshi	r9, r1, #675282944	; 0x28400000

00004880 <l4514>:
    4880:	e183e009 	orr	lr, r3, r9

00004884 <l4515>:
    4884:	d1550f00 	cmple	r5, r0, lsl #30

00004888 <l4516>:
    4888:	10264953 	eorne	r4, r6, r3, asr r9

0000488c <l4517>:
    488c:	83a04b46 	movhi	r4, #71680	; 0x11800

00004890 <l4518>:
    4890:	d048e00f 	suble	lr, r8, pc

00004894 <l4519>:
    4894:	ea000000 	b	489c <l4521>

00004898 <l4520>:
    4898:	eafffff7 	b	487c <l4513>

0000489c <l4521>:
    489c:	e3a06000 	mov	r6, #0

000048a0 <l4522>:
    48a0:	519da0b6 	ldrhpl	sl, [sp, r6]

000048a4 <l4523>:
    48a4:	51a0c073 	rorpl	ip, r3, r0

000048a8 <l4524>:
    48a8:	e54d6021 	strb	r6, [sp, #-33]	; 0x21

000048ac <l4525>:
    48ac:	e3a0b038 	mov	fp, #56	; 0x38

000048b0 <l4526>:
    48b0:	111d90bb 	ldrhne	r9, [sp, -fp]

000048b4 <l4527>:
    48b4:	5a000004 	bpl	48cc <l4533>

000048b8 <l4528>:
    48b8:	e2801049 	add	r1, r0, #73	; 0x49

000048bc <l4529>:
    48bc:	91f00679 	mvnsls	r0, r9, ror r6

000048c0 <l4530>:
    48c0:	32488183 	subcc	r8, r8, #-1073741792	; 0xc0000020

000048c4 <l4531>:
    48c4:	73f030e4 	mvnsvc	r3, #228	; 0xe4

000048c8 <l4532>:
    48c8:	ea000000 	b	48d0 <l4534>

000048cc <l4533>:
    48cc:	eafffffa 	b	48bc <l4529>

000048d0 <l4534>:
    48d0:	e93d55ff 	ldmdb	sp!, {r0, r1, r2, r3, r4, r5, r6, r7, r8, sl, ip, lr}

000048d4 <l4535>:
    48d4:	b1ddc3b0 	ldrhlt	ip, [sp, #48]	; 0x30

000048d8 <l4536>:
    48d8:	01120001 	tsteq	r2, r1

000048dc <l4537>:
    48dc:	e3a05002 	mov	r5, #2

000048e0 <l4538>:
    48e0:	e7dd6005 	ldrb	r6, [sp, r5]

000048e4 <l4539>:
    48e4:	e0fca006 	rscs	sl, ip, r6

000048e8 <l4540>:
    48e8:	6191c956 	orrsvs	ip, r1, r6, asr r9

000048ec <l4541>:
    48ec:	e1dd20f6 	ldrsh	r2, [sp, #6]

000048f0 <l4542>:
    48f0:	e0b52717 	adcs	r2, r5, r7, lsl r7

000048f4 <l4543>:
    48f4:	e262b4d1 	rsb	fp, r2, #-788529152	; 0xd1000000

000048f8 <l4544>:
    48f8:	e1dac067 	bics	ip, sl, r7, rrx

000048fc <l4545>:
    48fc:	65cdb00a 	strbvs	fp, [sp, #10]

00004900 <l4546>:
    4900:	d3c380fd 	bicle	r8, r3, #253	; 0xfd

00004904 <l4547>:
    4904:	e1520373 	cmp	r2, r3, ror r3

00004908 <l4548>:
    4908:	e1a00000 	nop			; (mov r0, r0)

0000490c <l4549>:
    490c:	e59fc000 	ldr	ip, [pc]	; 4914 <l4551>

00004910 <l4550>:
    4910:	ea000000 	b	4918 <l4552>

00004914 <l4551>:
    4914:	000fffcc 	.word	0x000fffcc

00004918 <l4552>:
    4918:	210c7090 	swpcs	r7, r0, [ip]

0000491c <l4553>:
    491c:	e1b04068 	rrxs	r4, r8

00004920 <l4554>:
    4920:	e55de013 	ldrb	lr, [sp, #-19]

00004924 <l4555>:
    4924:	d1962955 	orrsle	r2, r6, r5, asr r9

00004928 <l4556>:
    4928:	81350062 	teqhi	r5, r2, rrx

0000492c <l4557>:
    492c:	e28451af 	add	r5, r4, #-1073741781	; 0xc000002b

00004930 <l4558>:
    4930:	e15d70d7 	ldrsb	r7, [sp, #-7]

00004934 <l4559>:
    4934:	e04cc065 	sub	ip, ip, r5, rrx

00004938 <l4560>:
    4938:	23f09186 	mvnscs	r9, #-2147483615	; 0x80000021

0000493c <l4561>:
    493c:	e59f8000 	ldr	r8, [pc]	; 4944 <l4563>

00004940 <l4562>:
    4940:	ea000000 	b	4948 <l4564>

00004944 <l4563>:
    4944:	000fffb4 	.word	0x000fffb4

00004948 <l4564>:
    4948:	e108109c 	swp	r1, ip, [r8]

0000494c <l4565>:
    494c:	8a000005 	bhi	4968 <l4572>

00004950 <l4566>:
    4950:	e28010be 	add	r1, r0, #190	; 0xbe

00004954 <l4567>:
    4954:	405a520a 	subsmi	r5, sl, sl, lsl #4

00004958 <l4568>:
    4958:	e057500b 	subs	r5, r7, fp

0000495c <l4569>:
    495c:	e1d85068 	bics	r5, r8, r8, rrx

00004960 <l4570>:
    4960:	90945001 	addsls	r5, r4, r1

00004964 <l4571>:
    4964:	ea000000 	b	496c <l4573>

00004968 <l4572>:
    4968:	eafffff9 	b	4954 <l4567>

0000496c <l4573>:
    496c:	e9ad2000 	stmib	sp!, {sp}

00004970 <l4574>:
    4970:	e28b3b19 	add	r3, fp, #25600	; 0x6400

00004974 <l4575>:
    4974:	e92d2000 	stmfd	sp!, {sp}

00004978 <l4576>:
    4978:	e53da008 	ldr	sl, [sp, #-8]!

0000497c <l4577>:
    497c:	e1520c57 	cmp	r2, r7, asr ip

00004980 <l4578>:
    4980:	c0b4a416 	adcsgt	sl, r4, r6, lsl r4

00004984 <l4579>:
    4984:	e1e0c004 	mvn	ip, r4

00004988 <l4580>:
    4988:	ba000002 	blt	4998 <l4584>

0000498c <l4581>:
    498c:	a2946c83 	addsge	r6, r4, #33536	; 0x8300

00004990 <l4582>:
    4990:	e193c7eb 	orrs	ip, r3, fp, ror #15

00004994 <l4583>:
    4994:	21780fe8 	cmncs	r8, r8, ror #31

00004998 <l4584>:
    4998:	b0eea00a 	rsclt	sl, lr, sl

0000499c <l4585>:
    499c:	90e2ac0c 	rscls	sl, r2, ip, lsl #24

000049a0 <l4586>:
    49a0:	e051800e 	subs	r8, r1, lr

000049a4 <l4587>:
    49a4:	73e0cfd5 	mvnvc	ip, #852	; 0x354

000049a8 <l4588>:
    49a8:	e0369978 	eors	r9, r6, r8, ror r9

000049ac <l4589>:
    49ac:	61ddb2df 	ldrsbvs	fp, [sp, #47]	; 0x2f

000049b0 <l4590>:
    49b0:	a1d65a7c 	bicsge	r5, r6, ip, ror sl

000049b4 <l4591>:
    49b4:	e01a53a9 	ands	r5, sl, r9, lsr #7

000049b8 <l4592>:
    49b8:	c0b3606b 	adcsgt	r6, r3, fp, rrx

000049bc <l4593>:
    49bc:	91cdc0b6 	strhls	ip, [sp, #6]

000049c0 <l4594>:
    49c0:	e3a09004 	mov	r9, #4

000049c4 <l4595>:
    49c4:	e74d1009 	strb	r1, [sp, -r9]

000049c8 <l4596>:
    49c8:	e9ad0021 	stmib	sp!, {r0, r5}

000049cc <l4597>:
    49cc:	b55d900c 	ldrblt	r9, [sp, #-12]

000049d0 <l4598>:
    49d0:	e1a00000 	nop			; (mov r0, r0)

000049d4 <l4599>:
    49d4:	e3a0701c 	mov	r7, #28

000049d8 <l4600>:
    49d8:	e19d10f7 	ldrsh	r1, [sp, r7]

000049dc <l4601>:
    49dc:	a1a04654 	asrge	r4, r4, r6

000049e0 <l4602>:
    49e0:	92f88c75 	rscsls	r8, r8, #29952	; 0x7500

000049e4 <l4603>:
    49e4:	ca000001 	bgt	49f0 <l4606>

000049e8 <l4604>:
    49e8:	e35b068b 	cmp	fp, #145752064	; 0x8b00000

000049ec <l4605>:
    49ec:	e1550d07 	cmp	r5, r7, lsl #26

000049f0 <l4606>:
    49f0:	e0f2000e 	rscs	r0, r2, lr

000049f4 <l4607>:
    49f4:	e59f0000 	ldr	r0, [pc]	; 49fc <l4609>

000049f8 <l4608>:
    49f8:	ea000000 	b	4a00 <l4610>

000049fc <l4609>:
    49fc:	000fffc0 	.word	0x000fffc0

00004a00 <l4610>:
    4a00:	e140b09e 	swpb	fp, lr, [r0]

00004a04 <l4611>:
    4a04:	e1a00000 	nop			; (mov r0, r0)

00004a08 <l4612>:
    4a08:	9045791c 	subls	r7, r5, ip, lsl r9

00004a0c <l4613>:
    4a0c:	31f0c064 	mvnscc	ip, r4, rrx

00004a10 <l4614>:
    4a10:	ea000002 	b	4a20 <l4618>

00004a14 <l4615>:
    4a14:	e28010b9 	add	r1, r0, #185	; 0xb9

00004a18 <l4616>:
    4a18:	b15f00e6 	cmplt	pc, r6, ror #1

00004a1c <l4617>:
    4a1c:	ea000000 	b	4a24 <l4619>

00004a20 <l4618>:
    4a20:	eafffffc 	b	4a18 <l4616>

00004a24 <l4619>:
    4a24:	806c4009 	rsbhi	r4, ip, r9

00004a28 <l4620>:
    4a28:	a15d91b4 	ldrhge	r9, [sp, #-20]	; 0xffffffec

00004a2c <l4621>:
    4a2c:	e0a8300a 	adc	r3, r8, sl

00004a30 <l4622>:
    4a30:	a089a062 	addge	sl, r9, r2, rrx

00004a34 <l4623>:
    4a34:	10c90ec6 	sbcne	r0, r9, r6, asr #29

00004a38 <l4624>:
    4a38:	e1979843 	orrs	r9, r7, r3, asr #16

00004a3c <l4625>:
    4a3c:	81dd30d4 	ldrsbhi	r3, [sp, #4]

00004a40 <l4626>:
    4a40:	e59f9000 	ldr	r9, [pc]	; 4a48 <l4628>

00004a44 <l4627>:
    4a44:	ea000000 	b	4a4c <l4629>

00004a48 <l4628>:
    4a48:	000fffd8 	.word	0x000fffd8

00004a4c <l4629>:
    4a4c:	61098091 	swpvs	r8, r1, [r9]

00004a50 <l4630>:
    4a50:	c1a0e06f 	rrxgt	lr, pc

00004a54 <l4631>:
    4a54:	e25f65c6 	subs	r6, pc, #830472192	; 0x31800000

00004a58 <l4632>:
    4a58:	2253029e 	subscs	r0, r3, #-536870903	; 0xe0000009

00004a5c <l4633>:
    4a5c:	60c10003 	sbcvs	r0, r1, r3

00004a60 <l4634>:
    4a60:	e58d8000 	str	r8, [sp]

00004a64 <l4635>:
    4a64:	c5dda00d 	ldrbgt	sl, [sp, #13]

00004a68 <l4636>:
    4a68:	21c38266 	biccs	r8, r3, r6, ror #4

00004a6c <l4637>:
    4a6c:	e59f6000 	ldr	r6, [pc]	; 4a74 <l4639>

00004a70 <l4638>:
    4a70:	ea000000 	b	4a78 <l4640>

00004a74 <l4639>:
    4a74:	000fffc0 	.word	0x000fffc0

00004a78 <l4640>:
    4a78:	91064091 	swpls	r4, r1, [r6]

00004a7c <l4641>:
    4a7c:	e59fa000 	ldr	sl, [pc]	; 4a84 <l4643>

00004a80 <l4642>:
    4a80:	ea000000 	b	4a88 <l4644>

00004a84 <l4643>:
    4a84:	000fffc4 	.word	0x000fffc4

00004a88 <l4644>:
    4a88:	b14a909e 	swpblt	r9, lr, [sl]

00004a8c <l4645>:
    4a8c:	e0a78000 	adc	r8, r7, r0

00004a90 <l4646>:
    4a90:	e16f8f1e 	clz	r8, lr

00004a94 <l4647>:
    4a94:	e92d4840 	push	{r6, fp, lr}

00004a98 <l4648>:
    4a98:	e1a00000 	nop			; (mov r0, r0)

00004a9c <l4649>:
    4a9c:	e19b4870 	orrs	r4, fp, r0, ror r8

00004aa0 <l4650>:
    4aa0:	e59f0000 	ldr	r0, [pc]	; 4aa8 <l4652>

00004aa4 <l4651>:
    4aa4:	ea000000 	b	4aac <l4653>

00004aa8 <l4652>:
    4aa8:	000fffb8 	.word	0x000fffb8

00004aac <l4653>:
    4aac:	a140e09b 	swpbge	lr, fp, [r0]

00004ab0 <l4654>:
    4ab0:	62b877c2 	adcsvs	r7, r8, #50855936	; 0x3080000

00004ab4 <l4655>:
    4ab4:	e17b0c17 	cmn	fp, r7, lsl ip

00004ab8 <l4656>:
    4ab8:	e2d0491a 	sbcs	r4, r0, #425984	; 0x68000

00004abc <l4657>:
    4abc:	a1780120 	cmnge	r8, r0, lsr #2

00004ac0 <l4658>:
    4ac0:	41dde0d1 	ldrsbmi	lr, [sp, #1]

00004ac4 <l4659>:
    4ac4:	e1f09001 	mvns	r9, r1

00004ac8 <l4660>:
    4ac8:	e5ada030 	str	sl, [sp, #48]!	; 0x30

00004acc <l4661>:
    4acc:	65dd400f 	ldrbvs	r4, [sp, #15]

00004ad0 <l4662>:
    4ad0:	e15d62b0 	ldrh	r6, [sp, #-32]	; 0xffffffe0

00004ad4 <l4663>:
    4ad4:	00f78000 	rscseq	r8, r7, r0

00004ad8 <l4664>:
    4ad8:	e17e0005 	cmn	lr, r5

00004adc <l4665>:
    4adc:	e59f1000 	ldr	r1, [pc]	; 4ae4 <l4667>

00004ae0 <l4666>:
    4ae0:	ea000000 	b	4ae8 <l4668>

00004ae4 <l4667>:
    4ae4:	000fffd0 	.word	0x000fffd0

00004ae8 <l4668>:
    4ae8:	e1413092 	swpb	r3, r2, [r1]

00004aec <l4669>:
    4aec:	e3a01008 	mov	r1, #8

00004af0 <l4670>:
    4af0:	e61d4001 	ldr	r4, [sp], -r1

00004af4 <l4671>:
    4af4:	e59fb000 	ldr	fp, [pc]	; 4afc <l4673>

00004af8 <l4672>:
    4af8:	ea000000 	b	4b00 <l4674>

00004afc <l4673>:
    4afc:	000fffd4 	.word	0x000fffd4

00004b00 <l4674>:
    4b00:	214be09c 	swpbcs	lr, ip, [fp]

00004b04 <l4675>:
    4b04:	e3a06000 	mov	r6, #0

00004b08 <l4676>:
    4b08:	e69db006 	ldr	fp, [sp], r6

00004b0c <l4677>:
    4b0c:	e59f2000 	ldr	r2, [pc]	; 4b14 <l4679>

00004b10 <l4678>:
    4b10:	ea000000 	b	4b18 <l4680>

00004b14 <l4679>:
    4b14:	000fffdc 	.word	0x000fffdc

00004b18 <l4680>:
    4b18:	e1029091 	swp	r9, r1, [r2]

00004b1c <l4681>:
    4b1c:	e1917009 	orrs	r7, r1, r9

00004b20 <l4682>:
    4b20:	e8bd0003 	pop	{r0, r1}

00004b24 <l4683>:
    4b24:	c11a006a 	tstgt	sl, sl, rrx

00004b28 <l4684>:
    4b28:	5a000004 	bpl	4b40 <l4690>

00004b2c <l4685>:
    4b2c:	e28010ac 	add	r1, r0, #172	; 0xac

00004b30 <l4686>:
    4b30:	80d00000 	sbcshi	r0, r0, r0

00004b34 <l4687>:
    4b34:	e208c905 	and	ip, r8, #81920	; 0x14000

00004b38 <l4688>:
    4b38:	00e5c551 	rsceq	ip, r5, r1, asr r5

00004b3c <l4689>:
    4b3c:	ea000000 	b	4b44 <l4691>

00004b40 <l4690>:
    4b40:	eafffffa 	b	4b30 <l4686>

00004b44 <l4691>:
    4b44:	e59fc000 	ldr	ip, [pc]	; 4b4c <l4693>

00004b48 <l4692>:
    4b48:	ea000000 	b	4b50 <l4694>

00004b4c <l4693>:
    4b4c:	000fffc0 	.word	0x000fffc0

00004b50 <l4694>:
    4b50:	214c9097 	swpbcs	r9, r7, [ip]

00004b54 <l4695>:
    4b54:	1013ba18 	andsne	fp, r3, r8, lsl sl

00004b58 <l4696>:
    4b58:	a2d01b2b 	sbcsge	r1, r0, #44032	; 0xac00

00004b5c <l4697>:
    4b5c:	50023852 	andpl	r3, r2, r2, asr r8

00004b60 <l4698>:
    4b60:	e59fc000 	ldr	ip, [pc]	; 4b68 <l4700>

00004b64 <l4699>:
    4b64:	ea000000 	b	4b6c <l4701>

00004b68 <l4700>:
    4b68:	000fffe0 	.word	0x000fffe0

00004b6c <l4701>:
    4b6c:	a10c209e 	swpge	r2, lr, [ip]

00004b70 <l4702>:
    4b70:	e3a04004 	mov	r4, #4

00004b74 <l4703>:
    4b74:	e68d7004 	str	r7, [sp], r4

00004b78 <l4704>:
    4b78:	e080b91a 	add	fp, r0, sl, lsl r9

00004b7c <l4705>:
    4b7c:	90789132 	rsbsls	r9, r8, r2, lsr r1

00004b80 <l4706>:
    4b80:	d15d33b2 	ldrhle	r3, [sp, #-50]	; 0xffffffce

00004b84 <l4707>:
    4b84:	3087e062 	addcc	lr, r7, r2, rrx

00004b88 <l4708>:
    4b88:	e15dc1f4 	ldrsh	ip, [sp, #-20]	; 0xffffffec

00004b8c <l4709>:
    4b8c:	e1f0c004 	mvns	ip, r4

00004b90 <l4710>:
    4b90:	e3cf5557 	bic	r5, pc, #364904448	; 0x15c00000

00004b94 <l4711>:
    4b94:	c0a66649 	adcgt	r6, r6, r9, asr #12

00004b98 <l4712>:
    4b98:	92852527 	addls	r2, r5, #163577856	; 0x9c00000

00004b9c <l4713>:
    4b9c:	3115091b 	tstcc	r5, fp, lsl r9

00004ba0 <l4714>:
    4ba0:	e08ce00e 	add	lr, ip, lr

00004ba4 <l4715>:
    4ba4:	e3a00012 	mov	r0, #18

00004ba8 <l4716>:
    4ba8:	775d6000 	ldrbvc	r6, [sp, -r0]

00004bac <l4717>:
    4bac:	e1a00000 	nop			; (mov r0, r0)

00004bb0 <l4718>:
    4bb0:	da000007 	ble	4bd4 <l4727>

00004bb4 <l4719>:
    4bb4:	e280102a 	add	r1, r0, #42	; 0x2a

00004bb8 <l4720>:
    4bb8:	d3f0669a 	mvnsle	r6, #161480704	; 0x9a00000

00004bbc <l4721>:
    4bbc:	e1e00655 	mvn	r0, r5, asr r6

00004bc0 <l4722>:
    4bc0:	b16f7f10 	clzlt	r7, r0

00004bc4 <l4723>:
    4bc4:	c3a0337e 	movgt	r3, #-134217727	; 0xf8000001

00004bc8 <l4724>:
    4bc8:	e356031d 	cmp	r6, #1946157056	; 0x74000000

00004bcc <l4725>:
    4bcc:	e187200a 	orr	r2, r7, sl

00004bd0 <l4726>:
    4bd0:	ea000000 	b	4bd8 <l4728>

00004bd4 <l4727>:
    4bd4:	eafffff7 	b	4bb8 <l4720>

00004bd8 <l4728>:
    4bd8:	2affffff 	bcs	4bdc <l4729>

00004bdc <l4729>:
    4bdc:	90737008 	rsbsls	r7, r3, r8

00004be0 <l4730>:
    4be0:	990d9118 	stmdbls	sp, {r3, r4, r8, ip, pc}

00004be4 <l4731>:
    4be4:	e3a02034 	mov	r2, #52	; 0x34

00004be8 <l4732>:
    4be8:	e71db002 	ldr	fp, [sp, -r2]

00004bec <l4733>:
    4bec:	e55d6027 	ldrb	r6, [sp, #-39]	; 0x27

00004bf0 <l4734>:
    4bf0:	3a000002 	bcc	4c00 <l4738>

00004bf4 <l4735>:
    4bf4:	e2801030 	add	r1, r0, #48	; 0x30

00004bf8 <l4736>:
    4bf8:	e0aa5005 	adc	r5, sl, r5

00004bfc <l4737>:
    4bfc:	ea000000 	b	4c04 <l4739>

00004c00 <l4738>:
    4c00:	eafffffc 	b	4bf8 <l4736>

00004c04 <l4739>:
    4c04:	e3a0c012 	mov	ip, #18

00004c08 <l4740>:
    4c08:	b10dc0bc 	strhlt	ip, [sp, -ip]

00004c0c <l4741>:
    4c0c:	b54de003 	strblt	lr, [sp, #-3]

00004c10 <l4742>:
    4c10:	e59f8000 	ldr	r8, [pc]	; 4c18 <l4744>

00004c14 <l4743>:
    4c14:	ea000000 	b	4c1c <l4745>

00004c18 <l4744>:
    4c18:	000fffd8 	.word	0x000fffd8

00004c1c <l4745>:
    4c1c:	e108e099 	swp	lr, r9, [r8]

00004c20 <l4746>:
    4c20:	015b0576 	cmpeq	fp, r6, ror r5

00004c24 <l4747>:
    4c24:	12467bd9 	subne	r7, r6, #222208	; 0x36400

00004c28 <l4748>:
    4c28:	e178000b 	cmn	r8, fp

00004c2c <l4749>:
    4c2c:	e3a0103c 	mov	r1, #60	; 0x3c

00004c30 <l4750>:
    4c30:	e10d70b1 	strh	r7, [sp, -r1]

00004c34 <l4751>:
    4c34:	d1190414 	tstle	r9, r4, lsl r4

00004c38 <l4752>:
    4c38:	81dd20b0 	ldrhhi	r2, [sp]

00004c3c <l4753>:
    4c3c:	e1f07005 	mvns	r7, r5

00004c40 <l4754>:
    4c40:	d5cd5002 	strble	r5, [sp, #2]

00004c44 <l4755>:
    4c44:	e0c78067 	sbc	r8, r7, r7, rrx

00004c48 <l4756>:
    4c48:	e3a0400a 	mov	r4, #10

00004c4c <l4757>:
    4c4c:	d11d00b4 	ldrhle	r0, [sp, -r4]

00004c50 <l4758>:
    4c50:	e188200c 	orr	r2, r8, ip

00004c54 <l4759>:
    4c54:	c1c2490e 	bicgt	r4, r2, lr, lsl #18

00004c58 <l4760>:
    4c58:	e3a0b019 	mov	fp, #25

00004c5c <l4761>:
    4c5c:	574db00b 	strbpl	fp, [sp, -fp]

00004c60 <l4762>:
    4c60:	20745000 	rsbscs	r5, r4, r0

00004c64 <l4763>:
    4c64:	e15d20be 	ldrh	r2, [sp, #-14]

00004c68 <l4764>:
    4c68:	30599005 	subscc	r9, r9, r5

00004c6c <l4765>:
    4c6c:	72408983 	subvc	r8, r0, #2146304	; 0x20c000

00004c70 <l4766>:
    4c70:	73780602 	cmnvc	r8, #2097152	; 0x200000

00004c74 <l4767>:
    4c74:	e2b5bd09 	adcs	fp, r5, #576	; 0x240

00004c78 <l4768>:
    4c78:	61dd00d2 	ldrsbvs	r0, [sp, #2]

00004c7c <l4769>:
    4c7c:	e40dc02c 	str	ip, [sp], #-44	; 0x2c

00004c80 <l4770>:
    4c80:	e93d0024 	ldmdb	sp!, {r2, r5}

00004c84 <l4771>:
    4c84:	e59f6000 	ldr	r6, [pc]	; 4c8c <l4773>

00004c88 <l4772>:
    4c88:	ea000000 	b	4c90 <l4774>

00004c8c <l4773>:
    4c8c:	000fffa8 	.word	0x000fffa8

00004c90 <l4774>:
    4c90:	e1465092 	swpb	r5, r2, [r6]

00004c94 <l4775>:
    4c94:	e3a08006 	mov	r8, #6

00004c98 <l4776>:
    4c98:	e10d80b8 	strh	r8, [sp, -r8]

00004c9c <l4777>:
    4c9c:	8067a006 	rsbhi	sl, r7, r6

00004ca0 <l4778>:
    4ca0:	c3f0af69 	mvnsgt	sl, #420	; 0x1a4

00004ca4 <l4779>:
    4ca4:	e3a01008 	mov	r1, #8

00004ca8 <l4780>:
    4ca8:	e18d90b1 	strh	r9, [sp, r1]

00004cac <l4781>:
    4cac:	c0a1000b 	adcgt	r0, r1, fp

00004cb0 <l4782>:
    4cb0:	1a000007 	bne	4cd4 <l4791>

00004cb4 <l4783>:
    4cb4:	e0401b62 	sub	r1, r0, r2, ror #22

00004cb8 <l4784>:
    4cb8:	e11e0007 	tst	lr, r7

00004cbc <l4785>:
    4cbc:	e1cc335c 	bic	r3, ip, ip, asr r3

00004cc0 <l4786>:
    4cc0:	e1df4008 	bics	r4, pc, r8

00004cc4 <l4787>:
    4cc4:	30418008 	subcc	r8, r1, r8

00004cc8 <l4788>:
    4cc8:	e1cbc070 	bic	ip, fp, r0, ror r0

00004ccc <l4789>:
    4ccc:	e1a0900e 	mov	r9, lr

00004cd0 <l4790>:
    4cd0:	40c07000 	sbcmi	r7, r0, r0

00004cd4 <l4791>:
    4cd4:	e1540060 	cmp	r4, r0, rrx

00004cd8 <l4792>:
    4cd8:	e1370f68 	teq	r7, r8, ror #30

00004cdc <l4793>:
    4cdc:	e59f2000 	ldr	r2, [pc]	; 4ce4 <l4795>

00004ce0 <l4794>:
    4ce0:	ea000000 	b	4ce8 <l4796>

00004ce4 <l4795>:
    4ce4:	000fffb4 	.word	0x000fffb4

00004ce8 <l4796>:
    4ce8:	41421091 	swpbmi	r1, r1, [r2]

00004cec <l4797>:
    4cec:	da000001 	ble	4cf8 <l4800>

00004cf0 <l4798>:
    4cf0:	e1e0c067 	mvn	ip, r7, rrx

00004cf4 <l4799>:
    4cf4:	5188a971 	orrpl	sl, r8, r1, ror r9

00004cf8 <l4800>:
    4cf8:	91a09069 	rrxls	r9, r9

00004cfc <l4801>:
    4cfc:	b01a906a 	andslt	r9, sl, sl, rrx

00004d00 <l4802>:
    4d00:	802fa00e 	eorhi	sl, pc, lr

00004d04 <l4803>:
    4d04:	3a000002 	bcc	4d14 <l4807>

00004d08 <l4804>:
    4d08:	b04f9d8b 	sublt	r9, pc, fp, lsl #27

00004d0c <l4805>:
    4d0c:	41180008 	tstmi	r8, r8

00004d10 <l4806>:
    4d10:	93a089c3 	movls	r8, #3194880	; 0x30c000

00004d14 <l4807>:
    4d14:	a0fac06b 	rscsge	ip, sl, fp, rrx

00004d18 <l4808>:
    4d18:	e1540210 	cmp	r4, r0, lsl r2

00004d1c <l4809>:
    4d1c:	218b8007 	orrcs	r8, fp, r7

00004d20 <l4810>:
    4d20:	313c0e7b 	teqcc	ip, fp, ror lr

00004d24 <l4811>:
    4d24:	60fb8002 	rscsvs	r8, fp, r2

00004d28 <l4812>:
    4d28:	e3a03028 	mov	r3, #40	; 0x28

00004d2c <l4813>:
    4d2c:	e7dd6003 	ldrb	r6, [sp, r3]

00004d30 <l4814>:
    4d30:	e1a00000 	nop			; (mov r0, r0)

00004d34 <l4815>:
    4d34:	31120978 	tstcc	r2, r8, ror r9

00004d38 <l4816>:
    4d38:	e59f9000 	ldr	r9, [pc]	; 4d40 <l4818>

00004d3c <l4817>:
    4d3c:	ea000000 	b	4d44 <l4819>

00004d40 <l4818>:
    4d40:	000fffd4 	.word	0x000fffd4

00004d44 <l4819>:
    4d44:	e109709c 	swp	r7, ip, [r9]

00004d48 <l4820>:
    4d48:	e59fe000 	ldr	lr, [pc]	; 4d50 <l4822>

00004d4c <l4821>:
    4d4c:	ea000000 	b	4d54 <l4823>

00004d50 <l4822>:
    4d50:	000fffd8 	.word	0x000fffd8

00004d54 <l4823>:
    4d54:	b14eb09c 	swpblt	fp, ip, [lr]

00004d58 <l4824>:
    4d58:	e17a0069 	cmn	sl, r9, rrx

00004d5c <l4825>:
    4d5c:	e1a00000 	nop			; (mov r0, r0)

00004d60 <l4826>:
    4d60:	e3a06028 	mov	r6, #40	; 0x28

00004d64 <l4827>:
    4d64:	c7cdb006 	strbgt	fp, [sp, r6]

00004d68 <l4828>:
    4d68:	e59f3000 	ldr	r3, [pc]	; 4d70 <l4830>

00004d6c <l4829>:
    4d6c:	ea000000 	b	4d74 <l4831>

00004d70 <l4830>:
    4d70:	000fffe8 	.word	0x000fffe8

00004d74 <l4831>:
    4d74:	7103c09a 	swpvc	ip, sl, [r3]

00004d78 <l4832>:
    4d78:	93d8bc5d 	bicsls	fp, r8, #23808	; 0x5d00

00004d7c <l4833>:
    4d7c:	e3a09036 	mov	r9, #54	; 0x36

00004d80 <l4834>:
    4d80:	b19da0b9 	ldrhlt	sl, [sp, r9]

00004d84 <l4835>:
    4d84:	e3790122 	cmn	r9, #-2147483640	; 0x80000008

00004d88 <l4836>:
    4d88:	e3a07002 	mov	r7, #2

00004d8c <l4837>:
    4d8c:	87cd6007 	strbhi	r6, [sp, r7]

00004d90 <l4838>:
    4d90:	e007a008 	and	sl, r7, r8

00004d94 <l4839>:
    4d94:	51b02304 	lslspl	r2, r4, #6

00004d98 <l4840>:
    4d98:	e16f7f12 	clz	r7, r2

00004d9c <l4841>:
    4d9c:	e59f9000 	ldr	r9, [pc]	; 4da4 <l4843>

00004da0 <l4842>:
    4da0:	ea000000 	b	4da8 <l4844>

00004da4 <l4843>:
    4da4:	000fffa8 	.word	0x000fffa8

00004da8 <l4844>:
    4da8:	9109009b 	swpls	r0, fp, [r9]

00004dac <l4845>:
    4dac:	1a000000 	bne	4db4 <l4847>

00004db0 <l4846>:
    4db0:	6091600a 	addsvs	r6, r1, sl

00004db4 <l4847>:
    4db4:	e3c4c067 	bic	ip, r4, #103	; 0x67

00004db8 <l4848>:
    4db8:	e1180dae 	tst	r8, lr, lsr #27

00004dbc <l4849>:
    4dbc:	90c2e001 	sbcls	lr, r2, r1

00004dc0 <l4850>:
    4dc0:	e00395e0 	and	r9, r3, r0, ror #11

00004dc4 <l4851>:
    4dc4:	e0902002 	adds	r2, r0, r2

00004dc8 <l4852>:
    4dc8:	e1750442 	cmn	r5, r2, asr #8

00004dcc <l4853>:
    4dcc:	e1f03009 	mvns	r3, r9

00004dd0 <l4854>:
    4dd0:	e1e04067 	mvn	r4, r7, rrx

00004dd4 <l4855>:
    4dd4:	c88d0051 	stmgt	sp, {r0, r4, r6}

00004dd8 <l4856>:
    4dd8:	b5ddb03b 	ldrblt	fp, [sp, #59]	; 0x3b

00004ddc <l4857>:
    4ddc:	e59fa000 	ldr	sl, [pc]	; 4de4 <l4859>

00004de0 <l4858>:
    4de0:	ea000000 	b	4de8 <l4860>

00004de4 <l4859>:
    4de4:	000fffe4 	.word	0x000fffe4

00004de8 <l4860>:
    4de8:	810a009e 	swphi	r0, lr, [sl]

00004dec <l4861>:
    4dec:	e5bd2010 	ldr	r2, [sp, #16]!

00004df0 <l4862>:
    4df0:	416f9f1c 	clzmi	r9, ip

00004df4 <l4863>:
    4df4:	ba000004 	blt	4e0c <l4869>

00004df8 <l4864>:
    4df8:	e1a09819 	lsl	r9, r9, r8

00004dfc <l4865>:
    4dfc:	61740008 	cmnvs	r4, r8

00004e00 <l4866>:
    4e00:	92600b82 	rsbls	r0, r0, #133120	; 0x20800

00004e04 <l4867>:
    4e04:	e13e0b44 	teq	lr, r4, asr #22

00004e08 <l4868>:
    4e08:	91130000 	tstls	r3, r0

00004e0c <l4869>:
    4e0c:	e16f6f11 	clz	r6, r1

00004e10 <l4870>:
    4e10:	e5dd5029 	ldrb	r5, [sp, #41]	; 0x29

00004e14 <l4871>:
    4e14:	e3a0b010 	mov	fp, #16

00004e18 <l4872>:
    4e18:	e7adc00b 	str	ip, [sp, fp]!

00004e1c <l4873>:
    4e1c:	91958006 	orrsls	r8, r5, r6

00004e20 <l4874>:
    4e20:	c04b1079 	subgt	r1, fp, r9, ror r0

00004e24 <l4875>:
    4e24:	e59f1000 	ldr	r1, [pc]	; 4e2c <l4877>

00004e28 <l4876>:
    4e28:	ea000000 	b	4e30 <l4878>

00004e2c <l4877>:
    4e2c:	000fffd4 	.word	0x000fffd4

00004e30 <l4878>:
    4e30:	61417097 	swpbvs	r7, r7, [r1]

00004e34 <l4879>:
    4e34:	b0dae005 	sbcslt	lr, sl, r5

00004e38 <l4880>:
    4e38:	e3a0200b 	mov	r2, #11

00004e3c <l4881>:
    4e3c:	e11d60d2 	ldrsb	r6, [sp, -r2]

00004e40 <l4882>:
    4e40:	ea000002 	b	4e50 <l4886>

00004e44 <l4883>:
    4e44:	e280102e 	add	r1, r0, #46	; 0x2e

00004e48 <l4884>:
    4e48:	216fef13 	clzcs	lr, r3

00004e4c <l4885>:
    4e4c:	ea000000 	b	4e54 <l4887>

00004e50 <l4886>:
    4e50:	eafffffc 	b	4e48 <l4884>

00004e54 <l4887>:
    4e54:	e13e0a3e 	teq	lr, lr, lsr sl

00004e58 <l4888>:
    4e58:	e59f4000 	ldr	r4, [pc]	; 4e60 <l4890>

00004e5c <l4889>:
    4e5c:	ea000000 	b	4e64 <l4891>

00004e60 <l4890>:
    4e60:	000fffc8 	.word	0x000fffc8

00004e64 <l4891>:
    4e64:	9104a09b 	swpls	sl, fp, [r4]

00004e68 <l4892>:
    4e68:	e1720065 	cmn	r2, r5, rrx

00004e6c <l4893>:
    4e6c:	e07b6cca 	rsbs	r6, fp, sl, asr #25

00004e70 <l4894>:
    4e70:	63df6014 	bicsvs	r6, pc, #20

00004e74 <l4895>:
    4e74:	71a0c006 	movvc	ip, r6

00004e78 <l4896>:
    4e78:	e1100909 	tst	r0, r9, lsl #18

00004e7c <l4897>:
    4e7c:	e59f1000 	ldr	r1, [pc]	; 4e84 <l4899>

00004e80 <l4898>:
    4e80:	ea000000 	b	4e88 <l4900>

00004e84 <l4899>:
    4e84:	000fffe8 	.word	0x000fffe8

00004e88 <l4900>:
    4e88:	a1014098 	swpge	r4, r8, [r1]

00004e8c <l4901>:
    4e8c:	407c5ca1 	rsbsmi	r5, ip, r1, lsr #25

00004e90 <l4902>:
    4e90:	e3a01002 	mov	r1, #2

00004e94 <l4903>:
    4e94:	e10d30b1 	strh	r3, [sp, -r1]

00004e98 <l4904>:
    4e98:	72eb511f 	rscvc	r5, fp, #-1073741817	; 0xc0000007

00004e9c <l4905>:
    4e9c:	e59f4000 	ldr	r4, [pc]	; 4ea4 <l4907>

00004ea0 <l4906>:
    4ea0:	ea000000 	b	4ea8 <l4908>

00004ea4 <l4907>:
    4ea4:	000fffd8 	.word	0x000fffd8

00004ea8 <l4908>:
    4ea8:	e144c091 	swpb	ip, r1, [r4]

00004eac <l4909>:
    4eac:	513a0017 	teqpl	sl, r7, lsl r0

00004eb0 <l4910>:
    4eb0:	e29bcd0d 	adds	ip, fp, #832	; 0x340

00004eb4 <l4911>:
    4eb4:	937101ed 	cmnls	r1, #1073741883	; 0x4000003b

00004eb8 <l4912>:
    4eb8:	81dd21bc 	ldrhhi	r2, [sp, #28]

00004ebc <l4913>:
    4ebc:	1391ccd7 	orrsne	ip, r1, #55040	; 0xd700

00004ec0 <l4914>:
    4ec0:	e9ad5468 	stmib	sp!, {r3, r5, r6, sl, ip, lr}

00004ec4 <l4915>:
    4ec4:	525e6084 	subspl	r6, lr, #132	; 0x84

00004ec8 <l4916>:
    4ec8:	e3a0c007 	mov	ip, #7

00004ecc <l4917>:
    4ecc:	319d80dc 	ldrsbcc	r8, [sp, ip]

00004ed0 <l4918>:
    4ed0:	e0f00067 	rscs	r0, r0, r7, rrx

00004ed4 <l4919>:
    4ed4:	e92d8000 	stmfd	sp!, {pc}

00004ed8 <l4920>:
    4ed8:	61908c55 	orrsvs	r8, r0, r5, asr ip

00004edc <l4921>:
    4edc:	81c18065 	bichi	r8, r1, r5, rrx

00004ee0 <l4922>:
    4ee0:	ea000006 	b	4f00 <l4930>

00004ee4 <l4923>:
    4ee4:	e280103a 	add	r1, r0, #58	; 0x3a

00004ee8 <l4924>:
    4ee8:	22e0c80a 	rsccs	ip, r0, #655360	; 0xa0000

00004eec <l4925>:
    4eec:	e16fbf1b 	clz	fp, fp

00004ef0 <l4926>:
    4ef0:	e1510005 	cmp	r1, r5

00004ef4 <l4927>:
    4ef4:	80ce7756 	sbchi	r7, lr, r6, asr r7

00004ef8 <l4928>:
    4ef8:	d086e06f 	addle	lr, r6, pc, rrx

00004efc <l4929>:
    4efc:	ea000000 	b	4f04 <l4931>

00004f00 <l4930>:
    4f00:	eafffff8 	b	4ee8 <l4924>

00004f04 <l4931>:
    4f04:	e15d73f8 	ldrsh	r7, [sp, #-56]	; 0xffffffc8

00004f08 <l4932>:
    4f08:	e3a02008 	mov	r2, #8

00004f0c <l4933>:
    4f0c:	711de0d2 	ldrsbvc	lr, [sp, -r2]

00004f10 <l4934>:
    4f10:	30179009 	andscc	r9, r7, r9

00004f14 <l4935>:
    4f14:	41951370 	orrsmi	r1, r5, r0, ror r3

00004f18 <l4936>:
    4f18:	e15d13b8 	ldrh	r1, [sp, #-56]	; 0xffffffc8

00004f1c <l4937>:
    4f1c:	200b900e 	andcs	r9, fp, lr

00004f20 <l4938>:
    4f20:	e80d1100 	stmda	sp, {r8, ip}

00004f24 <l4939>:
    4f24:	8a000004 	bhi	4f3c <l4945>

00004f28 <l4940>:
    4f28:	e2801052 	add	r1, r0, #82	; 0x52

00004f2c <l4941>:
    4f2c:	416f3f15 	clzmi	r3, r5

00004f30 <l4942>:
    4f30:	72ff77ba 	rscsvc	r7, pc, #48758784	; 0x2e80000

00004f34 <l4943>:
    4f34:	618a500b 	orrvs	r5, sl, fp

00004f38 <l4944>:
    4f38:	ea000000 	b	4f40 <l4946>

00004f3c <l4945>:
    4f3c:	eafffffa 	b	4f2c <l4941>

00004f40 <l4946>:
    4f40:	6117087a 	tstvs	r7, sl, ror r8

00004f44 <l4947>:
    4f44:	e00f2503 	and	r2, pc, r3, lsl #10

00004f48 <l4948>:
    4f48:	d118006b 	tstle	r8, fp, rrx

00004f4c <l4949>:
    4f4c:	9158000f 	cmpls	r8, pc

00004f50 <l4950>:
    4f50:	ca000002 	bgt	4f60 <l4954>

00004f54 <l4951>:
    4f54:	e28010ae 	add	r1, r0, #174	; 0xae

00004f58 <l4952>:
    4f58:	e13103cf 	teq	r1, pc, asr #7

00004f5c <l4953>:
    4f5c:	ea000000 	b	4f64 <l4955>

00004f60 <l4954>:
    4f60:	eafffffc 	b	4f58 <l4952>

00004f64 <l4955>:
    4f64:	5054c005 	subspl	ip, r4, r5

00004f68 <l4956>:
    4f68:	515d90b8 	ldrhpl	r9, [sp, #-8]

00004f6c <l4957>:
    4f6c:	e0ae0003 	adc	r0, lr, r3

00004f70 <l4958>:
    4f70:	815d02da 	ldrsbhi	r0, [sp, #-42]	; 0xffffffd6

00004f74 <l4959>:
    4f74:	ea000001 	b	4f80 <l4962>

00004f78 <l4960>:
    4f78:	535e0555 	cmppl	lr, #356515840	; 0x15400000

00004f7c <l4961>:
    4f7c:	e04cc00f 	sub	ip, ip, pc

00004f80 <l4962>:
    4f80:	50ce6007 	sbcpl	r6, lr, r7

00004f84 <l4963>:
    4f84:	215d32d0 	ldrsbcs	r3, [sp, #-32]	; 0xffffffe0

00004f88 <l4964>:
    4f88:	c3b07827 	movsgt	r7, #2555904	; 0x270000

00004f8c <l4965>:
    4f8c:	e59f4000 	ldr	r4, [pc]	; 4f94 <l4967>

00004f90 <l4966>:
    4f90:	ea000000 	b	4f98 <l4968>

00004f94 <l4967>:
    4f94:	000fffe4 	.word	0x000fffe4

00004f98 <l4968>:
    4f98:	7104809b 	swpvc	r8, fp, [r4]

00004f9c <l4969>:
    4f9c:	e0770001 	rsbs	r0, r7, r1

00004fa0 <l4970>:
    4fa0:	e59fa000 	ldr	sl, [pc]	; 4fa8 <l4972>

00004fa4 <l4971>:
    4fa4:	ea000000 	b	4fac <l4973>

00004fa8 <l4972>:
    4fa8:	000fffa0 	.word	0x000fffa0

00004fac <l4973>:
    4fac:	214a8091 	swpbcs	r8, r1, [sl]

00004fb0 <l4974>:
    4fb0:	e185ada9 	orr	sl, r5, r9, lsr #27

00004fb4 <l4975>:
    4fb4:	e11e0063 	tst	lr, r3, rrx

00004fb8 <l4976>:
    4fb8:	e1310774 	teq	r1, r4, ror r7

00004fbc <l4977>:
    4fbc:	4a000002 	bmi	4fcc <l4981>

00004fc0 <l4978>:
    4fc0:	e28010ff 	add	r1, r0, #255	; 0xff

00004fc4 <l4979>:
    4fc4:	b31f0111 	tstlt	pc, #1073741828	; 0x40000004

00004fc8 <l4980>:
    4fc8:	ea000000 	b	4fd0 <l4982>

00004fcc <l4981>:
    4fcc:	eafffffc 	b	4fc4 <l4979>

00004fd0 <l4982>:
    4fd0:	e1c71005 	bic	r1, r7, r5

00004fd4 <l4983>:
    4fd4:	e3a0b03c 	mov	fp, #60	; 0x3c

00004fd8 <l4984>:
    4fd8:	e70d200b 	str	r2, [sp, -fp]

00004fdc <l4985>:
    4fdc:	e0f6a083 	rscs	sl, r6, r3, lsl #1

00004fe0 <l4986>:
    4fe0:	da000007 	ble	5004 <l4995>

00004fe4 <l4987>:
    4fe4:	e37c030b 	cmn	ip, #738197504	; 0x2c000000

00004fe8 <l4988>:
    4fe8:	00c7e00c 	sbceq	lr, r7, ip

00004fec <l4989>:
    4fec:	616fbf19 	clzvs	fp, r9

00004ff0 <l4990>:
    4ff0:	2077500c 	rsbscs	r5, r7, ip

00004ff4 <l4991>:
    4ff4:	e0c54133 	sbc	r4, r5, r3, lsr r1

00004ff8 <l4992>:
    4ff8:	e1e0e008 	mvn	lr, r8

00004ffc <l4993>:
    4ffc:	835305ce 	cmphi	r3, #864026624	; 0x33800000

00005000 <l4994>:
    5000:	81340005 	teqhi	r4, r5

00005004 <l4995>:
    5004:	41580fc9 	cmpmi	r8, r9, asr #31

00005008 <l4996>:
    5008:	e16fcf1b 	clz	ip, fp

0000500c <l4997>:
    500c:	206ab5e3 	rsbcs	fp, sl, r3, ror #11

00005010 <l4998>:
    5010:	4a000008 	bmi	5038 <l5008>

00005014 <l4999>:
    5014:	e00a0f0b 	and	r0, sl, fp, lsl #30

00005018 <l5000>:
    5018:	32b6553f 	adcscc	r5, r6, #264241152	; 0xfc00000

0000501c <l5001>:
    501c:	a0311553 	eorsge	r1, r1, r3, asr r5

00005020 <l5002>:
    5020:	3054778c 	subscc	r7, r4, ip, lsl #15

00005024 <l5003>:
    5024:	a1190007 	tstge	r9, r7

00005028 <l5004>:
    5028:	e27743eb 	rsbs	r4, r7, #-1409286141	; 0xac000003

0000502c <l5005>:
    502c:	70cb005c 	sbcvc	r0, fp, ip, asr r0

00005030 <l5006>:
    5030:	21f00008 	mvnscs	r0, r8

00005034 <l5007>:
    5034:	315e0061 	cmpcc	lr, r1, rrx

00005038 <l5008>:
    5038:	e182aa7e 	orr	sl, r2, lr, ror sl

0000503c <l5009>:
    503c:	e59f7000 	ldr	r7, [pc]	; 5044 <l5011>

00005040 <l5010>:
    5040:	ea000000 	b	5048 <l5012>

00005044 <l5011>:
    5044:	000fffe8 	.word	0x000fffe8

00005048 <l5012>:
    5048:	e147a093 	swpb	sl, r3, [r7]

0000504c <l5013>:
    504c:	ea000005 	b	5068 <l5020>

00005050 <l5014>:
    5050:	e3770a37 	cmn	r7, #225280	; 0x37000

00005054 <l5015>:
    5054:	e1d4ee5b 	bics	lr, r4, fp, asr lr

00005058 <l5016>:
    5058:	e3e05b56 	mvn	r5, #88064	; 0x15800

0000505c <l5017>:
    505c:	407c4433 	rsbsmi	r4, ip, r3, lsr r4

00005060 <l5018>:
    5060:	00bae23a 	adcseq	lr, sl, sl, lsr r2

00005064 <l5019>:
    5064:	e1c46e19 	bic	r6, r4, r9, lsl lr

00005068 <l5020>:
    5068:	c3f036d6 	mvnsgt	r3, #224395264	; 0xd600000

0000506c <l5021>:
    506c:	e1180c11 	tst	r8, r1, lsl ip

00005070 <l5022>:
    5070:	615d32d5 	ldrsbvs	r3, [sp, #-37]	; 0xffffffdb

00005074 <l5023>:
    5074:	e59f6000 	ldr	r6, [pc]	; 507c <l5025>

00005078 <l5024>:
    5078:	ea000000 	b	5080 <l5026>

0000507c <l5025>:
    507c:	000fffc0 	.word	0x000fffc0

00005080 <l5026>:
    5080:	e106909e 	swp	r9, lr, [r6]

00005084 <l5027>:
    5084:	e3a0c02e 	mov	ip, #46	; 0x2e

00005088 <l5028>:
    5088:	e11d40dc 	ldrsb	r4, [sp, -ip]

0000508c <l5029>:
    508c:	e55d600d 	ldrb	r6, [sp, #-13]

00005090 <l5030>:
    5090:	61dd50fc 	ldrshvs	r5, [sp, #12]

00005094 <l5031>:
    5094:	c019000b 	andsgt	r0, r9, fp

00005098 <l5032>:
    5098:	ba000002 	blt	50a8 <l5036>

0000509c <l5033>:
    509c:	e0ee5733 	rsc	r5, lr, r3, lsr r7

000050a0 <l5034>:
    50a0:	d045100a 	suble	r1, r5, sl

000050a4 <l5035>:
    50a4:	716f7f1a 	clzvc	r7, sl

000050a8 <l5036>:
    50a8:	8295458d 	addshi	r4, r5, #591396864	; 0x23400000

000050ac <l5037>:
    50ac:	e3a01000 	mov	r1, #0

000050b0 <l5038>:
    50b0:	e7bd8001 	ldr	r8, [sp, r1]!

000050b4 <l5039>:
    50b4:	e3a0c016 	mov	ip, #22

000050b8 <l5040>:
    50b8:	011d30fc 	ldrsheq	r3, [sp, -ip]

000050bc <l5041>:
    50bc:	e3a03000 	mov	r3, #0

000050c0 <l5042>:
    50c0:	e7dd4003 	ldrb	r4, [sp, r3]

000050c4 <l5043>:
    50c4:	e59f3000 	ldr	r3, [pc]	; 50cc <l5045>

000050c8 <l5044>:
    50c8:	ea000000 	b	50d0 <l5046>

000050cc <l5045>:
    50cc:	000fffac 	.word	0x000fffac

000050d0 <l5046>:
    50d0:	e1037094 	swp	r7, r4, [r3]

000050d4 <l5047>:
    50d4:	e59f1000 	ldr	r1, [pc]	; 50dc <l5049>

000050d8 <l5048>:
    50d8:	ea000000 	b	50e0 <l5050>

000050dc <l5049>:
    50dc:	000fffcc 	.word	0x000fffcc

000050e0 <l5050>:
    50e0:	c101c093 	swpgt	ip, r3, [r1]

000050e4 <l5051>:
    50e4:	017e0000 	cmneq	lr, r0

000050e8 <l5052>:
    50e8:	e59fe000 	ldr	lr, [pc]	; 50f0 <l5054>

000050ec <l5053>:
    50ec:	ea000000 	b	50f4 <l5055>

000050f0 <l5054>:
    50f0:	000fffb0 	.word	0x000fffb0

000050f4 <l5055>:
    50f4:	e14e9090 	swpb	r9, r0, [lr]

000050f8 <l5056>:
    50f8:	e1360068 	teq	r6, r8, rrx

000050fc <l5057>:
    50fc:	e03e1068 	eors	r1, lr, r8, rrx

00005100 <l5058>:
    5100:	e3a0100a 	mov	r1, #10

00005104 <l5059>:
    5104:	510d00b1 	strhpl	r0, [sp, -r1]

00005108 <l5060>:
    5108:	e0e86c68 	rsc	r6, r8, r8, ror #24

0000510c <l5061>:
    510c:	e59fb000 	ldr	fp, [pc]	; 5114 <l5063>

00005110 <l5062>:
    5110:	ea000000 	b	5118 <l5064>

00005114 <l5063>:
    5114:	000fffe8 	.word	0x000fffe8

00005118 <l5064>:
    5118:	814b3099 	swpbhi	r3, r9, [fp]

0000511c <l5065>:
    511c:	e0381003 	eors	r1, r8, r3

00005120 <l5066>:
    5120:	754d7009 	strbvc	r7, [sp, #-9]

00005124 <l5067>:
    5124:	e1b07b10 	lsls	r7, r0, fp

00005128 <l5068>:
    5128:	e3a0a003 	mov	sl, #3

0000512c <l5069>:
    512c:	a11d50da 	ldrsbge	r5, [sp, -sl]

00005130 <l5070>:
    5130:	e52dc018 	str	ip, [sp, #-24]!

00005134 <l5071>:
    5134:	23750bbb 	cmncs	r5, #191488	; 0x2ec00

00005138 <l5072>:
    5138:	e1390d67 	teq	r9, r7, ror #26

0000513c <l5073>:
    513c:	e59f5000 	ldr	r5, [pc]	; 5144 <l5075>

00005140 <l5074>:
    5140:	ea000000 	b	5148 <l5076>

00005144 <l5075>:
    5144:	000fffb8 	.word	0x000fffb8

00005148 <l5076>:
    5148:	a105e09a 	swpge	lr, sl, [r5]

0000514c <l5077>:
    514c:	e07b6087 	rsbs	r6, fp, r7, lsl #1

00005150 <l5078>:
    5150:	e55d1018 	ldrb	r1, [sp, #-24]

00005154 <l5079>:
    5154:	e31b012f 	tst	fp, #-1073741813	; 0xc000000b

00005158 <l5080>:
    5158:	416f1f1c 	clzmi	r1, ip

0000515c <l5081>:
    515c:	9194006a 	orrsls	r0, r4, sl, rrx

00005160 <l5082>:
    5160:	626b1a2d 	rsbvs	r1, fp, #184320	; 0x2d000

00005164 <l5083>:
    5164:	e3a0201a 	mov	r2, #26

00005168 <l5084>:
    5168:	e18de0b2 	strh	lr, [sp, r2]

0000516c <l5085>:
    516c:	c1580558 	cmpgt	r8, r8, asr r5

00005170 <l5086>:
    5170:	e3a0b018 	mov	fp, #24

00005174 <l5087>:
    5174:	e60dc00b 	str	ip, [sp], -fp

00005178 <l5088>:
    5178:	e3e07b12 	mvn	r7, #18432	; 0x4800

0000517c <l5089>:
    517c:	b0220a52 	eorlt	r0, r2, r2, asr sl

00005180 <l5090>:
    5180:	23730d47 	cmncs	r3, #4544	; 0x11c0

00005184 <l5091>:
    5184:	e1cd33ba 	strh	r3, [sp, #58]	; 0x3a

00005188 <l5092>:
    5188:	91ddb2fe 	ldrshls	fp, [sp, #46]	; 0x2e

0000518c <l5093>:
    518c:	6a000007 	bvs	51b0 <l5102>

00005190 <l5094>:
    5190:	e280109b 	add	r1, r0, #155	; 0x9b

00005194 <l5095>:
    5194:	11f0e004 	mvnsne	lr, r4

00005198 <l5096>:
    5198:	919f7007 	orrsls	r7, pc, r7

0000519c <l5097>:
    519c:	01d51435 	bicseq	r1, r5, r5, lsr r4

000051a0 <l5098>:
    51a0:	b1f0e005 	mvnslt	lr, r5

000051a4 <l5099>:
    51a4:	e0e3e80a 	rsc	lr, r3, sl, lsl #16

000051a8 <l5100>:
    51a8:	d0e94006 	rscle	r4, r9, r6

000051ac <l5101>:
    51ac:	ea000000 	b	51b4 <l5103>

000051b0 <l5102>:
    51b0:	eafffff7 	b	5194 <l5095>

000051b4 <l5103>:
    51b4:	e5adc008 	str	ip, [sp, #8]!

000051b8 <l5104>:
    51b8:	82883722 	addhi	r3, r8, #8912896	; 0x880000

000051bc <l5105>:
    51bc:	e3a0b034 	mov	fp, #52	; 0x34

000051c0 <l5106>:
    51c0:	e18d70bb 	strh	r7, [sp, fp]

000051c4 <l5107>:
    51c4:	91a0c27a 	rorls	ip, sl, r2

000051c8 <l5108>:
    51c8:	60d59778 	sbcsvs	r9, r5, r8, ror r7

000051cc <l5109>:
    51cc:	41b05a07 	lslsmi	r5, r7, #20

000051d0 <l5110>:
    51d0:	91cd01b0 	strhls	r0, [sp, #16]

000051d4 <l5111>:
    51d4:	e3a00004 	mov	r0, #4

000051d8 <l5112>:
    51d8:	c18d50b0 	strhgt	r5, [sp, r0]

000051dc <l5113>:
    51dc:	51510001 	cmppl	r1, r1

000051e0 <l5114>:
    51e0:	8affffff 	bhi	51e4 <l5115>

000051e4 <l5115>:
    51e4:	22d7b506 	sbcscs	fp, r7, #25165824	; 0x1800000

000051e8 <l5116>:
    51e8:	70e3000f 	rscvc	r0, r3, pc

000051ec <l5117>:
    51ec:	b25e727e 	subslt	r7, lr, #-536870905	; 0xe0000007

000051f0 <l5118>:
    51f0:	30bf200b 	adcscc	r2, pc, fp

000051f4 <l5119>:
    51f4:	e3a0201a 	mov	r2, #26

000051f8 <l5120>:
    51f8:	e19d50f2 	ldrsh	r5, [sp, r2]

000051fc <l5121>:
    51fc:	715a091c 	cmpvc	sl, ip, lsl r9

00005200 <l5122>:
    5200:	e081cba1 	add	ip, r1, r1, lsr #23

00005204 <l5123>:
    5204:	e1811068 	orr	r1, r1, r8, rrx

00005208 <l5124>:
    5208:	e3a00017 	mov	r0, #23

0000520c <l5125>:
    520c:	219d20d0 	ldrsbcs	r2, [sp, r0]

00005210 <l5126>:
    5210:	12e58aad 	rscne	r8, r5, #708608	; 0xad000

00005214 <l5127>:
    5214:	e5ada034 	str	sl, [sp, #52]!	; 0x34

00005218 <l5128>:
    5218:	e1c15e13 	bic	r5, r1, r3, lsl lr

0000521c <l5129>:
    521c:	435c014a 	cmpmi	ip, #-2147483630	; 0x80000012

00005220 <l5130>:
    5220:	02502165 	subseq	r2, r0, #1073741849	; 0x40000019

00005224 <l5131>:
    5224:	6297bc61 	addsvs	fp, r7, #24832	; 0x6100

00005228 <l5132>:
    5228:	60318006 	eorsvs	r8, r1, r6

0000522c <l5133>:
    522c:	e00aa06c 	and	sl, sl, ip, rrx

00005230 <l5134>:
    5230:	e11708c6 	tst	r7, r6, asr #17

00005234 <l5135>:
    5234:	e15de1f4 	ldrsh	lr, [sp, #-20]	; 0xffffffec

00005238 <l5136>:
    5238:	e16f7f14 	clz	r7, r4

0000523c <l5137>:
    523c:	30976466 	addscc	r6, r7, r6, ror #8

00005240 <l5138>:
    5240:	ea000003 	b	5254 <l5143>

00005244 <l5139>:
    5244:	e28010d5 	add	r1, r0, #213	; 0xd5

00005248 <l5140>:
    5248:	40d7aa81 	sbcsmi	sl, r7, r1, lsl #21

0000524c <l5141>:
    524c:	b1b0b071 	rorslt	fp, r1, r0

00005250 <l5142>:
    5250:	ea000000 	b	5258 <l5144>

00005254 <l5143>:
    5254:	eafffffb 	b	5248 <l5140>

00005258 <l5144>:
    5258:	91879714 	orrls	r9, r7, r4, lsl r7

0000525c <l5145>:
    525c:	e1a00000 	nop			; (mov r0, r0)

00005260 <l5146>:
    5260:	315d31b2 	ldrhcc	r3, [sp, #-18]	; 0xffffffee

00005264 <l5147>:
    5264:	40a31b3e 	adcmi	r1, r3, lr, lsr fp

00005268 <l5148>:
    5268:	833001fa 	teqhi	r0, #-2147483586	; 0x8000003e

0000526c <l5149>:
    526c:	b1f0c014 	mvnslt	ip, r4, lsl r0

00005270 <l5150>:
    5270:	e3a01040 	mov	r1, #64	; 0x40

00005274 <l5151>:
    5274:	e60df001 	str	pc, [sp], -r1

00005278 <l5152>:
    5278:	e05b2002 	subs	r2, fp, r2

0000527c <l5153>:
    527c:	2200cafd 	andcs	ip, r0, #1036288	; 0xfd000

00005280 <l5154>:
    5280:	c13e015e 	teqgt	lr, lr, asr r1

00005284 <l5155>:
    5284:	1031941e 	eorsne	r9, r1, lr, lsl r4

00005288 <l5156>:
    5288:	e04be009 	sub	lr, fp, r9

0000528c <l5157>:
    528c:	e1a00000 	nop			; (mov r0, r0)

00005290 <l5158>:
    5290:	e3a0401a 	mov	r4, #26

00005294 <l5159>:
    5294:	e19d20f4 	ldrsh	r2, [sp, r4]

00005298 <l5160>:
    5298:	ea000004 	b	52b0 <l5166>

0000529c <l5161>:
    529c:	e2801079 	add	r1, r0, #121	; 0x79

000052a0 <l5162>:
    52a0:	c19bac89 	orrsgt	sl, fp, r9, lsl #25

000052a4 <l5163>:
    52a4:	816f2f1b 	clzhi	r2, fp

000052a8 <l5164>:
    52a8:	e1190004 	tst	r9, r4

000052ac <l5165>:
    52ac:	ea000000 	b	52b4 <l5167>

000052b0 <l5166>:
    52b0:	eafffffa 	b	52a0 <l5162>

000052b4 <l5167>:
    52b4:	e59f5000 	ldr	r5, [pc]	; 52bc <l5169>

000052b8 <l5168>:
    52b8:	ea000000 	b	52c0 <l5170>

000052bc <l5169>:
    52bc:	000fffe0 	.word	0x000fffe0

000052c0 <l5170>:
    52c0:	a1056092 	swpge	r6, r2, [r5]

000052c4 <l5171>:
    52c4:	e3a0100f 	mov	r1, #15

000052c8 <l5172>:
    52c8:	b19d20d1 	ldrsblt	r2, [sp, r1]

000052cc <l5173>:
    52cc:	3a000007 	bcc	52f0 <l5182>

000052d0 <l5174>:
    52d0:	e1540b5e 	cmp	r4, lr, asr fp

000052d4 <l5175>:
    52d4:	53730816 	cmnpl	r3, #1441792	; 0x160000

000052d8 <l5176>:
    52d8:	b0661a39 	rsblt	r1, r6, r9, lsr sl

000052dc <l5177>:
    52dc:	9155000b 	cmpls	r5, fp

000052e0 <l5178>:
    52e0:	00135567 	andseq	r5, r3, r7, ror #10

000052e4 <l5179>:
    52e4:	e1f0b007 	mvns	fp, r7

000052e8 <l5180>:
    52e8:	91350064 	teqls	r5, r4, rrx

000052ec <l5181>:
    52ec:	e0405000 	sub	r5, r0, r0

000052f0 <l5182>:
    52f0:	c249304b 	subgt	r3, r9, #75	; 0x4b

000052f4 <l5183>:
    52f4:	e0437b72 	sub	r7, r3, r2, ror fp

000052f8 <l5184>:
    52f8:	e0fbe153 	rscs	lr, fp, r3, asr r1

000052fc <l5185>:
    52fc:	715e0058 	cmpvc	lr, r8, asr r0

00005300 <l5186>:
    5300:	513407af 	teqpl	r4, pc, lsr #15

00005304 <l5187>:
    5304:	21f06751 	mvnscs	r6, r1, asr r7

00005308 <l5188>:
    5308:	e07c7006 	rsbs	r7, ip, r6

0000530c <l5189>:
    530c:	e3a0b02e 	mov	fp, #46	; 0x2e

00005310 <l5190>:
    5310:	e19d40bb 	ldrh	r4, [sp, fp]

00005314 <l5191>:
    5314:	a88dfff7 	stmge	sp, {r0, r1, r2, r4, r5, r6, r7, r8, r9, sl, fp, ip, sp, lr, pc}

00005318 <l5192>:
    5318:	e01e6de6 	ands	r6, lr, r6, ror #27

0000531c <l5193>:
    531c:	41780065 	cmnmi	r8, r5, rrx

00005320 <l5194>:
    5320:	2a000005 	bcs	533c <l5201>

00005324 <l5195>:
    5324:	e2801072 	add	r1, r0, #114	; 0x72

00005328 <l5196>:
    5328:	e0098003 	and	r8, r9, r3

0000532c <l5197>:
    532c:	437100ba 	cmnmi	r1, #186	; 0xba

00005330 <l5198>:
    5330:	e0419ea0 	sub	r9, r1, r0, lsr #29

00005334 <l5199>:
    5334:	e1350066 	teq	r5, r6, rrx

00005338 <l5200>:
    5338:	ea000000 	b	5340 <l5202>

0000533c <l5201>:
    533c:	eafffff9 	b	5328 <l5196>

00005340 <l5202>:
    5340:	e189a064 	orr	sl, r9, r4, rrx

00005344 <l5203>:
    5344:	91a05003 	movls	r5, r3

00005348 <l5204>:
    5348:	e0a47008 	adc	r7, r4, r8

0000534c <l5205>:
    534c:	e0996a30 	adds	r6, r9, r0, lsr sl

00005350 <l5206>:
    5350:	d0cbaf8b 	sbcle	sl, fp, fp, lsl #31

00005354 <l5207>:
    5354:	e1a00000 	nop			; (mov r0, r0)

00005358 <l5208>:
    5358:	31dc4005 	bicscc	r4, ip, r5

0000535c <l5209>:
    535c:	635b0ca1 	cmpvs	fp, #41216	; 0xa100

00005360 <l5210>:
    5360:	e3a0500c 	mov	r5, #12

00005364 <l5211>:
    5364:	e7bd1005 	ldr	r1, [sp, r5]!

00005368 <l5212>:
    5368:	e01eb002 	ands	fp, lr, r2

0000536c <l5213>:
    536c:	e1190000 	tst	r9, r0

00005370 <l5214>:
    5370:	208ba006 	addcs	sl, fp, r6

00005374 <l5215>:
    5374:	e3a06009 	mov	r6, #9

00005378 <l5216>:
    5378:	87cdc006 	strbhi	ip, [sp, r6]

0000537c <l5217>:
    537c:	d15a0672 	cmple	sl, r2, ror r6

00005380 <l5218>:
    5380:	a5dd600a 	ldrbge	r6, [sp, #10]

00005384 <l5219>:
    5384:	e3a05023 	mov	r5, #35	; 0x23

00005388 <l5220>:
    5388:	b7dd8005 	ldrblt	r8, [sp, r5]

0000538c <l5221>:
    538c:	4a000006 	bmi	53ac <l5229>

00005390 <l5222>:
    5390:	21a00003 	movcs	r0, r3

00005394 <l5223>:
    5394:	e3a0bcd7 	mov	fp, #55040	; 0xd700

00005398 <l5224>:
    5398:	c0683064 	rsbgt	r3, r8, r4, rrx

0000539c <l5225>:
    539c:	e0c66003 	sbc	r6, r6, r3

000053a0 <l5226>:
    53a0:	30ce5113 	sbccc	r5, lr, r3, lsl r1

000053a4 <l5227>:
    53a4:	70a44007 	adcvc	r4, r4, r7

000053a8 <l5228>:
    53a8:	e13600ae 	teq	r6, lr, lsr #1

000053ac <l5229>:
    53ac:	62190266 	andsvs	r0, r9, #1610612742	; 0x60000006

000053b0 <l5230>:
    53b0:	71e04f4b 	mvnvc	r4, fp, asr #30

000053b4 <l5231>:
    53b4:	638c0391 	orrvs	r0, ip, #1140850690	; 0x44000002

000053b8 <l5232>:
    53b8:	e3a04020 	mov	r4, #32

000053bc <l5233>:
    53bc:	319d70f4 	ldrshcc	r7, [sp, r4]

000053c0 <l5234>:
    53c0:	ba000004 	blt	53d8 <l5240>

000053c4 <l5235>:
    53c4:	e28010e4 	add	r1, r0, #228	; 0xe4

000053c8 <l5236>:
    53c8:	e3e02d89 	mvn	r2, #8768	; 0x2240

000053cc <l5237>:
    53cc:	61790b8b 	cmnvs	r9, fp, lsl #23

000053d0 <l5238>:
    53d0:	e1d9a007 	bics	sl, r9, r7

000053d4 <l5239>:
    53d4:	ea000000 	b	53dc <l5241>

000053d8 <l5240>:
    53d8:	eafffffa 	b	53c8 <l5236>

000053dc <l5241>:
    53dc:	21ddb2fc 	ldrshcs	fp, [sp, #44]	; 0x2c

000053e0 <l5242>:
    53e0:	41f0e42e 	mvnsmi	lr, lr, lsr #8

000053e4 <l5243>:
    53e4:	c1cde2bc 	strhgt	lr, [sp, #44]	; 0x2c

000053e8 <l5244>:
    53e8:	ea000008 	b	5410 <l5254>

000053ec <l5245>:
    53ec:	d022e2a4 	eorle	lr, r2, r4, lsr #5

000053f0 <l5246>:
    53f0:	90442c55 	subls	r2, r4, r5, asr ip

000053f4 <l5247>:
    53f4:	517c0711 	cmnpl	ip, r1, lsl r7

000053f8 <l5248>:
    53f8:	d3c64e73 	bicle	r4, r6, #1840	; 0x730

000053fc <l5249>:
    53fc:	e113000c 	tst	r3, ip

00005400 <l5250>:
    5400:	b1f0a955 	mvnslt	sl, r5, asr r9

00005404 <l5251>:
    5404:	e0dc006c 	sbcs	r0, ip, ip, rrx

00005408 <l5252>:
    5408:	e28111e6 	add	r1, r1, #-2147483591	; 0x80000039

0000540c <l5253>:
    540c:	51c09005 	bicpl	r9, r0, r5

00005410 <l5254>:
    5410:	413f0126 	teqmi	pc, r6, lsr #2

00005414 <l5255>:
    5414:	11cd72b6 	strhne	r7, [sp, #38]	; 0x26

00005418 <l5256>:
    5418:	e22490c3 	eor	r9, r4, #195	; 0xc3

0000541c <l5257>:
    541c:	e0b26007 	adcs	r6, r2, r7

00005420 <l5258>:
    5420:	e3e0cdbe 	mvn	ip, #12160	; 0x2f80

00005424 <l5259>:
    5424:	31dd82b6 	ldrhcc	r8, [sp, #38]	; 0x26

00005428 <l5260>:
    5428:	e3a03004 	mov	r3, #4

0000542c <l5261>:
    542c:	e18d30b3 	strh	r3, [sp, r3]

00005430 <l5262>:
    5430:	e23c9953 	eors	r9, ip, #1359872	; 0x14c000

00005434 <l5263>:
    5434:	e3a05010 	mov	r5, #16

00005438 <l5264>:
    5438:	b70da005 	strlt	sl, [sp, -r5]

0000543c <l5265>:
    543c:	e1500e6a 	cmp	r0, sl, ror #28

00005440 <l5266>:
    5440:	e5bdb020 	ldr	fp, [sp, #32]!

00005444 <l5267>:
    5444:	a1dd60bc 	ldrhge	r6, [sp, #12]

00005448 <l5268>:
    5448:	419a2008 	orrsmi	r2, sl, r8

0000544c <l5269>:
    544c:	e089e8c5 	add	lr, r9, r5, asr #17

00005450 <l5270>:
    5450:	ea000004 	b	5468 <l5276>

00005454 <l5271>:
    5454:	d04ea231 	suble	sl, lr, r1, lsr r2

00005458 <l5272>:
    5458:	b27f319d 	rsbslt	r3, pc, #1073741863	; 0x40000027

0000545c <l5273>:
    545c:	e0a2606e 	adc	r6, r2, lr, rrx

00005460 <l5274>:
    5460:	31d3a005 	bicscc	sl, r3, r5

00005464 <l5275>:
    5464:	6066300a 	rsbvs	r3, r6, sl

00005468 <l5276>:
    5468:	22fa97ff 	rscscs	r9, sl, #66846720	; 0x3fc0000

0000546c <l5277>:
    546c:	e88d9080 	stm	sp, {r7, ip, pc}

00005470 <l5278>:
    5470:	e1140618 	tst	r4, r8, lsl r6

00005474 <l5279>:
    5474:	e3a0602c 	mov	r6, #44	; 0x2c

00005478 <l5280>:
    5478:	a74d2006 	strbge	r2, [sp, -r6]

0000547c <l5281>:
    547c:	e3a0a008 	mov	sl, #8

00005480 <l5282>:
    5480:	e7bd200a 	ldr	r2, [sp, sl]!

00005484 <l5283>:
    5484:	31790a5e 	cmncc	r9, lr, asr sl

00005488 <l5284>:
    5488:	d2b4103b 	adcsle	r1, r4, #59	; 0x3b

0000548c <l5285>:
    548c:	7204240b 	andvc	r2, r4, #184549376	; 0xb000000

00005490 <l5286>:
    5490:	e083000e 	add	r0, r3, lr

00005494 <l5287>:
    5494:	917e0005 	cmnls	lr, r5

00005498 <l5288>:
    5498:	411000ee 	tstmi	r0, lr, ror #1

0000549c <l5289>:
    549c:	e59fe000 	ldr	lr, [pc]	; 54a4 <l5291>

000054a0 <l5290>:
    54a0:	ea000000 	b	54a8 <l5292>

000054a4 <l5291>:
    54a4:	000fffe0 	.word	0x000fffe0

000054a8 <l5292>:
    54a8:	910e209b 	swpls	r2, fp, [lr]

000054ac <l5293>:
    54ac:	e209ba6e 	and	fp, r9, #450560	; 0x6e000

000054b0 <l5294>:
    54b0:	01360673 	teqeq	r6, r3, ror r6

000054b4 <l5295>:
    54b4:	111a0310 	tstne	sl, r0, lsl r3

000054b8 <l5296>:
    54b8:	e0448008 	sub	r8, r4, r8

000054bc <l5297>:
    54bc:	e3a08004 	mov	r8, #4

000054c0 <l5298>:
    54c0:	e7bd5008 	ldr	r5, [sp, r8]!

000054c4 <l5299>:
    54c4:	e59fc000 	ldr	ip, [pc]	; 54cc <l5301>

000054c8 <l5300>:
    54c8:	ea000000 	b	54d0 <l5302>

000054cc <l5301>:
    54cc:	000fffc4 	.word	0x000fffc4

000054d0 <l5302>:
    54d0:	814c3092 	swpbhi	r3, r2, [ip]

000054d4 <l5303>:
    54d4:	e59f6000 	ldr	r6, [pc]	; 54dc <l5305>

000054d8 <l5304>:
    54d8:	ea000000 	b	54e0 <l5306>

000054dc <l5305>:
    54dc:	000fffc0 	.word	0x000fffc0

000054e0 <l5306>:
    54e0:	e1468092 	swpb	r8, r2, [r6]

000054e4 <l5307>:
    54e4:	d2a31c12 	adcle	r1, r3, #4608	; 0x1200

000054e8 <l5308>:
    54e8:	71150d4c 	tstvc	r5, ip, asr #26

000054ec <l5309>:
    54ec:	629800b3 	addsvs	r0, r8, #179	; 0xb3

000054f0 <l5310>:
    54f0:	e3a04009 	mov	r4, #9

000054f4 <l5311>:
    54f4:	119d70d4 	ldrsbne	r7, [sp, r4]

000054f8 <l5312>:
    54f8:	a132013e 	teqge	r2, lr, lsr r1

000054fc <l5313>:
    54fc:	e16f2f18 	clz	r2, r8

00005500 <l5314>:
    5500:	e15101e0 	cmp	r1, r0, ror #3

00005504 <l5315>:
    5504:	92dca46d 	sbcsls	sl, ip, #1828716544	; 0x6d000000

00005508 <l5316>:
    5508:	e0c1200f 	sbc	r2, r1, pc

0000550c <l5317>:
    550c:	e3a08020 	mov	r8, #32

00005510 <l5318>:
    5510:	e10d30b8 	strh	r3, [sp, -r8]

00005514 <l5319>:
    5514:	e3340756 	teq	r4, #22544384	; 0x1580000

00005518 <l5320>:
    5518:	133704a5 	teqne	r7, #-1526726656	; 0xa5000000

0000551c <l5321>:
    551c:	e2034e3a 	and	r4, r3, #928	; 0x3a0

00005520 <l5322>:
    5520:	e3a04040 	mov	r4, #64	; 0x40

00005524 <l5323>:
    5524:	411d90f4 	ldrshmi	r9, [sp, -r4]

00005528 <l5324>:
    5528:	e15d23fa 	ldrsh	r2, [sp, #-58]	; 0xffffffc6

0000552c <l5325>:
    552c:	005be653 	subseq	lr, fp, r3, asr r6

00005530 <l5326>:
    5530:	d187206b 	orrle	r2, r7, fp, rrx

00005534 <l5327>:
    5534:	e3a05023 	mov	r5, #35	; 0x23

00005538 <l5328>:
    5538:	511d30d5 	ldrsbpl	r3, [sp, -r5]

0000553c <l5329>:
    553c:	e1a0900f 	mov	r9, pc

00005540 <l5330>:
    5540:	51b066cb 	asrspl	r6, fp, #13

00005544 <l5331>:
    5544:	e3a07032 	mov	r7, #50	; 0x32

00005548 <l5332>:
    5548:	911db0f7 	ldrshls	fp, [sp, -r7]

0000554c <l5333>:
    554c:	8134000a 	teqhi	r4, sl

00005550 <l5334>:
    5550:	e3a09040 	mov	r9, #64	; 0x40

00005554 <l5335>:
    5554:	c11da0b9 	ldrhgt	sl, [sp, -r9]

00005558 <l5336>:
    5558:	e3a00008 	mov	r0, #8

0000555c <l5337>:
    555c:	e19d60f0 	ldrsh	r6, [sp, r0]

00005560 <l5338>:
    5560:	e15d13d3 	ldrsb	r1, [sp, #-51]	; 0xffffffcd

00005564 <l5339>:
    5564:	e3a0903a 	mov	r9, #58	; 0x3a

00005568 <l5340>:
    5568:	375d7009 	ldrbcc	r7, [sp, -r9]

0000556c <l5341>:
    556c:	e0b5e062 	adcs	lr, r5, r2, rrx

00005570 <l5342>:
    5570:	e59fc000 	ldr	ip, [pc]	; 5578 <l5344>

00005574 <l5343>:
    5574:	ea000000 	b	557c <l5345>

00005578 <l5344>:
    5578:	000fffdc 	.word	0x000fffdc

0000557c <l5345>:
    557c:	c10cb098 	swpgt	fp, r8, [ip]

00005580 <l5346>:
    5580:	00beb01b 	adcseq	fp, lr, fp, lsl r0

00005584 <l5347>:
    5584:	c15d33d4 	ldrsbgt	r3, [sp, #-52]	; 0xffffffcc

00005588 <l5348>:
    5588:	e3f07058 	mvns	r7, #88	; 0x58

0000558c <l5349>:
    558c:	e59fa000 	ldr	sl, [pc]	; 5594 <l5351>

00005590 <l5350>:
    5590:	ea000000 	b	5598 <l5352>

00005594 <l5351>:
    5594:	000fffac 	.word	0x000fffac

00005598 <l5352>:
    5598:	e10a2090 	swp	r2, r0, [sl]

0000559c <l5353>:
    559c:	e1790068 	cmn	r9, r8, rrx

000055a0 <l5354>:
    55a0:	e59f1000 	ldr	r1, [pc]	; 55a8 <l5356>

000055a4 <l5355>:
    55a4:	ea000000 	b	55ac <l5357>

000055a8 <l5356>:
    55a8:	000fffe4 	.word	0x000fffe4

000055ac <l5357>:
    55ac:	0101709c 	swpeq	r7, ip, [r1]

000055b0 <l5358>:
    55b0:	e1a00000 	nop			; (mov r0, r0)

000055b4 <l5359>:
    55b4:	e1f0452e 	mvns	r4, lr, lsr #10

000055b8 <l5360>:
    55b8:	e08fa00c 	add	sl, pc, ip

000055bc <l5361>:
    55bc:	e0e6b5a1 	rsc	fp, r6, r1, lsr #11

000055c0 <l5362>:
    55c0:	e15d00fe 	ldrsh	r0, [sp, #-14]

000055c4 <l5363>:
    55c4:	11dbeba9 	bicsne	lr, fp, r9, lsr #23

000055c8 <l5364>:
    55c8:	30d24000 	sbcscc	r4, r2, r0

000055cc <l5365>:
    55cc:	e3a0e004 	mov	lr, #4

000055d0 <l5366>:
    55d0:	c7dd500e 	ldrbgt	r5, [sp, lr]

000055d4 <l5367>:
    55d4:	e3a04007 	mov	r4, #7

000055d8 <l5368>:
    55d8:	211d70d4 	ldrsbcs	r7, [sp, -r4]

000055dc <l5369>:
    55dc:	01370009 	teqeq	r7, r9

000055e0 <l5370>:
    55e0:	e3a07030 	mov	r7, #48	; 0x30

000055e4 <l5371>:
    55e4:	411d20f7 	ldrshmi	r2, [sp, -r7]

000055e8 <l5372>:
    55e8:	e1de7005 	bics	r7, lr, r5

000055ec <l5373>:
    55ec:	e16fef18 	clz	lr, r8

000055f0 <l5374>:
    55f0:	e59fc000 	ldr	ip, [pc]	; 55f8 <l5376>

000055f4 <l5375>:
    55f4:	ea000000 	b	55fc <l5377>

000055f8 <l5376>:
    55f8:	000fffdc 	.word	0x000fffdc

000055fc <l5377>:
    55fc:	c10c3094 	swpgt	r3, r4, [ip]

00005600 <l5378>:
    5600:	3a000004 	bcc	5618 <l5384>

00005604 <l5379>:
    5604:	e28010a3 	add	r1, r0, #163	; 0xa3

00005608 <l5380>:
    5608:	e26ea91e 	rsb	sl, lr, #491520	; 0x78000

0000560c <l5381>:
    560c:	20f54352 	rscscs	r4, r5, r2, asr r3

00005610 <l5382>:
    5610:	918ba96e 	orrls	sl, fp, lr, ror #18

00005614 <l5383>:
    5614:	ea000000 	b	561c <l5385>

00005618 <l5384>:
    5618:	eafffffa 	b	5608 <l5380>

0000561c <l5385>:
    561c:	e1e02007 	mvn	r2, r7

00005620 <l5386>:
    5620:	b0cce008 	sbclt	lr, ip, r8

00005624 <l5387>:
    5624:	855d8016 	ldrbhi	r8, [sp, #-22]

00005628 <l5388>:
    5628:	e3a02033 	mov	r2, #51	; 0x33

0000562c <l5389>:
    562c:	111d80d2 	ldrsbne	r8, [sp, -r2]

00005630 <l5390>:
    5630:	ea000005 	b	564c <l5397>

00005634 <l5391>:
    5634:	e2801084 	add	r1, r0, #132	; 0x84

00005638 <l5392>:
    5638:	30d5a005 	sbcscc	sl, r5, r5

0000563c <l5393>:
    563c:	c3f06d76 	mvnsgt	r6, #7552	; 0x1d80

00005640 <l5394>:
    5640:	e137084b 	teq	r7, fp, asr #16

00005644 <l5395>:
    5644:	1316082a 	tstne	r6, #2752512	; 0x2a0000

00005648 <l5396>:
    5648:	ea000000 	b	5650 <l5398>

0000564c <l5397>:
    564c:	eafffff9 	b	5638 <l5392>

00005650 <l5398>:
    5650:	e3a03000 	mov	r3, #0

00005654 <l5399>:
    5654:	e78d6003 	str	r6, [sp, r3]

00005658 <l5400>:
    5658:	e16f7f1c 	clz	r7, ip

0000565c <l5401>:
    565c:	e92d6000 	push	{sp, lr}

00005660 <l5402>:
    5660:	628b9319 	addvs	r9, fp, #1677721600	; 0x64000000

00005664 <l5403>:
    5664:	e3a02030 	mov	r2, #48	; 0x30

00005668 <l5404>:
    5668:	070d5002 	streq	r5, [sp, -r2]

0000566c <l5405>:
    566c:	e187800e 	orr	r8, r7, lr

00005670 <l5406>:
    5670:	73340c1e 	teqvc	r4, #7680	; 0x1e00

00005674 <l5407>:
    5674:	ca000002 	bgt	5684 <l5411>

00005678 <l5408>:
    5678:	e053b060 	subs	fp, r3, r0, rrx

0000567c <l5409>:
    567c:	b2b9341e 	adcslt	r3, r9, #503316480	; 0x1e000000

00005680 <l5410>:
    5680:	515e0005 	cmppl	lr, r5

00005684 <l5411>:
    5684:	41b0b002 	movsmi	fp, r2

00005688 <l5412>:
    5688:	e83d5fd4 	ldmda	sp!, {r2, r4, r6, r7, r8, r9, sl, fp, ip, lr}

0000568c <l5413>:
    568c:	e1a06cc2 	asr	r6, r2, #25

00005690 <l5414>:
    5690:	61917f0e 	orrsvs	r7, r1, lr, lsl #30

00005694 <l5415>:
    5694:	e1e07260 	mvn	r7, r0, ror #4

00005698 <l5416>:
    5698:	e14d30b4 	strh	r3, [sp, #-4]

0000569c <l5417>:
    569c:	e5ad7034 	str	r7, [sp, #52]!	; 0x34

000056a0 <l5418>:
    56a0:	411e0158 	tstmi	lr, r8, asr r1

000056a4 <l5419>:
    56a4:	3a000000 	bcc	56ac <l5421>

000056a8 <l5420>:
    56a8:	e0457f43 	sub	r7, r5, r3, asr #30

000056ac <l5421>:
    56ac:	e0410066 	sub	r0, r1, r6, rrx

000056b0 <l5422>:
    56b0:	e0b06000 	adcs	r6, r0, r0

000056b4 <l5423>:
    56b4:	e1190134 	tst	r9, r4, lsr r1

000056b8 <l5424>:
    56b8:	0031055b 	eorseq	r0, r1, fp, asr r5

000056bc <l5425>:
    56bc:	e51dc010 	ldr	ip, [sp, #-16]

000056c0 <l5426>:
    56c0:	459de000 	ldrmi	lr, [sp]

000056c4 <l5427>:
    56c4:	e0a45069 	adc	r5, r4, r9, rrx

000056c8 <l5428>:
    56c8:	e0572004 	subs	r2, r7, r4

000056cc <l5429>:
    56cc:	e16f5f18 	clz	r5, r8

000056d0 <l5430>:
    56d0:	e3a0201c 	mov	r2, #28

000056d4 <l5431>:
    56d4:	e73d2002 	ldr	r2, [sp, -r2]!

000056d8 <l5432>:
    56d8:	e59f7000 	ldr	r7, [pc]	; 56e0 <l5434>

000056dc <l5433>:
    56dc:	ea000000 	b	56e4 <l5435>

000056e0 <l5434>:
    56e0:	000fffd0 	.word	0x000fffd0

000056e4 <l5435>:
    56e4:	6107b09e 	swpvs	fp, lr, [r7]

000056e8 <l5436>:
    56e8:	e3a0300e 	mov	r3, #14

000056ec <l5437>:
    56ec:	919d00b3 	ldrhls	r0, [sp, r3]

000056f0 <l5438>:
    56f0:	2a000005 	bcs	570c <l5445>

000056f4 <l5439>:
    56f4:	e2801084 	add	r1, r0, #132	; 0x84

000056f8 <l5440>:
    56f8:	e0dc5860 	sbcs	r5, ip, r0, ror #16

000056fc <l5441>:
    56fc:	60ac44e4 	adcvs	r4, ip, r4, ror #9

00005700 <l5442>:
    5700:	e0e18c34 	rsc	r8, r1, r4, lsr ip

00005704 <l5443>:
    5704:	e0ff6008 	rscs	r6, pc, r8

00005708 <l5444>:
    5708:	ea000000 	b	5710 <l5446>

0000570c <l5445>:
    570c:	eafffff9 	b	56f8 <l5440>

00005710 <l5446>:
    5710:	a054697b 	subsge	r6, r4, fp, ror r9

00005714 <l5447>:
    5714:	e15d60de 	ldrsb	r6, [sp, #-14]

00005718 <l5448>:
    5718:	33c73651 	biccc	r3, r7, #84934656	; 0x5100000

0000571c <l5449>:
    571c:	e15c0a2f 	cmp	ip, pc, lsr #20

00005720 <l5450>:
    5720:	e15d11fc 	ldrsh	r1, [sp, #-28]	; 0xffffffe4

00005724 <l5451>:
    5724:	a2f641f7 	rscsge	r4, r6, #-1073741763	; 0xc000003d

00005728 <l5452>:
    5728:	913002c7 	teqls	r0, r7, asr #5

0000572c <l5453>:
    572c:	1191a81b 	orrsne	sl, r1, fp, lsl r8

00005730 <l5454>:
    5730:	d3c33c85 	bicle	r3, r3, #34048	; 0x8500

00005734 <l5455>:
    5734:	aa000002 	bge	5744 <l5459>

00005738 <l5456>:
    5738:	e2801013 	add	r1, r0, #19

0000573c <l5457>:
    573c:	e16f4f16 	clz	r4, r6

00005740 <l5458>:
    5740:	ea000000 	b	5748 <l5460>

00005744 <l5459>:
    5744:	eafffffc 	b	573c <l5457>

00005748 <l5460>:
    5748:	e59f1000 	ldr	r1, [pc]	; 5750 <l5462>

0000574c <l5461>:
    574c:	ea000000 	b	5754 <l5463>

00005750 <l5462>:
    5750:	000fffbc 	.word	0x000fffbc

00005754 <l5463>:
    5754:	e1412094 	swpb	r2, r4, [r1]

00005758 <l5464>:
    5758:	e9bd00c0 	ldmib	sp!, {r6, r7}

0000575c <l5465>:
    575c:	d1b0325a 	asrsle	r3, sl, r2

00005760 <l5466>:
    5760:	e0507816 	subs	r7, r0, r6, lsl r8

00005764 <l5467>:
    5764:	d0702060 	rsbsle	r2, r0, r0, rrx

00005768 <l5468>:
    5768:	e53d5024 	ldr	r5, [sp, #-36]!	; 0x24

0000576c <l5469>:
    576c:	e1dd13d2 	ldrsb	r1, [sp, #50]	; 0x32

00005770 <l5470>:
    5770:	5a000005 	bpl	578c <l5477>

00005774 <l5471>:
    5774:	e28010d7 	add	r1, r0, #215	; 0xd7

00005778 <l5472>:
    5778:	b09e000e 	addslt	r0, lr, lr

0000577c <l5473>:
    577c:	a11b006e 	tstge	fp, lr, rrx

00005780 <l5474>:
    5780:	e0454352 	sub	r4, r5, r2, asr r3

00005784 <l5475>:
    5784:	b0d2a00a 	sbcslt	sl, r2, sl

00005788 <l5476>:
    5788:	ea000000 	b	5790 <l5478>

0000578c <l5477>:
    578c:	eafffff9 	b	5778 <l5472>

00005790 <l5478>:
    5790:	e3a03038 	mov	r3, #56	; 0x38

00005794 <l5479>:
    5794:	619d50d3 	ldrsbvs	r5, [sp, r3]

00005798 <l5480>:
    5798:	91dd03f2 	ldrshls	r0, [sp, #50]	; 0x32

0000579c <l5481>:
    579c:	a113021c 	tstge	r3, ip, lsl r2

000057a0 <l5482>:
    57a0:	e3a0102c 	mov	r1, #44	; 0x2c

000057a4 <l5483>:
    57a4:	e68d3001 	str	r3, [sp], r1

000057a8 <l5484>:
    57a8:	33180525 	tstcc	r8, #155189248	; 0x9400000

000057ac <l5485>:
    57ac:	b052e003 	subslt	lr, r2, r3

000057b0 <l5486>:
    57b0:	8a000004 	bhi	57c8 <l5492>

000057b4 <l5487>:
    57b4:	e28010f8 	add	r1, r0, #248	; 0xf8

000057b8 <l5488>:
    57b8:	e2473859 	sub	r3, r7, #5832704	; 0x590000

000057bc <l5489>:
    57bc:	704c6776 	subvc	r6, ip, r6, ror r7

000057c0 <l5490>:
    57c0:	625f836d 	subsvs	r8, pc, #-1275068415	; 0xb4000001

000057c4 <l5491>:
    57c4:	ea000000 	b	57cc <l5493>

000057c8 <l5492>:
    57c8:	eafffffa 	b	57b8 <l5488>

000057cc <l5493>:
    57cc:	e53de030 	ldr	lr, [sp, #-48]!	; 0x30

000057d0 <l5494>:
    57d0:	616f5f11 	clzvs	r5, r1

000057d4 <l5495>:
    57d4:	a330002f 	teqge	r0, #47	; 0x2f

000057d8 <l5496>:
    57d8:	e06ec00c 	rsb	ip, lr, ip

000057dc <l5497>:
    57dc:	d0649002 	rsble	r9, r4, r2

000057e0 <l5498>:
    57e0:	b0819006 	addlt	r9, r1, r6

000057e4 <l5499>:
    57e4:	e1d7254a 	bics	r2, r7, sl, asr #10

000057e8 <l5500>:
    57e8:	e3a08038 	mov	r8, #56	; 0x38

000057ec <l5501>:
    57ec:	219d90f8 	ldrshcs	r9, [sp, r8]

000057f0 <l5502>:
    57f0:	716fcf18 	clzvc	ip, r8

000057f4 <l5503>:
    57f4:	e3a0a020 	mov	sl, #32

000057f8 <l5504>:
    57f8:	b18da0ba 	strhlt	sl, [sp, sl]

000057fc <l5505>:
    57fc:	a28e9c0b 	addge	r9, lr, #2816	; 0xb00

00005800 <l5506>:
    5800:	e49d4018 	ldr	r4, [sp], #24

00005804 <l5507>:
    5804:	016f3f18 	clzeq	r3, r8

00005808 <l5508>:
    5808:	e59f5000 	ldr	r5, [pc]	; 5810 <l5510>

0000580c <l5509>:
    580c:	ea000000 	b	5814 <l5511>

00005810 <l5510>:
    5810:	000fffe8 	.word	0x000fffe8

00005814 <l5511>:
    5814:	e105c096 	swp	ip, r6, [r5]

00005818 <l5512>:
    5818:	e15da2f0 	ldrsh	sl, [sp, #-32]	; 0xffffffe0

0000581c <l5513>:
    581c:	d14d01ba 	strhle	r0, [sp, #-26]	; 0xffffffe6

00005820 <l5514>:
    5820:	e59f0000 	ldr	r0, [pc]	; 5828 <l5516>

00005824 <l5515>:
    5824:	ea000000 	b	582c <l5517>

00005828 <l5516>:
    5828:	000fffa4 	.word	0x000fffa4

0000582c <l5517>:
    582c:	e1407098 	swpb	r7, r8, [r0]

00005830 <l5518>:
    5830:	e202be25 	and	fp, r2, #592	; 0x250

00005834 <l5519>:
    5834:	e3a03016 	mov	r3, #22

00005838 <l5520>:
    5838:	17cd2003 	strbne	r2, [sp, r3]

0000583c <l5521>:
    583c:	e3a0a01a 	mov	sl, #26

00005840 <l5522>:
    5840:	e11d40da 	ldrsb	r4, [sp, -sl]

00005844 <l5523>:
    5844:	055d7006 	ldrbeq	r7, [sp, #-6]

00005848 <l5524>:
    5848:	e2328eeb 	eors	r8, r2, #3760	; 0xeb0

0000584c <l5525>:
    584c:	e0b37a50 	adcs	r7, r3, r0, asr sl

00005850 <l5526>:
    5850:	214dc1bc 	strhcs	ip, [sp, #-28]	; 0xffffffe4

00005854 <l5527>:
    5854:	805329e8 	subshi	r2, r3, r8, ror #19

00005858 <l5528>:
    5858:	e59f6000 	ldr	r6, [pc]	; 5860 <l5530>

0000585c <l5529>:
    585c:	ea000000 	b	5864 <l5531>

00005860 <l5530>:
    5860:	000fffa0 	.word	0x000fffa0

00005864 <l5531>:
    5864:	8106c091 	swphi	ip, r1, [r6]

00005868 <l5532>:
    5868:	e59f2000 	ldr	r2, [pc]	; 5870 <l5534>

0000586c <l5533>:
    586c:	ea000000 	b	5874 <l5535>

00005870 <l5534>:
    5870:	000fffdc 	.word	0x000fffdc

00005874 <l5535>:
    5874:	31027099 	swpcc	r7, r9, [r2]

00005878 <l5536>:
    5878:	e1540000 	cmp	r4, r0

0000587c <l5537>:
    587c:	b16f3f1a 	clzlt	r3, sl

00005880 <l5538>:
    5880:	c3b003d3 	movsgt	r0, #1275068419	; 0x4c000003

00005884 <l5539>:
    5884:	e022106b 	eor	r1, r2, fp, rrx

00005888 <l5540>:
    5888:	e15a005b 	cmp	sl, fp, asr r0

0000588c <l5541>:
    588c:	137c0b43 	cmnne	ip, #68608	; 0x10c00

00005890 <l5542>:
    5890:	e59f7000 	ldr	r7, [pc]	; 5898 <l5544>

00005894 <l5543>:
    5894:	ea000000 	b	589c <l5545>

00005898 <l5544>:
    5898:	000fffac 	.word	0x000fffac

0000589c <l5545>:
    589c:	9107e09e 	swpls	lr, lr, [r7]

000058a0 <l5546>:
    58a0:	123b8832 	eorsne	r8, fp, #3276800	; 0x320000

000058a4 <l5547>:
    58a4:	e16f5f15 	clz	r5, r5

000058a8 <l5548>:
    58a8:	590d2410 	stmdbpl	sp, {r4, sl, sp}

000058ac <l5549>:
    58ac:	e3a0a010 	mov	sl, #16

000058b0 <l5550>:
    58b0:	771d200a 	ldrvc	r2, [sp, -sl]

000058b4 <l5551>:
    58b4:	e153000f 	cmp	r3, pc

000058b8 <l5552>:
    58b8:	e92d080f 	push	{r0, r1, r2, r3, fp}

000058bc <l5553>:
    58bc:	e1dd02b8 	ldrh	r0, [sp, #40]	; 0x28

000058c0 <l5554>:
    58c0:	518f300a 	orrpl	r3, pc, sl

000058c4 <l5555>:
    58c4:	e59f7000 	ldr	r7, [pc]	; 58cc <l5557>

000058c8 <l5556>:
    58c8:	ea000000 	b	58d0 <l5558>

000058cc <l5557>:
    58cc:	000fffb0 	.word	0x000fffb0

000058d0 <l5558>:
    58d0:	e147009b 	swpb	r0, fp, [r7]

000058d4 <l5559>:
    58d4:	e59fa000 	ldr	sl, [pc]	; 58dc <l5561>

000058d8 <l5560>:
    58d8:	ea000000 	b	58e0 <l5562>

000058dc <l5561>:
    58dc:	000fffc4 	.word	0x000fffc4

000058e0 <l5562>:
    58e0:	610a8093 	swpvs	r8, r3, [sl]

000058e4 <l5563>:
    58e4:	43e0290e 	mvnmi	r2, #229376	; 0x38000

000058e8 <l5564>:
    58e8:	554d0007 	strbpl	r0, [sp, #-7]

000058ec <l5565>:
    58ec:	e3a0501c 	mov	r5, #28

000058f0 <l5566>:
    58f0:	e19d20d5 	ldrsb	r2, [sp, r5]

000058f4 <l5567>:
    58f4:	73b0b0d3 	movsvc	fp, #211	; 0xd3

000058f8 <l5568>:
    58f8:	e0d0a06b 	sbcs	sl, r0, fp, rrx

000058fc <l5569>:
    58fc:	e3a0c018 	mov	ip, #24

00005900 <l5570>:
    5900:	c19d80dc 	ldrsbgt	r8, [sp, ip]

00005904 <l5571>:
    5904:	d0744c5b 	rsbsle	r4, r4, fp, asr ip

00005908 <l5572>:
    5908:	e1a00000 	nop			; (mov r0, r0)

0000590c <l5573>:
    590c:	215d40d6 	ldrsbcs	r4, [sp, #-6]

00005910 <l5574>:
    5910:	e59f3000 	ldr	r3, [pc]	; 5918 <l5576>

00005914 <l5575>:
    5914:	ea000000 	b	591c <l5577>

00005918 <l5576>:
    5918:	000fffe0 	.word	0x000fffe0

0000591c <l5577>:
    591c:	c143b094 	swpbgt	fp, r4, [r3]

00005920 <l5578>:
    5920:	20eba067 	rsccs	sl, fp, r7, rrx

00005924 <l5579>:
    5924:	e02436c3 	eor	r3, r4, r3, asr #13

00005928 <l5580>:
    5928:	e2a4192f 	adc	r1, r4, #770048	; 0xbc000

0000592c <l5581>:
    592c:	ea000002 	b	593c <l5585>

00005930 <l5582>:
    5930:	e280106f 	add	r1, r0, #111	; 0x6f

00005934 <l5583>:
    5934:	e096a060 	adds	sl, r6, r0, rrx

00005938 <l5584>:
    5938:	ea000000 	b	5940 <l5586>

0000593c <l5585>:
    593c:	eafffffc 	b	5934 <l5583>

00005940 <l5586>:
    5940:	e3819201 	orr	r9, r1, #268435456	; 0x10000000

00005944 <l5587>:
    5944:	a00fc00b 	andge	ip, pc, fp

00005948 <l5588>:
    5948:	a1cd50be 	strhge	r5, [sp, #14]

0000594c <l5589>:
    594c:	e59f1000 	ldr	r1, [pc]	; 5954 <l5591>

00005950 <l5590>:
    5950:	ea000000 	b	5958 <l5592>

00005954 <l5591>:
    5954:	000fffb0 	.word	0x000fffb0

00005958 <l5592>:
    5958:	6141b092 	swpbvs	fp, r2, [r1]

0000595c <l5593>:
    595c:	524e6996 	subpl	r6, lr, #2457600	; 0x258000

00005960 <l5594>:
    5960:	e0b5c038 	adcs	ip, r5, r8, lsr r0

00005964 <l5595>:
    5964:	e0200918 	eor	r0, r0, r8, lsl r9

00005968 <l5596>:
    5968:	e1a00000 	nop			; (mov r0, r0)

0000596c <l5597>:
    596c:	015d00d6 	ldrsbeq	r0, [sp, #-6]

00005970 <l5598>:
    5970:	e3a0503d 	mov	r5, #61	; 0x3d

00005974 <l5599>:
    5974:	e7cd6005 	strb	r6, [sp, r5]

00005978 <l5600>:
    5978:	e3a0203a 	mov	r2, #58	; 0x3a

0000597c <l5601>:
    597c:	a19d00b2 	ldrhge	r0, [sp, r2]

00005980 <l5602>:
    5980:	42da0816 	sbcsmi	r0, sl, #1441792	; 0x160000

00005984 <l5603>:
    5984:	8a000002 	bhi	5994 <l5607>

00005988 <l5604>:
    5988:	e2801005 	add	r1, r0, #5

0000598c <l5605>:
    598c:	331c0b21 	tstcc	ip, #33792	; 0x8400

00005990 <l5606>:
    5990:	ea000000 	b	5998 <l5608>

00005994 <l5607>:
    5994:	eafffffc 	b	598c <l5605>

00005998 <l5608>:
    5998:	70b6400a 	adcsvc	r4, r6, sl

0000599c <l5609>:
    599c:	e1110b6f 	tst	r1, pc, ror #22

000059a0 <l5610>:
    59a0:	113b0003 	teqne	fp, r3

000059a4 <l5611>:
    59a4:	e3a0101e 	mov	r1, #30

000059a8 <l5612>:
    59a8:	e19d40f1 	ldrsh	r4, [sp, r1]

000059ac <l5613>:
    59ac:	431203ca 	tstmi	r2, #671088643	; 0x28000003

000059b0 <l5614>:
    59b0:	024ec829 	subeq	ip, lr, #2686976	; 0x290000

000059b4 <l5615>:
    59b4:	033c093a 	teqeq	ip, #950272	; 0xe8000

000059b8 <l5616>:
    59b8:	e15a0067 	cmp	sl, r7, rrx

000059bc <l5617>:
    59bc:	e93d0040 	ldmdb	sp!, {r6}

000059c0 <l5618>:
    59c0:	e054442f 	subs	r4, r4, pc, lsr #8

000059c4 <l5619>:
    59c4:	e59f8000 	ldr	r8, [pc]	; 59cc <l5621>

000059c8 <l5620>:
    59c8:	ea000000 	b	59d0 <l5622>

000059cc <l5621>:
    59cc:	000fffa4 	.word	0x000fffa4

000059d0 <l5622>:
    59d0:	51481094 	swpbpl	r1, r4, [r8]

000059d4 <l5623>:
    59d4:	e3a04034 	mov	r4, #52	; 0x34

000059d8 <l5624>:
    59d8:	a7cdc004 	strbge	ip, [sp, r4]

000059dc <l5625>:
    59dc:	e1dda3dc 	ldrsb	sl, [sp, #60]	; 0x3c

000059e0 <l5626>:
    59e0:	e3a0c032 	mov	ip, #50	; 0x32

000059e4 <l5627>:
    59e4:	e7dd900c 	ldrb	r9, [sp, ip]

000059e8 <l5628>:
    59e8:	e15c0411 	cmp	ip, r1, lsl r4

000059ec <l5629>:
    59ec:	e16f7f16 	clz	r7, r6

000059f0 <l5630>:
    59f0:	e00c43e9 	and	r4, ip, r9, ror #7

000059f4 <l5631>:
    59f4:	e3a09004 	mov	r9, #4

000059f8 <l5632>:
    59f8:	e68d3009 	str	r3, [sp], r9

000059fc <l5633>:
    59fc:	e1f0b360 	mvns	fp, r0, ror #6

00005a00 <l5634>:
    5a00:	e48db024 	str	fp, [sp], #36	; 0x24

00005a04 <l5635>:
    5a04:	e1f09000 	mvns	r9, r0

00005a08 <l5636>:
    5a08:	b15d60be 	ldrhlt	r6, [sp, #-14]

00005a0c <l5637>:
    5a0c:	4173000e 	cmnmi	r3, lr

00005a10 <l5638>:
    5a10:	808c8c4c 	addhi	r8, ip, ip, asr #24

00005a14 <l5639>:
    5a14:	e59f6000 	ldr	r6, [pc]	; 5a1c <l5641>

00005a18 <l5640>:
    5a18:	ea000000 	b	5a20 <l5642>

00005a1c <l5641>:
    5a1c:	000fffe4 	.word	0x000fffe4

00005a20 <l5642>:
    5a20:	4146b09c 	swpbmi	fp, ip, [r6]

00005a24 <l5643>:
    5a24:	82526f7b 	subshi	r6, r2, #492	; 0x1ec

00005a28 <l5644>:
    5a28:	50c7400c 	sbcpl	r4, r7, ip

00005a2c <l5645>:
    5a2c:	e59f4000 	ldr	r4, [pc]	; 5a34 <l5647>

00005a30 <l5646>:
    5a30:	ea000000 	b	5a38 <l5648>

00005a34 <l5647>:
    5a34:	000fffb0 	.word	0x000fffb0

00005a38 <l5648>:
    5a38:	8104209e 	swphi	r2, lr, [r4]

00005a3c <l5649>:
    5a3c:	117c0c53 	cmnne	ip, r3, asr ip

00005a40 <l5650>:
    5a40:	5245477f 	subpl	r4, r5, #33292288	; 0x1fc0000

00005a44 <l5651>:
    5a44:	b1730639 	cmnlt	r3, r9, lsr r6

00005a48 <l5652>:
    5a48:	aa000001 	bge	5a54 <l5655>

00005a4c <l5653>:
    5a4c:	603062a3 	eorsvs	r6, r0, r3, lsr #5

00005a50 <l5654>:
    5a50:	0247e9da 	subeq	lr, r7, #3571712	; 0x368000

00005a54 <l5655>:
    5a54:	c064afc3 	rsbgt	sl, r4, r3, asr #31

00005a58 <l5656>:
    5a58:	01a0b937 	lsreq	fp, r7, r9

00005a5c <l5657>:
    5a5c:	825a4e61 	subshi	r4, sl, #1552	; 0x610

00005a60 <l5658>:
    5a60:	30786004 	rsbscc	r6, r8, r4

00005a64 <l5659>:
    5a64:	e2a7e709 	adc	lr, r7, #2359296	; 0x240000

00005a68 <l5660>:
    5a68:	02415c25 	subeq	r5, r1, #9472	; 0x2500

00005a6c <l5661>:
    5a6c:	daffffff 	ble	5a70 <l5662>

00005a70 <l5662>:
    5a70:	307803ae 	rsbscc	r0, r8, lr, lsr #7

00005a74 <l5663>:
    5a74:	e1a0800b 	mov	r8, fp

00005a78 <l5664>:
    5a78:	a118000a 	tstge	r8, sl

00005a7c <l5665>:
    5a7c:	e0c37063 	sbc	r7, r3, r3, rrx

00005a80 <l5666>:
    5a80:	81b0400f 	movshi	r4, pc

00005a84 <l5667>:
    5a84:	e90dceba 	stmdb	sp, {r1, r3, r4, r5, r7, r9, sl, fp, lr, pc}

00005a88 <l5668>:
    5a88:	e1530062 	cmp	r3, r2, rrx

00005a8c <l5669>:
    5a8c:	e8ad0090 	stmia	sp!, {r4, r7}

00005a90 <l5670>:
    5a90:	e3a0e031 	mov	lr, #49	; 0x31

00005a94 <l5671>:
    5a94:	e75d000e 	ldrb	r0, [sp, -lr]

00005a98 <l5672>:
    5a98:	31f0e811 	mvnscc	lr, r1, lsl r8

00005a9c <l5673>:
    5a9c:	e04ba06c 	sub	sl, fp, ip, rrx

00005aa0 <l5674>:
    5aa0:	e40d8024 	str	r8, [sp], #-36	; 0x24

00005aa4 <l5675>:
    5aa4:	e3a0602c 	mov	r6, #44	; 0x2c

00005aa8 <l5676>:
    5aa8:	378d6006 	strcc	r6, [sp, r6]

00005aac <l5677>:
    5aac:	60998151 	addsvs	r8, r9, r1, asr r1

00005ab0 <l5678>:
    5ab0:	40904230 	addsmi	r4, r0, r0, lsr r2

00005ab4 <l5679>:
    5ab4:	83790e7a 	cmnhi	r9, #1952	; 0x7a0

00005ab8 <l5680>:
    5ab8:	50284834 	eorpl	r4, r8, r4, lsr r8

00005abc <l5681>:
    5abc:	90b25a72 	adcsls	r5, r2, r2, ror sl

00005ac0 <l5682>:
    5ac0:	e99d5618 	ldmib	sp, {r3, r4, r9, sl, ip, lr}

00005ac4 <l5683>:
    5ac4:	e59f9000 	ldr	r9, [pc]	; 5acc <l5685>

00005ac8 <l5684>:
    5ac8:	ea000000 	b	5ad0 <l5686>

00005acc <l5685>:
    5acc:	000fffc4 	.word	0x000fffc4

00005ad0 <l5686>:
    5ad0:	31493097 	swpbcc	r3, r7, [r9]

00005ad4 <l5687>:
    5ad4:	b1dd10f6 	ldrshlt	r1, [sp, #6]

00005ad8 <l5688>:
    5ad8:	c0298ee8 	eorgt	r8, r9, r8, ror #29

00005adc <l5689>:
    5adc:	e3a0c021 	mov	ip, #33	; 0x21

00005ae0 <l5690>:
    5ae0:	e19db0dc 	ldrsb	fp, [sp, ip]

00005ae4 <l5691>:
    5ae4:	e93d4200 	ldmdb	sp!, {r9, lr}

00005ae8 <l5692>:
    5ae8:	e1859005 	orr	r9, r5, r5

00005aec <l5693>:
    5aec:	916f7f1c 	clzls	r7, ip

00005af0 <l5694>:
    5af0:	51570000 	cmppl	r7, r0

00005af4 <l5695>:
    5af4:	e1320a19 	teq	r2, r9, lsl sl

00005af8 <l5696>:
    5af8:	e9ad1001 	stmib	sp!, {r0, ip}

00005afc <l5697>:
    5afc:	e046e063 	sub	lr, r6, r3, rrx

00005b00 <l5698>:
    5b00:	e3de2af1 	bics	r2, lr, #987136	; 0xf1000

00005b04 <l5699>:
    5b04:	e59fc000 	ldr	ip, [pc]	; 5b0c <l5701>

00005b08 <l5700>:
    5b08:	ea000000 	b	5b10 <l5702>

00005b0c <l5701>:
    5b0c:	000fffd0 	.word	0x000fffd0

00005b10 <l5702>:
    5b10:	e14c809b 	swpb	r8, fp, [ip]

00005b14 <l5703>:
    5b14:	e1dfe686 	bics	lr, pc, r6, lsl #13

00005b18 <l5704>:
    5b18:	c221e0cd 	eorgt	lr, r1, #205	; 0xcd

00005b1c <l5705>:
    5b1c:	003e3004 	eorseq	r3, lr, r4

00005b20 <l5706>:
    5b20:	e59fb000 	ldr	fp, [pc]	; 5b28 <l5708>

00005b24 <l5707>:
    5b24:	ea000000 	b	5b2c <l5709>

00005b28 <l5708>:
    5b28:	000fffc8 	.word	0x000fffc8

00005b2c <l5709>:
    5b2c:	310b0099 	swpcc	r0, r9, [fp]

00005b30 <l5710>:
    5b30:	e3a03008 	mov	r3, #8

00005b34 <l5711>:
    5b34:	d11d80f3 	ldrshle	r8, [sp, -r3]

00005b38 <l5712>:
    5b38:	d0f6ec89 	rscsle	lr, r6, r9, lsl #25

00005b3c <l5713>:
    5b3c:	181d0200 	ldmdane	sp, {r9}

00005b40 <l5714>:
    5b40:	e59f6000 	ldr	r6, [pc]	; 5b48 <l5716>

00005b44 <l5715>:
    5b44:	ea000000 	b	5b4c <l5717>

00005b48 <l5716>:
    5b48:	000fffe8 	.word	0x000fffe8

00005b4c <l5717>:
    5b4c:	e1464094 	swpb	r4, r4, [r6]

00005b50 <l5718>:
    5b50:	ea000008 	b	5b78 <l5728>

00005b54 <l5719>:
    5b54:	d335047e 	teqle	r5, #2113929216	; 0x7e000000

00005b58 <l5720>:
    5b58:	e0d76003 	sbcs	r6, r7, r3

00005b5c <l5721>:
    5b5c:	c07a5c32 	rsbsgt	r5, sl, r2, lsr ip

00005b60 <l5722>:
    5b60:	b23948d2 	eorslt	r4, r9, #13762560	; 0xd20000

00005b64 <l5723>:
    5b64:	237c003c 	cmncs	ip, #60	; 0x3c

00005b68 <l5724>:
    5b68:	d0755061 	rsbsle	r5, r5, r1, rrx

00005b6c <l5725>:
    5b6c:	a1b0a368 	rorsge	sl, r8, #6

00005b70 <l5726>:
    5b70:	01889a15 	orreq	r9, r8, r5, lsl sl

00005b74 <l5727>:
    5b74:	c1f04886 	mvnsgt	r4, r6, lsl #17

00005b78 <l5728>:
    5b78:	d0be6000 	adcsle	r6, lr, r0

00005b7c <l5729>:
    5b7c:	e1c12113 	bic	r2, r1, r3, lsl r1

00005b80 <l5730>:
    5b80:	e59fc000 	ldr	ip, [pc]	; 5b88 <l5732>

00005b84 <l5731>:
    5b84:	ea000000 	b	5b8c <l5733>

00005b88 <l5732>:
    5b88:	000fffdc 	.word	0x000fffdc

00005b8c <l5733>:
    5b8c:	e10c0097 	swp	r0, r7, [ip]

00005b90 <l5734>:
    5b90:	e1f07d80 	mvns	r7, r0, lsl #27

00005b94 <l5735>:
    5b94:	e1d35c0c 	bics	r5, r3, ip, lsl #24

00005b98 <l5736>:
    5b98:	8a000003 	bhi	5bac <l5741>

00005b9c <l5737>:
    5b9c:	e3790d3b 	cmn	r9, #3776	; 0xec0

00005ba0 <l5738>:
    5ba0:	31e0a6c1 	mvncc	sl, r1, asr #13

00005ba4 <l5739>:
    5ba4:	e3f0ca09 	mvns	ip, #36864	; 0x9000

00005ba8 <l5740>:
    5ba8:	e27ec9a7 	rsbs	ip, lr, #2736128	; 0x29c000

00005bac <l5741>:
    5bac:	813b0000 	teqhi	fp, r0

00005bb0 <l5742>:
    5bb0:	e3a09004 	mov	r9, #4

00005bb4 <l5743>:
    5bb4:	a11d70d9 	ldrsbge	r7, [sp, -r9]

00005bb8 <l5744>:
    5bb8:	213c02e4 	teqcs	ip, r4, ror #5

00005bbc <l5745>:
    5bbc:	e3a0901e 	mov	r9, #30

00005bc0 <l5746>:
    5bc0:	d7cd6009 	strble	r6, [sp, r9]

00005bc4 <l5747>:
    5bc4:	e3a0b01a 	mov	fp, #26

00005bc8 <l5748>:
    5bc8:	e7cd000b 	strb	r0, [sp, fp]

00005bcc <l5749>:
    5bcc:	e0300be6 	eors	r0, r0, r6, ror #23

00005bd0 <l5750>:
    5bd0:	50cf2068 	sbcpl	r2, pc, r8, rrx

00005bd4 <l5751>:
    5bd4:	e5dd5035 	ldrb	r5, [sp, #53]	; 0x35

00005bd8 <l5752>:
    5bd8:	e3a0b02c 	mov	fp, #44	; 0x2c

00005bdc <l5753>:
    5bdc:	e78d400b 	str	r4, [sp, fp]

00005be0 <l5754>:
    5be0:	3136006e 	teqcc	r6, lr, rrx

00005be4 <l5755>:
    5be4:	62a03512 	adcvs	r3, r0, #75497472	; 0x4800000

00005be8 <l5756>:
    5be8:	e8bd556f 	pop	{r0, r1, r2, r3, r5, r6, r8, sl, ip, lr}

00005bec <l5757>:
    5bec:	3a000007 	bcc	5c10 <l5766>

00005bf0 <l5758>:
    5bf0:	e28010cc 	add	r1, r0, #204	; 0xcc

00005bf4 <l5759>:
    5bf4:	81360066 	teqhi	r6, r6, rrx

00005bf8 <l5760>:
    5bf8:	924926fa 	subls	r2, r9, #262144000	; 0xfa00000

00005bfc <l5761>:
    5bfc:	c2623c61 	rsbgt	r3, r2, #24832	; 0x6100

00005c00 <l5762>:
    5c00:	c27102b7 	rsbsgt	r0, r1, #1879048203	; 0x7000000b

00005c04 <l5763>:
    5c04:	416fef16 	clzmi	lr, r6

00005c08 <l5764>:
    5c08:	e37e0d2d 	cmn	lr, #2880	; 0xb40

00005c0c <l5765>:
    5c0c:	ea000000 	b	5c14 <l5767>

00005c10 <l5766>:
    5c10:	eafffff7 	b	5bf4 <l5759>

00005c14 <l5767>:
    5c14:	e3a04000 	mov	r4, #0

00005c18 <l5768>:
    5c18:	b79d2004 	ldrlt	r2, [sp, r4]

00005c1c <l5769>:
    5c1c:	c3c612d9 	bicgt	r1, r6, #-1879048179	; 0x9000000d

00005c20 <l5770>:
    5c20:	e20ce12d 	and	lr, ip, #1073741835	; 0x4000000b

00005c24 <l5771>:
    5c24:	e15606c0 	cmp	r6, r0, asr #13

00005c28 <l5772>:
    5c28:	e59f0000 	ldr	r0, [pc]	; 5c30 <l5774>

00005c2c <l5773>:
    5c2c:	ea000000 	b	5c34 <l5775>

00005c30 <l5774>:
    5c30:	000fffe0 	.word	0x000fffe0

00005c34 <l5775>:
    5c34:	e1402091 	swpb	r2, r1, [r0]

00005c38 <l5776>:
    5c38:	e59f8000 	ldr	r8, [pc]	; 5c40 <l5778>

00005c3c <l5777>:
    5c3c:	ea000000 	b	5c44 <l5779>

00005c40 <l5778>:
    5c40:	000fffb0 	.word	0x000fffb0

00005c44 <l5779>:
    5c44:	e1089094 	swp	r9, r4, [r8]

00005c48 <l5780>:
    5c48:	e2279d0a 	eor	r9, r7, #640	; 0x280

00005c4c <l5781>:
    5c4c:	e05b7b5a 	subs	r7, fp, sl, asr fp

00005c50 <l5782>:
    5c50:	e1d96436 	bics	r6, r9, r6, lsr r4

00005c54 <l5783>:
    5c54:	e59f5000 	ldr	r5, [pc]	; 5c5c <l5785>

00005c58 <l5784>:
    5c58:	ea000000 	b	5c60 <l5786>

00005c5c <l5785>:
    5c5c:	000fffc4 	.word	0x000fffc4

00005c60 <l5786>:
    5c60:	2145b09c 	swpbcs	fp, ip, [r5]

00005c64 <l5787>:
    5c64:	40f6e446 	rscsmi	lr, r6, r6, asr #8

00005c68 <l5788>:
    5c68:	41570008 	cmpmi	r7, r8

00005c6c <l5789>:
    5c6c:	915d70d1 	ldrsbls	r7, [sp, #-1]

00005c70 <l5790>:
    5c70:	e41d1008 	ldr	r1, [sp], #-8

00005c74 <l5791>:
    5c74:	e16f1f14 	clz	r1, r4

00005c78 <l5792>:
    5c78:	e04e4007 	sub	r4, lr, r7

00005c7c <l5793>:
    5c7c:	e59f7000 	ldr	r7, [pc]	; 5c84 <l5795>

00005c80 <l5794>:
    5c80:	ea000000 	b	5c88 <l5796>

00005c84 <l5795>:
    5c84:	000fffb8 	.word	0x000fffb8

00005c88 <l5796>:
    5c88:	91475094 	swpbls	r5, r4, [r7]

00005c8c <l5797>:
    5c8c:	e3100d97 	tst	r0, #9664	; 0x25c0

00005c90 <l5798>:
    5c90:	e152035a 	cmp	r2, sl, asr r3

00005c94 <l5799>:
    5c94:	258d300c 	strcs	r3, [sp, #12]

00005c98 <l5800>:
    5c98:	8038ef80 	eorshi	lr, r8, r0, lsl #31

00005c9c <l5801>:
    5c9c:	a13e0005 	teqge	lr, r5

00005ca0 <l5802>:
    5ca0:	e071e471 	rsbs	lr, r1, r1, ror r4

00005ca4 <l5803>:
    5ca4:	e59fc000 	ldr	ip, [pc]	; 5cac <l5805>

00005ca8 <l5804>:
    5ca8:	ea000000 	b	5cb0 <l5806>

00005cac <l5805>:
    5cac:	000fffe0 	.word	0x000fffe0

00005cb0 <l5806>:
    5cb0:	e14ca091 	swpb	sl, r1, [ip]

00005cb4 <l5807>:
    5cb4:	62433353 	subvs	r3, r3, #1275068417	; 0x4c000001

00005cb8 <l5808>:
    5cb8:	e54d3002 	strb	r3, [sp, #-2]

00005cbc <l5809>:
    5cbc:	61f0a002 	mvnsvs	sl, r2

00005cc0 <l5810>:
    5cc0:	e3a0b02c 	mov	fp, #44	; 0x2c

00005cc4 <l5811>:
    5cc4:	e61d500b 	ldr	r5, [sp], -fp

00005cc8 <l5812>:
    5cc8:	e1b02879 	rors	r2, r9, r8

00005ccc <l5813>:
    5ccc:	e1b06004 	movs	r6, r4

00005cd0 <l5814>:
    5cd0:	e0385006 	eors	r5, r8, r6

00005cd4 <l5815>:
    5cd4:	835101e9 	cmphi	r1, #1073741882	; 0x4000003a

00005cd8 <l5816>:
    5cd8:	e050bda3 	subs	fp, r0, r3, lsr #27

00005cdc <l5817>:
    5cdc:	e59fb000 	ldr	fp, [pc]	; 5ce4 <l5819>

00005ce0 <l5818>:
    5ce0:	ea000000 	b	5ce8 <l5820>

00005ce4 <l5819>:
    5ce4:	000fffc0 	.word	0x000fffc0

00005ce8 <l5820>:
    5ce8:	e14b8096 	swpb	r8, r6, [fp]

00005cec <l5821>:
    5cec:	e3a07008 	mov	r7, #8

00005cf0 <l5822>:
    5cf0:	e7adf007 	str	pc, [sp, r7]!

00005cf4 <l5823>:
    5cf4:	e16f9f10 	clz	r9, r0

00005cf8 <l5824>:
    5cf8:	e59f6000 	ldr	r6, [pc]	; 5d00 <l5826>

00005cfc <l5825>:
    5cfc:	ea000000 	b	5d04 <l5827>

00005d00 <l5826>:
    5d00:	000fffa0 	.word	0x000fffa0

00005d04 <l5827>:
    5d04:	e1063099 	swp	r3, r9, [r6]

00005d08 <l5828>:
    5d08:	ea000005 	b	5d24 <l5835>

00005d0c <l5829>:
    5d0c:	e280100f 	add	r1, r0, #15

00005d10 <l5830>:
    5d10:	c0b8a0c6 	adcsgt	sl, r8, r6, asr #1

00005d14 <l5831>:
    5d14:	b15a000b 	cmplt	sl, fp

00005d18 <l5832>:
    5d18:	e16f9f15 	clz	r9, r5

00005d1c <l5833>:
    5d1c:	b2483302 	sublt	r3, r8, #134217728	; 0x8000000

00005d20 <l5834>:
    5d20:	ea000000 	b	5d28 <l5836>

00005d24 <l5835>:
    5d24:	eafffff9 	b	5d10 <l5830>

00005d28 <l5836>:
    5d28:	e319055e 	tst	r9, #394264576	; 0x17800000

00005d2c <l5837>:
    5d2c:	e29c366d 	adds	r3, ip, #114294784	; 0x6d00000

00005d30 <l5838>:
    5d30:	a0482a72 	subge	r2, r8, r2, ror sl

00005d34 <l5839>:
    5d34:	e3300b2a 	teq	r0, #43008	; 0xa800

00005d38 <l5840>:
    5d38:	e1a00000 	nop			; (mov r0, r0)

00005d3c <l5841>:
    5d3c:	aa000003 	bge	5d50 <l5846>

00005d40 <l5842>:
    5d40:	e280105d 	add	r1, r0, #93	; 0x5d

00005d44 <l5843>:
    5d44:	b136000f 	teqlt	r6, pc

00005d48 <l5844>:
    5d48:	80ce4c6a 	sbchi	r4, lr, sl, ror #24

00005d4c <l5845>:
    5d4c:	ea000000 	b	5d54 <l5847>

00005d50 <l5846>:
    5d50:	eafffffb 	b	5d44 <l5843>

00005d54 <l5847>:
    5d54:	815b0d42 	cmphi	fp, r2, asr #26

00005d58 <l5848>:
    5d58:	81dd90db 	ldrsbhi	r9, [sp, #11]

00005d5c <l5849>:
    5d5c:	7a000008 	bvc	5d84 <l5859>

00005d60 <l5850>:
    5d60:	815b0476 	cmphi	fp, r6, ror r4

00005d64 <l5851>:
    5d64:	a1879008 	orrge	r9, r7, r8

00005d68 <l5852>:
    5d68:	e1b0074c 	asrs	r0, ip, #14

00005d6c <l5853>:
    5d6c:	6051748f 	subsvs	r7, r1, pc, lsl #9

00005d70 <l5854>:
    5d70:	11e0b00e 	mvnne	fp, lr

00005d74 <l5855>:
    5d74:	02a34a3b 	adceq	r4, r3, #241664	; 0x3b000

00005d78 <l5856>:
    5d78:	00e0700a 	rsceq	r7, r0, sl

00005d7c <l5857>:
    5d7c:	708a17ca 	addvc	r1, sl, sl, asr #15

00005d80 <l5858>:
    5d80:	e048e005 	sub	lr, r8, r5

00005d84 <l5859>:
    5d84:	e1b0ad68 	rors	sl, r8, #26

00005d88 <l5860>:
    5d88:	e1120668 	tst	r2, r8, ror #12

00005d8c <l5861>:
    5d8c:	e1300855 	teq	r0, r5, asr r8

00005d90 <l5862>:
    5d90:	116f0f12 	clzne	r0, r2

00005d94 <l5863>:
    5d94:	318e8133 	orrcc	r8, lr, r3, lsr r1

00005d98 <l5864>:
    5d98:	a0886063 	addge	r6, r8, r3, rrx

00005d9c <l5865>:
    5d9c:	e1380064 	teq	r8, r4, rrx

00005da0 <l5866>:
    5da0:	e3cacdbd 	bic	ip, sl, #12096	; 0x2f40

00005da4 <l5867>:
    5da4:	a1340007 	teqge	r4, r7

00005da8 <l5868>:
    5da8:	b0f3a004 	rscslt	sl, r3, r4

00005dac <l5869>:
    5dac:	e16f2f1c 	clz	r2, ip

00005db0 <l5870>:
    5db0:	e0d06270 	sbcs	r6, r0, r0, ror r2

00005db4 <l5871>:
    5db4:	ea000006 	b	5dd4 <l5879>

00005db8 <l5872>:
    5db8:	e280106f 	add	r1, r0, #111	; 0x6f

00005dbc <l5873>:
    5dbc:	e11b000f 	tst	fp, pc

00005dc0 <l5874>:
    5dc0:	a08b9ae3 	addge	r9, fp, r3, ror #21

00005dc4 <l5875>:
    5dc4:	90333001 	eorsls	r3, r3, r1

00005dc8 <l5876>:
    5dc8:	71750a46 	cmnvc	r5, r6, asr #20

00005dcc <l5877>:
    5dcc:	b0406849 	sublt	r6, r0, r9, asr #16

00005dd0 <l5878>:
    5dd0:	ea000000 	b	5dd8 <l5880>

00005dd4 <l5879>:
    5dd4:	eafffff8 	b	5dbc <l5873>

00005dd8 <l5880>:
    5dd8:	e1710a40 	cmn	r1, r0, asr #20

00005ddc <l5881>:
    5ddc:	516f7f11 	clzpl	r7, r1

00005de0 <l5882>:
    5de0:	e1390815 	teq	r9, r5, lsl r8

00005de4 <l5883>:
    5de4:	e3a08024 	mov	r8, #36	; 0x24

00005de8 <l5884>:
    5de8:	819d60d8 	ldrsbhi	r6, [sp, r8]

00005dec <l5885>:
    5dec:	d1cd91b8 	strhle	r9, [sp, #24]

00005df0 <l5886>:
    5df0:	b0fc4d06 	rscslt	r4, ip, r6, lsl #26

00005df4 <l5887>:
    5df4:	c89d0dcd 	ldmgt	sp, {r0, r2, r3, r6, r7, r8, sl, fp}

00005df8 <l5888>:
    5df8:	b1790408 	cmnlt	r9, r8, lsl #8

00005dfc <l5889>:
    5dfc:	c1e05e1e 	mvngt	r5, lr, lsl lr

00005e00 <l5890>:
    5e00:	e48d5028 	str	r5, [sp], #40	; 0x28

00005e04 <l5891>:
    5e04:	c0334131 	eorsgt	r4, r3, r1, lsr r1

00005e08 <l5892>:
    5e08:	e15d23d8 	ldrsb	r2, [sp, #-56]	; 0xffffffc8

00005e0c <l5893>:
    5e0c:	e3a0b030 	mov	fp, #48	; 0x30

00005e10 <l5894>:
    5e10:	911d40bb 	ldrhls	r4, [sp, -fp]

00005e14 <l5895>:
    5e14:	8a000005 	bhi	5e30 <l5902>

00005e18 <l5896>:
    5e18:	e280109e 	add	r1, r0, #158	; 0x9e

00005e1c <l5897>:
    5e1c:	e2f680c0 	rscs	r8, r6, #192	; 0xc0

00005e20 <l5898>:
    5e20:	421a350d 	andsmi	r3, sl, #54525952	; 0x3400000

00005e24 <l5899>:
    5e24:	e131000f 	teq	r1, pc

00005e28 <l5900>:
    5e28:	833300e5 	teqhi	r3, #229	; 0xe5

00005e2c <l5901>:
    5e2c:	ea000000 	b	5e34 <l5903>

00005e30 <l5902>:
    5e30:	eafffff9 	b	5e1c <l5897>

00005e34 <l5903>:
    5e34:	4181bb53 	orrmi	fp, r1, r3, asr fp

00005e38 <l5904>:
    5e38:	e1120008 	tst	r2, r8

00005e3c <l5905>:
    5e3c:	b16f9f17 	clzlt	r9, r7

00005e40 <l5906>:
    5e40:	a0dc4003 	sbcsge	r4, ip, r3

00005e44 <l5907>:
    5e44:	e386cbfd 	orr	ip, r6, #259072	; 0x3f400

00005e48 <l5908>:
    5e48:	015d80d1 	ldrsbeq	r8, [sp, #-1]

00005e4c <l5909>:
    5e4c:	e3a04034 	mov	r4, #52	; 0x34

00005e50 <l5910>:
    5e50:	e61de004 	ldr	lr, [sp], -r4

00005e54 <l5911>:
    5e54:	e3a0702e 	mov	r7, #46	; 0x2e

00005e58 <l5912>:
    5e58:	018da0b7 	strheq	sl, [sp, r7]

00005e5c <l5913>:
    5e5c:	e1a00000 	nop			; (mov r0, r0)

00005e60 <l5914>:
    5e60:	75cd401c 	strbvc	r4, [sp, #28]

00005e64 <l5915>:
    5e64:	9094c061 	addsls	ip, r4, r1, rrx

00005e68 <l5916>:
    5e68:	3332022a 	teqcc	r2, #-1610612734	; 0xa0000002

00005e6c <l5917>:
    5e6c:	e37800ae 	cmn	r8, #174	; 0xae

00005e70 <l5918>:
    5e70:	21b0baec 	rorscs	fp, ip, #21

00005e74 <l5919>:
    5e74:	e1cd80b6 	strh	r8, [sp, #6]

00005e78 <l5920>:
    5e78:	ea000003 	b	5e8c <l5925>

00005e7c <l5921>:
    5e7c:	e2801079 	add	r1, r0, #121	; 0x79

00005e80 <l5922>:
    5e80:	01932068 	orrseq	r2, r3, r8, rrx

00005e84 <l5923>:
    5e84:	c0025064 	andgt	r5, r2, r4, rrx

00005e88 <l5924>:
    5e88:	ea000000 	b	5e90 <l5926>

00005e8c <l5925>:
    5e8c:	eafffffb 	b	5e80 <l5922>

00005e90 <l5926>:
    5e90:	809f4d87 	addshi	r4, pc, r7, lsl #27

00005e94 <l5927>:
    5e94:	c08b5573 	addgt	r5, fp, r3, ror r5

00005e98 <l5928>:
    5e98:	d197306f 	orrsle	r3, r7, pc, rrx

00005e9c <l5929>:
    5e9c:	522f0932 	eorpl	r0, pc, #819200	; 0xc8000

00005ea0 <l5930>:
    5ea0:	e186b067 	orr	fp, r6, r7, rrx

00005ea4 <l5931>:
    5ea4:	01a08006 	moveq	r8, r6

00005ea8 <l5932>:
    5ea8:	c0670002 	rsbgt	r0, r7, r2

00005eac <l5933>:
    5eac:	c1dd92f8 	ldrshgt	r9, [sp, #40]	; 0x28

00005eb0 <l5934>:
    5eb0:	31867002 	orrcc	r7, r6, r2

00005eb4 <l5935>:
    5eb4:	e0470008 	sub	r0, r7, r8

00005eb8 <l5936>:
    5eb8:	d2c1e2a2 	sbcle	lr, r1, #536870922	; 0x2000000a

00005ebc <l5937>:
    5ebc:	e8addbad 	stmia	sp!, {r0, r2, r3, r5, r7, r8, r9, fp, ip, lr, pc}

00005ec0 <l5938>:
    5ec0:	e171000e 	cmn	r1, lr

00005ec4 <l5939>:
    5ec4:	aa000002 	bge	5ed4 <l5943>

00005ec8 <l5940>:
    5ec8:	e0e1000a 	rsc	r0, r1, sl

00005ecc <l5941>:
    5ecc:	21390a51 	teqcs	r9, r1, asr sl

00005ed0 <l5942>:
    5ed0:	704b3005 	subvc	r3, fp, r5

00005ed4 <l5943>:
    5ed4:	e1f08008 	mvns	r8, r8

00005ed8 <l5944>:
    5ed8:	21cb006a 	biccs	r0, fp, sl, rrx

00005edc <l5945>:
    5edc:	116f4f12 	clzne	r4, r2

00005ee0 <l5946>:
    5ee0:	01e0ac30 	mvneq	sl, r0, lsr ip

00005ee4 <l5947>:
    5ee4:	533c0e1b 	teqpl	ip, #432	; 0x1b0

00005ee8 <l5948>:
    5ee8:	91f05108 	mvnsls	r5, r8, lsl #2

00005eec <l5949>:
    5eec:	e092a002 	adds	sl, r2, r2

00005ef0 <l5950>:
    5ef0:	e397b73e 	orrs	fp, r7, #16252928	; 0xf80000

00005ef4 <l5951>:
    5ef4:	e0b55249 	adcs	r5, r5, r9, asr #4

00005ef8 <l5952>:
    5ef8:	e90d8088 	stmdb	sp, {r3, r7, pc}

00005efc <l5953>:
    5efc:	21d94060 	bicscs	r4, r9, r0, rrx

00005f00 <l5954>:
    5f00:	71947067 	orrsvc	r7, r4, r7, rrx

00005f04 <l5955>:
    5f04:	d50d8018 	strle	r8, [sp, #-24]

00005f08 <l5956>:
    5f08:	40fc6837 	rscsmi	r6, ip, r7, lsr r8

00005f0c <l5957>:
    5f0c:	c02a445a 	eorgt	r4, sl, sl, asr r4

00005f10 <l5958>:
    5f10:	e3a080dc 	mov	r8, #220	; 0xdc

00005f14 <l5959>:
    5f14:	e3a0901a 	mov	r9, #26

00005f18 <l5960>:
    5f18:	711da0b9 	ldrhvc	sl, [sp, -r9]

00005f1c <l5961>:
    5f1c:	e3a01030 	mov	r1, #48	; 0x30

00005f20 <l5962>:
    5f20:	e60d6001 	str	r6, [sp], -r1

00005f24 <l5963>:
    5f24:	788d0816 	stmvc	sp, {r1, r2, r4, fp}

00005f28 <l5964>:
    5f28:	45dd9040 	ldrbmi	r9, [sp, #64]	; 0x40

00005f2c <l5965>:
    5f2c:	e5bd403c 	ldr	r4, [sp, #60]!	; 0x3c

00005f30 <l5966>:
    5f30:	11760275 	cmnne	r6, r5, ror r2

00005f34 <l5967>:
    5f34:	014d33b8 	strheq	r3, [sp, #-56]	; 0xffffffc8

00005f38 <l5968>:
    5f38:	e5ad9004 	str	r9, [sp, #4]!

00005f3c <l5969>:
    5f3c:	40d87229 	sbcsmi	r7, r8, r9, lsr #4

00005f40 <l5970>:
    5f40:	e8bd0012 	pop	{r1, r4}

00005f44 <l5971>:
    5f44:	809e300c 	addshi	r3, lr, ip

00005f48 <l5972>:
    5f48:	61c24971 	bicvs	r4, r2, r1, ror r9

00005f4c <l5973>:
    5f4c:	e3a0e034 	mov	lr, #52	; 0x34

00005f50 <l5974>:
    5f50:	e61d300e 	ldr	r3, [sp], -lr

00005f54 <l5975>:
    5f54:	719b9973 	orrsvc	r9, fp, r3, ror r9

00005f58 <l5976>:
    5f58:	e92d2000 	stmfd	sp!, {sp}

00005f5c <l5977>:
    5f5c:	72b9b23a 	adcsvc	fp, r9, #-1610612733	; 0xa0000003

00005f60 <l5978>:
    5f60:	e35209a1 	cmp	r2, #2637824	; 0x284000

00005f64 <l5979>:
    5f64:	60720a8e 	rsbsvs	r0, r2, lr, lsl #21

00005f68 <l5980>:
    5f68:	e11e0716 	tst	lr, r6, lsl r7

00005f6c <l5981>:
    5f6c:	e0838007 	add	r8, r3, r7

00005f70 <l5982>:
    5f70:	e0d8700a 	sbcs	r7, r8, sl

00005f74 <l5983>:
    5f74:	2a000005 	bcs	5f90 <l5990>

00005f78 <l5984>:
    5f78:	e2801014 	add	r1, r0, #20

00005f7c <l5985>:
    5f7c:	415e0000 	cmpmi	lr, r0

00005f80 <l5986>:
    5f80:	41b0106b 	rrxsmi	r1, fp

00005f84 <l5987>:
    5f84:	23140dd9 	tstcs	r4, #13888	; 0x3640

00005f88 <l5988>:
    5f88:	e3b02051 	movs	r2, #81	; 0x51

00005f8c <l5989>:
    5f8c:	ea000000 	b	5f94 <l5991>

00005f90 <l5990>:
    5f90:	eafffff9 	b	5f7c <l5985>

00005f94 <l5991>:
    5f94:	e3a0a01a 	mov	sl, #26

00005f98 <l5992>:
    5f98:	e18db0ba 	strh	fp, [sp, sl]

00005f9c <l5993>:
    5f9c:	e3a00036 	mov	r0, #54	; 0x36

00005fa0 <l5994>:
    5fa0:	d7dd9000 	ldrble	r9, [sp, r0]

00005fa4 <l5995>:
    5fa4:	3082306c 	addcc	r3, r2, ip, rrx

00005fa8 <l5996>:
    5fa8:	13f04dbe 	mvnsne	r4, #12160	; 0x2f80

00005fac <l5997>:
    5fac:	e3a09010 	mov	r9, #16

00005fb0 <l5998>:
    5fb0:	d79d3009 	ldrle	r3, [sp, r9]

00005fb4 <l5999>:
    5fb4:	e0666066 	rsb	r6, r6, r6, rrx

00005fb8 <l6000>:
    5fb8:	7393678a 	orrsvc	r6, r3, #36175872	; 0x2280000

00005fbc <l6001>:
    5fbc:	e59fc000 	ldr	ip, [pc]	; 5fc4 <l6003>

00005fc0 <l6002>:
    5fc0:	ea000000 	b	5fc8 <l6004>

00005fc4 <l6003>:
    5fc4:	000fffa4 	.word	0x000fffa4

00005fc8 <l6004>:
    5fc8:	510c509b 	swppl	r5, fp, [ip]

00005fcc <l6005>:
    5fcc:	e38816c3 	orr	r1, r8, #204472320	; 0xc300000

00005fd0 <l6006>:
    5fd0:	80010668 	andhi	r0, r1, r8, ror #12

00005fd4 <l6007>:
    5fd4:	e59fe000 	ldr	lr, [pc]	; 5fdc <l6009>

00005fd8 <l6008>:
    5fd8:	ea000000 	b	5fe0 <l6010>

00005fdc <l6009>:
    5fdc:	000fffb0 	.word	0x000fffb0

00005fe0 <l6010>:
    5fe0:	e10e309c 	swp	r3, ip, [lr]

00005fe4 <l6011>:
    5fe4:	21dde2b4 	ldrhcs	lr, [sp, #36]	; 0x24

00005fe8 <l6012>:
    5fe8:	91db6009 	bicsls	r6, fp, r9

00005fec <l6013>:
    5fec:	e59fc000 	ldr	ip, [pc]	; 5ff4 <l6015>

00005ff0 <l6014>:
    5ff0:	ea000000 	b	5ff8 <l6016>

00005ff4 <l6015>:
    5ff4:	000fffb8 	.word	0x000fffb8

00005ff8 <l6016>:
    5ff8:	e10c9090 	swp	r9, r0, [ip]

00005ffc <l6017>:
    5ffc:	e59f8000 	ldr	r8, [pc]	; 6004 <l6019>

00006000 <l6018>:
    6000:	ea000000 	b	6008 <l6020>

00006004 <l6019>:
    6004:	000fffbc 	.word	0x000fffbc

00006008 <l6020>:
    6008:	c1084099 	swpgt	r4, r9, [r8]

0000600c <l6021>:
    600c:	e59f4000 	ldr	r4, [pc]	; 6014 <l6023>

00006010 <l6022>:
    6010:	ea000000 	b	6018 <l6024>

00006014 <l6023>:
    6014:	000fffac 	.word	0x000fffac

00006018 <l6024>:
    6018:	7104609b 	swpvc	r6, fp, [r4]

0000601c <l6025>:
    601c:	02706068 	rsbseq	r6, r0, #104	; 0x68

00006020 <l6026>:
    6020:	01790b3e 	cmneq	r9, lr, lsr fp

00006024 <l6027>:
    6024:	e59fe000 	ldr	lr, [pc]	; 602c <l6029>

00006028 <l6028>:
    6028:	ea000000 	b	6030 <l6030>

0000602c <l6029>:
    602c:	000fffc4 	.word	0x000fffc4

00006030 <l6030>:
    6030:	910e5092 	swpls	r5, r2, [lr]

00006034 <l6031>:
    6034:	e3a03028 	mov	r3, #40	; 0x28

00006038 <l6032>:
    6038:	e69d1003 	ldr	r1, [sp], r3

0000603c <l6033>:
    603c:	788d0010 	stmvc	sp, {r4}

00006040 <l6034>:
    6040:	e3a02000 	mov	r2, #0

00006044 <l6035>:
    6044:	d19d20b2 	ldrhle	r2, [sp, r2]

00006048 <l6036>:
    6048:	b04b6e1e 	sublt	r6, fp, lr, lsl lr

0000604c <l6037>:
    604c:	e3a03018 	mov	r3, #24

00006050 <l6038>:
    6050:	e61de003 	ldr	lr, [sp], -r3

00006054 <l6039>:
    6054:	e1a00000 	nop			; (mov r0, r0)

00006058 <l6040>:
    6058:	e3a06019 	mov	r6, #25

0000605c <l6041>:
    605c:	611d90d6 	ldrsbvs	r9, [sp, -r6]

00006060 <l6042>:
    6060:	a0eb6e3a 	rscge	r6, fp, sl, lsr lr

00006064 <l6043>:
    6064:	400266aa 	andmi	r6, r2, sl, lsr #13

00006068 <l6044>:
    6068:	a2a742a3 	adcge	r4, r7, #805306378	; 0x3000000a

0000606c <l6045>:
    606c:	413e0006 	teqmi	lr, r6

00006070 <l6046>:
    6070:	e3a0a006 	mov	sl, #6

00006074 <l6047>:
    6074:	e19da0da 	ldrsb	sl, [sp, sl]

00006078 <l6048>:
    6078:	e3a0e020 	mov	lr, #32

0000607c <l6049>:
    607c:	b19dc0fe 	ldrshlt	ip, [sp, lr]

00006080 <l6050>:
    6080:	d1380939 	teqle	r8, r9, lsr r9

00006084 <l6051>:
    6084:	e025ce38 	eor	ip, r5, r8, lsr lr

00006088 <l6052>:
    6088:	e1a00000 	nop			; (mov r0, r0)

0000608c <l6053>:
    608c:	e00eab02 	and	sl, lr, r2, lsl #22

00006090 <l6054>:
    6090:	a25038f6 	subsge	r3, r0, #16121856	; 0xf60000

00006094 <l6055>:
    6094:	e3a0b01f 	mov	fp, #31

00006098 <l6056>:
    6098:	e19db0db 	ldrsb	fp, [sp, fp]

0000609c <l6057>:
    609c:	1a000004 	bne	60b4 <l6063>

000060a0 <l6058>:
    60a0:	e212b08a 	ands	fp, r2, #138	; 0x8a

000060a4 <l6059>:
    60a4:	705e3066 	subsvc	r3, lr, r6, rrx

000060a8 <l6060>:
    60a8:	e040b251 	sub	fp, r0, r1, asr r2

000060ac <l6061>:
    60ac:	11e0723e 	mvnne	r7, lr, lsr r2

000060b0 <l6062>:
    60b0:	e16fcf16 	clz	ip, r6

000060b4 <l6063>:
    60b4:	e043c4a3 	sub	ip, r3, r3, lsr #9

000060b8 <l6064>:
    60b8:	e93d0c39 	ldmdb	sp!, {r0, r3, r4, r5, sl, fp}

000060bc <l6065>:
    60bc:	499d1df0 	ldmibmi	sp, {r4, r5, r6, r7, r8, sl, fp, ip}

000060c0 <l6066>:
    60c0:	e0272062 	eor	r2, r7, r2, rrx

000060c4 <l6067>:
    60c4:	e02473ee 	eor	r7, r4, lr, ror #7

000060c8 <l6068>:
    60c8:	d0c3a064 	sbcle	sl, r3, r4, rrx

000060cc <l6069>:
    60cc:	e59f5000 	ldr	r5, [pc]	; 60d4 <l6071>

000060d0 <l6070>:
    60d0:	ea000000 	b	60d8 <l6072>

000060d4 <l6071>:
    60d4:	000fffc0 	.word	0x000fffc0

000060d8 <l6072>:
    60d8:	e1452093 	swpb	r2, r3, [r5]

000060dc <l6073>:
    60dc:	20e65967 	rsccs	r5, r6, r7, ror #18

000060e0 <l6074>:
    60e0:	e3a00040 	mov	r0, #64	; 0x40

000060e4 <l6075>:
    60e4:	019d30f0 	ldrsheq	r3, [sp, r0]

000060e8 <l6076>:
    60e8:	b0ac2c66 	adclt	r2, ip, r6, ror #24

000060ec <l6077>:
    60ec:	e59f7000 	ldr	r7, [pc]	; 60f4 <l6079>

000060f0 <l6078>:
    60f0:	ea000000 	b	60f8 <l6080>

000060f4 <l6079>:
    60f4:	000fffd8 	.word	0x000fffd8

000060f8 <l6080>:
    60f8:	e1079095 	swp	r9, r5, [r7]

000060fc <l6081>:
    60fc:	e3a0e041 	mov	lr, #65	; 0x41

00006100 <l6082>:
    6100:	319db0de 	ldrsbcc	fp, [sp, lr]

00006104 <l6083>:
    6104:	b095cdaf 	addslt	ip, r5, pc, lsr #27

00006108 <l6084>:
    6108:	e3a03020 	mov	r3, #32

0000610c <l6085>:
    610c:	d19d70b3 	ldrhle	r7, [sp, r3]

00006110 <l6086>:
    6110:	e03c4005 	eors	r4, ip, r5

00006114 <l6087>:
    6114:	615db0d1 	ldrsbvs	fp, [sp, #-1]

00006118 <l6088>:
    6118:	6178000c 	cmnvs	r8, ip

0000611c <l6089>:
    611c:	e3a0501d 	mov	r5, #29

00006120 <l6090>:
    6120:	57dd2005 	ldrbpl	r2, [sp, r5]

00006124 <l6091>:
    6124:	e98d3101 	stmib	sp, {r0, r8, ip, sp}

00006128 <l6092>:
    6128:	e269a217 	rsb	sl, r9, #1879048193	; 0x70000001

0000612c <l6093>:
    612c:	e3a09003 	mov	r9, #3

00006130 <l6094>:
    6130:	e74da009 	strb	sl, [sp, -r9]

00006134 <l6095>:
    6134:	e5cd5007 	strb	r5, [sp, #7]

00006138 <l6096>:
    6138:	e0f92062 	rscs	r2, r9, r2, rrx

0000613c <l6097>:
    613c:	e3a0e034 	mov	lr, #52	; 0x34

00006140 <l6098>:
    6140:	e7cd200e 	strb	r2, [sp, lr]

00006144 <l6099>:
    6144:	e1e027c8 	mvn	r2, r8, asr #15

00006148 <l6100>:
    6148:	e59f9000 	ldr	r9, [pc]	; 6150 <l6102>

0000614c <l6101>:
    614c:	ea000000 	b	6154 <l6103>

00006150 <l6102>:
    6150:	000fffb8 	.word	0x000fffb8

00006154 <l6103>:
    6154:	e149509a 	swpb	r5, sl, [r9]

00006158 <l6104>:
    6158:	e59f6000 	ldr	r6, [pc]	; 6160 <l6106>

0000615c <l6105>:
    615c:	ea000000 	b	6164 <l6107>

00006160 <l6106>:
    6160:	000fffd0 	.word	0x000fffd0

00006164 <l6107>:
    6164:	e1460094 	swpb	r0, r4, [r6]

00006168 <l6108>:
    6168:	e3a0c020 	mov	ip, #32

0000616c <l6109>:
    616c:	e19d20fc 	ldrsh	r2, [sp, ip]

00006170 <l6110>:
    6170:	c1720061 	cmngt	r2, r1, rrx

00006174 <l6111>:
    6174:	e18b7001 	orr	r7, fp, r1

00006178 <l6112>:
    6178:	a1dde1d2 	ldrsbge	lr, [sp, #18]

0000617c <l6113>:
    617c:	e5dda018 	ldrb	sl, [sp, #24]

00006180 <l6114>:
    6180:	016f8f10 	clzeq	r8, r0

00006184 <l6115>:
    6184:	e11e0009 	tst	lr, r9

00006188 <l6116>:
    6188:	e3a03014 	mov	r3, #20

0000618c <l6117>:
    618c:	97dd3003 	ldrbls	r3, [sp, r3]

00006190 <l6118>:
    6190:	e59f6000 	ldr	r6, [pc]	; 6198 <l6120>

00006194 <l6119>:
    6194:	ea000000 	b	619c <l6121>

00006198 <l6120>:
    6198:	000fffd4 	.word	0x000fffd4

0000619c <l6121>:
    619c:	c1065092 	swpgt	r5, r2, [r6]

000061a0 <l6122>:
    61a0:	e1530001 	cmp	r3, r1

000061a4 <l6123>:
    61a4:	e15b000a 	cmp	fp, sl

000061a8 <l6124>:
    61a8:	93770541 	cmnls	r7, #272629760	; 0x10400000

000061ac <l6125>:
    61ac:	d16f3f16 	clzle	r3, r6

000061b0 <l6126>:
    61b0:	e59f7000 	ldr	r7, [pc]	; 61b8 <l6128>

000061b4 <l6127>:
    61b4:	ea000000 	b	61bc <l6129>

000061b8 <l6128>:
    61b8:	000fffd0 	.word	0x000fffd0

000061bc <l6129>:
    61bc:	81474092 	swpbhi	r4, r2, [r7]

000061c0 <l6130>:
    61c0:	e1b01712 	lsls	r1, r2, r7

000061c4 <l6131>:
    61c4:	e3a0c02c 	mov	ip, #44	; 0x2c

000061c8 <l6132>:
    61c8:	e7cd300c 	strb	r3, [sp, ip]

000061cc <l6133>:
    61cc:	e3a0002c 	mov	r0, #44	; 0x2c

000061d0 <l6134>:
    61d0:	e69d7000 	ldr	r7, [sp], r0

000061d4 <l6135>:
    61d4:	e16f4f14 	clz	r4, r4

000061d8 <l6136>:
    61d8:	01e0e062 	mvneq	lr, r2, rrx

000061dc <l6137>:
    61dc:	51e0c57e 	mvnpl	ip, lr, ror r5

000061e0 <l6138>:
    61e0:	e0574069 	subs	r4, r7, r9, rrx

000061e4 <l6139>:
    61e4:	e59f7000 	ldr	r7, [pc]	; 61ec <l6141>

000061e8 <l6140>:
    61e8:	ea000000 	b	61f0 <l6142>

000061ec <l6141>:
    61ec:	000fffd4 	.word	0x000fffd4

000061f0 <l6142>:
    61f0:	e1072096 	swp	r2, r6, [r7]

000061f4 <l6143>:
    61f4:	e0600000 	rsb	r0, r0, r0

000061f8 <l6144>:
    61f8:	01d493a4 	bicseq	r9, r4, r4, lsr #7

000061fc <l6145>:
    61fc:	d0f7b065 	rscsle	fp, r7, r5, rrx

00006200 <l6146>:
    6200:	8a000006 	bhi	6220 <l6154>

00006204 <l6147>:
    6204:	e16f6f15 	clz	r6, r5

00006208 <l6148>:
    6208:	71e0c006 	mvnvc	ip, r6

0000620c <l6149>:
    620c:	60fa3930 	rscsvs	r3, sl, r0, lsr r9

00006210 <l6150>:
    6210:	81560006 	cmphi	r6, r6

00006214 <l6151>:
    6214:	e004200a 	and	r2, r4, sl

00006218 <l6152>:
    6218:	a00b3009 	andge	r3, fp, r9

0000621c <l6153>:
    621c:	e1b00003 	movs	r0, r3

00006220 <l6154>:
    6220:	81f0cc54 	mvnshi	ip, r4, asr ip

00006224 <l6155>:
    6224:	e82d6000 	stmda	sp!, {sp, lr}

00006228 <l6156>:
    6228:	e334070e 	teq	r4, #3670016	; 0x380000

0000622c <l6157>:
    622c:	e59f7000 	ldr	r7, [pc]	; 6234 <l6159>

00006230 <l6158>:
    6230:	ea000000 	b	6238 <l6160>

00006234 <l6159>:
    6234:	000fffb4 	.word	0x000fffb4

00006238 <l6160>:
    6238:	81474095 	swpbhi	r4, r5, [r7]

0000623c <l6161>:
    623c:	b2f6bd66 	rscslt	fp, r6, #6528	; 0x1980

00006240 <l6162>:
    6240:	e25a702d 	subs	r7, sl, #45	; 0x2d

00006244 <l6163>:
    6244:	e3a09014 	mov	r9, #20

00006248 <l6164>:
    6248:	c11d20b9 	ldrhgt	r2, [sp, -r9]

0000624c <l6165>:
    624c:	e3a0900e 	mov	r9, #14

00006250 <l6166>:
    6250:	e7dd5009 	ldrb	r5, [sp, r9]

00006254 <l6167>:
    6254:	e17a0005 	cmn	sl, r5

00006258 <l6168>:
    6258:	e065b95a 	rsb	fp, r5, sl, asr r9

0000625c <l6169>:
    625c:	3393ee39 	orrscc	lr, r3, #912	; 0x390

00006260 <l6170>:
    6260:	e3a0c000 	mov	ip, #0

00006264 <l6171>:
    6264:	079d900c 	ldreq	r9, [sp, ip]

00006268 <l6172>:
    6268:	d14dc2b2 	strhle	ip, [sp, #-34]	; 0xffffffde

0000626c <l6173>:
    626c:	e16f6f10 	clz	r6, r0

00006270 <l6174>:
    6270:	e16faf14 	clz	sl, r4

00006274 <l6175>:
    6274:	e3a00018 	mov	r0, #24

00006278 <l6176>:
    6278:	011d30f0 	ldrsheq	r3, [sp, -r0]

0000627c <l6177>:
    627c:	ea000001 	b	6288 <l6180>

00006280 <l6178>:
    6280:	10e66e51 	rscne	r6, r6, r1, asr lr

00006284 <l6179>:
    6284:	e055695e 	subs	r6, r5, lr, asr r9

00006288 <l6180>:
    6288:	e2ee556e 	rsc	r5, lr, #461373440	; 0x1b800000

0000628c <l6181>:
    628c:	e3a05014 	mov	r5, #20

00006290 <l6182>:
    6290:	611d20b5 	ldrhvs	r2, [sp, -r5]

00006294 <l6183>:
    6294:	b3780833 	cmnlt	r8, #3342336	; 0x330000

00006298 <l6184>:
    6298:	e59fc000 	ldr	ip, [pc]	; 62a0 <l6186>

0000629c <l6185>:
    629c:	ea000000 	b	62a4 <l6187>

000062a0 <l6186>:
    62a0:	000fffe8 	.word	0x000fffe8

000062a4 <l6187>:
    62a4:	e10cb094 	swp	fp, r4, [ip]

000062a8 <l6188>:
    62a8:	c0c89650 	sbcgt	r9, r8, r0, asr r6

000062ac <l6189>:
    62ac:	e3a0101e 	mov	r1, #30

000062b0 <l6190>:
    62b0:	c7cdb001 	strbgt	fp, [sp, r1]

000062b4 <l6191>:
    62b4:	e3a0b004 	mov	fp, #4

000062b8 <l6192>:
    62b8:	e19d00bb 	ldrh	r0, [sp, fp]

000062bc <l6193>:
    62bc:	516f8f16 	clzpl	r8, r6

000062c0 <l6194>:
    62c0:	e2c242de 	sbc	r4, r2, #-536870899	; 0xe000000d

000062c4 <l6195>:
    62c4:	c51d1028 	ldrgt	r1, [sp, #-40]	; 0x28

000062c8 <l6196>:
    62c8:	9a000002 	bls	62d8 <l6200>

000062cc <l6197>:
    62cc:	e0794051 	rsbs	r4, r9, r1, asr r0

000062d0 <l6198>:
    62d0:	e047a135 	sub	sl, r7, r5, lsr r1

000062d4 <l6199>:
    62d4:	e1f03c52 	mvns	r3, r2, asr ip

000062d8 <l6200>:
    62d8:	e0327007 	eors	r7, r2, r7

000062dc <l6201>:
    62dc:	e92d8a32 	push	{r1, r4, r5, r9, fp, pc}

000062e0 <l6202>:
    62e0:	e5ddb032 	ldrb	fp, [sp, #50]	; 0x32

000062e4 <l6203>:
    62e4:	a2f61d27 	rscsge	r1, r6, #2496	; 0x9c0

000062e8 <l6204>:
    62e8:	e3a03000 	mov	r3, #0

000062ec <l6205>:
    62ec:	e69d4003 	ldr	r4, [sp], r3

000062f0 <l6206>:
    62f0:	e1170009 	tst	r7, r9

000062f4 <l6207>:
    62f4:	b1c25117 	biclt	r5, r2, r7, lsl r1

000062f8 <l6208>:
    62f8:	e3a03004 	mov	r3, #4

000062fc <l6209>:
    62fc:	e18db0b3 	strh	fp, [sp, r3]

00006300 <l6210>:
    6300:	e59f1000 	ldr	r1, [pc]	; 6308 <l6212>

00006304 <l6211>:
    6304:	ea000000 	b	630c <l6213>

00006308 <l6212>:
    6308:	000fffd8 	.word	0x000fffd8

0000630c <l6213>:
    630c:	a141e09e 	swpbge	lr, lr, [r1]

00006310 <l6214>:
    6310:	e3a09029 	mov	r9, #41	; 0x29

00006314 <l6215>:
    6314:	d7dd7009 	ldrble	r7, [sp, r9]

00006318 <l6216>:
    6318:	e1e0a001 	mvn	sl, r1

0000631c <l6217>:
    631c:	e043a001 	sub	sl, r3, r1

00006320 <l6218>:
    6320:	e05b4009 	subs	r4, fp, r9

00006324 <l6219>:
    6324:	d0fab004 	rscsle	fp, sl, r4

00006328 <l6220>:
    6328:	d15d31f4 	ldrshle	r3, [sp, #-20]	; 0xffffffec

0000632c <l6221>:
    632c:	d1dd72f4 	ldrshle	r7, [sp, #36]	; 0x24

00006330 <l6222>:
    6330:	e13b0005 	teq	fp, r5

00006334 <l6223>:
    6334:	31390415 	teqcc	r9, r5, lsl r4

00006338 <l6224>:
    6338:	e3a01030 	mov	r1, #48	; 0x30

0000633c <l6225>:
    633c:	878d8001 	strhi	r8, [sp, r1]

00006340 <l6226>:
    6340:	d1cd91b6 	strhle	r9, [sp, #22]

00006344 <l6227>:
    6344:	c1cdc0b0 	strhgt	ip, [sp]

00006348 <l6228>:
    6348:	e0458aa2 	sub	r8, r5, r2, lsr #21

0000634c <l6229>:
    634c:	e3a0bb25 	mov	fp, #37888	; 0x9400

00006350 <l6230>:
    6350:	e3a00034 	mov	r0, #52	; 0x34

00006354 <l6231>:
    6354:	578db000 	strpl	fp, [sp, r0]

00006358 <l6232>:
    6358:	d152000e 	cmple	r2, lr

0000635c <l6233>:
    635c:	e06fc003 	rsb	ip, pc, r3

00006360 <l6234>:
    6360:	e3a09004 	mov	r9, #4

00006364 <l6235>:
    6364:	e69d8009 	ldr	r8, [sp], r9

00006368 <l6236>:
    6368:	e8ad1080 	stmia	sp!, {r7, ip}

0000636c <l6237>:
    636c:	e088307e 	add	r3, r8, lr, ror r0

00006370 <l6238>:
    6370:	059d3000 	ldreq	r3, [sp]

00006374 <l6239>:
    6374:	216f7f12 	clzcs	r7, r2

00006378 <l6240>:
    6378:	e93d4004 	ldmdb	sp!, {r2, lr}

0000637c <l6241>:
    637c:	e3a00003 	mov	r0, #3

00006380 <l6242>:
    6380:	67cd4000 	strbvs	r4, [sp, r0]

00006384 <l6243>:
    6384:	e82d6000 	stmda	sp!, {sp, lr}

00006388 <l6244>:
    6388:	e0bebe7a 	adcs	fp, lr, sl, ror lr

0000638c <l6245>:
    638c:	e3a0600c 	mov	r6, #12

00006390 <l6246>:
    6390:	e75d3006 	ldrb	r3, [sp, -r6]

00006394 <l6247>:
    6394:	813703c2 	teqhi	r7, r2, asr #7

00006398 <l6248>:
    6398:	d01a9004 	andsle	r9, sl, r4

0000639c <l6249>:
    639c:	116faf13 	clzne	sl, r3

000063a0 <l6250>:
    63a0:	05cde035 	strbeq	lr, [sp, #53]	; 0x35

000063a4 <l6251>:
    63a4:	21cd60ba 	strhcs	r6, [sp, #10]

000063a8 <l6252>:
    63a8:	c50d2004 	strgt	r2, [sp, #-4]

000063ac <l6253>:
    63ac:	e02fb005 	eor	fp, pc, r5

000063b0 <l6254>:
    63b0:	71dd60b2 	ldrhvc	r6, [sp, #2]

000063b4 <l6255>:
    63b4:	e3a0501e 	mov	r5, #30

000063b8 <l6256>:
    63b8:	418dc0b5 	strhmi	ip, [sp, r5]

000063bc <l6257>:
    63bc:	6061a45a 	rsbvs	sl, r1, sl, asr r4

000063c0 <l6258>:
    63c0:	e3a0c01c 	mov	ip, #28

000063c4 <l6259>:
    63c4:	e68d000c 	str	r0, [sp], ip

000063c8 <l6260>:
    63c8:	215d20b2 	ldrhcs	r2, [sp, #-2]

000063cc <l6261>:
    63cc:	11dd30f0 	ldrshne	r3, [sp]

000063d0 <l6262>:
    63d0:	e158000a 	cmp	r8, sl

000063d4 <l6263>:
    63d4:	e0109052 	ands	r9, r0, r2, asr r0

000063d8 <l6264>:
    63d8:	e1a00000 	nop			; (mov r0, r0)

000063dc <l6265>:
    63dc:	e13b0b30 	teq	fp, r0, lsr fp

000063e0 <l6266>:
    63e0:	d1d1a002 	bicsle	sl, r1, r2

000063e4 <l6267>:
    63e4:	e0d6695c 	sbcs	r6, r6, ip, asr r9

000063e8 <l6268>:
    63e8:	d1350000 	teqle	r5, r0

000063ec <l6269>:
    63ec:	e3a0e002 	mov	lr, #2

000063f0 <l6270>:
    63f0:	a7cd100e 	strbge	r1, [sp, lr]

000063f4 <l6271>:
    63f4:	e1f03065 	mvns	r3, r5, rrx

000063f8 <l6272>:
    63f8:	1a000000 	bne	6400 <l6274>

000063fc <l6273>:
    63fc:	e176046f 	cmn	r6, pc, ror #8

00006400 <l6274>:
    6400:	c16f8f17 	clzgt	r8, r7

00006404 <l6275>:
    6404:	e1a0a921 	lsr	sl, r1, #18

00006408 <l6276>:
    6408:	ea000003 	b	641c <l6281>

0000640c <l6277>:
    640c:	e28010bb 	add	r1, r0, #187	; 0xbb

00006410 <l6278>:
    6410:	b13f0006 	teqlt	pc, r6

00006414 <l6279>:
    6414:	e1d41065 	bics	r1, r4, r5, rrx

00006418 <l6280>:
    6418:	ea000000 	b	6420 <l6282>

0000641c <l6281>:
    641c:	eafffffb 	b	6410 <l6278>

00006420 <l6282>:
    6420:	d269ee21 	rsble	lr, r9, #528	; 0x210

00006424 <l6283>:
    6424:	e52d8014 	str	r8, [sp, #-20]!

00006428 <l6284>:
    6428:	c009b00e 	andgt	fp, r9, lr

0000642c <l6285>:
    642c:	e59f2000 	ldr	r2, [pc]	; 6434 <l6287>

00006430 <l6286>:
    6430:	ea000000 	b	6438 <l6288>

00006434 <l6287>:
    6434:	000fffbc 	.word	0x000fffbc

00006438 <l6288>:
    6438:	8142809e 	swpbhi	r8, lr, [r2]

0000643c <l6289>:
    643c:	e3a0c018 	mov	ip, #24

00006440 <l6290>:
    6440:	e71d800c 	ldr	r8, [sp, -ip]

00006444 <l6291>:
    6444:	90861273 	addls	r1, r6, r3, ror r2

00006448 <l6292>:
    6448:	e92d4602 	push	{r1, r9, sl, lr}

0000644c <l6293>:
    644c:	c1deb150 	bicsgt	fp, lr, r0, asr r1

00006450 <l6294>:
    6450:	e06c4009 	rsb	r4, ip, r9

00006454 <l6295>:
    6454:	e036600f 	eors	r6, r6, pc

00006458 <l6296>:
    6458:	e48d2004 	str	r2, [sp], #4

0000645c <l6297>:
    645c:	e31807ba 	tst	r8, #48758784	; 0x2e80000

00006460 <l6298>:
    6460:	01510630 	cmpeq	r1, r0, lsr r6

00006464 <l6299>:
    6464:	eaffffff 	b	6468 <l6300>

00006468 <l6300>:
    6468:	90dfa6ae 	sbcsls	sl, pc, lr, lsr #13

0000646c <l6301>:
    646c:	e15e0003 	cmp	lr, r3

00006470 <l6302>:
    6470:	e3510a1e 	cmp	r1, #122880	; 0x1e000

00006474 <l6303>:
    6474:	e09a84a9 	adds	r8, sl, r9, lsr #9

00006478 <l6304>:
    6478:	e2403801 	sub	r3, r0, #65536	; 0x10000

0000647c <l6305>:
    647c:	b05cb009 	subslt	fp, ip, r9

00006480 <l6306>:
    6480:	e5ad8014 	str	r8, [sp, #20]!

00006484 <l6307>:
    6484:	6339027f 	teqvs	r9, #-268435449	; 0xf0000007

00006488 <l6308>:
    6488:	e1dd30f4 	ldrsh	r3, [sp, #4]

0000648c <l6309>:
    648c:	8a000004 	bhi	64a4 <l6315>

00006490 <l6310>:
    6490:	e2801092 	add	r1, r0, #146	; 0x92

00006494 <l6311>:
    6494:	e18c000c 	orr	r0, ip, ip

00006498 <l6312>:
    6498:	92eb6803 	rscls	r6, fp, #196608	; 0x30000

0000649c <l6313>:
    649c:	40912d06 	addsmi	r2, r1, r6, lsl #26

000064a0 <l6314>:
    64a0:	ea000000 	b	64a8 <l6316>

000064a4 <l6315>:
    64a4:	eafffffa 	b	6494 <l6311>

000064a8 <l6316>:
    64a8:	21b03000 	movscs	r3, r0

000064ac <l6317>:
    64ac:	e82d0400 	stmda	sp!, {sl}

000064b0 <l6318>:
    64b0:	a0500c28 	subsge	r0, r0, r8, lsr #24

000064b4 <l6319>:
    64b4:	e0469c64 	sub	r9, r6, r4, ror #24

000064b8 <l6320>:
    64b8:	e3a0000e 	mov	r0, #14

000064bc <l6321>:
    64bc:	e19dc0d0 	ldrsb	ip, [sp, r0]

000064c0 <l6322>:
    64c0:	e3a00008 	mov	r0, #8

000064c4 <l6323>:
    64c4:	e74dc000 	strb	ip, [sp, -r0]

000064c8 <l6324>:
    64c8:	c91d1288 	ldmdbgt	sp, {r3, r7, r9, ip}

000064cc <l6325>:
    64cc:	11c5865e 	bicne	r8, r5, lr, asr r6

000064d0 <l6326>:
    64d0:	e40d900c 	str	r9, [sp], #-12

000064d4 <l6327>:
    64d4:	60a74061 	adcvs	r4, r7, r1, rrx

000064d8 <l6328>:
    64d8:	009c1e80 	addseq	r1, ip, r0, lsl #29

000064dc <l6329>:
    64dc:	e3a0e014 	mov	lr, #20

000064e0 <l6330>:
    64e0:	819d30de 	ldrsbhi	r3, [sp, lr]

000064e4 <l6331>:
    64e4:	d01e300b 	andsle	r3, lr, fp

000064e8 <l6332>:
    64e8:	e3a0502e 	mov	r5, #46	; 0x2e

000064ec <l6333>:
    64ec:	719d40b5 	ldrhvc	r4, [sp, r5]

000064f0 <l6334>:
    64f0:	e58d7020 	str	r7, [sp, #32]

000064f4 <l6335>:
    64f4:	e5adb034 	str	fp, [sp, #52]!	; 0x34

000064f8 <l6336>:
    64f8:	e3180413 	tst	r8, #318767104	; 0x13000000

000064fc <l6337>:
    64fc:	213a0630 	teqcs	sl, r0, lsr r6

00006500 <l6338>:
    6500:	e3a06030 	mov	r6, #48	; 0x30

00006504 <l6339>:
    6504:	e61d8006 	ldr	r8, [sp], -r6

00006508 <l6340>:
    6508:	315d60fe 	ldrshcc	r6, [sp, #-14]

0000650c <l6341>:
    650c:	90ee3000 	rscls	r3, lr, r0

00006510 <l6342>:
    6510:	e0e40004 	rsc	r0, r4, r4

00006514 <l6343>:
    6514:	617e015a 	cmnvs	lr, sl, asr r1

00006518 <l6344>:
    6518:	ea000002 	b	6528 <l6348>

0000651c <l6345>:
    651c:	e356045d 	cmp	r6, #1560281088	; 0x5d000000

00006520 <l6346>:
    6520:	e010ac72 	ands	sl, r0, r2, ror ip

00006524 <l6347>:
    6524:	e16f8f1e 	clz	r8, lr

00006528 <l6348>:
    6528:	02f2c106 	rscseq	ip, r2, #-2147483647	; 0x80000001

0000652c <l6349>:
    652c:	6195b066 	orrsvs	fp, r5, r6, rrx

00006530 <l6350>:
    6530:	50665d6a 	rsbpl	r5, r6, sl, ror #26

00006534 <l6351>:
    6534:	e1e0a813 	mvn	sl, r3, lsl r8

00006538 <l6352>:
    6538:	e3a02008 	mov	r2, #8

0000653c <l6353>:
    653c:	279d1002 	ldrcs	r1, [sp, r2]

00006540 <l6354>:
    6540:	c2e96a2b 	rscgt	r6, r9, #176128	; 0x2b000

00006544 <l6355>:
    6544:	41f0600e 	mvnsmi	r6, lr

00006548 <l6356>:
    6548:	e2b08068 	adcs	r8, r0, #104	; 0x68

0000654c <l6357>:
    654c:	e0597062 	subs	r7, r9, r2, rrx

00006550 <l6358>:
    6550:	e59f6000 	ldr	r6, [pc]	; 6558 <l6360>

00006554 <l6359>:
    6554:	ea000000 	b	655c <l6361>

00006558 <l6360>:
    6558:	000fffa8 	.word	0x000fffa8

0000655c <l6361>:
    655c:	e1067097 	swp	r7, r7, [r6]

00006560 <l6362>:
    6560:	6a000005 	bvs	657c <l6369>

00006564 <l6363>:
    6564:	e2801026 	add	r1, r0, #38	; 0x26

00006568 <l6364>:
    6568:	23100307 	tstcs	r0, #469762048	; 0x1c000000

0000656c <l6365>:
    656c:	d25474d2 	subsle	r7, r4, #-771751936	; 0xd2000000

00006570 <l6366>:
    6570:	e3c493af 	bic	r9, r4, #-1140850686	; 0xbc000002

00006574 <l6367>:
    6574:	92553181 	subsls	r3, r5, #1073741856	; 0x40000020

00006578 <l6368>:
    6578:	ea000000 	b	6580 <l6370>

0000657c <l6369>:
    657c:	eafffff9 	b	6568 <l6364>

00006580 <l6370>:
    6580:	e0429232 	sub	r9, r2, r2, lsr r2

00006584 <l6371>:
    6584:	d15d60f4 	ldrshle	r6, [sp, #-4]

00006588 <l6372>:
    6588:	e0356cee 	eors	r6, r5, lr, ror #25

0000658c <l6373>:
    658c:	e3a0c008 	mov	ip, #8

00006590 <l6374>:
    6590:	519d40dc 	ldrsbpl	r4, [sp, ip]

00006594 <l6375>:
    6594:	b2f6bf46 	rscslt	fp, r6, #280	; 0x118

00006598 <l6376>:
    6598:	e59f1000 	ldr	r1, [pc]	; 65a0 <l6378>

0000659c <l6377>:
    659c:	ea000000 	b	65a4 <l6379>

000065a0 <l6378>:
    65a0:	000fffc8 	.word	0x000fffc8

000065a4 <l6379>:
    65a4:	e1412095 	swpb	r2, r5, [r1]

000065a8 <l6380>:
    65a8:	e3a0c020 	mov	ip, #32

000065ac <l6381>:
    65ac:	e68dc00c 	str	ip, [sp], ip

000065b0 <l6382>:
    65b0:	c3f0435f 	mvnsgt	r4, #2080374785	; 0x7c000001

000065b4 <l6383>:
    65b4:	e59f6000 	ldr	r6, [pc]	; 65bc <l6385>

000065b8 <l6384>:
    65b8:	ea000000 	b	65c0 <l6386>

000065bc <l6385>:
    65bc:	000fffd8 	.word	0x000fffd8

000065c0 <l6386>:
    65c0:	e146909b 	swpb	r9, fp, [r6]

000065c4 <l6387>:
    65c4:	e1a00000 	nop			; (mov r0, r0)

000065c8 <l6388>:
    65c8:	2a000000 	bcs	65d0 <l6390>

000065cc <l6389>:
    65cc:	016fbf13 	clzeq	fp, r3

000065d0 <l6390>:
    65d0:	917c0005 	cmnls	ip, r5

000065d4 <l6391>:
    65d4:	e3a02008 	mov	r2, #8

000065d8 <l6392>:
    65d8:	e7ad4002 	str	r4, [sp, r2]!

000065dc <l6393>:
    65dc:	ca000002 	bgt	65ec <l6397>

000065e0 <l6394>:
    65e0:	e28010ea 	add	r1, r0, #234	; 0xea

000065e4 <l6395>:
    65e4:	e1c2e00b 	bic	lr, r2, fp

000065e8 <l6396>:
    65e8:	ea000000 	b	65f0 <l6398>

000065ec <l6397>:
    65ec:	eafffffc 	b	65e4 <l6395>

000065f0 <l6398>:
    65f0:	ea000004 	b	6608 <l6404>

000065f4 <l6399>:
    65f4:	e28010a4 	add	r1, r0, #164	; 0xa4

000065f8 <l6400>:
    65f8:	d2057b45 	andle	r7, r5, #70656	; 0x11400

000065fc <l6401>:
    65fc:	60334008 	eorsvs	r4, r3, r8

00006600 <l6402>:
    6600:	50c2e719 	sbcpl	lr, r2, r9, lsl r7

00006604 <l6403>:
    6604:	ea000000 	b	660c <l6405>

00006608 <l6404>:
    6608:	eafffffa 	b	65f8 <l6400>

0000660c <l6405>:
    660c:	e0a62004 	adc	r2, r6, r4

00006610 <l6406>:
    6610:	c54d702a 	strbgt	r7, [sp, #-42]	; 0x2a

00006614 <l6407>:
    6614:	41750e50 	cmnmi	r5, r0, asr lr

00006618 <l6408>:
    6618:	ea000004 	b	6630 <l6414>

0000661c <l6409>:
    661c:	81d47063 	bicshi	r7, r4, r3, rrx

00006620 <l6410>:
    6620:	106e200e 	rsbne	r2, lr, lr

00006624 <l6411>:
    6624:	e3370b05 	teq	r7, #5120	; 0x1400

00006628 <l6412>:
    6628:	e08f800b 	add	r8, pc, fp

0000662c <l6413>:
    662c:	e0898517 	add	r8, r9, r7, lsl r5

00006630 <l6414>:
    6630:	a1a03e32 	lsrge	r3, r2, lr

00006634 <l6415>:
    6634:	e05b7872 	subs	r7, fp, r2, ror r8

00006638 <l6416>:
    6638:	922731fa 	eorls	r3, r7, #-2147483586	; 0x8000003e

0000663c <l6417>:
    663c:	a17b0940 	cmnge	fp, r0, asr #18

00006640 <l6418>:
    6640:	e1a00000 	nop			; (mov r0, r0)

00006644 <l6419>:
    6644:	081d4d9e 	ldmdaeq	sp, {r1, r2, r3, r4, r7, r8, sl, fp, lr}

00006648 <l6420>:
    6648:	e59f6000 	ldr	r6, [pc]	; 6650 <l6422>

0000664c <l6421>:
    664c:	ea000000 	b	6654 <l6423>

00006650 <l6422>:
    6650:	000fffc0 	.word	0x000fffc0

00006654 <l6423>:
    6654:	9106c090 	swpls	ip, r0, [r6]

00006658 <l6424>:
    6658:	e3a06028 	mov	r6, #40	; 0x28

0000665c <l6425>:
    665c:	e71d8006 	ldr	r8, [sp, -r6]

00006660 <l6426>:
    6660:	e9bd1800 	ldmib	sp!, {fp, ip}

00006664 <l6427>:
    6664:	72907429 	addsvc	r7, r0, #687865856	; 0x29000000

00006668 <l6428>:
    6668:	e3a09026 	mov	r9, #38	; 0x26

0000666c <l6429>:
    666c:	e74de009 	strb	lr, [sp, -r9]

00006670 <l6430>:
    6670:	e59fe000 	ldr	lr, [pc]	; 6678 <l6432>

00006674 <l6431>:
    6674:	ea000000 	b	667c <l6433>

00006678 <l6432>:
    6678:	000fffc8 	.word	0x000fffc8

0000667c <l6433>:
    667c:	010e5098 	swpeq	r5, r8, [lr]

00006680 <l6434>:
    6680:	0a000006 	beq	66a0 <l6442>

00006684 <l6435>:
    6684:	e280101b 	add	r1, r0, #27

00006688 <l6436>:
    6688:	215a0918 	cmpcs	sl, r8, lsl r9

0000668c <l6437>:
    668c:	e21eb33a 	ands	fp, lr, #-402653184	; 0xe8000000

00006690 <l6438>:
    6690:	b0f7b006 	rscslt	fp, r7, r6

00006694 <l6439>:
    6694:	7138074f 	teqvc	r8, pc, asr #14

00006698 <l6440>:
    6698:	e0740c87 	rsbs	r0, r4, r7, lsl #25

0000669c <l6441>:
    669c:	ea000000 	b	66a4 <l6443>

000066a0 <l6442>:
    66a0:	eafffff8 	b	6688 <l6436>

000066a4 <l6443>:
    66a4:	e1dee064 	bics	lr, lr, r4, rrx

000066a8 <l6444>:
    66a8:	e130074b 	teq	r0, fp, asr #14

000066ac <l6445>:
    66ac:	e15d50de 	ldrsb	r5, [sp, #-14]

000066b0 <l6446>:
    66b0:	e0430006 	sub	r0, r3, r6

000066b4 <l6447>:
    66b4:	e82d1140 	stmda	sp!, {r6, r8, ip}

000066b8 <l6448>:
    66b8:	406f1068 	rsbmi	r1, pc, r8, rrx

000066bc <l6449>:
    66bc:	80e142eb 	rschi	r4, r1, fp, ror #5

000066c0 <l6450>:
    66c0:	90a51001 	adcls	r1, r5, r1

000066c4 <l6451>:
    66c4:	81700b81 	cmnhi	r0, r1, lsl #23

000066c8 <l6452>:
    66c8:	e59f1000 	ldr	r1, [pc]	; 66d0 <l6454>

000066cc <l6453>:
    66cc:	ea000000 	b	66d4 <l6455>

000066d0 <l6454>:
    66d0:	000fffb0 	.word	0x000fffb0

000066d4 <l6455>:
    66d4:	e1412094 	swpb	r2, r4, [r1]

000066d8 <l6456>:
    66d8:	20a1b566 	adccs	fp, r1, r6, ror #10

000066dc <l6457>:
    66dc:	e59f4000 	ldr	r4, [pc]	; 66e4 <l6459>

000066e0 <l6458>:
    66e0:	ea000000 	b	66e8 <l6460>

000066e4 <l6459>:
    66e4:	000fffc8 	.word	0x000fffc8

000066e8 <l6460>:
    66e8:	e1445091 	swpb	r5, r1, [r4]

000066ec <l6461>:
    66ec:	e3a03004 	mov	r3, #4

000066f0 <l6462>:
    66f0:	c7cde003 	strbgt	lr, [sp, r3]

000066f4 <l6463>:
    66f4:	e14d70b8 	strh	r7, [sp, #-8]

000066f8 <l6464>:
    66f8:	70b2173a 	adcsvc	r1, r2, sl, lsr r7

000066fc <l6465>:
    66fc:	e1b0a003 	movs	sl, r3

00006700 <l6466>:
    6700:	c0006e41 	andgt	r6, r0, r1, asr #28

00006704 <l6467>:
    6704:	40765062 	rsbsmi	r5, r6, r2, rrx

00006708 <l6468>:
    6708:	e1a00000 	nop			; (mov r0, r0)

0000670c <l6469>:
    670c:	e40d1014 	str	r1, [sp], #-20

00006710 <l6470>:
    6710:	b1f0a00a 	mvnslt	sl, sl

00006714 <l6471>:
    6714:	e3a0c01c 	mov	ip, #28

00006718 <l6472>:
    6718:	e7bd800c 	ldr	r8, [sp, ip]!

0000671c <l6473>:
    671c:	3073a000 	rsbscc	sl, r3, r0

00006720 <l6474>:
    6720:	615d70fa 	ldrshvs	r7, [sp, #-10]

00006724 <l6475>:
    6724:	701bc002 	andsvc	ip, fp, r2

00006728 <l6476>:
    6728:	01590000 	cmpeq	r9, r0

0000672c <l6477>:
    672c:	e1ceb555 	bic	fp, lr, r5, asr r5

00006730 <l6478>:
    6730:	e59f8000 	ldr	r8, [pc]	; 6738 <l6480>

00006734 <l6479>:
    6734:	ea000000 	b	673c <l6481>

00006738 <l6480>:
    6738:	000fffb8 	.word	0x000fffb8

0000673c <l6481>:
    673c:	e1483094 	swpb	r3, r4, [r8]

00006740 <l6482>:
    6740:	351d8010 	ldrcc	r8, [sp, #-16]

00006744 <l6483>:
    6744:	e0e21138 	rsc	r1, r2, r8, lsr r1

00006748 <l6484>:
    6748:	b1740b6c 	cmnlt	r4, ip, ror #22

0000674c <l6485>:
    674c:	e3a0c010 	mov	ip, #16

00006750 <l6486>:
    6750:	a71de00c 	ldrge	lr, [sp, -ip]

00006754 <l6487>:
    6754:	251da018 	ldrcs	sl, [sp, #-24]

00006758 <l6488>:
    6758:	e91d5dbd 	ldmdb	sp, {r0, r2, r3, r4, r5, r7, r8, sl, fp, ip, lr}

0000675c <l6489>:
    675c:	ba000006 	blt	677c <l6497>

00006760 <l6490>:
    6760:	61d6e004 	bicsvs	lr, r6, r4

00006764 <l6491>:
    6764:	30a2700f 	adccc	r7, r2, pc

00006768 <l6492>:
    6768:	e0387006 	eors	r7, r8, r6

0000676c <l6493>:
    676c:	e032e068 	eors	lr, r2, r8, rrx

00006770 <l6494>:
    6770:	b1a0a00b 	movlt	sl, fp

00006774 <l6495>:
    6774:	e3b08f4d 	movs	r8, #308	; 0x134

00006778 <l6496>:
    6778:	e06361ca 	rsb	r6, r3, sl, asr #3

0000677c <l6497>:
    677c:	90b4bc89 	adcsls	fp, r4, r9, lsl #25

00006780 <l6498>:
    6780:	d1740c5a 	cmnle	r4, sl, asr ip

00006784 <l6499>:
    6784:	e40dc018 	str	ip, [sp], #-24

00006788 <l6500>:
    6788:	b55db01c 	ldrblt	fp, [sp, #-28]

0000678c <l6501>:
    678c:	119ce064 	orrsne	lr, ip, r4, rrx

00006790 <l6502>:
    6790:	e15db1db 	ldrsb	fp, [sp, #-27]	; 0xffffffe5

00006794 <l6503>:
    6794:	8074ca02 	rsbshi	ip, r4, r2, lsl #20

00006798 <l6504>:
    6798:	e59f9000 	ldr	r9, [pc]	; 67a0 <l6506>

0000679c <l6505>:
    679c:	ea000000 	b	67a4 <l6507>

000067a0 <l6506>:
    67a0:	000fffe0 	.word	0x000fffe0

000067a4 <l6507>:
    67a4:	e149809a 	swpb	r8, sl, [r9]

000067a8 <l6508>:
    67a8:	41730006 	cmnmi	r3, r6

000067ac <l6509>:
    67ac:	850d3004 	strhi	r3, [sp, #-4]

000067b0 <l6510>:
    67b0:	e3cee331 	bic	lr, lr, #-1006632960	; 0xc4000000

000067b4 <l6511>:
    67b4:	e98d8201 	stmib	sp, {r0, r9, pc}

000067b8 <l6512>:
    67b8:	e0a6a540 	adc	sl, r6, r0, asr #10

000067bc <l6513>:
    67bc:	e9bd4280 	ldmib	sp!, {r7, r9, lr}

000067c0 <l6514>:
    67c0:	ea000002 	b	67d0 <l6518>

000067c4 <l6515>:
    67c4:	e280101f 	add	r1, r0, #31

000067c8 <l6516>:
    67c8:	10a770a5 	adcne	r7, r7, r5, lsr #1

000067cc <l6517>:
    67cc:	ea000000 	b	67d4 <l6519>

000067d0 <l6518>:
    67d0:	eafffffc 	b	67c8 <l6516>

000067d4 <l6519>:
    67d4:	e35f0be6 	cmp	pc, #235520	; 0x39800

000067d8 <l6520>:
    67d8:	e051bc17 	subs	fp, r1, r7, lsl ip

000067dc <l6521>:
    67dc:	50c40848 	sbcpl	r0, r4, r8, asr #16

000067e0 <l6522>:
    67e0:	31a04c3a 	lsrcc	r4, sl, ip

000067e4 <l6523>:
    67e4:	105bb254 	subsne	fp, fp, r4, asr r2

000067e8 <l6524>:
    67e8:	c04f6bc2 	subgt	r6, pc, r2, asr #23

000067ec <l6525>:
    67ec:	71df5008 	bicsvc	r5, pc, r8

000067f0 <l6526>:
    67f0:	e21a3836 	ands	r3, sl, #3538944	; 0x360000

000067f4 <l6527>:
    67f4:	e15a07e2 	cmp	sl, r2, ror #15

000067f8 <l6528>:
    67f8:	e0337009 	eors	r7, r3, r9

000067fc <l6529>:
    67fc:	e59f2000 	ldr	r2, [pc]	; 6804 <l6531>

00006800 <l6530>:
    6800:	ea000000 	b	6808 <l6532>

00006804 <l6531>:
    6804:	000fffb0 	.word	0x000fffb0

00006808 <l6532>:
    6808:	e142a099 	swpb	sl, r9, [r2]

0000680c <l6533>:
    680c:	11760919 	cmnne	r6, r9, lsl r9

00006810 <l6534>:
    6810:	e59fe000 	ldr	lr, [pc]	; 6818 <l6536>

00006814 <l6535>:
    6814:	ea000000 	b	681c <l6537>

00006818 <l6536>:
    6818:	000fffd8 	.word	0x000fffd8

0000681c <l6537>:
    681c:	714eb093 	swpbvc	fp, r3, [lr]

00006820 <l6538>:
    6820:	e232807c 	eors	r8, r2, #124	; 0x7c

00006824 <l6539>:
    6824:	e04a906b 	sub	r9, sl, fp, rrx

00006828 <l6540>:
    6828:	0a000000 	beq	6830 <l6542>

0000682c <l6541>:
    682c:	b1e03c10 	mvnlt	r3, r0, lsl ip

00006830 <l6542>:
    6830:	e1750470 	cmn	r5, r0, ror r4

00006834 <l6543>:
    6834:	e35c0747 	cmp	ip, #18612224	; 0x11c0000

00006838 <l6544>:
    6838:	0048a06f 	subeq	sl, r8, pc, rrx

0000683c <l6545>:
    683c:	60c46004 	sbcvs	r6, r4, r4

00006840 <l6546>:
    6840:	e1380003 	teq	r8, r3

00006844 <l6547>:
    6844:	e9ad08a8 	stmib	sp!, {r3, r5, r7, fp}

00006848 <l6548>:
    6848:	e91d5ffb 	ldmdb	sp, {r0, r1, r3, r4, r5, r6, r7, r8, r9, sl, fp, ip, lr}

0000684c <l6549>:
    684c:	e3140146 	tst	r4, #-2147483631	; 0x80000011

00006850 <l6550>:
    6850:	e1a00000 	nop			; (mov r0, r0)

00006854 <l6551>:
    6854:	e065a00b 	rsb	sl, r5, fp

00006858 <l6552>:
    6858:	83360a85 	teqhi	r6, #544768	; 0x85000

0000685c <l6553>:
    685c:	2a000007 	bcs	6880 <l6562>

00006860 <l6554>:
    6860:	d1e0581b 	mvnle	r5, fp, lsl r8

00006864 <l6555>:
    6864:	e1f0500f 	mvns	r5, pc

00006868 <l6556>:
    6868:	105c800a 	subsne	r8, ip, sl

0000686c <l6557>:
    686c:	e0c0421b 	sbc	r4, r0, fp, lsl r2

00006870 <l6558>:
    6870:	e138030c 	teq	r8, ip, lsl #6

00006874 <l6559>:
    6874:	d0a2e8c9 	adcle	lr, r2, r9, asr #17

00006878 <l6560>:
    6878:	a0744159 	rsbsge	r4, r4, r9, asr r1

0000687c <l6561>:
    687c:	e1b02573 	rors	r2, r3, r5

00006880 <l6562>:
    6880:	10513637 	subsne	r3, r1, r7, lsr r6

00006884 <l6563>:
    6884:	e9bd0800 	ldmib	sp!, {fp}

00006888 <l6564>:
    6888:	20a78ce7 	adccs	r8, r7, r7, ror #25

0000688c <l6565>:
    688c:	705c1068 	subsvc	r1, ip, r8, rrx

00006890 <l6566>:
    6890:	e16f0f13 	clz	r0, r3

00006894 <l6567>:
    6894:	e16fbf18 	clz	fp, r8

00006898 <l6568>:
    6898:	e59fb000 	ldr	fp, [pc]	; 68a0 <l6570>

0000689c <l6569>:
    689c:	ea000000 	b	68a4 <l6571>

000068a0 <l6570>:
    68a0:	000fffb0 	.word	0x000fffb0

000068a4 <l6571>:
    68a4:	e14b0092 	swpb	r0, r2, [fp]

000068a8 <l6572>:
    68a8:	e3a0b01e 	mov	fp, #30

000068ac <l6573>:
    68ac:	e10dc0bb 	strh	ip, [sp, -fp]

000068b0 <l6574>:
    68b0:	e3a03046 	mov	r3, #70	; 0x46

000068b4 <l6575>:
    68b4:	911d60b3 	ldrhls	r6, [sp, -r3]

000068b8 <l6576>:
    68b8:	51780571 	cmnpl	r8, r1, ror r5

000068bc <l6577>:
    68bc:	716f6f17 	clzvc	r6, r7

000068c0 <l6578>:
    68c0:	e1c2e589 	bic	lr, r2, r9, lsl #11

000068c4 <l6579>:
    68c4:	e15d61f6 	ldrsh	r6, [sp, #-22]	; 0xffffffea

000068c8 <l6580>:
    68c8:	e3a04032 	mov	r4, #50	; 0x32

000068cc <l6581>:
    68cc:	b74da004 	strblt	sl, [sp, -r4]

000068d0 <l6582>:
    68d0:	e3a0c00d 	mov	ip, #13

000068d4 <l6583>:
    68d4:	e11db0dc 	ldrsb	fp, [sp, -ip]

000068d8 <l6584>:
    68d8:	431404a9 	tstmi	r4, #-1459617792	; 0xa9000000

000068dc <l6585>:
    68dc:	e1380064 	teq	r8, r4, rrx

000068e0 <l6586>:
    68e0:	e3a08010 	mov	r8, #16

000068e4 <l6587>:
    68e4:	e73d3008 	ldr	r3, [sp, -r8]!

000068e8 <l6588>:
    68e8:	e25365b7 	subs	r6, r3, #767557632	; 0x2dc00000

000068ec <l6589>:
    68ec:	4116000f 	tstmi	r6, pc

000068f0 <l6590>:
    68f0:	e0e74006 	rsc	r4, r7, r6

000068f4 <l6591>:
    68f4:	e1dd20bc 	ldrh	r2, [sp, #12]

000068f8 <l6592>:
    68f8:	d1e06b31 	mvnle	r6, r1, lsr fp

000068fc <l6593>:
    68fc:	9012a0e2 	andsls	sl, r2, r2, ror #1

00006900 <l6594>:
    6900:	e3a0700f 	mov	r7, #15

00006904 <l6595>:
    6904:	319d30d7 	ldrsbcc	r3, [sp, r7]

00006908 <l6596>:
    6908:	1a000002 	bne	6918 <l6600>

0000690c <l6597>:
    690c:	71e09be4 	mvnvc	r9, r4, ror #23

00006910 <l6598>:
    6910:	e233e167 	eors	lr, r3, #-1073741799	; 0xc0000019

00006914 <l6599>:
    6914:	e1db700b 	bics	r7, fp, fp

00006918 <l6600>:
    6918:	e032e976 	eors	lr, r2, r6, ror r9

0000691c <l6601>:
    691c:	e233702a 	eors	r7, r3, #42	; 0x2a

00006920 <l6602>:
    6920:	e3a09018 	mov	r9, #24

00006924 <l6603>:
    6924:	e11d40b9 	ldrh	r4, [sp, -r9]

00006928 <l6604>:
    6928:	e58d0004 	str	r0, [sp, #4]

0000692c <l6605>:
    692c:	e3a05003 	mov	r5, #3

00006930 <l6606>:
    6930:	375d2005 	ldrbcc	r2, [sp, -r5]

00006934 <l6607>:
    6934:	61f04009 	mvnsvs	r4, r9

00006938 <l6608>:
    6938:	51b09066 	rrxspl	r9, r6

0000693c <l6609>:
    693c:	e1dd30f4 	ldrsh	r3, [sp, #4]

00006940 <l6610>:
    6940:	2151075a 	cmpcs	r1, sl, asr r7

00006944 <l6611>:
    6944:	d35e0bee 	cmple	lr, #243712	; 0x3b800

00006948 <l6612>:
    6948:	516f8f17 	clzpl	r8, r7

0000694c <l6613>:
    694c:	b09f7004 	addslt	r7, pc, r4

00006950 <l6614>:
    6950:	e3f06bfe 	mvns	r6, #260096	; 0x3f800

00006954 <l6615>:
    6954:	e41da02c 	ldr	sl, [sp], #-44	; 0x2c

00006958 <l6616>:
    6958:	e3a00016 	mov	r0, #22

0000695c <l6617>:
    695c:	e7dde000 	ldrb	lr, [sp, r0]

00006960 <l6618>:
    6960:	213c0f69 	teqcs	ip, r9, ror #30

00006964 <l6619>:
    6964:	e24100f5 	sub	r0, r1, #245	; 0xf5

00006968 <l6620>:
    6968:	e0200060 	eor	r0, r0, r0, rrx

0000696c <l6621>:
    696c:	e92d2000 	stmfd	sp!, {sp}

00006970 <l6622>:
    6970:	e99d57ff 	ldmib	sp, {r0, r1, r2, r3, r4, r5, r6, r7, r8, r9, sl, ip, lr}

00006974 <l6623>:
    6974:	93550699 	cmpls	r5, #160432128	; 0x9900000

00006978 <l6624>:
    6978:	ea000003 	b	698c <l6629>

0000697c <l6625>:
    697c:	93cb8822 	bicls	r8, fp, #2228224	; 0x220000

00006980 <l6626>:
    6980:	c137000f 	teqgt	r7, pc

00006984 <l6627>:
    6984:	e0a6bea3 	adc	fp, r6, r3, lsr #29

00006988 <l6628>:
    6988:	e1ce4008 	bic	r4, lr, r8

0000698c <l6629>:
    698c:	e0707b55 	rsbs	r7, r0, r5, asr fp

00006990 <l6630>:
    6990:	e0d0c874 	sbcs	ip, r0, r4, ror r8

00006994 <l6631>:
    6994:	d151003b 	cmple	r1, fp, lsr r0

00006998 <l6632>:
    6998:	51180d0c 	tstpl	r8, ip, lsl #26

0000699c <l6633>:
    699c:	3a000003 	bcc	69b0 <l6638>

000069a0 <l6634>:
    69a0:	d0426401 	suble	r6, r2, r1, lsl #8

000069a4 <l6635>:
    69a4:	a1f07013 	mvnsge	r7, r3, lsl r0

000069a8 <l6636>:
    69a8:	e1f05236 	mvns	r5, r6, lsr r2

000069ac <l6637>:
    69ac:	a2628dd6 	rsbge	r8, r2, #13696	; 0x3580

000069b0 <l6638>:
    69b0:	b16f6f18 	clzlt	r6, r8

000069b4 <l6639>:
    69b4:	e9adc0f2 	stmib	sp!, {r1, r4, r5, r6, r7, lr, pc}

000069b8 <l6640>:
    69b8:	e0082118 	and	r2, r8, r8, lsl r1

000069bc <l6641>:
    69bc:	e3a0b014 	mov	fp, #20

000069c0 <l6642>:
    69c0:	e11da0db 	ldrsb	sl, [sp, -fp]

000069c4 <l6643>:
    69c4:	804265cb 	subhi	r6, r2, fp, asr #11

000069c8 <l6644>:
    69c8:	e034cb58 	eors	ip, r4, r8, asr fp

000069cc <l6645>:
    69cc:	d2f41dad 	rscsle	r1, r4, #11072	; 0x2b40

000069d0 <l6646>:
    69d0:	b057600f 	subslt	r6, r7, pc

000069d4 <l6647>:
    69d4:	a5ddc01c 	ldrbge	ip, [sp, #28]

000069d8 <l6648>:
    69d8:	e15d71f6 	ldrsh	r7, [sp, #-22]	; 0xffffffea

000069dc <l6649>:
    69dc:	e1e0ba46 	mvn	fp, r6, asr #20

000069e0 <l6650>:
    69e0:	e9bd00a0 	ldmib	sp!, {r5, r7}

000069e4 <l6651>:
    69e4:	e0fb300e 	rscs	r3, fp, lr

000069e8 <l6652>:
    69e8:	e3a09000 	mov	r9, #0

000069ec <l6653>:
    69ec:	d19d80f9 	ldrshle	r8, [sp, r9]

000069f0 <l6654>:
    69f0:	e0da4006 	sbcs	r4, sl, r6

000069f4 <l6655>:
    69f4:	b18b1925 	orrlt	r1, fp, r5, lsr #18

000069f8 <l6656>:
    69f8:	e59f4000 	ldr	r4, [pc]	; 6a00 <l6658>

000069fc <l6657>:
    69fc:	ea000000 	b	6a04 <l6659>

00006a00 <l6658>:
    6a00:	000fffcc 	.word	0x000fffcc

00006a04 <l6659>:
    6a04:	e1046095 	swp	r6, r5, [r4]

00006a08 <l6660>:
    6a08:	e3a0801e 	mov	r8, #30

00006a0c <l6661>:
    6a0c:	311d00b8 	ldrhcc	r0, [sp, -r8]

00006a10 <l6662>:
    6a10:	e0476069 	sub	r6, r7, r9, rrx

00006a14 <l6663>:
    6a14:	e26fe18d 	rsb	lr, pc, #1073741859	; 0x40000023

00006a18 <l6664>:
    6a18:	c15d42db 	ldrsbgt	r4, [sp, #-43]	; 0xffffffd5

00006a1c <l6665>:
    6a1c:	e159006f 	cmp	r9, pc, rrx

00006a20 <l6666>:
    6a20:	226c6509 	rsbcs	r6, ip, #37748736	; 0x2400000

00006a24 <l6667>:
    6a24:	11c54000 	bicne	r4, r5, r0

00006a28 <l6668>:
    6a28:	da000005 	ble	6a44 <l6675>

00006a2c <l6669>:
    6a2c:	e28010a2 	add	r1, r0, #162	; 0xa2

00006a30 <l6670>:
    6a30:	90a1300c 	adcls	r3, r1, ip

00006a34 <l6671>:
    6a34:	10d6100e 	sbcsne	r1, r6, lr

00006a38 <l6672>:
    6a38:	62aa8ba3 	adcvs	r8, sl, #166912	; 0x28c00

00006a3c <l6673>:
    6a3c:	724664e3 	subvc	r6, r6, #-486539264	; 0xe3000000

00006a40 <l6674>:
    6a40:	ea000000 	b	6a48 <l6676>

00006a44 <l6675>:
    6a44:	eafffff9 	b	6a30 <l6670>

00006a48 <l6676>:
    6a48:	da000004 	ble	6a60 <l6682>

00006a4c <l6677>:
    6a4c:	e28010f6 	add	r1, r0, #246	; 0xf6

00006a50 <l6678>:
    6a50:	a132021e 	teqge	r2, lr, lsl r2

00006a54 <l6679>:
    6a54:	91e00006 	mvnls	r0, r6

00006a58 <l6680>:
    6a58:	90a64002 	adcls	r4, r6, r2

00006a5c <l6681>:
    6a5c:	ea000000 	b	6a64 <l6683>

00006a60 <l6682>:
    6a60:	eafffffa 	b	6a50 <l6678>

00006a64 <l6683>:
    6a64:	aa000003 	bge	6a78 <l6688>

00006a68 <l6684>:
    6a68:	e28010b8 	add	r1, r0, #184	; 0xb8

00006a6c <l6685>:
    6a6c:	e023ec20 	eor	lr, r3, r0, lsr #24

00006a70 <l6686>:
    6a70:	e09ec00a 	adds	ip, lr, sl

00006a74 <l6687>:
    6a74:	ea000000 	b	6a7c <l6689>

00006a78 <l6688>:
    6a78:	eafffffb 	b	6a6c <l6685>

00006a7c <l6689>:
    6a7c:	70413003 	subvc	r3, r1, r3

00006a80 <l6690>:
    6a80:	81c38aa2 	bichi	r8, r3, r2, lsr #21

00006a84 <l6691>:
    6a84:	e203bc2a 	and	fp, r3, #10752	; 0x2a00

00006a88 <l6692>:
    6a88:	451d5018 	ldrmi	r5, [sp, #-24]

00006a8c <l6693>:
    6a8c:	4a000001 	bmi	6a98 <l6696>

00006a90 <l6694>:
    6a90:	e3d6680a 	bics	r6, r6, #655360	; 0xa0000

00006a94 <l6695>:
    6a94:	11e02158 	mvnne	r2, r8, asr r1

00006a98 <l6696>:
    6a98:	604c69ef 	subvs	r6, ip, pc, ror #19

00006a9c <l6697>:
    6a9c:	538a0409 	orrpl	r0, sl, #150994944	; 0x9000000

00006aa0 <l6698>:
    6aa0:	e01e000c 	ands	r0, lr, ip

00006aa4 <l6699>:
    6aa4:	4042200e 	submi	r2, r2, lr

00006aa8 <l6700>:
    6aa8:	e59f9000 	ldr	r9, [pc]	; 6ab0 <l6702>

00006aac <l6701>:
    6aac:	ea000000 	b	6ab4 <l6703>

00006ab0 <l6702>:
    6ab0:	000fffe4 	.word	0x000fffe4

00006ab4 <l6703>:
    6ab4:	41490097 	swpbmi	r0, r7, [r9]

00006ab8 <l6704>:
    6ab8:	e59f5000 	ldr	r5, [pc]	; 6ac0 <l6706>

00006abc <l6705>:
    6abc:	ea000000 	b	6ac4 <l6707>

00006ac0 <l6706>:
    6ac0:	000fffe8 	.word	0x000fffe8

00006ac4 <l6707>:
    6ac4:	e145e094 	swpb	lr, r4, [r5]

00006ac8 <l6708>:
    6ac8:	e0d46002 	sbcs	r6, r4, r2

00006acc <l6709>:
    6acc:	e257ea07 	subs	lr, r7, #28672	; 0x7000

00006ad0 <l6710>:
    6ad0:	e15d90dc 	ldrsb	r9, [sp, #-12]

00006ad4 <l6711>:
    6ad4:	62a9b7e5 	adcvs	fp, r9, #60030976	; 0x3940000

00006ad8 <l6712>:
    6ad8:	b03aa514 	eorslt	sl, sl, r4, lsl r5

00006adc <l6713>:
    6adc:	e0eca060 	rsc	sl, ip, r0, rrx

00006ae0 <l6714>:
    6ae0:	e59f4000 	ldr	r4, [pc]	; 6ae8 <l6716>

00006ae4 <l6715>:
    6ae4:	ea000000 	b	6aec <l6717>

00006ae8 <l6716>:
    6ae8:	000fffa0 	.word	0x000fffa0

00006aec <l6717>:
    6aec:	e1446090 	swpb	r6, r0, [r4]

00006af0 <l6718>:
    6af0:	e2482009 	sub	r2, r8, #9

00006af4 <l6719>:
    6af4:	91520000 	cmpls	r2, r0

00006af8 <l6720>:
    6af8:	e40d3024 	str	r3, [sp], #-36	; 0x24

00006afc <l6721>:
    6afc:	e59f1000 	ldr	r1, [pc]	; 6b04 <l6723>

00006b00 <l6722>:
    6b00:	ea000000 	b	6b08 <l6724>

00006b04 <l6723>:
    6b04:	000fffd4 	.word	0x000fffd4

00006b08 <l6724>:
    6b08:	e141309b 	swpb	r3, fp, [r1]

00006b0c <l6725>:
    6b0c:	523b80bc 	eorspl	r8, fp, #188	; 0xbc

00006b10 <l6726>:
    6b10:	e1a00000 	nop			; (mov r0, r0)

00006b14 <l6727>:
    6b14:	904acaef 	subls	ip, sl, pc, ror #21

00006b18 <l6728>:
    6b18:	e2fb502e 	rscs	r5, fp, #46	; 0x2e

00006b1c <l6729>:
    6b1c:	e59f8000 	ldr	r8, [pc]	; 6b24 <l6731>

00006b20 <l6730>:
    6b20:	ea000000 	b	6b28 <l6732>

00006b24 <l6731>:
    6b24:	000fffb4 	.word	0x000fffb4

00006b28 <l6732>:
    6b28:	e148b097 	swpb	fp, r7, [r8]

00006b2c <l6733>:
    6b2c:	e01f300b 	ands	r3, pc, fp

00006b30 <l6734>:
    6b30:	e5bd201c 	ldr	r2, [sp, #28]!

00006b34 <l6735>:
    6b34:	e15d20d8 	ldrsb	r2, [sp, #-8]

00006b38 <l6736>:
    6b38:	e82d4d14 	stmda	sp!, {r2, r4, r8, sl, fp, lr}

00006b3c <l6737>:
    6b3c:	d1b05006 	movsle	r5, r6

00006b40 <l6738>:
    6b40:	3073506e 	rsbscc	r5, r3, lr, rrx

00006b44 <l6739>:
    6b44:	e0409005 	sub	r9, r0, r5

00006b48 <l6740>:
    6b48:	e1dd52fa 	ldrsh	r5, [sp, #42]	; 0x2a

00006b4c <l6741>:
    6b4c:	aa000002 	bge	6b5c <l6745>

00006b50 <l6742>:
    6b50:	e28010af 	add	r1, r0, #175	; 0xaf

00006b54 <l6743>:
    6b54:	e0315001 	eors	r5, r1, r1

00006b58 <l6744>:
    6b58:	ea000000 	b	6b60 <l6746>

00006b5c <l6745>:
    6b5c:	eafffffc 	b	6b54 <l6743>

00006b60 <l6746>:
    6b60:	80da6e55 	sbcshi	r6, sl, r5, asr lr

00006b64 <l6747>:
    6b64:	e25ea4a3 	subs	sl, lr, #-1560281088	; 0xa3000000

00006b68 <l6748>:
    6b68:	20f87000 	rscscs	r7, r8, r0

00006b6c <l6749>:
    6b6c:	908acfe1 	addls	ip, sl, r1, ror #31

00006b70 <l6750>:
    6b70:	e0d2ec11 	sbcs	lr, r2, r1, lsl ip

00006b74 <l6751>:
    6b74:	e026200f 	eor	r2, r6, pc

00006b78 <l6752>:
    6b78:	d2fc5937 	rscsle	r5, ip, #901120	; 0xdc000

00006b7c <l6753>:
    6b7c:	83340163 	teqhi	r4, #-1073741800	; 0xc0000018

00006b80 <l6754>:
    6b80:	e3a0403f 	mov	r4, #63	; 0x3f

00006b84 <l6755>:
    6b84:	97cd0004 	strbls	r0, [sp, r4]

00006b88 <l6756>:
    6b88:	e0a26009 	adc	r6, r2, r9

00006b8c <l6757>:
    6b8c:	e0f87533 	rscs	r7, r8, r3, lsr r5

00006b90 <l6758>:
    6b90:	e9ad1901 	stmib	sp!, {r0, r8, fp, ip}

00006b94 <l6759>:
    6b94:	e1cd81bc 	strh	r8, [sp, #28]

00006b98 <l6760>:
    6b98:	31f0ec51 	mvnscc	lr, r1, asr ip

00006b9c <l6761>:
    6b9c:	e239266a 	eors	r2, r9, #111149056	; 0x6a00000

00006ba0 <l6762>:
    6ba0:	e2711b81 	rsbs	r1, r1, #132096	; 0x20400

00006ba4 <l6763>:
    6ba4:	c13a0b10 	teqgt	sl, r0, lsl fp

00006ba8 <l6764>:
    6ba8:	43160004 	tstmi	r6, #4

00006bac <l6765>:
    6bac:	c13e006f 	teqgt	lr, pc, rrx

00006bb0 <l6766>:
    6bb0:	e54d201c 	strb	r2, [sp, #-28]

00006bb4 <l6767>:
    6bb4:	e3a0b002 	mov	fp, #2

00006bb8 <l6768>:
    6bb8:	e10de0bb 	strh	lr, [sp, -fp]

00006bbc <l6769>:
    6bbc:	e59fb000 	ldr	fp, [pc]	; 6bc4 <l6771>

00006bc0 <l6770>:
    6bc0:	ea000000 	b	6bc8 <l6772>

00006bc4 <l6771>:
    6bc4:	000fffd0 	.word	0x000fffd0

00006bc8 <l6772>:
    6bc8:	b14bc093 	swpblt	ip, r3, [fp]

00006bcc <l6773>:
    6bcc:	c15de1d5 	ldrsbgt	lr, [sp, #-21]	; 0xffffffeb

00006bd0 <l6774>:
    6bd0:	da000008 	ble	6bf8 <l6784>

00006bd4 <l6775>:
    6bd4:	e3d52411 	bics	r2, r5, #285212672	; 0x11000000

00006bd8 <l6776>:
    6bd8:	b0772656 	rsbslt	r2, r7, r6, asr r6

00006bdc <l6777>:
    6bdc:	e0453b19 	sub	r3, r5, r9, lsl fp

00006be0 <l6778>:
    6be0:	61b01009 	movsvs	r1, r9

00006be4 <l6779>:
    6be4:	a256471e 	subsge	r4, r6, #7864320	; 0x780000

00006be8 <l6780>:
    6be8:	e028e2ec 	eor	lr, r8, ip, ror #5

00006bec <l6781>:
    6bec:	7372070a 	cmnvc	r2, #2621440	; 0x280000

00006bf0 <l6782>:
    6bf0:	22418622 	subcs	r8, r1, #35651584	; 0x2200000

00006bf4 <l6783>:
    6bf4:	e1d47a39 	bics	r7, r4, r9, lsr sl

00006bf8 <l6784>:
    6bf8:	c0245063 	eorgt	r5, r4, r3, rrx

00006bfc <l6785>:
    6bfc:	091d0040 	ldmdbeq	sp, {r6}

00006c00 <l6786>:
    6c00:	e3a0c011 	mov	ip, #17

00006c04 <l6787>:
    6c04:	27cda00c 	strbcs	sl, [sp, ip]

00006c08 <l6788>:
    6c08:	e16f0f19 	clz	r0, r9

00006c0c <l6789>:
    6c0c:	ea000004 	b	6c24 <l6795>

00006c10 <l6790>:
    6c10:	e28010d5 	add	r1, r0, #213	; 0xd5

00006c14 <l6791>:
    6c14:	d2514605 	subsle	r4, r1, #5242880	; 0x500000

00006c18 <l6792>:
    6c18:	40e51131 	rscmi	r1, r5, r1, lsr r1

00006c1c <l6793>:
    6c1c:	e3b08325 	movs	r8, #-1811939328	; 0x94000000

00006c20 <l6794>:
    6c20:	ea000000 	b	6c28 <l6796>

00006c24 <l6795>:
    6c24:	eafffffa 	b	6c14 <l6791>

00006c28 <l6796>:
    6c28:	e16f4f10 	clz	r4, r0

00006c2c <l6797>:
    6c2c:	70d61e19 	sbcsvc	r1, r6, r9, lsl lr

00006c30 <l6798>:
    6c30:	e3a09008 	mov	r9, #8

00006c34 <l6799>:
    6c34:	e73d9009 	ldr	r9, [sp, -r9]!

00006c38 <l6800>:
    6c38:	5181e089 	orrpl	lr, r1, r9, lsl #1

00006c3c <l6801>:
    6c3c:	e59f5000 	ldr	r5, [pc]	; 6c44 <l6803>

00006c40 <l6802>:
    6c40:	ea000000 	b	6c48 <l6804>

00006c44 <l6803>:
    6c44:	000fffa0 	.word	0x000fffa0

00006c48 <l6804>:
    6c48:	61451092 	swpbvs	r1, r2, [r5]

00006c4c <l6805>:
    6c4c:	e0f1c06f 	rscs	ip, r1, pc, rrx

00006c50 <l6806>:
    6c50:	e37a00d6 	cmn	sl, #214	; 0xd6

00006c54 <l6807>:
    6c54:	e5bdb024 	ldr	fp, [sp, #36]!	; 0x24

00006c58 <l6808>:
    6c58:	d0bc9061 	adcsle	r9, ip, r1, rrx

00006c5c <l6809>:
    6c5c:	104791a7 	subne	r9, r7, r7, lsr #3

00006c60 <l6810>:
    6c60:	e090414a 	adds	r4, r0, sl, asr #2

00006c64 <l6811>:
    6c64:	ea000006 	b	6c84 <l6819>

00006c68 <l6812>:
    6c68:	216f8f10 	clzcs	r8, r0

00006c6c <l6813>:
    6c6c:	b0480069 	sublt	r0, r8, r9, rrx

00006c70 <l6814>:
    6c70:	e089eea5 	add	lr, r9, r5, lsr #29

00006c74 <l6815>:
    6c74:	e111000f 	tst	r1, pc

00006c78 <l6816>:
    6c78:	e0c5b00e 	sbc	fp, r5, lr

00006c7c <l6817>:
    6c7c:	c1f0ce54 	mvnsgt	ip, r4, asr lr

00006c80 <l6818>:
    6c80:	a1d1700a 	bicsge	r7, r1, sl

00006c84 <l6819>:
    6c84:	c021ab25 	eorgt	sl, r1, r5, lsr #22

00006c88 <l6820>:
    6c88:	b1f0a004 	mvnslt	sl, r4

00006c8c <l6821>:
    6c8c:	20e945a7 	rsccs	r4, r9, r7, lsr #11

00006c90 <l6822>:
    6c90:	715d41dc 	ldrsbvc	r4, [sp, #-28]	; 0xffffffe4

00006c94 <l6823>:
    6c94:	03f0cf92 	mvnseq	ip, #584	; 0x248

00006c98 <l6824>:
    6c98:	e157006b 	cmp	r7, fp, rrx

00006c9c <l6825>:
    6c9c:	53f0542b 	mvnspl	r5, #721420288	; 0x2b000000

00006ca0 <l6826>:
    6ca0:	e3a0b032 	mov	fp, #50	; 0x32

00006ca4 <l6827>:
    6ca4:	275da00b 	ldrbcs	sl, [sp, -fp]

00006ca8 <l6828>:
    6ca8:	d05c6069 	subsle	r6, ip, r9, rrx

00006cac <l6829>:
    6cac:	43130b01 	tstmi	r3, #1024	; 0x400

00006cb0 <l6830>:
    6cb0:	0a000007 	beq	6cd4 <l6839>

00006cb4 <l6831>:
    6cb4:	e28010b7 	add	r1, r0, #183	; 0xb7

00006cb8 <l6832>:
    6cb8:	e05a5754 	subs	r5, sl, r4, asr r7

00006cbc <l6833>:
    6cbc:	e0438b54 	sub	r8, r3, r4, asr fp

00006cc0 <l6834>:
    6cc0:	b0b65000 	adcslt	r5, r6, r0

00006cc4 <l6835>:
    6cc4:	e0c77739 	sbc	r7, r7, r9, lsr r7

00006cc8 <l6836>:
    6cc8:	a1e0a068 	mvnge	sl, r8, rrx

00006ccc <l6837>:
    6ccc:	01730219 	cmneq	r3, r9, lsl r2

00006cd0 <l6838>:
    6cd0:	ea000000 	b	6cd8 <l6840>

00006cd4 <l6839>:
    6cd4:	eafffff7 	b	6cb8 <l6832>

00006cd8 <l6840>:
    6cd8:	d1500de9 	cmple	r0, r9, ror #27

00006cdc <l6841>:
    6cdc:	d1760161 	cmnle	r6, r1, ror #2

00006ce0 <l6842>:
    6ce0:	ea000006 	b	6d00 <l6850>

00006ce4 <l6843>:
    6ce4:	e28010e8 	add	r1, r0, #232	; 0xe8

00006ce8 <l6844>:
    6ce8:	917a0e12 	cmnls	sl, r2, lsl lr

00006cec <l6845>:
    6cec:	00487008 	subeq	r7, r8, r8

00006cf0 <l6846>:
    6cf0:	e0eec831 	rsc	ip, lr, r1, lsr r8

00006cf4 <l6847>:
    6cf4:	e2e39625 	rsc	r9, r3, #38797312	; 0x2500000

00006cf8 <l6848>:
    6cf8:	a0f27de4 	rscsge	r7, r2, r4, ror #27

00006cfc <l6849>:
    6cfc:	ea000000 	b	6d04 <l6851>

00006d00 <l6850>:
    6d00:	eafffff8 	b	6ce8 <l6844>

00006d04 <l6851>:
    6d04:	315d02b0 	ldrhcc	r0, [sp, #-32]	; 0xffffffe0

00006d08 <l6852>:
    6d08:	e59fb000 	ldr	fp, [pc]	; 6d10 <l6854>

00006d0c <l6853>:
    6d0c:	ea000000 	b	6d14 <l6855>

00006d10 <l6854>:
    6d10:	000fffe4 	.word	0x000fffe4

00006d14 <l6855>:
    6d14:	e14b8099 	swpb	r8, r9, [fp]

00006d18 <l6856>:
    6d18:	e59f8000 	ldr	r8, [pc]	; 6d20 <l6858>

00006d1c <l6857>:
    6d1c:	ea000000 	b	6d24 <l6859>

00006d20 <l6858>:
    6d20:	000fffd8 	.word	0x000fffd8

00006d24 <l6859>:
    6d24:	e148509e 	swpb	r5, lr, [r8]

00006d28 <l6860>:
    6d28:	3a000000 	bcc	6d30 <l6862>

00006d2c <l6861>:
    6d2c:	e04e9638 	sub	r9, lr, r8, lsr r6

00006d30 <l6862>:
    6d30:	e175001b 	cmn	r5, fp, lsl r0

00006d34 <l6863>:
    6d34:	204a200e 	subcs	r2, sl, lr

00006d38 <l6864>:
    6d38:	250d6014 	strcs	r6, [sp, #-20]

00006d3c <l6865>:
    6d3c:	e3a08021 	mov	r8, #33	; 0x21

00006d40 <l6866>:
    6d40:	e74d9008 	strb	r9, [sp, -r8]

00006d44 <l6867>:
    6d44:	a0d473ea 	sbcsge	r7, r4, sl, ror #7

00006d48 <l6868>:
    6d48:	e92d4010 	push	{r4, lr}

00006d4c <l6869>:
    6d4c:	e59f6000 	ldr	r6, [pc]	; 6d54 <l6871>

00006d50 <l6870>:
    6d50:	ea000000 	b	6d58 <l6872>

00006d54 <l6871>:
    6d54:	000fffe8 	.word	0x000fffe8

00006d58 <l6872>:
    6d58:	e1064093 	swp	r4, r3, [r6]

00006d5c <l6873>:
    6d5c:	e08e7065 	add	r7, lr, r5, rrx

00006d60 <l6874>:
    6d60:	e50d7028 	str	r7, [sp, #-40]	; 0x28

00006d64 <l6875>:
    6d64:	e3a03005 	mov	r3, #5

00006d68 <l6876>:
    6d68:	e7cde003 	strb	lr, [sp, r3]

00006d6c <l6877>:
    6d6c:	e0c5750e 	sbc	r7, r5, lr, lsl #10

00006d70 <l6878>:
    6d70:	50a58752 	adcpl	r8, r5, r2, asr r7

00006d74 <l6879>:
    6d74:	e59f3000 	ldr	r3, [pc]	; 6d7c <l6881>

00006d78 <l6880>:
    6d78:	ea000000 	b	6d80 <l6882>

00006d7c <l6881>:
    6d7c:	000fffe4 	.word	0x000fffe4

00006d80 <l6882>:
    6d80:	41430098 	swpbmi	r0, r8, [r3]

00006d84 <l6883>:
    6d84:	e09b0405 	adds	r0, fp, r5, lsl #8

00006d88 <l6884>:
    6d88:	e2c1513b 	sbc	r5, r1, #-1073741810	; 0xc000000e

00006d8c <l6885>:
    6d8c:	e0a16003 	adc	r6, r1, r3

00006d90 <l6886>:
    6d90:	8a000005 	bhi	6dac <l6893>

00006d94 <l6887>:
    6d94:	e357011f 	cmp	r7, #-1073741817	; 0xc0000007

00006d98 <l6888>:
    6d98:	61d7706c 	bicsvs	r7, r7, ip, rrx

00006d9c <l6889>:
    6d9c:	91f0ac72 	mvnsls	sl, r2, ror ip

00006da0 <l6890>:
    6da0:	70554004 	subsvc	r4, r5, r4

00006da4 <l6891>:
    6da4:	e0dcc001 	sbcs	ip, ip, r1

00006da8 <l6892>:
    6da8:	d188bb57 	orrle	fp, r8, r7, asr fp

00006dac <l6893>:
    6dac:	b2530fda 	subslt	r0, r3, #872	; 0x368

00006db0 <l6894>:
    6db0:	e3740f8b 	cmn	r4, #556	; 0x22c

00006db4 <l6895>:
    6db4:	e05431af 	subs	r3, r4, pc, lsr #3

00006db8 <l6896>:
    6db8:	b018a005 	andslt	sl, r8, r5

00006dbc <l6897>:
    6dbc:	1356014a 	cmpne	r6, #-2147483630	; 0x80000012

00006dc0 <l6898>:
    6dc0:	e3a0900e 	mov	r9, #14

00006dc4 <l6899>:
    6dc4:	511d80f9 	ldrshpl	r8, [sp, -r9]

00006dc8 <l6900>:
    6dc8:	e59fa000 	ldr	sl, [pc]	; 6dd0 <l6902>

00006dcc <l6901>:
    6dcc:	ea000000 	b	6dd4 <l6903>

00006dd0 <l6902>:
    6dd0:	000fffa4 	.word	0x000fffa4

00006dd4 <l6903>:
    6dd4:	e10ab092 	swp	fp, r2, [sl]

00006dd8 <l6904>:
    6dd8:	e0eb1611 	rsc	r1, fp, r1, lsl r6

00006ddc <l6905>:
    6ddc:	613b0722 	teqvs	fp, r2, lsr #14

00006de0 <l6906>:
    6de0:	e59fa000 	ldr	sl, [pc]	; 6de8 <l6908>

00006de4 <l6907>:
    6de4:	ea000000 	b	6dec <l6909>

00006de8 <l6908>:
    6de8:	000fffdc 	.word	0x000fffdc

00006dec <l6909>:
    6dec:	e14a2098 	swpb	r2, r8, [sl]

00006df0 <l6910>:
    6df0:	4382bc49 	orrmi	fp, r2, #18688	; 0x4900

00006df4 <l6911>:
    6df4:	e2ae9c61 	adc	r9, lr, #24832	; 0x6100

00006df8 <l6912>:
    6df8:	e0c6624b 	sbc	r6, r6, fp, asr #4

00006dfc <l6913>:
    6dfc:	e0a8a61e 	adc	sl, r8, lr, lsl r6

00006e00 <l6914>:
    6e00:	2150000e 	cmpcs	r0, lr

00006e04 <l6915>:
    6e04:	10fce00f 	rscsne	lr, ip, pc

00006e08 <l6916>:
    6e08:	b1cd01b0 	strhlt	r0, [sp, #16]

00006e0c <l6917>:
    6e0c:	a00e27c4 	andge	r2, lr, r4, asr #15

00006e10 <l6918>:
    6e10:	e3a00ff1 	mov	r0, #964	; 0x3c4

00006e14 <l6919>:
    6e14:	a04b006a 	subge	r0, fp, sl, rrx

00006e18 <l6920>:
    6e18:	5022600c 	eorpl	r6, r2, ip

00006e1c <l6921>:
    6e1c:	e48d3000 	str	r3, [sp], #0

00006e20 <l6922>:
    6e20:	d19f1060 	orrsle	r1, pc, r0, rrx

00006e24 <l6923>:
    6e24:	e3a0c014 	mov	ip, #20

00006e28 <l6924>:
    6e28:	871d500c 	ldrhi	r5, [sp, -ip]

00006e2c <l6925>:
    6e2c:	814d32b6 	strhhi	r3, [sp, #-38]	; 0xffffffda

00006e30 <l6926>:
    6e30:	e15f0000 	cmp	pc, r0

00006e34 <l6927>:
    6e34:	0036c738 	eorseq	ip, r6, r8, lsr r7

00006e38 <l6928>:
    6e38:	e15d91d8 	ldrsb	r9, [sp, #-24]	; 0xffffffe8

00006e3c <l6929>:
    6e3c:	617a027c 	cmnvs	sl, ip, ror r2

00006e40 <l6930>:
    6e40:	12248722 	eorne	r8, r4, #8912896	; 0x880000

00006e44 <l6931>:
    6e44:	e03f300c 	eors	r3, pc, ip

00006e48 <l6932>:
    6e48:	e0834360 	add	r4, r3, r0, ror #6

00006e4c <l6933>:
    6e4c:	e3a0e01c 	mov	lr, #28

00006e50 <l6934>:
    6e50:	e72d900e 	str	r9, [sp, -lr]!

00006e54 <l6935>:
    6e54:	e23c9fe3 	eors	r9, ip, #908	; 0x38c

00006e58 <l6936>:
    6e58:	6a000005 	bvs	6e74 <l6943>

00006e5c <l6937>:
    6e5c:	51140161 	tstpl	r4, r1, ror #2

00006e60 <l6938>:
    6e60:	4110075b 	tstmi	r0, fp, asr r7

00006e64 <l6939>:
    6e64:	e0560c7e 	subs	r0, r6, lr, ror ip

00006e68 <l6940>:
    6e68:	0198a543 	orrseq	sl, r8, r3, asr #10

00006e6c <l6941>:
    6e6c:	51790b15 	cmnpl	r9, r5, lsl fp

00006e70 <l6942>:
    6e70:	7277aecb 	rsbsvc	sl, r7, #3248	; 0xcb0

00006e74 <l6943>:
    6e74:	62028401 	andvs	r8, r2, #16777216	; 0x1000000

00006e78 <l6944>:
    6e78:	e16fbf12 	clz	fp, r2

00006e7c <l6945>:
    6e7c:	50884068 	addpl	r4, r8, r8, rrx

00006e80 <l6946>:
    6e80:	ea000002 	b	6e90 <l6950>

00006e84 <l6947>:
    6e84:	23e019cf 	mvncs	r1, #3391488	; 0x33c000

00006e88 <l6948>:
    6e88:	209f600b 	addscs	r6, pc, fp

00006e8c <l6949>:
    6e8c:	e0f4b008 	rscs	fp, r4, r8

00006e90 <l6950>:
    6e90:	e2164b0a 	ands	r4, r6, #10240	; 0x2800

00006e94 <l6951>:
    6e94:	e096b064 	adds	fp, r6, r4, rrx

00006e98 <l6952>:
    6e98:	735c098e 	cmpvc	ip, #2326528	; 0x238000

00006e9c <l6953>:
    6e9c:	089d0280 	ldmeq	sp, {r7, r9}

00006ea0 <l6954>:
    6ea0:	0188ca1a 	orreq	ip, r8, sl, lsl sl

00006ea4 <l6955>:
    6ea4:	e15d20ba 	ldrh	r2, [sp, #-10]

00006ea8 <l6956>:
    6ea8:	ea000002 	b	6eb8 <l6960>

00006eac <l6957>:
    6eac:	e28010c0 	add	r1, r0, #192	; 0xc0

00006eb0 <l6958>:
    6eb0:	3257a763 	subscc	sl, r7, #25952256	; 0x18c0000

00006eb4 <l6959>:
    6eb4:	ea000000 	b	6ebc <l6961>

00006eb8 <l6960>:
    6eb8:	eafffffc 	b	6eb0 <l6958>

00006ebc <l6961>:
    6ebc:	d16f2f19 	clzle	r2, r9

00006ec0 <l6962>:
    6ec0:	755d500d 	ldrbvc	r5, [sp, #-13]

00006ec4 <l6963>:
    6ec4:	e0978a46 	adds	r8, r7, r6, asr #20

00006ec8 <l6964>:
    6ec8:	e3a0a004 	mov	sl, #4

00006ecc <l6965>:
    6ecc:	e70d300a 	str	r3, [sp, -sl]

00006ed0 <l6966>:
    6ed0:	3a000004 	bcc	6ee8 <l6972>

00006ed4 <l6967>:
    6ed4:	e280105b 	add	r1, r0, #91	; 0x5b

00006ed8 <l6968>:
    6ed8:	806cb3a2 	rsbhi	fp, ip, r2, lsr #7

00006edc <l6969>:
    6edc:	60805009 	addvs	r5, r0, r9

00006ee0 <l6970>:
    6ee0:	e2d888ad 	sbcs	r8, r8, #11337728	; 0xad0000

00006ee4 <l6971>:
    6ee4:	ea000000 	b	6eec <l6973>

00006ee8 <l6972>:
    6ee8:	eafffffa 	b	6ed8 <l6968>

00006eec <l6973>:
    6eec:	70e9e00e 	rscvc	lr, r9, lr

00006ef0 <l6974>:
    6ef0:	a58d5030 	strge	r5, [sp, #48]	; 0x30

00006ef4 <l6975>:
    6ef4:	d16f6f18 	clzle	r6, r8

00006ef8 <l6976>:
    6ef8:	75dde019 	ldrbvc	lr, [sp, #25]

00006efc <l6977>:
    6efc:	ba000007 	blt	6f20 <l6986>

00006f00 <l6978>:
    6f00:	e2801090 	add	r1, r0, #144	; 0x90

00006f04 <l6979>:
    6f04:	607c3972 	rsbsvs	r3, ip, r2, ror r9

00006f08 <l6980>:
    6f08:	101a300a 	andsne	r3, sl, sl

00006f0c <l6981>:
    6f0c:	20b06003 	adcscs	r6, r0, r3

00006f10 <l6982>:
    6f10:	416f5f13 	clzmi	r5, r3

00006f14 <l6983>:
    6f14:	e0bb1065 	adcs	r1, fp, r5, rrx

00006f18 <l6984>:
    6f18:	205b100f 	subscs	r1, fp, pc

00006f1c <l6985>:
    6f1c:	ea000000 	b	6f24 <l6987>

00006f20 <l6986>:
    6f20:	eafffff7 	b	6f04 <l6979>

00006f24 <l6987>:
    6f24:	e23f237f 	eors	r2, pc, #-67108863	; 0xfc000001

00006f28 <l6988>:
    6f28:	e3f00812 	mvns	r0, #1179648	; 0x120000

00006f2c <l6989>:
    6f2c:	e3a04012 	mov	r4, #18

00006f30 <l6990>:
    6f30:	e11d30b4 	ldrh	r3, [sp, -r4]

00006f34 <l6991>:
    6f34:	5a000005 	bpl	6f50 <l6998>

00006f38 <l6992>:
    6f38:	e2801091 	add	r1, r0, #145	; 0x91

00006f3c <l6993>:
    6f3c:	b16f2f17 	clzlt	r2, r7

00006f40 <l6994>:
    6f40:	53847827 	orrpl	r7, r4, #2555904	; 0x270000

00006f44 <l6995>:
    6f44:	e1a01946 	asr	r1, r6, #18

00006f48 <l6996>:
    6f48:	e18a2005 	orr	r2, sl, r5

00006f4c <l6997>:
    6f4c:	ea000000 	b	6f54 <l6999>

00006f50 <l6998>:
    6f50:	eafffff9 	b	6f3c <l6993>

00006f54 <l6999>:
    6f54:	52403e61 	subpl	r3, r0, #1552	; 0x610

00006f58 <l7000>:
    6f58:	b0084a35 	andlt	r4, r8, r5, lsr sl

00006f5c <l7001>:
    6f5c:	e13a0550 	teq	sl, r0, asr r5

00006f60 <l7002>:
    6f60:	e92d8010 	push	{r4, pc}

00006f64 <l7003>:
    6f64:	e13a0c2f 	teq	sl, pc, lsr #24

00006f68 <l7004>:
    6f68:	51560e7e 	cmppl	r6, lr, ror lr

00006f6c <l7005>:
    6f6c:	e170000f 	cmn	r0, pc

00006f70 <l7006>:
    6f70:	5a000005 	bpl	6f8c <l7013>

00006f74 <l7007>:
    6f74:	e28010b6 	add	r1, r0, #182	; 0xb6

00006f78 <l7008>:
    6f78:	01e02271 	mvneq	r2, r1, ror r2

00006f7c <l7009>:
    6f7c:	e1510003 	cmp	r1, r3

00006f80 <l7010>:
    6f80:	e16fbf10 	clz	fp, r0

00006f84 <l7011>:
    6f84:	b02ec060 	eorlt	ip, lr, r0, rrx

00006f88 <l7012>:
    6f88:	ea000000 	b	6f90 <l7014>

00006f8c <l7013>:
    6f8c:	eafffff9 	b	6f78 <l7008>

00006f90 <l7014>:
    6f90:	2a000002 	bcs	6fa0 <l7018>

00006f94 <l7015>:
    6f94:	e28010b6 	add	r1, r0, #182	; 0xb6

00006f98 <l7016>:
    6f98:	118bb009 	orrne	fp, fp, r9

00006f9c <l7017>:
    6f9c:	ea000000 	b	6fa4 <l7019>

00006fa0 <l7018>:
    6fa0:	eafffffc 	b	6f98 <l7016>

00006fa4 <l7019>:
    6fa4:	e1dda0fe 	ldrsh	sl, [sp, #14]

00006fa8 <l7020>:
    6fa8:	e59f0000 	ldr	r0, [pc]	; 6fb0 <l7022>

00006fac <l7021>:
    6fac:	ea000000 	b	6fb4 <l7023>

00006fb0 <l7022>:
    6fb0:	000fffdc 	.word	0x000fffdc

00006fb4 <l7023>:
    6fb4:	e140e091 	swpb	lr, r1, [r0]

00006fb8 <l7024>:
    6fb8:	805b700b 	subshi	r7, fp, fp

00006fbc <l7025>:
    6fbc:	a2689653 	rsbge	r9, r8, #87031808	; 0x5300000

00006fc0 <l7026>:
    6fc0:	b31e01f5 	tstlt	lr, #1073741885	; 0x4000003d

00006fc4 <l7027>:
    6fc4:	e3a06030 	mov	r6, #48	; 0x30

00006fc8 <l7028>:
    6fc8:	518de0b6 	strhpl	lr, [sp, r6]

00006fcc <l7029>:
    6fcc:	e1760008 	cmn	r6, r8

00006fd0 <l7030>:
    6fd0:	e16f8f1c 	clz	r8, ip

00006fd4 <l7031>:
    6fd4:	e1b0700a 	movs	r7, sl

00006fd8 <l7032>:
    6fd8:	e06b7c38 	rsb	r7, fp, r8, lsr ip

00006fdc <l7033>:
    6fdc:	3156073a 	cmpcc	r6, sl, lsr r7

00006fe0 <l7034>:
    6fe0:	c0872234 	addgt	r2, r7, r4, lsr r2

00006fe4 <l7035>:
    6fe4:	e5bda03c 	ldr	sl, [sp, #60]!	; 0x3c

00006fe8 <l7036>:
    6fe8:	5194400e 	orrspl	r4, r4, lr

00006fec <l7037>:
    6fec:	e0328e7a 	eors	r8, r2, sl, ror lr

00006ff0 <l7038>:
    6ff0:	e155043b 	cmp	r5, fp, lsr r4

00006ff4 <l7039>:
    6ff4:	e0735156 	rsbs	r5, r3, r6, asr r1

00006ff8 <l7040>:
    6ff8:	e17c0a5a 	cmn	ip, sl, asr sl

00006ffc <l7041>:
    6ffc:	e25762cd 	subs	r6, r7, #-805306356	; 0xd000000c

00007000 <l7042>:
    7000:	a05cb009 	subsge	fp, ip, r9

00007004 <l7043>:
    7004:	e59f4000 	ldr	r4, [pc]	; 700c <l7045>

00007008 <l7044>:
    7008:	ea000000 	b	7010 <l7046>

0000700c <l7045>:
    700c:	000fffb0 	.word	0x000fffb0

00007010 <l7046>:
    7010:	e104c097 	swp	ip, r7, [r4]

00007014 <l7047>:
    7014:	c14db2b2 	strhgt	fp, [sp, #-34]	; 0xffffffde

00007018 <l7048>:
    7018:	e37f0af3 	cmn	pc, #995328	; 0xf3000

0000701c <l7049>:
    701c:	91999006 	orrsls	r9, r9, r6

00007020 <l7050>:
    7020:	7a000002 	bvc	7030 <l7054>

00007024 <l7051>:
    7024:	e2801062 	add	r1, r0, #98	; 0x62

00007028 <l7052>:
    7028:	801c406a 	andshi	r4, ip, sl, rrx

0000702c <l7053>:
    702c:	ea000000 	b	7034 <l7055>

00007030 <l7054>:
    7030:	eafffffc 	b	7028 <l7052>

00007034 <l7055>:
    7034:	915d41d7 	ldrsbls	r4, [sp, #-23]	; 0xffffffe9

00007038 <l7056>:
    7038:	90e32000 	rscls	r2, r3, r0

0000703c <l7057>:
    703c:	e0d3506b 	sbcs	r5, r3, fp, rrx

00007040 <l7058>:
    7040:	60580ca0 	subsvs	r0, r8, r0, lsr #25

00007044 <l7059>:
    7044:	516fbf19 	clzpl	fp, r9

00007048 <l7060>:
    7048:	e0062006 	and	r2, r6, r6

0000704c <l7061>:
    704c:	53f0cfbe 	mvnspl	ip, #760	; 0x2f8

00007050 <l7062>:
    7050:	d17f06c9 	cmnle	pc, r9, asr #13

00007054 <l7063>:
    7054:	208a500e 	addcs	r5, sl, lr

00007058 <l7064>:
    7058:	0033c005 	eorseq	ip, r3, r5

0000705c <l7065>:
    705c:	e3a08022 	mov	r8, #34	; 0x22

00007060 <l7066>:
    7060:	910d30b8 	strhls	r3, [sp, -r8]

00007064 <l7067>:
    7064:	e3c972a7 	bic	r7, r9, #1879048202	; 0x7000000a

00007068 <l7068>:
    7068:	31b0300c 	movscc	r3, ip

0000706c <l7069>:
    706c:	e3a01029 	mov	r1, #41	; 0x29

00007070 <l7070>:
    7070:	675d6001 	ldrbvs	r6, [sp, -r1]

00007074 <l7071>:
    7074:	81120d68 	tsthi	r2, r8, ror #26

00007078 <l7072>:
    7078:	081d0108 	ldmdaeq	sp, {r3, r8}

0000707c <l7073>:
    707c:	803e6a68 	eorshi	r6, lr, r8, ror #20

00007080 <l7074>:
    7080:	c05ba001 	subsgt	sl, fp, r1

00007084 <l7075>:
    7084:	e54da004 	strb	sl, [sp, #-4]

00007088 <l7076>:
    7088:	e0162211 	ands	r2, r6, r1, lsl r2

0000708c <l7077>:
    708c:	e14d62b2 	strh	r6, [sp, #-34]	; 0xffffffde

00007090 <l7078>:
    7090:	214d13ba 	strhcs	r1, [sp, #-58]	; 0xffffffc6

00007094 <l7079>:
    7094:	11902068 	orrsne	r2, r0, r8, rrx

00007098 <l7080>:
    7098:	e1770176 	cmn	r7, r6, ror r1

0000709c <l7081>:
    709c:	e3a0b014 	mov	fp, #20

000070a0 <l7082>:
    70a0:	e61da00b 	ldr	sl, [sp], -fp

000070a4 <l7083>:
    70a4:	e3a0b032 	mov	fp, #50	; 0x32

000070a8 <l7084>:
    70a8:	e75de00b 	ldrb	lr, [sp, -fp]

000070ac <l7085>:
    70ac:	e0aa500f 	adc	r5, sl, pc

000070b0 <l7086>:
    70b0:	0a000004 	beq	70c8 <l7092>

000070b4 <l7087>:
    70b4:	e2801092 	add	r1, r0, #146	; 0x92

000070b8 <l7088>:
    70b8:	d11e0c21 	tstle	lr, r1, lsr #24

000070bc <l7089>:
    70bc:	e37f0785 	cmn	pc, #34865152	; 0x2140000

000070c0 <l7090>:
    70c0:	80175751 	andshi	r5, r7, r1, asr r7

000070c4 <l7091>:
    70c4:	ea000000 	b	70cc <l7093>

000070c8 <l7092>:
    70c8:	eafffffa 	b	70b8 <l7088>

000070cc <l7093>:
    70cc:	5192afa1 	orrspl	sl, r2, r1, lsr #31

000070d0 <l7094>:
    70d0:	e156000a 	cmp	r6, sl

000070d4 <l7095>:
    70d4:	0a000003 	beq	70e8 <l7100>

000070d8 <l7096>:
    70d8:	e28010c6 	add	r1, r0, #198	; 0xc6

000070dc <l7097>:
    70dc:	e1853007 	orr	r3, r5, r7

000070e0 <l7098>:
    70e0:	e1570114 	cmp	r7, r4, lsl r1

000070e4 <l7099>:
    70e4:	ea000000 	b	70ec <l7101>

000070e8 <l7100>:
    70e8:	eafffffb 	b	70dc <l7097>

000070ec <l7101>:
    70ec:	e89d0004 	ldm	sp, {r2}

000070f0 <l7102>:
    70f0:	e82d1001 	stmda	sp!, {r0, ip}

000070f4 <l7103>:
    70f4:	e135000c 	teq	r5, ip

000070f8 <l7104>:
    70f8:	e3a08012 	mov	r8, #18

000070fc <l7105>:
    70fc:	e7dd3008 	ldrb	r3, [sp, r8]

00007100 <l7106>:
    7100:	e0556069 	subs	r6, r5, r9, rrx

00007104 <l7107>:
    7104:	1a000002 	bne	7114 <l7111>

00007108 <l7108>:
    7108:	e280109b 	add	r1, r0, #155	; 0x9b

0000710c <l7109>:
    710c:	e2d8623f 	sbcs	r6, r8, #-268435453	; 0xf0000003

00007110 <l7110>:
    7110:	ea000000 	b	7118 <l7112>

00007114 <l7111>:
    7114:	eafffffc 	b	710c <l7109>

00007118 <l7112>:
    7118:	e3a0e01c 	mov	lr, #28

0000711c <l7113>:
    711c:	e7ad900e 	str	r9, [sp, lr]!

00007120 <l7114>:
    7120:	e1c3b08b 	bic	fp, r3, fp, lsl #1

00007124 <l7115>:
    7124:	e0da7914 	sbcs	r7, sl, r4, lsl r9

00007128 <l7116>:
    7128:	e0773ea7 	rsbs	r3, r7, r7, lsr #29

0000712c <l7117>:
    712c:	e59f8000 	ldr	r8, [pc]	; 7134 <l7119>

00007130 <l7118>:
    7130:	ea000000 	b	7138 <l7120>

00007134 <l7119>:
    7134:	000fffd8 	.word	0x000fffd8

00007138 <l7120>:
    7138:	c1483094 	swpbgt	r3, r4, [r8]

0000713c <l7121>:
    713c:	e1f0e136 	mvns	lr, r6, lsr r1

00007140 <l7122>:
    7140:	a55d600a 	ldrbge	r6, [sp, #-10]

00007144 <l7123>:
    7144:	ea000007 	b	7168 <l7132>

00007148 <l7124>:
    7148:	e2801028 	add	r1, r0, #40	; 0x28

0000714c <l7125>:
    714c:	61190002 	tstvs	r9, r2

00007150 <l7126>:
    7150:	601591ca 	andsvs	r9, r5, sl, asr #3

00007154 <l7127>:
    7154:	e0fcb002 	rscs	fp, ip, r2

00007158 <l7128>:
    7158:	e15c0003 	cmp	ip, r3

0000715c <l7129>:
    715c:	516f4f12 	clzpl	r4, r2

00007160 <l7130>:
    7160:	80358349 	eorshi	r8, r5, r9, asr #6

00007164 <l7131>:
    7164:	ea000000 	b	716c <l7133>

00007168 <l7132>:
    7168:	eafffff7 	b	714c <l7125>

0000716c <l7133>:
    716c:	d39ea209 	orrsle	sl, lr, #-1879048192	; 0x90000000

00007170 <l7134>:
    7170:	e010746a 	ands	r7, r0, sl, ror #8

00007174 <l7135>:
    7174:	5208a1a1 	andpl	sl, r8, #1073741864	; 0x40000028

00007178 <l7136>:
    7178:	981d55a4 	ldmdals	sp, {r2, r5, r7, r8, sl, ip, lr}

0000717c <l7137>:
    717c:	215d21db 	ldrsbcs	r2, [sp, #-27]	; 0xffffffe5

00007180 <l7138>:
    7180:	e1150415 	tst	r5, r5, lsl r4

00007184 <l7139>:
    7184:	e59fa000 	ldr	sl, [pc]	; 718c <l7141>

00007188 <l7140>:
    7188:	ea000000 	b	7190 <l7142>

0000718c <l7141>:
    718c:	000fffd0 	.word	0x000fffd0

00007190 <l7142>:
    7190:	e10ae094 	swp	lr, r4, [sl]

00007194 <l7143>:
    7194:	e3a0c02a 	mov	ip, #42	; 0x2a

00007198 <l7144>:
    7198:	111d00dc 	ldrsbne	r0, [sp, -ip]

0000719c <l7145>:
    719c:	e3d0c8a7 	bics	ip, r0, #10944512	; 0xa70000

000071a0 <l7146>:
    71a0:	30213825 	eorcc	r3, r1, r5, lsr #16

000071a4 <l7147>:
    71a4:	e59fa000 	ldr	sl, [pc]	; 71ac <l7149>

000071a8 <l7148>:
    71a8:	ea000000 	b	71b0 <l7150>

000071ac <l7149>:
    71ac:	000fffd0 	.word	0x000fffd0

000071b0 <l7150>:
    71b0:	e14a509c 	swpb	r5, ip, [sl]

000071b4 <l7151>:
    71b4:	a16f5f1c 	clzge	r5, ip

000071b8 <l7152>:
    71b8:	e3a01026 	mov	r1, #38	; 0x26

000071bc <l7153>:
    71bc:	d11d60b1 	ldrhle	r6, [sp, -r1]

000071c0 <l7154>:
    71c0:	e3180c35 	tst	r8, #13568	; 0x3500

000071c4 <l7155>:
    71c4:	e3100901 	tst	r0, #16384	; 0x4000

000071c8 <l7156>:
    71c8:	e3a00026 	mov	r0, #38	; 0x26

000071cc <l7157>:
    71cc:	e74d6000 	strb	r6, [sp, -r0]

000071d0 <l7158>:
    71d0:	e1a00000 	nop			; (mov r0, r0)

000071d4 <l7159>:
    71d4:	e3a00008 	mov	r0, #8

000071d8 <l7160>:
    71d8:	e11d00f0 	ldrsh	r0, [sp, -r0]

000071dc <l7161>:
    71dc:	c1520009 	cmpgt	r2, r9

000071e0 <l7162>:
    71e0:	037704c5 	cmneq	r7, #-989855744	; 0xc5000000

000071e4 <l7163>:
    71e4:	9255e206 	subsls	lr, r5, #1610612736	; 0x60000000

000071e8 <l7164>:
    71e8:	da000005 	ble	7204 <l7171>

000071ec <l7165>:
    71ec:	e280100f 	add	r1, r0, #15

000071f0 <l7166>:
    71f0:	51ce797c 	bicpl	r7, lr, ip, ror r9

000071f4 <l7167>:
    71f4:	80afa003 	adchi	sl, pc, r3

000071f8 <l7168>:
    71f8:	539abb26 	orrspl	fp, sl, #38912	; 0x9800

000071fc <l7169>:
    71fc:	035e0907 	cmpeq	lr, #114688	; 0x1c000

00007200 <l7170>:
    7200:	ea000000 	b	7208 <l7172>

00007204 <l7171>:
    7204:	eafffff9 	b	71f0 <l7166>

00007208 <l7172>:
    7208:	e02be066 	eor	lr, fp, r6, rrx

0000720c <l7173>:
    720c:	e05c400c 	subs	r4, ip, ip

00007210 <l7174>:
    7210:	a0266155 	eorge	r6, r6, r5, asr r1

00007214 <l7175>:
    7214:	ea000006 	b	7234 <l7183>

00007218 <l7176>:
    7218:	e28010de 	add	r1, r0, #222	; 0xde

0000721c <l7177>:
    721c:	93340947 	teqls	r4, #1163264	; 0x11c000

00007220 <l7178>:
    7220:	81520007 	cmphi	r2, r7

00007224 <l7179>:
    7224:	4154024a 	cmpmi	r4, sl, asr #4

00007228 <l7180>:
    7228:	12c8aa73 	sbcne	sl, r8, #471040	; 0x73000

0000722c <l7181>:
    722c:	8299913d 	addshi	r9, r9, #1073741839	; 0x4000000f

00007230 <l7182>:
    7230:	ea000000 	b	7238 <l7184>

00007234 <l7183>:
    7234:	eafffff8 	b	721c <l7177>

00007238 <l7184>:
    7238:	d15d20fe 	ldrshle	r2, [sp, #-14]

0000723c <l7185>:
    723c:	e3a0001b 	mov	r0, #27

00007240 <l7186>:
    7240:	e11de0d0 	ldrsb	lr, [sp, -r0]

00007244 <l7187>:
    7244:	e83d1fbd 	ldmda	sp!, {r0, r2, r3, r4, r5, r7, r8, r9, sl, fp, ip}

00007248 <l7188>:
    7248:	93760e12 	cmnls	r6, #288	; 0x120

0000724c <l7189>:
    724c:	e59fe000 	ldr	lr, [pc]	; 7254 <l7191>

00007250 <l7190>:
    7250:	ea000000 	b	7258 <l7192>

00007254 <l7191>:
    7254:	000fffc4 	.word	0x000fffc4

00007258 <l7192>:
    7258:	e10e7096 	swp	r7, r6, [lr]

0000725c <l7193>:
    725c:	e55d2002 	ldrb	r2, [sp, #-2]

00007260 <l7194>:
    7260:	e8bd47ad 	pop	{r0, r2, r3, r5, r7, r8, r9, sl, lr}

00007264 <l7195>:
    7264:	e2939ccb 	adds	r9, r3, #51968	; 0xcb00

00007268 <l7196>:
    7268:	4a000001 	bmi	7274 <l7199>

0000726c <l7197>:
    726c:	20f992c3 	rscscs	r9, r9, r3, asr #5

00007270 <l7198>:
    7270:	7049350b 	subvc	r3, r9, fp, lsl #10

00007274 <l7199>:
    7274:	d061a007 	rsble	sl, r1, r7

00007278 <l7200>:
    7278:	415f0f03 	cmpmi	pc, r3, lsl #30

0000727c <l7201>:
    727c:	e0480009 	sub	r0, r8, r9

00007280 <l7202>:
    7280:	d1b0b003 	movsle	fp, r3

00007284 <l7203>:
    7284:	e92d4acb 	push	{r0, r1, r3, r6, r7, r9, fp, lr}

00007288 <l7204>:
    7288:	e0a2b155 	adc	fp, r2, r5, asr r1

0000728c <l7205>:
    728c:	e59f4000 	ldr	r4, [pc]	; 7294 <l7207>

00007290 <l7206>:
    7290:	ea000000 	b	7298 <l7208>

00007294 <l7207>:
    7294:	000fffa0 	.word	0x000fffa0

00007298 <l7208>:
    7298:	e144b099 	swpb	fp, r9, [r4]

0000729c <l7209>:
    729c:	e1dd32f4 	ldrsh	r3, [sp, #36]	; 0x24

000072a0 <l7210>:
    72a0:	a05f100f 	subsge	r1, pc, pc

000072a4 <l7211>:
    72a4:	816f1f1e 	clzhi	r1, lr

000072a8 <l7212>:
    72a8:	e1dd60d5 	ldrsb	r6, [sp, #5]

000072ac <l7213>:
    72ac:	e3a05008 	mov	r5, #8

000072b0 <l7214>:
    72b0:	478db005 	strmi	fp, [sp, r5]

000072b4 <l7215>:
    72b4:	589d0410 	ldmpl	sp, {r4, sl}

000072b8 <l7216>:
    72b8:	eaffffff 	b	72bc <l7217>

000072bc <l7217>:
    72bc:	e0407e41 	sub	r7, r0, r1, asr #28

000072c0 <l7218>:
    72c0:	e2586064 	subs	r6, r8, #100	; 0x64

000072c4 <l7219>:
    72c4:	e078800c 	rsbs	r8, r8, ip

000072c8 <l7220>:
    72c8:	b17a0c73 	cmnlt	sl, r3, ror ip

000072cc <l7221>:
    72cc:	e59f1000 	ldr	r1, [pc]	; 72d4 <l7223>

000072d0 <l7222>:
    72d0:	ea000000 	b	72d8 <l7224>

000072d4 <l7223>:
    72d4:	000fffcc 	.word	0x000fffcc

000072d8 <l7224>:
    72d8:	c1012094 	swpgt	r2, r4, [r1]

000072dc <l7225>:
    72dc:	b0b23007 	adcslt	r3, r2, r7

000072e0 <l7226>:
    72e0:	82558491 	subshi	r8, r5, #-1862270976	; 0x91000000

000072e4 <l7227>:
    72e4:	e04e1000 	sub	r1, lr, r0

000072e8 <l7228>:
    72e8:	e3a03024 	mov	r3, #36	; 0x24

000072ec <l7229>:
    72ec:	a18da0b3 	strhge	sl, [sp, r3]

000072f0 <l7230>:
    72f0:	e3a0c003 	mov	ip, #3

000072f4 <l7231>:
    72f4:	e74d900c 	strb	r9, [sp, -ip]

000072f8 <l7232>:
    72f8:	e2eaa90b 	rsc	sl, sl, #180224	; 0x2c000

000072fc <l7233>:
    72fc:	e1590c16 	cmp	r9, r6, lsl ip

00007300 <l7234>:
    7300:	30f7976c 	rscscc	r9, r7, ip, ror #14

00007304 <l7235>:
    7304:	93580766 	cmpls	r8, #26738688	; 0x1980000

00007308 <l7236>:
    7308:	c1f05004 	mvnsgt	r5, r4

0000730c <l7237>:
    730c:	c1a02008 	movgt	r2, r8

00007310 <l7238>:
    7310:	e032600e 	eors	r6, r2, lr

00007314 <l7239>:
    7314:	e1f0a058 	mvns	sl, r8, asr r0

00007318 <l7240>:
    7318:	00031233 	andeq	r1, r3, r3, lsr r2

0000731c <l7241>:
    731c:	e8bd0060 	pop	{r5, r6}

00007320 <l7242>:
    7320:	d16fcf1c 	clzle	ip, ip

00007324 <l7243>:
    7324:	31ddb0b6 	ldrhcc	fp, [sp, #6]

00007328 <l7244>:
    7328:	739e5010 	orrsvc	r5, lr, #16

0000732c <l7245>:
    732c:	4a000004 	bmi	7344 <l7251>

00007330 <l7246>:
    7330:	e280103c 	add	r1, r0, #60	; 0x3c

00007334 <l7247>:
    7334:	31350001 	teqcc	r5, r1

00007338 <l7248>:
    7338:	e2de810b 	sbcs	r8, lr, #-1073741822	; 0xc0000002

0000733c <l7249>:
    733c:	c0457006 	subgt	r7, r5, r6

00007340 <l7250>:
    7340:	ea000000 	b	7348 <l7252>

00007344 <l7251>:
    7344:	eafffffa 	b	7334 <l7247>

00007348 <l7252>:
    7348:	e0b7b0af 	adcs	fp, r7, pc, lsr #1

0000734c <l7253>:
    734c:	915d71d9 	ldrsbls	r7, [sp, #-25]	; 0xffffffe7

00007350 <l7254>:
    7350:	50437655 	subpl	r7, r3, r5, asr r6

00007354 <l7255>:
    7354:	e115000f 	tst	r5, pc

00007358 <l7256>:
    7358:	40f4c000 	rscsmi	ip, r4, r0

0000735c <l7257>:
    735c:	504b21c4 	subpl	r2, fp, r4, asr #3

00007360 <l7258>:
    7360:	908be900 	addls	lr, fp, r0, lsl #18

00007364 <l7259>:
    7364:	e99d141e 	ldmib	sp, {r1, r2, r3, r4, sl, ip}

00007368 <l7260>:
    7368:	6a000003 	bvs	737c <l7265>

0000736c <l7261>:
    736c:	e280105c 	add	r1, r0, #92	; 0x5c

00007370 <l7262>:
    7370:	e16fcf16 	clz	ip, r6

00007374 <l7263>:
    7374:	c04c7008 	subgt	r7, ip, r8

00007378 <l7264>:
    7378:	ea000000 	b	7380 <l7266>

0000737c <l7265>:
    737c:	eafffffb 	b	7370 <l7262>

00007380 <l7266>:
    7380:	e59f5000 	ldr	r5, [pc]	; 7388 <l7268>

00007384 <l7267>:
    7384:	ea000000 	b	738c <l7269>

00007388 <l7268>:
    7388:	000fffd0 	.word	0x000fffd0

0000738c <l7269>:
    738c:	3105209a 	swpcc	r2, sl, [r5]

00007390 <l7270>:
    7390:	617f0064 	cmnvs	pc, r4, rrx

00007394 <l7271>:
    7394:	e59f4000 	ldr	r4, [pc]	; 739c <l7273>

00007398 <l7272>:
    7398:	ea000000 	b	73a0 <l7274>

0000739c <l7273>:
    739c:	000fffbc 	.word	0x000fffbc

000073a0 <l7274>:
    73a0:	e104009c 	swp	r0, ip, [r4]

000073a4 <l7275>:
    73a4:	e2815682 	add	r5, r1, #136314880	; 0x8200000

000073a8 <l7276>:
    73a8:	ea000007 	b	73cc <l7285>

000073ac <l7277>:
    73ac:	e2801012 	add	r1, r0, #18

000073b0 <l7278>:
    73b0:	e0a7b004 	adc	fp, r7, r4

000073b4 <l7279>:
    73b4:	725b792a 	subsvc	r7, fp, #688128	; 0xa8000

000073b8 <l7280>:
    73b8:	801f2004 	andshi	r2, pc, r4

000073bc <l7281>:
    73bc:	3049600c 	subcc	r6, r9, ip

000073c0 <l7282>:
    73c0:	e0066811 	and	r6, r6, r1, lsl r8

000073c4 <l7283>:
    73c4:	e0ab036f 	adc	r0, fp, pc, ror #6

000073c8 <l7284>:
    73c8:	ea000000 	b	73d0 <l7286>

000073cc <l7285>:
    73cc:	eafffff7 	b	73b0 <l7278>

000073d0 <l7286>:
    73d0:	e02b6058 	eor	r6, fp, r8, asr r0

000073d4 <l7287>:
    73d4:	d1340122 	teqle	r4, r2, lsr #2

000073d8 <l7288>:
    73d8:	b0cca366 	sbclt	sl, ip, r6, ror #6

000073dc <l7289>:
    73dc:	4a000002 	bmi	73ec <l7293>

000073e0 <l7290>:
    73e0:	e28010f1 	add	r1, r0, #241	; 0xf1

000073e4 <l7291>:
    73e4:	e0460003 	sub	r0, r6, r3

000073e8 <l7292>:
    73e8:	ea000000 	b	73f0 <l7294>

000073ec <l7293>:
    73ec:	eafffffc 	b	73e4 <l7291>

000073f0 <l7294>:
    73f0:	831101ff 	tsthi	r1, #-1073741761	; 0xc000003f

000073f4 <l7295>:
    73f4:	116f7f12 	clzne	r7, r2

000073f8 <l7296>:
    73f8:	ba000003 	blt	740c <l7301>

000073fc <l7297>:
    73fc:	e2fe2329 	rscs	r2, lr, #-1543503872	; 0xa4000000

00007400 <l7298>:
    7400:	e1e07005 	mvn	r7, r5

00007404 <l7299>:
    7404:	e2da6129 	sbcs	r6, sl, #1073741834	; 0x4000000a

00007408 <l7300>:
    7408:	80269002 	eorhi	r9, r6, r2

0000740c <l7301>:
    740c:	e31c080b 	tst	ip, #720896	; 0xb0000

00007410 <l7302>:
    7410:	ea000004 	b	7428 <l7308>

00007414 <l7303>:
    7414:	e2801086 	add	r1, r0, #134	; 0x86

00007418 <l7304>:
    7418:	e0502810 	subs	r2, r0, r0, lsl r8

0000741c <l7305>:
    741c:	53520009 	cmppl	r2, #9

00007420 <l7306>:
    7420:	80898986 	addhi	r8, r9, r6, lsl #19

00007424 <l7307>:
    7424:	ea000000 	b	742c <l7309>

00007428 <l7308>:
    7428:	eafffffa 	b	7418 <l7304>

0000742c <l7309>:
    742c:	e59f8000 	ldr	r8, [pc]	; 7434 <l7311>

00007430 <l7310>:
    7430:	ea000000 	b	7438 <l7312>

00007434 <l7311>:
    7434:	000fffcc 	.word	0x000fffcc

00007438 <l7312>:
    7438:	6148c095 	swpbvs	ip, r5, [r8]

0000743c <l7313>:
    743c:	e59fc000 	ldr	ip, [pc]	; 7444 <l7315>

00007440 <l7314>:
    7440:	ea000000 	b	7448 <l7316>

00007444 <l7315>:
    7444:	000fffe0 	.word	0x000fffe0

00007448 <l7316>:
    7448:	c14c409a 	swpbgt	r4, sl, [ip]

0000744c <l7317>:
    744c:	e3a05004 	mov	r5, #4

00007450 <l7318>:
    7450:	e11db0f5 	ldrsh	fp, [sp, -r5]

00007454 <l7319>:
    7454:	e0704b24 	rsbs	r4, r0, r4, lsr #22

00007458 <l7320>:
    7458:	e3370cde 	teq	r7, #56832	; 0xde00

0000745c <l7321>:
    745c:	a0aea066 	adcge	sl, lr, r6, rrx

00007460 <l7322>:
    7460:	e5ada000 	str	sl, [sp, #0]!

00007464 <l7323>:
    7464:	e1dd61f0 	ldrsh	r6, [sp, #16]

00007468 <l7324>:
    7468:	a16f6f1b 	clzge	r6, fp

0000746c <l7325>:
    746c:	55dda020 	ldrbpl	sl, [sp, #32]

00007470 <l7326>:
    7470:	e3a03008 	mov	r3, #8

00007474 <l7327>:
    7474:	e60d6003 	str	r6, [sp], -r3

00007478 <l7328>:
    7478:	e1b0c851 	asrs	ip, r1, r8

0000747c <l7329>:
    747c:	9249c902 	subls	ip, r9, #32768	; 0x8000

00007480 <l7330>:
    7480:	313c0ea6 	teqcc	ip, r6, lsr #29

00007484 <l7331>:
    7484:	91d73a3c 	bicsls	r3, r7, ip, lsr sl

00007488 <l7332>:
    7488:	e3a02004 	mov	r2, #4

0000748c <l7333>:
    748c:	e69da002 	ldr	sl, [sp], r2

00007490 <l7334>:
    7490:	e3a07022 	mov	r7, #34	; 0x22

00007494 <l7335>:
    7494:	010db0b7 	strheq	fp, [sp, -r7]

00007498 <l7336>:
    7498:	e3a0700f 	mov	r7, #15

0000749c <l7337>:
    749c:	375de007 	ldrbcc	lr, [sp, -r7]

000074a0 <l7338>:
    74a0:	e3c922c2 	bic	r2, r9, #536870924	; 0x2000000c

000074a4 <l7339>:
    74a4:	e82d2000 	stmda	sp!, {sp}

000074a8 <l7340>:
    74a8:	e1500068 	cmp	r0, r8, rrx

000074ac <l7341>:
    74ac:	e9bd008e 	ldmib	sp!, {r1, r2, r3, r7}

000074b0 <l7342>:
    74b0:	e3180909 	tst	r8, #147456	; 0x24000

000074b4 <l7343>:
    74b4:	591d4000 	ldmdbpl	sp, {lr}

000074b8 <l7344>:
    74b8:	50720000 	rsbspl	r0, r2, r0

000074bc <l7345>:
    74bc:	e052212f 	subs	r2, r2, pc, lsr #2

000074c0 <l7346>:
    74c0:	d16f7f1a 	clzle	r7, sl

000074c4 <l7347>:
    74c4:	e0792985 	rsbs	r2, r9, r5, lsl #19

000074c8 <l7348>:
    74c8:	415de0f4 	ldrshmi	lr, [sp, #-4]

000074cc <l7349>:
    74cc:	e3d07609 	bics	r7, r0, #9437184	; 0x900000

000074d0 <l7350>:
    74d0:	e058cc14 	subs	ip, r8, r4, lsl ip

000074d4 <l7351>:
    74d4:	5057c00e 	subspl	ip, r7, lr

000074d8 <l7352>:
    74d8:	e89d0c60 	ldm	sp, {r5, r6, sl, fp}

000074dc <l7353>:
    74dc:	e15a0e70 	cmp	sl, r0, ror lr

000074e0 <l7354>:
    74e0:	00109067 	andseq	r9, r0, r7, rrx

000074e4 <l7355>:
    74e4:	e3a0e01c 	mov	lr, #28

000074e8 <l7356>:
    74e8:	e72d500e 	str	r5, [sp, -lr]!

000074ec <l7357>:
    74ec:	6a000003 	bvs	7500 <l7362>

000074f0 <l7358>:
    74f0:	d31000c9 	tstle	r0, #201	; 0xc9

000074f4 <l7359>:
    74f4:	8022ca79 	eorhi	ip, r2, r9, ror sl

000074f8 <l7360>:
    74f8:	e0413003 	sub	r3, r1, r3

000074fc <l7361>:
    74fc:	13110102 	tstne	r1, #-2147483648	; 0x80000000

00007500 <l7362>:
    7500:	e00b9553 	and	r9, fp, r3, asr r5

00007504 <l7363>:
    7504:	11300007 	teqne	r0, r7

00007508 <l7364>:
    7508:	e3580201 	cmp	r8, #268435456	; 0x10000000

0000750c <l7365>:
    750c:	e3a0a00b 	mov	sl, #11

00007510 <l7366>:
    7510:	e75db00a 	ldrb	fp, [sp, -sl]

00007514 <l7367>:
    7514:	3affffff 	bcc	7518 <l7368>

00007518 <l7368>:
    7518:	e0dc475b 	sbcs	r4, ip, fp, asr r7

0000751c <l7369>:
    751c:	e3a04008 	mov	r4, #8

00007520 <l7370>:
    7520:	a70d4004 	strge	r4, [sp, -r4]

00007524 <l7371>:
    7524:	e042a7e0 	sub	sl, r2, r0, ror #15

00007528 <l7372>:
    7528:	c16fef10 	clzgt	lr, r0

0000752c <l7373>:
    752c:	6001e00c 	andvs	lr, r1, ip

00007530 <l7374>:
    7530:	e3a02018 	mov	r2, #24

00007534 <l7375>:
    7534:	e19d90b2 	ldrh	r9, [sp, r2]

00007538 <l7376>:
    7538:	e0930d28 	adds	r0, r3, r8, lsr #26

0000753c <l7377>:
    753c:	5088b006 	addpl	fp, r8, r6

00007540 <l7378>:
    7540:	e0d13b18 	sbcs	r3, r1, r8, lsl fp

00007544 <l7379>:
    7544:	80437002 	subhi	r7, r3, r2

00007548 <l7380>:
    7548:	e83d0011 	ldmda	sp!, {r0, r4}

0000754c <l7381>:
    754c:	e1750003 	cmn	r5, r3

00007550 <l7382>:
    7550:	e039eb44 	eors	lr, r9, r4, asr #22

00007554 <l7383>:
    7554:	e04f3003 	sub	r3, pc, r3

00007558 <l7384>:
    7558:	102ee8c7 	eorne	lr, lr, r7, asr #17

0000755c <l7385>:
    755c:	6a000007 	bvs	7580 <l7394>

00007560 <l7386>:
    7560:	e28010b2 	add	r1, r0, #178	; 0xb2

00007564 <l7387>:
    7564:	23dc9d62 	bicscs	r9, ip, #6272	; 0x1880

00007568 <l7388>:
    7568:	e08c5068 	add	r5, ip, r8, rrx

0000756c <l7389>:
    756c:	d3d7016a 	bicsle	r0, r7, #-2147483622	; 0x8000001a

00007570 <l7390>:
    7570:	e049e003 	sub	lr, r9, r3

00007574 <l7391>:
    7574:	c05b27e5 	subsgt	r2, fp, r5, ror #15

00007578 <l7392>:
    7578:	716fcf1c 	clzvc	ip, ip

0000757c <l7393>:
    757c:	ea000000 	b	7584 <l7395>

00007580 <l7394>:
    7580:	eafffff7 	b	7564 <l7387>

00007584 <l7395>:
    7584:	e9ad9cf2 	stmib	sp!, {r1, r4, r5, r6, r7, sl, fp, ip, pc}

00007588 <l7396>:
    7588:	32768611 	rsbscc	r8, r6, #17825792	; 0x1100000

0000758c <l7397>:
    758c:	e3a0c00c 	mov	ip, #12

00007590 <l7398>:
    7590:	e7bd400c 	ldr	r4, [sp, ip]!

00007594 <l7399>:
    7594:	b252e92f 	subslt	lr, r2, #770048	; 0xbc000

00007598 <l7400>:
    7598:	60104879 	andsvs	r4, r0, r9, ror r8

0000759c <l7401>:
    759c:	e1d29067 	bics	r9, r2, r7, rrx

000075a0 <l7402>:
    75a0:	e3a07028 	mov	r7, #40	; 0x28

000075a4 <l7403>:
    75a4:	e11d10f7 	ldrsh	r1, [sp, -r7]

000075a8 <l7404>:
    75a8:	e3a07023 	mov	r7, #35	; 0x23

000075ac <l7405>:
    75ac:	d75d8007 	ldrble	r8, [sp, -r7]

000075b0 <l7406>:
    75b0:	e3a07016 	mov	r7, #22

000075b4 <l7407>:
    75b4:	d11d90f7 	ldrshle	r9, [sp, -r7]

000075b8 <l7408>:
    75b8:	925bc619 	subsls	ip, fp, #26214400	; 0x1900000

000075bc <l7409>:
    75bc:	52548d4d 	subspl	r8, r4, #4928	; 0x1340

000075c0 <l7410>:
    75c0:	eaffffff 	b	75c4 <l7411>

000075c4 <l7411>:
    75c4:	80256773 	eorhi	r6, r5, r3, ror r7

000075c8 <l7412>:
    75c8:	e3180333 	tst	r8, #-872415232	; 0xcc000000

000075cc <l7413>:
    75cc:	e0e3600c 	rsc	r6, r3, ip

000075d0 <l7414>:
    75d0:	e029e068 	eor	lr, r9, r8, rrx

000075d4 <l7415>:
    75d4:	e59fc000 	ldr	ip, [pc]	; 75dc <l7417>

000075d8 <l7416>:
    75d8:	ea000000 	b	75e0 <l7418>

000075dc <l7417>:
    75dc:	000fffb0 	.word	0x000fffb0

000075e0 <l7418>:
    75e0:	014c709e 	swpbeq	r7, lr, [ip]

000075e4 <l7419>:
    75e4:	c0aa2258 	adcgt	r2, sl, r8, asr r2

000075e8 <l7420>:
    75e8:	22cc88ed 	sbccs	r8, ip, #15532032	; 0xed0000

000075ec <l7421>:
    75ec:	851d603c 	ldrhi	r6, [sp, #-60]	; 0x3c

000075f0 <l7422>:
    75f0:	e40dc030 	str	ip, [sp], #-48	; 0x30

000075f4 <l7423>:
    75f4:	e1190003 	tst	r9, r3

000075f8 <l7424>:
    75f8:	e0d33318 	sbcs	r3, r3, r8, lsl r3

000075fc <l7425>:
    75fc:	d0ca400a 	sbcle	r4, sl, sl

00007600 <l7426>:
    7600:	e1590060 	cmp	r9, r0, rrx

00007604 <l7427>:
    7604:	3135000b 	teqcc	r5, fp

00007608 <l7428>:
    7608:	50535009 	subspl	r5, r3, r9

0000760c <l7429>:
    760c:	11e02411 	mvnne	r2, r1, lsl r4

00007610 <l7430>:
    7610:	e83d1000 	ldmda	sp!, {ip}

00007614 <l7431>:
    7614:	e3b00916 	movs	r0, #360448	; 0x58000

00007618 <l7432>:
    7618:	31808a4e 	orrcc	r8, r0, lr, asr #20

0000761c <l7433>:
    761c:	4a000007 	bmi	7640 <l7442>

00007620 <l7434>:
    7620:	e28010ba 	add	r1, r0, #186	; 0xba

00007624 <l7435>:
    7624:	e1760959 	cmn	r6, r9, asr r9

00007628 <l7436>:
    7628:	d1360065 	teqle	r6, r5, rrx

0000762c <l7437>:
    762c:	e351035a 	cmp	r1, #1744830465	; 0x68000001

00007630 <l7438>:
    7630:	e0c931a5 	sbc	r3, r9, r5, lsr #3

00007634 <l7439>:
    7634:	e1f01069 	mvns	r1, r9, rrx

00007638 <l7440>:
    7638:	31e010e4 	mvncc	r1, r4, ror #1

0000763c <l7441>:
    763c:	ea000000 	b	7644 <l7443>

00007640 <l7442>:
    7640:	eafffff7 	b	7624 <l7435>

00007644 <l7443>:
    7644:	758d3018 	strvc	r3, [sp, #24]

00007648 <l7444>:
    7648:	d0ba2009 	adcsle	r2, sl, r9

0000764c <l7445>:
    764c:	e3a06016 	mov	r6, #22

00007650 <l7446>:
    7650:	519db0f6 	ldrshpl	fp, [sp, r6]

00007654 <l7447>:
    7654:	53a057cf 	movpl	r5, #54263808	; 0x33c0000

00007658 <l7448>:
    7658:	21a0485a 	asrcs	r4, sl, r8

0000765c <l7449>:
    765c:	ea000006 	b	767c <l7457>

00007660 <l7450>:
    7660:	e28010e7 	add	r1, r0, #231	; 0xe7

00007664 <l7451>:
    7664:	e0285fc9 	eor	r5, r8, r9, asr #31

00007668 <l7452>:
    7668:	20422002 	subcs	r2, r2, r2

0000766c <l7453>:
    766c:	81e00b50 	mvnhi	r0, r0, asr fp

00007670 <l7454>:
    7670:	62da7cc6 	sbcsvs	r7, sl, #50688	; 0xc600

00007674 <l7455>:
    7674:	71f0ac5b 	mvnsvc	sl, fp, asr ip

00007678 <l7456>:
    7678:	ea000000 	b	7680 <l7458>

0000767c <l7457>:
    767c:	eafffff8 	b	7664 <l7451>

00007680 <l7458>:
    7680:	91952111 	orrsls	r2, r5, r1, lsl r1

00007684 <l7459>:
    7684:	e3984ea9 	orrs	r4, r8, #2704	; 0xa90

00007688 <l7460>:
    7688:	6a000005 	bvs	76a4 <l7467>

0000768c <l7461>:
    768c:	e28010cf 	add	r1, r0, #207	; 0xcf

00007690 <l7462>:
    7690:	a0833e1b 	addge	r3, r3, fp, lsl lr

00007694 <l7463>:
    7694:	3192b5ea 	orrscc	fp, r2, sl, ror #11

00007698 <l7464>:
    7698:	41500131 	cmpmi	r0, r1, lsr r1

0000769c <l7465>:
    769c:	101b42a8 	andsne	r4, fp, r8, lsr #5

000076a0 <l7466>:
    76a0:	ea000000 	b	76a8 <l7468>

000076a4 <l7467>:
    76a4:	eafffff9 	b	7690 <l7462>

000076a8 <l7468>:
    76a8:	c0582b7a 	subsgt	r2, r8, sl, ror fp

000076ac <l7469>:
    76ac:	e2911b5a 	adds	r1, r1, #92160	; 0x16800

000076b0 <l7470>:
    76b0:	b17c0470 	cmnlt	ip, r0, ror r4

000076b4 <l7471>:
    76b4:	e5bd801c 	ldr	r8, [sp, #28]!

000076b8 <l7472>:
    76b8:	e3a04014 	mov	r4, #20

000076bc <l7473>:
    76bc:	e60d5004 	str	r5, [sp], -r4

000076c0 <l7474>:
    76c0:	e19fc06a 	orrs	ip, pc, sl, rrx

000076c4 <l7475>:
    76c4:	73c3455a 	bicvc	r4, r3, #377487360	; 0x16800000

000076c8 <l7476>:
    76c8:	e0dfb066 	sbcs	fp, pc, r6, rrx

000076cc <l7477>:
    76cc:	e3a0e010 	mov	lr, #16

000076d0 <l7478>:
    76d0:	e7ade00e 	str	lr, [sp, lr]!

000076d4 <l7479>:
    76d4:	ea000002 	b	76e4 <l7483>

000076d8 <l7480>:
    76d8:	e2801027 	add	r1, r0, #39	; 0x27

000076dc <l7481>:
    76dc:	d1530062 	cmple	r3, r2, rrx

000076e0 <l7482>:
    76e0:	ea000000 	b	76e8 <l7484>

000076e4 <l7483>:
    76e4:	eafffffc 	b	76dc <l7481>

000076e8 <l7484>:
    76e8:	817a0001 	cmnhi	sl, r1

000076ec <l7485>:
    76ec:	e2093000 	and	r3, r9, #0

000076f0 <l7486>:
    76f0:	e282522a 	add	r5, r2, #-1610612734	; 0xa0000002

000076f4 <l7487>:
    76f4:	e0c86007 	sbc	r6, r8, r7

000076f8 <l7488>:
    76f8:	e3a0c024 	mov	ip, #36	; 0x24

000076fc <l7489>:
    76fc:	d19da0bc 	ldrhle	sl, [sp, ip]

00007700 <l7490>:
    7700:	c0b82004 	adcsgt	r2, r8, r4

00007704 <l7491>:
    7704:	e58dc018 	str	ip, [sp, #24]

00007708 <l7492>:
    7708:	d15da0bc 	ldrhle	sl, [sp, #-12]

0000770c <l7493>:
    770c:	e80d0008 	stmda	sp, {r3}

00007710 <l7494>:
    7710:	615de0b4 	ldrhvs	lr, [sp, #-4]

00007714 <l7495>:
    7714:	b133085b 	teqlt	r3, fp, asr r8

00007718 <l7496>:
    7718:	71550fa4 	cmpvc	r5, r4, lsr #31

0000771c <l7497>:
    771c:	302c663e 	eorcc	r6, ip, lr, lsr r6

00007720 <l7498>:
    7720:	60f0c00f 	rscsvs	ip, r0, pc

00007724 <l7499>:
    7724:	31a0a16a 	rorcc	sl, sl, #2

00007728 <l7500>:
    7728:	e0568729 	subs	r8, r6, r9, lsr #14

0000772c <l7501>:
    772c:	81ddc2f4 	ldrshhi	ip, [sp, #36]	; 0x24

00007730 <l7502>:
    7730:	25cd2028 	strbcs	r2, [sp, #40]	; 0x28

00007734 <l7503>:
    7734:	d16f8f19 	clzle	r8, r9

00007738 <l7504>:
    7738:	e3a0c00e 	mov	ip, #14

0000773c <l7505>:
    773c:	411dc0dc 	ldrsbmi	ip, [sp, -ip]

00007740 <l7506>:
    7740:	ea000001 	b	774c <l7509>

00007744 <l7507>:
    7744:	900f8002 	andls	r8, pc, r2

00007748 <l7508>:
    7748:	23770a77 	cmncs	r7, #487424	; 0x77000

0000774c <l7509>:
    774c:	53d4cdee 	bicspl	ip, r4, #15232	; 0x3b80

00007750 <l7510>:
    7750:	ea000003 	b	7764 <l7515>

00007754 <l7511>:
    7754:	e280104c 	add	r1, r0, #76	; 0x4c

00007758 <l7512>:
    7758:	e26428e2 	rsb	r2, r4, #14811136	; 0xe20000

0000775c <l7513>:
    775c:	700a5caa 	andvc	r5, sl, sl, lsr #25

00007760 <l7514>:
    7760:	ea000000 	b	7768 <l7516>

00007764 <l7515>:
    7764:	eafffffb 	b	7758 <l7512>

00007768 <l7516>:
    7768:	81d9106e 	bicshi	r1, r9, lr, rrx

0000776c <l7517>:
    776c:	e3f0a63a 	mvns	sl, #60817408	; 0x3a00000

00007770 <l7518>:
    7770:	a045b2af 	subge	fp, r5, pc, lsr #5

00007774 <l7519>:
    7774:	c0a0843c 	adcgt	r8, r0, ip, lsr r4

00007778 <l7520>:
    7778:	b020306c 	eorlt	r3, r0, ip, rrx

0000777c <l7521>:
    777c:	e1dd62d9 	ldrsb	r6, [sp, #41]	; 0x29

00007780 <l7522>:
    7780:	ea000004 	b	7798 <l7528>

00007784 <l7523>:
    7784:	c0992677 	addsgt	r2, r9, r7, ror r6

00007788 <l7524>:
    7788:	e050e3cb 	subs	lr, r0, fp, asr #7

0000778c <l7525>:
    778c:	e150006b 	cmp	r0, fp, rrx

00007790 <l7526>:
    7790:	e1530756 	cmp	r3, r6, asr r7

00007794 <l7527>:
    7794:	e1540be8 	cmp	r4, r8, ror #23

00007798 <l7528>:
    7798:	e0bc8e55 	adcs	r8, ip, r5, asr lr

0000779c <l7529>:
    779c:	61150b45 	tstvs	r5, r5, asr #22

000077a0 <l7530>:
    77a0:	a1928006 	orrsge	r8, r2, r6

000077a4 <l7531>:
    77a4:	e0aecd25 	adc	ip, lr, r5, lsr #26

000077a8 <l7532>:
    77a8:	ea000007 	b	77cc <l7541>

000077ac <l7533>:
    77ac:	e0d4a872 	sbcs	sl, r4, r2, ror r8

000077b0 <l7534>:
    77b0:	e0aea07c 	adc	sl, lr, ip, ror r0

000077b4 <l7535>:
    77b4:	706a027e 	rsbvc	r0, sl, lr, ror r2

000077b8 <l7536>:
    77b8:	716f2f12 	clzvc	r2, r2

000077bc <l7537>:
    77bc:	e13c0004 	teq	ip, r4

000077c0 <l7538>:
    77c0:	8048bba5 	subhi	fp, r8, r5, lsr #23

000077c4 <l7539>:
    77c4:	e0e2b95e 	rsc	fp, r2, lr, asr r9

000077c8 <l7540>:
    77c8:	c37a0b93 	cmngt	sl, #150528	; 0x24c00

000077cc <l7541>:
    77cc:	d31a0471 	tstle	sl, #1895825408	; 0x71000000

000077d0 <l7542>:
    77d0:	e3a0e020 	mov	lr, #32

000077d4 <l7543>:
    77d4:	319db0fe 	ldrshcc	fp, [sp, lr]

000077d8 <l7544>:
    77d8:	e0e1e904 	rsc	lr, r1, r4, lsl #18

000077dc <l7545>:
    77dc:	e0aa2009 	adc	r2, sl, r9

000077e0 <l7546>:
    77e0:	e3a0b017 	mov	fp, #23

000077e4 <l7547>:
    77e4:	a7cd600b 	strbge	r6, [sp, fp]

000077e8 <l7548>:
    77e8:	b0a7adae 	adclt	sl, r7, lr, lsr #27

000077ec <l7549>:
    77ec:	e09f6008 	adds	r6, pc, r8

000077f0 <l7550>:
    77f0:	e3a0201e 	mov	r2, #30

000077f4 <l7551>:
    77f4:	e7cd5002 	strb	r5, [sp, r2]

000077f8 <l7552>:
    77f8:	e39a3bce 	orrs	r3, sl, #210944	; 0x33800

000077fc <l7553>:
    77fc:	9089306c 	addls	r3, r9, ip, rrx

00007800 <l7554>:
    7800:	e0df000c 	sbcs	r0, pc, ip

00007804 <l7555>:
    7804:	0291e307 	addseq	lr, r1, #469762048	; 0x1c000000

00007808 <l7556>:
    7808:	e92d510e 	push	{r1, r2, r3, r8, ip, lr}

0000780c <l7557>:
    780c:	e07ba81a 	rsbs	sl, fp, sl, lsl r8

00007810 <l7558>:
    7810:	315d40d4 	ldrsbcc	r4, [sp, #-4]

00007814 <l7559>:
    7814:	113e0008 	teqne	lr, r8

00007818 <l7560>:
    7818:	72ccb23d 	sbcvc	fp, ip, #-805306365	; 0xd0000003

0000781c <l7561>:
    781c:	e37204c1 	cmn	r2, #-1056964608	; 0xc1000000

00007820 <l7562>:
    7820:	b0e50009 	rsclt	r0, r5, r9

00007824 <l7563>:
    7824:	e1a00000 	nop			; (mov r0, r0)

00007828 <l7564>:
    7828:	75dd8009 	ldrbvc	r8, [sp, #9]

0000782c <l7565>:
    782c:	e15d60d3 	ldrsb	r6, [sp, #-3]

00007830 <l7566>:
    7830:	e07e300c 	rsbs	r3, lr, ip

00007834 <l7567>:
    7834:	ea000003 	b	7848 <l7572>

00007838 <l7568>:
    7838:	e2801026 	add	r1, r0, #38	; 0x26

0000783c <l7569>:
    783c:	520fb8ab 	andpl	fp, pc, #11206656	; 0xab0000

00007840 <l7570>:
    7840:	c2900772 	addsgt	r0, r0, #29884416	; 0x1c80000

00007844 <l7571>:
    7844:	ea000000 	b	784c <l7573>

00007848 <l7572>:
    7848:	eafffffb 	b	783c <l7569>

0000784c <l7573>:
    784c:	e59f8000 	ldr	r8, [pc]	; 7854 <l7575>

00007850 <l7574>:
    7850:	ea000000 	b	7858 <l7576>

00007854 <l7575>:
    7854:	000fffb8 	.word	0x000fffb8

00007858 <l7576>:
    7858:	d108a09b 	swple	sl, fp, [r8]

0000785c <l7577>:
    785c:	e1a00000 	nop			; (mov r0, r0)

00007860 <l7578>:
    7860:	e5dd0025 	ldrb	r0, [sp, #37]	; 0x25

00007864 <l7579>:
    7864:	e0a68002 	adc	r8, r6, r2

00007868 <l7580>:
    7868:	e3a0c003 	mov	ip, #3

0000786c <l7581>:
    786c:	919de0dc 	ldrsbls	lr, [sp, ip]

00007870 <l7582>:
    7870:	13770058 	cmnne	r7, #88	; 0x58

00007874 <l7583>:
    7874:	ea000006 	b	7894 <l7591>

00007878 <l7584>:
    7878:	e28010c8 	add	r1, r0, #200	; 0xc8

0000787c <l7585>:
    787c:	c0291880 	eorgt	r1, r9, r0, lsl #17

00007880 <l7586>:
    7880:	e1a0c06f 	rrx	ip, pc

00007884 <l7587>:
    7884:	e033542e 	eors	r5, r3, lr, lsr #8

00007888 <l7588>:
    7888:	a21c0687 	andsge	r0, ip, #141557760	; 0x8700000

0000788c <l7589>:
    788c:	e17c0759 	cmn	ip, r9, asr r7

00007890 <l7590>:
    7890:	ea000000 	b	7898 <l7592>

00007894 <l7591>:
    7894:	eafffff8 	b	787c <l7585>

00007898 <l7592>:
    7898:	e187200e 	orr	r2, r7, lr

0000789c <l7593>:
    789c:	c0446b3c 	subgt	r6, r4, ip, lsr fp

000078a0 <l7594>:
    78a0:	e08c106a 	add	r1, ip, sl, rrx

000078a4 <l7595>:
    78a4:	9083b661 	addls	fp, r3, r1, ror #12

000078a8 <l7596>:
    78a8:	4191733c 	orrsmi	r7, r1, ip, lsr r3

000078ac <l7597>:
    78ac:	e13f006c 	teq	pc, ip, rrx

000078b0 <l7598>:
    78b0:	e3a0a02c 	mov	sl, #44	; 0x2c

000078b4 <l7599>:
    78b4:	e68d300a 	str	r3, [sp], sl

000078b8 <l7600>:
    78b8:	e3a06016 	mov	r6, #22

000078bc <l7601>:
    78bc:	410db0b6 	strhmi	fp, [sp, -r6]

000078c0 <l7602>:
    78c0:	e3a00014 	mov	r0, #20

000078c4 <l7603>:
    78c4:	e7ad6000 	str	r6, [sp, r0]!

000078c8 <l7604>:
    78c8:	e59fe000 	ldr	lr, [pc]	; 78d0 <l7606>

000078cc <l7605>:
    78cc:	ea000000 	b	78d4 <l7607>

000078d0 <l7606>:
    78d0:	000fffc0 	.word	0x000fffc0

000078d4 <l7607>:
    78d4:	e14ec098 	swpb	ip, r8, [lr]

000078d8 <l7608>:
    78d8:	e096503a 	adds	r5, r6, sl, lsr r0

000078dc <l7609>:
    78dc:	e2b9e067 	adcs	lr, r9, #103	; 0x67

000078e0 <l7610>:
    78e0:	111a0008 	tstne	sl, r8

000078e4 <l7611>:
    78e4:	81790b2b 	cmnhi	r9, fp, lsr #22

000078e8 <l7612>:
    78e8:	2a000007 	bcs	790c <l7621>

000078ec <l7613>:
    78ec:	e280107d 	add	r1, r0, #125	; 0x7d

000078f0 <l7614>:
    78f0:	02428937 	subeq	r8, r2, #901120	; 0xdc000

000078f4 <l7615>:
    78f4:	e1570008 	cmp	r7, r8

000078f8 <l7616>:
    78f8:	739b5b9d 	orrsvc	r5, fp, #160768	; 0x27400

000078fc <l7617>:
    78fc:	72ea7913 	rscvc	r7, sl, #311296	; 0x4c000

00007900 <l7618>:
    7900:	e20f3abd 	and	r3, pc, #774144	; 0xbd000

00007904 <l7619>:
    7904:	b1ca59e3 	biclt	r5, sl, r3, ror #19

00007908 <l7620>:
    7908:	ea000000 	b	7910 <l7622>

0000790c <l7621>:
    790c:	eafffff7 	b	78f0 <l7614>

00007910 <l7622>:
    7910:	e3a02038 	mov	r2, #56	; 0x38

00007914 <l7623>:
    7914:	e60d5002 	str	r5, [sp], -r2

00007918 <l7624>:
    7918:	e3a0303b 	mov	r3, #59	; 0x3b

0000791c <l7625>:
    791c:	919d20d3 	ldrsbls	r2, [sp, r3]

00007920 <l7626>:
    7920:	3173000e 	cmncc	r3, lr

00007924 <l7627>:
    7924:	e3a04004 	mov	r4, #4

00007928 <l7628>:
    7928:	e18d00b4 	strh	r0, [sp, r4]

0000792c <l7629>:
    792c:	d13a0039 	teqle	sl, r9, lsr r0

00007930 <l7630>:
    7930:	7000700b 	andvc	r7, r0, fp

00007934 <l7631>:
    7934:	00ec7a1b 	rsceq	r7, ip, fp, lsl sl

00007938 <l7632>:
    7938:	416f5f18 	clzmi	r5, r8

0000793c <l7633>:
    793c:	41130050 	tstmi	r3, r0, asr r0

00007940 <l7634>:
    7940:	e5ad1004 	str	r1, [sp, #4]!

00007944 <l7635>:
    7944:	a54d400f 	strbge	r4, [sp, #-15]

00007948 <l7636>:
    7948:	e3a02030 	mov	r2, #48	; 0x30

0000794c <l7637>:
    794c:	479d4002 	ldrmi	r4, [sp, r2]

00007950 <l7638>:
    7950:	00d695a1 	sbcseq	r9, r6, r1, lsr #11

00007954 <l7639>:
    7954:	81f07001 	mvnshi	r7, r1

00007958 <l7640>:
    7958:	92f092e2 	rscsls	r9, r0, #536870926	; 0x2000000e

0000795c <l7641>:
    795c:	e3a03020 	mov	r3, #32

00007960 <l7642>:
    7960:	078d2003 	streq	r2, [sp, r3]

00007964 <l7643>:
    7964:	e1cd71b6 	strh	r7, [sp, #22]

00007968 <l7644>:
    7968:	e3a06002 	mov	r6, #2

0000796c <l7645>:
    796c:	b11d30f6 	ldrshlt	r3, [sp, -r6]

00007970 <l7646>:
    7970:	1a000007 	bne	7994 <l7655>

00007974 <l7647>:
    7974:	e280104a 	add	r1, r0, #74	; 0x4a

00007978 <l7648>:
    7978:	a1f00618 	mvnsge	r0, r8, lsl r6

0000797c <l7649>:
    797c:	608c4786 	addvs	r4, ip, r6, lsl #15

00007980 <l7650>:
    7980:	60e5cfef 	rscvs	ip, r5, pc, ror #31

00007984 <l7651>:
    7984:	7056c175 	subsvc	ip, r6, r5, ror r1

00007988 <l7652>:
    7988:	01dbc971 	bicseq	ip, fp, r1, ror r9

0000798c <l7653>:
    798c:	e086844e 	add	r8, r6, lr, asr #8

00007990 <l7654>:
    7990:	ea000000 	b	7998 <l7656>

00007994 <l7655>:
    7994:	eafffff7 	b	7978 <l7648>

00007998 <l7656>:
    7998:	e3a02018 	mov	r2, #24

0000799c <l7657>:
    799c:	a18dc0b2 	strhge	ip, [sp, r2]

000079a0 <l7658>:
    79a0:	e2b3e02c 	adcs	lr, r3, #44	; 0x2c

000079a4 <l7659>:
    79a4:	e1750b20 	cmn	r5, r0, lsr #22

000079a8 <l7660>:
    79a8:	05dd5007 	ldrbeq	r5, [sp, #7]

000079ac <l7661>:
    79ac:	215db0f8 	ldrshcs	fp, [sp, #-8]

000079b0 <l7662>:
    79b0:	e9bd4562 	ldmib	sp!, {r1, r5, r6, r8, sl, lr}

000079b4 <l7663>:
    79b4:	e51d901c 	ldr	r9, [sp, #-28]

000079b8 <l7664>:
    79b8:	e27ec431 	rsbs	ip, lr, #822083584	; 0x31000000

000079bc <l7665>:
    79bc:	e0f91acb 	rscs	r1, r9, fp, asr #21

000079c0 <l7666>:
    79c0:	e05e081a 	subs	r0, lr, sl, lsl r8

000079c4 <l7667>:
    79c4:	63e0cc92 	mvnvs	ip, #37376	; 0x9200

000079c8 <l7668>:
    79c8:	e13e0009 	teq	lr, r9

000079cc <l7669>:
    79cc:	e93d1fc1 	ldmdb	sp!, {r0, r6, r7, r8, r9, sl, fp, ip}

000079d0 <l7670>:
    79d0:	71e05006 	mvnvc	r5, r6

000079d4 <l7671>:
    79d4:	e3a0300e 	mov	r3, #14

000079d8 <l7672>:
    79d8:	419de0b3 	ldrhmi	lr, [sp, r3]

000079dc <l7673>:
    79dc:	915da0d5 	ldrsbls	sl, [sp, #-5]

000079e0 <l7674>:
    79e0:	414d20b4 	strhmi	r2, [sp, #-4]

000079e4 <l7675>:
    79e4:	e3a0b024 	mov	fp, #36	; 0x24

000079e8 <l7676>:
    79e8:	e19d00fb 	ldrsh	r0, [sp, fp]

000079ec <l7677>:
    79ec:	e8bd1412 	pop	{r1, r4, sl, ip}

000079f0 <l7678>:
    79f0:	10247757 	eorne	r7, r4, r7, asr r7

000079f4 <l7679>:
    79f4:	e48d100c 	str	r1, [sp], #12

000079f8 <l7680>:
    79f8:	e3a06012 	mov	r6, #18

000079fc <l7681>:
    79fc:	e74d2006 	strb	r2, [sp, -r6]

00007a00 <l7682>:
    7a00:	e3a04000 	mov	r4, #0

00007a04 <l7683>:
    7a04:	e7bd3004 	ldr	r3, [sp, r4]!

00007a08 <l7684>:
    7a08:	e41db010 	ldr	fp, [sp], #-16

00007a0c <l7685>:
    7a0c:	b066b06e 	rsblt	fp, r6, lr, rrx

00007a10 <l7686>:
    7a10:	e1dd73f2 	ldrsh	r7, [sp, #50]	; 0x32

00007a14 <l7687>:
    7a14:	80da800a 	sbcshi	r8, sl, sl

00007a18 <l7688>:
    7a18:	e0d18175 	sbcs	r8, r1, r5, ror r1

00007a1c <l7689>:
    7a1c:	455de016 	ldrbmi	lr, [sp, #-22]

00007a20 <l7690>:
    7a20:	e1b09918 	lsls	r9, r8, r9

00007a24 <l7691>:
    7a24:	e15d81b4 	ldrh	r8, [sp, #-20]	; 0xffffffec

00007a28 <l7692>:
    7a28:	454de001 	strbmi	lr, [sp, #-1]

00007a2c <l7693>:
    7a2c:	e3a02023 	mov	r2, #35	; 0x23

00007a30 <l7694>:
    7a30:	77dd4002 	ldrbvc	r4, [sp, r2]

00007a34 <l7695>:
    7a34:	e1340164 	teq	r4, r4, ror #2

00007a38 <l7696>:
    7a38:	e88d4c1e 	stm	sp, {r1, r2, r3, r4, sl, fp, lr}

00007a3c <l7697>:
    7a3c:	e1dd21b0 	ldrh	r2, [sp, #16]

00007a40 <l7698>:
    7a40:	e1dd01ba 	ldrh	r0, [sp, #26]

00007a44 <l7699>:
    7a44:	e13506a3 	teq	r5, r3, lsr #13

00007a48 <l7700>:
    7a48:	11dd62be 	ldrhne	r6, [sp, #46]	; 0x2e

00007a4c <l7701>:
    7a4c:	e3a0800c 	mov	r8, #12

00007a50 <l7702>:
    7a50:	b78d6008 	strlt	r6, [sp, r8]

00007a54 <l7703>:
    7a54:	12f109c9 	rscsne	r0, r1, #3293184	; 0x324000

00007a58 <l7704>:
    7a58:	e0041a64 	and	r1, r4, r4, ror #20

00007a5c <l7705>:
    7a5c:	e3a07026 	mov	r7, #38	; 0x26

00007a60 <l7706>:
    7a60:	e7cd0007 	strb	r0, [sp, r7]

00007a64 <l7707>:
    7a64:	e190600e 	orrs	r6, r0, lr

00007a68 <l7708>:
    7a68:	e3a01010 	mov	r1, #16

00007a6c <l7709>:
    7a6c:	971dc001 	ldrls	ip, [sp, -r1]

00007a70 <l7710>:
    7a70:	e59f4000 	ldr	r4, [pc]	; 7a78 <l7712>

00007a74 <l7711>:
    7a74:	ea000000 	b	7a7c <l7713>

00007a78 <l7712>:
    7a78:	000fffc0 	.word	0x000fffc0

00007a7c <l7713>:
    7a7c:	6144a09b 	swpbvs	sl, fp, [r4]

00007a80 <l7714>:
    7a80:	91300972 	teqls	r0, r2, ror r9

00007a84 <l7715>:
    7a84:	e1a00000 	nop			; (mov r0, r0)

00007a88 <l7716>:
    7a88:	e59fa000 	ldr	sl, [pc]	; 7a90 <l7718>

00007a8c <l7717>:
    7a8c:	ea000000 	b	7a94 <l7719>

00007a90 <l7718>:
    7a90:	000fffc0 	.word	0x000fffc0

00007a94 <l7719>:
    7a94:	410a7092 	swpmi	r7, r2, [sl]

00007a98 <l7720>:
    7a98:	e253af51 	subs	sl, r3, #324	; 0x144

00007a9c <l7721>:
    7a9c:	e59fa000 	ldr	sl, [pc]	; 7aa4 <l7723>

00007aa0 <l7722>:
    7aa0:	ea000000 	b	7aa8 <l7724>

00007aa4 <l7723>:
    7aa4:	000fffc0 	.word	0x000fffc0

00007aa8 <l7724>:
    7aa8:	e10a2092 	swp	r2, r2, [sl]

00007aac <l7725>:
    7aac:	e1f04b09 	mvns	r4, r9, lsl #22

00007ab0 <l7726>:
    7ab0:	e1ddb0d7 	ldrsb	fp, [sp, #7]

00007ab4 <l7727>:
    7ab4:	e13b0005 	teq	fp, r5

00007ab8 <l7728>:
    7ab8:	e3b0e52f 	movs	lr, #197132288	; 0xbc00000

00007abc <l7729>:
    7abc:	e13604ea 	teq	r6, sl, ror #9

00007ac0 <l7730>:
    7ac0:	20267006 	eorcs	r7, r6, r6

00007ac4 <l7731>:
    7ac4:	e037106b 	eors	r1, r7, fp, rrx

00007ac8 <l7732>:
    7ac8:	e59f8000 	ldr	r8, [pc]	; 7ad0 <l7734>

00007acc <l7733>:
    7acc:	ea000000 	b	7ad4 <l7735>

00007ad0 <l7734>:
    7ad0:	000fffb4 	.word	0x000fffb4

00007ad4 <l7735>:
    7ad4:	51486093 	swpbpl	r6, r3, [r8]

00007ad8 <l7736>:
    7ad8:	e9bd0bd4 	ldmib	sp!, {r2, r4, r6, r7, r8, r9, fp}

00007adc <l7737>:
    7adc:	e59f9000 	ldr	r9, [pc]	; 7ae4 <l7739>

00007ae0 <l7738>:
    7ae0:	ea000000 	b	7ae8 <l7740>

00007ae4 <l7739>:
    7ae4:	000fffe8 	.word	0x000fffe8

00007ae8 <l7740>:
    7ae8:	5149c095 	swpbpl	ip, r5, [r9]

00007aec <l7741>:
    7aec:	03e0a53a 	mvneq	sl, #243269632	; 0xe800000

00007af0 <l7742>:
    7af0:	e3a06012 	mov	r6, #18

00007af4 <l7743>:
    7af4:	c11de0b6 	ldrhgt	lr, [sp, -r6]

00007af8 <l7744>:
    7af8:	e0617000 	rsb	r7, r1, r0

00007afc <l7745>:
    7afc:	e04ca002 	sub	sl, ip, r2

00007b00 <l7746>:
    7b00:	916f5f18 	clzls	r5, r8

00007b04 <l7747>:
    7b04:	00799e77 	rsbseq	r9, r9, r7, ror lr

00007b08 <l7748>:
    7b08:	615d52d9 	ldrsbvs	r5, [sp, #-41]	; 0xffffffd7

00007b0c <l7749>:
    7b0c:	51100000 	tstpl	r0, r0

00007b10 <l7750>:
    7b10:	223ae2b6 	eorscs	lr, sl, #1610612747	; 0x6000000b

00007b14 <l7751>:
    7b14:	61750062 	cmnvs	r5, r2, rrx

00007b18 <l7752>:
    7b18:	e59f8000 	ldr	r8, [pc]	; 7b20 <l7754>

00007b1c <l7753>:
    7b1c:	ea000000 	b	7b24 <l7755>

00007b20 <l7754>:
    7b20:	000fffb0 	.word	0x000fffb0

00007b24 <l7755>:
    7b24:	e1084095 	swp	r4, r5, [r8]

00007b28 <l7756>:
    7b28:	e5cd200b 	strb	r2, [sp, #11]

00007b2c <l7757>:
    7b2c:	e3a0c023 	mov	ip, #35	; 0x23

00007b30 <l7758>:
    7b30:	e74d300c 	strb	r3, [sp, -ip]

00007b34 <l7759>:
    7b34:	c54d3003 	strbgt	r3, [sp, #-3]

00007b38 <l7760>:
    7b38:	405e125e 	subsmi	r1, lr, lr, asr r2

00007b3c <l7761>:
    7b3c:	e38b67fe 	orr	r6, fp, #66584576	; 0x3f80000

00007b40 <l7762>:
    7b40:	e3a03012 	mov	r3, #18

00007b44 <l7763>:
    7b44:	b74da003 	strblt	sl, [sp, -r3]

00007b48 <l7764>:
    7b48:	115d90f6 	ldrshne	r9, [sp, #-6]

00007b4c <l7765>:
    7b4c:	e0970baf 	adds	r0, r7, pc, lsr #23

00007b50 <l7766>:
    7b50:	7a000005 	bvc	7b6c <l7773>

00007b54 <l7767>:
    7b54:	e28010bc 	add	r1, r0, #188	; 0xbc

00007b58 <l7768>:
    7b58:	e13a065a 	teq	sl, sl, asr r6

00007b5c <l7769>:
    7b5c:	e3ccbc01 	bic	fp, ip, #256	; 0x100

00007b60 <l7770>:
    7b60:	01803e0a 	orreq	r3, r0, sl, lsl #28

00007b64 <l7771>:
    7b64:	80ca9175 	sbchi	r9, sl, r5, ror r1

00007b68 <l7772>:
    7b68:	ea000000 	b	7b70 <l7774>

00007b6c <l7773>:
    7b6c:	eafffff9 	b	7b58 <l7768>

00007b70 <l7774>:
    7b70:	335c01ab 	cmpcc	ip, #-1073741782	; 0xc000002a

00007b74 <l7775>:
    7b74:	e01c3e57 	ands	r3, ip, r7, asr lr

00007b78 <l7776>:
    7b78:	aa000008 	bge	7ba0 <l7786>

00007b7c <l7777>:
    7b7c:	005c1709 	subseq	r1, ip, r9, lsl #14

00007b80 <l7778>:
    7b80:	e1f0a550 	mvns	sl, r0, asr r5

00007b84 <l7779>:
    7b84:	41710acb 	cmnmi	r1, fp, asr #21

00007b88 <l7780>:
    7b88:	d135006a 	teqle	r5, sl, rrx

00007b8c <l7781>:
    7b8c:	504a6006 	subpl	r6, sl, r6

00007b90 <l7782>:
    7b90:	e11c0004 	tst	ip, r4

00007b94 <l7783>:
    7b94:	6087106a 	addvs	r1, r7, sl, rrx

00007b98 <l7784>:
    7b98:	e1d0c170 	bics	ip, r0, r0, ror r1

00007b9c <l7785>:
    7b9c:	d0012d46 	andle	r2, r1, r6, asr #26

00007ba0 <l7786>:
    7ba0:	e08bbdea 	add	fp, fp, sl, ror #27

00007ba4 <l7787>:
    7ba4:	e1b0a006 	movs	sl, r6

00007ba8 <l7788>:
    7ba8:	caffffff 	bgt	7bac <l7789>

00007bac <l7789>:
    7bac:	e1580a79 	cmp	r8, r9, ror sl

00007bb0 <l7790>:
    7bb0:	e3a0400a 	mov	r4, #10

00007bb4 <l7791>:
    7bb4:	919dc0b4 	ldrhls	ip, [sp, r4]

00007bb8 <l7792>:
    7bb8:	b15d13d4 	ldrsblt	r1, [sp, #-52]	; 0xffffffcc

00007bbc <l7793>:
    7bbc:	e3a0401e 	mov	r4, #30

00007bc0 <l7794>:
    7bc0:	910d60b4 	strhls	r6, [sp, -r4]

00007bc4 <l7795>:
    7bc4:	a1140570 	tstge	r4, r0, ror r5

00007bc8 <l7796>:
    7bc8:	851dc014 	ldrhi	ip, [sp, #-20]

00007bcc <l7797>:
    7bcc:	e3a03026 	mov	r3, #38	; 0x26

00007bd0 <l7798>:
    7bd0:	811d10f3 	ldrshhi	r1, [sp, -r3]

00007bd4 <l7799>:
    7bd4:	e8ad0828 	stmia	sp!, {r3, r5, fp}

00007bd8 <l7800>:
    7bd8:	e3a06026 	mov	r6, #38	; 0x26

00007bdc <l7801>:
    7bdc:	311d20f6 	ldrshcc	r2, [sp, -r6]

00007be0 <l7802>:
    7be0:	e3b04606 	movs	r4, #6291456	; 0x600000

00007be4 <l7803>:
    7be4:	631b0345 	tstvs	fp, #335544321	; 0x14000001

00007be8 <l7804>:
    7be8:	e49dc000 	ldr	ip, [sp], #0

00007bec <l7805>:
    7bec:	e17b0006 	cmn	fp, r6

00007bf0 <l7806>:
    7bf0:	e3a0b002 	mov	fp, #2

00007bf4 <l7807>:
    7bf4:	e7cdc00b 	strb	ip, [sp, fp]

00007bf8 <l7808>:
    7bf8:	411b000c 	tstmi	fp, ip

00007bfc <l7809>:
    7bfc:	e3550f99 	cmp	r5, #612	; 0x264

00007c00 <l7810>:
    7c00:	e0f11061 	rscs	r1, r1, r1, rrx

00007c04 <l7811>:
    7c04:	e1f0e57e 	mvns	lr, lr, ror r5

00007c08 <l7812>:
    7c08:	e1f0b214 	mvns	fp, r4, lsl r2

00007c0c <l7813>:
    7c0c:	80cf100f 	sbchi	r1, pc, pc

00007c10 <l7814>:
    7c10:	e0c85e7e 	sbc	r5, r8, lr, ror lr

00007c14 <l7815>:
    7c14:	e3a06019 	mov	r6, #25

00007c18 <l7816>:
    7c18:	511d70d6 	ldrsbpl	r7, [sp, -r6]

00007c1c <l7817>:
    7c1c:	e0b7333b 	adcs	r3, r7, fp, lsr r3

00007c20 <l7818>:
    7c20:	7285a63d 	addvc	sl, r5, #63963136	; 0x3d00000

00007c24 <l7819>:
    7c24:	401f9009 	andsmi	r9, pc, r9

00007c28 <l7820>:
    7c28:	e13c000a 	teq	ip, sl

00007c2c <l7821>:
    7c2c:	380de6a3 	stmdacc	sp, {r0, r1, r5, r7, r9, sl, sp, lr, pc}

00007c30 <l7822>:
    7c30:	e3a0c004 	mov	ip, #4

00007c34 <l7823>:
    7c34:	119d40fc 	ldrshne	r4, [sp, ip]

00007c38 <l7824>:
    7c38:	81110007 	tsthi	r1, r7

00007c3c <l7825>:
    7c3c:	e41d0004 	ldr	r0, [sp], #-4

00007c40 <l7826>:
    7c40:	80ef2f42 	rschi	r2, pc, r2, asr #30

00007c44 <l7827>:
    7c44:	714da2be 	strhvc	sl, [sp, #-46]	; 0xffffffd2

00007c48 <l7828>:
    7c48:	90c27004 	sbcls	r7, r2, r4

00007c4c <l7829>:
    7c4c:	414d30b6 	strhmi	r3, [sp, #-6]

00007c50 <l7830>:
    7c50:	50d02007 	sbcspl	r2, r0, r7

00007c54 <l7831>:
    7c54:	e54d501e 	strb	r5, [sp, #-30]

00007c58 <l7832>:
    7c58:	5a000006 	bpl	7c78 <l7840>

00007c5c <l7833>:
    7c5c:	e280107f 	add	r1, r0, #127	; 0x7f

00007c60 <l7834>:
    7c60:	2038400c 	eorscs	r4, r8, ip

00007c64 <l7835>:
    7c64:	e196accf 	orrs	sl, r6, pc, asr #25

00007c68 <l7836>:
    7c68:	e294b805 	adds	fp, r4, #327680	; 0x50000

00007c6c <l7837>:
    7c6c:	81f05019 	mvnshi	r5, r9, lsl r0

00007c70 <l7838>:
    7c70:	63710cdd 	cmnvs	r1, #56576	; 0xdd00

00007c74 <l7839>:
    7c74:	ea000000 	b	7c7c <l7841>

00007c78 <l7840>:
    7c78:	eafffff8 	b	7c60 <l7834>

00007c7c <l7841>:
    7c7c:	e07b7ec8 	rsbs	r7, fp, r8, asr #29

00007c80 <l7842>:
    7c80:	ea000006 	b	7ca0 <l7850>

00007c84 <l7843>:
    7c84:	01340003 	teqeq	r4, r3

00007c88 <l7844>:
    7c88:	73e0976d 	mvnvc	r9, #28573696	; 0x1b40000

00007c8c <l7845>:
    7c8c:	907be007 	rsbsls	lr, fp, r7

00007c90 <l7846>:
    7c90:	e05e4009 	subs	r4, lr, r9

00007c94 <l7847>:
    7c94:	c3160622 	tstgt	r6, #35651584	; 0x2200000

00007c98 <l7848>:
    7c98:	e023006b 	eor	r0, r3, fp, rrx

00007c9c <l7849>:
    7c9c:	1020706f 	eorne	r7, r0, pc, rrx

00007ca0 <l7850>:
    7ca0:	2334060e 	teqcs	r4, #14680064	; 0xe00000

00007ca4 <l7851>:
    7ca4:	914d10ba 	strhls	r1, [sp, #-10]

00007ca8 <l7852>:
    7ca8:	002075ee 	eoreq	r7, r0, lr, ror #11

00007cac <l7853>:
    7cac:	e11a0006 	tst	sl, r6

00007cb0 <l7854>:
    7cb0:	e59fb000 	ldr	fp, [pc]	; 7cb8 <l7856>

00007cb4 <l7855>:
    7cb4:	ea000000 	b	7cbc <l7857>

00007cb8 <l7856>:
    7cb8:	000fffd0 	.word	0x000fffd0

00007cbc <l7857>:
    7cbc:	e14b509e 	swpb	r5, lr, [fp]

00007cc0 <l7858>:
    7cc0:	72eec925 	rscvc	ip, lr, #606208	; 0x94000

00007cc4 <l7859>:
    7cc4:	e023006b 	eor	r0, r3, fp, rrx

00007cc8 <l7860>:
    7cc8:	e15d41da 	ldrsb	r4, [sp, #-26]	; 0xffffffe6

00007ccc <l7861>:
    7ccc:	9a000006 	bls	7cec <l7869>

00007cd0 <l7862>:
    7cd0:	e243c24e 	sub	ip, r3, #-536870908	; 0xe0000004

00007cd4 <l7863>:
    7cd4:	e16f8f1c 	clz	r8, ip

00007cd8 <l7864>:
    7cd8:	e0650726 	rsb	r0, r5, r6, lsr #14

00007cdc <l7865>:
    7cdc:	d0241769 	eorle	r1, r4, r9, ror #14

00007ce0 <l7866>:
    7ce0:	d1b00001 	movsle	r0, r1

00007ce4 <l7867>:
    7ce4:	e05c0004 	subs	r0, ip, r4

00007ce8 <l7868>:
    7ce8:	71100069 	tstvc	r0, r9, rrx

00007cec <l7869>:
    7cec:	e05e7a82 	subs	r7, lr, r2, lsl #21

00007cf0 <l7870>:
    7cf0:	e15d40d2 	ldrsb	r4, [sp, #-2]

00007cf4 <l7871>:
    7cf4:	3025700b 	eorcc	r7, r5, fp

00007cf8 <l7872>:
    7cf8:	01a0b009 	moveq	fp, r9

00007cfc <l7873>:
    7cfc:	e93d4b13 	ldmdb	sp!, {r0, r1, r4, r8, r9, fp, lr}

00007d00 <l7874>:
    7d00:	b16fef13 	clzlt	lr, r3

00007d04 <l7875>:
    7d04:	e38a54e1 	orr	r5, sl, #-520093696	; 0xe1000000

00007d08 <l7876>:
    7d08:	61f0b00c 	mvnsvs	fp, ip

00007d0c <l7877>:
    7d0c:	e3a0400e 	mov	r4, #14

00007d10 <l7878>:
    7d10:	d18d20b4 	strhle	r2, [sp, r4]

00007d14 <l7879>:
    7d14:	2005900f 	andcs	r9, r5, pc

00007d18 <l7880>:
    7d18:	b1ddb1b2 	ldrhlt	fp, [sp, #18]

00007d1c <l7881>:
    7d1c:	e3a08006 	mov	r8, #6

00007d20 <l7882>:
    7d20:	e19d70f8 	ldrsh	r7, [sp, r8]

00007d24 <l7883>:
    7d24:	e1dd91b0 	ldrh	r9, [sp, #16]

00007d28 <l7884>:
    7d28:	e0f25065 	rscs	r5, r2, r5, rrx

00007d2c <l7885>:
    7d2c:	b245b21e 	sublt	fp, r5, #-536870911	; 0xe0000001

00007d30 <l7886>:
    7d30:	e3a0002a 	mov	r0, #42	; 0x2a

00007d34 <l7887>:
    7d34:	c19de0f0 	ldrshgt	lr, [sp, r0]

00007d38 <l7888>:
    7d38:	508ba00b 	addpl	sl, fp, fp

00007d3c <l7889>:
    7d3c:	7008c002 	andvc	ip, r8, r2

00007d40 <l7890>:
    7d40:	b16f6f15 	clzlt	r6, r5

00007d44 <l7891>:
    7d44:	e89d58fd 	ldm	sp, {r0, r2, r3, r4, r5, r6, r7, fp, ip, lr}

00007d48 <l7892>:
    7d48:	e0879002 	add	r9, r7, r2

00007d4c <l7893>:
    7d4c:	ea000007 	b	7d70 <l7902>

00007d50 <l7894>:
    7d50:	e280100d 	add	r1, r0, #13

00007d54 <l7895>:
    7d54:	e0b6a00c 	adcs	sl, r6, ip

00007d58 <l7896>:
    7d58:	e05c3004 	subs	r3, ip, r4

00007d5c <l7897>:
    7d5c:	e1d7884a 	bics	r8, r7, sl, asr #16

00007d60 <l7898>:
    7d60:	9177006b 	cmnls	r7, fp, rrx

00007d64 <l7899>:
    7d64:	e379093b 	cmn	r9, #966656	; 0xec000

00007d68 <l7900>:
    7d68:	e20bb8bf 	and	fp, fp, #12517376	; 0xbf0000

00007d6c <l7901>:
    7d6c:	ea000000 	b	7d74 <l7903>

00007d70 <l7902>:
    7d70:	eafffff7 	b	7d54 <l7895>

00007d74 <l7903>:
    7d74:	405b8009 	subsmi	r8, fp, r9

00007d78 <l7904>:
    7d78:	d04c7000 	suble	r7, ip, r0

00007d7c <l7905>:
    7d7c:	e1f09748 	mvns	r9, r8, asr #14

00007d80 <l7906>:
    7d80:	e1ddc1b0 	ldrh	ip, [sp, #16]

00007d84 <l7907>:
    7d84:	0178000c 	cmneq	r8, ip

00007d88 <l7908>:
    7d88:	e0088c8c 	and	r8, r8, ip, lsl #25

00007d8c <l7909>:
    7d8c:	e93d0602 	ldmdb	sp!, {r1, r9, sl}

00007d90 <l7910>:
    7d90:	824a3ec5 	subhi	r3, sl, #3152	; 0xc50

00007d94 <l7911>:
    7d94:	e3b08d5f 	movs	r8, #6080	; 0x17c0

00007d98 <l7912>:
    7d98:	e5bd3030 	ldr	r3, [sp, #48]!	; 0x30

00007d9c <l7913>:
    7d9c:	e1a0a004 	mov	sl, r4

00007da0 <l7914>:
    7da0:	e9bd4000 	ldmib	sp!, {lr}

00007da4 <l7915>:
    7da4:	e50d300c 	str	r3, [sp, #-12]

00007da8 <l7916>:
    7da8:	e23fe72e 	eors	lr, pc, #12058624	; 0xb80000

00007dac <l7917>:
    7dac:	e21528aa 	ands	r2, r5, #11141120	; 0xaa0000

00007db0 <l7918>:
    7db0:	e1720000 	cmn	r2, r0

00007db4 <l7919>:
    7db4:	b060c001 	rsblt	ip, r0, r1

00007db8 <l7920>:
    7db8:	e92d0302 	push	{r1, r8, r9}

00007dbc <l7921>:
    7dbc:	70cb5d65 	sbcvc	r5, fp, r5, ror #26

00007dc0 <l7922>:
    7dc0:	e3a08014 	mov	r8, #20

00007dc4 <l7923>:
    7dc4:	a11d20f8 	ldrshge	r2, [sp, -r8]

00007dc8 <l7924>:
    7dc8:	e15da3bc 	ldrh	sl, [sp, #-60]	; 0xffffffc4

00007dcc <l7925>:
    7dcc:	e1d47675 	bics	r7, r4, r5, ror r6

00007dd0 <l7926>:
    7dd0:	e3a0302c 	mov	r3, #44	; 0x2c

00007dd4 <l7927>:
    7dd4:	774db003 	strbvc	fp, [sp, -r3]

00007dd8 <l7928>:
    7dd8:	855db017 	ldrbhi	fp, [sp, #-23]

00007ddc <l7929>:
    7ddc:	40976115 	addsmi	r6, r7, r5, lsl r1

00007de0 <l7930>:
    7de0:	e3a0e03a 	mov	lr, #58	; 0x3a

00007de4 <l7931>:
    7de4:	511d20de 	ldrsbpl	r2, [sp, -lr]

00007de8 <l7932>:
    7de8:	e28601c3 	add	r0, r6, #-1073741776	; 0xc0000030

00007dec <l7933>:
    7dec:	e40d6004 	str	r6, [sp], #-4

00007df0 <l7934>:
    7df0:	43770a2b 	cmnmi	r7, #176128	; 0x2b000

00007df4 <l7935>:
    7df4:	e59f4000 	ldr	r4, [pc]	; 7dfc <l7937>

00007df8 <l7936>:
    7df8:	ea000000 	b	7e00 <l7938>

00007dfc <l7937>:
    7dfc:	000fffd0 	.word	0x000fffd0

00007e00 <l7938>:
    7e00:	e1042093 	swp	r2, r3, [r4]

00007e04 <l7939>:
    7e04:	e26bb2c7 	rsb	fp, fp, #1879048204	; 0x7000000c

00007e08 <l7940>:
    7e08:	e3a03022 	mov	r3, #34	; 0x22

00007e0c <l7941>:
    7e0c:	e10da0b3 	strh	sl, [sp, -r3]

00007e10 <l7942>:
    7e10:	e0b33868 	adcs	r3, r3, r8, ror #16

00007e14 <l7943>:
    7e14:	31dd41d1 	ldrsbcc	r4, [sp, #17]

00007e18 <l7944>:
    7e18:	e1a02064 	rrx	r2, r4

00007e1c <l7945>:
    7e1c:	e3a0700c 	mov	r7, #12

00007e20 <l7946>:
    7e20:	e18d70b7 	strh	r7, [sp, r7]

00007e24 <l7947>:
    7e24:	713e0007 	teqvc	lr, r7

00007e28 <l7948>:
    7e28:	ca000003 	bgt	7e3c <l7953>

00007e2c <l7949>:
    7e2c:	e28010fb 	add	r1, r0, #251	; 0xfb

00007e30 <l7950>:
    7e30:	b136037a 	teqlt	r6, sl, ror r3

00007e34 <l7951>:
    7e34:	e2e69416 	rsc	r9, r6, #369098752	; 0x16000000

00007e38 <l7952>:
    7e38:	ea000000 	b	7e40 <l7954>

00007e3c <l7953>:
    7e3c:	eafffffb 	b	7e30 <l7950>

00007e40 <l7954>:
    7e40:	e3a00004 	mov	r0, #4

00007e44 <l7955>:
    7e44:	011de0b0 	ldrheq	lr, [sp, -r0]

00007e48 <l7956>:
    7e48:	71310b21 	teqvc	r1, r1, lsr #22

00007e4c <l7957>:
    7e4c:	e05c4353 	subs	r4, ip, r3, asr r3

00007e50 <l7958>:
    7e50:	e2b96d21 	adcs	r6, r9, #2112	; 0x840

00007e54 <l7959>:
    7e54:	e3a06013 	mov	r6, #19

00007e58 <l7960>:
    7e58:	e11d70d6 	ldrsb	r7, [sp, -r6]

00007e5c <l7961>:
    7e5c:	e3a09005 	mov	r9, #5

00007e60 <l7962>:
    7e60:	e19dc0d9 	ldrsb	ip, [sp, r9]

00007e64 <l7963>:
    7e64:	d00be00f 	andle	lr, fp, pc

00007e68 <l7964>:
    7e68:	e59f3000 	ldr	r3, [pc]	; 7e70 <l7966>

00007e6c <l7965>:
    7e6c:	ea000000 	b	7e74 <l7967>

00007e70 <l7966>:
    7e70:	000fffd4 	.word	0x000fffd4

00007e74 <l7967>:
    7e74:	e103209a 	swp	r2, sl, [r3]

00007e78 <l7968>:
    7e78:	e0b23663 	adcs	r3, r2, r3, ror #12

00007e7c <l7969>:
    7e7c:	e16f0f19 	clz	r0, r9

00007e80 <l7970>:
    7e80:	321b0000 	andscc	r0, fp, #0

00007e84 <l7971>:
    7e84:	7351010e 	cmpvc	r1, #-2147483645	; 0x80000003

00007e88 <l7972>:
    7e88:	30002e17 	andcc	r2, r0, r7, lsl lr

00007e8c <l7973>:
    7e8c:	e59f7000 	ldr	r7, [pc]	; 7e94 <l7975>

00007e90 <l7974>:
    7e90:	ea000000 	b	7e98 <l7976>

00007e94 <l7975>:
    7e94:	000fffb0 	.word	0x000fffb0

00007e98 <l7976>:
    7e98:	8147e092 	swpbhi	lr, r2, [r7]

00007e9c <l7977>:
    7e9c:	b15d72b2 	ldrhlt	r7, [sp, #-34]	; 0xffffffde

00007ea0 <l7978>:
    7ea0:	e59fc000 	ldr	ip, [pc]	; 7ea8 <l7980>

00007ea4 <l7979>:
    7ea4:	ea000000 	b	7eac <l7981>

00007ea8 <l7980>:
    7ea8:	000fffc8 	.word	0x000fffc8

00007eac <l7981>:
    7eac:	214c7090 	swpbcs	r7, r0, [ip]

00007eb0 <l7982>:
    7eb0:	e52d8024 	str	r8, [sp, #-36]!	; 0x24

00007eb4 <l7983>:
    7eb4:	e1a01004 	mov	r1, r4

00007eb8 <l7984>:
    7eb8:	d5cd9012 	strble	r9, [sp, #18]

00007ebc <l7985>:
    7ebc:	e3a0700a 	mov	r7, #10

00007ec0 <l7986>:
    7ec0:	e11d60f7 	ldrsh	r6, [sp, -r7]

00007ec4 <l7987>:
    7ec4:	e59d1014 	ldr	r1, [sp, #20]

00007ec8 <l7988>:
    7ec8:	c312020b 	tstgt	r2, #-1342177280	; 0xb0000000

00007ecc <l7989>:
    7ecc:	11f08c67 	mvnsne	r8, r7, ror #24

00007ed0 <l7990>:
    7ed0:	e1972e7b 	orrs	r2, r7, fp, ror lr

00007ed4 <l7991>:
    7ed4:	e59f7000 	ldr	r7, [pc]	; 7edc <l7993>

00007ed8 <l7992>:
    7ed8:	ea000000 	b	7ee0 <l7994>

00007edc <l7993>:
    7edc:	000fffc4 	.word	0x000fffc4

00007ee0 <l7994>:
    7ee0:	71073092 	swpvc	r3, r2, [r7]

00007ee4 <l7995>:
    7ee4:	e030b000 	eors	fp, r0, r0

00007ee8 <l7996>:
    7ee8:	5a000004 	bpl	7f00 <l8002>

00007eec <l7997>:
    7eec:	70ab000e 	adcvc	r0, fp, lr

00007ef0 <l7998>:
    7ef0:	e1f07be7 	mvns	r7, r7, ror #23

00007ef4 <l7999>:
    7ef4:	21ca7004 	biccs	r7, sl, r4

00007ef8 <l8000>:
    7ef8:	804b5030 	subhi	r5, fp, r0, lsr r0

00007efc <l8001>:
    7efc:	e20cbecf 	and	fp, ip, #3312	; 0xcf0

00007f00 <l8002>:
    7f00:	03e08602 	mvneq	r8, #2097152	; 0x200000

00007f04 <l8003>:
    7f04:	e1dd90dc 	ldrsb	r9, [sp, #12]

00007f08 <l8004>:
    7f08:	c1130006 	tstgt	r3, r6

00007f0c <l8005>:
    7f0c:	e0eb200f 	rsc	r2, fp, pc

00007f10 <l8006>:
    7f10:	e11e0001 	tst	lr, r1

00007f14 <l8007>:
    7f14:	e25e97d5 	subs	r9, lr, #55836672	; 0x3540000

00007f18 <l8008>:
    7f18:	e5ad1030 	str	r1, [sp, #48]!	; 0x30

00007f1c <l8009>:
    7f1c:	055d502c 	ldrbeq	r5, [sp, #-44]	; 0x2c

00007f20 <l8010>:
    7f20:	e59f8000 	ldr	r8, [pc]	; 7f28 <l8012>

00007f24 <l8011>:
    7f24:	ea000000 	b	7f2c <l8013>

00007f28 <l8012>:
    7f28:	000fffa4 	.word	0x000fffa4

00007f2c <l8013>:
    7f2c:	a1486097 	swpbge	r6, r7, [r8]

00007f30 <l8014>:
    7f30:	e59f9000 	ldr	r9, [pc]	; 7f38 <l8016>

00007f34 <l8015>:
    7f34:	ea000000 	b	7f3c <l8017>

00007f38 <l8016>:
    7f38:	000fffe0 	.word	0x000fffe0

00007f3c <l8017>:
    7f3c:	e1490096 	swpb	r0, r6, [r9]

00007f40 <l8018>:
    7f40:	e29e6b53 	adds	r6, lr, #84992	; 0x14c00

00007f44 <l8019>:
    7f44:	e00c2b87 	and	r2, ip, r7, lsl #23

00007f48 <l8020>:
    7f48:	e3a03032 	mov	r3, #50	; 0x32

00007f4c <l8021>:
    7f4c:	e75d7003 	ldrb	r7, [sp, -r3]

00007f50 <l8022>:
    7f50:	805aab72 	subshi	sl, sl, r2, ror fp

00007f54 <l8023>:
    7f54:	0043aac1 	subeq	sl, r3, r1, asr #21

00007f58 <l8024>:
    7f58:	e3a01038 	mov	r1, #56	; 0x38

00007f5c <l8025>:
    7f5c:	e10d40b1 	strh	r4, [sp, -r1]

00007f60 <l8026>:
    7f60:	e3e0170f 	mvn	r1, #3932160	; 0x3c0000

00007f64 <l8027>:
    7f64:	e0aeeee0 	adc	lr, lr, r0, ror #29

00007f68 <l8028>:
    7f68:	e2d06706 	sbcs	r6, r0, #1572864	; 0x180000

00007f6c <l8029>:
    7f6c:	21dd30b6 	ldrhcs	r3, [sp, #6]

00007f70 <l8030>:
    7f70:	00cf3003 	sbceq	r3, pc, r3

00007f74 <l8031>:
    7f74:	4083b4c9 	addmi	fp, r3, r9, asr #9

00007f78 <l8032>:
    7f78:	e1750009 	cmn	r5, r9

00007f7c <l8033>:
    7f7c:	e53db00c 	ldr	fp, [sp, #-12]!

00007f80 <l8034>:
    7f80:	537a0347 	cmnpl	sl, #469762049	; 0x1c000001

00007f84 <l8035>:
    7f84:	607e23c4 	rsbsvs	r2, lr, r4, asr #7

00007f88 <l8036>:
    7f88:	a25ba0de 	subsge	sl, fp, #222	; 0xde

00007f8c <l8037>:
    7f8c:	63f00005 	mvnsvs	r0, #5

00007f90 <l8038>:
    7f90:	e060e065 	rsb	lr, r0, r5, rrx

00007f94 <l8039>:
    7f94:	e52dc008 	str	ip, [sp, #-8]!

00007f98 <l8040>:
    7f98:	e3a0c018 	mov	ip, #24

00007f9c <l8041>:
    7f9c:	011d70fc 	ldrsheq	r7, [sp, -ip]

00007fa0 <l8042>:
    7fa0:	e5cde009 	strb	lr, [sp, #9]

00007fa4 <l8043>:
    7fa4:	e1c20b54 	bic	r0, r2, r4, asr fp

00007fa8 <l8044>:
    7fa8:	e15d32f0 	ldrsh	r3, [sp, #-32]	; 0xffffffe0

00007fac <l8045>:
    7fac:	050da018 	streq	sl, [sp, #-24]

00007fb0 <l8046>:
    7fb0:	50e1e482 	rscpl	lr, r1, r2, lsl #9

00007fb4 <l8047>:
    7fb4:	511b0586 	tstpl	fp, r6, lsl #11

00007fb8 <l8048>:
    7fb8:	731e020d 	tstvc	lr, #-805306368	; 0xd0000000

00007fbc <l8049>:
    7fbc:	73b069b1 	movsvc	r6, #2899968	; 0x2c4000

00007fc0 <l8050>:
    7fc0:	b27eede7 	rsbslt	lr, lr, #14784	; 0x39c0

00007fc4 <l8051>:
    7fc4:	e3a0e00c 	mov	lr, #12

00007fc8 <l8052>:
    7fc8:	711de0be 	ldrhvc	lr, [sp, -lr]

00007fcc <l8053>:
    7fcc:	e1140062 	tst	r4, r2, rrx

00007fd0 <l8054>:
    7fd0:	907e0009 	rsbsls	r0, lr, r9

00007fd4 <l8055>:
    7fd4:	6111031c 	tstvs	r1, ip, lsl r3

00007fd8 <l8056>:
    7fd8:	e59fc000 	ldr	ip, [pc]	; 7fe0 <l8058>

00007fdc <l8057>:
    7fdc:	ea000000 	b	7fe4 <l8059>

00007fe0 <l8058>:
    7fe0:	000fffbc 	.word	0x000fffbc

00007fe4 <l8059>:
    7fe4:	410ca097 	swpmi	sl, r7, [ip]

00007fe8 <l8060>:
    7fe8:	b15d00b4 	ldrhlt	r0, [sp, #-4]

00007fec <l8061>:
    7fec:	e3a0b019 	mov	fp, #25

00007ff0 <l8062>:
    7ff0:	e19d10db 	ldrsb	r1, [sp, fp]

00007ff4 <l8063>:
    7ff4:	32f57312 	rscscc	r7, r5, #1207959552	; 0x48000000

00007ff8 <l8064>:
    7ff8:	e3a01000 	mov	r1, #0

00007ffc <l8065>:
    7ffc:	e68de001 	str	lr, [sp], r1

00008000 <l8066>:
    8000:	e11c0001 	tst	ip, r1

00008004 <l8067>:
    8004:	e3a0e012 	mov	lr, #18

00008008 <l8068>:
    8008:	47cd300e 	strbmi	r3, [sp, lr]

0000800c <l8069>:
    800c:	d18c261b 	orrle	r2, ip, fp, lsl r6

00008010 <l8070>:
    8010:	e59fe000 	ldr	lr, [pc]	; 8018 <l8072>

00008014 <l8071>:
    8014:	ea000000 	b	801c <l8073>

00008018 <l8072>:
    8018:	000fffd8 	.word	0x000fffd8

0000801c <l8073>:
    801c:	e10e0099 	swp	r0, r9, [lr]

00008020 <l8074>:
    8020:	71e0200e 	mvnvc	r2, lr

00008024 <l8075>:
    8024:	e3a04014 	mov	r4, #20

00008028 <l8076>:
    8028:	e7adc004 	str	ip, [sp, r4]!

0000802c <l8077>:
    802c:	e59f7000 	ldr	r7, [pc]	; 8034 <l8079>

00008030 <l8078>:
    8030:	ea000000 	b	8038 <l8080>

00008034 <l8079>:
    8034:	000fffd0 	.word	0x000fffd0

00008038 <l8080>:
    8038:	e1071095 	swp	r1, r5, [r7]

0000803c <l8081>:
    803c:	091d55c5 	ldmdbeq	sp, {r0, r2, r6, r7, r8, sl, ip, lr}

00008040 <l8082>:
    8040:	e064ca58 	rsb	ip, r4, r8, asr sl

00008044 <l8083>:
    8044:	a55de012 	ldrbge	lr, [sp, #-18]

00008048 <l8084>:
    8048:	005a6777 	subseq	r6, sl, r7, ror r7

0000804c <l8085>:
    804c:	40f8b009 	rscsmi	fp, r8, r9

00008050 <l8086>:
    8050:	00717009 	rsbseq	r7, r1, r9

00008054 <l8087>:
    8054:	e3a0900e 	mov	r9, #14

00008058 <l8088>:
    8058:	711d30f9 	ldrshvc	r3, [sp, -r9]

0000805c <l8089>:
    805c:	c014b5a2 	andsgt	fp, r4, r2, lsr #11

00008060 <l8090>:
    8060:	e15d81d2 	ldrsb	r8, [sp, #-18]	; 0xffffffee

00008064 <l8091>:
    8064:	314d52b4 	strhcc	r5, [sp, #-36]	; 0xffffffdc

00008068 <l8092>:
    8068:	31f05069 	mvnscc	r5, r9, rrx

0000806c <l8093>:
    806c:	e1c7500b 	bic	r5, r7, fp

00008070 <l8094>:
    8070:	0080900f 	addeq	r9, r0, pc

00008074 <l8095>:
    8074:	516f4f12 	clzpl	r4, r2

00008078 <l8096>:
    8078:	e0c219ae 	sbc	r1, r2, lr, lsr #19

0000807c <l8097>:
    807c:	e1949d2e 	orrs	r9, r4, lr, lsr #26

00008080 <l8098>:
    8080:	e04f2066 	sub	r2, pc, r6, rrx

00008084 <l8099>:
    8084:	93b00a03 	movsls	r0, #12288	; 0x3000

00008088 <l8100>:
    8088:	32f66723 	rscscc	r6, r6, #9175040	; 0x8c0000

0000808c <l8101>:
    808c:	e5cd2004 	strb	r2, [sp, #4]

00008090 <l8102>:
    8090:	d01c9006 	andsle	r9, ip, r6

00008094 <l8103>:
    8094:	e59f9000 	ldr	r9, [pc]	; 809c <l8105>

00008098 <l8104>:
    8098:	ea000000 	b	80a0 <l8106>

0000809c <l8105>:
    809c:	000fffbc 	.word	0x000fffbc

000080a0 <l8106>:
    80a0:	a109309e 	swpge	r3, lr, [r9]

000080a4 <l8107>:
    80a4:	e92de000 	push	{sp, lr, pc}

000080a8 <l8108>:
    80a8:	e1a00000 	nop			; (mov r0, r0)

000080ac <l8109>:
    80ac:	e92d98b1 	push	{r0, r4, r5, r7, fp, ip, pc}

000080b0 <l8110>:
    80b0:	e2c99c01 	sbc	r9, r9, #256	; 0x100

000080b4 <l8111>:
    80b4:	e3a06024 	mov	r6, #36	; 0x24

000080b8 <l8112>:
    80b8:	e18d30b6 	strh	r3, [sp, r6]

000080bc <l8113>:
    80bc:	e1ddb1f4 	ldrsh	fp, [sp, #20]

000080c0 <l8114>:
    80c0:	e40d500c 	str	r5, [sp], #-12

000080c4 <l8115>:
    80c4:	c053b002 	subsgt	fp, r3, r2

000080c8 <l8116>:
    80c8:	e3a07028 	mov	r7, #40	; 0x28

000080cc <l8117>:
    80cc:	119d70d7 	ldrsbne	r7, [sp, r7]

000080d0 <l8118>:
    80d0:	a00a200c 	andge	r2, sl, ip

000080d4 <l8119>:
    80d4:	e59f7000 	ldr	r7, [pc]	; 80dc <l8121>

000080d8 <l8120>:
    80d8:	ea000000 	b	80e0 <l8122>

000080dc <l8121>:
    80dc:	000fffc8 	.word	0x000fffc8

000080e0 <l8122>:
    80e0:	e1474098 	swpb	r4, r8, [r7]

000080e4 <l8123>:
    80e4:	a17b0f4c 	cmnge	fp, ip, asr #30

000080e8 <l8124>:
    80e8:	517e097e 	cmnpl	lr, lr, ror r9

000080ec <l8125>:
    80ec:	81120061 	tsthi	r2, r1, rrx

000080f0 <l8126>:
    80f0:	e0500c58 	subs	r0, r0, r8, asr ip

000080f4 <l8127>:
    80f4:	e1dd53d6 	ldrsb	r5, [sp, #54]	; 0x36

000080f8 <l8128>:
    80f8:	725c47ae 	subsvc	r4, ip, #45613056	; 0x2b80000

000080fc <l8129>:
    80fc:	e1cd71b8 	strh	r7, [sp, #24]

00008100 <l8130>:
    8100:	e3a0e00c 	mov	lr, #12

00008104 <l8131>:
    8104:	37cd400e 	strbcc	r4, [sp, lr]

00008108 <l8132>:
    8108:	e0e28536 	rsc	r8, r2, r6, lsr r5

0000810c <l8133>:
    810c:	316f1f19 	clzcc	r1, r9

00008110 <l8134>:
    8110:	e1ddb0d1 	ldrsb	fp, [sp, #1]

00008114 <l8135>:
    8114:	e59f8000 	ldr	r8, [pc]	; 811c <l8137>

00008118 <l8136>:
    8118:	ea000000 	b	8120 <l8138>

0000811c <l8137>:
    811c:	000fffb8 	.word	0x000fffb8

00008120 <l8138>:
    8120:	51485095 	swpbpl	r5, r5, [r8]

00008124 <l8139>:
    8124:	6066500f 	rsbvs	r5, r6, pc

00008128 <l8140>:
    8128:	e3a09028 	mov	r9, #40	; 0x28

0000812c <l8141>:
    812c:	018db0b9 	strheq	fp, [sp, r9]

00008130 <l8142>:
    8130:	600f7425 	andvs	r7, pc, r5, lsr #8

00008134 <l8143>:
    8134:	e1710003 	cmn	r1, r3

00008138 <l8144>:
    8138:	e0f45e75 	rscs	r5, r4, r5, ror lr

0000813c <l8145>:
    813c:	e3a0c008 	mov	ip, #8

00008140 <l8146>:
    8140:	e69db00c 	ldr	fp, [sp], ip

00008144 <l8147>:
    8144:	e5cdb031 	strb	fp, [sp, #49]	; 0x31

00008148 <l8148>:
    8148:	e3a09016 	mov	r9, #22

0000814c <l8149>:
    814c:	b11d80b9 	ldrhlt	r8, [sp, -r9]

00008150 <l8150>:
    8150:	e1deabe6 	bics	sl, lr, r6, ror #23

00008154 <l8151>:
    8154:	e0142001 	ands	r2, r4, r1

00008158 <l8152>:
    8158:	ea000002 	b	8168 <l8156>

0000815c <l8153>:
    815c:	23f0b1fa 	mvnscs	fp, #-2147483586	; 0x8000003e

00008160 <l8154>:
    8160:	e150006c 	cmp	r0, ip, rrx

00008164 <l8155>:
    8164:	601a4f4c 	andsvs	r4, sl, ip, asr #30

00008168 <l8156>:
    8168:	e064c009 	rsb	ip, r4, r9

0000816c <l8157>:
    816c:	02859819 	addeq	r9, r5, #1638400	; 0x190000

00008170 <l8158>:
    8170:	31876002 	orrcc	r6, r7, r2

00008174 <l8159>:
    8174:	e16fef16 	clz	lr, r6

00008178 <l8160>:
    8178:	e59f9000 	ldr	r9, [pc]	; 8180 <l8162>

0000817c <l8161>:
    817c:	ea000000 	b	8184 <l8163>

00008180 <l8162>:
    8180:	000fffa8 	.word	0x000fffa8

00008184 <l8163>:
    8184:	6149309a 	swpbvs	r3, sl, [r9]

00008188 <l8164>:
    8188:	e1a0935e 	asr	r9, lr, r3

0000818c <l8165>:
    818c:	807c906f 	rsbshi	r9, ip, pc, rrx

00008190 <l8166>:
    8190:	61b0cb39 	lsrsvs	ip, r9, fp

00008194 <l8167>:
    8194:	e3a0601c 	mov	r6, #28

00008198 <l8168>:
    8198:	e68d2006 	str	r2, [sp], r6

0000819c <l8169>:
    819c:	e1150064 	tst	r5, r4, rrx

000081a0 <l8170>:
    81a0:	21a016ee 	rorcs	r1, lr, #13

000081a4 <l8171>:
    81a4:	70c979a6 	sbcvc	r7, r9, r6, lsr #19

000081a8 <l8172>:
    81a8:	e380801c 	orr	r8, r0, #28

000081ac <l8173>:
    81ac:	2189b007 	orrcs	fp, r9, r7

000081b0 <l8174>:
    81b0:	e19c1017 	orrs	r1, ip, r7, lsl r0

000081b4 <l8175>:
    81b4:	e29f3609 	adds	r3, pc, #9437184	; 0x900000

000081b8 <l8176>:
    81b8:	315d32df 	ldrsbcc	r3, [sp, #-47]	; 0xffffffd1

000081bc <l8177>:
    81bc:	ea000006 	b	81dc <l8185>

000081c0 <l8178>:
    81c0:	e280109c 	add	r1, r0, #156	; 0x9c

000081c4 <l8179>:
    81c4:	41f0600f 	mvnsmi	r6, pc

000081c8 <l8180>:
    81c8:	30d8e871 	sbcscc	lr, r8, r1, ror r8

000081cc <l8181>:
    81cc:	13590074 	cmpne	r9, #116	; 0x74

000081d0 <l8182>:
    81d0:	e042c00f 	sub	ip, r2, pc

000081d4 <l8183>:
    81d4:	1228c81e 	eorne	ip, r8, #1966080	; 0x1e0000

000081d8 <l8184>:
    81d8:	ea000000 	b	81e0 <l8186>

000081dc <l8185>:
    81dc:	eafffff8 	b	81c4 <l8179>

000081e0 <l8186>:
    81e0:	905aa176 	subsls	sl, sl, r6, ror r1

000081e4 <l8187>:
    81e4:	e1f0b432 	mvns	fp, r2, lsr r4

000081e8 <l8188>:
    81e8:	e24e5b46 	sub	r5, lr, #71680	; 0x11800

000081ec <l8189>:
    81ec:	e3a03010 	mov	r3, #16

000081f0 <l8190>:
    81f0:	37cd1003 	strbcc	r1, [sp, r3]

000081f4 <l8191>:
    81f4:	e3a09017 	mov	r9, #23

000081f8 <l8192>:
    81f8:	57ddc009 	ldrbpl	ip, [sp, r9]

000081fc <l8193>:
    81fc:	7079a006 	rsbsvc	sl, r9, r6

00008200 <l8194>:
    8200:	e0be900f 	adcs	r9, lr, pc

00008204 <l8195>:
    8204:	d2df9b21 	sbcsle	r9, pc, #33792	; 0x8400

00008208 <l8196>:
    8208:	e01fac82 	ands	sl, pc, r2, lsl #25

0000820c <l8197>:
    820c:	415da1b6 	ldrhmi	sl, [sp, #-22]	; 0xffffffea

00008210 <l8198>:
    8210:	41550351 	cmpmi	r5, r1, asr r3

00008214 <l8199>:
    8214:	c1cc4001 	bicgt	r4, ip, r1

00008218 <l8200>:
    8218:	e3a01018 	mov	r1, #24

0000821c <l8201>:
    821c:	d70d2001 	strle	r2, [sp, -r1]

00008220 <l8202>:
    8220:	e08b5c3a 	add	r5, fp, sl, lsr ip

00008224 <l8203>:
    8224:	e17e0003 	cmn	lr, r3

00008228 <l8204>:
    8228:	026b477b 	rsbeq	r4, fp, #32243712	; 0x1ec0000

0000822c <l8205>:
    822c:	e3d32539 	bics	r2, r3, #239075328	; 0xe400000

00008230 <l8206>:
    8230:	c58d4010 	strgt	r4, [sp, #16]

00008234 <l8207>:
    8234:	e3a05012 	mov	r5, #18

00008238 <l8208>:
    8238:	c7dd1005 	ldrbgt	r1, [sp, r5]

0000823c <l8209>:
    823c:	e1db8000 	bics	r8, fp, r0

00008240 <l8210>:
    8240:	e3350c69 	teq	r5, #26880	; 0x6900

00008244 <l8211>:
    8244:	c33e05bb 	teqgt	lr, #784334848	; 0x2ec00000

00008248 <l8212>:
    8248:	e1e01004 	mvn	r1, r4

0000824c <l8213>:
    824c:	0152064f 	cmpeq	r2, pc, asr #12

00008250 <l8214>:
    8250:	e3b03dce 	movs	r3, #13184	; 0x3380

00008254 <l8215>:
    8254:	41d0600e 	bicsmi	r6, r0, lr

00008258 <l8216>:
    8258:	b053a0a7 	subslt	sl, r3, r7, lsr #1

0000825c <l8217>:
    825c:	e0f24067 	rscs	r4, r2, r7, rrx

00008260 <l8218>:
    8260:	e9ad00c0 	stmib	sp!, {r6, r7}

00008264 <l8219>:
    8264:	e20a4a0a 	and	r4, sl, #40960	; 0xa000

00008268 <l8220>:
    8268:	0118000e 	tsteq	r8, lr

0000826c <l8221>:
    826c:	e3a0801c 	mov	r8, #28

00008270 <l8222>:
    8270:	e10d10b8 	strh	r1, [sp, -r8]

00008274 <l8223>:
    8274:	60f9a00c 	rscsvs	sl, r9, ip

00008278 <l8224>:
    8278:	15cd100f 	strbne	r1, [sp, #15]

0000827c <l8225>:
    827c:	c33a077b 	teqgt	sl, #32243712	; 0x1ec0000

00008280 <l8226>:
    8280:	e00a2435 	and	r2, sl, r5, lsr r4

00008284 <l8227>:
    8284:	e09232ab 	adds	r3, r2, fp, lsr #5

00008288 <l8228>:
    8288:	a15de1b0 	ldrhge	lr, [sp, #-16]

0000828c <l8229>:
    828c:	e0ce53ae 	sbc	r5, lr, lr, lsr #7

00008290 <l8230>:
    8290:	e031ed04 	eors	lr, r1, r4, lsl #26

00008294 <l8231>:
    8294:	e27898fb 	rsbs	r9, r8, #16449536	; 0xfb0000

00008298 <l8232>:
    8298:	e3a0e000 	mov	lr, #0

0000829c <l8233>:
    829c:	418d80be 	strhmi	r8, [sp, lr]

000082a0 <l8234>:
    82a0:	154d2011 	strbne	r2, [sp, #-17]

000082a4 <l8235>:
    82a4:	90dee007 	sbcsls	lr, lr, r7

000082a8 <l8236>:
    82a8:	e59fa000 	ldr	sl, [pc]	; 82b0 <l8238>

000082ac <l8237>:
    82ac:	ea000000 	b	82b4 <l8239>

000082b0 <l8238>:
    82b0:	000fffa0 	.word	0x000fffa0

000082b4 <l8239>:
    82b4:	714a7090 	swpbvc	r7, r0, [sl]

000082b8 <l8240>:
    82b8:	e3a0c036 	mov	ip, #54	; 0x36

000082bc <l8241>:
    82bc:	675d500c 	ldrbvs	r5, [sp, -ip]

000082c0 <l8242>:
    82c0:	e2251e9f 	eor	r1, r5, #2544	; 0x9f0

000082c4 <l8243>:
    82c4:	e59f6000 	ldr	r6, [pc]	; 82cc <l8245>

000082c8 <l8244>:
    82c8:	ea000000 	b	82d0 <l8246>

000082cc <l8245>:
    82cc:	000fffd0 	.word	0x000fffd0

000082d0 <l8246>:
    82d0:	e1469090 	swpb	r9, r0, [r6]

000082d4 <l8247>:
    82d4:	e2aa5cf5 	adc	r5, sl, #62720	; 0xf500

000082d8 <l8248>:
    82d8:	316f4f18 	clzcc	r4, r8

000082dc <l8249>:
    82dc:	e3a0b004 	mov	fp, #4

000082e0 <l8250>:
    82e0:	e7bd700b 	ldr	r7, [sp, fp]!

000082e4 <l8251>:
    82e4:	e3a0003a 	mov	r0, #58	; 0x3a

000082e8 <l8252>:
    82e8:	d10d80b0 	strhle	r8, [sp, -r0]

000082ec <l8253>:
    82ec:	7088b00a 	addvc	fp, r8, sl

000082f0 <l8254>:
    82f0:	91390038 	teqls	r9, r8, lsr r0

000082f4 <l8255>:
    82f4:	c3c1c3c5 	bicgt	ip, r1, #335544323	; 0x14000003

000082f8 <l8256>:
    82f8:	e0e4b035 	rsc	fp, r4, r5, lsr r0

000082fc <l8257>:
    82fc:	e1330063 	teq	r3, r3, rrx

00008300 <l8258>:
    8300:	419a2060 	orrsmi	r2, sl, r0, rrx

00008304 <l8259>:
    8304:	91939330 	orrsls	r9, r3, r0, lsr r3

00008308 <l8260>:
    8308:	e059e515 	subs	lr, r9, r5, lsl r5

0000830c <l8261>:
    830c:	e3a09037 	mov	r9, #55	; 0x37

00008310 <l8262>:
    8310:	e75d2009 	ldrb	r2, [sp, -r9]

00008314 <l8263>:
    8314:	53f096fd 	mvnspl	r9, #265289728	; 0xfd00000

00008318 <l8264>:
    8318:	e15db1bc 	ldrh	fp, [sp, #-28]	; 0xffffffe4

0000831c <l8265>:
    831c:	b13b0069 	teqlt	fp, r9, rrx

00008320 <l8266>:
    8320:	c35304d2 	cmpgt	r3, #-771751936	; 0xd2000000

00008324 <l8267>:
    8324:	e2a6286f 	adc	r2, r6, #7274496	; 0x6f0000

00008328 <l8268>:
    8328:	e1e0700e 	mvn	r7, lr

0000832c <l8269>:
    832c:	10f93002 	rscsne	r3, r9, r2

00008330 <l8270>:
    8330:	41a094cc 	asrmi	r9, ip, #9

00008334 <l8271>:
    8334:	e5adb008 	str	fp, [sp, #8]!

00008338 <l8272>:
    8338:	e3a0103c 	mov	r1, #60	; 0x3c

0000833c <l8273>:
    833c:	e72d9001 	str	r9, [sp, -r1]!

00008340 <l8274>:
    8340:	c1370ee2 	teqgt	r7, r2, ror #29

00008344 <l8275>:
    8344:	80ec6734 	rschi	r6, ip, r4, lsr r7

00008348 <l8276>:
    8348:	e3e0050a 	mvn	r0, #41943040	; 0x2800000

0000834c <l8277>:
    834c:	e28b7572 	add	r7, fp, #478150656	; 0x1c800000

00008350 <l8278>:
    8350:	901e52c2 	andsls	r5, lr, r2, asr #5

00008354 <l8279>:
    8354:	e3a0b00c 	mov	fp, #12

00008358 <l8280>:
    8358:	e7adf00b 	str	pc, [sp, fp]!

0000835c <l8281>:
    835c:	a2496ada 	subge	r6, r9, #892928	; 0xda000

00008360 <l8282>:
    8360:	91cec371 	bicls	ip, lr, r1, ror r3

00008364 <l8283>:
    8364:	51f07063 	mvnspl	r7, r3, rrx

00008368 <l8284>:
    8368:	1009706f 	andne	r7, r9, pc, rrx

0000836c <l8285>:
    836c:	7047200e 	subvc	r2, r7, lr

00008370 <l8286>:
    8370:	21530ba2 	cmpcs	r3, r2, lsr #23

00008374 <l8287>:
    8374:	e3a02028 	mov	r2, #40	; 0x28

00008378 <l8288>:
    8378:	e69d4002 	ldr	r4, [sp], r2

0000837c <l8289>:
    837c:	e16f0f15 	clz	r0, r5

00008380 <l8290>:
    8380:	e1580062 	cmp	r8, r2, rrx

00008384 <l8291>:
    8384:	e9ad8100 	stmib	sp!, {r8, pc}

00008388 <l8292>:
    8388:	d0a2a75e 	adcle	sl, r2, lr, asr r7

0000838c <l8293>:
    838c:	335f0b4e 	cmpcc	pc, #79872	; 0x13800

00008390 <l8294>:
    8390:	01c8400a 	biceq	r4, r8, sl

00008394 <l8295>:
    8394:	650d4038 	strvs	r4, [sp, #-56]	; 0x38

00008398 <l8296>:
    8398:	e3a0a03b 	mov	sl, #59	; 0x3b

0000839c <l8297>:
    839c:	e75d700a 	ldrb	r7, [sp, -sl]

000083a0 <l8298>:
    83a0:	533e090b 	teqpl	lr, #180224	; 0x2c000

000083a4 <l8299>:
    83a4:	e15db3f6 	ldrsh	fp, [sp, #-54]	; 0xffffffca

000083a8 <l8300>:
    83a8:	e1110cc6 	tst	r1, r6, asr #25

000083ac <l8301>:
    83ac:	326fbc07 	rsbcc	fp, pc, #1792	; 0x700

000083b0 <l8302>:
    83b0:	e14d42b6 	strh	r4, [sp, #-38]	; 0xffffffda

000083b4 <l8303>:
    83b4:	91160965 	tstls	r6, r5, ror #18

000083b8 <l8304>:
    83b8:	e3a0503c 	mov	r5, #60	; 0x3c

000083bc <l8305>:
    83bc:	711d10b5 	ldrhvc	r1, [sp, -r5]

000083c0 <l8306>:
    83c0:	d15e0b58 	cmple	lr, r8, asr fp

000083c4 <l8307>:
    83c4:	e1967a7e 	orrs	r7, r6, lr, ror sl

000083c8 <l8308>:
    83c8:	c1f087c2 	mvnsgt	r8, r2, asr #15

000083cc <l8309>:
    83cc:	e14d33ba 	strh	r3, [sp, #-58]	; 0xffffffc6

000083d0 <l8310>:
    83d0:	e1a00000 	nop			; (mov r0, r0)

000083d4 <l8311>:
    83d4:	01a05b13 	lsleq	r5, r3, fp

000083d8 <l8312>:
    83d8:	e3a0101a 	mov	r1, #26

000083dc <l8313>:
    83dc:	675de001 	ldrbvs	lr, [sp, -r1]

000083e0 <l8314>:
    83e0:	855db044 	ldrbhi	fp, [sp, #-68]	; 0x44

000083e4 <l8315>:
    83e4:	e59f4000 	ldr	r4, [pc]	; 83ec <l8317>

000083e8 <l8316>:
    83e8:	ea000000 	b	83f0 <l8318>

000083ec <l8317>:
    83ec:	000fffb0 	.word	0x000fffb0

000083f0 <l8318>:
    83f0:	1104209c 	swpne	r2, ip, [r4]

000083f4 <l8319>:
    83f4:	00151e4c 	andseq	r1, r5, ip, asr #28

000083f8 <l8320>:
    83f8:	515d70fc 	ldrshpl	r7, [sp, #-12]

000083fc <l8321>:
    83fc:	855db03f 	ldrbhi	fp, [sp, #-63]	; 0x3f

00008400 <l8322>:
    8400:	e0cbb06a 	sbc	fp, fp, sl, rrx

00008404 <l8323>:
    8404:	42e07bed 	rscmi	r7, r0, #242688	; 0x3b400

00008408 <l8324>:
    8408:	e54d4006 	strb	r4, [sp, #-6]

0000840c <l8325>:
    840c:	62425c17 	subvs	r5, r2, #5888	; 0x1700

00008410 <l8326>:
    8410:	e11e0006 	tst	lr, r6

00008414 <l8327>:
    8414:	e1a00000 	nop			; (mov r0, r0)

00008418 <l8328>:
    8418:	d1a03066 	rrxle	r3, r6

0000841c <l8329>:
    841c:	6059c001 	subsvs	ip, r9, r1

00008420 <l8330>:
    8420:	e1a00000 	nop			; (mov r0, r0)

00008424 <l8331>:
    8424:	a16f5f11 	clzge	r5, r1

00008428 <l8332>:
    8428:	6097700e 	addsvs	r7, r7, lr

0000842c <l8333>:
    842c:	e1a00000 	nop			; (mov r0, r0)

00008430 <l8334>:
    8430:	1a000002 	bne	8440 <l8338>

00008434 <l8335>:
    8434:	e280104b 	add	r1, r0, #75	; 0x4b

00008438 <l8336>:
    8438:	30faae1c 	rscscc	sl, sl, ip, lsl lr

0000843c <l8337>:
    843c:	ea000000 	b	8444 <l8339>

00008440 <l8338>:
    8440:	eafffffc 	b	8438 <l8336>

00008444 <l8339>:
    8444:	e55db034 	ldrb	fp, [sp, #-52]	; 0x34

00008448 <l8340>:
    8448:	415d61f4 	ldrshmi	r6, [sp, #-20]	; 0xffffffec

0000844c <l8341>:
    844c:	61e0e00e 	mvnvs	lr, lr

00008450 <l8342>:
    8450:	e59f3000 	ldr	r3, [pc]	; 8458 <l8344>

00008454 <l8343>:
    8454:	ea000000 	b	845c <l8345>

00008458 <l8344>:
    8458:	000fffc4 	.word	0x000fffc4

0000845c <l8345>:
    845c:	e1438090 	swpb	r8, r0, [r3]

00008460 <l8346>:
    8460:	e52d1004 	push	{r1}		; (str r1, [sp, #-4]!)

00008464 <l8347>:
    8464:	e3a03014 	mov	r3, #20

00008468 <l8348>:
    8468:	e61d0003 	ldr	r0, [sp], -r3

0000846c <l8349>:
    846c:	b0cc706f 	sbclt	r7, ip, pc, rrx

00008470 <l8350>:
    8470:	e82dc673 	stmda	sp!, {r0, r1, r4, r5, r6, r9, sl, lr, pc}

00008474 <l8351>:
    8474:	e1cd43b2 	strh	r4, [sp, #50]	; 0x32

00008478 <l8352>:
    8478:	e05b600f 	subs	r6, fp, pc

0000847c <l8353>:
    847c:	e2f3993e 	rscs	r9, r3, #1015808	; 0xf8000

00008480 <l8354>:
    8480:	a1540075 	cmpge	r4, r5, ror r0

00008484 <l8355>:
    8484:	e59f4000 	ldr	r4, [pc]	; 848c <l8357>

00008488 <l8356>:
    8488:	ea000000 	b	8490 <l8358>

0000848c <l8357>:
    848c:	000fffd4 	.word	0x000fffd4

00008490 <l8358>:
    8490:	81446095 	swpbhi	r6, r5, [r4]

00008494 <l8359>:
    8494:	ba000006 	blt	84b4 <l8367>

00008498 <l8360>:
    8498:	30ec500f 	rsccc	r5, ip, pc

0000849c <l8361>:
    849c:	a170006a 	cmnge	r0, sl, rrx

000084a0 <l8362>:
    84a0:	e11e0006 	tst	lr, r6

000084a4 <l8363>:
    84a4:	71a0e00f 	movvc	lr, pc

000084a8 <l8364>:
    84a8:	c0269438 	eorgt	r9, r6, r8, lsr r4

000084ac <l8365>:
    84ac:	11740f29 	cmnne	r4, r9, lsr #30

000084b0 <l8366>:
    84b0:	e1700a46 	cmn	r0, r6, asr #20

000084b4 <l8367>:
    84b4:	e1c67932 	bic	r7, r6, r2, lsr r9

000084b8 <l8368>:
    84b8:	116fcf12 	clzne	ip, r2

000084bc <l8369>:
    84bc:	e1a00000 	nop			; (mov r0, r0)

000084c0 <l8370>:
    84c0:	608c7753 	addvs	r7, ip, r3, asr r7

000084c4 <l8371>:
    84c4:	71a01003 	movvc	r1, r3

000084c8 <l8372>:
    84c8:	e0701065 	rsbs	r1, r0, r5, rrx

000084cc <l8373>:
    84cc:	e1a00000 	nop			; (mov r0, r0)

000084d0 <l8374>:
    84d0:	90d69e50 	sbcsls	r9, r6, r0, asr lr

000084d4 <l8375>:
    84d4:	e59f0000 	ldr	r0, [pc]	; 84dc <l8377>

000084d8 <l8376>:
    84d8:	ea000000 	b	84e0 <l8378>

000084dc <l8377>:
    84dc:	000fffa8 	.word	0x000fffa8

000084e0 <l8378>:
    84e0:	61403094 	swpbvs	r3, r4, [r0]

000084e4 <l8379>:
    84e4:	01380008 	teqeq	r8, r8

000084e8 <l8380>:
    84e8:	e063a930 	rsb	sl, r3, r0, lsr r9

000084ec <l8381>:
    84ec:	e3a0b03a 	mov	fp, #58	; 0x3a

000084f0 <l8382>:
    84f0:	e7cd600b 	strb	r6, [sp, fp]

000084f4 <l8383>:
    84f4:	20f9085a 	rscscs	r0, r9, sl, asr r8

000084f8 <l8384>:
    84f8:	93190433 	tstls	r9, #855638016	; 0x33000000

000084fc <l8385>:
    84fc:	c081e939 	addgt	lr, r1, r9, lsr r9

00008500 <l8386>:
    8500:	b050000e 	subslt	r0, r0, lr

00008504 <l8387>:
    8504:	41cd82b8 	strhmi	r8, [sp, #40]	; 0x28

00008508 <l8388>:
    8508:	b28247fe 	addlt	r4, r2, #66584576	; 0x3f80000

0000850c <l8389>:
    850c:	217a097b 	cmncs	sl, fp, ror r9

00008510 <l8390>:
    8510:	e41d4008 	ldr	r4, [sp], #-8

00008514 <l8391>:
    8514:	e085a00f 	add	sl, r5, pc

00008518 <l8392>:
    8518:	e25b23c6 	subs	r2, fp, #402653187	; 0x18000003

0000851c <l8393>:
    851c:	0007205c 	andeq	r2, r7, ip, asr r0

00008520 <l8394>:
    8520:	e098606f 	adds	r6, r8, pc, rrx

00008524 <l8395>:
    8524:	30521ae7 	subscc	r1, r2, r7, ror #21

00008528 <l8396>:
    8528:	c012e001 	andsgt	lr, r2, r1

0000852c <l8397>:
    852c:	21310e54 	teqcs	r1, r4, asr lr

00008530 <l8398>:
    8530:	5a000006 	bpl	8550 <l8406>

00008534 <l8399>:
    8534:	e2801088 	add	r1, r0, #136	; 0x88

00008538 <l8400>:
    8538:	41130cef 	tstmi	r3, pc, ror #25

0000853c <l8401>:
    853c:	e3d20605 	bics	r0, r2, #5242880	; 0x500000

00008540 <l8402>:
    8540:	216f2f15 	clzcs	r2, r5

00008544 <l8403>:
    8544:	c194a031 	orrsgt	sl, r4, r1, lsr r0

00008548 <l8404>:
    8548:	e028b001 	eor	fp, r8, r1

0000854c <l8405>:
    854c:	ea000000 	b	8554 <l8407>

00008550 <l8406>:
    8550:	eafffff8 	b	8538 <l8400>

00008554 <l8407>:
    8554:	e0b65007 	adcs	r5, r6, r7

00008558 <l8408>:
    8558:	004a500c 	subeq	r5, sl, ip

0000855c <l8409>:
    855c:	e2bfa662 	adcs	sl, pc, #102760448	; 0x6200000

00008560 <l8410>:
    8560:	e05b271e 	subs	r2, fp, lr, lsl r7

00008564 <l8411>:
    8564:	8151000a 	cmphi	r1, sl

00008568 <l8412>:
    8568:	e99d5d9e 	ldmib	sp, {r1, r2, r3, r4, r7, r8, sl, fp, ip, lr}

0000856c <l8413>:
    856c:	e3c26d31 	bic	r6, r2, #3136	; 0xc40

00008570 <l8414>:
    8570:	613b006a 	teqvs	fp, sl, rrx

00008574 <l8415>:
    8574:	75ddc012 	ldrbvc	ip, [sp, #18]

00008578 <l8416>:
    8578:	e16fef1e 	clz	lr, lr

0000857c <l8417>:
    857c:	811e0374 	tsthi	lr, r4, ror r3

00008580 <l8418>:
    8580:	005a8bc2 	subseq	r8, sl, r2, asr #23

00008584 <l8419>:
    8584:	a1ddc3be 	ldrhge	ip, [sp, #62]	; 0x3e

00008588 <l8420>:
    8588:	d59db024 	ldrle	fp, [sp, #36]	; 0x24

0000858c <l8421>:
    858c:	21dd32d7 	ldrsbcs	r3, [sp, #39]	; 0x27

00008590 <l8422>:
    8590:	e3a0502a 	mov	r5, #42	; 0x2a

00008594 <l8423>:
    8594:	a19d40f5 	ldrshge	r4, [sp, r5]

00008598 <l8424>:
    8598:	e3a0c009 	mov	ip, #9

0000859c <l8425>:
    859c:	e19d80dc 	ldrsb	r8, [sp, ip]

000085a0 <l8426>:
    85a0:	a0c39ae9 	sbcge	r9, r3, r9, ror #21

000085a4 <l8427>:
    85a4:	e16f5f19 	clz	r5, r9

000085a8 <l8428>:
    85a8:	21710002 	cmncs	r1, r2

000085ac <l8429>:
    85ac:	e58d1004 	str	r1, [sp, #4]

000085b0 <l8430>:
    85b0:	70bc4a1e 	adcsvc	r4, ip, lr, lsl sl

000085b4 <l8431>:
    85b4:	ea000002 	b	85c4 <l8435>

000085b8 <l8432>:
    85b8:	e2801093 	add	r1, r0, #147	; 0x93

000085bc <l8433>:
    85bc:	c181a069 	orrgt	sl, r1, r9, rrx

000085c0 <l8434>:
    85c0:	ea000000 	b	85c8 <l8436>

000085c4 <l8435>:
    85c4:	eafffffc 	b	85bc <l8433>

000085c8 <l8436>:
    85c8:	e025c009 	eor	ip, r5, r9

000085cc <l8437>:
    85cc:	c2632c27 	rsbgt	r2, r3, #9984	; 0x2700

000085d0 <l8438>:
    85d0:	e139032e 	teq	r9, lr, lsr #6

000085d4 <l8439>:
    85d4:	215d80f4 	ldrshcs	r8, [sp, #-4]

000085d8 <l8440>:
    85d8:	e9bd4080 	ldmib	sp!, {r7, lr}

000085dc <l8441>:
    85dc:	51e02007 	mvnpl	r2, r7

000085e0 <l8442>:
    85e0:	11dd61f6 	ldrshne	r6, [sp, #22]

000085e4 <l8443>:
    85e4:	c1e0e00e 	mvngt	lr, lr

000085e8 <l8444>:
    85e8:	51390115 	teqpl	r9, r5, lsl r1

000085ec <l8445>:
    85ec:	e090b563 	adds	fp, r0, r3, ror #10

000085f0 <l8446>:
    85f0:	e49d0014 	ldr	r0, [sp], #20

000085f4 <l8447>:
    85f4:	835c0283 	cmphi	ip, #805306376	; 0x30000008

000085f8 <l8448>:
    85f8:	e3a0e01a 	mov	lr, #26

000085fc <l8449>:
    85fc:	419d20fe 	ldrshmi	r2, [sp, lr]

00008600 <l8450>:
    8600:	d1e0c315 	mvnle	ip, r5, lsl r3

00008604 <l8451>:
    8604:	b90d4839 	stmdblt	sp, {r0, r3, r4, r5, fp, lr}

00008608 <l8452>:
    8608:	41510c31 	cmpmi	r1, r1, lsr ip

0000860c <l8453>:
    860c:	e3a00019 	mov	r0, #25

00008610 <l8454>:
    8610:	17dd5000 	ldrbne	r5, [sp, r0]

00008614 <l8455>:
    8614:	61dd11d1 	ldrsbvs	r1, [sp, #17]

00008618 <l8456>:
    8618:	ea000005 	b	8634 <l8463>

0000861c <l8457>:
    861c:	e280106c 	add	r1, r0, #108	; 0x6c

00008620 <l8458>:
    8620:	607c7069 	rsbsvs	r7, ip, r9, rrx

00008624 <l8459>:
    8624:	e2a57e3e 	adc	r7, r5, #992	; 0x3e0

00008628 <l8460>:
    8628:	02430965 	subeq	r0, r3, #1654784	; 0x194000

0000862c <l8461>:
    862c:	40175000 	andsmi	r5, r7, r0

00008630 <l8462>:
    8630:	ea000000 	b	8638 <l8464>

00008634 <l8463>:
    8634:	eafffff9 	b	8620 <l8458>

00008638 <l8464>:
    8638:	1015e5e4 	andsne	lr, r5, r4, ror #11

0000863c <l8465>:
    863c:	00acbe1a 	adceq	fp, ip, sl, lsl lr

00008640 <l8466>:
    8640:	e5bd5014 	ldr	r5, [sp, #20]!

00008644 <l8467>:
    8644:	e3a02006 	mov	r2, #6

00008648 <l8468>:
    8648:	e11d20d2 	ldrsb	r2, [sp, -r2]

0000864c <l8469>:
    864c:	e83d4480 	ldmda	sp!, {r7, sl, lr}

00008650 <l8470>:
    8650:	704f5e28 	subvc	r5, pc, r8, lsr #28

00008654 <l8471>:
    8654:	e2f2ec71 	rscs	lr, r2, #28928	; 0x7100

00008658 <l8472>:
    8658:	e056a009 	subs	sl, r6, r9

0000865c <l8473>:
    865c:	e3e0ea1b 	mvn	lr, #110592	; 0x1b000

00008660 <l8474>:
    8660:	e3e09ded 	mvn	r9, #15168	; 0x3b40

00008664 <l8475>:
    8664:	41dd20d8 	ldrsbmi	r2, [sp, #8]

00008668 <l8476>:
    8668:	6a000007 	bvs	868c <l8485>

0000866c <l8477>:
    866c:	0045014e 	subeq	r0, r5, lr, asr #2

00008670 <l8478>:
    8670:	e16f3f16 	clz	r3, r6

00008674 <l8479>:
    8674:	211c000f 	tstcs	ip, pc

00008678 <l8480>:
    8678:	604aa001 	subvs	sl, sl, r1

0000867c <l8481>:
    867c:	a16f9f15 	clzge	r9, r5

00008680 <l8482>:
    8680:	900e6851 	andls	r6, lr, r1, asr r8

00008684 <l8483>:
    8684:	d24e9079 	suble	r9, lr, #121	; 0x79

00008688 <l8484>:
    8688:	e16f8f18 	clz	r8, r8

0000868c <l8485>:
    868c:	e0a75568 	adc	r5, r7, r8, ror #10

00008690 <l8486>:
    8690:	e0a857ab 	adc	r5, r8, fp, lsr #15

00008694 <l8487>:
    8694:	31710000 	cmncc	r1, r0

00008698 <l8488>:
    8698:	e16fbf15 	clz	fp, r5

0000869c <l8489>:
    869c:	53a0117d 	movpl	r1, #1073741855	; 0x4000001f

000086a0 <l8490>:
    86a0:	1079b1c2 	rsbsne	fp, r9, r2, asr #3

000086a4 <l8491>:
    86a4:	e1b00c26 	lsrs	r0, r6, #24

000086a8 <l8492>:
    86a8:	b07ea005 	rsbslt	sl, lr, r5

000086ac <l8493>:
    86ac:	e15de0f8 	ldrsh	lr, [sp, #-8]

000086b0 <l8494>:
    86b0:	ba000002 	blt	86c0 <l8498>

000086b4 <l8495>:
    86b4:	e2801029 	add	r1, r0, #41	; 0x29

000086b8 <l8496>:
    86b8:	e0a87b7e 	adc	r7, r8, lr, ror fp

000086bc <l8497>:
    86bc:	ea000000 	b	86c4 <l8499>

000086c0 <l8498>:
    86c0:	eafffffc 	b	86b8 <l8496>

000086c4 <l8499>:
    86c4:	32454e6e 	subcc	r4, r5, #1760	; 0x6e0

000086c8 <l8500>:
    86c8:	0062462e 	rsbeq	r4, r2, lr, lsr #12

000086cc <l8501>:
    86cc:	e2b35dd2 	adcs	r5, r3, #13440	; 0x3480

000086d0 <l8502>:
    86d0:	ea000002 	b	86e0 <l8506>

000086d4 <l8503>:
    86d4:	e28010e8 	add	r1, r0, #232	; 0xe8

000086d8 <l8504>:
    86d8:	02a3901c 	adceq	r9, r3, #28

000086dc <l8505>:
    86dc:	ea000000 	b	86e4 <l8507>

000086e0 <l8506>:
    86e0:	eafffffc 	b	86d8 <l8504>

000086e4 <l8507>:
    86e4:	9037e00b 	eorsls	lr, r7, fp

000086e8 <l8508>:
    86e8:	a0c1a007 	sbcge	sl, r1, r7

000086ec <l8509>:
    86ec:	63570393 	cmpvs	r7, #1275068418	; 0x4c000002

000086f0 <l8510>:
    86f0:	e33a078f 	teq	sl, #37486592	; 0x23c0000

000086f4 <l8511>:
    86f4:	e0032b71 	and	r2, r3, r1, ror fp

000086f8 <l8512>:
    86f8:	e59fb000 	ldr	fp, [pc]	; 8700 <l8514>

000086fc <l8513>:
    86fc:	ea000000 	b	8704 <l8515>

00008700 <l8514>:
    8700:	000fffc4 	.word	0x000fffc4

00008704 <l8515>:
    8704:	014b2090 	swpbeq	r2, r0, [fp]

00008708 <l8516>:
    8708:	9a000008 	bls	8730 <l8526>

0000870c <l8517>:
    870c:	118f8065 	orrne	r8, pc, r5, rrx

00008710 <l8518>:
    8710:	5089106f 	addpl	r1, r9, pc, rrx

00008714 <l8519>:
    8714:	c1dce061 	bicsgt	lr, ip, r1, rrx

00008718 <l8520>:
    8718:	50e56003 	rscpl	r6, r5, r3

0000871c <l8521>:
    871c:	d1540062 	cmple	r4, r2, rrx

00008720 <l8522>:
    8720:	7060c533 	rsbvc	ip, r0, r3, lsr r5

00008724 <l8523>:
    8724:	e0cbee25 	sbc	lr, fp, r5, lsr #28

00008728 <l8524>:
    8728:	e042964e 	sub	r9, r2, lr, asr #12

0000872c <l8525>:
    872c:	51caa807 	bicpl	sl, sl, r7, lsl #16

00008730 <l8526>:
    8730:	e2e9841a 	rsc	r8, r9, #436207616	; 0x1a000000

00008734 <l8527>:
    8734:	e59fa000 	ldr	sl, [pc]	; 873c <l8529>

00008738 <l8528>:
    8738:	ea000000 	b	8740 <l8530>

0000873c <l8529>:
    873c:	000fffe0 	.word	0x000fffe0

00008740 <l8530>:
    8740:	e14ab09e 	swpb	fp, lr, [sl]

00008744 <l8531>:
    8744:	624a064e 	subvs	r0, sl, #81788928	; 0x4e00000

00008748 <l8532>:
    8748:	e59f4000 	ldr	r4, [pc]	; 8750 <l8534>

0000874c <l8533>:
    874c:	ea000000 	b	8754 <l8535>

00008750 <l8534>:
    8750:	000fffc8 	.word	0x000fffc8

00008754 <l8535>:
    8754:	0144109e 	swpbeq	r1, lr, [r4]

00008758 <l8536>:
    8758:	e41d6024 	ldr	r6, [sp], #-36	; 0x24

0000875c <l8537>:
    875c:	e3a04046 	mov	r4, #70	; 0x46

00008760 <l8538>:
    8760:	e19da0f4 	ldrsh	sl, [sp, r4]

00008764 <l8539>:
    8764:	a195b034 	orrsge	fp, r5, r4, lsr r0

00008768 <l8540>:
    8768:	e99d1cfe 	ldmib	sp, {r1, r2, r3, r4, r5, r6, r7, sl, fp, ip}

0000876c <l8541>:
    876c:	10a1b00e 	adcne	fp, r1, lr

00008770 <l8542>:
    8770:	e0b14061 	adcs	r4, r1, r1, rrx

00008774 <l8543>:
    8774:	e1d81008 	bics	r1, r8, r8

00008778 <l8544>:
    8778:	c1730005 	cmngt	r3, r5

0000877c <l8545>:
    877c:	3a000002 	bcc	878c <l8549>

00008780 <l8546>:
    8780:	013f0004 	teqeq	pc, r4

00008784 <l8547>:
    8784:	e39e9822 	orrs	r9, lr, #2228224	; 0x220000

00008788 <l8548>:
    8788:	c0782268 	rsbsgt	r2, r8, r8, ror #4

0000878c <l8549>:
    878c:	206ae935 	rsbcs	lr, sl, r5, lsr r9

00008790 <l8550>:
    8790:	e59f4000 	ldr	r4, [pc]	; 8798 <l8552>

00008794 <l8551>:
    8794:	ea000000 	b	879c <l8553>

00008798 <l8552>:
    8798:	000fffe0 	.word	0x000fffe0

0000879c <l8553>:
    879c:	8104e09b 	swphi	lr, fp, [r4]

000087a0 <l8554>:
    87a0:	e1b0a00b 	movs	sl, fp

000087a4 <l8555>:
    87a4:	e3a0a03c 	mov	sl, #60	; 0x3c

000087a8 <l8556>:
    87a8:	e68d700a 	str	r7, [sp], sl

000087ac <l8557>:
    87ac:	e047ea13 	sub	lr, r7, r3, lsl sl

000087b0 <l8558>:
    87b0:	70f41e31 	rscsvc	r1, r4, r1, lsr lr

000087b4 <l8559>:
    87b4:	1152058a 	cmpne	r2, sl, lsl #11

000087b8 <l8560>:
    87b8:	a0b58065 	adcsge	r8, r5, r5, rrx

000087bc <l8561>:
    87bc:	e3320acf 	teq	r2, #847872	; 0xcf000

000087c0 <l8562>:
    87c0:	e16fef12 	clz	lr, r2

000087c4 <l8563>:
    87c4:	d096821c 	addsle	r8, r6, ip, lsl r2

000087c8 <l8564>:
    87c8:	e1dae004 	bics	lr, sl, r4

000087cc <l8565>:
    87cc:	415d23de 	ldrsbmi	r2, [sp, #-62]	; 0xffffffc2

000087d0 <l8566>:
    87d0:	e28fe671 	add	lr, pc, #118489088	; 0x7100000

000087d4 <l8567>:
    87d4:	7a000004 	bvc	87ec <l8573>

000087d8 <l8568>:
    87d8:	e2801015 	add	r1, r0, #21

000087dc <l8569>:
    87dc:	e0c87f42 	sbc	r7, r8, r2, asr #30

000087e0 <l8570>:
    87e0:	50441009 	subpl	r1, r4, r9

000087e4 <l8571>:
    87e4:	11100c59 	tstne	r0, r9, asr ip

000087e8 <l8572>:
    87e8:	ea000000 	b	87f0 <l8574>

000087ec <l8573>:
    87ec:	eafffffa 	b	87dc <l8569>

000087f0 <l8574>:
    87f0:	e16f5f12 	clz	r5, r2

000087f4 <l8575>:
    87f4:	e0252609 	eor	r2, r5, r9, lsl #12

000087f8 <l8576>:
    87f8:	916fef1e 	clzls	lr, lr

000087fc <l8577>:
    87fc:	e3a07002 	mov	r7, #2

00008800 <l8578>:
    8800:	275d1007 	ldrbcs	r1, [sp, -r7]

00008804 <l8579>:
    8804:	e19b5066 	orrs	r5, fp, r6, rrx

00008808 <l8580>:
    8808:	e3a02002 	mov	r2, #2

0000880c <l8581>:
    880c:	e10d90b2 	strh	r9, [sp, -r2]

00008810 <l8582>:
    8810:	ea000002 	b	8820 <l8586>

00008814 <l8583>:
    8814:	e2801062 	add	r1, r0, #98	; 0x62

00008818 <l8584>:
    8818:	40e05976 	rscmi	r5, r0, r6, ror r9

0000881c <l8585>:
    881c:	ea000000 	b	8824 <l8587>

00008820 <l8586>:
    8820:	eafffffc 	b	8818 <l8584>

00008824 <l8587>:
    8824:	9a000008 	bls	884c <l8597>

00008828 <l8588>:
    8828:	e13b0822 	teq	fp, r2, lsr #16

0000882c <l8589>:
    882c:	e1d95008 	bics	r5, r9, r8

00008830 <l8590>:
    8830:	533b046e 	teqpl	fp, #1845493760	; 0x6e000000

00008834 <l8591>:
    8834:	5244bc91 	subpl	fp, r4, #37120	; 0x9100

00008838 <l8592>:
    8838:	c186906c 	orrgt	r9, r6, ip, rrx

0000883c <l8593>:
    883c:	c16f7f19 	clzgt	r7, r9

00008840 <l8594>:
    8840:	d1740872 	cmnle	r4, r2, ror r8

00008844 <l8595>:
    8844:	e0a5000c 	adc	r0, r5, ip

00008848 <l8596>:
    8848:	b1b0165e 	asrslt	r1, lr, r6

0000884c <l8597>:
    884c:	a044e069 	subge	lr, r4, r9, rrx

00008850 <l8598>:
    8850:	e3a0a02e 	mov	sl, #46	; 0x2e

00008854 <l8599>:
    8854:	e10d70ba 	strh	r7, [sp, -sl]

00008858 <l8600>:
    8858:	60755116 	rsbsvs	r5, r5, r6, lsl r1

0000885c <l8601>:
    885c:	23530a09 	cmpcs	r3, #36864	; 0x9000

00008860 <l8602>:
    8860:	ea000007 	b	8884 <l8611>

00008864 <l8603>:
    8864:	e280102f 	add	r1, r0, #47	; 0x2f

00008868 <l8604>:
    8868:	d01b5005 	andsle	r5, fp, r5

0000886c <l8605>:
    886c:	30a8b256 	adccc	fp, r8, r6, asr r2

00008870 <l8606>:
    8870:	52d0b2e5 	sbcspl	fp, r0, #1342177294	; 0x5000000e

00008874 <l8607>:
    8874:	30a1a0e9 	adccc	sl, r1, r9, ror #1

00008878 <l8608>:
    8878:	93c996bd 	bicls	r9, r9, #198180864	; 0xbd00000

0000887c <l8609>:
    887c:	e0ae706f 	adc	r7, lr, pc, rrx

00008880 <l8610>:
    8880:	ea000000 	b	8888 <l8612>

00008884 <l8611>:
    8884:	eafffff7 	b	8868 <l8604>

00008888 <l8612>:
    8888:	e83d0fda 	ldmda	sp!, {r1, r3, r4, r6, r7, r8, r9, sl, fp}

0000888c <l8613>:
    888c:	e1dd81fc 	ldrsh	r8, [sp, #28]

00008890 <l8614>:
    8890:	ea000003 	b	88a4 <l8619>

00008894 <l8615>:
    8894:	e2801051 	add	r1, r0, #81	; 0x51

00008898 <l8616>:
    8898:	1058ce89 	subsne	ip, r8, r9, lsl #29

0000889c <l8617>:
    889c:	e1e09319 	mvn	r9, r9, lsl r3

000088a0 <l8618>:
    88a0:	ea000000 	b	88a8 <l8620>

000088a4 <l8619>:
    88a4:	eafffffb 	b	8898 <l8616>

000088a8 <l8620>:
    88a8:	e3a08004 	mov	r8, #4

000088ac <l8621>:
    88ac:	e72dc008 	str	ip, [sp, -r8]!

000088b0 <l8622>:
    88b0:	e3a07020 	mov	r7, #32

000088b4 <l8623>:
    88b4:	87dd1007 	ldrbhi	r1, [sp, r7]

000088b8 <l8624>:
    88b8:	e2948842 	adds	r8, r4, #4325376	; 0x420000

000088bc <l8625>:
    88bc:	20200153 	eorcs	r0, r0, r3, asr r1

000088c0 <l8626>:
    88c0:	e2be473a 	adcs	r4, lr, #15204352	; 0xe80000

000088c4 <l8627>:
    88c4:	820b5e2f 	andhi	r5, fp, #752	; 0x2f0

000088c8 <l8628>:
    88c8:	e0c71a77 	sbc	r1, r7, r7, ror sl

000088cc <l8629>:
    88cc:	e3a08022 	mov	r8, #34	; 0x22

000088d0 <l8630>:
    88d0:	e18d60b8 	strh	r6, [sp, r8]

000088d4 <l8631>:
    88d4:	e8ad6000 	stmia	sp!, {sp, lr}

000088d8 <l8632>:
    88d8:	655d900d 	ldrbvs	r9, [sp, #-13]

000088dc <l8633>:
    88dc:	90748006 	rsbsls	r8, r4, r6

000088e0 <l8634>:
    88e0:	e3a07014 	mov	r7, #20

000088e4 <l8635>:
    88e4:	e19da0f7 	ldrsh	sl, [sp, r7]

000088e8 <l8636>:
    88e8:	e3a0101e 	mov	r1, #30

000088ec <l8637>:
    88ec:	e18d50b1 	strh	r5, [sp, r1]

000088f0 <l8638>:
    88f0:	e3a0a008 	mov	sl, #8

000088f4 <l8639>:
    88f4:	e7cdb00a 	strb	fp, [sp, sl]

000088f8 <l8640>:
    88f8:	e82d0200 	stmda	sp!, {r9}

000088fc <l8641>:
    88fc:	e3a03027 	mov	r3, #39	; 0x27

00008900 <l8642>:
    8900:	e7cd3003 	strb	r3, [sp, r3]

00008904 <l8643>:
    8904:	c1b054e0 	rorsgt	r5, r0, #9

00008908 <l8644>:
    8908:	90478c34 	subls	r8, r7, r4, lsr ip

0000890c <l8645>:
    890c:	e0524b09 	subs	r4, r2, r9, lsl #22

00008910 <l8646>:
    8910:	e15d30be 	ldrh	r3, [sp, #-14]

00008914 <l8647>:
    8914:	e0f93e16 	rscs	r3, r9, r6, lsl lr

00008918 <l8648>:
    8918:	e53d4010 	ldr	r4, [sp, #-16]!

0000891c <l8649>:
    891c:	e16f6f15 	clz	r6, r5

00008920 <l8650>:
    8920:	e3a0a02f 	mov	sl, #47	; 0x2f

00008924 <l8651>:
    8924:	87cd700a 	strbhi	r7, [sp, sl]

00008928 <l8652>:
    8928:	81110001 	tsthi	r1, r1

0000892c <l8653>:
    892c:	11110000 	tstne	r1, r0

00008930 <l8654>:
    8930:	d1b0100a 	movsle	r1, sl

00008934 <l8655>:
    8934:	b0da5b15 	sbcslt	r5, sl, r5, lsl fp

00008938 <l8656>:
    8938:	619b7006 	orrsvs	r7, fp, r6

0000893c <l8657>:
    893c:	e3a0801c 	mov	r8, #28

00008940 <l8658>:
    8940:	e69dc008 	ldr	ip, [sp], r8

00008944 <l8659>:
    8944:	a5dd8021 	ldrbge	r8, [sp, #33]	; 0x21

00008948 <l8660>:
    8948:	d0a8600c 	adcle	r6, r8, ip

0000894c <l8661>:
    894c:	50cae00c 	sbcpl	lr, sl, ip

00008950 <l8662>:
    8950:	40469333 	submi	r9, r6, r3, lsr r3

00008954 <l8663>:
    8954:	e3a0200c 	mov	r2, #12

00008958 <l8664>:
    8958:	979d2002 	ldrls	r2, [sp, r2]

0000895c <l8665>:
    895c:	e0215002 	eor	r5, r1, r2

00008960 <l8666>:
    8960:	70581008 	subsvc	r1, r8, r8

00008964 <l8667>:
    8964:	915de1b6 	ldrhls	lr, [sp, #-22]	; 0xffffffea

00008968 <l8668>:
    8968:	e3a0400e 	mov	r4, #14

0000896c <l8669>:
    896c:	e75d4004 	ldrb	r4, [sp, -r4]

00008970 <l8670>:
    8970:	80226063 	eorhi	r6, r2, r3, rrx

00008974 <l8671>:
    8974:	e16f7f12 	clz	r7, r2

00008978 <l8672>:
    8978:	e0274476 	eor	r4, r7, r6, ror r4

0000897c <l8673>:
    897c:	e3a04010 	mov	r4, #16

00008980 <l8674>:
    8980:	e61d9004 	ldr	r9, [sp], -r4

00008984 <l8675>:
    8984:	b16f9f1e 	clzlt	r9, lr

00008988 <l8676>:
    8988:	e1d137e7 	bics	r3, r1, r7, ror #15

0000898c <l8677>:
    898c:	ea000004 	b	89a4 <l8683>

00008990 <l8678>:
    8990:	e28010db 	add	r1, r0, #219	; 0xdb

00008994 <l8679>:
    8994:	e16fef11 	clz	lr, r1

00008998 <l8680>:
    8998:	e2f0a89e 	rscs	sl, r0, #10354688	; 0x9e0000

0000899c <l8681>:
    899c:	e0910b5b 	adds	r0, r1, fp, asr fp

000089a0 <l8682>:
    89a0:	ea000000 	b	89a8 <l8684>

000089a4 <l8683>:
    89a4:	eafffffa 	b	8994 <l8679>

000089a8 <l8684>:
    89a8:	70686a45 	rsbvc	r6, r8, r5, asr #20

000089ac <l8685>:
    89ac:	9a000002 	bls	89bc <l8689>

000089b0 <l8686>:
    89b0:	40654000 	rsbmi	r4, r5, r0

000089b4 <l8687>:
    89b4:	e1f0506e 	mvns	r5, lr, rrx

000089b8 <l8688>:
    89b8:	53d21039 	bicspl	r1, r2, #57	; 0x39

000089bc <l8689>:
    89bc:	3186406c 	orrcc	r4, r6, ip, rrx

000089c0 <l8690>:
    89c0:	ea000000 	b	89c8 <l8692>

000089c4 <l8691>:
    89c4:	12aa86e7 	adcne	r8, sl, #242221056	; 0xe700000

000089c8 <l8692>:
    89c8:	e0883060 	add	r3, r8, r0, rrx

000089cc <l8693>:
    89cc:	e2154b8f 	ands	r4, r5, #146432	; 0x23c00

000089d0 <l8694>:
    89d0:	ea000003 	b	89e4 <l8699>

000089d4 <l8695>:
    89d4:	e2801008 	add	r1, r0, #8

000089d8 <l8696>:
    89d8:	e332012d 	teq	r2, #1073741835	; 0x4000000b

000089dc <l8697>:
    89dc:	813b0ea3 	teqhi	fp, r3, lsr #29

000089e0 <l8698>:
    89e0:	ea000000 	b	89e8 <l8700>

000089e4 <l8699>:
    89e4:	eafffffb 	b	89d8 <l8696>

000089e8 <l8700>:
    89e8:	e197600e 	orrs	r6, r7, lr

000089ec <l8701>:
    89ec:	a0f164ea 	rscsge	r6, r1, sl, ror #9

000089f0 <l8702>:
    89f0:	25cd8033 	strbcs	r8, [sp, #51]	; 0x33

000089f4 <l8703>:
    89f4:	e021403c 	eor	r4, r1, ip, lsr r0

000089f8 <l8704>:
    89f8:	b0e7100f 	rsclt	r1, r7, pc

000089fc <l8705>:
    89fc:	e3a08011 	mov	r8, #17

00008a00 <l8706>:
    8a00:	d7cd7008 	strble	r7, [sp, r8]

00008a04 <l8707>:
    8a04:	ea000008 	b	8a2c <l8717>

00008a08 <l8708>:
    8a08:	31100065 	tstcc	r0, r5, rrx

00008a0c <l8709>:
    8a0c:	b070e00e 	rsbslt	lr, r0, lr

00008a10 <l8710>:
    8a10:	e035c067 	eors	ip, r5, r7, rrx

00008a14 <l8711>:
    8a14:	10aa1373 	adcne	r1, sl, r3, ror r3

00008a18 <l8712>:
    8a18:	90c4e137 	sbcls	lr, r4, r7, lsr r1

00008a1c <l8713>:
    8a1c:	e08e2069 	add	r2, lr, r9, rrx

00008a20 <l8714>:
    8a20:	e0aabe1a 	adc	fp, sl, sl, lsl lr

00008a24 <l8715>:
    8a24:	616f2f17 	clzvs	r2, r7

00008a28 <l8716>:
    8a28:	d13a0061 	teqle	sl, r1, rrx

00008a2c <l8717>:
    8a2c:	61770000 	cmnvs	r7, r0

00008a30 <l8718>:
    8a30:	913a0ccb 	teqls	sl, fp, asr #25

00008a34 <l8719>:
    8a34:	458de028 	strmi	lr, [sp, #40]	; 0x28

00008a38 <l8720>:
    8a38:	ea000006 	b	8a58 <l8728>

00008a3c <l8721>:
    8a3c:	e28010fb 	add	r1, r0, #251	; 0xfb

00008a40 <l8722>:
    8a40:	e0f51009 	rscs	r1, r5, r9

00008a44 <l8723>:
    8a44:	b0873357 	addlt	r3, r7, r7, asr r3

00008a48 <l8724>:
    8a48:	e0493018 	sub	r3, r9, r8, lsl r0

00008a4c <l8725>:
    8a4c:	e06f1565 	rsb	r1, pc, r5, ror #10

00008a50 <l8726>:
    8a50:	116f8f1e 	clzne	r8, lr

00008a54 <l8727>:
    8a54:	ea000000 	b	8a5c <l8729>

00008a58 <l8728>:
    8a58:	eafffff8 	b	8a40 <l8722>

00008a5c <l8729>:
    8a5c:	30f1200e 	rscscc	r2, r1, lr

00008a60 <l8730>:
    8a60:	e3a0c02e 	mov	ip, #46	; 0x2e

00008a64 <l8731>:
    8a64:	e7cd100c 	strb	r1, [sp, ip]

00008a68 <l8732>:
    8a68:	716f0f18 	clzvc	r0, r8

00008a6c <l8733>:
    8a6c:	c1e0ae04 	mvngt	sl, r4, lsl #28

00008a70 <l8734>:
    8a70:	43d8856b 	bicsmi	r8, r8, #448790528	; 0x1ac00000

00008a74 <l8735>:
    8a74:	e0e7bc5e 	rsc	fp, r7, lr, asr ip

00008a78 <l8736>:
    8a78:	e59f7000 	ldr	r7, [pc]	; 8a80 <l8738>

00008a7c <l8737>:
    8a7c:	ea000000 	b	8a84 <l8739>

00008a80 <l8738>:
    8a80:	000fffa8 	.word	0x000fffa8

00008a84 <l8739>:
    8a84:	6147809c 	swpbvs	r8, ip, [r7]

00008a88 <l8740>:
    8a88:	b1dd41da 	ldrsblt	r4, [sp, #26]

00008a8c <l8741>:
    8a8c:	c0e5b53a 	rscgt	fp, r5, sl, lsr r5

00008a90 <l8742>:
    8a90:	255d300e 	ldrbcs	r3, [sp, #-14]

00008a94 <l8743>:
    8a94:	e15a000b 	cmp	sl, fp

00008a98 <l8744>:
    8a98:	516f0f13 	clzpl	r0, r3

00008a9c <l8745>:
    8a9c:	3affffff 	bcc	8aa0 <l8746>

00008aa0 <l8746>:
    8aa0:	e035b55a 	eors	fp, r5, sl, asr r5

00008aa4 <l8747>:
    8aa4:	716fef1b 	clzvc	lr, fp

00008aa8 <l8748>:
    8aa8:	30d9ba43 	sbcscc	fp, r9, r3, asr #20

00008aac <l8749>:
    8aac:	e3a0c018 	mov	ip, #24

00008ab0 <l8750>:
    8ab0:	e69d400c 	ldr	r4, [sp], ip

00008ab4 <l8751>:
    8ab4:	e06c9064 	rsb	r9, ip, r4, rrx

00008ab8 <l8752>:
    8ab8:	917c0b71 	cmnls	ip, r1, ror fp

00008abc <l8753>:
    8abc:	e5dd6016 	ldrb	r6, [sp, #22]

00008ac0 <l8754>:
    8ac0:	91b0ad61 	rorsls	sl, r1, #26

00008ac4 <l8755>:
    8ac4:	e3a02024 	mov	r2, #36	; 0x24

00008ac8 <l8756>:
    8ac8:	e73d7002 	ldr	r7, [sp, -r2]!

00008acc <l8757>:
    8acc:	ea000006 	b	8aec <l8765>

00008ad0 <l8758>:
    8ad0:	e1c2ac19 	bic	sl, r2, r9, lsl ip

00008ad4 <l8759>:
    8ad4:	e17f0061 	cmn	pc, r1, rrx

00008ad8 <l8760>:
    8ad8:	e3540512 	cmp	r4, #75497472	; 0x4800000

00008adc <l8761>:
    8adc:	e02bc977 	eor	ip, fp, r7, ror r9

00008ae0 <l8762>:
    8ae0:	e1710002 	cmn	r1, r2

00008ae4 <l8763>:
    8ae4:	e119000c 	tst	r9, ip

00008ae8 <l8764>:
    8ae8:	e02455aa 	eor	r5, r4, sl, lsr #11

00008aec <l8765>:
    8aec:	e0446007 	sub	r6, r4, r7

00008af0 <l8766>:
    8af0:	10fc7078 	rscsne	r7, ip, r8, ror r0

00008af4 <l8767>:
    8af4:	51c83659 	bicpl	r3, r8, r9, asr r6

00008af8 <l8768>:
    8af8:	b037b00a 	eorslt	fp, r7, sl

00008afc <l8769>:
    8afc:	016fcf11 	clzeq	ip, r1

00008b00 <l8770>:
    8b00:	e18b9363 	orr	r9, fp, r3, ror #6

00008b04 <l8771>:
    8b04:	e3a0a024 	mov	sl, #36	; 0x24

00008b08 <l8772>:
    8b08:	d78de00a 	strle	lr, [sp, sl]

00008b0c <l8773>:
    8b0c:	e59f6000 	ldr	r6, [pc]	; 8b14 <l8775>

00008b10 <l8774>:
    8b10:	ea000000 	b	8b18 <l8776>

00008b14 <l8775>:
    8b14:	000fffac 	.word	0x000fffac

00008b18 <l8776>:
    8b18:	61468092 	swpbvs	r8, r2, [r6]

00008b1c <l8777>:
    8b1c:	3041b159 	subcc	fp, r1, r9, asr r1

00008b20 <l8778>:
    8b20:	91300810 	teqls	r0, r0, lsl r8

00008b24 <l8779>:
    8b24:	e48d202c 	str	r2, [sp], #44	; 0x2c

00008b28 <l8780>:
    8b28:	e3a02038 	mov	r2, #56	; 0x38

00008b2c <l8781>:
    8b2c:	e61d5002 	ldr	r5, [sp], -r2

00008b30 <l8782>:
    8b30:	30791066 	rsbscc	r1, r9, r6, rrx

00008b34 <l8783>:
    8b34:	e242a7ed 	sub	sl, r2, #62128128	; 0x3b40000

00008b38 <l8784>:
    8b38:	e2407e2f 	sub	r7, r0, #752	; 0x2f0

00008b3c <l8785>:
    8b3c:	e3a05014 	mov	r5, #20

00008b40 <l8786>:
    8b40:	e19d00f5 	ldrsh	r0, [sp, r5]

00008b44 <l8787>:
    8b44:	30525054 	subscc	r5, r2, r4, asr r0

00008b48 <l8788>:
    8b48:	988d43c8 	stmls	sp, {r3, r6, r7, r8, r9, lr}

00008b4c <l8789>:
    8b4c:	e5bdc01c 	ldr	ip, [sp, #28]!

00008b50 <l8790>:
    8b50:	525f4e3a 	subspl	r4, pc, #928	; 0x3a0

00008b54 <l8791>:
    8b54:	61dd91d8 	ldrsbvs	r9, [sp, #24]

00008b58 <l8792>:
    8b58:	e37901fd 	cmn	r9, #1073741887	; 0x4000003f

00008b5c <l8793>:
    8b5c:	60550e88 	subsvs	r0, r5, r8, lsl #29

00008b60 <l8794>:
    8b60:	216f7f1e 	clzcs	r7, lr

00008b64 <l8795>:
    8b64:	e31900ef 	tst	r9, #239	; 0xef

00008b68 <l8796>:
    8b68:	5392173b 	orrspl	r1, r2, #15466496	; 0xec0000

00008b6c <l8797>:
    8b6c:	61db816e 	bicsvs	r8, fp, lr, ror #2

00008b70 <l8798>:
    8b70:	51997001 	orrspl	r7, r9, r1

00008b74 <l8799>:
    8b74:	e59f9000 	ldr	r9, [pc]	; 8b7c <l8801>

00008b78 <l8800>:
    8b78:	ea000000 	b	8b80 <l8802>

00008b7c <l8801>:
    8b7c:	000fffc0 	.word	0x000fffc0

00008b80 <l8802>:
    8b80:	71494093 	swpbvc	r4, r3, [r9]

00008b84 <l8803>:
    8b84:	d22b5052 	eorle	r5, fp, #82	; 0x52

00008b88 <l8804>:
    8b88:	e06c1a0e 	rsb	r1, ip, lr, lsl #20

00008b8c <l8805>:
    8b8c:	c133006e 	teqgt	r3, lr, rrx

00008b90 <l8806>:
    8b90:	e005b06f 	and	fp, r5, pc, rrx

00008b94 <l8807>:
    8b94:	e59fa000 	ldr	sl, [pc]	; 8b9c <l8809>

00008b98 <l8808>:
    8b98:	ea000000 	b	8ba0 <l8810>

00008b9c <l8809>:
    8b9c:	000fffe4 	.word	0x000fffe4

00008ba0 <l8810>:
    8ba0:	e10a1098 	swp	r1, r8, [sl]

00008ba4 <l8811>:
    8ba4:	e3a03007 	mov	r3, #7

00008ba8 <l8812>:
    8ba8:	e75d1003 	ldrb	r1, [sp, -r3]

00008bac <l8813>:
    8bac:	e0b10007 	adcs	r0, r1, r7

00008bb0 <l8814>:
    8bb0:	714d70ba 	strhvc	r7, [sp, #-10]

00008bb4 <l8815>:
    8bb4:	01a02565 	roreq	r2, r5, #10

00008bb8 <l8816>:
    8bb8:	e007200f 	and	r2, r7, pc

00008bbc <l8817>:
    8bbc:	e3a0b00a 	mov	fp, #10

00008bc0 <l8818>:
    8bc0:	d11db0fb 	ldrshle	fp, [sp, -fp]

00008bc4 <l8819>:
    8bc4:	e91d0004 	ldmdb	sp, {r2}

00008bc8 <l8820>:
    8bc8:	e59f6000 	ldr	r6, [pc]	; 8bd0 <l8822>

00008bcc <l8821>:
    8bcc:	ea000000 	b	8bd4 <l8823>

00008bd0 <l8822>:
    8bd0:	000fffdc 	.word	0x000fffdc

00008bd4 <l8823>:
    8bd4:	e1063092 	swp	r3, r2, [r6]

00008bd8 <l8824>:
    8bd8:	e005106f 	and	r1, r5, pc, rrx

00008bdc <l8825>:
    8bdc:	c18e0002 	orrgt	r0, lr, r2

00008be0 <l8826>:
    8be0:	e16f4f16 	clz	r4, r6

00008be4 <l8827>:
    8be4:	e0410e15 	sub	r0, r1, r5, lsl lr

00008be8 <l8828>:
    8be8:	011f0067 	tsteq	pc, r7, rrx

00008bec <l8829>:
    8bec:	e16f0f15 	clz	r0, r5

00008bf0 <l8830>:
    8bf0:	00e9500f 	rsceq	r5, r9, pc

00008bf4 <l8831>:
    8bf4:	e3a0800a 	mov	r8, #10

00008bf8 <l8832>:
    8bf8:	611d90b8 	ldrhvs	r9, [sp, -r8]

00008bfc <l8833>:
    8bfc:	e151006b 	cmp	r1, fp, rrx

00008c00 <l8834>:
    8c00:	e3a03019 	mov	r3, #25

00008c04 <l8835>:
    8c04:	37ddb003 	ldrbcc	fp, [sp, r3]

00008c08 <l8836>:
    8c08:	e0a57c36 	adc	r7, r5, r6, lsr ip

00008c0c <l8837>:
    8c0c:	e3a0e008 	mov	lr, #8

00008c10 <l8838>:
    8c10:	d74d400e 	strble	r4, [sp, -lr]

00008c14 <l8839>:
    8c14:	d06ee063 	rsble	lr, lr, r3, rrx

00008c18 <l8840>:
    8c18:	e1dd61d2 	ldrsb	r6, [sp, #18]

00008c1c <l8841>:
    8c1c:	e1340be0 	teq	r4, r0, ror #23

00008c20 <l8842>:
    8c20:	e59f7000 	ldr	r7, [pc]	; 8c28 <l8844>

00008c24 <l8843>:
    8c24:	ea000000 	b	8c2c <l8845>

00008c28 <l8844>:
    8c28:	000fffb0 	.word	0x000fffb0

00008c2c <l8845>:
    8c2c:	a1072095 	swpge	r2, r5, [r7]

00008c30 <l8846>:
    8c30:	b98d1eb5 	stmiblt	sp, {r0, r2, r4, r5, r7, r9, sl, fp, ip}

00008c34 <l8847>:
    8c34:	41d9a06b 	bicsmi	sl, r9, fp, rrx

00008c38 <l8848>:
    8c38:	e044400a 	sub	r4, r4, sl

00008c3c <l8849>:
    8c3c:	e59f7000 	ldr	r7, [pc]	; 8c44 <l8851>

00008c40 <l8850>:
    8c40:	ea000000 	b	8c48 <l8852>

00008c44 <l8851>:
    8c44:	000fffcc 	.word	0x000fffcc

00008c48 <l8852>:
    8c48:	e1470099 	swpb	r0, r9, [r7]

00008c4c <l8853>:
    8c4c:	e33a0909 	teq	sl, #147456	; 0x24000

00008c50 <l8854>:
    8c50:	e59f0000 	ldr	r0, [pc]	; 8c58 <l8856>

00008c54 <l8855>:
    8c54:	ea000000 	b	8c5c <l8857>

00008c58 <l8856>:
    8c58:	000fffbc 	.word	0x000fffbc

00008c5c <l8857>:
    8c5c:	e1004098 	swp	r4, r8, [r0]

00008c60 <l8858>:
    8c60:	739cc836 	orrsvc	ip, ip, #3538944	; 0x360000

00008c64 <l8859>:
    8c64:	131e0461 	tstne	lr, #1627389952	; 0x61000000

00008c68 <l8860>:
    8c68:	e1e0500b 	mvn	r5, fp

00008c6c <l8861>:
    8c6c:	e9bd59b5 	ldmib	sp!, {r0, r2, r4, r5, r7, r8, fp, ip, lr}

00008c70 <l8862>:
    8c70:	e55de03d 	ldrb	lr, [sp, #-61]	; 0x3d

00008c74 <l8863>:
    8c74:	109baf07 	addsne	sl, fp, r7, lsl #30

00008c78 <l8864>:
    8c78:	e82d1002 	stmda	sp!, {r1, ip}

00008c7c <l8865>:
    8c7c:	83a04f5e 	movhi	r4, #376	; 0x178

00008c80 <l8866>:
    8c80:	e03a3313 	eors	r3, sl, r3, lsl r3

00008c84 <l8867>:
    8c84:	754d8016 	strbvc	r8, [sp, #-22]

00008c88 <l8868>:
    8c88:	011c090a 	tsteq	ip, sl, lsl #18

00008c8c <l8869>:
    8c8c:	616f0f18 	clzvs	r0, r8

00008c90 <l8870>:
    8c90:	e0f84000 	rscs	r4, r8, r0

00008c94 <l8871>:
    8c94:	b1b0285b 	asrslt	r2, fp, r8

00008c98 <l8872>:
    8c98:	70a4ec15 	adcvc	lr, r4, r5, lsl ip

00008c9c <l8873>:
    8c9c:	216f2f1c 	clzcs	r2, ip

00008ca0 <l8874>:
    8ca0:	e1340062 	teq	r4, r2, rrx

00008ca4 <l8875>:
    8ca4:	e1a00000 	nop			; (mov r0, r0)

00008ca8 <l8876>:
    8ca8:	e81d17ff 	ldmda	sp, {r0, r1, r2, r3, r4, r5, r6, r7, r8, r9, sl, ip}

00008cac <l8877>:
    8cac:	31f04008 	mvnscc	r4, r8

00008cb0 <l8878>:
    8cb0:	e0a58d6a 	adc	r8, r5, sl, ror #26

00008cb4 <l8879>:
    8cb4:	e59f6000 	ldr	r6, [pc]	; 8cbc <l8881>

00008cb8 <l8880>:
    8cb8:	ea000000 	b	8cc0 <l8882>

00008cbc <l8881>:
    8cbc:	000fffe0 	.word	0x000fffe0

00008cc0 <l8882>:
    8cc0:	81465094 	swpbhi	r5, r4, [r6]

00008cc4 <l8883>:
    8cc4:	83e0917b 	mvnhi	r9, #-1073741794	; 0xc000001e

00008cc8 <l8884>:
    8cc8:	c1b09000 	movsgt	r9, r0

00008ccc <l8885>:
    8ccc:	b14d12b2 	strhlt	r1, [sp, #-34]	; 0xffffffde

00008cd0 <l8886>:
    8cd0:	d33804c9 	teqle	r8, #-922746880	; 0xc9000000

00008cd4 <l8887>:
    8cd4:	e89d008a 	ldm	sp, {r1, r3, r7}

00008cd8 <l8888>:
    8cd8:	e1f0a6af 	mvns	sl, pc, lsr #13

00008cdc <l8889>:
    8cdc:	7a000005 	bvc	8cf8 <l8896>

00008ce0 <l8890>:
    8ce0:	e2801060 	add	r1, r0, #96	; 0x60

00008ce4 <l8891>:
    8ce4:	d1b07006 	movsle	r7, r6

00008ce8 <l8892>:
    8ce8:	e042e063 	sub	lr, r2, r3, rrx

00008cec <l8893>:
    8cec:	0099600a 	addseq	r6, r9, sl

00008cf0 <l8894>:
    8cf0:	e05be062 	subs	lr, fp, r2, rrx

00008cf4 <l8895>:
    8cf4:	ea000000 	b	8cfc <l8897>

00008cf8 <l8896>:
    8cf8:	eafffff9 	b	8ce4 <l8891>

00008cfc <l8897>:
    8cfc:	e59fb000 	ldr	fp, [pc]	; 8d04 <l8899>

00008d00 <l8898>:
    8d00:	ea000000 	b	8d08 <l8900>

00008d04 <l8899>:
    8d04:	000fffc8 	.word	0x000fffc8

00008d08 <l8900>:
    8d08:	a14b409c 	swpbge	r4, ip, [fp]

00008d0c <l8901>:
    8d0c:	00178060 	andseq	r8, r7, r0, rrx

00008d10 <l8902>:
    8d10:	e3a02002 	mov	r2, #2

00008d14 <l8903>:
    8d14:	e74db002 	strb	fp, [sp, -r2]

00008d18 <l8904>:
    8d18:	e59fc000 	ldr	ip, [pc]	; 8d20 <l8906>

00008d1c <l8905>:
    8d1c:	ea000000 	b	8d24 <l8907>

00008d20 <l8906>:
    8d20:	000fffb4 	.word	0x000fffb4

00008d24 <l8907>:
    8d24:	e10c1094 	swp	r1, r4, [ip]

00008d28 <l8908>:
    8d28:	e59f0000 	ldr	r0, [pc]	; 8d30 <l8910>

00008d2c <l8909>:
    8d2c:	ea000000 	b	8d34 <l8911>

00008d30 <l8910>:
    8d30:	000fffa8 	.word	0x000fffa8

00008d34 <l8911>:
    8d34:	1140e095 	swpbne	lr, r5, [r0]

00008d38 <l8912>:
    8d38:	73140b8f 	tstvc	r4, #146432	; 0x23c00

00008d3c <l8913>:
    8d3c:	22d29402 	sbcscs	r9, r2, #33554432	; 0x2000000

00008d40 <l8914>:
    8d40:	e1dd30b2 	ldrh	r3, [sp, #2]

00008d44 <l8915>:
    8d44:	539ce9c7 	orrspl	lr, ip, #3260416	; 0x31c000

00008d48 <l8916>:
    8d48:	e3a09008 	mov	r9, #8

00008d4c <l8917>:
    8d4c:	e11d10d9 	ldrsb	r1, [sp, -r9]

00008d50 <l8918>:
    8d50:	7a000007 	bvc	8d74 <l8927>

00008d54 <l8919>:
    8d54:	d1844063 	orrle	r4, r4, r3, rrx

00008d58 <l8920>:
    8d58:	4037661a 	eorsmi	r6, r7, sl, lsl r6

00008d5c <l8921>:
    8d5c:	804a6060 	subhi	r6, sl, r0, rrx

00008d60 <l8922>:
    8d60:	51b0b334 	lsrspl	fp, r4, r3

00008d64 <l8923>:
    8d64:	e0593007 	subs	r3, r9, r7

00008d68 <l8924>:
    8d68:	40bab4aa 	adcsmi	fp, sl, sl, lsr #9

00008d6c <l8925>:
    8d6c:	7134006a 	teqvc	r4, sl, rrx

00008d70 <l8926>:
    8d70:	12e3bc6f 	rscne	fp, r3, #28416	; 0x6f00

00008d74 <l8927>:
    8d74:	e04fc000 	sub	ip, pc, r0

00008d78 <l8928>:
    8d78:	e3a09028 	mov	r9, #40	; 0x28

00008d7c <l8929>:
    8d7c:	e70d0009 	str	r0, [sp, -r9]

00008d80 <l8930>:
    8d80:	90f4600a 	rscsls	r6, r4, sl

00008d84 <l8931>:
    8d84:	e9ad2000 	stmib	sp!, {sp}

00008d88 <l8932>:
    8d88:	33b04cfd 	movscc	r4, #64768	; 0xfd00

00008d8c <l8933>:
    8d8c:	e1a00000 	nop			; (mov r0, r0)

00008d90 <l8934>:
    8d90:	41dd70f8 	ldrshmi	r7, [sp, #8]

00008d94 <l8935>:
    8d94:	02ea353e 	rsceq	r3, sl, #260046848	; 0xf800000

00008d98 <l8936>:
    8d98:	c24450d9 	subgt	r5, r4, #217	; 0xd9

00008d9c <l8937>:
    8d9c:	e1390d69 	teq	r9, r9, ror #26

00008da0 <l8938>:
    8da0:	c0c5300e 	sbcgt	r3, r5, lr

00008da4 <l8939>:
    8da4:	e1340d8a 	teq	r4, sl, lsl #27

00008da8 <l8940>:
    8da8:	e17107c8 	cmn	r1, r8, asr #15

00008dac <l8941>:
    8dac:	6197700c 	orrsvs	r7, r7, ip

00008db0 <l8942>:
    8db0:	e15da3f8 	ldrsh	sl, [sp, #-56]	; 0xffffffc8

00008db4 <l8943>:
    8db4:	e16f9f1b 	clz	r9, fp

00008db8 <l8944>:
    8db8:	e14de3b6 	strh	lr, [sp, #-54]	; 0xffffffca

00008dbc <l8945>:
    8dbc:	71e03067 	mvnvc	r3, r7, rrx

00008dc0 <l8946>:
    8dc0:	155d6024 	ldrbne	r6, [sp, #-36]	; 0x24

00008dc4 <l8947>:
    8dc4:	e3a0400a 	mov	r4, #10

00008dc8 <l8948>:
    8dc8:	b11d40f4 	ldrshlt	r4, [sp, -r4]

00008dcc <l8949>:
    8dcc:	315d70b2 	ldrhcc	r7, [sp, #-2]

00008dd0 <l8950>:
    8dd0:	e1c3c007 	bic	ip, r3, r7

00008dd4 <l8951>:
    8dd4:	e52d5038 	str	r5, [sp, #-56]!	; 0x38

00008dd8 <l8952>:
    8dd8:	61cdc2ba 	strhvs	ip, [sp, #42]	; 0x2a

00008ddc <l8953>:
    8ddc:	11f0e068 	mvnsne	lr, r8, rrx

00008de0 <l8954>:
    8de0:	e16f8f18 	clz	r8, r8

00008de4 <l8955>:
    8de4:	511e0d22 	tstpl	lr, r2, lsr #26

00008de8 <l8956>:
    8de8:	e136000f 	teq	r6, pc

00008dec <l8957>:
    8dec:	63e0e9a3 	mvnvs	lr, #2670592	; 0x28c000

00008df0 <l8958>:
    8df0:	e55da004 	ldrb	sl, [sp, #-4]

00008df4 <l8959>:
    8df4:	01da206c 	bicseq	r2, sl, ip, rrx

00008df8 <l8960>:
    8df8:	40476d60 	submi	r6, r7, r0, ror #26

00008dfc <l8961>:
    8dfc:	e59f4000 	ldr	r4, [pc]	; 8e04 <l8963>

00008e00 <l8962>:
    8e00:	ea000000 	b	8e08 <l8964>

00008e04 <l8963>:
    8e04:	000fffcc 	.word	0x000fffcc

00008e08 <l8964>:
    8e08:	6144809c 	swpbvs	r8, ip, [r4]

00008e0c <l8965>:
    8e0c:	e59f9000 	ldr	r9, [pc]	; 8e14 <l8967>

00008e10 <l8966>:
    8e10:	ea000000 	b	8e18 <l8968>

00008e14 <l8967>:
    8e14:	000fffe0 	.word	0x000fffe0

00008e18 <l8968>:
    8e18:	e1492091 	swpb	r2, r1, [r9]

00008e1c <l8969>:
    8e1c:	c1cd02be 	strhgt	r0, [sp, #46]	; 0x2e

00008e20 <l8970>:
    8e20:	e1390433 	teq	r9, r3, lsr r4

00008e24 <l8971>:
    8e24:	e19fe00c 	orrs	lr, pc, ip

00008e28 <l8972>:
    8e28:	e0790007 	rsbs	r0, r9, r7

00008e2c <l8973>:
    8e2c:	889d55ba 	ldmhi	sp, {r1, r3, r4, r5, r7, r8, sl, ip, lr}

00008e30 <l8974>:
    8e30:	7027a757 	eorvc	sl, r7, r7, asr r7

00008e34 <l8975>:
    8e34:	d3d191a9 	bicsle	r9, r1, #1073741866	; 0x4000002a

00008e38 <l8976>:
    8e38:	81dd31bc 	ldrhhi	r3, [sp, #28]

00008e3c <l8977>:
    8e3c:	e59f9000 	ldr	r9, [pc]	; 8e44 <l8979>

00008e40 <l8978>:
    8e40:	ea000000 	b	8e48 <l8980>

00008e44 <l8979>:
    8e44:	000fffa4 	.word	0x000fffa4

00008e48 <l8980>:
    8e48:	e149a097 	swpb	sl, r7, [r9]

00008e4c <l8981>:
    8e4c:	e3a0b032 	mov	fp, #50	; 0x32

00008e50 <l8982>:
    8e50:	e19d40fb 	ldrsh	r4, [sp, fp]

00008e54 <l8983>:
    8e54:	e174050c 	cmn	r4, ip, lsl #10

00008e58 <l8984>:
    8e58:	e3a0a032 	mov	sl, #50	; 0x32

00008e5c <l8985>:
    8e5c:	e19d00ba 	ldrh	r0, [sp, sl]

00008e60 <l8986>:
    8e60:	925c8b31 	subsls	r8, ip, #50176	; 0xc400

00008e64 <l8987>:
    8e64:	e3100612 	tst	r0, #18874368	; 0x1200000

00008e68 <l8988>:
    8e68:	21e0100e 	mvncs	r1, lr

00008e6c <l8989>:
    8e6c:	a07f3000 	rsbsge	r3, pc, r0

00008e70 <l8990>:
    8e70:	e08ae97a 	add	lr, sl, sl, ror r9

00008e74 <l8991>:
    8e74:	3050400f 	subscc	r4, r0, pc

00008e78 <l8992>:
    8e78:	e3a0e040 	mov	lr, #64	; 0x40

00008e7c <l8993>:
    8e7c:	719d40be 	ldrhvc	r4, [sp, lr]

00008e80 <l8994>:
    8e80:	e0b8c001 	adcs	ip, r8, r1

00008e84 <l8995>:
    8e84:	61a06003 	movvs	r6, r3

00008e88 <l8996>:
    8e88:	e04a5016 	sub	r5, sl, r6, lsl r0

00008e8c <l8997>:
    8e8c:	e04cbce5 	sub	fp, ip, r5, ror #25

00008e90 <l8998>:
    8e90:	739e7c9e 	orrsvc	r7, lr, #40448	; 0x9e00

00008e94 <l8999>:
    8e94:	a02a8003 	eorge	r8, sl, r3

00008e98 <l9000>:
    8e98:	e3a0102c 	mov	r1, #44	; 0x2c

00008e9c <l9001>:
    8e9c:	e19d20d1 	ldrsb	r2, [sp, r1]

00008ea0 <l9002>:
    8ea0:	116f8f1c 	clzne	r8, ip

00008ea4 <l9003>:
    8ea4:	e087a914 	add	sl, r7, r4, lsl r9

00008ea8 <l9004>:
    8ea8:	80435a78 	subhi	r5, r3, r8, ror sl

00008eac <l9005>:
    8eac:	e3a0c03a 	mov	ip, #58	; 0x3a

00008eb0 <l9006>:
    8eb0:	e18d30bc 	strh	r3, [sp, ip]

00008eb4 <l9007>:
    8eb4:	80f2075e 	rscshi	r0, r2, lr, asr r7

00008eb8 <l9008>:
    8eb8:	9a000004 	bls	8ed0 <l9014>

00008ebc <l9009>:
    8ebc:	e2801026 	add	r1, r0, #38	; 0x26

00008ec0 <l9010>:
    8ec0:	e1cce00c 	bic	lr, ip, ip

00008ec4 <l9011>:
    8ec4:	71f0e206 	mvnsvc	lr, r6, lsl #4

00008ec8 <l9012>:
    8ec8:	0298cd29 	addseq	ip, r8, #2624	; 0xa40

00008ecc <l9013>:
    8ecc:	ea000000 	b	8ed4 <l9015>

00008ed0 <l9014>:
    8ed0:	eafffffa 	b	8ec0 <l9010>

00008ed4 <l9015>:
    8ed4:	e3a0803f 	mov	r8, #63	; 0x3f

00008ed8 <l9016>:
    8ed8:	07ddc008 	ldrbeq	ip, [sp, r8]

00008edc <l9017>:
    8edc:	e0403ee8 	sub	r3, r0, r8, ror #29

00008ee0 <l9018>:
    8ee0:	116f4f19 	clzne	r4, r9

00008ee4 <l9019>:
    8ee4:	a076e008 	rsbsge	lr, r6, r8

00008ee8 <l9020>:
    8ee8:	e287e21d 	add	lr, r7, #-805306367	; 0xd0000001

00008eec <l9021>:
    8eec:	e1b0cb40 	asrs	ip, r0, #22

00008ef0 <l9022>:
    8ef0:	e11b077c 	tst	fp, ip, ror r7

00008ef4 <l9023>:
    8ef4:	e17e0e86 	cmn	lr, r6, lsl #29

00008ef8 <l9024>:
    8ef8:	ea000005 	b	8f14 <l9031>

00008efc <l9025>:
    8efc:	e2801094 	add	r1, r0, #148	; 0x94

00008f00 <l9026>:
    8f00:	21130007 	tstcs	r3, r7

00008f04 <l9027>:
    8f04:	70276123 	eorvc	r6, r7, r3, lsr #2

00008f08 <l9028>:
    8f08:	201f7000 	andscs	r7, pc, r0

00008f0c <l9029>:
    8f0c:	909a9738 	addsls	r9, sl, r8, lsr r7

00008f10 <l9030>:
    8f10:	ea000000 	b	8f18 <l9032>

00008f14 <l9031>:
    8f14:	eafffff9 	b	8f00 <l9026>

00008f18 <l9032>:
    8f18:	e3a0601c 	mov	r6, #28

00008f1c <l9033>:
    8f1c:	e7bd6006 	ldr	r6, [sp, r6]!

00008f20 <l9034>:
    8f20:	a035c005 	eorsge	ip, r5, r5

00008f24 <l9035>:
    8f24:	e3a0e014 	mov	lr, #20

00008f28 <l9036>:
    8f28:	719d30de 	ldrsbvc	r3, [sp, lr]

00008f2c <l9037>:
    8f2c:	73828a1f 	orrvc	r8, r2, #126976	; 0x1f000

00008f30 <l9038>:
    8f30:	e14d50be 	strh	r5, [sp, #-14]

00008f34 <l9039>:
    8f34:	e59f7000 	ldr	r7, [pc]	; 8f3c <l9041>

00008f38 <l9040>:
    8f38:	ea000000 	b	8f40 <l9042>

00008f3c <l9041>:
    8f3c:	000fffac 	.word	0x000fffac

00008f40 <l9042>:
    8f40:	e107309e 	swp	r3, lr, [r7]

00008f44 <l9043>:
    8f44:	2a000005 	bcs	8f60 <l9050>

00008f48 <l9044>:
    8f48:	e15b0001 	cmp	fp, r1

00008f4c <l9045>:
    8f4c:	e1710002 	cmn	r1, r2

00008f50 <l9046>:
    8f50:	e13a0069 	teq	sl, r9, rrx

00008f54 <l9047>:
    8f54:	e159006b 	cmp	r9, fp, rrx

00008f58 <l9048>:
    8f58:	13300843 	teqne	r0, #4390912	; 0x430000

00008f5c <l9049>:
    8f5c:	e1790061 	cmn	r9, r1, rrx

00008f60 <l9050>:
    8f60:	e18ec855 	orr	ip, lr, r5, asr r8

00008f64 <l9051>:
    8f64:	e08670af 	add	r7, r6, pc, lsr #1

00008f68 <l9052>:
    8f68:	e1310060 	teq	r1, r0, rrx

00008f6c <l9053>:
    8f6c:	b14d21b0 	strhlt	r2, [sp, #-16]

00008f70 <l9054>:
    8f70:	0a000006 	beq	8f90 <l9062>

00008f74 <l9055>:
    8f74:	e280105a 	add	r1, r0, #90	; 0x5a

00008f78 <l9056>:
    8f78:	d1150001 	tstle	r5, r1

00008f7c <l9057>:
    8f7c:	700c44c7 	andvc	r4, ip, r7, asr #9

00008f80 <l9058>:
    8f80:	e0142fee 	ands	r2, r4, lr, ror #31

00008f84 <l9059>:
    8f84:	51f00007 	mvnspl	r0, r7

00008f88 <l9060>:
    8f88:	e1520009 	cmp	r2, r9

00008f8c <l9061>:
    8f8c:	ea000000 	b	8f94 <l9063>

00008f90 <l9062>:
    8f90:	eafffff8 	b	8f78 <l9056>

00008f94 <l9063>:
    8f94:	504011e5 	subpl	r1, r0, r5, ror #3

00008f98 <l9064>:
    8f98:	e13e0002 	teq	lr, r2

00008f9c <l9065>:
    8f9c:	e1740972 	cmn	r4, r2, ror r9

00008fa0 <l9066>:
    8fa0:	e16f9f11 	clz	r9, r1

00008fa4 <l9067>:
    8fa4:	25dd201f 	ldrbcs	r2, [sp, #31]

00008fa8 <l9068>:
    8fa8:	103fa3a9 	eorsne	sl, pc, r9, lsr #7

00008fac <l9069>:
    8fac:	e59f3000 	ldr	r3, [pc]	; 8fb4 <l9071>

00008fb0 <l9070>:
    8fb0:	ea000000 	b	8fb8 <l9072>

00008fb4 <l9071>:
    8fb4:	000fffbc 	.word	0x000fffbc

00008fb8 <l9072>:
    8fb8:	b1032090 	swplt	r2, r0, [r3]

00008fbc <l9073>:
    8fbc:	a50de004 	strge	lr, [sp, #-4]

00008fc0 <l9074>:
    8fc0:	e93d58e0 	ldmdb	sp!, {r5, r6, r7, fp, ip, lr}

00008fc4 <l9075>:
    8fc4:	e5dd0031 	ldrb	r0, [sp, #49]	; 0x31

00008fc8 <l9076>:
    8fc8:	11530005 	cmpne	r3, r5

00008fcc <l9077>:
    8fcc:	e5cd8017 	strb	r8, [sp, #23]

00008fd0 <l9078>:
    8fd0:	e16f8f12 	clz	r8, r2

00008fd4 <l9079>:
    8fd4:	e59f9000 	ldr	r9, [pc]	; 8fdc <l9081>

00008fd8 <l9080>:
    8fd8:	ea000000 	b	8fe0 <l9082>

00008fdc <l9081>:
    8fdc:	000fffd0 	.word	0x000fffd0

00008fe0 <l9082>:
    8fe0:	e149e094 	swpb	lr, r4, [r9]

00008fe4 <l9083>:
    8fe4:	713a0857 	teqvc	sl, r7, asr r8

00008fe8 <l9084>:
    8fe8:	e0038060 	and	r8, r3, r0, rrx

00008fec <l9085>:
    8fec:	60a6206e 	adcvs	r2, r6, lr, rrx

00008ff0 <l9086>:
    8ff0:	5119006f 	tstpl	r9, pc, rrx

00008ff4 <l9087>:
    8ff4:	e15d60d8 	ldrsb	r6, [sp, #-8]

00008ff8 <l9088>:
    8ff8:	b16f2f19 	clzlt	r2, r9

00008ffc <l9089>:
    8ffc:	e1cd93be 	strh	r9, [sp, #62]	; 0x3e

00009000 <l9090>:
    9000:	01320069 	teqeq	r2, r9, rrx

00009004 <l9091>:
    9004:	c1e01008 	mvngt	r1, r8

00009008 <l9092>:
    9008:	e20b1a29 	and	r1, fp, #167936	; 0x29000

0000900c <l9093>:
    900c:	e3853000 	orr	r3, r5, #0

00009010 <l9094>:
    9010:	03d49c85 	bicseq	r9, r4, #34048	; 0x8500

00009014 <l9095>:
    9014:	d1956ca8 	orrsle	r6, r5, r8, lsr #25

00009018 <l9096>:
    9018:	e1e0906c 	mvn	r9, ip, rrx

0000901c <l9097>:
    901c:	e1a00000 	nop			; (mov r0, r0)

00009020 <l9098>:
    9020:	e58de038 	str	lr, [sp, #56]	; 0x38

00009024 <l9099>:
    9024:	81cdc2bc 	strhhi	ip, [sp, #44]	; 0x2c

00009028 <l9100>:
    9028:	91700711 	cmnls	r0, r1, lsl r7

0000902c <l9101>:
    902c:	e02c5376 	eor	r5, ip, r6, ror r3

00009030 <l9102>:
    9030:	e3a0e01b 	mov	lr, #27

00009034 <l9103>:
    9034:	07dd900e 	ldrbeq	r9, [sp, lr]

00009038 <l9104>:
    9038:	e3a01020 	mov	r1, #32

0000903c <l9105>:
    903c:	d19d00b1 	ldrhle	r0, [sp, r1]

00009040 <l9106>:
    9040:	e9ade000 	stmib	sp!, {sp, lr, pc}

00009044 <l9107>:
    9044:	c378039f 	cmngt	r8, #2080374786	; 0x7c000002

00009048 <l9108>:
    9048:	b38e74ed 	orrlt	r7, lr, #-318767104	; 0xed000000

0000904c <l9109>:
    904c:	e3a0601a 	mov	r6, #26

00009050 <l9110>:
    9050:	e7dd4006 	ldrb	r4, [sp, r6]

00009054 <l9111>:
    9054:	0257964a 	subseq	r9, r7, #77594624	; 0x4a00000

00009058 <l9112>:
    9058:	e59f1000 	ldr	r1, [pc]	; 9060 <l9114>

0000905c <l9113>:
    905c:	ea000000 	b	9064 <l9115>

00009060 <l9114>:
    9060:	000fffc8 	.word	0x000fffc8

00009064 <l9115>:
    9064:	61019098 	swpvs	r9, r8, [r1]

00009068 <l9116>:
    9068:	e3a0a02c 	mov	sl, #44	; 0x2c

0000906c <l9117>:
    906c:	e7bd800a 	ldr	r8, [sp, sl]!

00009070 <l9118>:
    9070:	7a000008 	bvc	9098 <l9128>

00009074 <l9119>:
    9074:	21a03000 	movcs	r3, r0

00009078 <l9120>:
    9078:	71e0cec3 	mvnvc	ip, r3, asr #29

0000907c <l9121>:
    907c:	e08be003 	add	lr, fp, r3

00009080 <l9122>:
    9080:	d388491f 	orrle	r4, r8, #507904	; 0x7c000

00009084 <l9123>:
    9084:	11e00004 	mvnne	r0, r4

00009088 <l9124>:
    9088:	e2a7be25 	adc	fp, r7, #592	; 0x250

0000908c <l9125>:
    908c:	b19e8009 	orrslt	r8, lr, r9

00009090 <l9126>:
    9090:	e208b702 	and	fp, r8, #524288	; 0x80000

00009094 <l9127>:
    9094:	b1da22e5 	bicslt	r2, sl, r5, ror #5

00009098 <l9128>:
    9098:	e0a0600a 	adc	r6, r0, sl

0000909c <l9129>:
    909c:	e1180009 	tst	r8, r9

000090a0 <l9130>:
    90a0:	e1f0700b 	mvns	r7, fp

000090a4 <l9131>:
    90a4:	11310007 	teqne	r1, r7

000090a8 <l9132>:
    90a8:	e38a8209 	orr	r8, sl, #-1879048192	; 0x90000000

000090ac <l9133>:
    90ac:	e11b0007 	tst	fp, r7

000090b0 <l9134>:
    90b0:	639ce123 	orrsvs	lr, ip, #-1073741816	; 0xc0000008

000090b4 <l9135>:
    90b4:	00f8c61a 	rscseq	ip, r8, sl, lsl r6

000090b8 <l9136>:
    90b8:	a0707133 	rsbsge	r7, r0, r3, lsr r1

000090bc <l9137>:
    90bc:	e19360ec 	orrs	r6, r3, ip, ror #1

000090c0 <l9138>:
    90c0:	c05c5069 	subsgt	r5, ip, r9, rrx

000090c4 <l9139>:
    90c4:	e59f3000 	ldr	r3, [pc]	; 90cc <l9141>

000090c8 <l9140>:
    90c8:	ea000000 	b	90d0 <l9142>

000090cc <l9141>:
    90cc:	000fffd0 	.word	0x000fffd0

000090d0 <l9142>:
    90d0:	e143209e 	swpb	r2, lr, [r3]

000090d4 <l9143>:
    90d4:	e03b635e 	eors	r6, fp, lr, asr r3

000090d8 <l9144>:
    90d8:	30996901 	addscc	r6, r9, r1, lsl #18

000090dc <l9145>:
    90dc:	e3a0300b 	mov	r3, #11

000090e0 <l9146>:
    90e0:	e75d2003 	ldrb	r2, [sp, -r3]

000090e4 <l9147>:
    90e4:	c042a06a 	subgt	sl, r2, sl, rrx

000090e8 <l9148>:
    90e8:	e3a0a008 	mov	sl, #8

000090ec <l9149>:
    90ec:	e61da00a 	ldr	sl, [sp], -sl

000090f0 <l9150>:
    90f0:	e3a02006 	mov	r2, #6

000090f4 <l9151>:
    90f4:	574de002 	strbpl	lr, [sp, -r2]

000090f8 <l9152>:
    90f8:	e270a6e3 	rsbs	sl, r0, #238026752	; 0xe300000

000090fc <l9153>:
    90fc:	01e0c056 	mvneq	ip, r6, asr r0

00009100 <l9154>:
    9100:	e2e47807 	rsc	r7, r4, #458752	; 0x70000

00009104 <l9155>:
    9104:	b13c000f 	teqlt	ip, pc

00009108 <l9156>:
    9108:	61f0ce1b 	mvnsvs	ip, fp, lsl lr

0000910c <l9157>:
    910c:	ea000007 	b	9130 <l9166>

00009110 <l9158>:
    9110:	e2801063 	add	r1, r0, #99	; 0x63

00009114 <l9159>:
    9114:	e032e00a 	eors	lr, r2, sl

00009118 <l9160>:
    9118:	a0429067 	subge	r9, r2, r7, rrx

0000911c <l9161>:
    911c:	e0506066 	subs	r6, r0, r6, rrx

00009120 <l9162>:
    9120:	e17801a9 	cmn	r8, r9, lsr #3

00009124 <l9163>:
    9124:	71c7100c 	bicvc	r1, r7, ip

00009128 <l9164>:
    9128:	d034ef6c 	eorsle	lr, r4, ip, ror #30

0000912c <l9165>:
    912c:	ea000000 	b	9134 <l9167>

00009130 <l9166>:
    9130:	eafffff7 	b	9114 <l9159>

00009134 <l9167>:
    9134:	e82dddcb 	stmda	sp!, {r0, r1, r3, r6, r7, r8, sl, fp, ip, lr, pc}

00009138 <l9168>:
    9138:	e258e143 	subs	lr, r8, #-1073741808	; 0xc0000010

0000913c <l9169>:
    913c:	e01f0009 	ands	r0, pc, r9

00009140 <l9170>:
    9140:	e1d79a10 	bics	r9, r7, r0, lsl sl

00009144 <l9171>:
    9144:	e11b0682 	tst	fp, r2, lsl #13

00009148 <l9172>:
    9148:	e3a07010 	mov	r7, #16

0000914c <l9173>:
    914c:	e69d4007 	ldr	r4, [sp], r7

00009150 <l9174>:
    9150:	308288ac 	addcc	r8, r2, ip, lsr #17

00009154 <l9175>:
    9154:	717c000a 	cmnvc	ip, sl

00009158 <l9176>:
    9158:	e0cec06c 	sbc	ip, lr, ip, rrx

0000915c <l9177>:
    915c:	e3a09004 	mov	r9, #4

00009160 <l9178>:
    9160:	e7dd3009 	ldrb	r3, [sp, r9]

00009164 <l9179>:
    9164:	e3a07006 	mov	r7, #6

00009168 <l9180>:
    9168:	118db0b7 	strhne	fp, [sp, r7]

0000916c <l9181>:
    916c:	e1a0c00e 	mov	ip, lr

00009170 <l9182>:
    9170:	e0de6e0e 	sbcs	r6, lr, lr, lsl #28

00009174 <l9183>:
    9174:	e89d5c7c 	ldm	sp, {r2, r3, r4, r5, r6, sl, fp, ip, lr}

00009178 <l9184>:
    9178:	ba000007 	blt	919c <l9193>

0000917c <l9185>:
    917c:	e2801059 	add	r1, r0, #89	; 0x59

00009180 <l9186>:
    9180:	33d11433 	bicscc	r1, r1, #855638016	; 0x33000000

00009184 <l9187>:
    9184:	61b0bba3 	lsrsvs	fp, r3, #23

00009188 <l9188>:
    9188:	603a281a 	eorsvs	r2, sl, sl, lsl r8

0000918c <l9189>:
    918c:	41a01002 	movmi	r1, r2

00009190 <l9190>:
    9190:	a0c9e069 	sbcge	lr, r9, r9, rrx

00009194 <l9191>:
    9194:	81530066 	cmphi	r3, r6, rrx

00009198 <l9192>:
    9198:	ea000000 	b	91a0 <l9194>

0000919c <l9193>:
    919c:	eafffff7 	b	9180 <l9186>

000091a0 <l9194>:
    91a0:	e3a0e022 	mov	lr, #34	; 0x22

000091a4 <l9195>:
    91a4:	b19da0be 	ldrhlt	sl, [sp, lr]

000091a8 <l9196>:
    91a8:	b0576066 	subslt	r6, r7, r6, rrx

000091ac <l9197>:
    91ac:	e3a0102a 	mov	r1, #42	; 0x2a

000091b0 <l9198>:
    91b0:	e19d40b1 	ldrh	r4, [sp, r1]

000091b4 <l9199>:
    91b4:	e1120a2a 	tst	r2, sl, lsr #20

000091b8 <l9200>:
    91b8:	e3e00206 	mvn	r0, #1610612736	; 0x60000000

000091bc <l9201>:
    91bc:	e0c60753 	sbc	r0, r6, r3, asr r7

000091c0 <l9202>:
    91c0:	e0f78e6e 	rscs	r8, r7, lr, ror #28

000091c4 <l9203>:
    91c4:	a1c46551 	bicge	r6, r4, r1, asr r5

000091c8 <l9204>:
    91c8:	216f4f18 	clzcs	r4, r8

000091cc <l9205>:
    91cc:	916f9f10 	clzls	r9, r0

000091d0 <l9206>:
    91d0:	533f07ae 	teqpl	pc, #45613056	; 0x2b80000

000091d4 <l9207>:
    91d4:	e3a01004 	mov	r1, #4

000091d8 <l9208>:
    91d8:	e11d60b1 	ldrh	r6, [sp, -r1]

000091dc <l9209>:
    91dc:	e5ad600c 	str	r6, [sp, #12]!

000091e0 <l9210>:
    91e0:	b1130a57 	tstlt	r3, r7, asr sl

000091e4 <l9211>:
    91e4:	307ea002 	rsbscc	sl, lr, r2

000091e8 <l9212>:
    91e8:	e1d8300b 	bics	r3, r8, fp

000091ec <l9213>:
    91ec:	e8ad4500 	stmia	sp!, {r8, sl, lr}

000091f0 <l9214>:
    91f0:	e0bc6002 	adcs	r6, ip, r2

000091f4 <l9215>:
    91f4:	01180ee8 	tsteq	r8, r8, ror #29

000091f8 <l9216>:
    91f8:	455de01c 	ldrbmi	lr, [sp, #-28]

000091fc <l9217>:
    91fc:	705f900e 	subsvc	r9, pc, lr

00009200 <l9218>:
    9200:	a0258e75 	eorge	r8, r5, r5, ror lr

00009204 <l9219>:
    9204:	41350f61 	teqmi	r5, r1, ror #30

00009208 <l9220>:
    9208:	817507e9 	cmnhi	r5, r9, ror #15

0000920c <l9221>:
    920c:	e0fce068 	rscs	lr, ip, r8, rrx

00009210 <l9222>:
    9210:	e59f9000 	ldr	r9, [pc]	; 9218 <l9224>

00009214 <l9223>:
    9214:	ea000000 	b	921c <l9225>

00009218 <l9224>:
    9218:	000fffb0 	.word	0x000fffb0

0000921c <l9225>:
    921c:	3149509a 	swpbcc	r5, sl, [r9]

00009220 <l9226>:
    9220:	e172006f 	cmn	r2, pc, rrx

00009224 <l9227>:
    9224:	814db0b6 	strhhi	fp, [sp, #-6]

00009228 <l9228>:
    9228:	e0afaf07 	adc	sl, pc, r7, lsl #30

0000922c <l9229>:
    922c:	e3a0900a 	mov	r9, #10

00009230 <l9230>:
    9230:	719d40b9 	ldrhvc	r4, [sp, r9]

00009234 <l9231>:
    9234:	81da7a21 	bicshi	r7, sl, r1, lsr #20

00009238 <l9232>:
    9238:	e3a0202e 	mov	r2, #46	; 0x2e

0000923c <l9233>:
    923c:	574d2002 	strbpl	r2, [sp, -r2]

00009240 <l9234>:
    9240:	e3a0e024 	mov	lr, #36	; 0x24

00009244 <l9235>:
    9244:	e70d500e 	str	r5, [sp, -lr]

00009248 <l9236>:
    9248:	e3a0e00e 	mov	lr, #14

0000924c <l9237>:
    924c:	619da0be 	ldrhvs	sl, [sp, lr]

00009250 <l9238>:
    9250:	e59f7000 	ldr	r7, [pc]	; 9258 <l9240>

00009254 <l9239>:
    9254:	ea000000 	b	925c <l9241>

00009258 <l9240>:
    9258:	000fffe8 	.word	0x000fffe8

0000925c <l9241>:
    925c:	e1076096 	swp	r6, r6, [r7]

00009260 <l9242>:
    9260:	e59f3000 	ldr	r3, [pc]	; 9268 <l9244>

00009264 <l9243>:
    9264:	ea000000 	b	926c <l9245>

00009268 <l9244>:
    9268:	000fffcc 	.word	0x000fffcc

0000926c <l9245>:
    926c:	61031090 	swpvs	r1, r0, [r3]

00009270 <l9246>:
    9270:	e15d72df 	ldrsb	r7, [sp, #-47]	; 0xffffffd1

00009274 <l9247>:
    9274:	e3a0e004 	mov	lr, #4

00009278 <l9248>:
    9278:	119d50fe 	ldrshne	r5, [sp, lr]

0000927c <l9249>:
    927c:	e37f0d0b 	cmn	pc, #704	; 0x2c0

00009280 <l9250>:
    9280:	e11801eb 	tst	r8, fp, ror #3

00009284 <l9251>:
    9284:	40bf1dee 	adcsmi	r1, pc, lr, ror #27

00009288 <l9252>:
    9288:	a15db0d3 	ldrsbge	fp, [sp, #-3]

0000928c <l9253>:
    928c:	1011b06f 	andsne	fp, r1, pc, rrx

00009290 <l9254>:
    9290:	eaffffff 	b	9294 <l9255>

00009294 <l9255>:
    9294:	231200e9 	tstcs	r2, #233	; 0xe9

00009298 <l9256>:
    9298:	e0c68006 	sbc	r8, r6, r6

0000929c <l9257>:
    929c:	a0517008 	subsge	r7, r1, r8

000092a0 <l9258>:
    92a0:	c171000a 	cmngt	r1, sl

000092a4 <l9259>:
    92a4:	00eeb42e 	rsceq	fp, lr, lr, lsr #8

000092a8 <l9260>:
    92a8:	81b0300c 	movshi	r3, ip

000092ac <l9261>:
    92ac:	e3a02026 	mov	r2, #38	; 0x26

000092b0 <l9262>:
    92b0:	d11d40f2 	ldrshle	r4, [sp, -r2]

000092b4 <l9263>:
    92b4:	e59fa000 	ldr	sl, [pc]	; 92bc <l9265>

000092b8 <l9264>:
    92b8:	ea000000 	b	92c0 <l9266>

000092bc <l9265>:
    92bc:	000fffa4 	.word	0x000fffa4

000092c0 <l9266>:
    92c0:	d10ac09b 	swple	ip, fp, [sl]

000092c4 <l9267>:
    92c4:	e16f3f14 	clz	r3, r4

000092c8 <l9268>:
    92c8:	e1340257 	teq	r4, r7, asr r2

000092cc <l9269>:
    92cc:	e1dc700c 	bics	r7, ip, ip

000092d0 <l9270>:
    92d0:	207cb007 	rsbscs	fp, ip, r7

000092d4 <l9271>:
    92d4:	7a000004 	bvc	92ec <l9277>

000092d8 <l9272>:
    92d8:	e280102a 	add	r1, r0, #42	; 0x2a

000092dc <l9273>:
    92dc:	b1f07782 	mvnslt	r7, r2, lsl #15

000092e0 <l9274>:
    92e0:	00f7106c 	rscseq	r1, r7, ip, rrx

000092e4 <l9275>:
    92e4:	e3e09147 	mvn	r9, #-1073741807	; 0xc0000011

000092e8 <l9276>:
    92e8:	ea000000 	b	92f0 <l9278>

000092ec <l9277>:
    92ec:	eafffffa 	b	92dc <l9273>

000092f0 <l9278>:
    92f0:	e3a08010 	mov	r8, #16

000092f4 <l9279>:
    92f4:	374d7008 	strbcc	r7, [sp, -r8]

000092f8 <l9280>:
    92f8:	e15d11bc 	ldrh	r1, [sp, #-28]	; 0xffffffe4

000092fc <l9281>:
    92fc:	61f0b00b 	mvnsvs	fp, fp

00009300 <l9282>:
    9300:	a1d7a58f 	bicsge	sl, r7, pc, lsl #11

00009304 <l9283>:
    9304:	e3a0b02a 	mov	fp, #42	; 0x2a

00009308 <l9284>:
    9308:	410da0bb 	strhmi	sl, [sp, -fp]

0000930c <l9285>:
    930c:	1196200a 	orrsne	r2, r6, sl

00009310 <l9286>:
    9310:	0a000004 	beq	9328 <l9292>

00009314 <l9287>:
    9314:	d0541002 	subsle	r1, r4, r2

00009318 <l9288>:
    9318:	e16f3f15 	clz	r3, r5

0000931c <l9289>:
    931c:	a0e7375b 	rscge	r3, r7, fp, asr r7

00009320 <l9290>:
    9320:	e11f0aeb 	tst	pc, fp, ror #21

00009324 <l9291>:
    9324:	d113061e 	tstle	r3, lr, lsl r6

00009328 <l9292>:
    9328:	e17b0062 	cmn	fp, r2, rrx

0000932c <l9293>:
    932c:	e55d602d 	ldrb	r6, [sp, #-45]	; 0x2d

00009330 <l9294>:
    9330:	91140006 	tstls	r4, r6

00009334 <l9295>:
    9334:	403a1001 	eorsmi	r1, sl, r1

00009338 <l9296>:
    9338:	ea000007 	b	935c <l9305>

0000933c <l9297>:
    933c:	80c36009 	sbchi	r6, r3, r9

00009340 <l9298>:
    9340:	e1360255 	teq	r6, r5, asr r2

00009344 <l9299>:
    9344:	51140555 	tstpl	r4, r5, asr r5

00009348 <l9300>:
    9348:	20ee7851 	rsccs	r7, lr, r1, asr r8

0000934c <l9301>:
    934c:	61ce9618 	bicvs	r9, lr, r8, lsl r6

00009350 <l9302>:
    9350:	e06b9754 	rsb	r9, fp, r4, asr r7

00009354 <l9303>:
    9354:	e1c97a5b 	bic	r7, r9, fp, asr sl

00009358 <l9304>:
    9358:	22c357ee 	sbccs	r5, r3, #62390272	; 0x3b80000

0000935c <l9305>:
    935c:	e1a0906a 	rrx	r9, sl

00009360 <l9306>:
    9360:	e59fe000 	ldr	lr, [pc]	; 9368 <l9308>

00009364 <l9307>:
    9364:	ea000000 	b	936c <l9309>

00009368 <l9308>:
    9368:	000fffd4 	.word	0x000fffd4

0000936c <l9309>:
    936c:	514ec096 	swpbpl	ip, r6, [lr]

00009370 <l9310>:
    9370:	d1150009 	tstle	r5, r9

00009374 <l9311>:
    9374:	9071c173 	rsbsls	ip, r1, r3, ror r1

00009378 <l9312>:
    9378:	71b03064 	rrxsvc	r3, r4

0000937c <l9313>:
    937c:	e16f7f15 	clz	r7, r5

00009380 <l9314>:
    9380:	033e054f 	teqeq	lr, #331350016	; 0x13c00000

00009384 <l9315>:
    9384:	ea000004 	b	939c <l9321>

00009388 <l9316>:
    9388:	e2024ade 	and	r4, r2, #909312	; 0xde000

0000938c <l9317>:
    938c:	706b928a 	rsbvc	r9, fp, sl, lsl #5

00009390 <l9318>:
    9390:	e00ea00c 	and	sl, lr, ip

00009394 <l9319>:
    9394:	209f7e8c 	addscs	r7, pc, ip, lsl #29

00009398 <l9320>:
    9398:	01f0ba75 	mvnseq	fp, r5, ror sl

0000939c <l9321>:
    939c:	51b04b08 	lslspl	r4, r8, #22

000093a0 <l9322>:
    93a0:	016f0f17 	clzeq	r0, r7

000093a4 <l9323>:
    93a4:	e13b06c5 	teq	fp, r5, asr #13

000093a8 <l9324>:
    93a8:	40a9167a 	adcmi	r1, r9, sl, ror r6

000093ac <l9325>:
    93ac:	e13b03a0 	teq	fp, r0, lsr #7

000093b0 <l9326>:
    93b0:	e3a0b01c 	mov	fp, #28

000093b4 <l9327>:
    93b4:	e74d900b 	strb	r9, [sp, -fp]

000093b8 <l9328>:
    93b8:	e59f0000 	ldr	r0, [pc]	; 93c0 <l9330>

000093bc <l9329>:
    93bc:	ea000000 	b	93c4 <l9331>

000093c0 <l9330>:
    93c0:	000fffdc 	.word	0x000fffdc

000093c4 <l9331>:
    93c4:	e100409b 	swp	r4, fp, [r0]

000093c8 <l9332>:
    93c8:	e8ad0200 	stmia	sp!, {r9}

000093cc <l9333>:
    93cc:	ea000002 	b	93dc <l9337>

000093d0 <l9334>:
    93d0:	e28010c6 	add	r1, r0, #198	; 0xc6

000093d4 <l9335>:
    93d4:	e27c75b3 	rsbs	r7, ip, #750780416	; 0x2cc00000

000093d8 <l9336>:
    93d8:	ea000000 	b	93e0 <l9338>

000093dc <l9337>:
    93dc:	eafffffc 	b	93d4 <l9335>

000093e0 <l9338>:
    93e0:	e3a0101a 	mov	r1, #26

000093e4 <l9339>:
    93e4:	410d90b1 	strhmi	r9, [sp, -r1]

000093e8 <l9340>:
    93e8:	ca000005 	bgt	9404 <l9347>

000093ec <l9341>:
    93ec:	e0d86935 	sbcs	r6, r8, r5, lsr r9

000093f0 <l9342>:
    93f0:	b033900f 	eorslt	r9, r3, pc

000093f4 <l9343>:
    93f4:	e2422206 	sub	r2, r2, #1610612736	; 0x60000000

000093f8 <l9344>:
    93f8:	1051a006 	subsne	sl, r1, r6

000093fc <l9345>:
    93fc:	e025c006 	eor	ip, r5, r6

00009400 <l9346>:
    9400:	b05a2004 	subslt	r2, sl, r4

00009404 <l9347>:
    9404:	e1e0400e 	mvn	r4, lr

00009408 <l9348>:
    9408:	914d81b8 	strhls	r8, [sp, #-24]	; 0xffffffe8

0000940c <l9349>:
    940c:	b55d6015 	ldrblt	r6, [sp, #-21]

00009410 <l9350>:
    9410:	550db030 	strpl	fp, [sp, #-48]	; 0x30

00009414 <l9351>:
    9414:	e59fc000 	ldr	ip, [pc]	; 941c <l9353>

00009418 <l9352>:
    9418:	ea000000 	b	9420 <l9354>

0000941c <l9353>:
    941c:	000fffc0 	.word	0x000fffc0

00009420 <l9354>:
    9420:	e14c709e 	swpb	r7, lr, [ip]

00009424 <l9355>:
    9424:	0184b67b 	orreq	fp, r4, fp, ror r6

00009428 <l9356>:
    9428:	e04734aa 	sub	r3, r7, sl, lsr #9

0000942c <l9357>:
    942c:	e16f2f14 	clz	r2, r4

00009430 <l9358>:
    9430:	e0077278 	and	r7, r7, r8, ror r2

00009434 <l9359>:
    9434:	e5dd4013 	ldrb	r4, [sp, #19]

00009438 <l9360>:
    9438:	e3e06010 	mvn	r6, #16

0000943c <l9361>:
    943c:	e3a0b003 	mov	fp, #3

00009440 <l9362>:
    9440:	b11dc0db 	ldrsblt	ip, [sp, -fp]

00009444 <l9363>:
    9444:	e0674065 	rsb	r4, r7, r5, rrx

00009448 <l9364>:
    9448:	20812bee 	addcs	r2, r1, lr, ror #23

0000944c <l9365>:
    944c:	e0514060 	subs	r4, r1, r0, rrx

00009450 <l9366>:
    9450:	65cd900f 	strbvs	r9, [sp, #15]

00009454 <l9367>:
    9454:	e59f2000 	ldr	r2, [pc]	; 945c <l9369>

00009458 <l9368>:
    9458:	ea000000 	b	9460 <l9370>

0000945c <l9369>:
    945c:	000fffb0 	.word	0x000fffb0

00009460 <l9370>:
    9460:	41429097 	swpbmi	r9, r7, [r2]

00009464 <l9371>:
    9464:	c5cd2012 	strbgt	r2, [sp, #18]

00009468 <l9372>:
    9468:	e59f9000 	ldr	r9, [pc]	; 9470 <l9374>

0000946c <l9373>:
    946c:	ea000000 	b	9474 <l9375>

00009470 <l9374>:
    9470:	000fffd4 	.word	0x000fffd4

00009474 <l9375>:
    9474:	e1491091 	swpb	r1, r1, [r9]

00009478 <l9376>:
    9478:	720ec993 	andvc	ip, lr, #2408448	; 0x24c000

0000947c <l9377>:
    947c:	e5cda007 	strb	sl, [sp, #7]

00009480 <l9378>:
    9480:	015d93b2 	ldrheq	r9, [sp, #-50]	; 0xffffffce

00009484 <l9379>:
    9484:	e3a0a02e 	mov	sl, #46	; 0x2e

00009488 <l9380>:
    9488:	274db00a 	strbcs	fp, [sp, -sl]

0000948c <l9381>:
    948c:	316f0f1b 	clzcc	r0, fp

00009490 <l9382>:
    9490:	e37b01cf 	cmn	fp, #-1073741773	; 0xc0000033

00009494 <l9383>:
    9494:	839be70a 	orrshi	lr, fp, #2621440	; 0x280000

00009498 <l9384>:
    9498:	e047a9eb 	sub	sl, r7, fp, ror #19

0000949c <l9385>:
    949c:	91f02006 	mvnsls	r2, r6

000094a0 <l9386>:
    94a0:	e41d8004 	ldr	r8, [sp], #-4

000094a4 <l9387>:
    94a4:	c2327191 	eorsgt	r7, r2, #1073741860	; 0x40000024

000094a8 <l9388>:
    94a8:	525ce931 	subspl	lr, ip, #802816	; 0xc4000

000094ac <l9389>:
    94ac:	e0f24ae9 	rscs	r4, r2, r9, ror #21

000094b0 <l9390>:
    94b0:	03922bd2 	orrseq	r2, r2, #215040	; 0x34800

000094b4 <l9391>:
    94b4:	504f36e0 	subpl	r3, pc, r0, ror #13

000094b8 <l9392>:
    94b8:	e1a00000 	nop			; (mov r0, r0)

000094bc <l9393>:
    94bc:	9042821e 	subls	r8, r2, lr, lsl r2

000094c0 <l9394>:
    94c0:	a135000b 	teqge	r5, fp

000094c4 <l9395>:
    94c4:	515d13b2 	ldrhpl	r1, [sp, #-50]	; 0xffffffce

000094c8 <l9396>:
    94c8:	e3a01008 	mov	r1, #8

000094cc <l9397>:
    94cc:	111da0b1 	ldrhne	sl, [sp, -r1]

000094d0 <l9398>:
    94d0:	72bb05ad 	adcsvc	r0, fp, #725614592	; 0x2b400000

000094d4 <l9399>:
    94d4:	80ecb953 	rschi	fp, ip, r3, asr r9

000094d8 <l9400>:
    94d8:	e16f7f1b 	clz	r7, fp

000094dc <l9401>:
    94dc:	e0b54cec 	adcs	r4, r5, ip, ror #25

000094e0 <l9402>:
    94e0:	01120008 	tsteq	r2, r8

000094e4 <l9403>:
    94e4:	e39f0b9a 	orrs	r0, pc, #157696	; 0x26800

000094e8 <l9404>:
    94e8:	e3530084 	cmp	r3, #132	; 0x84

000094ec <l9405>:
    94ec:	e2856a7b 	add	r6, r5, #503808	; 0x7b000

000094f0 <l9406>:
    94f0:	e3f0127e 	mvns	r1, #-536870905	; 0xe0000007

000094f4 <l9407>:
    94f4:	e52da004 	push	{sl}		; (str sl, [sp, #-4]!)

000094f8 <l9408>:
    94f8:	51f02066 	mvnspl	r2, r6, rrx

000094fc <l9409>:
    94fc:	e8ad0007 	stmia	sp!, {r0, r1, r2}

00009500 <l9410>:
    9500:	7131051b 	teqvc	r1, fp, lsl r5

00009504 <l9411>:
    9504:	50f0e661 	rscspl	lr, r0, r1, ror #12

00009508 <l9412>:
    9508:	a1750717 	cmnge	r5, r7, lsl r7

0000950c <l9413>:
    950c:	437e000a 	cmnmi	lr, #10

00009510 <l9414>:
    9510:	416f4f13 	clzmi	r4, r3

00009514 <l9415>:
    9514:	9a000007 	bls	9538 <l9424>

00009518 <l9416>:
    9518:	e2801006 	add	r1, r0, #6

0000951c <l9417>:
    951c:	d1a0700e 	movle	r7, lr

00009520 <l9418>:
    9520:	5066811b 	rsbpl	r8, r6, fp, lsl r1

00009524 <l9419>:
    9524:	e083e916 	add	lr, r3, r6, lsl r9

00009528 <l9420>:
    9528:	e2d7c6e7 	sbcs	ip, r7, #242221056	; 0xe700000

0000952c <l9421>:
    952c:	31100007 	tstcc	r0, r7

00009530 <l9422>:
    9530:	900eca3b 	andls	ip, lr, fp, lsr sl

00009534 <l9423>:
    9534:	ea000000 	b	953c <l9425>

00009538 <l9424>:
    9538:	eafffff7 	b	951c <l9417>

0000953c <l9425>:
    953c:	0207a53e 	andeq	sl, r7, #260046848	; 0xf800000

00009540 <l9426>:
    9540:	e2d11459 	sbcs	r1, r1, #1493172224	; 0x59000000

00009544 <l9427>:
    9544:	e3a0100a 	mov	r1, #10

00009548 <l9428>:
    9548:	474dc001 	strbmi	ip, [sp, -r1]

0000954c <l9429>:
    954c:	e16fcf16 	clz	ip, r6

00009550 <l9430>:
    9550:	e5ad2008 	str	r2, [sp, #8]!

00009554 <l9431>:
    9554:	b0744177 	rsbslt	r4, r4, r7, ror r1

00009558 <l9432>:
    9558:	a0c1abef 	sbcge	sl, r1, pc, ror #23

0000955c <l9433>:
    955c:	e24504ab 	sub	r0, r5, #-1426063360	; 0xab000000

00009560 <l9434>:
    9560:	e0d8295a 	sbcs	r2, r8, sl, asr r9

00009564 <l9435>:
    9564:	0209ec3b 	andeq	lr, r9, #15104	; 0x3b00

00009568 <l9436>:
    9568:	e3a0b037 	mov	fp, #55	; 0x37

0000956c <l9437>:
    956c:	e11d90db 	ldrsb	r9, [sp, -fp]

00009570 <l9438>:
    9570:	7a000000 	bvc	9578 <l9440>

00009574 <l9439>:
    9574:	e0aaca11 	adc	ip, sl, r1, lsl sl

00009578 <l9440>:
    9578:	818e5067 	orrhi	r5, lr, r7, rrx

0000957c <l9441>:
    957c:	e2da5be6 	sbcs	r5, sl, #235520	; 0x39800

00009580 <l9442>:
    9580:	e1560b58 	cmp	r6, r8, asr fp

00009584 <l9443>:
    9584:	e07865c7 	rsbs	r6, r8, r7, asr #11

00009588 <l9444>:
    9588:	e254530e 	subs	r5, r4, #939524096	; 0x38000000

0000958c <l9445>:
    958c:	ea000005 	b	95a8 <l9452>

00009590 <l9446>:
    9590:	e0811340 	add	r1, r1, r0, asr #6

00009594 <l9447>:
    9594:	e0292e1e 	eor	r2, r9, lr, lsl lr

00009598 <l9448>:
    9598:	61f02002 	mvnsvs	r2, r2

0000959c <l9449>:
    959c:	62419cfe 	subvs	r9, r1, #65024	; 0xfe00

000095a0 <l9450>:
    95a0:	e0d49000 	sbcs	r9, r4, r0

000095a4 <l9451>:
    95a4:	53a0742e 	movpl	r7, #771751936	; 0x2e000000

000095a8 <l9452>:
    95a8:	e0533515 	subs	r3, r3, r5, lsl r5

000095ac <l9453>:
    95ac:	e59f2000 	ldr	r2, [pc]	; 95b4 <l9455>

000095b0 <l9454>:
    95b0:	ea000000 	b	95b8 <l9456>

000095b4 <l9455>:
    95b4:	000fffac 	.word	0x000fffac

000095b8 <l9456>:
    95b8:	d102c099 	swple	ip, r9, [r2]

000095bc <l9457>:
    95bc:	514d62ba 	strhpl	r6, [sp, #-42]	; 0xffffffd6

000095c0 <l9458>:
    95c0:	ea000006 	b	95e0 <l9466>

000095c4 <l9459>:
    95c4:	e28010d6 	add	r1, r0, #214	; 0xd6

000095c8 <l9460>:
    95c8:	70c1a857 	sbcvc	sl, r1, r7, asr r8

000095cc <l9461>:
    95cc:	20b9ba12 	adcscs	fp, r9, r2, lsl sl

000095d0 <l9462>:
    95d0:	51b00741 	asrspl	r0, r1, #14

000095d4 <l9463>:
    95d4:	e3a0449f 	mov	r4, #-1627389952	; 0x9f000000

000095d8 <l9464>:
    95d8:	81e0c005 	mvnhi	ip, r5

000095dc <l9465>:
    95dc:	ea000000 	b	95e4 <l9467>

000095e0 <l9466>:
    95e0:	eafffff8 	b	95c8 <l9460>

000095e4 <l9467>:
    95e4:	e3a0c02e 	mov	ip, #46	; 0x2e

000095e8 <l9468>:
    95e8:	e10d80bc 	strh	r8, [sp, -ip]

000095ec <l9469>:
    95ec:	e21e14f6 	ands	r1, lr, #-167772160	; 0xf6000000

000095f0 <l9470>:
    95f0:	4037500c 	eorsmi	r5, r7, ip

000095f4 <l9471>:
    95f4:	1271b17a 	rsbsne	fp, r1, #-2147483618	; 0x8000001e

000095f8 <l9472>:
    95f8:	929a6209 	addsls	r6, sl, #-1879048192	; 0x90000000

000095fc <l9473>:
    95fc:	b2475c02 	sublt	r5, r7, #512	; 0x200

00009600 <l9474>:
    9600:	e1170007 	tst	r7, r7

00009604 <l9475>:
    9604:	e1a00000 	nop			; (mov r0, r0)

00009608 <l9476>:
    9608:	e59f1000 	ldr	r1, [pc]	; 9610 <l9478>

0000960c <l9477>:
    960c:	ea000000 	b	9614 <l9479>

00009610 <l9478>:
    9610:	000fffc0 	.word	0x000fffc0

00009614 <l9479>:
    9614:	21010096 	swpcs	r0, r6, [r1]

00009618 <l9480>:
    9618:	a1a08007 	movge	r8, r7

0000961c <l9481>:
    961c:	e3a07030 	mov	r7, #48	; 0x30

00009620 <l9482>:
    9620:	e72d4007 	str	r4, [sp, -r7]!

00009624 <l9483>:
    9624:	e1a00000 	nop			; (mov r0, r0)

00009628 <l9484>:
    9628:	e3a0502d 	mov	r5, #45	; 0x2d

0000962c <l9485>:
    962c:	77cd1005 	strbvc	r1, [sp, r5]

00009630 <l9486>:
    9630:	90f17003 	rscsls	r7, r1, r3

00009634 <l9487>:
    9634:	e59f6000 	ldr	r6, [pc]	; 963c <l9489>

00009638 <l9488>:
    9638:	ea000000 	b	9640 <l9490>

0000963c <l9489>:
    963c:	000fffd4 	.word	0x000fffd4

00009640 <l9490>:
    9640:	a146a091 	swpbge	sl, r1, [r6]

00009644 <l9491>:
    9644:	e1f0a005 	mvns	sl, r5

00009648 <l9492>:
    9648:	2a000005 	bcs	9664 <l9499>

0000964c <l9493>:
    964c:	e2801031 	add	r1, r0, #49	; 0x31

00009650 <l9494>:
    9650:	719c4c42 	orrsvc	r4, ip, r2, asr #24

00009654 <l9495>:
    9654:	c113000f 	tstgt	r3, pc

00009658 <l9496>:
    9658:	e0d80000 	sbcs	r0, r8, r0

0000965c <l9497>:
    965c:	e043a00b 	sub	sl, r3, fp

00009660 <l9498>:
    9660:	ea000000 	b	9668 <l9500>

00009664 <l9499>:
    9664:	eafffff9 	b	9650 <l9494>

00009668 <l9500>:
    9668:	30b07006 	adcscc	r7, r0, r6

0000966c <l9501>:
    966c:	e3a02018 	mov	r2, #24

00009670 <l9502>:
    9670:	e19d70f2 	ldrsh	r7, [sp, r2]

00009674 <l9503>:
    9674:	e3a04024 	mov	r4, #36	; 0x24

00009678 <l9504>:
    9678:	e19db0b4 	ldrh	fp, [sp, r4]

0000967c <l9505>:
    967c:	e13b0066 	teq	fp, r6, rrx

00009680 <l9506>:
    9680:	71cc700b 	bicvc	r7, ip, fp

00009684 <l9507>:
    9684:	e3a0902f 	mov	r9, #47	; 0x2f

00009688 <l9508>:
    9688:	47cd1009 	strbmi	r1, [sp, r9]

0000968c <l9509>:
    968c:	e1390061 	teq	r9, r1, rrx

00009690 <l9510>:
    9690:	ca000001 	bgt	969c <l9513>

00009694 <l9511>:
    9694:	70f5e15a 	rscsvc	lr, r5, sl, asr r1

00009698 <l9512>:
    9698:	b16fef18 	clzlt	lr, r8

0000969c <l9513>:
    969c:	c1790143 	cmngt	r9, r3, asr #2

000096a0 <l9514>:
    96a0:	d02eaf82 	eorle	sl, lr, r2, lsl #31

000096a4 <l9515>:
    96a4:	e0570367 	subs	r0, r7, r7, ror #6

000096a8 <l9516>:
    96a8:	e59fe000 	ldr	lr, [pc]	; 96b0 <l9518>

000096ac <l9517>:
    96ac:	ea000000 	b	96b4 <l9519>

000096b0 <l9518>:
    96b0:	000fffc4 	.word	0x000fffc4

000096b4 <l9519>:
    96b4:	e14e1092 	swpb	r1, r2, [lr]

000096b8 <l9520>:
    96b8:	e001b533 	and	fp, r1, r3, lsr r5

000096bc <l9521>:
    96bc:	505f53e9 	subspl	r5, pc, r9, ror #7

000096c0 <l9522>:
    96c0:	e045200e 	sub	r2, r5, lr

000096c4 <l9523>:
    96c4:	35cd7032 	strbcc	r7, [sp, #50]	; 0x32

000096c8 <l9524>:
    96c8:	ba000002 	blt	96d8 <l9528>

000096cc <l9525>:
    96cc:	e0f8b00b 	rscs	fp, r8, fp

000096d0 <l9526>:
    96d0:	90c85068 	sbcls	r5, r8, r8, rrx

000096d4 <l9527>:
    96d4:	81160009 	tsthi	r6, r9

000096d8 <l9528>:
    96d8:	32a56111 	adccc	r6, r5, #1073741828	; 0x40000004

000096dc <l9529>:
    96dc:	41d67004 	bicsmi	r7, r6, r4

000096e0 <l9530>:
    96e0:	5002ab19 	andpl	sl, r2, r9, lsl fp

000096e4 <l9531>:
    96e4:	1056200a 	subsne	r2, r6, sl

000096e8 <l9532>:
    96e8:	e5cd102b 	strb	r1, [sp, #43]	; 0x2b

000096ec <l9533>:
    96ec:	e055b060 	subs	fp, r5, r0, rrx

000096f0 <l9534>:
    96f0:	e3a0600e 	mov	r6, #14

000096f4 <l9535>:
    96f4:	e10d10b6 	strh	r1, [sp, -r6]

000096f8 <l9536>:
    96f8:	e59fb000 	ldr	fp, [pc]	; 9700 <l9538>

000096fc <l9537>:
    96fc:	ea000000 	b	9704 <l9539>

00009700 <l9538>:
    9700:	000fffa8 	.word	0x000fffa8

00009704 <l9539>:
    9704:	c10b6099 	swpgt	r6, r9, [fp]

00009708 <l9540>:
    9708:	e59f6000 	ldr	r6, [pc]	; 9710 <l9542>

0000970c <l9541>:
    970c:	ea000000 	b	9714 <l9543>

00009710 <l9542>:
    9710:	000fffe0 	.word	0x000fffe0

00009714 <l9543>:
    9714:	7146a093 	swpbvc	sl, r3, [r6]

00009718 <l9544>:
    9718:	e2e3a1bd 	rsc	sl, r3, #1073741871	; 0x4000002f

0000971c <l9545>:
    971c:	8158083a 	cmphi	r8, sl, lsr r8

00009720 <l9546>:
    9720:	a13f0001 	teqge	pc, r1

00009724 <l9547>:
    9724:	e93d0910 	ldmdb	sp!, {r4, r8, fp}

00009728 <l9548>:
    9728:	a0658066 	rsbge	r8, r5, r6, rrx

0000972c <l9549>:
    972c:	e0ca6346 	sbc	r6, sl, r6, asr #6

00009730 <l9550>:
    9730:	833b0812 	teqhi	fp, #1179648	; 0x120000

00009734 <l9551>:
    9734:	217406e3 	cmncs	r4, r3, ror #13

00009738 <l9552>:
    9738:	e1dd92ba 	ldrh	r9, [sp, #42]	; 0x2a

0000973c <l9553>:
    973c:	5a000008 	bpl	9764 <l9563>

00009740 <l9554>:
    9740:	d085a006 	addle	sl, r5, r6

00009744 <l9555>:
    9744:	91e02002 	mvnls	r2, r2

00009748 <l9556>:
    9748:	e1907914 	orrs	r7, r0, r4, lsl r9

0000974c <l9557>:
    974c:	d17b000a 	cmnle	fp, sl

00009750 <l9558>:
    9750:	11a0745e 	asrne	r7, lr, r4

00009754 <l9559>:
    9754:	42472775 	submi	r2, r7, #30670848	; 0x1d40000

00009758 <l9560>:
    9758:	208a20a8 	addcs	r2, sl, r8, lsr #1

0000975c <l9561>:
    975c:	02d35673 	sbcseq	r5, r3, #120586240	; 0x7300000

00009760 <l9562>:
    9760:	11dbc1ab 	bicsne	ip, fp, fp, lsr #3

00009764 <l9563>:
    9764:	d1f0e135 	mvnsle	lr, r5, lsr r1

00009768 <l9564>:
    9768:	e1360a88 	teq	r6, r8, lsl #21

0000976c <l9565>:
    976c:	ea000004 	b	9784 <l9571>

00009770 <l9566>:
    9770:	e2801026 	add	r1, r0, #38	; 0x26

00009774 <l9567>:
    9774:	50455050 	subpl	r5, r5, r0, asr r0

00009778 <l9568>:
    9778:	42521d2b 	subsmi	r1, r2, #2752	; 0xac0

0000977c <l9569>:
    977c:	e16f9f12 	clz	r9, r2

00009780 <l9570>:
    9780:	ea000000 	b	9788 <l9572>

00009784 <l9571>:
    9784:	eafffffa 	b	9774 <l9567>

00009788 <l9572>:
    9788:	e59f3000 	ldr	r3, [pc]	; 9790 <l9574>

0000978c <l9573>:
    978c:	ea000000 	b	9794 <l9575>

00009790 <l9574>:
    9790:	000fffa0 	.word	0x000fffa0

00009794 <l9575>:
    9794:	41035092 	swpmi	r5, r2, [r3]

00009798 <l9576>:
    9798:	10f3707e 	rscsne	r7, r3, lr, ror r0

0000979c <l9577>:
    979c:	835a051f 	cmphi	sl, #130023424	; 0x7c00000

000097a0 <l9578>:
    97a0:	e8ade000 	stmia	sp!, {sp, lr, pc}

000097a4 <l9579>:
    97a4:	6a000004 	bvs	97bc <l9585>

000097a8 <l9580>:
    97a8:	e15f0948 	cmp	pc, r8, asr #18

000097ac <l9581>:
    97ac:	4092806f 	addsmi	r8, r2, pc, rrx

000097b0 <l9582>:
    97b0:	40975068 	addsmi	r5, r7, r8, rrx

000097b4 <l9583>:
    97b4:	816f5f18 	clzhi	r5, r8

000097b8 <l9584>:
    97b8:	a13b0617 	teqge	fp, r7, lsl r6

000097bc <l9585>:
    97bc:	602f3d06 	eorvs	r3, pc, r6, lsl #26

000097c0 <l9586>:
    97c0:	e5bd1028 	ldr	r1, [sp, #40]!	; 0x28

000097c4 <l9587>:
    97c4:	6a000007 	bvs	97e8 <l9596>

000097c8 <l9588>:
    97c8:	500b5e17 	andpl	r5, fp, r7, lsl lr

000097cc <l9589>:
    97cc:	70b9695c 	adcsvc	r6, r9, ip, asr r9

000097d0 <l9590>:
    97d0:	e04985ae 	sub	r8, r9, lr, lsr #11

000097d4 <l9591>:
    97d4:	e1110872 	tst	r1, r2, ror r8

000097d8 <l9592>:
    97d8:	c05ac00f 	subsgt	ip, sl, pc

000097dc <l9593>:
    97dc:	1078300e 	rsbsne	r3, r8, lr

000097e0 <l9594>:
    97e0:	11831ae0 	orrne	r1, r3, r0, ror #21

000097e4 <l9595>:
    97e4:	00577458 	subseq	r7, r7, r8, asr r4

000097e8 <l9596>:
    97e8:	e1b08a5e 	asrs	r8, lr, sl

000097ec <l9597>:
    97ec:	e04aa00e 	sub	sl, sl, lr

000097f0 <l9598>:
    97f0:	e2739dad 	rsbs	r9, r3, #11072	; 0x2b40

000097f4 <l9599>:
    97f4:	1a000007 	bne	9818 <l9608>

000097f8 <l9600>:
    97f8:	e28010d1 	add	r1, r0, #209	; 0xd1

000097fc <l9601>:
    97fc:	31720922 	cmncc	r2, r2, lsr #18

00009800 <l9602>:
    9800:	e1d96008 	bics	r6, r9, r8

00009804 <l9603>:
    9804:	d1e09bc2 	mvnle	r9, r2, asr #23

00009808 <l9604>:
    9808:	705261c2 	subsvc	r6, r2, r2, asr #3

0000980c <l9605>:
    980c:	e35b0931 	cmp	fp, #802816	; 0xc4000

00009810 <l9606>:
    9810:	c16f3f16 	clzgt	r3, r6

00009814 <l9607>:
    9814:	ea000000 	b	981c <l9609>

00009818 <l9608>:
    9818:	eafffff7 	b	97fc <l9601>

0000981c <l9609>:
    981c:	90c92d6e 	sbcls	r2, r9, lr, ror #26

00009820 <l9610>:
    9820:	e3a0b008 	mov	fp, #8

00009824 <l9611>:
    9824:	c19d50bb 	ldrhgt	r5, [sp, fp]

00009828 <l9612>:
    9828:	e1a0027c 	ror	r0, ip, r2

0000982c <l9613>:
    982c:	e59fa000 	ldr	sl, [pc]	; 9834 <l9615>

00009830 <l9614>:
    9830:	ea000000 	b	9838 <l9616>

00009834 <l9615>:
    9834:	000fffe4 	.word	0x000fffe4

00009838 <l9616>:
    9838:	e10a6097 	swp	r6, r7, [sl]

0000983c <l9617>:
    983c:	80252a40 	eorhi	r2, r5, r0, asr #20

00009840 <l9618>:
    9840:	c1f0c0c4 	mvnsgt	ip, r4, asr #1

00009844 <l9619>:
    9844:	ba000006 	blt	9864 <l9627>

00009848 <l9620>:
    9848:	e280100c 	add	r1, r0, #12

0000984c <l9621>:
    984c:	93780e5d 	cmnls	r8, #1488	; 0x5d0

00009850 <l9622>:
    9850:	11e0a00f 	mvnne	sl, pc

00009854 <l9623>:
    9854:	c1e04710 	mvngt	r4, r0, lsl r7

00009858 <l9624>:
    9858:	e002500c 	and	r5, r2, ip

0000985c <l9625>:
    985c:	e031606a 	eors	r6, r1, sl, rrx

00009860 <l9626>:
    9860:	ea000000 	b	9868 <l9628>

00009864 <l9627>:
    9864:	eafffff8 	b	984c <l9621>

00009868 <l9628>:
    9868:	e3a0600c 	mov	r6, #12

0000986c <l9629>:
    986c:	e79d9006 	ldr	r9, [sp, r6]

00009870 <l9630>:
    9870:	554db012 	strbpl	fp, [sp, #-18]

00009874 <l9631>:
    9874:	e3a0b030 	mov	fp, #48	; 0x30

00009878 <l9632>:
    9878:	e61d600b 	ldr	r6, [sp], -fp

0000987c <l9633>:
    987c:	915da0fc 	ldrshls	sl, [sp, #-12]

00009880 <l9634>:
    9880:	a05b772b 	subsge	r7, fp, fp, lsr #14

00009884 <l9635>:
    9884:	e3b0e3fa 	movs	lr, #-402653181	; 0xe8000003

00009888 <l9636>:
    9888:	5083a00f 	addpl	sl, r3, pc

0000988c <l9637>:
    988c:	806c6009 	rsbhi	r6, ip, r9

00009890 <l9638>:
    9890:	e3a0a002 	mov	sl, #2

00009894 <l9639>:
    9894:	518d90ba 	strhpl	r9, [sp, sl]

00009898 <l9640>:
    9898:	e1a00000 	nop			; (mov r0, r0)

0000989c <l9641>:
    989c:	e8bd05a5 	pop	{r0, r2, r5, r7, r8, sl}

000098a0 <l9642>:
    98a0:	0a000007 	beq	98c4 <l9651>

000098a4 <l9643>:
    98a4:	e280101b 	add	r1, r0, #27

000098a8 <l9644>:
    98a8:	50b09008 	adcspl	r9, r0, r8

000098ac <l9645>:
    98ac:	1134010b 	teqne	r4, fp, lsl #2

000098b0 <l9646>:
    98b0:	e0677116 	rsb	r7, r7, r6, lsl r1

000098b4 <l9647>:
    98b4:	e16f2f1c 	clz	r2, ip

000098b8 <l9648>:
    98b8:	e1140063 	tst	r4, r3, rrx

000098bc <l9649>:
    98bc:	715a0848 	cmpvc	sl, r8, asr #16

000098c0 <l9650>:
    98c0:	ea000000 	b	98c8 <l9652>

000098c4 <l9651>:
    98c4:	eafffff7 	b	98a8 <l9644>

000098c8 <l9652>:
    98c8:	516f0f15 	clzpl	r0, r5

000098cc <l9653>:
    98cc:	0a000003 	beq	98e0 <l9658>

000098d0 <l9654>:
    98d0:	e280101e 	add	r1, r0, #30

000098d4 <l9655>:
    98d4:	41150a3b 	tstmi	r5, fp, lsr sl

000098d8 <l9656>:
    98d8:	b0c057e2 	sbclt	r5, r0, r2, ror #15

000098dc <l9657>:
    98dc:	ea000000 	b	98e4 <l9659>

000098e0 <l9658>:
    98e0:	eafffffb 	b	98d4 <l9655>

000098e4 <l9659>:
    98e4:	e0c62b57 	sbc	r2, r6, r7, asr fp

000098e8 <l9660>:
    98e8:	004fe201 	subeq	lr, pc, r1, lsl #4

000098ec <l9661>:
    98ec:	a0af9661 	adcge	r9, pc, r1, ror #12

000098f0 <l9662>:
    98f0:	80dc59c3 	sbcshi	r5, ip, r3, asr #19

000098f4 <l9663>:
    98f4:	e83d5210 	ldmda	sp!, {r4, r9, ip, lr}

000098f8 <l9664>:
    98f8:	43120277 	tstmi	r2, #1879048199	; 0x70000007

000098fc <l9665>:
    98fc:	6015606a 	andsvs	r6, r5, sl, rrx

00009900 <l9666>:
    9900:	83e07832 	mvnhi	r7, #3276800	; 0x320000

00009904 <l9667>:
    9904:	e01ba06c 	ands	sl, fp, ip, rrx

00009908 <l9668>:
    9908:	82d10d3a 	sbcshi	r0, r1, #3712	; 0xe80

0000990c <l9669>:
    990c:	e55d500f 	ldrb	r5, [sp, #-15]

00009910 <l9670>:
    9910:	e1f0b5e5 	mvns	fp, r5, ror #11

00009914 <l9671>:
    9914:	20836fce 	addcs	r6, r3, lr, asr #31

00009918 <l9672>:
    9918:	da000005 	ble	9934 <l9679>

0000991c <l9673>:
    991c:	e2801098 	add	r1, r0, #152	; 0x98

00009920 <l9674>:
    9920:	c1190c56 	tstgt	r9, r6, asr ip

00009924 <l9675>:
    9924:	a16f7f15 	clzge	r7, r5

00009928 <l9676>:
    9928:	e0c1026f 	sbc	r0, r1, pc, ror #4

0000992c <l9677>:
    992c:	815e0066 	cmphi	lr, r6, rrx

00009930 <l9678>:
    9930:	ea000000 	b	9938 <l9680>

00009934 <l9679>:
    9934:	eafffff9 	b	9920 <l9674>

00009938 <l9680>:
    9938:	e1510065 	cmp	r1, r5, rrx

0000993c <l9681>:
    993c:	e1360e75 	teq	r6, r5, ror lr

00009940 <l9682>:
    9940:	e59db010 	ldr	fp, [sp, #16]

00009944 <l9683>:
    9944:	e1b01000 	movs	r1, r0

00009948 <l9684>:
    9948:	e0ee6162 	rsc	r6, lr, r2, ror #2

0000994c <l9685>:
    994c:	5198e613 	orrspl	lr, r8, r3, lsl r6

00009950 <l9686>:
    9950:	e118006a 	tst	r8, sl, rrx

00009954 <l9687>:
    9954:	c253c266 	subsgt	ip, r3, #1610612742	; 0x60000006

00009958 <l9688>:
    9958:	e182aa7a 	orr	sl, r2, sl, ror sl

0000995c <l9689>:
    995c:	21cde1b4 	strhcs	lr, [sp, #20]

00009960 <l9690>:
    9960:	e1cd31be 	strh	r3, [sp, #30]

00009964 <l9691>:
    9964:	e13b0002 	teq	fp, r2

00009968 <l9692>:
    9968:	9a000004 	bls	9980 <l9698>

0000996c <l9693>:
    996c:	e2801086 	add	r1, r0, #134	; 0x86

00009970 <l9694>:
    9970:	e1d4a914 	bics	sl, r4, r4, lsl r9

00009974 <l9695>:
    9974:	e13a0451 	teq	sl, r1, asr r4

00009978 <l9696>:
    9978:	e0f74001 	rscs	r4, r7, r1

0000997c <l9697>:
    997c:	ea000000 	b	9984 <l9699>

00009980 <l9698>:
    9980:	eafffffa 	b	9970 <l9694>

00009984 <l9699>:
    9984:	e59f2000 	ldr	r2, [pc]	; 998c <l9701>

00009988 <l9700>:
    9988:	ea000000 	b	9990 <l9702>

0000998c <l9701>:
    998c:	000fffbc 	.word	0x000fffbc

00009990 <l9702>:
    9990:	d142e097 	swpble	lr, r7, [r2]

00009994 <l9703>:
    9994:	e59f4000 	ldr	r4, [pc]	; 999c <l9705>

00009998 <l9704>:
    9998:	ea000000 	b	99a0 <l9706>

0000999c <l9705>:
    999c:	000fffd8 	.word	0x000fffd8

000099a0 <l9706>:
    99a0:	e144a090 	swpb	sl, r0, [r4]

000099a4 <l9707>:
    99a4:	0233e10d 	eorseq	lr, r3, #1073741827	; 0x40000003

000099a8 <l9708>:
    99a8:	e82dc004 	stmda	sp!, {r2, lr, pc}

000099ac <l9709>:
    99ac:	91390950 	teqls	r9, r0, asr r9

000099b0 <l9710>:
    99b0:	e5bde020 	ldr	lr, [sp, #32]!

000099b4 <l9711>:
    99b4:	e2d444aa 	sbcs	r4, r4, #-1442840576	; 0xaa000000

000099b8 <l9712>:
    99b8:	95ddb022 	ldrbls	fp, [sp, #34]	; 0x22

000099bc <l9713>:
    99bc:	e3a0500c 	mov	r5, #12

000099c0 <l9714>:
    99c0:	e7bd5005 	ldr	r5, [sp, r5]!

000099c4 <l9715>:
    99c4:	c17e0368 	cmngt	lr, r8, ror #6

000099c8 <l9716>:
    99c8:	a2d38da7 	sbcsge	r8, r3, #10688	; 0x29c0

000099cc <l9717>:
    99cc:	551d8024 	ldrpl	r8, [sp, #-36]	; 0x24

000099d0 <l9718>:
    99d0:	e1a00000 	nop			; (mov r0, r0)

000099d4 <l9719>:
    99d4:	e00be512 	and	lr, fp, r2, lsl r5

000099d8 <l9720>:
    99d8:	e0505164 	subs	r5, r0, r4, ror #2

000099dc <l9721>:
    99dc:	e83d1f57 	ldmda	sp!, {r0, r1, r2, r4, r6, r8, r9, sl, fp, ip}

000099e0 <l9722>:
    99e0:	e0d5c207 	sbcs	ip, r5, r7, lsl #4

000099e4 <l9723>:
    99e4:	11cd92b0 	strhne	r9, [sp, #32]

000099e8 <l9724>:
    99e8:	60c71773 	sbcvs	r1, r7, r3, ror r7

000099ec <l9725>:
    99ec:	10858008 	addne	r8, r5, r8

000099f0 <l9726>:
    99f0:	e2319183 	eors	r9, r1, #-1073741792	; 0xc0000020

000099f4 <l9727>:
    99f4:	03a0436a 	moveq	r4, #-1476395007	; 0xa8000001

000099f8 <l9728>:
    99f8:	e3a08004 	mov	r8, #4

000099fc <l9729>:
    99fc:	e75db008 	ldrb	fp, [sp, -r8]

00009a00 <l9730>:
    9a00:	71dd42f6 	ldrshvc	r4, [sp, #38]	; 0x26

00009a04 <l9731>:
    9a04:	81ddb2be 	ldrhhi	fp, [sp, #46]	; 0x2e

00009a08 <l9732>:
    9a08:	c3d034a6 	bicsgt	r3, r0, #-1509949440	; 0xa6000000

00009a0c <l9733>:
    9a0c:	91dd42f6 	ldrshls	r4, [sp, #38]	; 0x26

00009a10 <l9734>:
    9a10:	8192600a 	orrshi	r6, r2, sl

00009a14 <l9735>:
    9a14:	e3a07004 	mov	r7, #4

00009a18 <l9736>:
    9a18:	e19da0b7 	ldrh	sl, [sp, r7]

00009a1c <l9737>:
    9a1c:	e15e0060 	cmp	lr, r0, rrx

00009a20 <l9738>:
    9a20:	e59f7000 	ldr	r7, [pc]	; 9a28 <l9740>

00009a24 <l9739>:
    9a24:	ea000000 	b	9a2c <l9741>

00009a28 <l9740>:
    9a28:	000fffe8 	.word	0x000fffe8

00009a2c <l9741>:
    9a2c:	e147109b 	swpb	r1, fp, [r7]

00009a30 <l9742>:
    9a30:	e3a05016 	mov	r5, #22

00009a34 <l9743>:
    9a34:	e18d20b5 	strh	r2, [sp, r5]

00009a38 <l9744>:
    9a38:	e0677550 	rsb	r7, r7, r0, asr r5

00009a3c <l9745>:
    9a3c:	e3a09007 	mov	r9, #7

00009a40 <l9746>:
    9a40:	574d4009 	strbpl	r4, [sp, -r9]

00009a44 <l9747>:
    9a44:	e3a0203e 	mov	r2, #62	; 0x3e

00009a48 <l9748>:
    9a48:	719d00b2 	ldrhvc	r0, [sp, r2]

00009a4c <l9749>:
    9a4c:	ea000004 	b	9a64 <l9755>

00009a50 <l9750>:
    9a50:	e28010d9 	add	r1, r0, #217	; 0xd9

00009a54 <l9751>:
    9a54:	e3580603 	cmp	r8, #3145728	; 0x300000

00009a58 <l9752>:
    9a58:	e0bc906e 	adcs	r9, ip, lr, rrx

00009a5c <l9753>:
    9a5c:	10d0c01e 	sbcsne	ip, r0, lr, lsl r0

00009a60 <l9754>:
    9a60:	ea000000 	b	9a68 <l9756>

00009a64 <l9755>:
    9a64:	eafffffa 	b	9a54 <l9751>

00009a68 <l9756>:
    9a68:	e3a0c020 	mov	ip, #32

00009a6c <l9757>:
    9a6c:	e19d60bc 	ldrh	r6, [sp, ip]

00009a70 <l9758>:
    9a70:	e3a05004 	mov	r5, #4

00009a74 <l9759>:
    9a74:	e7cdb005 	strb	fp, [sp, r5]

00009a78 <l9760>:
    9a78:	e3a0c012 	mov	ip, #18

00009a7c <l9761>:
    9a7c:	e19d30fc 	ldrsh	r3, [sp, ip]

00009a80 <l9762>:
    9a80:	735f0c95 	cmpvc	pc, #38144	; 0x9500

00009a84 <l9763>:
    9a84:	d1cc2e1c 	bicle	r2, ip, ip, lsl lr

00009a88 <l9764>:
    9a88:	e59fc000 	ldr	ip, [pc]	; 9a90 <l9766>

00009a8c <l9765>:
    9a8c:	ea000000 	b	9a94 <l9767>

00009a90 <l9766>:
    9a90:	000fffe4 	.word	0x000fffe4

00009a94 <l9767>:
    9a94:	e10cb09b 	swp	fp, fp, [ip]

00009a98 <l9768>:
    9a98:	42697c1e 	rsbmi	r7, r9, #7680	; 0x1e00

00009a9c <l9769>:
    9a9c:	e83d0008 	ldmda	sp!, {r3}

00009aa0 <l9770>:
    9aa0:	898dbbff 	stmibhi	sp, {r0, r1, r2, r3, r4, r5, r6, r7, r8, r9, fp, ip, sp, pc}

00009aa4 <l9771>:
    9aa4:	51100e19 	tstpl	r0, r9, lsl lr

00009aa8 <l9772>:
    9aa8:	c1d6001e 	bicsgt	r0, r6, lr, lsl r0

00009aac <l9773>:
    9aac:	e16faf14 	clz	sl, r4

00009ab0 <l9774>:
    9ab0:	e0a971c7 	adc	r7, r9, r7, asr #3

00009ab4 <l9775>:
    9ab4:	e1a00000 	nop			; (mov r0, r0)

00009ab8 <l9776>:
    9ab8:	824f6d5b 	subhi	r6, pc, #5824	; 0x16c0

00009abc <l9777>:
    9abc:	e8ad5208 	stmia	sp!, {r3, r9, ip, lr}

00009ac0 <l9778>:
    9ac0:	a047b4cb 	subge	fp, r7, fp, asr #9

00009ac4 <l9779>:
    9ac4:	e9ad1048 	stmib	sp!, {r3, r6, ip}

00009ac8 <l9780>:
    9ac8:	e59fb000 	ldr	fp, [pc]	; 9ad0 <l9782>

00009acc <l9781>:
    9acc:	ea000000 	b	9ad4 <l9783>

00009ad0 <l9782>:
    9ad0:	000fffb0 	.word	0x000fffb0

00009ad4 <l9783>:
    9ad4:	914b5094 	swpbls	r5, r4, [fp]

00009ad8 <l9784>:
    9ad8:	c0e2e5eb 	rscgt	lr, r2, fp, ror #11

00009adc <l9785>:
    9adc:	e3a04020 	mov	r4, #32

00009ae0 <l9786>:
    9ae0:	518d20b4 	strhpl	r2, [sp, r4]

00009ae4 <l9787>:
    9ae4:	e1350007 	teq	r5, r7

00009ae8 <l9788>:
    9ae8:	811b0001 	tsthi	fp, r1

00009aec <l9789>:
    9aec:	40327e19 	eorsmi	r7, r2, r9, lsl lr

00009af0 <l9790>:
    9af0:	7011100e 	andsvc	r1, r1, lr

00009af4 <l9791>:
    9af4:	e02f4008 	eor	r4, pc, r8

00009af8 <l9792>:
    9af8:	a0ef51e3 	rscge	r5, pc, r3, ror #3

00009afc <l9793>:
    9afc:	e1b0b302 	lsls	fp, r2, #6

00009b00 <l9794>:
    9b00:	21a04be0 	rorcs	r4, r0, #23

00009b04 <l9795>:
    9b04:	11380e8a 	teqne	r8, sl, lsl #29

00009b08 <l9796>:
    9b08:	b063c71a 	rsblt	ip, r3, sl, lsl r7

00009b0c <l9797>:
    9b0c:	e3a0c005 	mov	ip, #5

00009b10 <l9798>:
    9b10:	e19d20dc 	ldrsb	r2, [sp, ip]

00009b14 <l9799>:
    9b14:	e93d0240 	ldmdb	sp!, {r6, r9}

00009b18 <l9800>:
    9b18:	e1dd80da 	ldrsb	r8, [sp, #10]

00009b1c <l9801>:
    9b1c:	e1a00000 	nop			; (mov r0, r0)

00009b20 <l9802>:
    9b20:	da000006 	ble	9b40 <l9810>

00009b24 <l9803>:
    9b24:	20321118 	eorscs	r1, r2, r8, lsl r1

00009b28 <l9804>:
    9b28:	b2e29121 	rsclt	r9, r2, #1073741832	; 0x40000008

00009b2c <l9805>:
    9b2c:	e0360004 	eors	r0, r6, r4

00009b30 <l9806>:
    9b30:	e0788913 	rsbs	r8, r8, r3, lsl r9

00009b34 <l9807>:
    9b34:	e391e161 	orrs	lr, r1, #1073741848	; 0x40000018

00009b38 <l9808>:
    9b38:	b1d3e004 	bicslt	lr, r3, r4

00009b3c <l9809>:
    9b3c:	e2c55196 	sbc	r5, r5, #-2147483611	; 0x80000025

00009b40 <l9810>:
    9b40:	b2199101 	andslt	r9, r9, #1073741824	; 0x40000000

00009b44 <l9811>:
    9b44:	e1891006 	orr	r1, r9, r6

00009b48 <l9812>:
    9b48:	e0a24006 	adc	r4, r2, r6

00009b4c <l9813>:
    9b4c:	e1f03065 	mvns	r3, r5, rrx

00009b50 <l9814>:
    9b50:	e3a09000 	mov	r9, #0

00009b54 <l9815>:
    9b54:	e68df009 	str	pc, [sp], r9

00009b58 <l9816>:
    9b58:	e3a02010 	mov	r2, #16

00009b5c <l9817>:
    9b5c:	b75d0002 	ldrblt	r0, [sp, -r2]

00009b60 <l9818>:
    9b60:	71710001 	cmnvc	r1, r1

00009b64 <l9819>:
    9b64:	e54d1013 	strb	r1, [sp, #-19]

00009b68 <l9820>:
    9b68:	e8ada000 	stmia	sp!, {sp, pc}

00009b6c <l9821>:
    9b6c:	b1300f8b 	teqlt	r0, fp, lsl #31

00009b70 <l9822>:
    9b70:	d221395d 	eorle	r3, r1, #1523712	; 0x174000

00009b74 <l9823>:
    9b74:	b1510612 	cmplt	r1, r2, lsl r6

00009b78 <l9824>:
    9b78:	b15b0830 	cmplt	fp, r0, lsr r8

00009b7c <l9825>:
    9b7c:	e09a100f 	adds	r1, sl, pc

00009b80 <l9826>:
    9b80:	e59f8000 	ldr	r8, [pc]	; 9b88 <l9828>

00009b84 <l9827>:
    9b84:	ea000000 	b	9b8c <l9829>

00009b88 <l9828>:
    9b88:	000fffd0 	.word	0x000fffd0

00009b8c <l9829>:
    9b8c:	9148a096 	swpbls	sl, r6, [r8]

00009b90 <l9830>:
    9b90:	117b0e31 	cmnne	fp, r1, lsr lr

00009b94 <l9831>:
    9b94:	e59f2000 	ldr	r2, [pc]	; 9b9c <l9833>

00009b98 <l9832>:
    9b98:	ea000000 	b	9ba0 <l9834>

00009b9c <l9833>:
    9b9c:	000fffac 	.word	0x000fffac

00009ba0 <l9834>:
    9ba0:	11024098 	swpne	r4, r8, [r2]

00009ba4 <l9835>:
    9ba4:	e0400060 	sub	r0, r0, r0, rrx

00009ba8 <l9836>:
    9ba8:	5154081c 	cmppl	r4, ip, lsl r8

00009bac <l9837>:
    9bac:	e05fe465 	subs	lr, pc, r5, ror #8

00009bb0 <l9838>:
    9bb0:	e094706b 	adds	r7, r4, fp, rrx

00009bb4 <l9839>:
    9bb4:	e8bd0924 	pop	{r2, r5, r8, fp}

00009bb8 <l9840>:
    9bb8:	6a000002 	bvs	9bc8 <l9844>

00009bbc <l9841>:
    9bbc:	e2801062 	add	r1, r0, #98	; 0x62

00009bc0 <l9842>:
    9bc0:	e11e000a 	tst	lr, sl

00009bc4 <l9843>:
    9bc4:	ea000000 	b	9bcc <l9845>

00009bc8 <l9844>:
    9bc8:	eafffffc 	b	9bc0 <l9842>

00009bcc <l9845>:
    9bcc:	e16f1f16 	clz	r1, r6

00009bd0 <l9846>:
    9bd0:	ea000001 	b	9bdc <l9849>

00009bd4 <l9847>:
    9bd4:	e1b0b359 	asrs	fp, r9, r3

00009bd8 <l9848>:
    9bd8:	e01ae006 	ands	lr, sl, r6

00009bdc <l9849>:
    9bdc:	e16f1f1c 	clz	r1, ip

00009be0 <l9850>:
    9be0:	4a000005 	bmi	9bfc <l9857>

00009be4 <l9851>:
    9be4:	83b0760b 	movshi	r7, #11534336	; 0xb00000

00009be8 <l9852>:
    9be8:	51530949 	cmppl	r3, r9, asr #18

00009bec <l9853>:
    9bec:	7089ac76 	addvc	sl, r9, r6, ror ip

00009bf0 <l9854>:
    9bf0:	d0448066 	suble	r8, r4, r6, rrx

00009bf4 <l9855>:
    9bf4:	302c2b73 	eorcc	r2, ip, r3, ror fp

00009bf8 <l9856>:
    9bf8:	e2ac3da3 	adc	r3, ip, #10432	; 0x28c0

00009bfc <l9857>:
    9bfc:	12c04c21 	sbcne	r4, r0, #8448	; 0x2100

00009c00 <l9858>:
    9c00:	e16faf18 	clz	sl, r8

00009c04 <l9859>:
    9c04:	b228b6ef 	eorlt	fp, r8, #250609664	; 0xef00000

00009c08 <l9860>:
    9c08:	129c0646 	addsne	r0, ip, #73400320	; 0x4600000

00009c0c <l9861>:
    9c0c:	e0341002 	eors	r1, r4, r2

00009c10 <l9862>:
    9c10:	d2e9ceaa 	rscle	ip, r9, #2720	; 0xaa0

00009c14 <l9863>:
    9c14:	aa000004 	bge	9c2c <l9869>

00009c18 <l9864>:
    9c18:	e24f8d05 	sub	r8, pc, #320	; 0x140

00009c1c <l9865>:
    9c1c:	904c1064 	subls	r1, ip, r4, rrx

00009c20 <l9866>:
    9c20:	e0c07824 	sbc	r7, r0, r4, lsr #16

00009c24 <l9867>:
    9c24:	e05c6008 	subs	r6, ip, r8

00009c28 <l9868>:
    9c28:	21150c35 	tstcs	r5, r5, lsr ip

00009c2c <l9869>:
    9c2c:	90ac6132 	adcls	r6, ip, r2, lsr r1

00009c30 <l9870>:
    9c30:	127e4fa3 	rsbsne	r4, lr, #652	; 0x28c

00009c34 <l9871>:
    9c34:	e54de021 	strb	lr, [sp, #-33]	; 0x21

00009c38 <l9872>:
    9c38:	e3a02010 	mov	r2, #16

00009c3c <l9873>:
    9c3c:	e68db002 	str	fp, [sp], r2

00009c40 <l9874>:
    9c40:	71140000 	tstvc	r4, r0

00009c44 <l9875>:
    9c44:	e08e1018 	add	r1, lr, r8, lsl r0

00009c48 <l9876>:
    9c48:	e0227061 	eor	r7, r2, r1, rrx

00009c4c <l9877>:
    9c4c:	b14d20be 	strhlt	r2, [sp, #-14]

00009c50 <l9878>:
    9c50:	e1390c37 	teq	r9, r7, lsr ip

00009c54 <l9879>:
    9c54:	e9bd0800 	ldmib	sp!, {fp}

00009c58 <l9880>:
    9c58:	e1500065 	cmp	r0, r5, rrx

00009c5c <l9881>:
    9c5c:	702ae003 	eorvc	lr, sl, r3

00009c60 <l9882>:
    9c60:	e3a07004 	mov	r7, #4

00009c64 <l9883>:
    9c64:	e60de007 	str	lr, [sp], -r7

00009c68 <l9884>:
    9c68:	e1b0b00c 	movs	fp, ip

00009c6c <l9885>:
    9c6c:	b178095c 	cmnlt	r8, ip, asr r9

00009c70 <l9886>:
    9c70:	d07e9000 	rsbsle	r9, lr, r0

00009c74 <l9887>:
    9c74:	b0071979 	andlt	r1, r7, r9, ror r9

00009c78 <l9888>:
    9c78:	825f4033 	subshi	r4, pc, #51	; 0x33

00009c7c <l9889>:
    9c7c:	e51d0044 	ldr	r0, [sp, #-68]	; 0x44

00009c80 <l9890>:
    9c80:	e3a03038 	mov	r3, #56	; 0x38

00009c84 <l9891>:
    9c84:	e11d20f3 	ldrsh	r2, [sp, -r3]

00009c88 <l9892>:
    9c88:	83d3b7a1 	bicshi	fp, r3, #42205184	; 0x2840000

00009c8c <l9893>:
    9c8c:	e16f4f10 	clz	r4, r0

00009c90 <l9894>:
    9c90:	e0022003 	and	r2, r2, r3

00009c94 <l9895>:
    9c94:	31380e78 	teqcc	r8, r8, ror lr

00009c98 <l9896>:
    9c98:	e3a0e03e 	mov	lr, #62	; 0x3e

00009c9c <l9897>:
    9c9c:	e11d20be 	ldrh	r2, [sp, -lr]

00009ca0 <l9898>:
    9ca0:	e3a07032 	mov	r7, #50	; 0x32

00009ca4 <l9899>:
    9ca4:	e10d60b7 	strh	r6, [sp, -r7]

00009ca8 <l9900>:
    9ca8:	e1330063 	teq	r3, r3, rrx

00009cac <l9901>:
    9cac:	d3740b89 	cmnle	r4, #140288	; 0x22400

00009cb0 <l9902>:
    9cb0:	e9ad8000 	stmib	sp!, {pc}

00009cb4 <l9903>:
    9cb4:	255da043 	ldrbcs	sl, [sp, #-67]	; 0x43

00009cb8 <l9904>:
    9cb8:	e3a05028 	mov	r5, #40	; 0x28

00009cbc <l9905>:
    9cbc:	e74d9005 	strb	r9, [sp, -r5]

00009cc0 <l9906>:
    9cc0:	e03be06f 	eors	lr, fp, pc, rrx

00009cc4 <l9907>:
    9cc4:	80565e56 	subshi	r5, r6, r6, asr lr

00009cc8 <l9908>:
    9cc8:	e3a0a044 	mov	sl, #68	; 0x44

00009ccc <l9909>:
    9ccc:	a10de0ba 	strhge	lr, [sp, -sl]

00009cd0 <l9910>:
    9cd0:	a54d6029 	strbge	r6, [sp, #-41]	; 0x29

00009cd4 <l9911>:
    9cd4:	ea000004 	b	9cec <l9917>

00009cd8 <l9912>:
    9cd8:	e280103b 	add	r1, r0, #59	; 0x3b

00009cdc <l9913>:
    9cdc:	12c23b1b 	sbcne	r3, r2, #27648	; 0x6c00

00009ce0 <l9914>:
    9ce0:	339770f8 	orrscc	r7, r7, #248	; 0xf8

00009ce4 <l9915>:
    9ce4:	e08a200c 	add	r2, sl, ip

00009ce8 <l9916>:
    9ce8:	ea000000 	b	9cf0 <l9918>

00009cec <l9917>:
    9cec:	eafffffa 	b	9cdc <l9913>

00009cf0 <l9918>:
    9cf0:	e1a00000 	nop			; (mov r0, r0)

00009cf4 <l9919>:
    9cf4:	e3a0e040 	mov	lr, #64	; 0x40

00009cf8 <l9920>:
    9cf8:	c11d30be 	ldrhgt	r3, [sp, -lr]

00009cfc <l9921>:
    9cfc:	e0218065 	eor	r8, r1, r5, rrx

00009d00 <l9922>:
    9d00:	aa000005 	bge	9d1c <l9929>

00009d04 <l9923>:
    9d04:	81730000 	cmnhi	r3, r0

00009d08 <l9924>:
    9d08:	429f855b 	addsmi	r8, pc, #381681664	; 0x16c00000

00009d0c <l9925>:
    9d0c:	e2a26b01 	adc	r6, r2, #1024	; 0x400

00009d10 <l9926>:
    9d10:	b1cc432e 	biclt	r4, ip, lr, lsr #6

00009d14 <l9927>:
    9d14:	e1f0226e 	mvns	r2, lr, ror #4

00009d18 <l9928>:
    9d18:	b1b0a482 	lslslt	sl, r2, #9

00009d1c <l9929>:
    9d1c:	e20438d7 	and	r3, r4, #14090240	; 0xd70000

00009d20 <l9930>:
    9d20:	d39b0687 	orrsle	r0, fp, #141557760	; 0x8700000

00009d24 <l9931>:
    9d24:	b1360000 	teqlt	r6, r0

00009d28 <l9932>:
    9d28:	505a5b44 	subspl	r5, sl, r4, asr #22

00009d2c <l9933>:
    9d2c:	e3a00000 	mov	r0, #0

00009d30 <l9934>:
    9d30:	e7adb000 	str	fp, [sp, r0]!

00009d34 <l9935>:
    9d34:	ea000004 	b	9d4c <l9941>

00009d38 <l9936>:
    9d38:	816f9f1e 	clzhi	r9, lr

00009d3c <l9937>:
    9d3c:	e1f0b50e 	mvns	fp, lr, lsl #10

00009d40 <l9938>:
    9d40:	b38469d9 	orrlt	r6, r4, #3555328	; 0x364000

00009d44 <l9939>:
    9d44:	e0205066 	eor	r5, r0, r6, rrx

00009d48 <l9940>:
    9d48:	e2551020 	subs	r1, r5, #32

00009d4c <l9941>:
    9d4c:	e19e5575 	orrs	r5, lr, r5, ror r5

00009d50 <l9942>:
    9d50:	e82ddffb 	stmda	sp!, {r0, r1, r3, r4, r5, r6, r7, r8, r9, sl, fp, ip, lr, pc}

00009d54 <l9943>:
    9d54:	c05f6887 	subsgt	r6, pc, r7, lsl #17

00009d58 <l9944>:
    9d58:	e17c05ee 	cmn	ip, lr, ror #11

00009d5c <l9945>:
    9d5c:	61f05000 	mvnsvs	r5, r0

00009d60 <l9946>:
    9d60:	e114006e 	tst	r4, lr, rrx

00009d64 <l9947>:
    9d64:	c1590ce7 	cmpgt	r9, r7, ror #25

00009d68 <l9948>:
    9d68:	ea000006 	b	9d88 <l9956>

00009d6c <l9949>:
    9d6c:	51f0600c 	mvnspl	r6, ip

00009d70 <l9950>:
    9d70:	e1150ac8 	tst	r5, r8, asr #21

00009d74 <l9951>:
    9d74:	3130085e 	teqcc	r0, lr, asr r8

00009d78 <l9952>:
    9d78:	601e941c 	andsvs	r9, lr, ip, lsl r4

00009d7c <l9953>:
    9d7c:	40b8b00c 	adcsmi	fp, r8, ip

00009d80 <l9954>:
    9d80:	83140712 	tsthi	r4, #4718592	; 0x480000

00009d84 <l9955>:
    9d84:	81891008 	orrhi	r1, r9, r8

00009d88 <l9956>:
    9d88:	20f6300f 	rscscs	r3, r6, pc

00009d8c <l9957>:
    9d8c:	e01ac004 	ands	ip, sl, r4

00009d90 <l9958>:
    9d90:	2337073e 	teqcs	r7, #16252928	; 0xf80000

00009d94 <l9959>:
    9d94:	000f0307 	andeq	r0, pc, r7, lsl #6

00009d98 <l9960>:
    9d98:	e16f3f18 	clz	r3, r8

00009d9c <l9961>:
    9d9c:	72032e4f 	andvc	r2, r3, #1264	; 0x4f0

00009da0 <l9962>:
    9da0:	e3a0600a 	mov	r6, #10

00009da4 <l9963>:
    9da4:	e11d40b6 	ldrh	r4, [sp, -r6]

00009da8 <l9964>:
    9da8:	70a4c002 	adcvc	ip, r4, r2

00009dac <l9965>:
    9dac:	e3a0c038 	mov	ip, #56	; 0x38

00009db0 <l9966>:
    9db0:	919d80bc 	ldrhls	r8, [sp, ip]

00009db4 <l9967>:
    9db4:	d88d3260 	stmle	sp, {r5, r6, r9, ip, sp}

00009db8 <l9968>:
    9db8:	e59f4000 	ldr	r4, [pc]	; 9dc0 <l9970>

00009dbc <l9969>:
    9dbc:	ea000000 	b	9dc4 <l9971>

00009dc0 <l9970>:
    9dc0:	000fffb8 	.word	0x000fffb8

00009dc4 <l9971>:
    9dc4:	31442099 	swpbcc	r2, r9, [r4]

00009dc8 <l9972>:
    9dc8:	80c4200c 	sbchi	r2, r4, ip

00009dcc <l9973>:
    9dcc:	5a000007 	bpl	9df0 <l9982>

00009dd0 <l9974>:
    9dd0:	e2801058 	add	r1, r0, #88	; 0x58

00009dd4 <l9975>:
    9dd4:	d17f0068 	cmnle	pc, r8, rrx

00009dd8 <l9976>:
    9dd8:	e1e06ce2 	mvn	r6, r2, ror #25

00009ddc <l9977>:
    9ddc:	e3570332 	cmp	r7, #-939524096	; 0xc8000000

00009de0 <l9978>:
    9de0:	60096148 	andvs	r6, r9, r8, asr #2

00009de4 <l9979>:
    9de4:	e061644f 	rsb	r6, r1, pc, asr #8

00009de8 <l9980>:
    9de8:	e15e0711 	cmp	lr, r1, lsl r7

00009dec <l9981>:
    9dec:	ea000000 	b	9df4 <l9983>

00009df0 <l9982>:
    9df0:	eafffff7 	b	9dd4 <l9975>

00009df4 <l9983>:
    9df4:	ca000006 	bgt	9e14 <l9991>

00009df8 <l9984>:
    9df8:	01a06c50 	asreq	r6, r0, ip

00009dfc <l9985>:
    9dfc:	e010200a 	ands	r2, r0, sl

00009e00 <l9986>:
    9e00:	e16f7f1a 	clz	r7, sl

00009e04 <l9987>:
    9e04:	80152ea6 	andshi	r2, r5, r6, lsr #29

00009e08 <l9988>:
    9e08:	13140f4b 	tstne	r4, #300	; 0x12c

00009e0c <l9989>:
    9e0c:	217a0812 	cmncs	sl, r2, lsl r8

00009e10 <l9990>:
    9e10:	61790068 	cmnvs	r9, r8, rrx

00009e14 <l9991>:
    9e14:	c0b37006 	adcsgt	r7, r3, r6

00009e18 <l9992>:
    9e18:	63d56629 	bicsvs	r6, r5, #42991616	; 0x2900000

00009e1c <l9993>:
    9e1c:	e59f4000 	ldr	r4, [pc]	; 9e24 <l9995>

00009e20 <l9994>:
    9e20:	ea000000 	b	9e28 <l9996>

00009e24 <l9995>:
    9e24:	000fffd0 	.word	0x000fffd0

00009e28 <l9996>:
    9e28:	e144609b 	swpb	r6, fp, [r4]

00009e2c <l9997>:
    9e2c:	e3a03006 	mov	r3, #6

00009e30 <l9998>:
    9e30:	e11d10f3 	ldrsh	r1, [sp, -r3]

00009e34 <l9999>:
    9e34:	e1320004 	teq	r2, r4

00009e38 <l10000>:
    9e38:	359d5008 	ldrcc	r5, [sp, #8]

00009e3c <end>:
    9e3c:	eafffffe 	b	9e3c <end>
