
noMul.o:     file format elf32-littlearm


Disassembly of section .text:

00000000 <main>:
       0:	e05f000f 	subs	r0, pc, pc
       4:	e59fd000 	ldr	sp, [pc]	; c <val>
       8:	ea000000 	b	10 <next>

0000000c <val>:
       c:	000ffff0 	.word	0x000ffff0

00000010 <next>:
      10:	e59f1000 	ldr	r1, [pc]	; 18 <val1>
      14:	ea000000 	b	1c <next1>

00000018 <val1>:
      18:	a0a6b7c5 	.word	0xa0a6b7c5

0000001c <next1>:
      1c:	e59f2000 	ldr	r2, [pc]	; 24 <val2>
      20:	ea000000 	b	28 <next2>

00000024 <val2>:
      24:	fe83f55e 	.word	0xfe83f55e

00000028 <next2>:
      28:	e59f3000 	ldr	r3, [pc]	; 30 <val3>
      2c:	ea000000 	b	34 <next3>

00000030 <val3>:
      30:	4c63d878 	.word	0x4c63d878

00000034 <next3>:
      34:	e59f4000 	ldr	r4, [pc]	; 3c <val4>
      38:	ea000000 	b	40 <next4>

0000003c <val4>:
      3c:	be1c7853 	.word	0xbe1c7853

00000040 <next4>:
      40:	e59f5000 	ldr	r5, [pc]	; 48 <val5>
      44:	ea000000 	b	4c <next5>

00000048 <val5>:
      48:	02983a66 	.word	0x02983a66

0000004c <next5>:
      4c:	e59f6000 	ldr	r6, [pc]	; 54 <val6>
      50:	ea000000 	b	58 <next6>

00000054 <val6>:
      54:	d73ad47a 	.word	0xd73ad47a

00000058 <next6>:
      58:	e59f7000 	ldr	r7, [pc]	; 60 <val7>
      5c:	ea000000 	b	64 <next7>

00000060 <val7>:
      60:	68a31efb 	.word	0x68a31efb

00000064 <next7>:
      64:	e59f8000 	ldr	r8, [pc]	; 6c <val8>
      68:	ea000000 	b	70 <next8>

0000006c <val8>:
      6c:	61c17592 	.word	0x61c17592

00000070 <next8>:
      70:	e59f9000 	ldr	r9, [pc]	; 78 <val9>
      74:	ea000000 	b	7c <next9>

00000078 <val9>:
      78:	59228c89 	.word	0x59228c89

0000007c <next9>:
      7c:	e59fa000 	ldr	sl, [pc]	; 84 <val10>
      80:	ea000000 	b	88 <next10>

00000084 <val10>:
      84:	b509ba0e 	.word	0xb509ba0e

00000088 <next10>:
      88:	e59fb000 	ldr	fp, [pc]	; 90 <val11>
      8c:	ea000000 	b	94 <next11>

00000090 <val11>:
      90:	2555873a 	.word	0x2555873a

00000094 <next11>:
      94:	e59fc000 	ldr	ip, [pc]	; 9c <val12>
      98:	ea000000 	b	a0 <next12>

0000009c <val12>:
      9c:	5dcf0a2c 	.word	0x5dcf0a2c

000000a0 <next12>:
      a0:	e59fe000 	ldr	lr, [pc]	; a8 <val14>
      a4:	ea000000 	b	ac <next14>

000000a8 <val14>:
      a8:	64f65d6a 	.word	0x64f65d6a

000000ac <next14>:
      ac:	e59f1000 	ldr	r1, [pc]	; b4 <val15>
      b0:	ea000000 	b	b8 <next15>

000000b4 <val15>:
      b4:	e7159dd9 	.word	0xe7159dd9

000000b8 <next15>:
      b8:	e58d1000 	str	r1, [sp]
      bc:	e59f1000 	ldr	r1, [pc]	; c4 <val16>
      c0:	ea000000 	b	c8 <next16>

000000c4 <val16>:
      c4:	8f0ffed6 	.word	0x8f0ffed6

000000c8 <next16>:
      c8:	e50d1004 	str	r1, [sp, #-4]
      cc:	e59f1000 	ldr	r1, [pc]	; d4 <val17>
      d0:	ea000000 	b	d8 <next17>

000000d4 <val17>:
      d4:	20eb7b6c 	.word	0x20eb7b6c

000000d8 <next17>:
      d8:	e50d1008 	str	r1, [sp, #-8]
      dc:	e59f1000 	ldr	r1, [pc]	; e4 <val18>
      e0:	ea000000 	b	e8 <next18>

000000e4 <val18>:
      e4:	1df89837 	.word	0x1df89837

000000e8 <next18>:
      e8:	e50d100c 	str	r1, [sp, #-12]
      ec:	e59f1000 	ldr	r1, [pc]	; f4 <val19>
      f0:	ea000000 	b	f8 <next19>

000000f4 <val19>:
      f4:	b66366ed 	.word	0xb66366ed

000000f8 <next19>:
      f8:	e50d1010 	str	r1, [sp, #-16]
      fc:	e59f1000 	ldr	r1, [pc]	; 104 <val20>
     100:	ea000000 	b	108 <next20>

00000104 <val20>:
     104:	7c648cd4 	.word	0x7c648cd4

00000108 <next20>:
     108:	e50d1014 	str	r1, [sp, #-20]
     10c:	e59f1000 	ldr	r1, [pc]	; 114 <val21>
     110:	ea000000 	b	118 <next21>

00000114 <val21>:
     114:	857c3953 	.word	0x857c3953

00000118 <next21>:
     118:	e50d1018 	str	r1, [sp, #-24]
     11c:	e59f1000 	ldr	r1, [pc]	; 124 <val22>
     120:	ea000000 	b	128 <next22>

00000124 <val22>:
     124:	aadd420f 	.word	0xaadd420f

00000128 <next22>:
     128:	e50d101c 	str	r1, [sp, #-28]
     12c:	e59f1000 	ldr	r1, [pc]	; 134 <val23>
     130:	ea000000 	b	138 <next23>

00000134 <val23>:
     134:	6b6e3ba6 	.word	0x6b6e3ba6

00000138 <next23>:
     138:	e50d1020 	str	r1, [sp, #-32]
     13c:	e59f1000 	ldr	r1, [pc]	; 144 <val24>
     140:	ea000000 	b	148 <next24>

00000144 <val24>:
     144:	0f323d3d 	.word	0x0f323d3d

00000148 <next24>:
     148:	e50d1024 	str	r1, [sp, #-36]	; 0x24
     14c:	e59f1000 	ldr	r1, [pc]	; 154 <val25>
     150:	ea000000 	b	158 <next25>

00000154 <val25>:
     154:	b5130e2b 	.word	0xb5130e2b

00000158 <next25>:
     158:	e50d1028 	str	r1, [sp, #-40]	; 0x28
     15c:	e59f1000 	ldr	r1, [pc]	; 164 <val26>
     160:	ea000000 	b	168 <next26>

00000164 <val26>:
     164:	461c857a 	.word	0x461c857a

00000168 <next26>:
     168:	e50d102c 	str	r1, [sp, #-44]	; 0x2c
     16c:	e59f1000 	ldr	r1, [pc]	; 174 <val27>
     170:	ea000000 	b	178 <next27>

00000174 <val27>:
     174:	9efe524c 	.word	0x9efe524c

00000178 <next27>:
     178:	e50d1030 	str	r1, [sp, #-48]	; 0x30
     17c:	e59f1000 	ldr	r1, [pc]	; 184 <val28>
     180:	ea000000 	b	188 <next28>

00000184 <val28>:
     184:	6ce95e45 	.word	0x6ce95e45

00000188 <next28>:
     188:	e50d1034 	str	r1, [sp, #-52]	; 0x34
     18c:	e59f1000 	ldr	r1, [pc]	; 194 <val29>
     190:	ea000000 	b	198 <next29>

00000194 <val29>:
     194:	4cf07e31 	.word	0x4cf07e31

00000198 <next29>:
     198:	e50d1038 	str	r1, [sp, #-56]	; 0x38
     19c:	e59f1000 	ldr	r1, [pc]	; 1a4 <val30>
     1a0:	ea000000 	b	1a8 <next30>

000001a4 <val30>:
     1a4:	ad3e051d 	.word	0xad3e051d

000001a8 <next30>:
     1a8:	e50d103c 	str	r1, [sp, #-60]	; 0x3c
     1ac:	e59f1000 	ldr	r1, [pc]	; 1b4 <val31>
     1b0:	ea000000 	b	1b8 <next31>

000001b4 <val31>:
     1b4:	bf2b3116 	.word	0xbf2b3116

000001b8 <next31>:
     1b8:	e50d1040 	str	r1, [sp, #-64]	; 0x40
     1bc:	e59f1000 	ldr	r1, [pc]	; 1c4 <val32>
     1c0:	ea000000 	b	1c8 <next32>

000001c4 <val32>:
     1c4:	fb58d52f 	.word	0xfb58d52f

000001c8 <next32>:
     1c8:	e50d1044 	str	r1, [sp, #-68]	; 0x44
     1cc:	e59f1000 	ldr	r1, [pc]	; 1d4 <val33>
     1d0:	ea000000 	b	1d8 <next33>

000001d4 <val33>:
     1d4:	9c5ae944 	.word	0x9c5ae944

000001d8 <next33>:
     1d8:	e50d1048 	str	r1, [sp, #-72]	; 0x48
     1dc:	e59f1000 	ldr	r1, [pc]	; 1e4 <val34>
     1e0:	ea000000 	b	1e8 <next34>

000001e4 <val34>:
     1e4:	cfb5430a 	.word	0xcfb5430a

000001e8 <next34>:
     1e8:	e50d104c 	str	r1, [sp, #-76]	; 0x4c
     1ec:	e59f1000 	ldr	r1, [pc]	; 1f4 <val35>
     1f0:	ea000000 	b	1f8 <next35>

000001f4 <val35>:
     1f4:	21b80f8e 	.word	0x21b80f8e

000001f8 <next35>:
     1f8:	e50d1050 	str	r1, [sp, #-80]	; 0x50

000001fc <l1>:
     1fc:	e0639064 	rsb	r9, r3, r4, rrx

00000200 <l2>:
     200:	90537536 	subsls	r7, r3, r6, lsr r5

00000204 <l3>:
     204:	e2b4eb87 	adcs	lr, r4, #138240	; 0x21c00

00000208 <l4>:
     208:	50c49c3c 	sbcpl	r9, r4, ip, lsr ip

0000020c <l5>:
     20c:	00d159e4 	sbcseq	r5, r1, r4, ror #19

00000210 <l6>:
     210:	20ae0457 	adccs	r0, lr, r7, asr r4

00000214 <l7>:
     214:	e3a0a01a 	mov	sl, #26

00000218 <l8>:
     218:	e74de00a 	strb	lr, [sp, -sl]

0000021c <l9>:
     21c:	9017e005 	andsls	lr, r7, r5

00000220 <l10>:
     220:	e3a07030 	mov	r7, #48	; 0x30

00000224 <l11>:
     224:	011d20b7 	ldrheq	r2, [sp, -r7]

00000228 <l12>:
     228:	e0654b62 	rsb	r4, r5, r2, ror #22

0000022c <l13>:
     22c:	ea000006 	b	24c <l21>

00000230 <l14>:
     230:	e2801032 	add	r1, r0, #50	; 0x32

00000234 <l15>:
     234:	b16f6f1a 	clzlt	r6, sl

00000238 <l16>:
     238:	e208b10f 	and	fp, r8, #-1073741821	; 0xc0000003

0000023c <l17>:
     23c:	903fa009 	eorsls	sl, pc, r9

00000240 <l18>:
     240:	a19a400a 	orrsge	r4, sl, sl

00000244 <l19>:
     244:	d1e02535 	mvnle	r2, r5, lsr r5

00000248 <l20>:
     248:	ea000000 	b	250 <l22>

0000024c <l21>:
     24c:	eafffff8 	b	234 <l15>

00000250 <l22>:
     250:	e06ca002 	rsb	sl, ip, r2

00000254 <l23>:
     254:	e82d0040 	stmda	sp!, {r6}

00000258 <l24>:
     258:	e0608065 	rsb	r8, r0, r5, rrx

0000025c <l25>:
     25c:	e59f1000 	ldr	r1, [pc]	; 264 <l27>

00000260 <l26>:
     260:	ea000000 	b	268 <l28>

00000264 <l27>:
     264:	000fffd0 	.word	0x000fffd0

00000268 <l28>:
     268:	e1412093 	swpb	r2, r3, [r1]

0000026c <l29>:
     26c:	e1310001 	teq	r1, r1

00000270 <l30>:
     270:	e3a0700e 	mov	r7, #14

00000274 <l31>:
     274:	e11d00b7 	ldrh	r0, [sp, -r7]

00000278 <l32>:
     278:	e3f08b17 	mvns	r8, #23552	; 0x5c00

0000027c <l33>:
     27c:	41190002 	tstmi	r9, r2

00000280 <l34>:
     280:	e1865c0c 	orr	r5, r6, ip, lsl #24

00000284 <l35>:
     284:	e3a0903d 	mov	r9, #61	; 0x3d

00000288 <l36>:
     288:	e74d2009 	strb	r2, [sp, -r9]

0000028c <l37>:
     28c:	e59f1000 	ldr	r1, [pc]	; 294 <l39>

00000290 <l38>:
     290:	ea000000 	b	298 <l40>

00000294 <l39>:
     294:	000fffac 	.word	0x000fffac

00000298 <l40>:
     298:	e101509c 	swp	r5, ip, [r1]

0000029c <l41>:
     29c:	50f8a732 	rscspl	sl, r8, r2, lsr r7

000002a0 <l42>:
     2a0:	e59f2000 	ldr	r2, [pc]	; 2a8 <l44>

000002a4 <l43>:
     2a4:	ea000000 	b	2ac <l45>

000002a8 <l44>:
     2a8:	000fffac 	.word	0x000fffac

000002ac <l45>:
     2ac:	4102709b 	swpmi	r7, fp, [r2]

000002b0 <l46>:
     2b0:	780d04c5 	stmdavc	sp, {r0, r2, r6, r7, sl}

000002b4 <l47>:
     2b4:	711b0004 	tstvc	fp, r4

000002b8 <l48>:
     2b8:	e046a039 	sub	sl, r6, r9, lsr r0

000002bc <l49>:
     2bc:	e3a01014 	mov	r1, #20

000002c0 <l50>:
     2c0:	e73d0001 	ldr	r0, [sp, -r1]!

000002c4 <l51>:
     2c4:	e82ddfbc 	stmda	sp!, {r2, r3, r4, r5, r7, r8, r9, sl, fp, ip, lr, pc}

000002c8 <l52>:
     2c8:	61903c1a 	orrsvs	r3, r0, sl, lsl ip

000002cc <l53>:
     2cc:	e0de1008 	sbcs	r1, lr, r8

000002d0 <l54>:
     2d0:	e8bd1150 	pop	{r4, r6, r8, ip}

000002d4 <l55>:
     2d4:	a90d0140 	stmdbge	sp, {r6, r8}

000002d8 <l56>:
     2d8:	40a6aa24 	adcmi	sl, r6, r4, lsr #20

000002dc <l57>:
     2dc:	40a0206f 	adcmi	r2, r0, pc, rrx

000002e0 <l58>:
     2e0:	d0486009 	suble	r6, r8, r9

000002e4 <l59>:
     2e4:	61e0700e 	mvnvs	r7, lr

000002e8 <l60>:
     2e8:	e1cd62bc 	strh	r6, [sp, #44]	; 0x2c

000002ec <l61>:
     2ec:	e3c4a3fa 	bic	sl, r4, #-402653181	; 0xe8000003

000002f0 <l62>:
     2f0:	e3a09024 	mov	r9, #36	; 0x24

000002f4 <l63>:
     2f4:	619d20b9 	ldrhvs	r2, [sp, r9]

000002f8 <l64>:
     2f8:	016f9f13 	clzeq	r9, r3

000002fc <l65>:
     2fc:	7a000002 	bvc	30c <l69>

00000300 <l66>:
     300:	e28010c0 	add	r1, r0, #192	; 0xc0

00000304 <l67>:
     304:	e1f0a009 	mvns	sl, r9

00000308 <l68>:
     308:	ea000000 	b	310 <l70>

0000030c <l69>:
     30c:	eafffffc 	b	304 <l67>

00000310 <l70>:
     310:	e029706b 	eor	r7, r9, fp, rrx

00000314 <l71>:
     314:	e3a0102f 	mov	r1, #47	; 0x2f

00000318 <l72>:
     318:	e7dd4001 	ldrb	r4, [sp, r1]

0000031c <l73>:
     31c:	e3a09002 	mov	r9, #2

00000320 <l74>:
     320:	e11d30f9 	ldrsh	r3, [sp, -r9]

00000324 <l75>:
     324:	e3a0e008 	mov	lr, #8

00000328 <l76>:
     328:	418da0be 	strhmi	sl, [sp, lr]

0000032c <l77>:
     32c:	e3a07032 	mov	r7, #50	; 0x32

00000330 <l78>:
     330:	a19d40f7 	ldrshge	r4, [sp, r7]

00000334 <l79>:
     334:	1013106a 	andsne	r1, r3, sl, rrx

00000338 <l80>:
     338:	e187e068 	orr	lr, r7, r8, rrx

0000033c <l81>:
     33c:	e5cd9019 	strb	r9, [sp, #25]

00000340 <l82>:
     340:	323b888f 	eorscc	r8, fp, #9371648	; 0x8f0000

00000344 <l83>:
     344:	e3a04031 	mov	r4, #49	; 0x31

00000348 <l84>:
     348:	e7cd6004 	strb	r6, [sp, r4]

0000034c <l85>:
     34c:	e1f0ee8c 	mvns	lr, ip, lsl #29

00000350 <l86>:
     350:	40524570 	subsmi	r4, r2, r0, ror r5

00000354 <l87>:
     354:	e15c0007 	cmp	ip, r7

00000358 <l88>:
     358:	e3b08080 	movs	r8, #128	; 0x80

0000035c <l89>:
     35c:	e88d4044 	stm	sp, {r2, r6, lr}

00000360 <l90>:
     360:	e59f7000 	ldr	r7, [pc]	; 368 <l92>

00000364 <l91>:
     364:	ea000000 	b	36c <l93>

00000368 <l92>:
     368:	000fffb8 	.word	0x000fffb8

0000036c <l93>:
     36c:	5107309b 	swppl	r3, fp, [r7]

00000370 <l94>:
     370:	da000006 	ble	390 <l102>

00000374 <l95>:
     374:	e28010fe 	add	r1, r0, #254	; 0xfe

00000378 <l96>:
     378:	20d3e20a 	sbcscs	lr, r3, sl, lsl #4

0000037c <l97>:
     37c:	e299173a 	adds	r1, r9, #15204352	; 0xe80000

00000380 <l98>:
     380:	e1f01b2c 	mvns	r1, ip, lsr #22

00000384 <l99>:
     384:	e191900c 	orrs	r9, r1, ip

00000388 <l100>:
     388:	e31e0696 	tst	lr, #157286400	; 0x9600000

0000038c <l101>:
     38c:	ea000000 	b	394 <l103>

00000390 <l102>:
     390:	eafffff8 	b	378 <l96>

00000394 <l103>:
     394:	c0eb817b 	rscgt	r8, fp, fp, ror r1

00000398 <l104>:
     398:	aa000002 	bge	3a8 <l108>

0000039c <l105>:
     39c:	e28010ab 	add	r1, r0, #171	; 0xab

000003a0 <l106>:
     3a0:	533b08df 	teqpl	fp, #14614528	; 0xdf0000

000003a4 <l107>:
     3a4:	ea000000 	b	3ac <l109>

000003a8 <l108>:
     3a8:	eafffffc 	b	3a0 <l106>

000003ac <l109>:
     3ac:	e0402374 	sub	r2, r0, r4, ror r3

000003b0 <l110>:
     3b0:	b2908521 	addslt	r8, r0, #138412032	; 0x8400000

000003b4 <l111>:
     3b4:	e3a0b006 	mov	fp, #6

000003b8 <l112>:
     3b8:	c11d50db 	ldrsbgt	r5, [sp, -fp]

000003bc <l113>:
     3bc:	53d3cdc9 	bicspl	ip, r3, #12864	; 0x3240

000003c0 <l114>:
     3c0:	e3a0a018 	mov	sl, #24

000003c4 <l115>:
     3c4:	e19d80ba 	ldrh	r8, [sp, sl]

000003c8 <l116>:
     3c8:	c196ce39 	orrsgt	ip, r6, r9, lsr lr

000003cc <l117>:
     3cc:	e274883f 	rsbs	r8, r4, #4128768	; 0x3f0000

000003d0 <l118>:
     3d0:	e05e106b 	subs	r1, lr, fp, rrx

000003d4 <l119>:
     3d4:	61c6a002 	bicvs	sl, r6, r2

000003d8 <l120>:
     3d8:	e3a04018 	mov	r4, #24

000003dc <l121>:
     3dc:	571d3004 	ldrpl	r3, [sp, -r4]

000003e0 <l122>:
     3e0:	e3a00022 	mov	r0, #34	; 0x22

000003e4 <l123>:
     3e4:	b7cd2000 	strblt	r2, [sp, r0]

000003e8 <l124>:
     3e8:	22242421 	eorcs	r2, r4, #553648128	; 0x21000000

000003ec <l125>:
     3ec:	e59f6000 	ldr	r6, [pc]	; 3f4 <l127>

000003f0 <l126>:
     3f0:	ea000000 	b	3f8 <l128>

000003f4 <l127>:
     3f4:	000fffcc 	.word	0x000fffcc

000003f8 <l128>:
     3f8:	e1064097 	swp	r4, r7, [r6]

000003fc <l129>:
     3fc:	1a000006 	bne	41c <l137>

00000400 <l130>:
     400:	e16f2f15 	clz	r2, r5

00000404 <l131>:
     404:	8003300c 	andhi	r3, r3, ip

00000408 <l132>:
     408:	216f7f18 	clzcs	r7, r8

0000040c <l133>:
     40c:	413e0eea 	teqmi	lr, sl, ror #29

00000410 <l134>:
     410:	30472013 	subcc	r2, r7, r3, lsl r0

00000414 <l135>:
     414:	939fc842 	orrsls	ip, pc, #4325376	; 0x420000

00000418 <l136>:
     418:	e0163067 	ands	r3, r6, r7, rrx

0000041c <l137>:
     41c:	e3e0b306 	mvn	fp, #402653184	; 0x18000000

00000420 <l138>:
     420:	e0eb0477 	rsc	r0, fp, r7, ror r4

00000424 <l139>:
     424:	e59fa000 	ldr	sl, [pc]	; 42c <l141>

00000428 <l140>:
     428:	ea000000 	b	430 <l142>

0000042c <l141>:
     42c:	000fffd8 	.word	0x000fffd8

00000430 <l142>:
     430:	e14a109c 	swpb	r1, ip, [sl]

00000434 <l143>:
     434:	e59f0000 	ldr	r0, [pc]	; 43c <l145>

00000438 <l144>:
     438:	ea000000 	b	440 <l146>

0000043c <l145>:
     43c:	000fffa0 	.word	0x000fffa0

00000440 <l146>:
     440:	31406099 	swpbcc	r6, r9, [r0]

00000444 <l147>:
     444:	e3a0c00e 	mov	ip, #14

00000448 <l148>:
     448:	711d30fc 	ldrshvc	r3, [sp, -ip]

0000044c <l149>:
     44c:	e3a03000 	mov	r3, #0

00000450 <l150>:
     450:	e7cda003 	strb	sl, [sp, r3]

00000454 <l151>:
     454:	e3a0e026 	mov	lr, #38	; 0x26

00000458 <l152>:
     458:	e19d00fe 	ldrsh	r0, [sp, lr]

0000045c <l153>:
     45c:	e3a0a027 	mov	sl, #39	; 0x27

00000460 <l154>:
     460:	419d30da 	ldrsbmi	r3, [sp, sl]

00000464 <l155>:
     464:	60a7ee89 	adcvs	lr, r7, r9, lsl #29

00000468 <l156>:
     468:	e3a05020 	mov	r5, #32

0000046c <l157>:
     46c:	e79d1005 	ldr	r1, [sp, r5]

00000470 <l158>:
     470:	81f02973 	mvnshi	r2, r3, ror r9

00000474 <l159>:
     474:	716f6f13 	clzvc	r6, r3

00000478 <l160>:
     478:	73f0829b 	mvnsvc	r8, #-1342177271	; 0xb0000009

0000047c <l161>:
     47c:	e3c52ebe 	bic	r2, r5, #3040	; 0xbe0

00000480 <l162>:
     480:	e188bec6 	orr	fp, r8, r6, asr #29

00000484 <l163>:
     484:	e5dd702c 	ldrb	r7, [sp, #44]	; 0x2c

00000488 <l164>:
     488:	e16f9f1c 	clz	r9, ip

0000048c <l165>:
     48c:	e3b0a406 	movs	sl, #100663296	; 0x6000000

00000490 <l166>:
     490:	1008300b 	andne	r3, r8, fp

00000494 <l167>:
     494:	50758009 	rsbspl	r8, r5, r9

00000498 <l168>:
     498:	155d9006 	ldrbne	r9, [sp, #-6]

0000049c <l169>:
     49c:	e48d602c 	str	r6, [sp], #44	; 0x2c

000004a0 <l170>:
     4a0:	e052ab31 	subs	sl, r2, r1, lsr fp

000004a4 <l171>:
     4a4:	e3a09007 	mov	r9, #7

000004a8 <l172>:
     4a8:	b19d60d9 	ldrsblt	r6, [sp, r9]

000004ac <l173>:
     4ac:	e3a08006 	mov	r8, #6

000004b0 <l174>:
     4b0:	511da0d8 	ldrsbpl	sl, [sp, -r8]

000004b4 <l175>:
     4b4:	e3a01029 	mov	r1, #41	; 0x29

000004b8 <l176>:
     4b8:	e11d50d1 	ldrsb	r5, [sp, -r1]

000004bc <l177>:
     4bc:	e3a05020 	mov	r5, #32

000004c0 <l178>:
     4c0:	e70d0005 	str	r0, [sp, -r5]

000004c4 <l179>:
     4c4:	e82de000 	stmda	sp!, {sp, lr, pc}

000004c8 <l180>:
     4c8:	a99d0016 	ldmibge	sp, {r1, r2, r4}

000004cc <l181>:
     4cc:	e0eac00a 	rsc	ip, sl, sl

000004d0 <l182>:
     4d0:	e3720269 	cmn	r2, #-1879048186	; 0x90000006

000004d4 <l183>:
     4d4:	e16f5f1b 	clz	r5, fp

000004d8 <l184>:
     4d8:	e2725523 	rsbs	r5, r2, #146800640	; 0x8c00000

000004dc <l185>:
     4dc:	e41d6028 	ldr	r6, [sp], #-40	; 0x28

000004e0 <l186>:
     4e0:	e5adc01c 	str	ip, [sp, #28]!

000004e4 <l187>:
     4e4:	e1b09002 	movs	r9, r2

000004e8 <l188>:
     4e8:	ca000006 	bgt	508 <l196>

000004ec <l189>:
     4ec:	e280102f 	add	r1, r0, #47	; 0x2f

000004f0 <l190>:
     4f0:	91d3200e 	bicsls	r2, r3, lr

000004f4 <l191>:
     4f4:	425bc406 	subsmi	ip, fp, #100663296	; 0x6000000

000004f8 <l192>:
     4f8:	91110ac5 	tstls	r1, r5, asr #21

000004fc <l193>:
     4fc:	e262c009 	rsb	ip, r2, #9

00000500 <l194>:
     500:	e1d3500b 	bics	r5, r3, fp

00000504 <l195>:
     504:	ea000000 	b	50c <l197>

00000508 <l196>:
     508:	eafffff8 	b	4f0 <l190>

0000050c <l197>:
     50c:	e59f3000 	ldr	r3, [pc]	; 514 <l199>

00000510 <l198>:
     510:	ea000000 	b	518 <l200>

00000514 <l199>:
     514:	000fffe4 	.word	0x000fffe4

00000518 <l200>:
     518:	e1035091 	swp	r5, r1, [r3]

0000051c <l201>:
     51c:	e3720c91 	cmn	r2, #37120	; 0x9100

00000520 <l202>:
     520:	e0761c18 	rsbs	r1, r6, r8, lsl ip

00000524 <l203>:
     524:	116f5f12 	clzne	r5, r2

00000528 <l204>:
     528:	ea000006 	b	548 <l212>

0000052c <l205>:
     52c:	e28010b2 	add	r1, r0, #178	; 0xb2

00000530 <l206>:
     530:	216fef19 	clzcs	lr, r9

00000534 <l207>:
     534:	e3760bfb 	cmn	r6, #257024	; 0x3ec00

00000538 <l208>:
     538:	e330002d 	teq	r0, #45	; 0x2d

0000053c <l209>:
     53c:	e16faf11 	clz	sl, r1

00000540 <l210>:
     540:	e1a0b065 	rrx	fp, r5

00000544 <l211>:
     544:	ea000000 	b	54c <l213>

00000548 <l212>:
     548:	eafffff8 	b	530 <l206>

0000054c <l213>:
     54c:	e3a02006 	mov	r2, #6

00000550 <l214>:
     550:	c11d40f2 	ldrshgt	r4, [sp, -r2]

00000554 <l215>:
     554:	e5dd0002 	ldrb	r0, [sp, #2]

00000558 <l216>:
     558:	3183c004 	orrcc	ip, r3, r4

0000055c <l217>:
     55c:	80d82373 	sbcshi	r2, r8, r3, ror r3

00000560 <l218>:
     560:	e2308995 	eors	r8, r0, #2441216	; 0x254000

00000564 <l219>:
     564:	e3a0a007 	mov	sl, #7

00000568 <l220>:
     568:	97cd700a 	strbls	r7, [sp, sl]

0000056c <l221>:
     56c:	e0b01847 	adcs	r1, r0, r7, asr #16

00000570 <l222>:
     570:	e3a09010 	mov	r9, #16

00000574 <l223>:
     574:	575d4009 	ldrbpl	r4, [sp, -r9]

00000578 <l224>:
     578:	80034a72 	andhi	r4, r3, r2, ror sl

0000057c <l225>:
     57c:	e15e0060 	cmp	lr, r0, rrx

00000580 <l226>:
     580:	aa000008 	bge	5a8 <l236>

00000584 <l227>:
     584:	b17e062e 	cmnlt	lr, lr, lsr #12

00000588 <l228>:
     588:	82ee3d73 	rschi	r3, lr, #7360	; 0x1cc0

0000058c <l229>:
     58c:	c08730a9 	addgt	r3, r7, r9, lsr #1

00000590 <l230>:
     590:	916f3f1b 	clzls	r3, fp

00000594 <l231>:
     594:	e0a25919 	adc	r5, r2, r9, lsl r9

00000598 <l232>:
     598:	10aa9ac1 	adcne	r9, sl, r1, asr #21

0000059c <l233>:
     59c:	e0b7067b 	adcs	r0, r7, fp, ror r6

000005a0 <l234>:
     5a0:	e26889ae 	rsb	r8, r8, #2850816	; 0x2b8000

000005a4 <l235>:
     5a4:	e0d888ec 	sbcs	r8, r8, ip, ror #17

000005a8 <l236>:
     5a8:	b16fcf18 	clzlt	ip, r8

000005ac <l237>:
     5ac:	e3a0b009 	mov	fp, #9

000005b0 <l238>:
     5b0:	575d300b 	ldrbpl	r3, [sp, -fp]

000005b4 <l239>:
     5b4:	c010c331 	andsgt	ip, r0, r1, lsr r3

000005b8 <l240>:
     5b8:	8a000004 	bhi	5d0 <l246>

000005bc <l241>:
     5bc:	20c75066 	sbccs	r5, r7, r6, rrx

000005c0 <l242>:
     5c0:	e2149801 	ands	r9, r4, #65536	; 0x10000

000005c4 <l243>:
     5c4:	e277373a 	rsbs	r3, r7, #15204352	; 0xe80000

000005c8 <l244>:
     5c8:	e17a0008 	cmn	sl, r8

000005cc <l245>:
     5cc:	e0cf5188 	sbc	r5, pc, r8, lsl #3

000005d0 <l246>:
     5d0:	4135030e 	teqmi	r5, lr, lsl #6

000005d4 <l247>:
     5d4:	e8bd0040 	ldmfd	sp!, {r6}

000005d8 <l248>:
     5d8:	e192200a 	orrs	r2, r2, sl

000005dc <l249>:
     5dc:	50c4e06b 	sbcpl	lr, r4, fp, rrx

000005e0 <l250>:
     5e0:	e0e60dc8 	rsc	r0, r6, r8, asr #27

000005e4 <l251>:
     5e4:	e0889589 	add	r9, r8, r9, lsl #11

000005e8 <l252>:
     5e8:	e3740403 	cmn	r4, #50331648	; 0x3000000

000005ec <l253>:
     5ec:	e59fa000 	ldr	sl, [pc]	; 5f4 <l255>

000005f0 <l254>:
     5f0:	ea000000 	b	5f8 <l256>

000005f4 <l255>:
     5f4:	000fffb4 	.word	0x000fffb4

000005f8 <l256>:
     5f8:	e14a6099 	swpb	r6, r9, [sl]

000005fc <l257>:
     5fc:	b2ca933a 	sbclt	r9, sl, #-402653184	; 0xe8000000

00000600 <l258>:
     600:	e1750064 	cmn	r5, r4, rrx

00000604 <l259>:
     604:	a31a0621 	tstge	sl, #34603008	; 0x2100000

00000608 <l260>:
     608:	e0cc8423 	sbc	r8, ip, r3, lsr #8

0000060c <l261>:
     60c:	e3a0900e 	mov	r9, #14

00000610 <l262>:
     610:	818d50b9 	strhhi	r5, [sp, r9]

00000614 <l263>:
     614:	01160009 	tsteq	r6, r9

00000618 <l264>:
     618:	e59f7000 	ldr	r7, [pc]	; 620 <l266>

0000061c <l265>:
     61c:	ea000000 	b	624 <l267>

00000620 <l266>:
     620:	000fffc0 	.word	0x000fffc0

00000624 <l267>:
     624:	8107209b 	swphi	r2, fp, [r7]

00000628 <l268>:
     628:	e1c0300e 	bic	r3, r0, lr

0000062c <l269>:
     62c:	116f9f15 	clzne	r9, r5

00000630 <l270>:
     630:	915d82ba 	ldrhls	r8, [sp, #-42]	; 0xffffffd6

00000634 <l271>:
     634:	e5bd8018 	ldr	r8, [sp, #24]!

00000638 <l272>:
     638:	e14d13b0 	strh	r1, [sp, #-48]	; 0xffffffd0

0000063c <l273>:
     63c:	b2f9063a 	rscslt	r0, r9, #60817408	; 0x3a00000

00000640 <l274>:
     640:	d09ca009 	addsle	sl, ip, r9

00000644 <l275>:
     644:	e82de000 	stmda	sp!, {sp, lr, pc}

00000648 <l276>:
     648:	e3a06004 	mov	r6, #4

0000064c <l277>:
     64c:	e74d4006 	strb	r4, [sp, -r6]

00000650 <l278>:
     650:	a1580000 	cmpge	r8, r0

00000654 <l279>:
     654:	e59f0000 	ldr	r0, [pc]	; 65c <l281>

00000658 <l280>:
     658:	ea000000 	b	660 <l282>

0000065c <l281>:
     65c:	000fffd4 	.word	0x000fffd4

00000660 <l282>:
     660:	e1007099 	swp	r7, r9, [r0]

00000664 <l283>:
     664:	e8ad1000 	stmia	sp!, {ip}

00000668 <l284>:
     668:	e14da3ba 	strh	sl, [sp, #-58]	; 0xffffffc6

0000066c <l285>:
     66c:	60a80b57 	adcvs	r0, r8, r7, asr fp

00000670 <l286>:
     670:	e21e1403 	ands	r1, lr, #50331648	; 0x3000000

00000674 <l287>:
     674:	e59f5000 	ldr	r5, [pc]	; 67c <l289>

00000678 <l288>:
     678:	ea000000 	b	680 <l290>

0000067c <l289>:
     67c:	000fffd0 	.word	0x000fffd0

00000680 <l290>:
     680:	e1456090 	swpb	r6, r0, [r5]

00000684 <l291>:
     684:	d15f0006 	cmple	pc, r6

00000688 <l292>:
     688:	e16f5f1b 	clz	r5, fp

0000068c <l293>:
     68c:	a0961385 	addsge	r1, r6, r5, lsl #7

00000690 <l294>:
     690:	e0c3b003 	sbc	fp, r3, r3

00000694 <l295>:
     694:	c00a4061 	andgt	r4, sl, r1, rrx

00000698 <l296>:
     698:	e59fa000 	ldr	sl, [pc]	; 6a0 <l298>

0000069c <l297>:
     69c:	ea000000 	b	6a4 <l299>

000006a0 <l298>:
     6a0:	000fffd4 	.word	0x000fffd4

000006a4 <l299>:
     6a4:	e10a6095 	swp	r6, r5, [sl]

000006a8 <l300>:
     6a8:	e3a02006 	mov	r2, #6

000006ac <l301>:
     6ac:	e19d60b2 	ldrh	r6, [sp, r2]

000006b0 <l302>:
     6b0:	e1a06125 	lsr	r6, r5, #2

000006b4 <l303>:
     6b4:	e1a0750e 	lsl	r7, lr, #10

000006b8 <l304>:
     6b8:	e1cea005 	bic	sl, lr, r5

000006bc <l305>:
     6bc:	b133006f 	teqlt	r3, pc, rrx

000006c0 <l306>:
     6c0:	e2988ba9 	adds	r8, r8, #173056	; 0x2a400

000006c4 <l307>:
     6c4:	50b31b5b 	adcspl	r1, r3, fp, asr fp

000006c8 <l308>:
     6c8:	71770b58 	cmnvc	r7, r8, asr fp

000006cc <l309>:
     6cc:	9a000002 	bls	6dc <l313>

000006d0 <l310>:
     6d0:	e280104f 	add	r1, r0, #79	; 0x4f

000006d4 <l311>:
     6d4:	7026a30b 	eorvc	sl, r6, fp, lsl #6

000006d8 <l312>:
     6d8:	ea000000 	b	6e0 <l314>

000006dc <l313>:
     6dc:	eafffffc 	b	6d4 <l311>

000006e0 <l314>:
     6e0:	7a000003 	bvc	6f4 <l319>

000006e4 <l315>:
     6e4:	e28010c1 	add	r1, r0, #193	; 0xc1

000006e8 <l316>:
     6e8:	e0d9c073 	sbcs	ip, r9, r3, ror r0

000006ec <l317>:
     6ec:	8319069e 	tsthi	r9, #165675008	; 0x9e00000

000006f0 <l318>:
     6f0:	ea000000 	b	6f8 <l320>

000006f4 <l319>:
     6f4:	eafffffb 	b	6e8 <l316>

000006f8 <l320>:
     6f8:	e16fbf13 	clz	fp, r3

000006fc <l321>:
     6fc:	e92d0802 	push	{r1, fp}

00000700 <l322>:
     700:	b0053c17 	andlt	r3, r5, r7, lsl ip

00000704 <l323>:
     704:	e37c0163 	cmn	ip, #-1073741800	; 0xc0000018

00000708 <l324>:
     708:	e0e1453c 	rsc	r4, r1, ip, lsr r5

0000070c <l325>:
     70c:	e59f2000 	ldr	r2, [pc]	; 714 <l327>

00000710 <l326>:
     710:	ea000000 	b	718 <l328>

00000714 <l327>:
     714:	000fffd8 	.word	0x000fffd8

00000718 <l328>:
     718:	a102809b 	swpge	r8, fp, [r2]

0000071c <l329>:
     71c:	e3a0a008 	mov	sl, #8

00000720 <l330>:
     720:	e7bd900a 	ldr	r9, [sp, sl]!

00000724 <l331>:
     724:	002c9055 	eoreq	r9, ip, r5, asr r0

00000728 <l332>:
     728:	b290503c 	addslt	r5, r0, #60	; 0x3c

0000072c <l333>:
     72c:	c133000f 	teqgt	r3, pc

00000730 <l334>:
     730:	e15d50d2 	ldrsb	r5, [sp, #-2]

00000734 <l335>:
     734:	32ce9239 	sbccc	r9, lr, #-1879048189	; 0x90000003

00000738 <l336>:
     738:	e3a0b028 	mov	fp, #40	; 0x28

0000073c <l337>:
     73c:	911d40fb 	ldrshls	r4, [sp, -fp]

00000740 <l338>:
     740:	e9bd0042 	ldmib	sp!, {r1, r6}

00000744 <l339>:
     744:	215e0060 	cmpcs	lr, r0, rrx

00000748 <l340>:
     748:	837a041e 	cmnhi	sl, #503316480	; 0x1e000000

0000074c <l341>:
     74c:	e3a0c028 	mov	ip, #40	; 0x28

00000750 <l342>:
     750:	e72dc00c 	str	ip, [sp, -ip]!

00000754 <l343>:
     754:	80eee27a 	rschi	lr, lr, sl, ror r2

00000758 <l344>:
     758:	b3f00135 	mvnslt	r0, #1073741837	; 0x4000000d

0000075c <l345>:
     75c:	e013cc54 	ands	ip, r3, r4, asr ip

00000760 <l346>:
     760:	611f0183 	tstvs	pc, r3, lsl #3

00000764 <l347>:
     764:	e0544116 	subs	r4, r4, r6, lsl r1

00000768 <l348>:
     768:	807ba7ef 	rsbshi	sl, fp, pc, ror #15

0000076c <l349>:
     76c:	e93d0347 	ldmdb	sp!, {r0, r1, r2, r6, r8, r9}

00000770 <l350>:
     770:	ca000007 	bgt	794 <l359>

00000774 <l351>:
     774:	213b0c3b 	teqcs	fp, fp, lsr ip

00000778 <l352>:
     778:	61590611 	cmpvs	r9, r1, lsl r6

0000077c <l353>:
     77c:	831a0a7d 	tsthi	sl, #512000	; 0x7d000

00000780 <l354>:
     780:	30df00c2 	sbcscc	r0, pc, r2, asr #1

00000784 <l355>:
     784:	53720c32 	cmnpl	r2, #12800	; 0x3200

00000788 <l356>:
     788:	516fef11 	clzpl	lr, r1

0000078c <l357>:
     78c:	e0d61e7a 	sbcs	r1, r6, sl, ror lr

00000790 <l358>:
     790:	100fe009 	andne	lr, pc, r9

00000794 <l359>:
     794:	e0416aac 	sub	r6, r1, ip, lsr #21

00000798 <l360>:
     798:	b1dd73de 	ldrsblt	r7, [sp, #62]	; 0x3e

0000079c <l361>:
     79c:	358d100c 	strcc	r1, [sp, #12]

000007a0 <l362>:
     7a0:	e0517a0b 	subs	r7, r1, fp, lsl #20

000007a4 <l363>:
     7a4:	e0bfb06f 	adcs	fp, pc, pc, rrx

000007a8 <l364>:
     7a8:	e1a00000 	nop			; (mov r0, r0)

000007ac <l365>:
     7ac:	e3a0800e 	mov	r8, #14

000007b0 <l366>:
     7b0:	019d70f8 	ldrsheq	r7, [sp, r8]

000007b4 <l367>:
     7b4:	e59f8000 	ldr	r8, [pc]	; 7bc <l369>

000007b8 <l368>:
     7b8:	ea000000 	b	7c0 <l370>

000007bc <l369>:
     7bc:	000fffb8 	.word	0x000fffb8

000007c0 <l370>:
     7c0:	a148c097 	swpbge	ip, r7, [r8]

000007c4 <l371>:
     7c4:	e1a0473a 	lsr	r4, sl, r7

000007c8 <l372>:
     7c8:	95dd1027 	ldrbls	r1, [sp, #39]	; 0x27

000007cc <l373>:
     7cc:	0a000000 	beq	7d4 <l375>

000007d0 <l374>:
     7d0:	71f0780c 	mvnsvc	r7, ip, lsl #16

000007d4 <l375>:
     7d4:	c2f80b1e 	rscsgt	r0, r8, #30720	; 0x7800

000007d8 <l376>:
     7d8:	e0e3e007 	rsc	lr, r3, r7

000007dc <l377>:
     7dc:	b1a0ef21 	lsrlt	lr, r1, #30

000007e0 <l378>:
     7e0:	e8ade000 	stmia	sp!, {sp, lr, pc}

000007e4 <l379>:
     7e4:	e59f1000 	ldr	r1, [pc]	; 7ec <l381>

000007e8 <l380>:
     7e8:	ea000000 	b	7f0 <l382>

000007ec <l381>:
     7ec:	000fffd4 	.word	0x000fffd4

000007f0 <l382>:
     7f0:	1101c099 	swpne	ip, r9, [r1]

000007f4 <l383>:
     7f4:	316f1f1b 	clzcc	r1, fp

000007f8 <l384>:
     7f8:	e0289009 	eor	r9, r8, r9

000007fc <l385>:
     7fc:	627c94cb 	rsbsvs	r9, ip, #-889192448	; 0xcb000000

00000800 <l386>:
     800:	e3a01010 	mov	r1, #16

00000804 <l387>:
     804:	e61d9001 	ldr	r9, [sp], -r1

00000808 <l388>:
     808:	e0e91005 	rsc	r1, r9, r5

0000080c <l389>:
     80c:	e1770472 	cmn	r7, r2, ror r4

00000810 <l390>:
     810:	e1dd41fa 	ldrsh	r4, [sp, #26]

00000814 <l391>:
     814:	e3a0302c 	mov	r3, #44	; 0x2c

00000818 <l392>:
     818:	e19d70b3 	ldrh	r7, [sp, r3]

0000081c <l393>:
     81c:	eaffffff 	b	820 <l394>

00000820 <l394>:
     820:	e08ce007 	add	lr, ip, r7

00000824 <l395>:
     824:	e1550881 	cmp	r5, r1, lsl #17

00000828 <l396>:
     828:	e3a0300a 	mov	r3, #10

0000082c <l397>:
     82c:	e7cd1003 	strb	r1, [sp, r3]

00000830 <l398>:
     830:	80c8762e 	sbchi	r7, r8, lr, lsr #12

00000834 <l399>:
     834:	e387360f 	orr	r3, r7, #15728640	; 0xf00000

00000838 <l400>:
     838:	e00b8a36 	and	r8, fp, r6, lsr sl

0000083c <l401>:
     83c:	e1dda1dd 	ldrsb	sl, [sp, #29]

00000840 <l402>:
     840:	30208006 	eorcc	r8, r0, r6

00000844 <l403>:
     844:	8a000000 	bhi	84c <l405>

00000848 <l404>:
     848:	31590b16 	cmpcc	r9, r6, lsl fp

0000084c <l405>:
     84c:	716f5f10 	clzvc	r5, r0

00000850 <l406>:
     850:	e59f4000 	ldr	r4, [pc]	; 858 <l408>

00000854 <l407>:
     854:	ea000000 	b	85c <l409>

00000858 <l408>:
     858:	000fffbc 	.word	0x000fffbc

0000085c <l409>:
     85c:	2144c090 	swpbcs	ip, r0, [r4]

00000860 <l410>:
     860:	e2bc640b 	adcs	r6, ip, #184549376	; 0xb000000

00000864 <l411>:
     864:	ea000006 	b	884 <l419>

00000868 <l412>:
     868:	b1936c4a 	orrslt	r6, r3, sl, asr #24

0000086c <l413>:
     86c:	9134005e 	teqls	r4, lr, asr r0

00000870 <l414>:
     870:	e17c0a70 	cmn	ip, r0, ror sl

00000874 <l415>:
     874:	83700045 	cmnhi	r0, #69	; 0x45

00000878 <l416>:
     878:	e3d0a103 	bics	sl, r0, #-1073741824	; 0xc0000000

0000087c <l417>:
     87c:	21110005 	tstcs	r1, r5

00000880 <l418>:
     880:	d2b2e4b1 	adcsle	lr, r2, #-1325400064	; 0xb1000000

00000884 <l419>:
     884:	e2d0a68a 	sbcs	sl, r0, #144703488	; 0x8a00000

00000888 <l420>:
     888:	115a0037 	cmpne	sl, r7, lsr r0

0000088c <l421>:
     88c:	e0034d8a 	and	r4, r3, sl, lsl #27

00000890 <l422>:
     890:	350d2004 	strcc	r2, [sp, #-4]

00000894 <l423>:
     894:	00b77e77 	adcseq	r7, r7, r7, ror lr

00000898 <l424>:
     898:	30ac700c 	adccc	r7, ip, ip

0000089c <l425>:
     89c:	e3a07042 	mov	r7, #66	; 0x42

000008a0 <l426>:
     8a0:	e7dd9007 	ldrb	r9, [sp, r7]

000008a4 <l427>:
     8a4:	e59fe000 	ldr	lr, [pc]	; 8ac <l429>

000008a8 <l428>:
     8a8:	ea000000 	b	8b0 <l430>

000008ac <l429>:
     8ac:	000fffdc 	.word	0x000fffdc

000008b0 <l430>:
     8b0:	e10e5092 	swp	r5, r2, [lr]

000008b4 <l431>:
     8b4:	e8bd57fb 	pop	{r0, r1, r3, r4, r5, r6, r7, r8, r9, sl, ip, lr}

000008b8 <l432>:
     8b8:	00b95678 	adcseq	r5, r9, r8, ror r6

000008bc <l433>:
     8bc:	e038200a 	eors	r2, r8, sl

000008c0 <l434>:
     8c0:	e3a0c010 	mov	ip, #16

000008c4 <l435>:
     8c4:	919db0bc 	ldrhls	fp, [sp, ip]

000008c8 <l436>:
     8c8:	3affffff 	bcc	8cc <l437>

000008cc <l437>:
     8cc:	a0de8007 	sbcsge	r8, lr, r7

000008d0 <l438>:
     8d0:	e14d62ba 	strh	r6, [sp, #-42]	; 0xffffffd6

000008d4 <l439>:
     8d4:	e83d0ebd 	ldmda	sp!, {r0, r2, r3, r4, r5, r7, r9, sl, fp}

000008d8 <l440>:
     8d8:	e38ba126 	orr	sl, fp, #-2147483639	; 0x80000009

000008dc <l441>:
     8dc:	e0eaac7c 	rsc	sl, sl, ip, ror ip

000008e0 <l442>:
     8e0:	5010c06f 	andspl	ip, r0, pc, rrx

000008e4 <l443>:
     8e4:	e3a0b008 	mov	fp, #8

000008e8 <l444>:
     8e8:	179d300b 	ldrne	r3, [sp, fp]

000008ec <l445>:
     8ec:	42fb5bfa 	rscsmi	r5, fp, #256000	; 0x3e800

000008f0 <l446>:
     8f0:	e16fcf11 	clz	ip, r1

000008f4 <l447>:
     8f4:	e240c652 	sub	ip, r0, #85983232	; 0x5200000

000008f8 <l448>:
     8f8:	e063400a 	rsb	r4, r3, sl

000008fc <l449>:
     8fc:	e59f3000 	ldr	r3, [pc]	; 904 <l451>

00000900 <l450>:
     900:	ea000000 	b	908 <l452>

00000904 <l451>:
     904:	000fffbc 	.word	0x000fffbc

00000908 <l452>:
     908:	c143b09e 	swpbgt	fp, lr, [r3]

0000090c <l453>:
     90c:	50d60054 	sbcspl	r0, r6, r4, asr r0

00000910 <l454>:
     910:	e15e0004 	cmp	lr, r4

00000914 <l455>:
     914:	e1dc7064 	bics	r7, ip, r4, rrx

00000918 <l456>:
     918:	915e000a 	cmpls	lr, sl

0000091c <l457>:
     91c:	33997b95 	orrscc	r7, r9, #152576	; 0x25400

00000920 <l458>:
     920:	e9bd5fdf 	ldmib	sp!, {r0, r1, r2, r3, r4, r6, r7, r8, r9, sl, fp, ip, lr}

00000924 <l459>:
     924:	e3a0c044 	mov	ip, #68	; 0x44

00000928 <l460>:
     928:	e60d400c 	str	r4, [sp], -ip

0000092c <l461>:
     92c:	e3a0501b 	mov	r5, #27

00000930 <l462>:
     930:	27ddc005 	ldrbcs	ip, [sp, r5]

00000934 <l463>:
     934:	e8bd0813 	pop	{r0, r1, r4, fp}

00000938 <l464>:
     938:	a16f7f14 	clzge	r7, r4

0000093c <l465>:
     93c:	e3a06000 	mov	r6, #0

00000940 <l466>:
     940:	e7cd2006 	strb	r2, [sp, r6]

00000944 <l467>:
     944:	20dbc873 	sbcscs	ip, fp, r3, ror r8

00000948 <l468>:
     948:	6358043b 	cmpvs	r8, #989855744	; 0x3b000000

0000094c <l469>:
     94c:	7a000002 	bvc	95c <l473>

00000950 <l470>:
     950:	e2801029 	add	r1, r0, #41	; 0x29

00000954 <l471>:
     954:	e0a63a73 	adc	r3, r6, r3, ror sl

00000958 <l472>:
     958:	ea000000 	b	960 <l474>

0000095c <l473>:
     95c:	eafffffc 	b	954 <l471>

00000960 <l474>:
     960:	e5ad6034 	str	r6, [sp, #52]!	; 0x34

00000964 <l475>:
     964:	81e01a7a 	mvnhi	r1, sl, ror sl

00000968 <l476>:
     968:	e3a0e001 	mov	lr, #1

0000096c <l477>:
     96c:	e19d10de 	ldrsb	r1, [sp, lr]

00000970 <l478>:
     970:	ea000006 	b	990 <l486>

00000974 <l479>:
     974:	b1d3c061 	bicslt	ip, r3, r1, rrx

00000978 <l480>:
     978:	e1390000 	teq	r9, r0

0000097c <l481>:
     97c:	9057ade2 	subsls	sl, r7, r2, ror #27

00000980 <l482>:
     980:	6018306b 	andsvs	r3, r8, fp, rrx

00000984 <l483>:
     984:	e0ee200e 	rsc	r2, lr, lr

00000988 <l484>:
     988:	e1cb4008 	bic	r4, fp, r8

0000098c <l485>:
     98c:	e02ec005 	eor	ip, lr, r5

00000990 <l486>:
     990:	e0a6900a 	adc	r9, r6, sl

00000994 <l487>:
     994:	e92d928b 	push	{r0, r1, r3, r7, r9, ip, pc}

00000998 <l488>:
     998:	e0a3e87a 	adc	lr, r3, sl, ror r8

0000099c <l489>:
     99c:	e22723d5 	eor	r2, r7, #1409286147	; 0x54000003

000009a0 <l490>:
     9a0:	e1b0431a 	lsls	r4, sl, r3

000009a4 <l491>:
     9a4:	e59f2000 	ldr	r2, [pc]	; 9ac <l493>

000009a8 <l492>:
     9a8:	ea000000 	b	9b0 <l494>

000009ac <l493>:
     9ac:	000fffd8 	.word	0x000fffd8

000009b0 <l494>:
     9b0:	71428096 	swpbvc	r8, r6, [r2]

000009b4 <l495>:
     9b4:	320bc349 	andcc	ip, fp, #603979777	; 0x24000001

000009b8 <l496>:
     9b8:	62029ff2 	andvs	r9, r2, #968	; 0x3c8

000009bc <l497>:
     9bc:	e1a05006 	mov	r5, r6

000009c0 <l498>:
     9c0:	11cd60b8 	strhne	r6, [sp, #8]

000009c4 <l499>:
     9c4:	43350725 	teqmi	r5, #9699328	; 0x940000

000009c8 <l500>:
     9c8:	81d57007 	bicshi	r7, r5, r7

000009cc <l501>:
     9cc:	e0474005 	sub	r4, r7, r5

000009d0 <l502>:
     9d0:	81cc3064 	bichi	r3, ip, r4, rrx

000009d4 <l503>:
     9d4:	4a000002 	bmi	9e4 <l507>

000009d8 <l504>:
     9d8:	e2801040 	add	r1, r0, #64	; 0x40

000009dc <l505>:
     9dc:	8016c004 	andshi	ip, r6, r4

000009e0 <l506>:
     9e0:	ea000000 	b	9e8 <l508>

000009e4 <l507>:
     9e4:	eafffffc 	b	9dc <l505>

000009e8 <l508>:
     9e8:	e1570c51 	cmp	r7, r1, asr ip

000009ec <l509>:
     9ec:	93a06e7b 	movls	r6, #1968	; 0x7b0

000009f0 <l510>:
     9f0:	899d0022 	ldmibhi	sp, {r1, r5}

000009f4 <l511>:
     9f4:	e25b60e9 	subs	r6, fp, #233	; 0xe9

000009f8 <l512>:
     9f8:	b16fef18 	clzlt	lr, r8

000009fc <l513>:
     9fc:	b16f3f11 	clzlt	r3, r1

00000a00 <l514>:
     a00:	ea000005 	b	a1c <l521>

00000a04 <l515>:
     a04:	e3ccc411 	bic	ip, ip, #285212672	; 0x11000000

00000a08 <l516>:
     a08:	e31105e2 	tst	r1, #947912704	; 0x38800000

00000a0c <l517>:
     a0c:	e135007a 	teq	r5, sl, ror r0

00000a10 <l518>:
     a10:	e17a0000 	cmn	sl, r0

00000a14 <l519>:
     a14:	d1808543 	orrle	r8, r0, r3, asr #10

00000a18 <l520>:
     a18:	705a806f 	subsvc	r8, sl, pc, rrx

00000a1c <l521>:
     a1c:	e0f1a227 	rscs	sl, r1, r7, lsr #4

00000a20 <l522>:
     a20:	ea000001 	b	a2c <l525>

00000a24 <l523>:
     a24:	e2b3c245 	adcs	ip, r3, #1342177284	; 0x50000004

00000a28 <l524>:
     a28:	205b5066 	subscs	r5, fp, r6, rrx

00000a2c <l525>:
     a2c:	e37a0413 	cmn	sl, #318767104	; 0x13000000

00000a30 <l526>:
     a30:	10e3900b 	rscne	r9, r3, fp

00000a34 <l527>:
     a34:	52d3a333 	sbcspl	sl, r3, #-872415232	; 0xcc000000

00000a38 <l528>:
     a38:	017f0000 	cmneq	pc, r0

00000a3c <l529>:
     a3c:	e0b0c069 	adcs	ip, r0, r9, rrx

00000a40 <l530>:
     a40:	e1db7de8 	bics	r7, fp, r8, ror #27

00000a44 <l531>:
     a44:	259dc018 	ldrcs	ip, [sp, #24]

00000a48 <l532>:
     a48:	c05743a7 	subsgt	r4, r7, r7, lsr #7

00000a4c <l533>:
     a4c:	a072a00b 	rsbsge	sl, r2, fp

00000a50 <l534>:
     a50:	e1b0000b 	movs	r0, fp

00000a54 <l535>:
     a54:	921770f5 	andsls	r7, r7, #245	; 0xf5

00000a58 <l536>:
     a58:	11a0b06a 	rrxne	fp, sl

00000a5c <l537>:
     a5c:	e0244063 	eor	r4, r4, r3, rrx

00000a60 <l538>:
     a60:	a0448008 	subge	r8, r4, r8

00000a64 <l539>:
     a64:	e3a0a007 	mov	sl, #7

00000a68 <l540>:
     a68:	e19db0da 	ldrsb	fp, [sp, sl]

00000a6c <l541>:
     a6c:	e16f2f10 	clz	r2, r0

00000a70 <l542>:
     a70:	e24ebfd3 	sub	fp, lr, #844	; 0x34c

00000a74 <l543>:
     a74:	e3a0001d 	mov	r0, #29

00000a78 <l544>:
     a78:	d19d90d0 	ldrsble	r9, [sp, r0]

00000a7c <l545>:
     a7c:	e9ad0052 	stmib	sp!, {r1, r4, r6}

00000a80 <l546>:
     a80:	433f026b 	teqmi	pc, #-1342177274	; 0xb0000006

00000a84 <l547>:
     a84:	ba000006 	blt	aa4 <l555>

00000a88 <l548>:
     a88:	e2801055 	add	r1, r0, #85	; 0x55

00000a8c <l549>:
     a8c:	d2f682d5 	rscsle	r8, r6, #1342177293	; 0x5000000d

00000a90 <l550>:
     a90:	61f0500c 	mvnsvs	r5, ip

00000a94 <l551>:
     a94:	20eb8131 	rsccs	r8, fp, r1, lsr r1

00000a98 <l552>:
     a98:	10f56000 	rscsne	r6, r5, r0

00000a9c <l553>:
     a9c:	205bab7e 	subscs	sl, fp, lr, ror fp

00000aa0 <l554>:
     aa0:	ea000000 	b	aa8 <l556>

00000aa4 <l555>:
     aa4:	eafffff8 	b	a8c <l549>

00000aa8 <l556>:
     aa8:	e59f8000 	ldr	r8, [pc]	; ab0 <l558>

00000aac <l557>:
     aac:	ea000000 	b	ab4 <l559>

00000ab0 <l558>:
     ab0:	000fffac 	.word	0x000fffac

00000ab4 <l559>:
     ab4:	6108009a 	swpvs	r0, sl, [r8]

00000ab8 <l560>:
     ab8:	e15d02d3 	ldrsb	r0, [sp, #-35]	; 0xffffffdd

00000abc <l561>:
     abc:	e29048e1 	adds	r4, r0, #14745600	; 0xe10000

00000ac0 <l562>:
     ac0:	e3120dfd 	tst	r2, #16192	; 0x3f40

00000ac4 <l563>:
     ac4:	b0e2052a 	rsclt	r0, r2, sl, lsr #10

00000ac8 <l564>:
     ac8:	e3a03016 	mov	r3, #22

00000acc <l565>:
     acc:	e19da0f3 	ldrsh	sl, [sp, r3]

00000ad0 <l566>:
     ad0:	e59f9000 	ldr	r9, [pc]	; ad8 <l568>

00000ad4 <l567>:
     ad4:	ea000000 	b	adc <l569>

00000ad8 <l568>:
     ad8:	000fffdc 	.word	0x000fffdc

00000adc <l569>:
     adc:	d149e095 	swpble	lr, r5, [r9]

00000ae0 <l570>:
     ae0:	e59f3000 	ldr	r3, [pc]	; ae8 <l572>

00000ae4 <l571>:
     ae4:	ea000000 	b	aec <l573>

00000ae8 <l572>:
     ae8:	000fffd0 	.word	0x000fffd0

00000aec <l573>:
     aec:	8143809e 	swpbhi	r8, lr, [r3]

00000af0 <l574>:
     af0:	e9ad8000 	stmib	sp!, {pc}

00000af4 <l575>:
     af4:	e55d5034 	ldrb	r5, [sp, #-52]	; 0x34

00000af8 <l576>:
     af8:	315f0120 	cmpcc	pc, r0, lsr #2

00000afc <l577>:
     afc:	91330c37 	teqls	r3, r7, lsr ip

00000b00 <l578>:
     b00:	e1500003 	cmp	r0, r3

00000b04 <l579>:
     b04:	e18c1002 	orr	r1, ip, r2

00000b08 <l580>:
     b08:	303c0002 	eorscc	r0, ip, r2

00000b0c <l581>:
     b0c:	e14d20b2 	strh	r2, [sp, #-2]

00000b10 <l582>:
     b10:	e05b99ec 	subs	r9, fp, ip, ror #19

00000b14 <l583>:
     b14:	e0484425 	sub	r4, r8, r5, lsr #8

00000b18 <l584>:
     b18:	1389062e 	orrne	r0, r9, #48234496	; 0x2e00000

00000b1c <l585>:
     b1c:	e17307c3 	cmn	r3, r3, asr #15

00000b20 <l586>:
     b20:	e2a9c43a 	adc	ip, r9, #973078528	; 0x3a000000

00000b24 <l587>:
     b24:	e3a07004 	mov	r7, #4

00000b28 <l588>:
     b28:	e68d0007 	str	r0, [sp], r7

00000b2c <l589>:
     b2c:	21d1b005 	bicscs	fp, r1, r5

00000b30 <l590>:
     b30:	11dd70b8 	ldrhne	r7, [sp, #8]

00000b34 <l591>:
     b34:	717a0003 	cmnvc	sl, r3

00000b38 <l592>:
     b38:	ba000000 	blt	b40 <l594>

00000b3c <l593>:
     b3c:	e0c23002 	sbc	r3, r2, r2

00000b40 <l594>:
     b40:	40104236 	andsmi	r4, r0, r6, lsr r2

00000b44 <l595>:
     b44:	40e16065 	rscmi	r6, r1, r5, rrx

00000b48 <l596>:
     b48:	115d92b6 	ldrhne	r9, [sp, #-38]	; 0xffffffda

00000b4c <l597>:
     b4c:	e1a0e062 	rrx	lr, r2

00000b50 <l598>:
     b50:	d1780000 	cmnle	r8, r0

00000b54 <l599>:
     b54:	507c7065 	rsbspl	r7, ip, r5, rrx

00000b58 <l600>:
     b58:	e3540009 	cmp	r4, #9

00000b5c <l601>:
     b5c:	e15b0921 	cmp	fp, r1, lsr #18

00000b60 <l602>:
     b60:	e3a02006 	mov	r2, #6

00000b64 <l603>:
     b64:	e19d60b2 	ldrh	r6, [sp, r2]

00000b68 <l604>:
     b68:	e1a06ecb 	asr	r6, fp, #29

00000b6c <l605>:
     b6c:	e3c5cbd2 	bic	ip, r5, #215040	; 0x34800

00000b70 <l606>:
     b70:	00b11002 	adcseq	r1, r1, r2

00000b74 <l607>:
     b74:	7a000000 	bvc	b7c <l609>

00000b78 <l608>:
     b78:	00427007 	subeq	r7, r2, r7

00000b7c <l609>:
     b7c:	e1819003 	orr	r9, r1, r3

00000b80 <l610>:
     b80:	e2c57d95 	sbc	r7, r5, #9536	; 0x2540

00000b84 <l611>:
     b84:	a1500eca 	cmpge	r0, sl, asr #29

00000b88 <l612>:
     b88:	71b0c5c0 	asrsvc	ip, r0, #11

00000b8c <l613>:
     b8c:	e3a00021 	mov	r0, #33	; 0x21

00000b90 <l614>:
     b90:	a74d5000 	strbge	r5, [sp, -r0]

00000b94 <l615>:
     b94:	e13f016c 	teq	pc, ip, ror #2

00000b98 <l616>:
     b98:	824992be 	subhi	r9, r9, #-536870901	; 0xe000000b

00000b9c <l617>:
     b9c:	e3300cbe 	teq	r0, #48640	; 0xbe00

00000ba0 <l618>:
     ba0:	e3a08005 	mov	r8, #5

00000ba4 <l619>:
     ba4:	e75db008 	ldrb	fp, [sp, -r8]

00000ba8 <l620>:
     ba8:	e3a08024 	mov	r8, #36	; 0x24

00000bac <l621>:
     bac:	e60d4008 	str	r4, [sp], -r8

00000bb0 <l622>:
     bb0:	e02ae002 	eor	lr, sl, r2

00000bb4 <l623>:
     bb4:	33c153cb 	biccc	r5, r1, #738197507	; 0x2c000003

00000bb8 <l624>:
     bb8:	e01e7003 	ands	r7, lr, r3

00000bbc <l625>:
     bbc:	e2d6a5c6 	sbcs	sl, r6, #830472192	; 0x31800000

00000bc0 <l626>:
     bc0:	a59d0000 	ldrge	r0, [sp]

00000bc4 <l627>:
     bc4:	e59f5000 	ldr	r5, [pc]	; bcc <l629>

00000bc8 <l628>:
     bc8:	ea000000 	b	bd0 <l630>

00000bcc <l629>:
     bcc:	000fffe8 	.word	0x000fffe8

00000bd0 <l630>:
     bd0:	e105b09c 	swp	fp, ip, [r5]

00000bd4 <l631>:
     bd4:	e203619d 	and	r6, r3, #1073741863	; 0x40000027

00000bd8 <l632>:
     bd8:	6184bb75 	orrvs	fp, r4, r5, ror fp

00000bdc <l633>:
     bdc:	e2098965 	and	r8, r9, #1654784	; 0x194000

00000be0 <l634>:
     be0:	c16f0f10 	clzgt	r0, r0

00000be4 <l635>:
     be4:	e3e09a9b 	mvn	r9, #634880	; 0x9b000

00000be8 <l636>:
     be8:	b15a0571 	cmplt	sl, r1, ror r5

00000bec <l637>:
     bec:	e1dda0d2 	ldrsb	sl, [sp, #2]

00000bf0 <l638>:
     bf0:	616fbf1b 	clzvs	fp, fp

00000bf4 <l639>:
     bf4:	e13c0635 	teq	ip, r5, lsr r6

00000bf8 <l640>:
     bf8:	326ec28a 	rsbcc	ip, lr, #-1610612728	; 0xa0000008

00000bfc <l641>:
     bfc:	e003c068 	and	ip, r3, r8, rrx

00000c00 <l642>:
     c00:	5018932b 	andspl	r9, r8, fp, lsr #6

00000c04 <l643>:
     c04:	655d2005 	ldrbvs	r2, [sp, #-5]

00000c08 <l644>:
     c08:	e59f9000 	ldr	r9, [pc]	; c10 <l646>

00000c0c <l645>:
     c0c:	ea000000 	b	c14 <l647>

00000c10 <l646>:
     c10:	000fffa4 	.word	0x000fffa4

00000c14 <l647>:
     c14:	e1491090 	swpb	r1, r0, [r9]

00000c18 <l648>:
     c18:	3affffff 	bcc	c1c <l649>

00000c1c <l649>:
     c1c:	e1900068 	orrs	r0, r0, r8, rrx

00000c20 <l650>:
     c20:	e8addd36 	stmia	sp!, {r1, r2, r4, r5, r8, sl, fp, ip, lr, pc}

00000c24 <l651>:
     c24:	2068b985 	rsbcs	fp, r8, r5, lsl #19

00000c28 <l652>:
     c28:	e15d21fa 	ldrsh	r2, [sp, #-26]	; 0xffffffe6

00000c2c <l653>:
     c2c:	820f642e 	andhi	r6, pc, #771751936	; 0x2e000000

00000c30 <l654>:
     c30:	e1a05c1e 	lsl	r5, lr, ip

00000c34 <l655>:
     c34:	e3a05004 	mov	r5, #4

00000c38 <l656>:
     c38:	e19dc0f5 	ldrsh	ip, [sp, r5]

00000c3c <l657>:
     c3c:	a1cda0b2 	strhge	sl, [sp, #2]

00000c40 <l658>:
     c40:	b091200f 	addslt	r2, r1, pc

00000c44 <l659>:
     c44:	83937a05 	orrshi	r7, r3, #20480	; 0x5000

00000c48 <l660>:
     c48:	1280132e 	addne	r1, r0, #-1207959552	; 0xb8000000

00000c4c <l661>:
     c4c:	e54d9034 	strb	r9, [sp, #-52]	; 0x34

00000c50 <l662>:
     c50:	606a1758 	rsbvs	r1, sl, r8, asr r7

00000c54 <l663>:
     c54:	e084122e 	add	r1, r4, lr, lsr #4

00000c58 <l664>:
     c58:	e2b46b1e 	adcs	r6, r4, #30720	; 0x7800

00000c5c <l665>:
     c5c:	858d3004 	strhi	r3, [sp, #4]

00000c60 <l666>:
     c60:	311b0278 	tstcc	fp, r8, ror r2

00000c64 <l667>:
     c64:	b17c0063 	cmnlt	ip, r3, rrx

00000c68 <l668>:
     c68:	e93d47df 	ldmdb	sp!, {r0, r1, r2, r3, r4, r6, r7, r8, r9, sl, lr}

00000c6c <l669>:
     c6c:	e82d0110 	stmda	sp!, {r4, r8}

00000c70 <l670>:
     c70:	e3a09030 	mov	r9, #48	; 0x30

00000c74 <l671>:
     c74:	619de0b9 	ldrhvs	lr, [sp, r9]

00000c78 <l672>:
     c78:	40512001 	subsmi	r2, r1, r1

00000c7c <l673>:
     c7c:	23d80037 	bicscs	r0, r8, #55	; 0x37

00000c80 <l674>:
     c80:	10dac961 	sbcsne	ip, sl, r1, ror #18

00000c84 <l675>:
     c84:	2a000008 	bcs	cac <l685>

00000c88 <l676>:
     c88:	e151006a 	cmp	r1, sl, rrx

00000c8c <l677>:
     c8c:	21cb38e4 	biccs	r3, fp, r4, ror #17

00000c90 <l678>:
     c90:	e2ba8eee 	adcs	r8, sl, #3808	; 0xee0

00000c94 <l679>:
     c94:	a078c30a 	rsbsge	ip, r8, sl, lsl #6

00000c98 <l680>:
     c98:	a13b000a 	teqge	fp, sl

00000c9c <l681>:
     c9c:	10c64064 	sbcne	r4, r6, r4, rrx

00000ca0 <l682>:
     ca0:	e1700756 	cmn	r0, r6, asr r7

00000ca4 <l683>:
     ca4:	e049b224 	sub	fp, r9, r4, lsr #4

00000ca8 <l684>:
     ca8:	917c0007 	cmnls	ip, r7

00000cac <l685>:
     cac:	a31a0dba 	tstge	sl, #11904	; 0x2e80

00000cb0 <l686>:
     cb0:	e8bd0001 	ldmfd	sp!, {r0}

00000cb4 <l687>:
     cb4:	e59f6000 	ldr	r6, [pc]	; cbc <l689>

00000cb8 <l688>:
     cb8:	ea000000 	b	cc0 <l690>

00000cbc <l689>:
     cbc:	000fffa8 	.word	0x000fffa8

00000cc0 <l690>:
     cc0:	a106b09a 	swpge	fp, sl, [r6]

00000cc4 <l691>:
     cc4:	935f003b 	cmpls	pc, #59	; 0x3b

00000cc8 <l692>:
     cc8:	e1d1a00a 	bics	sl, r1, sl

00000ccc <l693>:
     ccc:	108a406a 	addne	r4, sl, sl, rrx

00000cd0 <l694>:
     cd0:	d2fb1559 	rscsle	r1, fp, #373293056	; 0x16400000

00000cd4 <l695>:
     cd4:	316f2f19 	clzcc	r2, r9

00000cd8 <l696>:
     cd8:	61f0ad22 	mvnsvs	sl, r2, lsr #26

00000cdc <l697>:
     cdc:	117f0003 	cmnne	pc, r3

00000ce0 <l698>:
     ce0:	e0754de8 	rsbs	r4, r5, r8, ror #27

00000ce4 <l699>:
     ce4:	e3a0e02c 	mov	lr, #44	; 0x2c

00000ce8 <l700>:
     ce8:	319d30de 	ldrsbcc	r3, [sp, lr]

00000cec <l701>:
     cec:	e01a600c 	ands	r6, sl, ip

00000cf0 <l702>:
     cf0:	e59f4000 	ldr	r4, [pc]	; cf8 <l704>

00000cf4 <l703>:
     cf4:	ea000000 	b	cfc <l705>

00000cf8 <l704>:
     cf8:	000fffcc 	.word	0x000fffcc

00000cfc <l705>:
     cfc:	51440096 	swpbpl	r0, r6, [r4]

00000d00 <l706>:
     d00:	e48d9004 	str	r9, [sp], #4

00000d04 <l707>:
     d04:	e0c2463b 	sbc	r4, r2, fp, lsr r6

00000d08 <l708>:
     d08:	e8ad2000 	stmia	sp!, {sp}

00000d0c <l709>:
     d0c:	5a000002 	bpl	d1c <l713>

00000d10 <l710>:
     d10:	e280102f 	add	r1, r0, #47	; 0x2f

00000d14 <l711>:
     d14:	31c80410 	biccc	r0, r8, r0, lsl r4

00000d18 <l712>:
     d18:	ea000000 	b	d20 <l714>

00000d1c <l713>:
     d1c:	eafffffc 	b	d14 <l711>

00000d20 <l714>:
     d20:	e59fc000 	ldr	ip, [pc]	; d28 <l716>

00000d24 <l715>:
     d24:	ea000000 	b	d2c <l717>

00000d28 <l716>:
     d28:	000fffc8 	.word	0x000fffc8

00000d2c <l717>:
     d2c:	114ca099 	swpbne	sl, r9, [ip]

00000d30 <l718>:
     d30:	e3a04003 	mov	r4, #3

00000d34 <l719>:
     d34:	311da0d4 	ldrsbcc	sl, [sp, -r4]

00000d38 <l720>:
     d38:	2a000000 	bcs	d40 <l722>

00000d3c <l721>:
     d3c:	e1f07976 	mvns	r7, r6, ror r9

00000d40 <l722>:
     d40:	91120452 	tstls	r2, r2, asr r4

00000d44 <l723>:
     d44:	e3a05008 	mov	r5, #8

00000d48 <l724>:
     d48:	e7bd9005 	ldr	r9, [sp, r5]!

00000d4c <l725>:
     d4c:	e1f0e000 	mvns	lr, r0

00000d50 <l726>:
     d50:	e40d801c 	str	r8, [sp], #-28

00000d54 <l727>:
     d54:	e0a17006 	adc	r7, r1, r6

00000d58 <l728>:
     d58:	a15b031a 	cmpge	fp, sl, lsl r3

00000d5c <l729>:
     d5c:	e0ebe00a 	rsc	lr, fp, sl

00000d60 <l730>:
     d60:	e1180063 	tst	r8, r3, rrx

00000d64 <l731>:
     d64:	d2705e2b 	rsbsle	r5, r0, #688	; 0x2b0

00000d68 <l732>:
     d68:	e3a0b030 	mov	fp, #48	; 0x30

00000d6c <l733>:
     d6c:	919d60bb 	ldrhls	r6, [sp, fp]

00000d70 <l734>:
     d70:	e8bd1bdf 	pop	{r0, r1, r2, r3, r4, r6, r7, r8, r9, fp, ip}

00000d74 <l735>:
     d74:	e9ad9010 	stmib	sp!, {r4, ip, pc}

00000d78 <l736>:
     d78:	ea000004 	b	d90 <l742>

00000d7c <l737>:
     d7c:	e280108c 	add	r1, r0, #140	; 0x8c

00000d80 <l738>:
     d80:	d1f0e00e 	mvnsle	lr, lr

00000d84 <l739>:
     d84:	0058a069 	subseq	sl, r8, r9, rrx

00000d88 <l740>:
     d88:	e0c36c8a 	sbc	r6, r3, sl, lsl #25

00000d8c <l741>:
     d8c:	ea000000 	b	d94 <l743>

00000d90 <l742>:
     d90:	eafffffa 	b	d80 <l738>

00000d94 <l743>:
     d94:	e3a0301c 	mov	r3, #28

00000d98 <l744>:
     d98:	e71d6003 	ldr	r6, [sp, -r3]

00000d9c <l745>:
     d9c:	e59f5000 	ldr	r5, [pc]	; da4 <l747>

00000da0 <l746>:
     da0:	ea000000 	b	da8 <l748>

00000da4 <l747>:
     da4:	000fffc0 	.word	0x000fffc0

00000da8 <l748>:
     da8:	e1450092 	swpb	r0, r2, [r5]

00000dac <l749>:
     dac:	ea000006 	b	dcc <l757>

00000db0 <l750>:
     db0:	e28010bd 	add	r1, r0, #189	; 0xbd

00000db4 <l751>:
     db4:	31c25e34 	biccc	r5, r2, r4, lsr lr

00000db8 <l752>:
     db8:	e0be6338 	adcs	r6, lr, r8, lsr r3

00000dbc <l753>:
     dbc:	a007070a 	andge	r0, r7, sl, lsl #14

00000dc0 <l754>:
     dc0:	e152070f 	cmp	r2, pc, lsl #14

00000dc4 <l755>:
     dc4:	62914017 	addsvs	r4, r1, #23

00000dc8 <l756>:
     dc8:	ea000000 	b	dd0 <l758>

00000dcc <l757>:
     dcc:	eafffff8 	b	db4 <l751>

00000dd0 <l758>:
     dd0:	e048aa59 	sub	sl, r8, r9, asr sl

00000dd4 <l759>:
     dd4:	e13b0731 	teq	fp, r1, lsr r7

00000dd8 <l760>:
     dd8:	e2e7a91d 	rsc	sl, r7, #475136	; 0x74000

00000ddc <l761>:
     ddc:	c15dc2be 	ldrhgt	ip, [sp, #-46]	; 0xffffffd2

00000de0 <l762>:
     de0:	e0d20b2a 	sbcs	r0, r2, sl, lsr #22

00000de4 <l763>:
     de4:	e0b92505 	adcs	r2, r9, r5, lsl #10

00000de8 <l764>:
     de8:	e59f9000 	ldr	r9, [pc]	; df0 <l766>

00000dec <l765>:
     dec:	ea000000 	b	df4 <l767>

00000df0 <l766>:
     df0:	000fffa0 	.word	0x000fffa0

00000df4 <l767>:
     df4:	e149c09c 	swpb	ip, ip, [r9]

00000df8 <l768>:
     df8:	b0947c15 	addslt	r7, r4, r5, lsl ip

00000dfc <l769>:
     dfc:	716f1f10 	clzvc	r1, r0

00000e00 <l770>:
     e00:	e59f6000 	ldr	r6, [pc]	; e08 <l772>

00000e04 <l771>:
     e04:	ea000000 	b	e0c <l773>

00000e08 <l772>:
     e08:	000fffd4 	.word	0x000fffd4

00000e0c <l773>:
     e0c:	e1469091 	swpb	r9, r1, [r6]

00000e10 <l774>:
     e10:	e1160000 	tst	r6, r0

00000e14 <l775>:
     e14:	e82dcefd 	stmda	sp!, {r0, r2, r3, r4, r5, r6, r7, r9, sl, fp, lr, pc}

00000e18 <l776>:
     e18:	e3dea419 	bics	sl, lr, #419430400	; 0x19000000

00000e1c <l777>:
     e1c:	e3a0a000 	mov	sl, #0

00000e20 <l778>:
     e20:	679d600a 	ldrvs	r6, [sp, sl]

00000e24 <l779>:
     e24:	e11a0e88 	tst	sl, r8, lsl #29

00000e28 <l780>:
     e28:	e1a00000 	nop			; (mov r0, r0)

00000e2c <l781>:
     e2c:	e3a04006 	mov	r4, #6

00000e30 <l782>:
     e30:	b11db0f4 	ldrshlt	fp, [sp, -r4]

00000e34 <l783>:
     e34:	ca000004 	bgt	e4c <l789>

00000e38 <l784>:
     e38:	e16fcf1e 	clz	ip, lr

00000e3c <l785>:
     e3c:	e039a004 	eors	sl, r9, r4

00000e40 <l786>:
     e40:	413506a1 	teqmi	r5, r1, lsr #13

00000e44 <l787>:
     e44:	e1160004 	tst	r6, r4

00000e48 <l788>:
     e48:	d15c0009 	cmple	ip, r9

00000e4c <l789>:
     e4c:	b3b0e5a3 	movslt	lr, #683671552	; 0x28c00000

00000e50 <l790>:
     e50:	c15e0004 	cmpgt	lr, r4

00000e54 <l791>:
     e54:	ea000007 	b	e78 <l800>

00000e58 <l792>:
     e58:	e2801060 	add	r1, r0, #96	; 0x60

00000e5c <l793>:
     e5c:	e061400b 	rsb	r4, r1, fp

00000e60 <l794>:
     e60:	d2ac5c7e 	adcle	r5, ip, #32256	; 0x7e00

00000e64 <l795>:
     e64:	333f0725 	teqcc	pc, #9699328	; 0x940000

00000e68 <l796>:
     e68:	e2558731 	subs	r8, r5, #12845056	; 0xc40000

00000e6c <l797>:
     e6c:	30c7600f 	sbccc	r6, r7, pc

00000e70 <l798>:
     e70:	2015106c 	andscs	r1, r5, ip, rrx

00000e74 <l799>:
     e74:	ea000000 	b	e7c <l801>

00000e78 <l800>:
     e78:	eafffff7 	b	e5c <l793>

00000e7c <l801>:
     e7c:	e5ad1024 	str	r1, [sp, #36]!	; 0x24

00000e80 <l802>:
     e80:	ea000002 	b	e90 <l806>

00000e84 <l803>:
     e84:	e280101e 	add	r1, r0, #30

00000e88 <l804>:
     e88:	e0c08212 	sbc	r8, r0, r2, lsl r2

00000e8c <l805>:
     e8c:	ea000000 	b	e94 <l807>

00000e90 <l806>:
     e90:	eafffffc 	b	e88 <l804>

00000e94 <l807>:
     e94:	b046200b 	sublt	r2, r6, fp

00000e98 <l808>:
     e98:	e9ad0018 	stmib	sp!, {r3, r4}

00000e9c <l809>:
     e9c:	d071b00e 	rsbsle	fp, r1, lr

00000ea0 <l810>:
     ea0:	e0fe7935 	rscs	r7, lr, r5, lsr r9

00000ea4 <l811>:
     ea4:	e0e9b77e 	rsc	fp, r9, lr, ror r7

00000ea8 <l812>:
     ea8:	e53d0028 	ldr	r0, [sp, #-40]!	; 0x28

00000eac <l813>:
     eac:	e2bb2813 	adcs	r2, fp, #1245184	; 0x130000

00000eb0 <l814>:
     eb0:	e0b1800b 	adcs	r8, r1, fp

00000eb4 <l815>:
     eb4:	e59f4000 	ldr	r4, [pc]	; ebc <l817>

00000eb8 <l816>:
     eb8:	ea000000 	b	ec0 <l818>

00000ebc <l817>:
     ebc:	000fffcc 	.word	0x000fffcc

00000ec0 <l818>:
     ec0:	c144c09e 	swpbgt	ip, lr, [r4]

00000ec4 <l819>:
     ec4:	322b5613 	eorcc	r5, fp, #19922944	; 0x1300000

00000ec8 <l820>:
     ec8:	11a0141e 	lslne	r1, lr, r4

00000ecc <l821>:
     ecc:	e58d3028 	str	r3, [sp, #40]	; 0x28

00000ed0 <l822>:
     ed0:	d0905011 	addsle	r5, r0, r1, lsl r0

00000ed4 <l823>:
     ed4:	e59f1000 	ldr	r1, [pc]	; edc <l825>

00000ed8 <l824>:
     ed8:	ea000000 	b	ee0 <l826>

00000edc <l825>:
     edc:	000fffd0 	.word	0x000fffd0

00000ee0 <l826>:
     ee0:	e1013092 	swp	r3, r2, [r1]

00000ee4 <l827>:
     ee4:	e3a07020 	mov	r7, #32

00000ee8 <l828>:
     ee8:	518d30b7 	strhpl	r3, [sp, r7]

00000eec <l829>:
     eec:	933e0327 	teqls	lr, #-1677721600	; 0x9c000000

00000ef0 <l830>:
     ef0:	e0d9a00b 	sbcs	sl, r9, fp

00000ef4 <l831>:
     ef4:	e3a0a007 	mov	sl, #7

00000ef8 <l832>:
     ef8:	e75d100a 	ldrb	r1, [sp, -sl]

00000efc <l833>:
     efc:	e59f9000 	ldr	r9, [pc]	; f04 <l835>

00000f00 <l834>:
     f00:	ea000000 	b	f08 <l836>

00000f04 <l835>:
     f04:	000fffdc 	.word	0x000fffdc

00000f08 <l836>:
     f08:	6109b09e 	swpvs	fp, lr, [r9]

00000f0c <l837>:
     f0c:	e5bd7020 	ldr	r7, [sp, #32]!

00000f10 <l838>:
     f10:	e59fa000 	ldr	sl, [pc]	; f18 <l840>

00000f14 <l839>:
     f14:	ea000000 	b	f1c <l841>

00000f18 <l840>:
     f18:	000fffe4 	.word	0x000fffe4

00000f1c <l841>:
     f1c:	014a8091 	swpbeq	r8, r1, [sl]

00000f20 <l842>:
     f20:	e8ad0024 	stmia	sp!, {r2, r5}

00000f24 <l843>:
     f24:	80c00e52 	sbchi	r0, r0, r2, asr lr

00000f28 <l844>:
     f28:	b1851009 	orrlt	r1, r5, r9

00000f2c <l845>:
     f2c:	e33602fa 	teq	r6, #-1610612721	; 0xa000000f

00000f30 <l846>:
     f30:	00c89003 	sbceq	r9, r8, r3

00000f34 <l847>:
     f34:	e55d5004 	ldrb	r5, [sp, #-4]

00000f38 <l848>:
     f38:	e1b09062 	rrxs	r9, r2

00000f3c <l849>:
     f3c:	e2061fb7 	and	r1, r6, #732	; 0x2dc

00000f40 <l850>:
     f40:	e04f9062 	sub	r9, pc, r2, rrx

00000f44 <l851>:
     f44:	e1de9b07 	bics	r9, lr, r7, lsl #22

00000f48 <l852>:
     f48:	411e03ae 	tstmi	lr, lr, lsr #7

00000f4c <l853>:
     f4c:	e1b0e763 	rors	lr, r3, #14

00000f50 <l854>:
     f50:	e005c003 	and	ip, r5, r3

00000f54 <l855>:
     f54:	708aac19 	addvc	sl, sl, r9, lsl ip

00000f58 <l856>:
     f58:	715de0fe 	ldrshvc	lr, [sp, #-14]

00000f5c <l857>:
     f5c:	e59f5000 	ldr	r5, [pc]	; f64 <l859>

00000f60 <l858>:
     f60:	ea000000 	b	f68 <l860>

00000f64 <l859>:
     f64:	000fffcc 	.word	0x000fffcc

00000f68 <l860>:
     f68:	61454091 	swpbvs	r4, r1, [r5]

00000f6c <l861>:
     f6c:	454d3014 	strbmi	r3, [sp, #-20]

00000f70 <l862>:
     f70:	715dc0b2 	ldrhvc	ip, [sp, #-2]

00000f74 <l863>:
     f74:	e3a01006 	mov	r1, #6

00000f78 <l864>:
     f78:	d10d90b1 	strhle	r9, [sp, -r1]

00000f7c <l865>:
     f7c:	e33209b3 	teq	r2, #2932736	; 0x2cc000

00000f80 <l866>:
     f80:	61d36065 	bicsvs	r6, r3, r5, rrx

00000f84 <l867>:
     f84:	e59f6000 	ldr	r6, [pc]	; f8c <l869>

00000f88 <l868>:
     f88:	ea000000 	b	f90 <l870>

00000f8c <l869>:
     f8c:	000fffcc 	.word	0x000fffcc

00000f90 <l870>:
     f90:	51067090 	swppl	r7, r0, [r6]

00000f94 <l871>:
     f94:	037607d5 	cmneq	r6, #55836672	; 0x3540000

00000f98 <l872>:
     f98:	a1520fee 	cmpge	r2, lr, ror #31

00000f9c <l873>:
     f9c:	90e77c73 	rscls	r7, r7, r3, ror ip

00000fa0 <l874>:
     fa0:	e3a0a00b 	mov	sl, #11

00000fa4 <l875>:
     fa4:	d74d200a 	strble	r2, [sp, -sl]

00000fa8 <l876>:
     fa8:	71550008 	cmpvc	r5, r8

00000fac <l877>:
     fac:	ea000004 	b	fc4 <l883>

00000fb0 <l878>:
     fb0:	e1f0c2c8 	mvns	ip, r8, asr #5

00000fb4 <l879>:
     fb4:	60905e3c 	addsvs	r5, r0, ip, lsr lr

00000fb8 <l880>:
     fb8:	516f9f1a 	clzpl	r9, sl

00000fbc <l881>:
     fbc:	e0b49083 	adcs	r9, r4, r3, lsl #1

00000fc0 <l882>:
     fc0:	516f7f16 	clzpl	r7, r6

00000fc4 <l883>:
     fc4:	e064a06a 	rsb	sl, r4, sl, rrx

00000fc8 <l884>:
     fc8:	6198606e 	orrsvs	r6, r8, lr, rrx

00000fcc <l885>:
     fcc:	e49d900c 	ldr	r9, [sp], #12

00000fd0 <l886>:
     fd0:	a08a606c 	addge	r6, sl, ip, rrx

00000fd4 <l887>:
     fd4:	155d2036 	ldrbne	r2, [sp, #-54]	; 0x36

00000fd8 <l888>:
     fd8:	e92de000 	push	{sp, lr, pc}

00000fdc <l889>:
     fdc:	e17e0b82 	cmn	lr, r2, lsl #23

00000fe0 <l890>:
     fe0:	ea000002 	b	ff0 <l894>

00000fe4 <l891>:
     fe4:	e1370838 	teq	r7, r8, lsr r8

00000fe8 <l892>:
     fe8:	e1f00004 	mvns	r0, r4

00000fec <l893>:
     fec:	e0d04003 	sbcs	r4, r0, r3

00000ff0 <l894>:
     ff0:	c16f4f17 	clzgt	r4, r7

00000ff4 <l895>:
     ff4:	e82d1943 	stmda	sp!, {r0, r1, r6, r8, fp, ip}

00000ff8 <l896>:
     ff8:	e013c55a 	ands	ip, r3, sl, asr r5

00000ffc <l897>:
     ffc:	10cce007 	sbcne	lr, ip, r7

00001000 <l898>:
    1000:	e05aeb07 	subs	lr, sl, r7, lsl #22

00001004 <l899>:
    1004:	e1ddb2d4 	ldrsb	fp, [sp, #36]	; 0x24

00001008 <l900>:
    1008:	e59f2000 	ldr	r2, [pc]	; 1010 <l902>

0000100c <l901>:
    100c:	ea000000 	b	1014 <l903>

00001010 <l902>:
    1010:	000fffb8 	.word	0x000fffb8

00001014 <l903>:
    1014:	e1023099 	swp	r3, r9, [r2]

00001018 <l904>:
    1018:	e18c4b58 	orr	r4, ip, r8, asr fp

0000101c <l905>:
    101c:	e3a0600c 	mov	r6, #12

00001020 <l906>:
    1020:	c19d90b6 	ldrhgt	r9, [sp, r6]

00001024 <l907>:
    1024:	d58d0008 	strle	r0, [sp, #8]

00001028 <l908>:
    1028:	80158b2c 	andshi	r8, r5, ip, lsr #22

0000102c <l909>:
    102c:	e09a300c 	adds	r3, sl, ip

00001030 <l910>:
    1030:	e04e6002 	sub	r6, lr, r2

00001034 <l911>:
    1034:	4072100c 	rsbsmi	r1, r2, ip

00001038 <l912>:
    1038:	e058ee55 	subs	lr, r8, r5, asr lr

0000103c <l913>:
    103c:	a29fe51b 	addsge	lr, pc, #113246208	; 0x6c00000

00001040 <l914>:
    1040:	e3a0801c 	mov	r8, #28

00001044 <l915>:
    1044:	d79dc008 	ldrle	ip, [sp, r8]

00001048 <l916>:
    1048:	d1e0406a 	mvnle	r4, sl, rrx

0000104c <l917>:
    104c:	7132055c 	teqvc	r2, ip, asr r5

00001050 <l918>:
    1050:	ea000006 	b	1070 <l926>

00001054 <l919>:
    1054:	e16f4f15 	clz	r4, r5

00001058 <l920>:
    1058:	e0405066 	sub	r5, r0, r6, rrx

0000105c <l921>:
    105c:	60e7e246 	rscvs	lr, r7, r6, asr #4

00001060 <l922>:
    1060:	d16f2f16 	clzle	r2, r6

00001064 <l923>:
    1064:	90c9c43e 	sbcls	ip, r9, lr, lsr r4

00001068 <l924>:
    1068:	e15a0582 	cmp	sl, r2, lsl #11

0000106c <l925>:
    106c:	e0c8600c 	sbc	r6, r8, ip

00001070 <l926>:
    1070:	30f8c860 	rscscc	ip, r8, r0, ror #16

00001074 <l927>:
    1074:	9054b00b 	subsls	fp, r4, fp

00001078 <l928>:
    1078:	e3a03010 	mov	r3, #16

0000107c <l929>:
    107c:	775de003 	ldrbvc	lr, [sp, -r3]

00001080 <l930>:
    1080:	e3350c3e 	teq	r5, #15872	; 0x3e00

00001084 <l931>:
    1084:	81cdc2b8 	strhhi	ip, [sp, #40]	; 0x28

00001088 <l932>:
    1088:	e54d800d 	strb	r8, [sp, #-13]

0000108c <l933>:
    108c:	e2439577 	sub	r9, r3, #499122176	; 0x1dc00000

00001090 <l934>:
    1090:	e3a0b018 	mov	fp, #24

00001094 <l935>:
    1094:	e61d300b 	ldr	r3, [sp], -fp

00001098 <l936>:
    1098:	e3a00034 	mov	r0, #52	; 0x34

0000109c <l937>:
    109c:	a7dd2000 	ldrbge	r2, [sp, r0]

000010a0 <l938>:
    10a0:	e1170474 	tst	r7, r4, ror r4

000010a4 <l939>:
    10a4:	e59f3000 	ldr	r3, [pc]	; 10ac <l941>

000010a8 <l940>:
    10a8:	ea000000 	b	10b0 <l942>

000010ac <l941>:
    10ac:	000fffd4 	.word	0x000fffd4

000010b0 <l942>:
    10b0:	b1436094 	swpblt	r6, r4, [r3]

000010b4 <l943>:
    10b4:	00a0400c 	adceq	r4, r0, ip

000010b8 <l944>:
    10b8:	31cd81bc 	strhcc	r8, [sp, #28]

000010bc <l945>:
    10bc:	4021c00f 	eormi	ip, r1, pc

000010c0 <l946>:
    10c0:	d98d7eff 	stmible	sp, {r0, r1, r2, r3, r4, r5, r6, r7, r9, sl, fp, ip, sp, lr}

000010c4 <l947>:
    10c4:	51500757 	cmppl	r0, r7, asr r7

000010c8 <l948>:
    10c8:	e3a0700e 	mov	r7, #14

000010cc <l949>:
    10cc:	319d50f7 	ldrshcc	r5, [sp, r7]

000010d0 <l950>:
    10d0:	01dde0b4 	ldrheq	lr, [sp, #4]

000010d4 <l951>:
    10d4:	e1a00000 	nop			; (mov r0, r0)

000010d8 <l952>:
    10d8:	e3a03021 	mov	r3, #33	; 0x21

000010dc <l953>:
    10dc:	e7dd0003 	ldrb	r0, [sp, r3]

000010e0 <l954>:
    10e0:	60be4e80 	adcsvs	r4, lr, r0, lsl #29

000010e4 <l955>:
    10e4:	e0537936 	subs	r7, r3, r6, lsr r9

000010e8 <l956>:
    10e8:	a0b40a6e 	adcsge	r0, r4, lr, ror #20

000010ec <l957>:
    10ec:	7247a673 	subvc	sl, r7, #120586240	; 0x7300000

000010f0 <l958>:
    10f0:	e3a0300c 	mov	r3, #12

000010f4 <l959>:
    10f4:	77cd1003 	strbvc	r1, [sp, r3]

000010f8 <l960>:
    10f8:	c0480006 	subgt	r0, r8, r6

000010fc <l961>:
    10fc:	e069600e 	rsb	r6, r9, lr

00001100 <l962>:
    1100:	e0582006 	subs	r2, r8, r6

00001104 <l963>:
    1104:	e9ad5020 	stmib	sp!, {r5, ip, lr}

00001108 <l964>:
    1108:	ea000005 	b	1124 <l971>

0000110c <l965>:
    110c:	e2801079 	add	r1, r0, #121	; 0x79

00001110 <l966>:
    1110:	70705d0f 	rsbsvc	r5, r0, pc, lsl #26

00001114 <l967>:
    1114:	e1f09006 	mvns	r9, r6

00001118 <l968>:
    1118:	516f8f11 	clzpl	r8, r1

0000111c <l969>:
    111c:	e2110d22 	ands	r0, r1, #2176	; 0x880

00001120 <l970>:
    1120:	ea000000 	b	1128 <l972>

00001124 <l971>:
    1124:	eafffff9 	b	1110 <l966>

00001128 <l972>:
    1128:	a0105033 	andsge	r5, r0, r3, lsr r0

0000112c <l973>:
    112c:	20418708 	subcs	r8, r1, r8, lsl #14

00001130 <l974>:
    1130:	e91d0804 	ldmdb	sp, {r2, fp}

00001134 <l975>:
    1134:	e1580e03 	cmp	r8, r3, lsl #28

00001138 <l976>:
    1138:	e1b0a951 	asrs	sl, r1, r9

0000113c <l977>:
    113c:	e2abc402 	adc	ip, fp, #33554432	; 0x2000000

00001140 <l978>:
    1140:	e3a0302a 	mov	r3, #42	; 0x2a

00001144 <l979>:
    1144:	619de0b3 	ldrhvs	lr, [sp, r3]

00001148 <l980>:
    1148:	815e0988 	cmphi	lr, r8, lsl #19

0000114c <l981>:
    114c:	e3a05014 	mov	r5, #20

00001150 <l982>:
    1150:	e68db005 	str	fp, [sp], r5

00001154 <l983>:
    1154:	e3a0c00d 	mov	ip, #13

00001158 <l984>:
    1158:	e75dc00c 	ldrb	ip, [sp, -ip]

0000115c <l985>:
    115c:	21f0b072 	mvnscs	fp, r2, ror r0

00001160 <l986>:
    1160:	e41db01c 	ldr	fp, [sp], #-28

00001164 <l987>:
    1164:	e59f2000 	ldr	r2, [pc]	; 116c <l989>

00001168 <l988>:
    1168:	ea000000 	b	1170 <l990>

0000116c <l989>:
    116c:	000fffb0 	.word	0x000fffb0

00001170 <l990>:
    1170:	e142a096 	swpb	sl, r6, [r2]

00001174 <l991>:
    1174:	d28e33a9 	addle	r3, lr, #-1543503870	; 0xa4000002

00001178 <l992>:
    1178:	e3a09007 	mov	r9, #7

0000117c <l993>:
    117c:	d7dda009 	ldrble	sl, [sp, r9]

00001180 <l994>:
    1180:	e1a00000 	nop			; (mov r0, r0)

00001184 <l995>:
    1184:	e3a0700a 	mov	r7, #10

00001188 <l996>:
    1188:	e19d90d7 	ldrsb	r9, [sp, r7]

0000118c <l997>:
    118c:	03790000 	cmneq	r9, #0

00001190 <l998>:
    1190:	e59f5000 	ldr	r5, [pc]	; 1198 <l1000>

00001194 <l999>:
    1194:	ea000000 	b	119c <l1001>

00001198 <l1000>:
    1198:	000fffd8 	.word	0x000fffd8

0000119c <l1001>:
    119c:	0105b090 	swpeq	fp, r0, [r5]

000011a0 <l1002>:
    11a0:	ca000003 	bgt	11b4 <l1007>

000011a4 <l1003>:
    11a4:	e1e02843 	mvn	r2, r3, asr #16

000011a8 <l1004>:
    11a8:	e2c99cbb 	sbc	r9, r9, #47872	; 0xbb00

000011ac <l1005>:
    11ac:	01530253 	cmpeq	r3, r3, asr r2

000011b0 <l1006>:
    11b0:	a1e0100f 	mvnge	r1, pc

000011b4 <l1007>:
    11b4:	e0ba7a19 	adcs	r7, sl, r9, lsl sl

000011b8 <l1008>:
    11b8:	e59f3000 	ldr	r3, [pc]	; 11c0 <l1010>

000011bc <l1009>:
    11bc:	ea000000 	b	11c4 <l1011>

000011c0 <l1010>:
    11c0:	000fffc0 	.word	0x000fffc0

000011c4 <l1011>:
    11c4:	e1031099 	swp	r1, r9, [r3]

000011c8 <l1012>:
    11c8:	c0b5b008 	adcsgt	fp, r5, r8

000011cc <l1013>:
    11cc:	ea000006 	b	11ec <l1021>

000011d0 <l1014>:
    11d0:	23f0bd55 	mvnscs	fp, #5440	; 0x1540

000011d4 <l1015>:
    11d4:	e0de6060 	sbcs	r6, lr, r0, rrx

000011d8 <l1016>:
    11d8:	40f21a5b 	rscsmi	r1, r2, fp, asr sl

000011dc <l1017>:
    11dc:	517f0065 	cmnpl	pc, r5, rrx

000011e0 <l1018>:
    11e0:	12273939 	eorne	r3, r7, #933888	; 0xe4000

000011e4 <l1019>:
    11e4:	b1d8c400 	bicslt	ip, r8, r0, lsl #8

000011e8 <l1020>:
    11e8:	50ec4004 	rscpl	r4, ip, r4

000011ec <l1021>:
    11ec:	e1e0c51c 	mvn	ip, ip, lsl r5

000011f0 <l1022>:
    11f0:	e15d70d5 	ldrsb	r7, [sp, #-5]

000011f4 <l1023>:
    11f4:	b179000a 	cmnlt	r9, sl

000011f8 <l1024>:
    11f8:	03d3c403 	bicseq	ip, r3, #50331648	; 0x3000000

000011fc <l1025>:
    11fc:	e1a00000 	nop			; (mov r0, r0)

00001200 <l1026>:
    1200:	52e3230e 	rscpl	r2, r3, #939524096	; 0x38000000

00001204 <l1027>:
    1204:	b1590c09 	cmplt	r9, r9, lsl #24

00001208 <l1028>:
    1208:	117f0000 	cmnne	pc, r0

0000120c <l1029>:
    120c:	e0de7514 	sbcs	r7, lr, r4, lsl r5

00001210 <l1030>:
    1210:	e3a09010 	mov	r9, #16

00001214 <l1031>:
    1214:	e68d6009 	str	r6, [sp], r9

00001218 <l1032>:
    1218:	e0e92a2e 	rsc	r2, r9, lr, lsr #20

0000121c <l1033>:
    121c:	e3a06004 	mov	r6, #4

00001220 <l1034>:
    1220:	e73d8006 	ldr	r8, [sp, -r6]!

00001224 <l1035>:
    1224:	e31609ca 	tst	r6, #3309568	; 0x328000

00001228 <l1036>:
    1228:	e3a01006 	mov	r1, #6

0000122c <l1037>:
    122c:	e10d50b1 	strh	r5, [sp, -r1]

00001230 <l1038>:
    1230:	32b04329 	adcscc	r4, r0, #-1543503872	; 0xa4000000

00001234 <l1039>:
    1234:	c0fa450b 	rscsgt	r4, sl, fp, lsl #10

00001238 <l1040>:
    1238:	e03ece2b 	eors	ip, lr, fp, lsr #28

0000123c <l1041>:
    123c:	42f410f3 	rscsmi	r1, r4, #243	; 0xf3

00001240 <l1042>:
    1240:	e3a0c026 	mov	ip, #38	; 0x26

00001244 <l1043>:
    1244:	e19d80bc 	ldrh	r8, [sp, ip]

00001248 <l1044>:
    1248:	e3a0c005 	mov	ip, #5

0000124c <l1045>:
    124c:	e74d700c 	strb	r7, [sp, -ip]

00001250 <l1046>:
    1250:	10776e4e 	rsbsne	r6, r7, lr, asr #28

00001254 <l1047>:
    1254:	d3720c6a 	cmnle	r2, #27136	; 0x6a00

00001258 <l1048>:
    1258:	825913a7 	subshi	r1, r9, #-1677721598	; 0x9c000002

0000125c <l1049>:
    125c:	e59f8000 	ldr	r8, [pc]	; 1264 <l1051>

00001260 <l1050>:
    1260:	ea000000 	b	1268 <l1052>

00001264 <l1051>:
    1264:	000fffe8 	.word	0x000fffe8

00001268 <l1052>:
    1268:	7108e09b 	swpvc	lr, fp, [r8]

0000126c <l1053>:
    126c:	e3a0000e 	mov	r0, #14

00001270 <l1054>:
    1270:	e19d10f0 	ldrsh	r1, [sp, r0]

00001274 <l1055>:
    1274:	e2e0e421 	rsc	lr, r0, #553648128	; 0x21000000

00001278 <l1056>:
    1278:	e3a01018 	mov	r1, #24

0000127c <l1057>:
    127c:	610da0b1 	strhvs	sl, [sp, -r1]

00001280 <l1058>:
    1280:	2002a00f 	andcs	sl, r2, pc

00001284 <l1059>:
    1284:	a0d21178 	sbcsge	r1, r2, r8, ror r1

00001288 <l1060>:
    1288:	80ce697c 	sbchi	r6, lr, ip, ror r9

0000128c <l1061>:
    128c:	9050b342 	subsls	fp, r0, r2, asr #6

00001290 <l1062>:
    1290:	e3a0a00c 	mov	sl, #12

00001294 <l1063>:
    1294:	e71d400a 	ldr	r4, [sp, -sl]

00001298 <l1064>:
    1298:	e8ade000 	stmia	sp!, {sp, lr, pc}

0000129c <l1065>:
    129c:	e59f9000 	ldr	r9, [pc]	; 12a4 <l1067>

000012a0 <l1066>:
    12a0:	ea000000 	b	12a8 <l1068>

000012a4 <l1067>:
    12a4:	000fffd0 	.word	0x000fffd0

000012a8 <l1068>:
    12a8:	3149509b 	swpbcc	r5, fp, [r9]

000012ac <l1069>:
    12ac:	858db020 	strhi	fp, [sp, #32]

000012b0 <l1070>:
    12b0:	c14de0b8 	strhgt	lr, [sp, #-8]

000012b4 <l1071>:
    12b4:	e59f0000 	ldr	r0, [pc]	; 12bc <l1073>

000012b8 <l1072>:
    12b8:	ea000000 	b	12c0 <l1074>

000012bc <l1073>:
    12bc:	000fffb0 	.word	0x000fffb0

000012c0 <l1074>:
    12c0:	e100b097 	swp	fp, r7, [r0]

000012c4 <l1075>:
    12c4:	e52d6024 	str	r6, [sp, #-36]!	; 0x24

000012c8 <l1076>:
    12c8:	61510fa6 	cmpvs	r1, r6, lsr #31

000012cc <l1077>:
    12cc:	7a000000 	bvc	12d4 <l1079>

000012d0 <l1078>:
    12d0:	e0270063 	eor	r0, r7, r3, rrx

000012d4 <l1079>:
    12d4:	e1380060 	teq	r8, r0, rrx

000012d8 <l1080>:
    12d8:	e5ade044 	str	lr, [sp, #68]!	; 0x44

000012dc <l1081>:
    12dc:	e2be9e46 	adcs	r9, lr, #1120	; 0x460

000012e0 <l1082>:
    12e0:	e1150066 	tst	r5, r6, rrx

000012e4 <l1083>:
    12e4:	50507068 	subspl	r7, r0, r8, rrx

000012e8 <l1084>:
    12e8:	e59fa000 	ldr	sl, [pc]	; 12f0 <l1086>

000012ec <l1085>:
    12ec:	ea000000 	b	12f4 <l1087>

000012f0 <l1086>:
    12f0:	000fffd0 	.word	0x000fffd0

000012f4 <l1087>:
    12f4:	914ac090 	swpbls	ip, r0, [sl]

000012f8 <l1088>:
    12f8:	e1a00000 	nop			; (mov r0, r0)

000012fc <l1089>:
    12fc:	e086200b 	add	r2, r6, fp

00001300 <l1090>:
    1300:	a37705e2 	cmnge	r7, #947912704	; 0x38800000

00001304 <l1091>:
    1304:	5067500a 	rsbpl	r5, r7, sl

00001308 <l1092>:
    1308:	ea000006 	b	1328 <l1100>

0000130c <l1093>:
    130c:	e28010fd 	add	r1, r0, #253	; 0xfd

00001310 <l1094>:
    1310:	d2b0a018 	adcsle	sl, r0, #24

00001314 <l1095>:
    1314:	c11f0064 	tstgt	pc, r4, rrx

00001318 <l1096>:
    1318:	11390782 	teqne	r9, r2, lsl #15

0000131c <l1097>:
    131c:	e0028a7e 	and	r8, r2, lr, ror sl

00001320 <l1098>:
    1320:	e16f3f14 	clz	r3, r4

00001324 <l1099>:
    1324:	ea000000 	b	132c <l1101>

00001328 <l1100>:
    1328:	eafffff8 	b	1310 <l1094>

0000132c <l1101>:
    132c:	80e4c260 	rschi	ip, r4, r0, ror #4

00001330 <l1102>:
    1330:	705a23ab 	subsvc	r2, sl, fp, lsr #7

00001334 <l1103>:
    1334:	e82d6000 	stmda	sp!, {sp, lr}

00001338 <l1104>:
    1338:	e59f2000 	ldr	r2, [pc]	; 1340 <l1106>

0000133c <l1105>:
    133c:	ea000000 	b	1344 <l1107>

00001340 <l1106>:
    1340:	000fffa0 	.word	0x000fffa0

00001344 <l1107>:
    1344:	e102b094 	swp	fp, r4, [r2]

00001348 <l1108>:
    1348:	e41db004 	ldr	fp, [sp], #-4

0000134c <l1109>:
    134c:	c2ef991e 	rscgt	r9, pc, #491520	; 0x78000

00001350 <l1110>:
    1350:	e3a0a028 	mov	sl, #40	; 0x28

00001354 <l1111>:
    1354:	e11d50fa 	ldrsh	r5, [sp, -sl]

00001358 <l1112>:
    1358:	e59f7000 	ldr	r7, [pc]	; 1360 <l1114>

0000135c <l1113>:
    135c:	ea000000 	b	1364 <l1115>

00001360 <l1114>:
    1360:	000fffdc 	.word	0x000fffdc

00001364 <l1115>:
    1364:	0147a093 	swpbeq	sl, r3, [r7]

00001368 <l1116>:
    1368:	e3a0b00c 	mov	fp, #12

0000136c <l1117>:
    136c:	d71da00b 	ldrle	sl, [sp, -fp]

00001370 <l1118>:
    1370:	e0a4574a 	adc	r5, r4, sl, asr #14

00001374 <l1119>:
    1374:	e15d32df 	ldrsb	r3, [sp, #-47]	; 0xffffffd1

00001378 <l1120>:
    1378:	e1320940 	teq	r2, r0, asr #18

0000137c <l1121>:
    137c:	e3a09029 	mov	r9, #41	; 0x29

00001380 <l1122>:
    1380:	511d80d9 	ldrsbpl	r8, [sp, -r9]

00001384 <l1123>:
    1384:	01a09011 	lsleq	r9, r1, r0

00001388 <l1124>:
    1388:	aa000000 	bge	1390 <l1126>

0000138c <l1125>:
    138c:	e16f9f1e 	clz	r9, lr

00001390 <l1126>:
    1390:	e01fb008 	ands	fp, pc, r8

00001394 <l1127>:
    1394:	e5cdc004 	strb	ip, [sp, #4]

00001398 <l1128>:
    1398:	a1310110 	teqge	r1, r0, lsl r1

0000139c <l1129>:
    139c:	da000008 	ble	13c4 <l1139>

000013a0 <l1130>:
    13a0:	e0570002 	subs	r0, r7, r2

000013a4 <l1131>:
    13a4:	b33e0c59 	teqlt	lr, #22784	; 0x5900

000013a8 <l1132>:
    13a8:	609c3656 	addsvs	r3, ip, r6, asr r6

000013ac <l1133>:
    13ac:	e0333008 	eors	r3, r3, r8

000013b0 <l1134>:
    13b0:	e3a0a295 	mov	sl, #1342177289	; 0x50000009

000013b4 <l1135>:
    13b4:	b056b576 	subslt	fp, r6, r6, ror r5

000013b8 <l1136>:
    13b8:	d0522008 	subsle	r2, r2, r8

000013bc <l1137>:
    13bc:	c27fa2f3 	rsbsgt	sl, pc, #805306383	; 0x3000000f

000013c0 <l1138>:
    13c0:	e31807f2 	tst	r8, #63438848	; 0x3c80000

000013c4 <l1139>:
    13c4:	43170fdf 	tstmi	r7, #892	; 0x37c

000013c8 <l1140>:
    13c8:	515e0004 	cmppl	lr, r4

000013cc <l1141>:
    13cc:	e0ef5007 	rsc	r5, pc, r7

000013d0 <l1142>:
    13d0:	a37a049e 	cmnge	sl, #-1644167168	; 0x9e000000

000013d4 <l1143>:
    13d4:	00630061 	rsbeq	r0, r3, r1, rrx

000013d8 <l1144>:
    13d8:	e93d4141 	ldmdb	sp!, {r0, r6, r8, lr}

000013dc <l1145>:
    13dc:	e3a0a014 	mov	sl, #20

000013e0 <l1146>:
    13e0:	411d80da 	ldrsbmi	r8, [sp, -sl]

000013e4 <l1147>:
    13e4:	e59f6000 	ldr	r6, [pc]	; 13ec <l1149>

000013e8 <l1148>:
    13e8:	ea000000 	b	13f0 <l1150>

000013ec <l1149>:
    13ec:	000fffbc 	.word	0x000fffbc

000013f0 <l1150>:
    13f0:	e106b094 	swp	fp, r4, [r6]

000013f4 <l1151>:
    13f4:	e3a01006 	mov	r1, #6

000013f8 <l1152>:
    13f8:	374de001 	strbcc	lr, [sp, -r1]

000013fc <l1153>:
    13fc:	654d1006 	strbvs	r1, [sp, #-6]

00001400 <l1154>:
    1400:	e3a0600b 	mov	r6, #11

00001404 <l1155>:
    1404:	c19d90d6 	ldrsbgt	r9, [sp, r6]

00001408 <l1156>:
    1408:	216f1f17 	clzcs	r1, r7

0000140c <l1157>:
    140c:	e59fc000 	ldr	ip, [pc]	; 1414 <l1159>

00001410 <l1158>:
    1410:	ea000000 	b	1418 <l1160>

00001414 <l1159>:
    1414:	000fffa0 	.word	0x000fffa0

00001418 <l1160>:
    1418:	110c3092 	swpne	r3, r2, [ip]

0000141c <l1161>:
    141c:	02cb4706 	sbceq	r4, fp, #1572864	; 0x180000

00001420 <l1162>:
    1420:	30cc3955 	sbccc	r3, ip, r5, asr r9

00001424 <l1163>:
    1424:	e336037d 	teq	r6, #-201326591	; 0xf4000001

00001428 <l1164>:
    1428:	e82dc490 	stmda	sp!, {r4, r7, sl, lr, pc}

0000142c <l1165>:
    142c:	e31a071f 	tst	sl, #8126464	; 0x7c0000

00001430 <l1166>:
    1430:	a277792d 	rsbsge	r7, r7, #737280	; 0xb4000

00001434 <l1167>:
    1434:	81190007 	tsthi	r9, r7

00001438 <l1168>:
    1438:	523a3cc2 	eorspl	r3, sl, #49664	; 0xc200

0000143c <l1169>:
    143c:	e59f0000 	ldr	r0, [pc]	; 1444 <l1171>

00001440 <l1170>:
    1440:	ea000000 	b	1448 <l1172>

00001444 <l1171>:
    1444:	000fffb8 	.word	0x000fffb8

00001448 <l1172>:
    1448:	e100e09b 	swp	lr, fp, [r0]

0000144c <l1173>:
    144c:	e3a03020 	mov	r3, #32

00001450 <l1174>:
    1450:	e68d8003 	str	r8, [sp], r3

00001454 <l1175>:
    1454:	e1807aeb 	orr	r7, r0, fp, ror #21

00001458 <l1176>:
    1458:	a1b068a0 	lsrsge	r6, r0, #17

0000145c <l1177>:
    145c:	e046cb59 	sub	ip, r6, r9, asr fp

00001460 <l1178>:
    1460:	e59f6000 	ldr	r6, [pc]	; 1468 <l1180>

00001464 <l1179>:
    1464:	ea000000 	b	146c <l1181>

00001468 <l1180>:
    1468:	000fffcc 	.word	0x000fffcc

0000146c <l1181>:
    146c:	91465098 	swpbls	r5, r8, [r6]

00001470 <l1182>:
    1470:	b55d2028 	ldrblt	r2, [sp, #-40]	; 0x28

00001474 <l1183>:
    1474:	708e1a18 	addvc	r1, lr, r8, lsl sl

00001478 <l1184>:
    1478:	e59f4000 	ldr	r4, [pc]	; 1480 <l1186>

0000147c <l1185>:
    147c:	ea000000 	b	1484 <l1187>

00001480 <l1186>:
    1480:	000fffc0 	.word	0x000fffc0

00001484 <l1187>:
    1484:	3144c098 	swpbcc	ip, r8, [r4]

00001488 <l1188>:
    1488:	5137000e 	teqpl	r7, lr

0000148c <l1189>:
    148c:	ea000006 	b	14ac <l1197>

00001490 <l1190>:
    1490:	e2801053 	add	r1, r0, #83	; 0x53

00001494 <l1191>:
    1494:	505ba003 	subspl	sl, fp, r3

00001498 <l1192>:
    1498:	20a5206a 	adccs	r2, r5, sl, rrx

0000149c <l1193>:
    149c:	e0a4a06a 	adc	sl, r4, sl, rrx

000014a0 <l1194>:
    14a0:	e2e07327 	rsc	r7, r0, #-1677721600	; 0x9c000000

000014a4 <l1195>:
    14a4:	917b04a5 	cmnls	fp, r5, lsr #9

000014a8 <l1196>:
    14a8:	ea000000 	b	14b0 <l1198>

000014ac <l1197>:
    14ac:	eafffff8 	b	1494 <l1191>

000014b0 <l1198>:
    14b0:	e0884002 	add	r4, r8, r2

000014b4 <l1199>:
    14b4:	e0314009 	eors	r4, r1, r9

000014b8 <l1200>:
    14b8:	e1915960 	orrs	r5, r1, r0, ror #18

000014bc <l1201>:
    14bc:	b183c00f 	orrlt	ip, r3, pc

000014c0 <l1202>:
    14c0:	e3b0a902 	movs	sl, #32768	; 0x8000

000014c4 <l1203>:
    14c4:	62233e45 	eorvs	r3, r3, #1104	; 0x450

000014c8 <l1204>:
    14c8:	e3a08033 	mov	r8, #51	; 0x33

000014cc <l1205>:
    14cc:	474d8008 	strbmi	r8, [sp, -r8]

000014d0 <l1206>:
    14d0:	e020e413 	eor	lr, r0, r3, lsl r4

000014d4 <l1207>:
    14d4:	4012b00a 	andsmi	fp, r2, sl

000014d8 <l1208>:
    14d8:	42b3cb02 	adcsmi	ip, r3, #2048	; 0x800

000014dc <l1209>:
    14dc:	a98d00a0 	stmibge	sp, {r5, r7}

000014e0 <l1210>:
    14e0:	515a0b76 	cmppl	sl, r6, ror fp

000014e4 <l1211>:
    14e4:	e59f4000 	ldr	r4, [pc]	; 14ec <l1213>

000014e8 <l1212>:
    14e8:	ea000000 	b	14f0 <l1214>

000014ec <l1213>:
    14ec:	000fffdc 	.word	0x000fffdc

000014f0 <l1214>:
    14f0:	21041096 	swpcs	r1, r6, [r4]

000014f4 <l1215>:
    14f4:	ba000003 	blt	1508 <l1220>

000014f8 <l1216>:
    14f8:	e280103b 	add	r1, r0, #59	; 0x3b

000014fc <l1217>:
    14fc:	c04b6009 	subgt	r6, fp, r9

00001500 <l1218>:
    1500:	e22e13c9 	eor	r1, lr, #603979779	; 0x24000003

00001504 <l1219>:
    1504:	ea000000 	b	150c <l1221>

00001508 <l1220>:
    1508:	eafffffb 	b	14fc <l1217>

0000150c <l1221>:
    150c:	e3a01014 	mov	r1, #20

00001510 <l1222>:
    1510:	210d10b1 	strhcs	r1, [sp, -r1]

00001514 <l1223>:
    1514:	e39fbf75 	orrs	fp, pc, #468	; 0x1d4

00001518 <l1224>:
    1518:	e3a0e010 	mov	lr, #16

0000151c <l1225>:
    151c:	e72d500e 	str	r5, [sp, -lr]!

00001520 <l1226>:
    1520:	711c0e14 	tstvc	ip, r4, lsl lr

00001524 <l1227>:
    1524:	71cd90bc 	strhvc	r9, [sp, #12]

00001528 <l1228>:
    1528:	ea000003 	b	153c <l1233>

0000152c <l1229>:
    152c:	30403001 	subcc	r3, r0, r1

00001530 <l1230>:
    1530:	e057a91e 	subs	sl, r7, lr, lsl r9

00001534 <l1231>:
    1534:	7237b40b 	eorsvc	fp, r7, #184549376	; 0xb000000

00001538 <l1232>:
    1538:	52414a03 	subpl	r4, r1, #12288	; 0x3000

0000153c <l1233>:
    153c:	116f6f15 	clzne	r6, r5

00001540 <l1234>:
    1540:	e53d9014 	ldr	r9, [sp, #-20]!

00001544 <l1235>:
    1544:	0133006b 	teqeq	r3, fp, rrx

00001548 <l1236>:
    1548:	d3c003f2 	bicle	r0, r0, #-939524093	; 0xc8000003

0000154c <l1237>:
    154c:	d31805d3 	tstle	r8, #884998144	; 0x34c00000

00001550 <l1238>:
    1550:	e068b007 	rsb	fp, r8, r7

00001554 <l1239>:
    1554:	319bb005 	orrscc	fp, fp, r5

00001558 <l1240>:
    1558:	71310378 	teqvc	r1, r8, ror r3

0000155c <l1241>:
    155c:	e1740000 	cmn	r4, r0

00001560 <l1242>:
    1560:	e3a0c002 	mov	ip, #2

00001564 <l1243>:
    1564:	719db0fc 	ldrshvc	fp, [sp, ip]

00001568 <l1244>:
    1568:	e18fc000 	orr	ip, pc, r0

0000156c <l1245>:
    156c:	ea000004 	b	1584 <l1251>

00001570 <l1246>:
    1570:	e0a35063 	adc	r5, r3, r3, rrx

00001574 <l1247>:
    1574:	a1780b50 	cmnge	r8, r0, asr fp

00001578 <l1248>:
    1578:	e3e0353b 	mvn	r3, #247463936	; 0xec00000

0000157c <l1249>:
    157c:	a01ec61b 	andsge	ip, lr, fp, lsl r6

00001580 <l1250>:
    1580:	e0cee066 	sbc	lr, lr, r6, rrx

00001584 <l1251>:
    1584:	e1720a18 	cmn	r2, r8, lsl sl

00001588 <l1252>:
    1588:	e59f0000 	ldr	r0, [pc]	; 1590 <l1254>

0000158c <l1253>:
    158c:	ea000000 	b	1594 <l1255>

00001590 <l1254>:
    1590:	000fffe0 	.word	0x000fffe0

00001594 <l1255>:
    1594:	c1002098 	swpgt	r2, r8, [r0]

00001598 <l1256>:
    1598:	03d246b1 	bicseq	r4, r2, #185597952	; 0xb100000

0000159c <l1257>:
    159c:	a136098c 	teqge	r6, ip, lsl #19

000015a0 <l1258>:
    15a0:	e59f5000 	ldr	r5, [pc]	; 15a8 <l1260>

000015a4 <l1259>:
    15a4:	ea000000 	b	15ac <l1261>

000015a8 <l1260>:
    15a8:	000fffd0 	.word	0x000fffd0

000015ac <l1261>:
    15ac:	e105b09e 	swp	fp, lr, [r5]

000015b0 <l1262>:
    15b0:	e1c5463e 	bic	r4, r5, lr, lsr r6

000015b4 <l1263>:
    15b4:	31b01b63 	rorscc	r1, r3, #22

000015b8 <l1264>:
    15b8:	53170dc9 	tstpl	r7, #12864	; 0x3240

000015bc <l1265>:
    15bc:	e59fa000 	ldr	sl, [pc]	; 15c4 <l1267>

000015c0 <l1266>:
    15c0:	ea000000 	b	15c8 <l1268>

000015c4 <l1267>:
    15c4:	000fffdc 	.word	0x000fffdc

000015c8 <l1268>:
    15c8:	e14a209c 	swpb	r2, ip, [sl]

000015cc <l1269>:
    15cc:	c1520e53 	cmpgt	r2, r3, asr lr

000015d0 <l1270>:
    15d0:	60b7553e 	adcsvs	r5, r7, lr, lsr r5

000015d4 <l1271>:
    15d4:	e59fc000 	ldr	ip, [pc]	; 15dc <l1273>

000015d8 <l1272>:
    15d8:	ea000000 	b	15e0 <l1274>

000015dc <l1273>:
    15dc:	000fffc0 	.word	0x000fffc0

000015e0 <l1274>:
    15e0:	e10c2093 	swp	r2, r3, [ip]

000015e4 <l1275>:
    15e4:	11dd61d7 	ldrsbne	r6, [sp, #23]

000015e8 <l1276>:
    15e8:	e3a0a004 	mov	sl, #4

000015ec <l1277>:
    15ec:	479db00a 	ldrmi	fp, [sp, sl]

000015f0 <l1278>:
    15f0:	502fe003 	eorpl	lr, pc, r3

000015f4 <l1279>:
    15f4:	e59f0000 	ldr	r0, [pc]	; 15fc <l1281>

000015f8 <l1280>:
    15f8:	ea000000 	b	1600 <l1282>

000015fc <l1281>:
    15fc:	000fffc4 	.word	0x000fffc4

00001600 <l1282>:
    1600:	b140e097 	swpblt	lr, r7, [r0]

00001604 <l1283>:
    1604:	e1500705 	cmp	r0, r5, lsl #14

00001608 <l1284>:
    1608:	a14db1b0 	strhge	fp, [sp, #-16]

0000160c <l1285>:
    160c:	e5ad0034 	str	r0, [sp, #52]!	; 0x34

00001610 <l1286>:
    1610:	1a000005 	bne	162c <l1293>

00001614 <l1287>:
    1614:	e280106b 	add	r1, r0, #107	; 0x6b

00001618 <l1288>:
    1618:	31875232 	orrcc	r5, r7, r2, lsr r2

0000161c <l1289>:
    161c:	e20ae1f5 	and	lr, sl, #1073741885	; 0x4000003d

00001620 <l1290>:
    1620:	10286373 	eorne	r6, r8, r3, ror r3

00001624 <l1291>:
    1624:	e0a03450 	adc	r3, r0, r0, asr r4

00001628 <l1292>:
    1628:	ea000000 	b	1630 <l1294>

0000162c <l1293>:
    162c:	eafffff9 	b	1618 <l1288>

00001630 <l1294>:
    1630:	e059200c 	subs	r2, r9, ip

00001634 <l1295>:
    1634:	d1821005 	orrle	r1, r2, r5

00001638 <l1296>:
    1638:	e1f07150 	mvns	r7, r0, asr r1

0000163c <l1297>:
    163c:	e14db3bc 	strh	fp, [sp, #-60]	; 0xffffffc4

00001640 <l1298>:
    1640:	e3a00034 	mov	r0, #52	; 0x34

00001644 <l1299>:
    1644:	e61d4000 	ldr	r4, [sp], -r0

00001648 <l1300>:
    1648:	e0432064 	sub	r2, r3, r4, rrx

0000164c <l1301>:
    164c:	21ddc1b0 	ldrhcs	ip, [sp, #16]

00001650 <l1302>:
    1650:	a02ae7cb 	eorge	lr, sl, fp, asr #15

00001654 <l1303>:
    1654:	e22ccb32 	eor	ip, ip, #51200	; 0xc800

00001658 <l1304>:
    1658:	e5ad002c 	str	r0, [sp, #44]!	; 0x2c

0000165c <l1305>:
    165c:	e3a07006 	mov	r7, #6

00001660 <l1306>:
    1660:	e7dd1007 	ldrb	r1, [sp, r7]

00001664 <l1307>:
    1664:	e028600a 	eor	r6, r8, sl

00001668 <l1308>:
    1668:	20c3a614 	sbccs	sl, r3, r4, lsl r6

0000166c <l1309>:
    166c:	eaffffff 	b	1670 <l1310>

00001670 <l1310>:
    1670:	70471352 	subvc	r1, r7, r2, asr r3

00001674 <l1311>:
    1674:	3a000003 	bcc	1688 <l1316>

00001678 <l1312>:
    1678:	417b0003 	cmnmi	fp, r3

0000167c <l1313>:
    167c:	c1cfe067 	bicgt	lr, pc, r7, rrx

00001680 <l1314>:
    1680:	0178006c 	cmneq	r8, ip, rrx

00001684 <l1315>:
    1684:	e16f0f19 	clz	r0, r9

00001688 <l1316>:
    1688:	e3f0779a 	mvns	r7, #40370176	; 0x2680000

0000168c <l1317>:
    168c:	e3a06022 	mov	r6, #34	; 0x22

00001690 <l1318>:
    1690:	e75d2006 	ldrb	r2, [sp, -r6]

00001694 <l1319>:
    1694:	d88d8800 	stmle	sp, {fp, pc}

00001698 <l1320>:
    1698:	e82dcfa3 	stmda	sp!, {r0, r1, r5, r7, r8, r9, sl, fp, lr, pc}

0000169c <l1321>:
    169c:	61e0b00b 	mvnvs	fp, fp

000016a0 <l1322>:
    16a0:	ea000004 	b	16b8 <l1328>

000016a4 <l1323>:
    16a4:	e280104e 	add	r1, r0, #78	; 0x4e

000016a8 <l1324>:
    16a8:	51f02067 	mvnspl	r2, r7, rrx

000016ac <l1325>:
    16ac:	e11906aa 	tst	r9, sl, lsr #13

000016b0 <l1326>:
    16b0:	c0e65007 	rscgt	r5, r6, r7

000016b4 <l1327>:
    16b4:	ea000000 	b	16bc <l1329>

000016b8 <l1328>:
    16b8:	eafffffa 	b	16a8 <l1324>

000016bc <l1329>:
    16bc:	a199a007 	orrsge	sl, r9, r7

000016c0 <l1330>:
    16c0:	e16f3f16 	clz	r3, r6

000016c4 <l1331>:
    16c4:	40cb89c7 	sbcmi	r8, fp, r7, asr #19

000016c8 <l1332>:
    16c8:	73380b01 	teqvc	r8, #1024	; 0x400

000016cc <l1333>:
    16cc:	63cf5806 	bicvs	r5, pc, #393216	; 0x60000

000016d0 <l1334>:
    16d0:	6a000004 	bvs	16e8 <l1340>

000016d4 <l1335>:
    16d4:	731a0533 	tstvc	sl, #213909504	; 0xcc00000

000016d8 <l1336>:
    16d8:	e04b4007 	sub	r4, fp, r7

000016dc <l1337>:
    16dc:	e25c86b3 	subs	r8, ip, #187695104	; 0xb300000

000016e0 <l1338>:
    16e0:	e045a53e 	sub	sl, r5, lr, lsr r5

000016e4 <l1339>:
    16e4:	1272adcf 	rsbsne	sl, r2, #13248	; 0x33c0

000016e8 <l1340>:
    16e8:	e3320db7 	teq	r2, #11712	; 0x2dc0

000016ec <l1341>:
    16ec:	11700510 	cmnne	r0, r0, lsl r5

000016f0 <l1342>:
    16f0:	00beb220 	adcseq	fp, lr, r0, lsr #4

000016f4 <l1343>:
    16f4:	e8bd052b 	pop	{r0, r1, r3, r5, r8, sl}

000016f8 <l1344>:
    16f8:	a15da1f2 	ldrshge	sl, [sp, #-18]	; 0xffffffee

000016fc <l1345>:
    16fc:	e024c06a 	eor	ip, r4, sl, rrx

00001700 <l1346>:
    1700:	a0f6600e 	rscsge	r6, r6, lr

00001704 <l1347>:
    1704:	e3a05002 	mov	r5, #2

00001708 <l1348>:
    1708:	119d60b5 	ldrhne	r6, [sp, r5]

0000170c <l1349>:
    170c:	e224a0ec 	eor	sl, r4, #236	; 0xec

00001710 <l1350>:
    1710:	e11504e5 	tst	r5, r5, ror #9

00001714 <l1351>:
    1714:	e3a09010 	mov	r9, #16

00001718 <l1352>:
    1718:	e7ad1009 	str	r1, [sp, r9]!

0000171c <l1353>:
    171c:	e337089a 	teq	r7, #10092544	; 0x9a0000

00001720 <l1354>:
    1720:	e92d2000 	stmfd	sp!, {sp}

00001724 <l1355>:
    1724:	e3a0502b 	mov	r5, #43	; 0x2b

00001728 <l1356>:
    1728:	e75de005 	ldrb	lr, [sp, -r5]

0000172c <l1357>:
    172c:	e83d0010 	ldmda	sp!, {r4}

00001730 <l1358>:
    1730:	7a000001 	bvc	173c <l1361>

00001734 <l1359>:
    1734:	b0422433 	sublt	r2, r2, r3, lsr r4

00001738 <l1360>:
    1738:	e1b0ba3a 	lsrs	fp, sl, sl

0000173c <l1361>:
    173c:	e178092c 	cmn	r8, ip, lsr #18

00001740 <l1362>:
    1740:	e92d2000 	stmfd	sp!, {sp}

00001744 <l1363>:
    1744:	a17e0007 	cmnge	lr, r7

00001748 <l1364>:
    1748:	e81d1040 	ldmda	sp, {r6, ip}

0000174c <l1365>:
    174c:	c0f50066 	rscsgt	r0, r5, r6, rrx

00001750 <l1366>:
    1750:	e1b0bb34 	lsrs	fp, r4, fp

00001754 <l1367>:
    1754:	01a002a1 	lsreq	r0, r1, #5

00001758 <l1368>:
    1758:	4037c006 	eorsmi	ip, r7, r6

0000175c <l1369>:
    175c:	81a02002 	movhi	r2, r2

00001760 <l1370>:
    1760:	e3a00004 	mov	r0, #4

00001764 <l1371>:
    1764:	211d50d0 	ldrsbcs	r5, [sp, -r0]

00001768 <l1372>:
    1768:	2058ba56 	subscs	fp, r8, r6, asr sl

0000176c <l1373>:
    176c:	d58d0000 	strle	r0, [sp]

00001770 <l1374>:
    1770:	a1ddb1d5 	ldrsbge	fp, [sp, #21]

00001774 <l1375>:
    1774:	1a000003 	bne	1788 <l1380>

00001778 <l1376>:
    1778:	a0cca064 	sbcge	sl, ip, r4, rrx

0000177c <l1377>:
    177c:	b1f06061 	mvnslt	r6, r1, rrx

00001780 <l1378>:
    1780:	63580b15 	cmpvs	r8, #21504	; 0x5400

00001784 <l1379>:
    1784:	e029525a 	eor	r5, r9, sl, asr r2

00001788 <l1380>:
    1788:	d3f08f8b 	mvnsle	r8, #556	; 0x22c

0000178c <l1381>:
    178c:	e24ba637 	sub	sl, fp, #57671680	; 0x3700000

00001790 <l1382>:
    1790:	30788001 	rsbscc	r8, r8, r1

00001794 <l1383>:
    1794:	216f8f1e 	clzcs	r8, lr

00001798 <l1384>:
    1798:	616f4f11 	clzvs	r4, r1

0000179c <l1385>:
    179c:	72698e2b 	rsbvc	r8, r9, #688	; 0x2b0

000017a0 <l1386>:
    17a0:	e2922323 	adds	r2, r2, #-1946157056	; 0x8c000000

000017a4 <l1387>:
    17a4:	e59f4000 	ldr	r4, [pc]	; 17ac <l1389>

000017a8 <l1388>:
    17a8:	ea000000 	b	17b0 <l1390>

000017ac <l1389>:
    17ac:	000fffb8 	.word	0x000fffb8

000017b0 <l1390>:
    17b0:	d1447098 	swpble	r7, r8, [r4]

000017b4 <l1391>:
    17b4:	e159006b 	cmp	r9, fp, rrx

000017b8 <l1392>:
    17b8:	ea000005 	b	17d4 <l1399>

000017bc <l1393>:
    17bc:	40033067 	andmi	r3, r3, r7, rrx

000017c0 <l1394>:
    17c0:	516f4f1e 	clzpl	r4, lr

000017c4 <l1395>:
    17c4:	e09e9266 	adds	r9, lr, r6, ror #4

000017c8 <l1396>:
    17c8:	e1e0c4a1 	mvn	ip, r1, lsr #9

000017cc <l1397>:
    17cc:	e1580539 	cmp	r8, r9, lsr r5

000017d0 <l1398>:
    17d0:	e2d8b01c 	sbcs	fp, r8, #28

000017d4 <l1399>:
    17d4:	e16f2f14 	clz	r2, r4

000017d8 <l1400>:
    17d8:	e0406007 	sub	r6, r0, r7

000017dc <l1401>:
    17dc:	e14de0ba 	strh	lr, [sp, #-10]

000017e0 <l1402>:
    17e0:	9002beaa 	andls	fp, r2, sl, lsr #29

000017e4 <l1403>:
    17e4:	e053c612 	subs	ip, r3, r2, lsl r6

000017e8 <l1404>:
    17e8:	0038741a 	eorseq	r7, r8, sl, lsl r4

000017ec <l1405>:
    17ec:	e1140326 	tst	r4, r6, lsr #6

000017f0 <l1406>:
    17f0:	e02c7139 	eor	r7, ip, r9, lsr r1

000017f4 <l1407>:
    17f4:	63d1450a 	bicsvs	r4, r1, #41943040	; 0x2800000

000017f8 <l1408>:
    17f8:	e59f3000 	ldr	r3, [pc]	; 1800 <l1410>

000017fc <l1409>:
    17fc:	ea000000 	b	1804 <l1411>

00001800 <l1410>:
    1800:	000fffe8 	.word	0x000fffe8

00001804 <l1411>:
    1804:	9103b094 	swpls	fp, r4, [r3]

00001808 <l1412>:
    1808:	e0045065 	and	r5, r4, r5, rrx

0000180c <l1413>:
    180c:	e3a0500f 	mov	r5, #15

00001810 <l1414>:
    1810:	e19d70d5 	ldrsb	r7, [sp, r5]

00001814 <l1415>:
    1814:	e0b1400f 	adcs	r4, r1, pc

00001818 <l1416>:
    1818:	e3a0e004 	mov	lr, #4

0000181c <l1417>:
    181c:	010d60be 	strheq	r6, [sp, -lr]

00001820 <l1418>:
    1820:	e59fc000 	ldr	ip, [pc]	; 1828 <l1420>

00001824 <l1419>:
    1824:	ea000000 	b	182c <l1421>

00001828 <l1420>:
    1828:	000fffd8 	.word	0x000fffd8

0000182c <l1421>:
    182c:	e14c709a 	swpb	r7, sl, [ip]

00001830 <l1422>:
    1830:	e59f8000 	ldr	r8, [pc]	; 1838 <l1424>

00001834 <l1423>:
    1834:	ea000000 	b	183c <l1425>

00001838 <l1424>:
    1838:	000fffb0 	.word	0x000fffb0

0000183c <l1425>:
    183c:	21080095 	swpcs	r0, r5, [r8]

00001840 <l1426>:
    1840:	e1a03061 	rrx	r3, r1

00001844 <l1427>:
    1844:	e3a0a02f 	mov	sl, #47	; 0x2f

00001848 <l1428>:
    1848:	d75d000a 	ldrble	r0, [sp, -sl]

0000184c <l1429>:
    184c:	e0234066 	eor	r4, r3, r6, rrx

00001850 <l1430>:
    1850:	e1a00000 	nop			; (mov r0, r0)

00001854 <l1431>:
    1854:	32126a9e 	andscc	r6, r2, #647168	; 0x9e000

00001858 <l1432>:
    1858:	e19f8863 	orrs	r8, pc, r3, ror #16

0000185c <l1433>:
    185c:	00b63b04 	adcseq	r3, r6, r4, lsl #22

00001860 <l1434>:
    1860:	e111000a 	tst	r1, sl

00001864 <l1435>:
    1864:	e59f4000 	ldr	r4, [pc]	; 186c <l1437>

00001868 <l1436>:
    1868:	ea000000 	b	1870 <l1438>

0000186c <l1437>:
    186c:	000fffc0 	.word	0x000fffc0

00001870 <l1438>:
    1870:	e1049093 	swp	r9, r3, [r4]

00001874 <l1439>:
    1874:	e3a0501c 	mov	r5, #28

00001878 <l1440>:
    1878:	710d40b5 	strhvc	r4, [sp, -r5]

0000187c <l1441>:
    187c:	e31e0d9d 	tst	lr, #10048	; 0x2740

00001880 <l1442>:
    1880:	e0154154 	ands	r4, r5, r4, asr r1

00001884 <l1443>:
    1884:	e83d0600 	ldmda	sp!, {r9, sl}

00001888 <l1444>:
    1888:	233804aa 	teqcs	r8, #-1442840576	; 0xaa000000

0000188c <l1445>:
    188c:	e40d5018 	str	r5, [sp], #-24

00001890 <l1446>:
    1890:	e1c651e6 	bic	r5, r6, r6, ror #3

00001894 <l1447>:
    1894:	70b4b5a9 	adcsvc	fp, r4, r9, lsr #11

00001898 <l1448>:
    1898:	52016b02 	andpl	r6, r1, #2048	; 0x800

0000189c <l1449>:
    189c:	31b00004 	movscc	r0, r4

000018a0 <l1450>:
    18a0:	206eb187 	rsbcs	fp, lr, r7, lsl #3

000018a4 <l1451>:
    18a4:	808caa71 	addhi	sl, ip, r1, ror sl

000018a8 <l1452>:
    18a8:	304ae00a 	subcc	lr, sl, sl

000018ac <l1453>:
    18ac:	015c000e 	cmpeq	ip, lr

000018b0 <l1454>:
    18b0:	e299a215 	adds	sl, r9, #1342177281	; 0x50000001

000018b4 <l1455>:
    18b4:	ea000004 	b	18cc <l1461>

000018b8 <l1456>:
    18b8:	e280109b 	add	r1, r0, #155	; 0x9b

000018bc <l1457>:
    18bc:	e33a05ad 	teq	sl, #725614592	; 0x2b400000

000018c0 <l1458>:
    18c0:	b020c874 	eorlt	ip, r0, r4, ror r8

000018c4 <l1459>:
    18c4:	e0833c22 	add	r3, r3, r2, lsr #24

000018c8 <l1460>:
    18c8:	ea000000 	b	18d0 <l1462>

000018cc <l1461>:
    18cc:	eafffffa 	b	18bc <l1457>

000018d0 <l1462>:
    18d0:	e191ce75 	orrs	ip, r1, r5, ror lr

000018d4 <l1463>:
    18d4:	339be776 	orrscc	lr, fp, #30932992	; 0x1d80000

000018d8 <l1464>:
    18d8:	e16f6f18 	clz	r6, r8

000018dc <l1465>:
    18dc:	11790729 	cmnne	r9, r9, lsr #14

000018e0 <l1466>:
    18e0:	622aea46 	eorvs	lr, sl, #286720	; 0x46000

000018e4 <l1467>:
    18e4:	615d90d2 	ldrsbvs	r9, [sp, #-2]

000018e8 <l1468>:
    18e8:	e080cf6a 	add	ip, r0, sl, ror #30

000018ec <l1469>:
    18ec:	219a594c 	orrscs	r5, sl, ip, asr #18

000018f0 <l1470>:
    18f0:	0056506a 	subseq	r5, r6, sl, rrx

000018f4 <l1471>:
    18f4:	e40db010 	str	fp, [sp], #-16

000018f8 <l1472>:
    18f8:	e13c0616 	teq	ip, r6, lsl r6

000018fc <l1473>:
    18fc:	63832a53 	orrvs	r2, r3, #339968	; 0x53000

00001900 <l1474>:
    1900:	a0cccb7a 	sbcge	ip, ip, sl, ror fp

00001904 <l1475>:
    1904:	ea000006 	b	1924 <l1483>

00001908 <l1476>:
    1908:	a16f8f19 	clzge	r8, r9

0000190c <l1477>:
    190c:	e2e94abf 	rsc	r4, r9, #782336	; 0xbf000

00001910 <l1478>:
    1910:	e1130ee2 	tst	r3, r2, ror #29

00001914 <l1479>:
    1914:	e31a0068 	tst	sl, #104	; 0x68

00001918 <l1480>:
    1918:	e18e0009 	orr	r0, lr, r9

0000191c <l1481>:
    191c:	e112057e 	tst	r2, lr, ror r5

00001920 <l1482>:
    1920:	e3cccd26 	bic	ip, ip, #2432	; 0x980

00001924 <l1483>:
    1924:	e117055a 	tst	r7, sl, asr r5

00001928 <l1484>:
    1928:	b1350152 	teqlt	r5, r2, asr r1

0000192c <l1485>:
    192c:	13140ad6 	tstne	r4, #876544	; 0xd6000

00001930 <l1486>:
    1930:	a0663e3a 	rsbge	r3, r6, sl, lsr lr

00001934 <l1487>:
    1934:	e054300c 	subs	r3, r4, ip

00001938 <l1488>:
    1938:	c03a3004 	eorsgt	r3, sl, r4

0000193c <l1489>:
    193c:	e3190f91 	tst	r9, #580	; 0x244

00001940 <l1490>:
    1940:	e59fb000 	ldr	fp, [pc]	; 1948 <l1492>

00001944 <l1491>:
    1944:	ea000000 	b	194c <l1493>

00001948 <l1492>:
    1948:	000fffb8 	.word	0x000fffb8

0000194c <l1493>:
    194c:	914b2092 	swpbls	r2, r2, [fp]

00001950 <l1494>:
    1950:	d2a020dc 	adcle	r2, r0, #220	; 0xdc

00001954 <l1495>:
    1954:	12a86c02 	adcne	r6, r8, #512	; 0x200

00001958 <l1496>:
    1958:	e3a0b047 	mov	fp, #71	; 0x47

0000195c <l1497>:
    195c:	e7dd600b 	ldrb	r6, [sp, fp]

00001960 <l1498>:
    1960:	91d499e1 	bicsls	r9, r4, r1, ror #19

00001964 <l1499>:
    1964:	e3a0b03c 	mov	fp, #60	; 0x3c

00001968 <l1500>:
    1968:	118d10bb 	strhne	r1, [sp, fp]

0000196c <l1501>:
    196c:	e0bb965a 	adcs	r9, fp, sl, asr r6

00001970 <l1502>:
    1970:	e1f0563b 	mvns	r5, fp, lsr r6

00001974 <l1503>:
    1974:	d232a236 	eorsle	sl, r2, #1610612739	; 0x60000003

00001978 <l1504>:
    1978:	e3a00026 	mov	r0, #38	; 0x26

0000197c <l1505>:
    197c:	218dc0b0 	strhcs	ip, [sp, r0]

00001980 <l1506>:
    1980:	e59f1000 	ldr	r1, [pc]	; 1988 <l1508>

00001984 <l1507>:
    1984:	ea000000 	b	198c <l1509>

00001988 <l1508>:
    1988:	000fffdc 	.word	0x000fffdc

0000198c <l1509>:
    198c:	b141a094 	swpblt	sl, r4, [r1]

00001990 <l1510>:
    1990:	11dde0f2 	ldrshne	lr, [sp, #2]

00001994 <l1511>:
    1994:	e88dbe7b 	stm	sp, {r0, r1, r3, r4, r5, r6, r9, sl, fp, ip, sp, pc}

00001998 <l1512>:
    1998:	e9bd17f3 	ldmib	sp!, {r0, r1, r4, r5, r6, r7, r8, r9, sl, ip}

0000199c <l1513>:
    199c:	e3a05d59 	mov	r5, #5696	; 0x1640

000019a0 <l1514>:
    19a0:	e2c2c1af 	sbc	ip, r2, #-1073741781	; 0xc000002b

000019a4 <l1515>:
    19a4:	ea000005 	b	19c0 <l1522>

000019a8 <l1516>:
    19a8:	e16f0f1a 	clz	r0, sl

000019ac <l1517>:
    19ac:	e1b0300f 	movs	r3, pc

000019b0 <l1518>:
    19b0:	e1540a50 	cmp	r4, r0, asr sl

000019b4 <l1519>:
    19b4:	e19ec060 	orrs	ip, lr, r0, rrx

000019b8 <l1520>:
    19b8:	e37e033a 	cmn	lr, #-402653184	; 0xe8000000

000019bc <l1521>:
    19bc:	e06210cc 	rsb	r1, r2, ip, asr #1

000019c0 <l1522>:
    19c0:	80557d61 	subshi	r7, r5, r1, ror #26

000019c4 <l1523>:
    19c4:	e0d9206a 	sbcs	r2, r9, sl, rrx

000019c8 <l1524>:
    19c8:	e1f0ea2e 	mvns	lr, lr, lsr #20

000019cc <l1525>:
    19cc:	92353406 	eorsls	r3, r5, #100663296	; 0x6000000

000019d0 <l1526>:
    19d0:	e82d97c4 	stmda	sp!, {r2, r6, r7, r8, r9, sl, ip, pc}

000019d4 <l1527>:
    19d4:	11cd73b4 	strhne	r7, [sp, #52]	; 0x34

000019d8 <l1528>:
    19d8:	01cf2bcc 	biceq	r2, pc, ip, asr #23

000019dc <l1529>:
    19dc:	0a000006 	beq	19fc <l1537>

000019e0 <l1530>:
    19e0:	d20e3509 	andle	r3, lr, #37748736	; 0x2400000

000019e4 <l1531>:
    19e4:	60487601 	subvs	r7, r8, r1, lsl #12

000019e8 <l1532>:
    19e8:	e137075e 	teq	r7, lr, asr r7

000019ec <l1533>:
    19ec:	31f07fa2 	mvnscc	r7, r2, lsr #31

000019f0 <l1534>:
    19f0:	735e0333 	cmpvc	lr, #-872415232	; 0xcc000000

000019f4 <l1535>:
    19f4:	e0435474 	sub	r5, r3, r4, ror r4

000019f8 <l1536>:
    19f8:	003f0002 	eorseq	r0, pc, r2

000019fc <l1537>:
    19fc:	416fcf16 	clzmi	ip, r6

00001a00 <l1538>:
    1a00:	016f5f19 	clzeq	r5, r9

00001a04 <l1539>:
    1a04:	e59f3000 	ldr	r3, [pc]	; 1a0c <l1541>

00001a08 <l1540>:
    1a08:	ea000000 	b	1a10 <l1542>

00001a0c <l1541>:
    1a0c:	000fffe0 	.word	0x000fffe0

00001a10 <l1542>:
    1a10:	b1434092 	swpblt	r4, r2, [r3]

00001a14 <l1543>:
    1a14:	4043c519 	submi	ip, r3, r9, lsl r5

00001a18 <l1544>:
    1a18:	60ec3009 	rscvs	r3, ip, r9

00001a1c <l1545>:
    1a1c:	217e0364 	cmncs	lr, r4, ror #6

00001a20 <l1546>:
    1a20:	e59fb000 	ldr	fp, [pc]	; 1a28 <l1548>

00001a24 <l1547>:
    1a24:	ea000000 	b	1a2c <l1549>

00001a28 <l1548>:
    1a28:	000fffe8 	.word	0x000fffe8

00001a2c <l1549>:
    1a2c:	e10b409a 	swp	r4, sl, [fp]

00001a30 <l1550>:
    1a30:	c317001f 	tstgt	r7, #31

00001a34 <l1551>:
    1a34:	9131000c 	teqls	r1, ip

00001a38 <l1552>:
    1a38:	e99d0031 	ldmib	sp, {r0, r4, r5}

00001a3c <l1553>:
    1a3c:	e1e02259 	mvn	r2, r9, asr r2

00001a40 <l1554>:
    1a40:	ea000005 	b	1a5c <l1561>

00001a44 <l1555>:
    1a44:	80b15000 	adcshi	r5, r1, r0

00001a48 <l1556>:
    1a48:	e16f3f1e 	clz	r3, lr

00001a4c <l1557>:
    1a4c:	e04119aa 	sub	r1, r1, sl, lsr #19

00001a50 <l1558>:
    1a50:	10b2a651 	adcsne	sl, r2, r1, asr r6

00001a54 <l1559>:
    1a54:	d16f0f17 	clzle	r0, r7

00001a58 <l1560>:
    1a58:	816fbf16 	clzhi	fp, r6

00001a5c <l1561>:
    1a5c:	e2396633 	eors	r6, r9, #53477376	; 0x3300000

00001a60 <l1562>:
    1a60:	b03a107a 	eorslt	r1, sl, sl, ror r0

00001a64 <l1563>:
    1a64:	61dd22f4 	ldrshvs	r2, [sp, #36]	; 0x24

00001a68 <l1564>:
    1a68:	50e81001 	rscpl	r1, r8, r1

00001a6c <l1565>:
    1a6c:	70125677 	andsvc	r5, r2, r7, ror r6

00001a70 <l1566>:
    1a70:	e13406a3 	teq	r4, r3, lsr #13

00001a74 <l1567>:
    1a74:	d338045e 	teqle	r8, #1577058304	; 0x5e000000

00001a78 <l1568>:
    1a78:	7a000004 	bvc	1a90 <l1574>

00001a7c <l1569>:
    1a7c:	e28010a0 	add	r1, r0, #160	; 0xa0

00001a80 <l1570>:
    1a80:	e1c0700e 	bic	r7, r0, lr

00001a84 <l1571>:
    1a84:	11dca004 	bicsne	sl, ip, r4

00001a88 <l1572>:
    1a88:	a28553b3 	addge	r5, r5, #-872415230	; 0xcc000002

00001a8c <l1573>:
    1a8c:	ea000000 	b	1a94 <l1575>

00001a90 <l1574>:
    1a90:	eafffffa 	b	1a80 <l1570>

00001a94 <l1575>:
    1a94:	2a000003 	bcs	1aa8 <l1580>

00001a98 <l1576>:
    1a98:	e2801071 	add	r1, r0, #113	; 0x71

00001a9c <l1577>:
    1a9c:	82a7a6db 	adchi	sl, r7, #229638144	; 0xdb00000

00001aa0 <l1578>:
    1aa0:	e074887b 	rsbs	r8, r4, fp, ror r8

00001aa4 <l1579>:
    1aa4:	ea000000 	b	1aac <l1581>

00001aa8 <l1580>:
    1aa8:	eafffffb 	b	1a9c <l1577>

00001aac <l1581>:
    1aac:	81dbe01a 	bicshi	lr, fp, sl, lsl r0

00001ab0 <l1582>:
    1ab0:	e39c0715 	orrs	r0, ip, #5505024	; 0x540000

00001ab4 <l1583>:
    1ab4:	e2844001 	add	r4, r4, #1

00001ab8 <l1584>:
    1ab8:	10d21001 	sbcsne	r1, r2, r1

00001abc <l1585>:
    1abc:	204138a2 	subcs	r3, r1, r2, lsr #17

00001ac0 <l1586>:
    1ac0:	e1720275 	cmn	r2, r5, ror r2

00001ac4 <l1587>:
    1ac4:	e243b9b7 	sub	fp, r3, #2998272	; 0x2dc000

00001ac8 <l1588>:
    1ac8:	e3a01013 	mov	r1, #19

00001acc <l1589>:
    1acc:	e19d60d1 	ldrsb	r6, [sp, r1]

00001ad0 <l1590>:
    1ad0:	c177098e 	cmngt	r7, lr, lsl #19

00001ad4 <l1591>:
    1ad4:	21e0300b 	mvncs	r3, fp

00001ad8 <l1592>:
    1ad8:	e3a03000 	mov	r3, #0

00001adc <l1593>:
    1adc:	e7ad0003 	str	r0, [sp, r3]!

00001ae0 <l1594>:
    1ae0:	e359075e 	cmp	r9, #24641536	; 0x1780000

00001ae4 <l1595>:
    1ae4:	e06eb000 	rsb	fp, lr, r0

00001ae8 <l1596>:
    1ae8:	e3a03019 	mov	r3, #25

00001aec <l1597>:
    1aec:	e19d50d3 	ldrsb	r5, [sp, r3]

00001af0 <l1598>:
    1af0:	e1b0c8c7 	asrs	ip, r7, #17

00001af4 <l1599>:
    1af4:	62591665 	subsvs	r1, r9, #105906176	; 0x6500000

00001af8 <l1600>:
    1af8:	e1560001 	cmp	r6, r1

00001afc <l1601>:
    1afc:	716fcf1b 	clzvc	ip, fp

00001b00 <l1602>:
    1b00:	5a000000 	bpl	1b08 <l1604>

00001b04 <l1603>:
    1b04:	e0dc4001 	sbcs	r4, ip, r1

00001b08 <l1604>:
    1b08:	e2a087be 	adc	r8, r0, #49807360	; 0x2f80000

00001b0c <l1605>:
    1b0c:	e3a04042 	mov	r4, #66	; 0x42

00001b10 <l1606>:
    1b10:	e19d90f4 	ldrsh	r9, [sp, r4]

00001b14 <l1607>:
    1b14:	e59f8000 	ldr	r8, [pc]	; 1b1c <l1609>

00001b18 <l1608>:
    1b18:	ea000000 	b	1b20 <l1610>

00001b1c <l1609>:
    1b1c:	000fffcc 	.word	0x000fffcc

00001b20 <l1610>:
    1b20:	7108e099 	swpvc	lr, r9, [r8]

00001b24 <l1611>:
    1b24:	40866a1b 	addmi	r6, r6, fp, lsl sl

00001b28 <l1612>:
    1b28:	e1a00000 	nop			; (mov r0, r0)

00001b2c <l1613>:
    1b2c:	eaffffff 	b	1b30 <l1614>

00001b30 <l1614>:
    1b30:	61140060 	tstvs	r4, r0, rrx

00001b34 <l1615>:
    1b34:	d1dd92b8 	ldrhle	r9, [sp, #40]	; 0x28

00001b38 <l1616>:
    1b38:	b1dde1d7 	ldrsblt	lr, [sp, #23]

00001b3c <l1617>:
    1b3c:	e1a00000 	nop			; (mov r0, r0)

00001b40 <l1618>:
    1b40:	e0597e1a 	subs	r7, r9, sl, lsl lr

00001b44 <l1619>:
    1b44:	e1dde0dc 	ldrsb	lr, [sp, #12]

00001b48 <l1620>:
    1b48:	e18b3006 	orr	r3, fp, r6

00001b4c <l1621>:
    1b4c:	d03c700c 	eorsle	r7, ip, ip

00001b50 <l1622>:
    1b50:	e1a00000 	nop			; (mov r0, r0)

00001b54 <l1623>:
    1b54:	e0a49334 	adc	r9, r4, r4, lsr r3

00001b58 <l1624>:
    1b58:	e3a0a01f 	mov	sl, #31

00001b5c <l1625>:
    1b5c:	e7dd800a 	ldrb	r8, [sp, sl]

00001b60 <l1626>:
    1b60:	b1f07063 	mvnslt	r7, r3, rrx

00001b64 <l1627>:
    1b64:	004a32cb 	subeq	r3, sl, fp, asr #5

00001b68 <l1628>:
    1b68:	35ddc020 	ldrbcc	ip, [sp, #32]

00001b6c <l1629>:
    1b6c:	e3992ce7 	orrs	r2, r9, #59136	; 0xe700

00001b70 <l1630>:
    1b70:	51170062 	tstpl	r7, r2, rrx

00001b74 <l1631>:
    1b74:	e2eba07a 	rsc	sl, fp, #122	; 0x7a

00001b78 <l1632>:
    1b78:	e3a0501c 	mov	r5, #28

00001b7c <l1633>:
    1b7c:	418dc0b5 	strhmi	ip, [sp, r5]

00001b80 <l1634>:
    1b80:	e11f07ee 	tst	pc, lr, ror #15

00001b84 <l1635>:
    1b84:	00490000 	subeq	r0, r9, r0

00001b88 <l1636>:
    1b88:	e1a07001 	mov	r7, r1

00001b8c <l1637>:
    1b8c:	31cda0b0 	strhcc	sl, [sp]

00001b90 <l1638>:
    1b90:	b50d7004 	strlt	r7, [sp, #-4]

00001b94 <l1639>:
    1b94:	e1a00000 	nop			; (mov r0, r0)

00001b98 <l1640>:
    1b98:	1020a002 	eorne	sl, r0, r2

00001b9c <l1641>:
    1b9c:	907185c0 	rsbsls	r8, r1, r0, asr #11

00001ba0 <l1642>:
    1ba0:	2041013a 	subcs	r0, r1, sl, lsr r1

00001ba4 <l1643>:
    1ba4:	e59f2000 	ldr	r2, [pc]	; 1bac <l1645>

00001ba8 <l1644>:
    1ba8:	ea000000 	b	1bb0 <l1646>

00001bac <l1645>:
    1bac:	000fffac 	.word	0x000fffac

00001bb0 <l1646>:
    1bb0:	c142a098 	swpbgt	sl, r8, [r2]

00001bb4 <l1647>:
    1bb4:	d5dd7018 	ldrble	r7, [sp, #24]

00001bb8 <l1648>:
    1bb8:	ea000006 	b	1bd8 <l1656>

00001bbc <l1649>:
    1bbc:	e280103a 	add	r1, r0, #58	; 0x3a

00001bc0 <l1650>:
    1bc0:	637e009b 	cmnvs	lr, #155	; 0x9b

00001bc4 <l1651>:
    1bc4:	e1710002 	cmn	r1, r2

00001bc8 <l1652>:
    1bc8:	d1f02061 	mvnsle	r2, r1, rrx

00001bcc <l1653>:
    1bcc:	81c02a1e 	bichi	r2, r0, lr, lsl sl

00001bd0 <l1654>:
    1bd0:	22ec1ac3 	rsccs	r1, ip, #798720	; 0xc3000

00001bd4 <l1655>:
    1bd4:	ea000000 	b	1bdc <l1657>

00001bd8 <l1656>:
    1bd8:	eafffff8 	b	1bc0 <l1650>

00001bdc <l1657>:
    1bdc:	215c0358 	cmpcs	ip, r8, asr r3

00001be0 <l1658>:
    1be0:	93780103 	cmnls	r8, #-1073741824	; 0xc0000000

00001be4 <l1659>:
    1be4:	617b0a49 	cmnvs	fp, r9, asr #20

00001be8 <l1660>:
    1be8:	6206572d 	andvs	r5, r6, #11796480	; 0xb40000

00001bec <l1661>:
    1bec:	42eeb54a 	rscmi	fp, lr, #310378496	; 0x12800000

00001bf0 <l1662>:
    1bf0:	e1a00000 	nop			; (mov r0, r0)

00001bf4 <l1663>:
    1bf4:	e1cd31b0 	strh	r3, [sp, #16]

00001bf8 <l1664>:
    1bf8:	e59d2038 	ldr	r2, [sp, #56]	; 0x38

00001bfc <l1665>:
    1bfc:	e0c4501a 	sbc	r5, r4, sl, lsl r0

00001c00 <l1666>:
    1c00:	814db0b4 	strhhi	fp, [sp, #-4]

00001c04 <l1667>:
    1c04:	e1ddb1f6 	ldrsh	fp, [sp, #22]

00001c08 <l1668>:
    1c08:	8058e31a 	subshi	lr, r8, sl, lsl r3

00001c0c <l1669>:
    1c0c:	81dde0f0 	ldrshhi	lr, [sp]

00001c10 <l1670>:
    1c10:	e26eeab7 	rsb	lr, lr, #749568	; 0xb7000

00001c14 <l1671>:
    1c14:	c0594009 	subsgt	r4, r9, r9

00001c18 <l1672>:
    1c18:	e3a0601e 	mov	r6, #30

00001c1c <l1673>:
    1c1c:	819d50f6 	ldrshhi	r5, [sp, r6]

00001c20 <l1674>:
    1c20:	7affffff 	bvc	1c24 <l1675>

00001c24 <l1675>:
    1c24:	716f4f1c 	clzvc	r4, ip

00001c28 <l1676>:
    1c28:	90238008 	eorls	r8, r3, r8

00001c2c <l1677>:
    1c2c:	71cb4009 	bicvc	r4, fp, r9

00001c30 <l1678>:
    1c30:	e1a00000 	nop			; (mov r0, r0)

00001c34 <l1679>:
    1c34:	e1d36007 	bics	r6, r3, r7

00001c38 <l1680>:
    1c38:	c08c250c 	addgt	r2, ip, ip, lsl #10

00001c3c <l1681>:
    1c3c:	1052e112 	subsne	lr, r2, r2, lsl r1

00001c40 <l1682>:
    1c40:	01150e4a 	tsteq	r5, sl, asr #28

00001c44 <l1683>:
    1c44:	e3a0503f 	mov	r5, #63	; 0x3f

00001c48 <l1684>:
    1c48:	e7dd3005 	ldrb	r3, [sp, r5]

00001c4c <l1685>:
    1c4c:	e3a00000 	mov	r0, #0

00001c50 <l1686>:
    1c50:	07cd4000 	strbeq	r4, [sp, r0]

00001c54 <l1687>:
    1c54:	e3d65bde 	bics	r5, r6, #227328	; 0x37800

00001c58 <l1688>:
    1c58:	ea000005 	b	1c74 <l1695>

00001c5c <l1689>:
    1c5c:	e2801066 	add	r1, r0, #102	; 0x66

00001c60 <l1690>:
    1c60:	e0f5a0a6 	rscs	sl, r5, r6, lsr #1

00001c64 <l1691>:
    1c64:	d0815009 	addle	r5, r1, r9

00001c68 <l1692>:
    1c68:	30470251 	subcc	r0, r7, r1, asr r2

00001c6c <l1693>:
    1c6c:	e0f5a437 	rscs	sl, r5, r7, lsr r4

00001c70 <l1694>:
    1c70:	ea000000 	b	1c78 <l1696>

00001c74 <l1695>:
    1c74:	eafffff9 	b	1c60 <l1690>

00001c78 <l1696>:
    1c78:	3a000004 	bcc	1c90 <l1702>

00001c7c <l1697>:
    1c7c:	e1360069 	teq	r6, r9, rrx

00001c80 <l1698>:
    1c80:	e1f0443b 	mvns	r4, fp, lsr r4

00001c84 <l1699>:
    1c84:	b382e2de 	orrlt	lr, r2, #-536870899	; 0xe000000d

00001c88 <l1700>:
    1c88:	e046b000 	sub	fp, r6, r0

00001c8c <l1701>:
    1c8c:	e05bce6e 	subs	ip, fp, lr, ror #28

00001c90 <l1702>:
    1c90:	e06c6068 	rsb	r6, ip, r8, rrx

00001c94 <l1703>:
    1c94:	e5cd802d 	strb	r8, [sp, #45]	; 0x2d

00001c98 <l1704>:
    1c98:	11740fe2 	cmnne	r4, r2, ror #31

00001c9c <l1705>:
    1c9c:	c11b0c33 	tstgt	fp, r3, lsr ip

00001ca0 <l1706>:
    1ca0:	e3b02365 	movs	r2, #-1811939327	; 0x94000001

00001ca4 <l1707>:
    1ca4:	e218262b 	ands	r2, r8, #45088768	; 0x2b00000

00001ca8 <l1708>:
    1ca8:	a17703ef 	cmnge	r7, pc, ror #7

00001cac <l1709>:
    1cac:	e1190149 	tst	r9, r9, asr #2

00001cb0 <l1710>:
    1cb0:	e1f0200c 	mvns	r2, ip

00001cb4 <l1711>:
    1cb4:	e3a02018 	mov	r2, #24

00001cb8 <l1712>:
    1cb8:	e69da002 	ldr	sl, [sp], r2

00001cbc <l1713>:
    1cbc:	e93d41c4 	ldmdb	sp!, {r2, r6, r7, r8, lr}

00001cc0 <l1714>:
    1cc0:	6195700e 	orrsvs	r7, r5, lr

00001cc4 <l1715>:
    1cc4:	c05e900c 	subsgt	r9, lr, ip

00001cc8 <l1716>:
    1cc8:	4191206f 	orrsmi	r2, r1, pc, rrx

00001ccc <l1717>:
    1ccc:	51dd23d1 	ldrsbpl	r2, [sp, #49]	; 0x31

00001cd0 <l1718>:
    1cd0:	e1770506 	cmn	r7, r6, lsl #10

00001cd4 <l1719>:
    1cd4:	127eb289 	rsbsne	fp, lr, #-1879048184	; 0x90000008

00001cd8 <l1720>:
    1cd8:	e3a06004 	mov	r6, #4

00001cdc <l1721>:
    1cdc:	e7bde006 	ldr	lr, [sp, r6]!

00001ce0 <l1722>:
    1ce0:	2a000008 	bcs	1d08 <l1732>

00001ce4 <l1723>:
    1ce4:	71540d20 	cmpvc	r4, r0, lsr #26

00001ce8 <l1724>:
    1ce8:	e2d07432 	sbcs	r7, r0, #838860800	; 0x32000000

00001cec <l1725>:
    1cec:	e1b012ef 	rors	r1, pc, #5

00001cf0 <l1726>:
    1cf0:	63a0020b 	movvs	r0, #-1342177280	; 0xb0000000

00001cf4 <l1727>:
    1cf4:	b3c00902 	biclt	r0, r0, #32768	; 0x8000

00001cf8 <l1728>:
    1cf8:	e2c3b33a 	sbc	fp, r3, #-402653184	; 0xe8000000

00001cfc <l1729>:
    1cfc:	52c59d07 	sbcpl	r9, r5, #448	; 0x1c0

00001d00 <l1730>:
    1d00:	80224065 	eorhi	r4, r2, r5, rrx

00001d04 <l1731>:
    1d04:	e1b01c70 	rors	r1, r0, ip

00001d08 <l1732>:
    1d08:	e0016001 	and	r6, r1, r1

00001d0c <l1733>:
    1d0c:	b3ca6073 	biclt	r6, sl, #115	; 0x73

00001d10 <l1734>:
    1d10:	e0205bae 	eor	r5, r0, lr, lsr #23

00001d14 <l1735>:
    1d14:	e3a03022 	mov	r3, #34	; 0x22

00001d18 <l1736>:
    1d18:	e18de0b3 	strh	lr, [sp, r3]

00001d1c <l1737>:
    1d1c:	40247004 	eormi	r7, r4, r4

00001d20 <l1738>:
    1d20:	e59f0000 	ldr	r0, [pc]	; 1d28 <l1740>

00001d24 <l1739>:
    1d24:	ea000000 	b	1d2c <l1741>

00001d28 <l1740>:
    1d28:	000fffa4 	.word	0x000fffa4

00001d2c <l1741>:
    1d2c:	d100c094 	swple	ip, r4, [r0]

00001d30 <l1742>:
    1d30:	e59f1000 	ldr	r1, [pc]	; 1d38 <l1744>

00001d34 <l1743>:
    1d34:	ea000000 	b	1d3c <l1745>

00001d38 <l1744>:
    1d38:	000fffc4 	.word	0x000fffc4

00001d3c <l1745>:
    1d3c:	7141c096 	swpbvc	ip, r6, [r1]

00001d40 <l1746>:
    1d40:	80ceb967 	sbchi	fp, lr, r7, ror #18

00001d44 <l1747>:
    1d44:	e034aeaa 	eors	sl, r4, sl, lsr #29

00001d48 <l1748>:
    1d48:	51f0106a 	mvnspl	r1, sl, rrx

00001d4c <l1749>:
    1d4c:	e0eb260c 	rsc	r2, fp, ip, lsl #12

00001d50 <l1750>:
    1d50:	e16f8f1a 	clz	r8, sl

00001d54 <l1751>:
    1d54:	45ddb00d 	ldrbmi	fp, [sp, #13]

00001d58 <l1752>:
    1d58:	40fc5001 	rscsmi	r5, ip, r1

00001d5c <l1753>:
    1d5c:	e3a09011 	mov	r9, #17

00001d60 <l1754>:
    1d60:	019da0d9 	ldrsbeq	sl, [sp, r9]

00001d64 <l1755>:
    1d64:	9002b342 	andls	fp, r2, r2, asr #6

00001d68 <l1756>:
    1d68:	491d0404 	ldmdbmi	sp, {r2, sl}

00001d6c <l1757>:
    1d6c:	b1310034 	teqlt	r1, r4, lsr r0

00001d70 <l1758>:
    1d70:	e1c2a067 	bic	sl, r2, r7, rrx

00001d74 <l1759>:
    1d74:	e3a07010 	mov	r7, #16

00001d78 <l1760>:
    1d78:	77dd6007 	ldrbvc	r6, [sp, r7]

00001d7c <l1761>:
    1d7c:	e59fe000 	ldr	lr, [pc]	; 1d84 <l1763>

00001d80 <l1762>:
    1d80:	ea000000 	b	1d88 <l1764>

00001d84 <l1763>:
    1d84:	000fffb0 	.word	0x000fffb0

00001d88 <l1764>:
    1d88:	c14ea096 	swpbgt	sl, r6, [lr]

00001d8c <l1765>:
    1d8c:	02385619 	eorseq	r5, r8, #26214400	; 0x1900000

00001d90 <l1766>:
    1d90:	e017a007 	ands	sl, r7, r7

00001d94 <l1767>:
    1d94:	e39c02f6 	orrs	r0, ip, #1610612751	; 0x6000000f

00001d98 <l1768>:
    1d98:	e37e0c33 	cmn	lr, #13056	; 0x3300

00001d9c <l1769>:
    1d9c:	c1b0900f 	movsgt	r9, pc

00001da0 <l1770>:
    1da0:	70a6900b 	adcvc	r9, r6, fp

00001da4 <l1771>:
    1da4:	00756062 	rsbseq	r6, r5, r2, rrx

00001da8 <l1772>:
    1da8:	b2a4a19e 	adclt	sl, r4, #-2147483609	; 0x80000027

00001dac <l1773>:
    1dac:	51806060 	orrpl	r6, r0, r0, rrx

00001db0 <l1774>:
    1db0:	e59f8000 	ldr	r8, [pc]	; 1db8 <l1776>

00001db4 <l1775>:
    1db4:	ea000000 	b	1dbc <l1777>

00001db8 <l1776>:
    1db8:	000fffb8 	.word	0x000fffb8

00001dbc <l1777>:
    1dbc:	51483097 	swpbpl	r3, r7, [r8]

00001dc0 <l1778>:
    1dc0:	e1a00000 	nop			; (mov r0, r0)

00001dc4 <l1779>:
    1dc4:	e3a00007 	mov	r0, #7

00001dc8 <l1780>:
    1dc8:	275d1000 	ldrbcs	r1, [sp, -r0]

00001dcc <l1781>:
    1dcc:	e3a09007 	mov	r9, #7

00001dd0 <l1782>:
    1dd0:	775d7009 	ldrbvc	r7, [sp, -r9]

00001dd4 <l1783>:
    1dd4:	411b000f 	tstmi	fp, pc

00001dd8 <l1784>:
    1dd8:	631c03d7 	tstvs	ip, #1543503875	; 0x5c000003

00001ddc <l1785>:
    1ddc:	e3a02020 	mov	r2, #32

00001de0 <l1786>:
    1de0:	e7dd9002 	ldrb	r9, [sp, r2]

00001de4 <l1787>:
    1de4:	41e0000f 	mvnmi	r0, pc

00001de8 <l1788>:
    1de8:	e35604cf 	cmp	r6, #-822083584	; 0xcf000000

00001dec <l1789>:
    1dec:	e5dd8023 	ldrb	r8, [sp, #35]	; 0x23

00001df0 <l1790>:
    1df0:	716f7f15 	clzvc	r7, r5

00001df4 <l1791>:
    1df4:	aa000007 	bge	1e18 <l1800>

00001df8 <l1792>:
    1df8:	e2f97201 	rscs	r7, r9, #268435456	; 0x10000000

00001dfc <l1793>:
    1dfc:	e028ccee 	eor	ip, r8, lr, ror #25

00001e00 <l1794>:
    1e00:	6136000c 	teqvs	r6, ip

00001e04 <l1795>:
    1e04:	e0c91060 	sbc	r1, r9, r0, rrx

00001e08 <l1796>:
    1e08:	b19e800c 	orrslt	r8, lr, ip

00001e0c <l1797>:
    1e0c:	c0563003 	subsgt	r3, r6, r3

00001e10 <l1798>:
    1e10:	416f0f13 	clzmi	r0, r3

00001e14 <l1799>:
    1e14:	516faf1c 	clzpl	sl, ip

00001e18 <l1800>:
    1e18:	b2563326 	subslt	r3, r6, #-1744830464	; 0x98000000

00001e1c <l1801>:
    1e1c:	01819f4a 	orreq	r9, r1, sl, asr #30

00001e20 <l1802>:
    1e20:	e2b2775d 	adcs	r7, r2, #24379392	; 0x1740000

00001e24 <l1803>:
    1e24:	e5cda01a 	strb	sl, [sp, #26]

00001e28 <l1804>:
    1e28:	e3a0202c 	mov	r2, #44	; 0x2c

00001e2c <l1805>:
    1e2c:	e7ad8002 	str	r8, [sp, r2]!

00001e30 <l1806>:
    1e30:	b0632570 	rsblt	r2, r3, r0, ror r5

00001e34 <l1807>:
    1e34:	121c09a2 	andsne	r0, ip, #2654208	; 0x288000

00001e38 <l1808>:
    1e38:	0178006c 	cmneq	r8, ip, rrx

00001e3c <l1809>:
    1e3c:	425a5ff5 	subsmi	r5, sl, #980	; 0x3d4

00001e40 <l1810>:
    1e40:	e90d0204 	stmdb	sp, {r2, r9}

00001e44 <l1811>:
    1e44:	1a000003 	bne	1e58 <l1816>

00001e48 <l1812>:
    1e48:	e2801015 	add	r1, r0, #21

00001e4c <l1813>:
    1e4c:	e1370004 	teq	r7, r4

00001e50 <l1814>:
    1e50:	e1570bc9 	cmp	r7, r9, asr #23

00001e54 <l1815>:
    1e54:	ea000000 	b	1e5c <l1817>

00001e58 <l1816>:
    1e58:	eafffffb 	b	1e4c <l1813>

00001e5c <l1817>:
    1e5c:	e3a05008 	mov	r5, #8

00001e60 <l1818>:
    1e60:	e19d80b5 	ldrh	r8, [sp, r5]

00001e64 <l1819>:
    1e64:	e55d3017 	ldrb	r3, [sp, #-23]

00001e68 <l1820>:
    1e68:	481d54bd 	ldmdami	sp, {r0, r2, r3, r4, r5, r7, sl, ip, lr}

00001e6c <l1821>:
    1e6c:	e59f6000 	ldr	r6, [pc]	; 1e74 <l1823>

00001e70 <l1822>:
    1e70:	ea000000 	b	1e78 <l1824>

00001e74 <l1823>:
    1e74:	000fffa4 	.word	0x000fffa4

00001e78 <l1824>:
    1e78:	6146009c 	swpbvs	r0, ip, [r6]

00001e7c <l1825>:
    1e7c:	e0efb008 	rsc	fp, pc, r8

00001e80 <l1826>:
    1e80:	41dd40dd 	ldrsbmi	r4, [sp, #13]

00001e84 <l1827>:
    1e84:	a193106c 	orrsge	r1, r3, ip, rrx

00001e88 <l1828>:
    1e88:	ea000002 	b	1e98 <l1832>

00001e8c <l1829>:
    1e8c:	70883682 	addvc	r3, r8, r2, lsl #13

00001e90 <l1830>:
    1e90:	e15808eb 	cmp	r8, fp, ror #17

00001e94 <l1831>:
    1e94:	e01f100c 	ands	r1, pc, ip

00001e98 <l1832>:
    1e98:	20495503 	subcs	r5, r9, r3, lsl #10

00001e9c <l1833>:
    1e9c:	d15d11d7 	ldrsble	r1, [sp, #-23]	; 0xffffffe9

00001ea0 <l1834>:
    1ea0:	354d4030 	strbcc	r4, [sp, #-48]	; 0x30

00001ea4 <l1835>:
    1ea4:	91780751 	cmnls	r8, r1, asr r7

00001ea8 <l1836>:
    1ea8:	e15da3b0 	ldrh	sl, [sp, #-48]	; 0xffffffd0

00001eac <l1837>:
    1eac:	e16f8f1e 	clz	r8, lr

00001eb0 <l1838>:
    1eb0:	9a000002 	bls	1ec0 <l1842>

00001eb4 <l1839>:
    1eb4:	e280105c 	add	r1, r0, #92	; 0x5c

00001eb8 <l1840>:
    1eb8:	e1b08003 	movs	r8, r3

00001ebc <l1841>:
    1ebc:	ea000000 	b	1ec4 <l1843>

00001ec0 <l1842>:
    1ec0:	eafffffc 	b	1eb8 <l1840>

00001ec4 <l1843>:
    1ec4:	e59f3000 	ldr	r3, [pc]	; 1ecc <l1845>

00001ec8 <l1844>:
    1ec8:	ea000000 	b	1ed0 <l1846>

00001ecc <l1845>:
    1ecc:	000fffc8 	.word	0x000fffc8

00001ed0 <l1846>:
    1ed0:	e1437094 	swpb	r7, r4, [r3]

00001ed4 <l1847>:
    1ed4:	e3a05006 	mov	r5, #6

00001ed8 <l1848>:
    1ed8:	919d20f5 	ldrshls	r2, [sp, r5]

00001edc <l1849>:
    1edc:	a15da2f4 	ldrshge	sl, [sp, #-36]	; 0xffffffdc

00001ee0 <l1850>:
    1ee0:	a15dc1f0 	ldrshge	ip, [sp, #-16]

00001ee4 <l1851>:
    1ee4:	e15dc3d7 	ldrsb	ip, [sp, #-55]	; 0xffffffc9

00001ee8 <l1852>:
    1ee8:	c1dc0002 	bicsgt	r0, ip, r2

00001eec <l1853>:
    1eec:	b3a0b0df 	movlt	fp, #223	; 0xdf

00001ef0 <l1854>:
    1ef0:	e15d61fe 	ldrsh	r6, [sp, #-30]	; 0xffffffe2

00001ef4 <l1855>:
    1ef4:	3050800b 	subscc	r8, r0, fp

00001ef8 <l1856>:
    1ef8:	591d57bf 	ldmdbpl	sp, {r0, r1, r2, r3, r4, r5, r7, r8, r9, sl, ip, lr}

00001efc <l1857>:
    1efc:	e04e94cc 	sub	r9, lr, ip, asr #9

00001f00 <l1858>:
    1f00:	b55d402a 	ldrblt	r4, [sp, #-42]	; 0x2a

00001f04 <l1859>:
    1f04:	e02a3e3e 	eor	r3, sl, lr, lsr lr

00001f08 <l1860>:
    1f08:	aa000003 	bge	1f1c <l1865>

00001f0c <l1861>:
    1f0c:	e2801092 	add	r1, r0, #146	; 0x92

00001f10 <l1862>:
    1f10:	11f04b32 	mvnsne	r4, r2, lsr fp

00001f14 <l1863>:
    1f14:	41300785 	teqmi	r0, r5, lsl #15

00001f18 <l1864>:
    1f18:	ea000000 	b	1f20 <l1866>

00001f1c <l1865>:
    1f1c:	eafffffb 	b	1f10 <l1862>

00001f20 <l1866>:
    1f20:	e9bd0500 	ldmib	sp!, {r8, sl}

00001f24 <l1867>:
    1f24:	e3790b3f 	cmn	r9, #64512	; 0xfc00

00001f28 <l1868>:
    1f28:	e00a5006 	and	r5, sl, r6

00001f2c <l1869>:
    1f2c:	e15d02d8 	ldrsb	r0, [sp, #-40]	; 0xffffffd8

00001f30 <l1870>:
    1f30:	a395cde9 	orrsge	ip, r5, #14912	; 0x3a40

00001f34 <l1871>:
    1f34:	c1c47142 	bicgt	r7, r4, r2, asr #2

00001f38 <l1872>:
    1f38:	e52df008 	str	pc, [sp, #-8]!

00001f3c <l1873>:
    1f3c:	e3a03000 	mov	r3, #0

00001f40 <l1874>:
    1f40:	e68d9003 	str	r9, [sp], r3

00001f44 <l1875>:
    1f44:	80ae2000 	adchi	r2, lr, r0

00001f48 <l1876>:
    1f48:	e59f4000 	ldr	r4, [pc]	; 1f50 <l1878>

00001f4c <l1877>:
    1f4c:	ea000000 	b	1f54 <l1879>

00001f50 <l1878>:
    1f50:	000fffb8 	.word	0x000fffb8

00001f54 <l1879>:
    1f54:	e104b093 	swp	fp, r3, [r4]

00001f58 <l1880>:
    1f58:	e59f1000 	ldr	r1, [pc]	; 1f60 <l1882>

00001f5c <l1881>:
    1f5c:	ea000000 	b	1f64 <l1883>

00001f60 <l1882>:
    1f60:	000fffe4 	.word	0x000fffe4

00001f64 <l1883>:
    1f64:	e1019092 	swp	r9, r2, [r1]

00001f68 <l1884>:
    1f68:	e9ad1000 	stmib	sp!, {ip}

00001f6c <l1885>:
    1f6c:	051d303c 	ldreq	r3, [sp, #-60]	; 0x3c

00001f70 <l1886>:
    1f70:	e3cc9003 	bic	r9, ip, #3

00001f74 <l1887>:
    1f74:	e1c1500e 	bic	r5, r1, lr

00001f78 <l1888>:
    1f78:	61d9b004 	bicsvs	fp, r9, r4

00001f7c <l1889>:
    1f7c:	e1c352c6 	bic	r5, r3, r6, asr #5

00001f80 <l1890>:
    1f80:	e83d5b76 	ldmda	sp!, {r1, r2, r4, r5, r6, r8, r9, fp, ip, lr}

00001f84 <l1891>:
    1f84:	e13b0e51 	teq	fp, r1, asr lr

00001f88 <l1892>:
    1f88:	e1d822a9 	bics	r2, r8, r9, lsr #5

00001f8c <l1893>:
    1f8c:	ea000006 	b	1fac <l1901>

00001f90 <l1894>:
    1f90:	e2801059 	add	r1, r0, #89	; 0x59

00001f94 <l1895>:
    1f94:	017a01ce 	cmneq	sl, lr, asr #3

00001f98 <l1896>:
    1f98:	a2ae160e 	adcge	r1, lr, #14680064	; 0xe00000

00001f9c <l1897>:
    1f9c:	e080e006 	add	lr, r0, r6

00001fa0 <l1898>:
    1fa0:	328483ab 	addcc	r8, r4, #-1409286142	; 0xac000002

00001fa4 <l1899>:
    1fa4:	e0e89000 	rsc	r9, r8, r0

00001fa8 <l1900>:
    1fa8:	ea000000 	b	1fb0 <l1902>

00001fac <l1901>:
    1fac:	eafffff8 	b	1f94 <l1895>

00001fb0 <l1902>:
    1fb0:	8189200f 	orrhi	r2, r9, pc

00001fb4 <l1903>:
    1fb4:	e1875d80 	orr	r5, r7, r0, lsl #27

00001fb8 <l1904>:
    1fb8:	52b324ed 	adcspl	r2, r3, #-318767104	; 0xed000000

00001fbc <l1905>:
    1fbc:	e048a854 	sub	sl, r8, r4, asr r8

00001fc0 <l1906>:
    1fc0:	e59f8000 	ldr	r8, [pc]	; 1fc8 <l1908>

00001fc4 <l1907>:
    1fc4:	ea000000 	b	1fcc <l1909>

00001fc8 <l1908>:
    1fc8:	000fffe4 	.word	0x000fffe4

00001fcc <l1909>:
    1fcc:	a108e094 	swpge	lr, r4, [r8]

00001fd0 <l1910>:
    1fd0:	e59fe000 	ldr	lr, [pc]	; 1fd8 <l1912>

00001fd4 <l1911>:
    1fd4:	ea000000 	b	1fdc <l1913>

00001fd8 <l1912>:
    1fd8:	000fffac 	.word	0x000fffac

00001fdc <l1913>:
    1fdc:	e14e909a 	swpb	r9, sl, [lr]

00001fe0 <l1914>:
    1fe0:	e1a00000 	nop			; (mov r0, r0)

00001fe4 <l1915>:
    1fe4:	e11a0064 	tst	sl, r4, rrx

00001fe8 <l1916>:
    1fe8:	958df00c 	strls	pc, [sp, #12]

00001fec <l1917>:
    1fec:	e0db52af 	sbcs	r5, fp, pc, lsr #5

00001ff0 <l1918>:
    1ff0:	e3a06026 	mov	r6, #38	; 0x26

00001ff4 <l1919>:
    1ff4:	819d00b6 	ldrhhi	r0, [sp, r6]

00001ff8 <l1920>:
    1ff8:	b5cd600f 	strblt	r6, [sp, #15]

00001ffc <l1921>:
    1ffc:	51a0438e 	lslpl	r4, lr, #7

00002000 <l1922>:
    2000:	70d05833 	sbcsvc	r5, r0, r3, lsr r8

00002004 <l1923>:
    2004:	e8bd4001 	pop	{r0, lr}

00002008 <l1924>:
    2008:	854d000e 	strbhi	r0, [sp, #-14]

0000200c <l1925>:
    200c:	115f0009 	cmpne	pc, r9

00002010 <l1926>:
    2010:	e3a08008 	mov	r8, #8

00002014 <l1927>:
    2014:	e7bde008 	ldr	lr, [sp, r8]!

00002018 <l1928>:
    2018:	d1dd70b4 	ldrhle	r7, [sp, #4]

0000201c <l1929>:
    201c:	20b01004 	adcscs	r1, r0, r4

00002020 <l1930>:
    2020:	e3a06023 	mov	r6, #35	; 0x23

00002024 <l1931>:
    2024:	e7cd0006 	strb	r0, [sp, r6]

00002028 <l1932>:
    2028:	ea000002 	b	2038 <l1936>

0000202c <l1933>:
    202c:	e0c36061 	sbc	r6, r3, r1, rrx

00002030 <l1934>:
    2030:	60b4a234 	adcsvs	sl, r4, r4, lsr r2

00002034 <l1935>:
    2034:	e261000e 	rsb	r0, r1, #14

00002038 <l1936>:
    2038:	e11a06c0 	tst	sl, r0, asr #13

0000203c <l1937>:
    203c:	e3a0201d 	mov	r2, #29

00002040 <l1938>:
    2040:	e75d4002 	ldrb	r4, [sp, -r2]

00002044 <l1939>:
    2044:	d3f09c1f 	mvnsle	r9, #7936	; 0x1f00

00002048 <l1940>:
    2048:	11c7800f 	bicne	r8, r7, pc

0000204c <l1941>:
    204c:	e3a02027 	mov	r2, #39	; 0x27

00002050 <l1942>:
    2050:	611db0d2 	ldrsbvs	fp, [sp, -r2]

00002054 <l1943>:
    2054:	6270c801 	rsbsvs	ip, r0, #65536	; 0x10000

00002058 <l1944>:
    2058:	e59f5000 	ldr	r5, [pc]	; 2060 <l1946>

0000205c <l1945>:
    205c:	ea000000 	b	2064 <l1947>

00002060 <l1946>:
    2060:	000fffb8 	.word	0x000fffb8

00002064 <l1947>:
    2064:	2105a09a 	swpcs	sl, sl, [r5]

00002068 <l1948>:
    2068:	e0202e8a 	eor	r2, r0, sl, lsl #29

0000206c <l1949>:
    206c:	a097200b 	addsge	r2, r7, fp

00002070 <l1950>:
    2070:	e19f2006 	orrs	r2, pc, r6

00002074 <l1951>:
    2074:	21cd00be 	strhcs	r0, [sp, #14]

00002078 <l1952>:
    2078:	716f9f1e 	clzvc	r9, lr

0000207c <l1953>:
    207c:	ea000005 	b	2098 <l1960>

00002080 <l1954>:
    2080:	e2801024 	add	r1, r0, #36	; 0x24

00002084 <l1955>:
    2084:	e0d5806b 	sbcs	r8, r5, fp, rrx

00002088 <l1956>:
    2088:	e05fa58e 	subs	sl, pc, lr, lsl #11

0000208c <l1957>:
    208c:	e0398003 	eors	r8, r9, r3

00002090 <l1958>:
    2090:	e22f282e 	eor	r2, pc, #3014656	; 0x2e0000

00002094 <l1959>:
    2094:	ea000000 	b	209c <l1961>

00002098 <l1960>:
    2098:	eafffff9 	b	2084 <l1955>

0000209c <l1961>:
    209c:	e3a08020 	mov	r8, #32

000020a0 <l1962>:
    20a0:	e7cd6008 	strb	r6, [sp, r8]

000020a4 <l1963>:
    20a4:	e3a0a018 	mov	sl, #24

000020a8 <l1964>:
    20a8:	619d40da 	ldrsbvs	r4, [sp, sl]

000020ac <l1965>:
    20ac:	d54db01e 	strble	fp, [sp, #-30]

000020b0 <l1966>:
    20b0:	e15db2d8 	ldrsb	fp, [sp, #-40]	; 0xffffffd8

000020b4 <l1967>:
    20b4:	e00b7333 	and	r7, fp, r3, lsr r3

000020b8 <l1968>:
    20b8:	e3510fed 	cmp	r1, #948	; 0x3b4

000020bc <l1969>:
    20bc:	11a011c5 	asrne	r1, r5, #3

000020c0 <l1970>:
    20c0:	e5dde01a 	ldrb	lr, [sp, #26]

000020c4 <l1971>:
    20c4:	e0f11b8a 	rscs	r1, r1, sl, lsl #23

000020c8 <l1972>:
    20c8:	455da026 	ldrbmi	sl, [sp, #-38]	; 0x26

000020cc <l1973>:
    20cc:	4a000004 	bmi	20e4 <l1979>

000020d0 <l1974>:
    20d0:	80545000 	subshi	r5, r4, r0

000020d4 <l1975>:
    20d4:	e3140469 	tst	r4, #1761607680	; 0x69000000

000020d8 <l1976>:
    20d8:	91b03933 	lsrsls	r3, r3, r9

000020dc <l1977>:
    20dc:	403c5438 	eorsmi	r5, ip, r8, lsr r4

000020e0 <l1978>:
    20e0:	a16f4f11 	clzge	r4, r1

000020e4 <l1979>:
    20e4:	d2e63e3f 	rscle	r3, r6, #1008	; 0x3f0

000020e8 <l1980>:
    20e8:	531001e6 	tstpl	r0, #-2147483591	; 0x80000039

000020ec <l1981>:
    20ec:	e39bc0d7 	orrs	ip, fp, #215	; 0xd7

000020f0 <l1982>:
    20f0:	61f0c00e 	mvnsvs	ip, lr

000020f4 <l1983>:
    20f4:	0a000008 	beq	211c <l1993>

000020f8 <l1984>:
    20f8:	e3360e83 	teq	r6, #2096	; 0x830

000020fc <l1985>:
    20fc:	2138025c 	teqcs	r8, ip, asr r2

00002100 <l1986>:
    2100:	719b706a 	orrsvc	r7, fp, sl, rrx

00002104 <l1987>:
    2104:	e0b9b872 	adcs	fp, r9, r2, ror r8

00002108 <l1988>:
    2108:	b19e206b 	orrslt	r2, lr, fp, rrx

0000210c <l1989>:
    210c:	e0f4a55e 	rscs	sl, r4, lr, asr r5

00002110 <l1990>:
    2110:	e29c0637 	adds	r0, ip, #57671680	; 0x3700000

00002114 <l1991>:
    2114:	a067300e 	rsbge	r3, r7, lr

00002118 <l1992>:
    2118:	23f0ad17 	mvnscs	sl, #1472	; 0x5c0

0000211c <l1993>:
    211c:	e1e053cc 	mvn	r5, ip, asr #7

00002120 <l1994>:
    2120:	e3a0200c 	mov	r2, #12

00002124 <l1995>:
    2124:	e11d60d2 	ldrsb	r6, [sp, -r2]

00002128 <l1996>:
    2128:	e3a0a004 	mov	sl, #4

0000212c <l1997>:
    212c:	819d10ba 	ldrhhi	r1, [sp, sl]

00002130 <l1998>:
    2130:	c04f606c 	subgt	r6, pc, ip, rrx

00002134 <l1999>:
    2134:	e29c6098 	adds	r6, ip, #152	; 0x98

00002138 <l2000>:
    2138:	e49d800c 	ldr	r8, [sp], #12

0000213c <l2001>:
    213c:	b55dc011 	ldrblt	ip, [sp, #-17]

00002140 <l2002>:
    2140:	b1140739 	tstlt	r4, r9, lsr r7

00002144 <l2003>:
    2144:	e59f1000 	ldr	r1, [pc]	; 214c <l2005>

00002148 <l2004>:
    2148:	ea000000 	b	2150 <l2006>

0000214c <l2005>:
    214c:	000fffe0 	.word	0x000fffe0

00002150 <l2006>:
    2150:	c101309c 	swpgt	r3, ip, [r1]

00002154 <l2007>:
    2154:	e06c2008 	rsb	r2, ip, r8

00002158 <l2008>:
    2158:	919a5009 	orrsls	r5, sl, r9

0000215c <l2009>:
    215c:	e0ba9152 	adcs	r9, sl, r2, asr r1

00002160 <l2010>:
    2160:	6a000007 	bvs	2184 <l2019>

00002164 <l2011>:
    2164:	e28010a8 	add	r1, r0, #168	; 0xa8

00002168 <l2012>:
    2168:	e03a0c12 	eors	r0, sl, r2, lsl ip

0000216c <l2013>:
    216c:	e1c6e014 	bic	lr, r6, r4, lsl r0

00002170 <l2014>:
    2170:	800cb003 	andhi	fp, ip, r3

00002174 <l2015>:
    2174:	b0521002 	subslt	r1, r2, r2

00002178 <l2016>:
    2178:	a26571d3 	rsbge	r7, r5, #-1073741772	; 0xc0000034

0000217c <l2017>:
    217c:	00ee44cb 	rsceq	r4, lr, fp, asr #9

00002180 <l2018>:
    2180:	ea000000 	b	2188 <l2020>

00002184 <l2019>:
    2184:	eafffff7 	b	2168 <l2012>

00002188 <l2020>:
    2188:	53750a43 	cmnpl	r5, #274432	; 0x43000

0000218c <l2021>:
    218c:	e045700b 	sub	r7, r5, fp

00002190 <l2022>:
    2190:	350d3030 	strcc	r3, [sp, #-48]	; 0x30

00002194 <l2023>:
    2194:	da000007 	ble	21b8 <l2032>

00002198 <l2024>:
    2198:	e06c886a 	rsb	r8, ip, sl, ror #16

0000219c <l2025>:
    219c:	b3d1a11e 	bicslt	sl, r1, #-2147483641	; 0x80000007

000021a0 <l2026>:
    21a0:	701be182 	andsvc	lr, fp, r2, lsl #3

000021a4 <l2027>:
    21a4:	e174006e 	cmn	r4, lr, rrx

000021a8 <l2028>:
    21a8:	e1d6b65e 	bics	fp, r6, lr, asr r6

000021ac <l2029>:
    21ac:	e1790b52 	cmn	r9, r2, asr fp

000021b0 <l2030>:
    21b0:	e19e5060 	orrs	r5, lr, r0, rrx

000021b4 <l2031>:
    21b4:	e1740e1b 	cmn	r4, fp, lsl lr

000021b8 <l2032>:
    21b8:	43f0bc0d 	mvnsmi	fp, #3328	; 0xd00

000021bc <l2033>:
    21bc:	e048200f 	sub	r2, r8, pc

000021c0 <l2034>:
    21c0:	ea000007 	b	21e4 <l2043>

000021c4 <l2035>:
    21c4:	e1750007 	cmn	r5, r7

000021c8 <l2036>:
    21c8:	113f0067 	teqne	pc, r7, rrx

000021cc <l2037>:
    21cc:	d0c95e51 	sbcle	r5, r9, r1, asr lr

000021d0 <l2038>:
    21d0:	711f000f 	tstvc	pc, pc

000021d4 <l2039>:
    21d4:	e17e0008 	cmn	lr, r8

000021d8 <l2040>:
    21d8:	e15e0004 	cmp	lr, r4

000021dc <l2041>:
    21dc:	01110005 	tsteq	r1, r5

000021e0 <l2042>:
    21e0:	e1160333 	tst	r6, r3, lsr r3

000021e4 <l2043>:
    21e4:	71e02916 	mvnvc	r2, r6, lsl r9

000021e8 <l2044>:
    21e8:	61720e39 	cmnvs	r2, r9, lsr lr

000021ec <l2045>:
    21ec:	116fcf17 	clzne	ip, r7

000021f0 <l2046>:
    21f0:	e079a064 	rsbs	sl, r9, r4, rrx

000021f4 <l2047>:
    21f4:	015d11f0 	ldrsheq	r1, [sp, #-16]

000021f8 <l2048>:
    21f8:	e59f3000 	ldr	r3, [pc]	; 2200 <l2050>

000021fc <l2049>:
    21fc:	ea000000 	b	2204 <l2051>

00002200 <l2050>:
    2200:	000fffe0 	.word	0x000fffe0

00002204 <l2051>:
    2204:	e143709c 	swpb	r7, ip, [r3]

00002208 <l2052>:
    2208:	e0f8c069 	rscs	ip, r8, r9, rrx

0000220c <l2053>:
    220c:	e38f5eae 	orr	r5, pc, #2784	; 0xae0

00002210 <l2054>:
    2210:	3a000007 	bcc	2234 <l2063>

00002214 <l2055>:
    2214:	e2801001 	add	r1, r0, #1

00002218 <l2056>:
    2218:	e1b0933b 	lsrs	r9, fp, r3

0000221c <l2057>:
    221c:	e3550d1b 	cmp	r5, #1728	; 0x6c0

00002220 <l2058>:
    2220:	e19fc00a 	orrs	ip, pc, sl

00002224 <l2059>:
    2224:	235f0de5 	cmpcs	pc, #14656	; 0x3940

00002228 <l2060>:
    2228:	31a058cc 	asrcc	r5, ip, #17

0000222c <l2061>:
    222c:	c238b56b 	eorsgt	fp, r8, #448790528	; 0x1ac00000

00002230 <l2062>:
    2230:	ea000000 	b	2238 <l2064>

00002234 <l2063>:
    2234:	eafffff7 	b	2218 <l2056>

00002238 <l2064>:
    2238:	e58d1004 	str	r1, [sp, #4]

0000223c <l2065>:
    223c:	e59fa000 	ldr	sl, [pc]	; 2244 <l2067>

00002240 <l2066>:
    2240:	ea000000 	b	2248 <l2068>

00002244 <l2067>:
    2244:	000fffb0 	.word	0x000fffb0

00002248 <l2068>:
    2248:	e14a7097 	swpb	r7, r7, [sl]

0000224c <l2069>:
    224c:	b07b8009 	rsbslt	r8, fp, r9

00002250 <l2070>:
    2250:	e0086065 	and	r6, r8, r5, rrx

00002254 <l2071>:
    2254:	e20360a0 	and	r6, r3, #160	; 0xa0

00002258 <l2072>:
    2258:	750de018 	strvc	lr, [sp, #-24]

0000225c <l2073>:
    225c:	e50d1014 	str	r1, [sp, #-20]

00002260 <l2074>:
    2260:	e15a0523 	cmp	sl, r3, lsr #10

00002264 <l2075>:
    2264:	61a0ab79 	rorvs	sl, r9, fp

00002268 <l2076>:
    2268:	e1cfa8e0 	bic	sl, pc, r0, ror #17

0000226c <l2077>:
    226c:	8a000001 	bhi	2278 <l2080>

00002270 <l2078>:
    2270:	e152000b 	cmp	r2, fp

00002274 <l2079>:
    2274:	104a903b 	subne	r9, sl, fp, lsr r0

00002278 <l2080>:
    2278:	a16fef1a 	clzge	lr, sl

0000227c <l2081>:
    227c:	a1760a33 	cmnge	r6, r3, lsr sl

00002280 <l2082>:
    2280:	e3a04028 	mov	r4, #40	; 0x28

00002284 <l2083>:
    2284:	e72dc004 	str	ip, [sp, -r4]!

00002288 <l2084>:
    2288:	e3a02003 	mov	r2, #3

0000228c <l2085>:
    228c:	e7cd2002 	strb	r2, [sp, r2]

00002290 <l2086>:
    2290:	a1d923a4 	bicsge	r2, r9, r4, lsr #7

00002294 <l2087>:
    2294:	45dd0020 	ldrbmi	r0, [sp, #32]

00002298 <l2088>:
    2298:	d044800c 	suble	r8, r4, ip

0000229c <l2089>:
    229c:	e58da034 	str	sl, [sp, #52]	; 0x34

000022a0 <l2090>:
    22a0:	e80d0200 	stmda	sp, {r9}

000022a4 <l2091>:
    22a4:	12f11d8a 	rscsne	r1, r1, #8832	; 0x2280

000022a8 <l2092>:
    22a8:	e3a05008 	mov	r5, #8

000022ac <l2093>:
    22ac:	e11dc0d5 	ldrsb	ip, [sp, -r5]

000022b0 <l2094>:
    22b0:	c5cd100a 	strbgt	r1, [sp, #10]

000022b4 <l2095>:
    22b4:	e8ada000 	stmia	sp!, {sp, pc}

000022b8 <l2096>:
    22b8:	71cd10ba 	strhvc	r1, [sp, #10]

000022bc <l2097>:
    22bc:	e82d000b 	stmda	sp!, {r0, r1, r3}

000022c0 <l2098>:
    22c0:	52ba92c3 	adcspl	r9, sl, #805306380	; 0x3000000c

000022c4 <l2099>:
    22c4:	8a000008 	bhi	22ec <l2109>

000022c8 <l2100>:
    22c8:	316f8f1b 	clzcc	r8, fp

000022cc <l2101>:
    22cc:	e1f01007 	mvns	r1, r7

000022d0 <l2102>:
    22d0:	d1b0a009 	movsle	sl, r9

000022d4 <l2103>:
    22d4:	80172006 	andshi	r2, r7, r6

000022d8 <l2104>:
    22d8:	41e03846 	mvnmi	r3, r6, asr #16

000022dc <l2105>:
    22dc:	e0fb9000 	rscs	r9, fp, r0

000022e0 <l2106>:
    22e0:	e0408c09 	sub	r8, r0, r9, lsl #24

000022e4 <l2107>:
    22e4:	70c0a618 	sbcvc	sl, r0, r8, lsl r6

000022e8 <l2108>:
    22e8:	e3550083 	cmp	r5, #131	; 0x83

000022ec <l2109>:
    22ec:	e1580a23 	cmp	r8, r3, lsr #20

000022f0 <l2110>:
    22f0:	e1a00000 	nop			; (mov r0, r0)

000022f4 <l2111>:
    22f4:	e0058068 	and	r8, r5, r8, rrx

000022f8 <l2112>:
    22f8:	30281c17 	eorcc	r1, r8, r7, lsl ip

000022fc <l2113>:
    22fc:	e3a0b038 	mov	fp, #56	; 0x38

00002300 <l2114>:
    2300:	278d300b 	strcs	r3, [sp, fp]

00002304 <l2115>:
    2304:	15cd600d 	strbne	r6, [sp, #13]

00002308 <l2116>:
    2308:	e59fe000 	ldr	lr, [pc]	; 2310 <l2118>

0000230c <l2117>:
    230c:	ea000000 	b	2314 <l2119>

00002310 <l2118>:
    2310:	000fffb0 	.word	0x000fffb0

00002314 <l2119>:
    2314:	514e5096 	swpbpl	r5, r6, [lr]

00002318 <l2120>:
    2318:	e08e5008 	add	r5, lr, r8

0000231c <l2121>:
    231c:	e59f9000 	ldr	r9, [pc]	; 2324 <l2123>

00002320 <l2122>:
    2320:	ea000000 	b	2328 <l2124>

00002324 <l2123>:
    2324:	000fffe8 	.word	0x000fffe8

00002328 <l2124>:
    2328:	e1493090 	swpb	r3, r0, [r9]

0000232c <l2125>:
    232c:	e88d6c03 	stm	sp, {r0, r1, sl, fp, sp, lr}

00002330 <l2126>:
    2330:	e3a01039 	mov	r1, #57	; 0x39

00002334 <l2127>:
    2334:	b19d10d1 	ldrsblt	r1, [sp, r1]

00002338 <l2128>:
    2338:	e1e09066 	mvn	r9, r6, rrx

0000233c <l2129>:
    233c:	e393421b 	orrs	r4, r3, #-1342177279	; 0xb0000001

00002340 <l2130>:
    2340:	e0753a52 	rsbs	r3, r5, r2, asr sl

00002344 <l2131>:
    2344:	e17b02ea 	cmn	fp, sl, ror #5

00002348 <l2132>:
    2348:	e1ddb0b0 	ldrh	fp, [sp]

0000234c <l2133>:
    234c:	e59f2000 	ldr	r2, [pc]	; 2354 <l2135>

00002350 <l2134>:
    2350:	ea000000 	b	2358 <l2136>

00002354 <l2135>:
    2354:	000fffc0 	.word	0x000fffc0

00002358 <l2136>:
    2358:	2142c093 	swpbcs	ip, r3, [r2]

0000235c <l2137>:
    235c:	e3a0402c 	mov	r4, #44	; 0x2c

00002360 <l2138>:
    2360:	e79d7004 	ldr	r7, [sp, r4]

00002364 <l2139>:
    2364:	e3a03018 	mov	r3, #24

00002368 <l2140>:
    2368:	e7bd1003 	ldr	r1, [sp, r3]!

0000236c <l2141>:
    236c:	c2861ba5 	addgt	r1, r6, #168960	; 0x29400

00002370 <l2142>:
    2370:	e3a0200d 	mov	r2, #13

00002374 <l2143>:
    2374:	c11d30d2 	ldrsbgt	r3, [sp, -r2]

00002378 <l2144>:
    2378:	e0fe506a 	rscs	r5, lr, sl, rrx

0000237c <l2145>:
    237c:	e9bd4c44 	ldmib	sp!, {r2, r6, sl, fp, lr}

00002380 <l2146>:
    2380:	a1300e12 	teqge	r0, r2, lsl lr

00002384 <l2147>:
    2384:	015f000f 	cmpeq	pc, pc

00002388 <l2148>:
    2388:	e3a0c024 	mov	ip, #36	; 0x24

0000238c <l2149>:
    238c:	011db0bc 	ldrheq	fp, [sp, -ip]

00002390 <l2150>:
    2390:	a14d91b8 	strhge	r9, [sp, #-24]	; 0xffffffe8

00002394 <l2151>:
    2394:	13380037 	teqne	r8, #55	; 0x37

00002398 <l2152>:
    2398:	e3a0800a 	mov	r8, #10

0000239c <l2153>:
    239c:	17cdb008 	strbne	fp, [sp, r8]

000023a0 <l2154>:
    23a0:	ba000004 	blt	23b8 <l2160>

000023a4 <l2155>:
    23a4:	e2801087 	add	r1, r0, #135	; 0x87

000023a8 <l2156>:
    23a8:	e1b0e006 	movs	lr, r6

000023ac <l2157>:
    23ac:	61540233 	cmpvs	r4, r3, lsr r2

000023b0 <l2158>:
    23b0:	e1a0006f 	rrx	r0, pc

000023b4 <l2159>:
    23b4:	ea000000 	b	23bc <l2161>

000023b8 <l2160>:
    23b8:	eafffffa 	b	23a8 <l2156>

000023bc <l2161>:
    23bc:	b05fe066 	subslt	lr, pc, r6, rrx

000023c0 <l2162>:
    23c0:	e50d201c 	str	r2, [sp, #-28]

000023c4 <l2163>:
    23c4:	e117040a 	tst	r7, sl, lsl #8

000023c8 <l2164>:
    23c8:	e59fe000 	ldr	lr, [pc]	; 23d0 <l2166>

000023cc <l2165>:
    23cc:	ea000000 	b	23d4 <l2167>

000023d0 <l2166>:
    23d0:	000fffb0 	.word	0x000fffb0

000023d4 <l2167>:
    23d4:	e14e6093 	swpb	r6, r3, [lr]

000023d8 <l2168>:
    23d8:	b5cdc012 	strblt	ip, [sp, #18]

000023dc <l2169>:
    23dc:	e3a0201a 	mov	r2, #26

000023e0 <l2170>:
    23e0:	311d00f2 	ldrshcc	r0, [sp, -r2]

000023e4 <l2171>:
    23e4:	51710410 	cmnpl	r1, r0, lsl r4

000023e8 <l2172>:
    23e8:	614db1b0 	strhvs	fp, [sp, #-16]

000023ec <l2173>:
    23ec:	5a000003 	bpl	2400 <l2178>

000023f0 <l2174>:
    23f0:	e28010fe 	add	r1, r0, #254	; 0xfe

000023f4 <l2175>:
    23f4:	30144006 	andscc	r4, r4, r6

000023f8 <l2176>:
    23f8:	61e0e2cc 	mvnvs	lr, ip, asr #5

000023fc <l2177>:
    23fc:	ea000000 	b	2404 <l2179>

00002400 <l2178>:
    2400:	eafffffb 	b	23f4 <l2175>

00002404 <l2179>:
    2404:	c0c04053 	sbcgt	r4, r0, r3, asr r0

00002408 <l2180>:
    2408:	e8ad0909 	stmia	sp!, {r0, r3, r8, fp}

0000240c <l2181>:
    240c:	80d342a9 	sbcshi	r4, r3, r9, lsr #5

00002410 <l2182>:
    2410:	e0f6c25c 	rscs	ip, r6, ip, asr r2

00002414 <l2183>:
    2414:	e41d8040 	ldr	r8, [sp], #-64	; 0x40

00002418 <l2184>:
    2418:	e3a0101c 	mov	r1, #28

0000241c <l2185>:
    241c:	b19d20d1 	ldrsblt	r2, [sp, r1]

00002420 <l2186>:
    2420:	e3a03036 	mov	r3, #54	; 0x36

00002424 <l2187>:
    2424:	919d90b3 	ldrhls	r9, [sp, r3]

00002428 <l2188>:
    2428:	e3a0400c 	mov	r4, #12

0000242c <l2189>:
    242c:	b7cde004 	strblt	lr, [sp, r4]

00002430 <l2190>:
    2430:	008638cc 	addeq	r3, r6, ip, asr #17

00002434 <l2191>:
    2434:	c1879546 	orrgt	r9, r7, r6, asr #10

00002438 <l2192>:
    2438:	d1a0a0e5 	rorle	sl, r5, #1

0000243c <l2193>:
    243c:	ea000007 	b	2460 <l2202>

00002440 <l2194>:
    2440:	81160378 	tsthi	r6, r8, ror r3

00002444 <l2195>:
    2444:	e021100a 	eor	r1, r1, sl

00002448 <l2196>:
    2448:	e052aa38 	subs	sl, r2, r8, lsr sl

0000244c <l2197>:
    244c:	317b033e 	cmncc	fp, lr, lsr r3

00002450 <l2198>:
    2450:	51965006 	orrspl	r5, r6, r6

00002454 <l2199>:
    2454:	311a0008 	tstcc	sl, r8

00002458 <l2200>:
    2458:	121a9020 	andsne	r9, sl, #32

0000245c <l2201>:
    245c:	e07faf41 	rsbs	sl, pc, r1, asr #30

00002460 <l2202>:
    2460:	e054bb1c 	subs	fp, r4, ip, lsl fp

00002464 <l2203>:
    2464:	b1f09a62 	mvnslt	r9, r2, ror #20

00002468 <l2204>:
    2468:	60346067 	eorsvs	r6, r4, r7, rrx

0000246c <l2205>:
    246c:	e5dd6041 	ldrb	r6, [sp, #65]	; 0x41

00002470 <l2206>:
    2470:	117f0d85 	cmnne	pc, r5, lsl #27

00002474 <l2207>:
    2474:	b1cd32b0 	strhlt	r3, [sp, #32]

00002478 <l2208>:
    2478:	4227e6dd 	eormi	lr, r7, #231735296	; 0xdd00000

0000247c <l2209>:
    247c:	61a0b001 	movvs	fp, r1

00002480 <l2210>:
    2480:	40481c67 	submi	r1, r8, r7, ror #24

00002484 <l2211>:
    2484:	e1a00000 	nop			; (mov r0, r0)

00002488 <l2212>:
    2488:	e3a05018 	mov	r5, #24

0000248c <l2213>:
    248c:	e7ad6005 	str	r6, [sp, r5]!

00002490 <l2214>:
    2490:	200a3002 	andcs	r3, sl, r2

00002494 <l2215>:
    2494:	e59fa000 	ldr	sl, [pc]	; 249c <l2217>

00002498 <l2216>:
    2498:	ea000000 	b	24a0 <l2218>

0000249c <l2217>:
    249c:	000fffa8 	.word	0x000fffa8

000024a0 <l2218>:
    24a0:	e10a1098 	swp	r1, r8, [sl]

000024a4 <l2219>:
    24a4:	e1710288 	cmn	r1, r8, lsl #5

000024a8 <l2220>:
    24a8:	e1a00000 	nop			; (mov r0, r0)

000024ac <l2221>:
    24ac:	9232990b 	eorsls	r9, r2, #180224	; 0x2c000

000024b0 <l2222>:
    24b0:	e3a0c012 	mov	ip, #18

000024b4 <l2223>:
    24b4:	075d400c 	ldrbeq	r4, [sp, -ip]

000024b8 <l2224>:
    24b8:	e3a05015 	mov	r5, #21

000024bc <l2225>:
    24bc:	e11d20d5 	ldrsb	r2, [sp, -r5]

000024c0 <l2226>:
    24c0:	b006106b 	andlt	r1, r6, fp, rrx

000024c4 <l2227>:
    24c4:	ea000007 	b	24e8 <l2236>

000024c8 <l2228>:
    24c8:	e28010af 	add	r1, r0, #175	; 0xaf

000024cc <l2229>:
    24cc:	e352063e 	cmp	r2, #65011712	; 0x3e00000

000024d0 <l2230>:
    24d0:	d0d0064a 	sbcsle	r0, r0, sl, asr #12

000024d4 <l2231>:
    24d4:	e29fb937 	adds	fp, pc, #901120	; 0xdc000

000024d8 <l2232>:
    24d8:	115e0005 	cmpne	lr, r5

000024dc <l2233>:
    24dc:	10790577 	rsbsne	r0, r9, r7, ror r5

000024e0 <l2234>:
    24e0:	123bb346 	eorsne	fp, fp, #402653185	; 0x18000001

000024e4 <l2235>:
    24e4:	ea000000 	b	24ec <l2237>

000024e8 <l2236>:
    24e8:	eafffff7 	b	24cc <l2229>

000024ec <l2237>:
    24ec:	21c05f8f 	biccs	r5, r0, pc, lsl #31

000024f0 <l2238>:
    24f0:	73c346b7 	bicvc	r4, r3, #191889408	; 0xb700000

000024f4 <l2239>:
    24f4:	d3190536 	tstle	r9, #226492416	; 0xd800000

000024f8 <l2240>:
    24f8:	e3a08004 	mov	r8, #4

000024fc <l2241>:
    24fc:	911da0f8 	ldrshls	sl, [sp, -r8]

00002500 <l2242>:
    2500:	e59fb000 	ldr	fp, [pc]	; 2508 <l2244>

00002504 <l2243>:
    2504:	ea000000 	b	250c <l2245>

00002508 <l2244>:
    2508:	000fffd4 	.word	0x000fffd4

0000250c <l2245>:
    250c:	510b9092 	swppl	r9, r2, [fp]

00002510 <l2246>:
    2510:	e3a01009 	mov	r1, #9

00002514 <l2247>:
    2514:	b7dd5001 	ldrblt	r5, [sp, r1]

00002518 <l2248>:
    2518:	21891b3e 	orrcs	r1, r9, lr, lsr fp

0000251c <l2249>:
    251c:	a26b1bef 	rsbge	r1, fp, #244736	; 0x3bc00

00002520 <l2250>:
    2520:	a0d4a005 	sbcsge	sl, r4, r5

00002524 <l2251>:
    2524:	e3a00014 	mov	r0, #20

00002528 <l2252>:
    2528:	e60db000 	str	fp, [sp], -r0

0000252c <l2253>:
    252c:	e185bb7a 	orr	fp, r5, sl, ror fp

00002530 <l2254>:
    2530:	c16f4f18 	clzgt	r4, r8

00002534 <l2255>:
    2534:	c3f07701 	mvnsgt	r7, #262144	; 0x40000

00002538 <l2256>:
    2538:	40b31061 	adcsmi	r1, r3, r1, rrx

0000253c <l2257>:
    253c:	e5ddc010 	ldrb	ip, [sp, #16]

00002540 <l2258>:
    2540:	3a000004 	bcc	2558 <l2264>

00002544 <l2259>:
    2544:	50dce00a 	sbcspl	lr, ip, sl

00002548 <l2260>:
    2548:	e0e31f82 	rsc	r1, r3, r2, lsl #31

0000254c <l2261>:
    254c:	10ba874c 	adcsne	r8, sl, ip, asr #14

00002550 <l2262>:
    2550:	91e08000 	mvnls	r8, r0

00002554 <l2263>:
    2554:	71590e55 	cmpvc	r9, r5, asr lr

00002558 <l2264>:
    2558:	e0dcc002 	sbcs	ip, ip, r2

0000255c <l2265>:
    255c:	915d20d8 	ldrsbls	r2, [sp, #-8]

00002560 <l2266>:
    2560:	b24f1201 	sublt	r1, pc, #268435456	; 0x10000000

00002564 <l2267>:
    2564:	e1a00000 	nop			; (mov r0, r0)

00002568 <l2268>:
    2568:	e1a03004 	mov	r3, r4

0000256c <l2269>:
    256c:	c11e082f 	tstgt	lr, pc, lsr #16

00002570 <l2270>:
    2570:	35dd2016 	ldrbcc	r2, [sp, #22]

00002574 <l2271>:
    2574:	e3a0500c 	mov	r5, #12

00002578 <l2272>:
    2578:	e69d8005 	ldr	r8, [sp], r5

0000257c <l2273>:
    257c:	e3a0200c 	mov	r2, #12

00002580 <l2274>:
    2580:	d18db0b2 	strhle	fp, [sp, r2]

00002584 <l2275>:
    2584:	e292860a 	adds	r8, r2, #10485760	; 0xa00000

00002588 <l2276>:
    2588:	606ab003 	rsbvs	fp, sl, r3

0000258c <l2277>:
    258c:	404b4e18 	submi	r4, fp, r8, lsl lr

00002590 <l2278>:
    2590:	c154000f 	cmpgt	r4, pc

00002594 <l2279>:
    2594:	d0009c3a 	andle	r9, r0, sl, lsr ip

00002598 <l2280>:
    2598:	e0d31553 	sbcs	r1, r3, r3, asr r5

0000259c <l2281>:
    259c:	e1160771 	tst	r6, r1, ror r7

000025a0 <l2282>:
    25a0:	e2d646ab 	sbcs	r4, r6, #179306496	; 0xab00000

000025a4 <l2283>:
    25a4:	c1710172 	cmngt	r1, r2, ror r1

000025a8 <l2284>:
    25a8:	e15db1d0 	ldrsb	fp, [sp, #-16]

000025ac <l2285>:
    25ac:	e17a000f 	cmn	sl, pc

000025b0 <l2286>:
    25b0:	e1730006 	cmn	r3, r6

000025b4 <l2287>:
    25b4:	e0de500b 	sbcs	r5, lr, fp

000025b8 <l2288>:
    25b8:	e59f2000 	ldr	r2, [pc]	; 25c0 <l2290>

000025bc <l2289>:
    25bc:	ea000000 	b	25c4 <l2291>

000025c0 <l2290>:
    25c0:	000fffe4 	.word	0x000fffe4

000025c4 <l2291>:
    25c4:	d102e099 	swple	lr, r9, [r2]

000025c8 <l2292>:
    25c8:	41f0900a 	mvnsmi	r9, sl

000025cc <l2293>:
    25cc:	816f2f14 	clzhi	r2, r4

000025d0 <l2294>:
    25d0:	a083603e 	addge	r6, r3, lr, lsr r0

000025d4 <l2295>:
    25d4:	d0cb800a 	sbcle	r8, fp, sl

000025d8 <l2296>:
    25d8:	398d080c 	stmibcc	sp, {r2, r3, fp}

000025dc <l2297>:
    25dc:	e59fc000 	ldr	ip, [pc]	; 25e4 <l2299>

000025e0 <l2298>:
    25e0:	ea000000 	b	25e8 <l2300>

000025e4 <l2299>:
    25e4:	000fffe4 	.word	0x000fffe4

000025e8 <l2300>:
    25e8:	914c2095 	swpbls	r2, r5, [ip]

000025ec <l2301>:
    25ec:	e52d9008 	str	r9, [sp, #-8]!

000025f0 <l2302>:
    25f0:	214d60b4 	strhcs	r6, [sp, #-4]

000025f4 <l2303>:
    25f4:	617508a1 	cmnvs	r5, r1, lsr #17

000025f8 <l2304>:
    25f8:	40de4516 	sbcsmi	r4, lr, r6, lsl r5

000025fc <l2305>:
    25fc:	e59fe000 	ldr	lr, [pc]	; 2604 <l2307>

00002600 <l2306>:
    2600:	ea000000 	b	2608 <l2308>

00002604 <l2307>:
    2604:	000fffa8 	.word	0x000fffa8

00002608 <l2308>:
    2608:	e14e009c 	swpb	r0, ip, [lr]

0000260c <l2309>:
    260c:	ea000003 	b	2620 <l2314>

00002610 <l2310>:
    2610:	e2801069 	add	r1, r0, #105	; 0x69

00002614 <l2311>:
    2614:	e16fef1b 	clz	lr, fp

00002618 <l2312>:
    2618:	61510e70 	cmpvs	r1, r0, ror lr

0000261c <l2313>:
    261c:	ea000000 	b	2624 <l2315>

00002620 <l2314>:
    2620:	eafffffb 	b	2614 <l2311>

00002624 <l2315>:
    2624:	c1dd53fe 	ldrshgt	r5, [sp, #62]	; 0x3e

00002628 <l2316>:
    2628:	e3a0c000 	mov	ip, #0

0000262c <l2317>:
    262c:	019d80fc 	ldrsheq	r8, [sp, ip]

00002630 <l2318>:
    2630:	e2741405 	rsbs	r1, r4, #83886080	; 0x5000000

00002634 <l2319>:
    2634:	ea000007 	b	2658 <l2328>

00002638 <l2320>:
    2638:	e28010c8 	add	r1, r0, #200	; 0xc8

0000263c <l2321>:
    263c:	e003ec7c 	and	lr, r3, ip, ror ip

00002640 <l2322>:
    2640:	73540856 	cmpvc	r4, #5636096	; 0x560000

00002644 <l2323>:
    2644:	e15b06e1 	cmp	fp, r1, ror #13

00002648 <l2324>:
    2648:	801b9069 	andshi	r9, fp, r9, rrx

0000264c <l2325>:
    264c:	60027069 	andvs	r7, r2, r9, rrx

00002650 <l2326>:
    2650:	70b5c51b 	adcsvc	ip, r5, fp, lsl r5

00002654 <l2327>:
    2654:	ea000000 	b	265c <l2329>

00002658 <l2328>:
    2658:	eafffff7 	b	263c <l2321>

0000265c <l2329>:
    265c:	e062e009 	rsb	lr, r2, r9

00002660 <l2330>:
    2660:	a1f01060 	mvnsge	r1, r0, rrx

00002664 <l2331>:
    2664:	ea000003 	b	2678 <l2336>

00002668 <l2332>:
    2668:	e28010da 	add	r1, r0, #218	; 0xda

0000266c <l2333>:
    266c:	d2757b19 	rsbsle	r7, r5, #25600	; 0x6400

00002670 <l2334>:
    2670:	80a2e740 	adchi	lr, r2, r0, asr #14

00002674 <l2335>:
    2674:	ea000000 	b	267c <l2337>

00002678 <l2336>:
    2678:	eafffffb 	b	266c <l2333>

0000267c <l2337>:
    267c:	e1884619 	orr	r4, r8, r9, lsl r6

00002680 <l2338>:
    2680:	e1a00000 	nop			; (mov r0, r0)

00002684 <l2339>:
    2684:	d069200a 	rsble	r2, r9, sl

00002688 <l2340>:
    2688:	e16f4f14 	clz	r4, r4

0000268c <l2341>:
    268c:	e1dd02f2 	ldrsh	r0, [sp, #34]	; 0x22

00002690 <l2342>:
    2690:	e1a00000 	nop			; (mov r0, r0)

00002694 <l2343>:
    2694:	e277c8c9 	rsbs	ip, r7, #13172736	; 0xc90000

00002698 <l2344>:
    2698:	e5cd501f 	strb	r5, [sp, #31]

0000269c <l2345>:
    269c:	b3d48335 	bicslt	r8, r4, #-738197504	; 0xd4000000

000026a0 <l2346>:
    26a0:	4112006a 	tstmi	r2, sl, rrx

000026a4 <l2347>:
    26a4:	e0454134 	sub	r4, r5, r4, lsr r1

000026a8 <l2348>:
    26a8:	31cd33b4 	strhcc	r3, [sp, #52]	; 0x34

000026ac <l2349>:
    26ac:	402e900b 	eormi	r9, lr, fp

000026b0 <l2350>:
    26b0:	e1f036c1 	mvns	r3, r1, asr #13

000026b4 <l2351>:
    26b4:	e3a0c026 	mov	ip, #38	; 0x26

000026b8 <l2352>:
    26b8:	018d70bc 	strheq	r7, [sp, ip]

000026bc <l2353>:
    26bc:	60135003 	andsvs	r5, r3, r3

000026c0 <l2354>:
    26c0:	50dab06a 	sbcspl	fp, sl, sl, rrx

000026c4 <l2355>:
    26c4:	638920d7 	orrvs	r2, r9, #215	; 0xd7

000026c8 <l2356>:
    26c8:	e1de533c 	bics	r5, lr, ip, lsr r3

000026cc <l2357>:
    26cc:	ea000007 	b	26f0 <l2366>

000026d0 <l2358>:
    26d0:	4073706b 	rsbsmi	r7, r3, fp, rrx

000026d4 <l2359>:
    26d4:	53cf42fe 	bicpl	r4, pc, #-536870897	; 0xe000000f

000026d8 <l2360>:
    26d8:	415c0e6b 	cmpmi	ip, fp, ror #28

000026dc <l2361>:
    26dc:	40e49da8 	rscmi	r9, r4, r8, lsr #27

000026e0 <l2362>:
    26e0:	e3b02207 	movs	r2, #1879048192	; 0x70000000

000026e4 <l2363>:
    26e4:	e09e1000 	adds	r1, lr, r0

000026e8 <l2364>:
    26e8:	6200053a 	andvs	r0, r0, #243269632	; 0xe800000

000026ec <l2365>:
    26ec:	e0f14069 	rscs	r4, r1, r9, rrx

000026f0 <l2366>:
    26f0:	e0402950 	sub	r2, r0, r0, asr r9

000026f4 <l2367>:
    26f4:	e59fa000 	ldr	sl, [pc]	; 26fc <l2369>

000026f8 <l2368>:
    26f8:	ea000000 	b	2700 <l2370>

000026fc <l2369>:
    26fc:	000fffcc 	.word	0x000fffcc

00002700 <l2370>:
    2700:	114a8098 	swpbne	r8, r8, [sl]

00002704 <l2371>:
    2704:	e48d7020 	str	r7, [sp], #32

00002708 <l2372>:
    2708:	e93d0020 	ldmdb	sp!, {r5}

0000270c <l2373>:
    270c:	d235ac01 	eorsle	sl, r5, #256	; 0x100

00002710 <l2374>:
    2710:	e1dd80df 	ldrsb	r8, [sp, #15]

00002714 <l2375>:
    2714:	60f0b00c 	rscsvs	fp, r0, ip

00002718 <l2376>:
    2718:	e13a0218 	teq	sl, r8, lsl r2

0000271c <l2377>:
    271c:	e3a02008 	mov	r2, #8

00002720 <l2378>:
    2720:	e18d20b2 	strh	r2, [sp, r2]

00002724 <l2379>:
    2724:	e59f6000 	ldr	r6, [pc]	; 272c <l2381>

00002728 <l2380>:
    2728:	ea000000 	b	2730 <l2382>

0000272c <l2381>:
    272c:	000fffa0 	.word	0x000fffa0

00002730 <l2382>:
    2730:	7146b095 	swpbvc	fp, r5, [r6]

00002734 <l2383>:
    2734:	e00fc002 	and	ip, pc, r2

00002738 <l2384>:
    2738:	11a0a964 	rorne	sl, r4, #18

0000273c <l2385>:
    273c:	da000007 	ble	2760 <l2394>

00002740 <l2386>:
    2740:	e28010ba 	add	r1, r0, #186	; 0xba

00002744 <l2387>:
    2744:	521a457e 	andspl	r4, sl, #528482304	; 0x1f800000

00002748 <l2388>:
    2748:	e0b3195b 	adcs	r1, r3, fp, asr r9

0000274c <l2389>:
    274c:	e2441b81 	sub	r1, r4, #132096	; 0x20400

00002750 <l2390>:
    2750:	e1ce9002 	bic	r9, lr, r2

00002754 <l2391>:
    2754:	c1710d04 	cmngt	r1, r4, lsl #26

00002758 <l2392>:
    2758:	000c171c 	andeq	r1, ip, ip, lsl r7

0000275c <l2393>:
    275c:	ea000000 	b	2764 <l2395>

00002760 <l2394>:
    2760:	eafffff7 	b	2744 <l2387>

00002764 <l2395>:
    2764:	e1dd60b4 	ldrh	r6, [sp, #4]

00002768 <l2396>:
    2768:	d254642b 	subsle	r6, r4, #721420288	; 0x2b000000

0000276c <l2397>:
    276c:	91943133 	orrsls	r3, r4, r3, lsr r1

00002770 <l2398>:
    2770:	e9ad2000 	stmib	sp!, {sp}

00002774 <l2399>:
    2774:	b15e0439 	cmplt	lr, r9, lsr r4

00002778 <l2400>:
    2778:	e5cdb01c 	strb	fp, [sp, #28]

0000277c <l2401>:
    277c:	525323d5 	subspl	r2, r3, #1409286147	; 0x54000003

00002780 <l2402>:
    2780:	d289c216 	addle	ip, r9, #1610612737	; 0x60000001

00002784 <l2403>:
    2784:	73a0638f 	movvc	r6, #1006632962	; 0x3c000002

00002788 <l2404>:
    2788:	e1c66ea9 	bic	r6, r6, r9, lsr #29

0000278c <l2405>:
    278c:	911804ca 	tstls	r8, sl, asr #9

00002790 <l2406>:
    2790:	55cd2004 	strbpl	r2, [sp, #4]

00002794 <l2407>:
    2794:	a17a0e2a 	cmnge	sl, sl, lsr #28

00002798 <l2408>:
    2798:	a0088009 	andge	r8, r8, r9

0000279c <l2409>:
    279c:	50e8332e 	rscpl	r3, r8, lr, lsr #6

000027a0 <l2410>:
    27a0:	30fb500e 	rscscc	r5, fp, lr

000027a4 <l2411>:
    27a4:	05cd9001 	strbeq	r9, [sp, #1]

000027a8 <l2412>:
    27a8:	00724003 	rsbseq	r4, r2, r3

000027ac <l2413>:
    27ac:	05cd8014 	strbeq	r8, [sp, #20]

000027b0 <l2414>:
    27b0:	d0210377 	eorle	r0, r1, r7, ror r3

000027b4 <l2415>:
    27b4:	e51d2028 	ldr	r2, [sp, #-40]	; 0x28

000027b8 <l2416>:
    27b8:	e3a09002 	mov	r9, #2

000027bc <l2417>:
    27bc:	d7cd6009 	strble	r6, [sp, r9]

000027c0 <l2418>:
    27c0:	d0b9600a 	adcsle	r6, r9, sl

000027c4 <l2419>:
    27c4:	537c0426 	cmnpl	ip, #637534208	; 0x26000000

000027c8 <l2420>:
    27c8:	009cc782 	addseq	ip, ip, r2, lsl #15

000027cc <l2421>:
    27cc:	3024706a 	eorcc	r7, r4, sl, rrx

000027d0 <l2422>:
    27d0:	e3a01018 	mov	r1, #24

000027d4 <l2423>:
    27d4:	e19db0f1 	ldrsh	fp, [sp, r1]

000027d8 <l2424>:
    27d8:	c1d3e375 	bicsgt	lr, r3, r5, ror r3

000027dc <l2425>:
    27dc:	41f01bec 	mvnsmi	r1, ip, ror #23

000027e0 <l2426>:
    27e0:	d043a001 	suble	sl, r3, r1

000027e4 <l2427>:
    27e4:	e40d6004 	str	r6, [sp], #-4

000027e8 <l2428>:
    27e8:	e1da0002 	bics	r0, sl, r2

000027ec <l2429>:
    27ec:	a1dd20be 	ldrhge	r2, [sp, #14]

000027f0 <l2430>:
    27f0:	315db1ba 	ldrhcc	fp, [sp, #-26]	; 0xffffffe6

000027f4 <l2431>:
    27f4:	e02b6c82 	eor	r6, fp, r2, lsl #25

000027f8 <l2432>:
    27f8:	e3a08018 	mov	r8, #24

000027fc <l2433>:
    27fc:	d10d10b8 	strhle	r1, [sp, -r8]

00002800 <l2434>:
    2800:	a1170242 	tstge	r7, r2, asr #4

00002804 <l2435>:
    2804:	e59fe000 	ldr	lr, [pc]	; 280c <l2437>

00002808 <l2436>:
    2808:	ea000000 	b	2810 <l2438>

0000280c <l2437>:
    280c:	000fffdc 	.word	0x000fffdc

00002810 <l2438>:
    2810:	e14e5098 	swpb	r5, r8, [lr]

00002814 <l2439>:
    2814:	c16f7f1c 	clzgt	r7, ip

00002818 <l2440>:
    2818:	e3a0200c 	mov	r2, #12

0000281c <l2441>:
    281c:	518d10b2 	strhpl	r1, [sp, r2]

00002820 <l2442>:
    2820:	e0476062 	sub	r6, r7, r2, rrx

00002824 <l2443>:
    2824:	e1c31c60 	bic	r1, r3, r0, ror #24

00002828 <l2444>:
    2828:	b89d1943 	ldmlt	sp, {r0, r1, r6, r8, fp, ip}

0000282c <l2445>:
    282c:	e40d2014 	str	r2, [sp], #-20

00002830 <l2446>:
    2830:	e0342608 	eors	r2, r4, r8, lsl #12

00002834 <l2447>:
    2834:	81cdb2b0 	strhhi	fp, [sp, #32]

00002838 <l2448>:
    2838:	70f41000 	rscsvc	r1, r4, r0

0000283c <l2449>:
    283c:	e50d4014 	str	r4, [sp, #-20]

00002840 <l2450>:
    2840:	81350066 	teqhi	r5, r6, rrx

00002844 <l2451>:
    2844:	10cb22a9 	sbcne	r2, fp, r9, lsr #5

00002848 <l2452>:
    2848:	e3a0a008 	mov	sl, #8

0000284c <l2453>:
    284c:	e73d200a 	ldr	r2, [sp, -sl]!

00002850 <l2454>:
    2850:	e8bd57f3 	pop	{r0, r1, r4, r5, r6, r7, r8, r9, sl, ip, lr}

00002854 <l2455>:
    2854:	1174087e 	cmnne	r4, lr, ror r8

00002858 <l2456>:
    2858:	e3a02010 	mov	r2, #16

0000285c <l2457>:
    285c:	e10d50b2 	strh	r5, [sp, -r2]

00002860 <l2458>:
    2860:	d14db0b6 	strhle	fp, [sp, #-6]

00002864 <l2459>:
    2864:	e33c002c 	teq	ip, #44	; 0x2c

00002868 <l2460>:
    2868:	b1f01d08 	mvnslt	r1, r8, lsl #26

0000286c <l2461>:
    286c:	e1a0a005 	mov	sl, r5

00002870 <l2462>:
    2870:	e3956eee 	orrs	r6, r5, #3808	; 0xee0

00002874 <l2463>:
    2874:	e3a06006 	mov	r6, #6

00002878 <l2464>:
    2878:	e19dc0f6 	ldrsh	ip, [sp, r6]

0000287c <l2465>:
    287c:	e02f8789 	eor	r8, pc, r9, lsl #15

00002880 <l2466>:
    2880:	83938a9a 	orrshi	r8, r3, #630784	; 0x9a000

00002884 <l2467>:
    2884:	e1a03005 	mov	r3, r5

00002888 <l2468>:
    2888:	e16f0f13 	clz	r0, r3

0000288c <l2469>:
    288c:	b17e006f 	cmnlt	lr, pc, rrx

00002890 <l2470>:
    2890:	e59f9000 	ldr	r9, [pc]	; 2898 <l2472>

00002894 <l2471>:
    2894:	ea000000 	b	289c <l2473>

00002898 <l2472>:
    2898:	000fffd0 	.word	0x000fffd0

0000289c <l2473>:
    289c:	e1092098 	swp	r2, r8, [r9]

000028a0 <l2474>:
    28a0:	d55d400b 	ldrble	r4, [sp, #-11]

000028a4 <l2475>:
    28a4:	3216b1aa 	andscc	fp, r6, #-2147483606	; 0x8000002a

000028a8 <l2476>:
    28a8:	e3a0302a 	mov	r3, #42	; 0x2a

000028ac <l2477>:
    28ac:	c10d10b3 	strhgt	r1, [sp, -r3]

000028b0 <l2478>:
    28b0:	e3a0a00e 	mov	sl, #14

000028b4 <l2479>:
    28b4:	419dc0ba 	ldrhmi	ip, [sp, sl]

000028b8 <l2480>:
    28b8:	e83d0002 	ldmda	sp!, {r1}

000028bc <l2481>:
    28bc:	1284283f 	addne	r2, r4, #4128768	; 0x3f0000

000028c0 <l2482>:
    28c0:	e1d8ee81 	bics	lr, r8, r1, lsl #29

000028c4 <l2483>:
    28c4:	e3a0b010 	mov	fp, #16

000028c8 <l2484>:
    28c8:	97dd500b 	ldrbls	r5, [sp, fp]

000028cc <l2485>:
    28cc:	81dd00da 	ldrsbhi	r0, [sp, #10]

000028d0 <l2486>:
    28d0:	10f25ec4 	rscsne	r5, r2, r4, asr #29

000028d4 <l2487>:
    28d4:	e58d1014 	str	r1, [sp, #20]

000028d8 <l2488>:
    28d8:	e01ac359 	ands	ip, sl, r9, asr r3

000028dc <l2489>:
    28dc:	e1a04003 	mov	r4, r3

000028e0 <l2490>:
    28e0:	e23639fb 	eors	r3, r6, #4112384	; 0x3ec000

000028e4 <l2491>:
    28e4:	b0239003 	eorlt	r9, r3, r3

000028e8 <l2492>:
    28e8:	e3a0200c 	mov	r2, #12

000028ec <l2493>:
    28ec:	670d9002 	strvs	r9, [sp, -r2]

000028f0 <l2494>:
    28f0:	e1190e79 	tst	r9, r9, ror lr

000028f4 <l2495>:
    28f4:	e16f3f14 	clz	r3, r4

000028f8 <l2496>:
    28f8:	e1e07a42 	mvn	r7, r2, asr #20

000028fc <l2497>:
    28fc:	e13a0110 	teq	sl, r0, lsl r1

00002900 <l2498>:
    2900:	831f028e 	tsthi	pc, #-536870904	; 0xe0000008

00002904 <l2499>:
    2904:	e3a08010 	mov	r8, #16

00002908 <l2500>:
    2908:	e73d0008 	ldr	r0, [sp, -r8]!

0000290c <l2501>:
    290c:	c0b3b06f 	adcsgt	fp, r3, pc, rrx

00002910 <l2502>:
    2910:	e3a09012 	mov	r9, #18

00002914 <l2503>:
    2914:	d18dc0b9 	strhle	ip, [sp, r9]

00002918 <l2504>:
    2918:	71a0700c 	movvc	r7, ip

0000291c <l2505>:
    291c:	01730065 	cmneq	r3, r5, rrx

00002920 <l2506>:
    2920:	e224b33e 	eor	fp, r4, #-134217728	; 0xf8000000

00002924 <l2507>:
    2924:	e3a0e018 	mov	lr, #24

00002928 <l2508>:
    2928:	a70d600e 	strge	r6, [sp, -lr]

0000292c <l2509>:
    292c:	e3a02018 	mov	r2, #24

00002930 <l2510>:
    2930:	e75d4002 	ldrb	r4, [sp, -r2]

00002934 <l2511>:
    2934:	933a06f9 	teqls	sl, #261095424	; 0xf900000

00002938 <l2512>:
    2938:	e18e0006 	orr	r0, lr, r6

0000293c <l2513>:
    293c:	e1cd70b6 	strh	r7, [sp, #6]

00002940 <l2514>:
    2940:	e0c4b35a 	sbc	fp, r4, sl, asr r3

00002944 <l2515>:
    2944:	e15f006e 	cmp	pc, lr, rrx

00002948 <l2516>:
    2948:	e045500c 	sub	r5, r5, ip

0000294c <l2517>:
    294c:	e177023c 	cmn	r7, ip, lsr r2

00002950 <l2518>:
    2950:	4affffff 	bmi	2954 <l2519>

00002954 <l2519>:
    2954:	e028a00a 	eor	sl, r8, sl

00002958 <l2520>:
    2958:	731b0bdd 	tstvc	fp, #226304	; 0x37400

0000295c <l2521>:
    295c:	7a000000 	bvc	2964 <l2523>

00002960 <l2522>:
    2960:	e22e9024 	eor	r9, lr, #36	; 0x24

00002964 <l2523>:
    2964:	c2cba2b3 	sbcgt	sl, fp, #805306379	; 0x3000000b

00002968 <l2524>:
    2968:	e3a01012 	mov	r1, #18

0000296c <l2525>:
    296c:	175db001 	ldrbne	fp, [sp, -r1]

00002970 <l2526>:
    2970:	d0c39e72 	sbcle	r9, r3, r2, ror lr

00002974 <l2527>:
    2974:	91120009 	tstls	r2, r9

00002978 <l2528>:
    2978:	b11809ae 	tstlt	r8, lr, lsr #19

0000297c <l2529>:
    297c:	e1dd61b4 	ldrh	r6, [sp, #20]

00002980 <l2530>:
    2980:	7002031b 	andvc	r0, r2, fp, lsl r3

00002984 <l2531>:
    2984:	851d4024 	ldrhi	r4, [sp, #-36]	; 0x24

00002988 <l2532>:
    2988:	e0e0700e 	rsc	r7, r0, lr

0000298c <l2533>:
    298c:	717c0064 	cmnvc	ip, r4, rrx

00002990 <l2534>:
    2990:	ea000007 	b	29b4 <l2543>

00002994 <l2535>:
    2994:	e2801057 	add	r1, r0, #87	; 0x57

00002998 <l2536>:
    2998:	e1530006 	cmp	r3, r6

0000299c <l2537>:
    299c:	e1f04006 	mvns	r4, r6

000029a0 <l2538>:
    29a0:	e0d97ea6 	sbcs	r7, r9, r6, lsr #29

000029a4 <l2539>:
    29a4:	61ca5a37 	bicvs	r5, sl, r7, lsr sl

000029a8 <l2540>:
    29a8:	e1f0c008 	mvns	ip, r8

000029ac <l2541>:
    29ac:	90a7700e 	adcls	r7, r7, lr

000029b0 <l2542>:
    29b0:	ea000000 	b	29b8 <l2544>

000029b4 <l2543>:
    29b4:	eafffff7 	b	2998 <l2536>

000029b8 <l2544>:
    29b8:	a89d0a09 	ldmge	sp, {r0, r3, r9, fp}

000029bc <l2545>:
    29bc:	915c0f4a 	cmpls	ip, sl, asr #30

000029c0 <l2546>:
    29c0:	e3a05012 	mov	r5, #18

000029c4 <l2547>:
    29c4:	e19d90f5 	ldrsh	r9, [sp, r5]

000029c8 <l2548>:
    29c8:	e040760a 	sub	r7, r0, sl, lsl #12

000029cc <l2549>:
    29cc:	e294a030 	adds	sl, r4, #48	; 0x30

000029d0 <l2550>:
    29d0:	61dde0be 	ldrhvs	lr, [sp, #14]

000029d4 <l2551>:
    29d4:	d1dd60d6 	ldrsble	r6, [sp, #6]

000029d8 <l2552>:
    29d8:	e3710aeb 	cmn	r1, #962560	; 0xeb000

000029dc <l2553>:
    29dc:	d0099235 	andle	r9, r9, r5, lsr r2

000029e0 <l2554>:
    29e0:	e59f3000 	ldr	r3, [pc]	; 29e8 <l2556>

000029e4 <l2555>:
    29e4:	ea000000 	b	29ec <l2557>

000029e8 <l2556>:
    29e8:	000fffd4 	.word	0x000fffd4

000029ec <l2557>:
    29ec:	e103609a 	swp	r6, sl, [r3]

000029f0 <l2558>:
    29f0:	c2a436e7 	adcgt	r3, r4, #242221056	; 0xe700000

000029f4 <l2559>:
    29f4:	e16f6f16 	clz	r6, r6

000029f8 <l2560>:
    29f8:	e59fb000 	ldr	fp, [pc]	; 2a00 <l2562>

000029fc <l2561>:
    29fc:	ea000000 	b	2a04 <l2563>

00002a00 <l2562>:
    2a00:	000fffbc 	.word	0x000fffbc

00002a04 <l2563>:
    2a04:	e14b7097 	swpb	r7, r7, [fp]

00002a08 <l2564>:
    2a08:	b0ec0bc1 	rsclt	r0, ip, r1, asr #23

00002a0c <l2565>:
    2a0c:	e3a0c016 	mov	ip, #22

00002a10 <l2566>:
    2a10:	911d60bc 	ldrhls	r6, [sp, -ip]

00002a14 <l2567>:
    2a14:	e3a00020 	mov	r0, #32

00002a18 <l2568>:
    2a18:	e10db0b0 	strh	fp, [sp, -r0]

00002a1c <l2569>:
    2a1c:	e3a0b008 	mov	fp, #8

00002a20 <l2570>:
    2a20:	e68d000b 	str	r0, [sp], fp

00002a24 <l2571>:
    2a24:	1029e006 	eorne	lr, r9, r6

00002a28 <l2572>:
    2a28:	80d2b000 	sbcshi	fp, r2, r0

00002a2c <l2573>:
    2a2c:	e93d4b34 	ldmdb	sp!, {r2, r4, r5, r8, r9, fp, lr}

00002a30 <l2574>:
    2a30:	73c91006 	bicvc	r1, r9, #6

00002a34 <l2575>:
    2a34:	e3180899 	tst	r8, #10027008	; 0x990000

00002a38 <l2576>:
    2a38:	91e00e11 	mvnls	r0, r1, lsl lr

00002a3c <l2577>:
    2a3c:	ea000005 	b	2a58 <l2584>

00002a40 <l2578>:
    2a40:	e28010a5 	add	r1, r0, #165	; 0xa5

00002a44 <l2579>:
    2a44:	e15b0386 	cmp	fp, r6, lsl #7

00002a48 <l2580>:
    2a48:	a03ab004 	eorsge	fp, sl, r4

00002a4c <l2581>:
    2a4c:	735f0ba5 	cmpvc	pc, #168960	; 0x29400

00002a50 <l2582>:
    2a50:	61a06e1b 	lslvs	r6, fp, lr

00002a54 <l2583>:
    2a54:	ea000000 	b	2a5c <l2585>

00002a58 <l2584>:
    2a58:	eafffff9 	b	2a44 <l2579>

00002a5c <l2585>:
    2a5c:	737b010e 	cmnvc	fp, #-2147483645	; 0x80000003

00002a60 <l2586>:
    2a60:	e3a07016 	mov	r7, #22

00002a64 <l2587>:
    2a64:	c18d30b7 	strhgt	r3, [sp, r7]

00002a68 <l2588>:
    2a68:	e3a00014 	mov	r0, #20

00002a6c <l2589>:
    2a6c:	e19d80b0 	ldrh	r8, [sp, r0]

00002a70 <l2590>:
    2a70:	42a34101 	adcmi	r4, r3, #1073741824	; 0x40000000

00002a74 <l2591>:
    2a74:	e3a0002c 	mov	r0, #44	; 0x2c

00002a78 <l2592>:
    2a78:	219da0f0 	ldrshcs	sl, [sp, r0]

00002a7c <l2593>:
    2a7c:	e1f0597b 	mvns	r5, fp, ror r9

00002a80 <l2594>:
    2a80:	d1cd12b0 	strhle	r1, [sp, #32]

00002a84 <l2595>:
    2a84:	b2d5a146 	sbcslt	sl, r5, #-2147483631	; 0x80000011

00002a88 <l2596>:
    2a88:	4032300a 	eorsmi	r3, r2, sl

00002a8c <l2597>:
    2a8c:	e0718005 	rsbs	r8, r1, r5

00002a90 <l2598>:
    2a90:	d09ec579 	addsle	ip, lr, r9, ror r5

00002a94 <l2599>:
    2a94:	e240e33b 	sub	lr, r0, #-335544320	; 0xec000000

00002a98 <l2600>:
    2a98:	11ddc1b8 	ldrhne	ip, [sp, #24]

00002a9c <l2601>:
    2a9c:	e59f8000 	ldr	r8, [pc]	; 2aa4 <l2603>

00002aa0 <l2602>:
    2aa0:	ea000000 	b	2aa8 <l2604>

00002aa4 <l2603>:
    2aa4:	000fffd4 	.word	0x000fffd4

00002aa8 <l2604>:
    2aa8:	e1086097 	swp	r6, r7, [r8]

00002aac <l2605>:
    2aac:	8061000c 	rsbhi	r0, r1, ip

00002ab0 <l2606>:
    2ab0:	e3a0a034 	mov	sl, #52	; 0x34

00002ab4 <l2607>:
    2ab4:	e69d600a 	ldr	r6, [sp], sl

00002ab8 <l2608>:
    2ab8:	20066137 	andcs	r6, r6, r7, lsr r1

00002abc <l2609>:
    2abc:	61ca3850 	bicvs	r3, sl, r0, asr r8

00002ac0 <l2610>:
    2ac0:	50b34874 	adcspl	r4, r3, r4, ror r8

00002ac4 <l2611>:
    2ac4:	b0aa9630 	adclt	r9, sl, r0, lsr r6

00002ac8 <l2612>:
    2ac8:	311e0065 	tstcc	lr, r5, rrx

00002acc <l2613>:
    2acc:	314dc3b0 	strhcc	ip, [sp, #-48]	; 0xffffffd0

00002ad0 <l2614>:
    2ad0:	206fb00b 	rsbcs	fp, pc, fp

00002ad4 <l2615>:
    2ad4:	e92d8880 	push	{r7, fp, pc}

00002ad8 <l2616>:
    2ad8:	8092200e 	addshi	r2, r2, lr

00002adc <l2617>:
    2adc:	b1c3ea16 	biclt	lr, r3, r6, lsl sl

00002ae0 <l2618>:
    2ae0:	73c43a7b 	bicvc	r3, r4, #503808	; 0x7b000

00002ae4 <l2619>:
    2ae4:	e21012bb 	ands	r1, r0, #-1342177269	; 0xb000000b

00002ae8 <l2620>:
    2ae8:	a1a0e2c7 	asrge	lr, r7, #5

00002aec <l2621>:
    2aec:	80211069 	eorhi	r1, r1, r9, rrx

00002af0 <l2622>:
    2af0:	e1a00000 	nop			; (mov r0, r0)

00002af4 <l2623>:
    2af4:	e3a0a509 	mov	sl, #37748736	; 0x2400000

00002af8 <l2624>:
    2af8:	12e0b91f 	rscne	fp, r0, #507904	; 0x7c000

00002afc <l2625>:
    2afc:	b11a007b 	tstlt	sl, fp, ror r0

00002b00 <l2626>:
    2b00:	903e745c 	eorsls	r7, lr, ip, asr r4

00002b04 <l2627>:
    2b04:	e9ad0831 	stmib	sp!, {r0, r4, r5, fp}

00002b08 <l2628>:
    2b08:	11dd80f0 	ldrshne	r8, [sp]

00002b0c <l2629>:
    2b0c:	e15f0c2b 	cmp	pc, fp, lsr #24

00002b10 <l2630>:
    2b10:	e3a0c048 	mov	ip, #72	; 0x48

00002b14 <l2631>:
    2b14:	511d70fc 	ldrshpl	r7, [sp, -ip]

00002b18 <l2632>:
    2b18:	0000713a 	andeq	r7, r0, sl, lsr r1

00002b1c <l2633>:
    2b1c:	ea000002 	b	2b2c <l2637>

00002b20 <l2634>:
    2b20:	007ce004 	rsbseq	lr, ip, r4

00002b24 <l2635>:
    2b24:	e2d7c326 	sbcs	ip, r7, #-1744830464	; 0x98000000

00002b28 <l2636>:
    2b28:	d0b009e1 	adcsle	r0, r0, r1, ror #19

00002b2c <l2637>:
    2b2c:	a16f6f1e 	clzge	r6, lr

00002b30 <l2638>:
    2b30:	01550014 	cmpeq	r5, r4, lsl r0

00002b34 <l2639>:
    2b34:	60647068 	rsbvs	r7, r4, r8, rrx

00002b38 <l2640>:
    2b38:	31750ea5 	cmncc	r5, r5, lsr #29

00002b3c <l2641>:
    2b3c:	a1ce0113 	bicge	r0, lr, r3, lsl r1

00002b40 <l2642>:
    2b40:	8060e00a 	rsbhi	lr, r0, sl

00002b44 <l2643>:
    2b44:	e83d4520 	ldmda	sp!, {r5, r8, sl, lr}

00002b48 <l2644>:
    2b48:	a15a0067 	cmpge	sl, r7, rrx

00002b4c <l2645>:
    2b4c:	c15a0063 	cmpgt	sl, r3, rrx

00002b50 <l2646>:
    2b50:	baffffff 	blt	2b54 <l2647>

00002b54 <l2647>:
    2b54:	817809af 	cmnhi	r8, pc, lsr #19

00002b58 <l2648>:
    2b58:	e14da0b2 	strh	sl, [sp, #-2]

00002b5c <l2649>:
    2b5c:	e3a0301a 	mov	r3, #26

00002b60 <l2650>:
    2b60:	e11d70f3 	ldrsh	r7, [sp, -r3]

00002b64 <l2651>:
    2b64:	e05aa00f 	subs	sl, sl, pc

00002b68 <l2652>:
    2b68:	b15c0e3b 	cmplt	ip, fp, lsr lr

00002b6c <l2653>:
    2b6c:	e3a02022 	mov	r2, #34	; 0x22

00002b70 <l2654>:
    2b70:	a75d7002 	ldrbge	r7, [sp, -r2]

00002b74 <l2655>:
    2b74:	e0097208 	and	r7, r9, r8, lsl #4

00002b78 <l2656>:
    2b78:	e3a00000 	mov	r0, #0

00002b7c <l2657>:
    2b7c:	e7ad7000 	str	r7, [sp, r0]!

00002b80 <l2658>:
    2b80:	e55da033 	ldrb	sl, [sp, #-51]	; 0x33

00002b84 <l2659>:
    2b84:	e1190855 	tst	r9, r5, asr r8

00002b88 <l2660>:
    2b88:	105b306a 	subsne	r3, fp, sl, rrx

00002b8c <l2661>:
    2b8c:	ea000007 	b	2bb0 <l2670>

00002b90 <l2662>:
    2b90:	e280103c 	add	r1, r0, #60	; 0x3c

00002b94 <l2663>:
    2b94:	406fef45 	rsbmi	lr, pc, r5, asr #30

00002b98 <l2664>:
    2b98:	a18c6510 	orrge	r6, ip, r0, lsl r5

00002b9c <l2665>:
    2b9c:	c0a92005 	adcgt	r2, r9, r5

00002ba0 <l2666>:
    2ba0:	c1f03e2e 	mvnsgt	r3, lr, lsr #28

00002ba4 <l2667>:
    2ba4:	313b0a17 	teqcc	fp, r7, lsl sl

00002ba8 <l2668>:
    2ba8:	0064300f 	rsbeq	r3, r4, pc

00002bac <l2669>:
    2bac:	ea000000 	b	2bb4 <l2671>

00002bb0 <l2670>:
    2bb0:	eafffff7 	b	2b94 <l2663>

00002bb4 <l2671>:
    2bb4:	b35c0f7b 	cmplt	ip, #492	; 0x1ec

00002bb8 <l2672>:
    2bb8:	c16f4f13 	clzgt	r4, r3

00002bbc <l2673>:
    2bbc:	e1f01067 	mvns	r1, r7, rrx

00002bc0 <l2674>:
    2bc0:	e1720875 	cmn	r2, r5, ror r8

00002bc4 <l2675>:
    2bc4:	e3a0300e 	mov	r3, #14

00002bc8 <l2676>:
    2bc8:	319d60d3 	ldrsbcc	r6, [sp, r3]

00002bcc <l2677>:
    2bcc:	e31903cf 	tst	r9, #1006632963	; 0x3c000003

00002bd0 <l2678>:
    2bd0:	605c106e 	subsvs	r1, ip, lr, rrx

00002bd4 <l2679>:
    2bd4:	e59fe000 	ldr	lr, [pc]	; 2bdc <l2681>

00002bd8 <l2680>:
    2bd8:	ea000000 	b	2be0 <l2682>

00002bdc <l2681>:
    2bdc:	000fffd4 	.word	0x000fffd4

00002be0 <l2682>:
    2be0:	910e5099 	swpls	r5, r9, [lr]

00002be4 <l2683>:
    2be4:	391d4cfe 	ldmdbcc	sp, {r1, r2, r3, r4, r5, r6, r7, sl, fp, lr}

00002be8 <l2684>:
    2be8:	516f7f10 	clzpl	r7, r0

00002bec <l2685>:
    2bec:	e00b500b 	and	r5, fp, fp

00002bf0 <l2686>:
    2bf0:	e3a09008 	mov	r9, #8

00002bf4 <l2687>:
    2bf4:	e72d9009 	str	r9, [sp, -r9]!

00002bf8 <l2688>:
    2bf8:	e15d72fe 	ldrsh	r7, [sp, #-46]	; 0xffffffd2

00002bfc <l2689>:
    2bfc:	e1979006 	orrs	r9, r7, r6

00002c00 <l2690>:
    2c00:	e116006c 	tst	r6, ip, rrx

00002c04 <l2691>:
    2c04:	e0a9263c 	adc	r2, r9, ip, lsr r6

00002c08 <l2692>:
    2c08:	d3b08226 	movsle	r8, #1610612738	; 0x60000002

00002c0c <l2693>:
    2c0c:	ba000001 	blt	2c18 <l2696>

00002c10 <l2694>:
    2c10:	c11e0001 	tstgt	lr, r1

00002c14 <l2695>:
    2c14:	01e05003 	mvneq	r5, r3

00002c18 <l2696>:
    2c18:	e11b0c83 	tst	fp, r3, lsl #25

00002c1c <l2697>:
    2c1c:	e59fa000 	ldr	sl, [pc]	; 2c24 <l2699>

00002c20 <l2698>:
    2c20:	ea000000 	b	2c28 <l2700>

00002c24 <l2699>:
    2c24:	000fffa0 	.word	0x000fffa0

00002c28 <l2700>:
    2c28:	e10a4094 	swp	r4, r4, [sl]

00002c2c <l2701>:
    2c2c:	31814066 	orrcc	r4, r1, r6, rrx

00002c30 <l2702>:
    2c30:	e0e13000 	rsc	r3, r1, r0

00002c34 <l2703>:
    2c34:	d81d4285 	ldmdale	sp, {r0, r2, r7, r9, lr}

00002c38 <l2704>:
    2c38:	491d1e37 	ldmdbmi	sp, {r0, r1, r2, r4, r5, r9, sl, fp, ip}

00002c3c <l2705>:
    2c3c:	e3150aa1 	tst	r5, #659456	; 0xa1000

00002c40 <l2706>:
    2c40:	31a06008 	movcc	r6, r8

00002c44 <l2707>:
    2c44:	e3a0b006 	mov	fp, #6

00002c48 <l2708>:
    2c48:	c19de0fb 	ldrshgt	lr, [sp, fp]

00002c4c <l2709>:
    2c4c:	e3a0e018 	mov	lr, #24

00002c50 <l2710>:
    2c50:	e73db00e 	ldr	fp, [sp, -lr]!

00002c54 <l2711>:
    2c54:	100c0b33 	andne	r0, ip, r3, lsr fp

00002c58 <l2712>:
    2c58:	e075b066 	rsbs	fp, r5, r6, rrx

00002c5c <l2713>:
    2c5c:	e1dde1d2 	ldrsb	lr, [sp, #18]

00002c60 <l2714>:
    2c60:	e40de008 	str	lr, [sp], #-8

00002c64 <l2715>:
    2c64:	c1110033 	tstgt	r1, r3, lsr r0

00002c68 <l2716>:
    2c68:	a0545538 	subsge	r5, r4, r8, lsr r5

00002c6c <l2717>:
    2c6c:	e59f2000 	ldr	r2, [pc]	; 2c74 <l2719>

00002c70 <l2718>:
    2c70:	ea000000 	b	2c78 <l2720>

00002c74 <l2719>:
    2c74:	000fffc8 	.word	0x000fffc8

00002c78 <l2720>:
    2c78:	1142b090 	swpbne	fp, r0, [r2]

00002c7c <l2721>:
    2c7c:	85cd1006 	strbhi	r1, [sp, #6]

00002c80 <l2722>:
    2c80:	21120270 	tstcs	r2, r0, ror r2

00002c84 <l2723>:
    2c84:	e37c0456 	cmn	ip, #1442840576	; 0x56000000

00002c88 <l2724>:
    2c88:	e1a0c60f 	lsl	ip, pc, #12

00002c8c <l2725>:
    2c8c:	700c8536 	andvc	r8, ip, r6, lsr r5

00002c90 <l2726>:
    2c90:	11a0806c 	rrxne	r8, ip

00002c94 <l2727>:
    2c94:	65cda003 	strbvs	sl, [sp, #3]

00002c98 <l2728>:
    2c98:	e1f01069 	mvns	r1, r9, rrx

00002c9c <l2729>:
    2c9c:	ea000007 	b	2cc0 <l2738>

00002ca0 <l2730>:
    2ca0:	e28010ca 	add	r1, r0, #202	; 0xca

00002ca4 <l2731>:
    2ca4:	00577a2b 	subseq	r7, r7, fp, lsr #20

00002ca8 <l2732>:
    2ca8:	e0a5700b 	adc	r7, r5, fp

00002cac <l2733>:
    2cac:	e065eb3b 	rsb	lr, r5, fp, lsr fp

00002cb0 <l2734>:
    2cb0:	e1deae21 	bics	sl, lr, r1, lsr #28

00002cb4 <l2735>:
    2cb4:	e0918180 	adds	r8, r1, r0, lsl #3

00002cb8 <l2736>:
    2cb8:	e11b0009 	tst	fp, r9

00002cbc <l2737>:
    2cbc:	ea000000 	b	2cc4 <l2739>

00002cc0 <l2738>:
    2cc0:	eafffff7 	b	2ca4 <l2731>

00002cc4 <l2739>:
    2cc4:	e9ad6000 	stmib	sp!, {sp, lr}

00002cc8 <l2740>:
    2cc8:	6236310e 	eorsvs	r3, r6, #-2147483645	; 0x80000003

00002ccc <l2741>:
    2ccc:	20f4781c 	rscscs	r7, r4, ip, lsl r8

00002cd0 <l2742>:
    2cd0:	e59f3000 	ldr	r3, [pc]	; 2cd8 <l2744>

00002cd4 <l2743>:
    2cd4:	ea000000 	b	2cdc <l2745>

00002cd8 <l2744>:
    2cd8:	000fffe8 	.word	0x000fffe8

00002cdc <l2745>:
    2cdc:	c143009e 	swpbgt	r0, lr, [r3]

00002ce0 <l2746>:
    2ce0:	e010c756 	ands	ip, r0, r6, asr r7

00002ce4 <l2747>:
    2ce4:	008fb060 	addeq	fp, pc, r0, rrx

00002ce8 <l2748>:
    2ce8:	e1b02f05 	lsls	r2, r5, #30

00002cec <l2749>:
    2cec:	e3a0400c 	mov	r4, #12

00002cf0 <l2750>:
    2cf0:	d11dc0b4 	ldrhle	ip, [sp, -r4]

00002cf4 <l2751>:
    2cf4:	e1b0687b 	rors	r6, fp, r8

00002cf8 <l2752>:
    2cf8:	e55d5012 	ldrb	r5, [sp, #-18]

00002cfc <l2753>:
    2cfc:	e1a06868 	ror	r6, r8, #16

00002d00 <l2754>:
    2d00:	615d20b8 	ldrhvs	r2, [sp, #-8]

00002d04 <l2755>:
    2d04:	319b7006 	orrscc	r7, fp, r6

00002d08 <l2756>:
    2d08:	30c1300e 	sbccc	r3, r1, lr

00002d0c <l2757>:
    2d0c:	e3a0e005 	mov	lr, #5

00002d10 <l2758>:
    2d10:	e19d90de 	ldrsb	r9, [sp, lr]

00002d14 <l2759>:
    2d14:	e92d8405 	push	{r0, r2, sl, pc}

00002d18 <l2760>:
    2d18:	7028b06c 	eorvc	fp, r8, ip, rrx

00002d1c <l2761>:
    2d1c:	e0f10008 	rscs	r0, r1, r8

00002d20 <l2762>:
    2d20:	e097600e 	adds	r6, r7, lr

00002d24 <l2763>:
    2d24:	51dd01f8 	ldrshpl	r0, [sp, #24]

00002d28 <l2764>:
    2d28:	e1dda1d3 	ldrsb	sl, [sp, #19]

00002d2c <l2765>:
    2d2c:	ea000003 	b	2d40 <l2770>

00002d30 <l2766>:
    2d30:	e2801049 	add	r1, r0, #73	; 0x49

00002d34 <l2767>:
    2d34:	60b53009 	adcsvs	r3, r5, r9

00002d38 <l2768>:
    2d38:	e16f0f19 	clz	r0, r9

00002d3c <l2769>:
    2d3c:	ea000000 	b	2d44 <l2771>

00002d40 <l2770>:
    2d40:	eafffffb 	b	2d34 <l2767>

00002d44 <l2771>:
    2d44:	b1790003 	cmnlt	r9, r3

00002d48 <l2772>:
    2d48:	e242acc6 	sub	sl, r2, #50688	; 0xc600

00002d4c <l2773>:
    2d4c:	e3a07006 	mov	r7, #6

00002d50 <l2774>:
    2d50:	e19d30f7 	ldrsh	r3, [sp, r7]

00002d54 <l2775>:
    2d54:	e053e008 	subs	lr, r3, r8

00002d58 <l2776>:
    2d58:	c061b0aa 	rsbgt	fp, r1, sl, lsr #1

00002d5c <l2777>:
    2d5c:	81710e35 	cmnhi	r1, r5, lsr lr

00002d60 <l2778>:
    2d60:	00507caa 	subseq	r7, r0, sl, lsr #25

00002d64 <l2779>:
    2d64:	e1a00000 	nop			; (mov r0, r0)

00002d68 <l2780>:
    2d68:	e228e617 	eor	lr, r8, #24117248	; 0x1700000

00002d6c <l2781>:
    2d6c:	e3a02014 	mov	r2, #20

00002d70 <l2782>:
    2d70:	918d50b2 	strhls	r5, [sp, r2]

00002d74 <l2783>:
    2d74:	b3770cab 	cmnlt	r7, #43776	; 0xab00

00002d78 <l2784>:
    2d78:	c0fec471 	rscsgt	ip, lr, r1, ror r4

00002d7c <l2785>:
    2d7c:	e1864002 	orr	r4, r6, r2

00002d80 <l2786>:
    2d80:	e2f70e3e 	rscs	r0, r7, #992	; 0x3e0

00002d84 <l2787>:
    2d84:	e16f6f1a 	clz	r6, sl

00002d88 <l2788>:
    2d88:	91520439 	cmpls	r2, r9, lsr r4

00002d8c <l2789>:
    2d8c:	e3b09e9d 	movs	r9, #2512	; 0x9d0

00002d90 <l2790>:
    2d90:	404a2467 	submi	r2, sl, r7, ror #8

00002d94 <l2791>:
    2d94:	20227c73 	eorcs	r7, r2, r3, ror ip

00002d98 <l2792>:
    2d98:	31cd50b0 	strhcc	r5, [sp]

00002d9c <l2793>:
    2d9c:	e1a00000 	nop			; (mov r0, r0)

00002da0 <l2794>:
    2da0:	e59fc000 	ldr	ip, [pc]	; 2da8 <l2796>

00002da4 <l2795>:
    2da4:	ea000000 	b	2dac <l2797>

00002da8 <l2796>:
    2da8:	000fffc8 	.word	0x000fffc8

00002dac <l2797>:
    2dac:	e14c8096 	swpb	r8, r6, [ip]

00002db0 <l2798>:
    2db0:	e0f1e8e7 	rscs	lr, r1, r7, ror #17

00002db4 <l2799>:
    2db4:	e31f0c15 	tst	pc, #5376	; 0x1500

00002db8 <l2800>:
    2db8:	e99d55d0 	ldmib	sp, {r4, r6, r7, r8, sl, ip, lr}

00002dbc <l2801>:
    2dbc:	41cd84b0 	strhmi	r8, [sp, #64]	; 0x40

00002dc0 <l2802>:
    2dc0:	c00b020e 	andgt	r0, fp, lr, lsl #4

00002dc4 <l2803>:
    2dc4:	c1cd72be 	strhgt	r7, [sp, #46]	; 0x2e

00002dc8 <l2804>:
    2dc8:	016fbf1c 	clzeq	fp, ip

00002dcc <l2805>:
    2dcc:	85cd1030 	strbhi	r1, [sp, #48]	; 0x30

00002dd0 <l2806>:
    2dd0:	41500e82 	cmpmi	r0, r2, lsl #29

00002dd4 <l2807>:
    2dd4:	e9bd0004 	ldmib	sp!, {r2}

00002dd8 <l2808>:
    2dd8:	01d40916 	bicseq	r0, r4, r6, lsl r9

00002ddc <l2809>:
    2ddc:	d5cdb038 	strble	fp, [sp, #56]	; 0x38

00002de0 <l2810>:
    2de0:	e15a0a33 	cmp	sl, r3, lsr sl

00002de4 <l2811>:
    2de4:	0001800e 	andeq	r8, r1, lr

00002de8 <l2812>:
    2de8:	e0aa7e3b 	adc	r7, sl, fp, lsr lr

00002dec <l2813>:
    2dec:	e2a62ee6 	adc	r2, r6, #3680	; 0xe60

00002df0 <l2814>:
    2df0:	d16f1f19 	clzle	r1, r9

00002df4 <l2815>:
    2df4:	e9addffc 	stmib	sp!, {r2, r3, r4, r5, r6, r7, r8, r9, sl, fp, ip, lr, pc}

00002df8 <l2816>:
    2df8:	e0a68008 	adc	r8, r6, r8

00002dfc <l2817>:
    2dfc:	11883215 	orrne	r3, r8, r5, lsl r2

00002e00 <l2818>:
    2e00:	e083100f 	add	r1, r3, pc

00002e04 <l2819>:
    2e04:	e3a0300d 	mov	r3, #13

00002e08 <l2820>:
    2e08:	674d2003 	strbvs	r2, [sp, -r3]

00002e0c <l2821>:
    2e0c:	e2e9c098 	rsc	ip, r9, #152	; 0x98

00002e10 <l2822>:
    2e10:	e3a09038 	mov	r9, #56	; 0x38

00002e14 <l2823>:
    2e14:	e60d4009 	str	r4, [sp], -r9

00002e18 <l2824>:
    2e18:	d1500008 	cmple	r0, r8

00002e1c <l2825>:
    2e1c:	5076c011 	rsbspl	ip, r6, r1, lsl r0

00002e20 <l2826>:
    2e20:	e03a99cc 	eors	r9, sl, ip, asr #19

00002e24 <l2827>:
    2e24:	e1a00000 	nop			; (mov r0, r0)

00002e28 <l2828>:
    2e28:	e22e212b 	eor	r2, lr, #-1073741814	; 0xc000000a

00002e2c <l2829>:
    2e2c:	10400002 	subne	r0, r0, r2

00002e30 <l2830>:
    2e30:	d0547000 	subsle	r7, r4, r0

00002e34 <l2831>:
    2e34:	e3a08020 	mov	r8, #32

00002e38 <l2832>:
    2e38:	e68dc008 	str	ip, [sp], r8

00002e3c <l2833>:
    2e3c:	e3a0e028 	mov	lr, #40	; 0x28

00002e40 <l2834>:
    2e40:	e74d300e 	strb	r3, [sp, -lr]

00002e44 <l2835>:
    2e44:	415d32d2 	ldrsbmi	r3, [sp, #-34]	; 0xffffffde

00002e48 <l2836>:
    2e48:	e1a00000 	nop			; (mov r0, r0)

00002e4c <l2837>:
    2e4c:	e59f7000 	ldr	r7, [pc]	; 2e54 <l2839>

00002e50 <l2838>:
    2e50:	ea000000 	b	2e58 <l2840>

00002e54 <l2839>:
    2e54:	000fffe4 	.word	0x000fffe4

00002e58 <l2840>:
    2e58:	e1076099 	swp	r6, r9, [r7]

00002e5c <l2841>:
    2e5c:	e3a01022 	mov	r1, #34	; 0x22

00002e60 <l2842>:
    2e60:	911dc0f1 	ldrshls	ip, [sp, -r1]

00002e64 <l2843>:
    2e64:	80711003 	rsbshi	r1, r1, r3

00002e68 <l2844>:
    2e68:	e59f1000 	ldr	r1, [pc]	; 2e70 <l2846>

00002e6c <l2845>:
    2e6c:	ea000000 	b	2e74 <l2847>

00002e70 <l2846>:
    2e70:	000fffa4 	.word	0x000fffa4

00002e74 <l2847>:
    2e74:	0141b099 	swpbeq	fp, r9, [r1]

00002e78 <l2848>:
    2e78:	e83d0249 	ldmda	sp!, {r0, r3, r6, r9}

00002e7c <l2849>:
    2e7c:	1a000002 	bne	2e8c <l2853>

00002e80 <l2850>:
    2e80:	e0455418 	sub	r5, r5, r8, lsl r4

00002e84 <l2851>:
    2e84:	e3816d8b 	orr	r6, r1, #8896	; 0x22c0

00002e88 <l2852>:
    2e88:	e0380750 	eors	r0, r8, r0, asr r7

00002e8c <l2853>:
    2e8c:	3130000c 	teqcc	r0, ip

00002e90 <l2854>:
    2e90:	b0452bc1 	sublt	r2, r5, r1, asr #23

00002e94 <l2855>:
    2e94:	633a0db1 	teqvs	sl, #11328	; 0x2c40

00002e98 <l2856>:
    2e98:	82fe77ff 	rscshi	r7, lr, #66846720	; 0x3fc0000

00002e9c <l2857>:
    2e9c:	65dd0033 	ldrbvs	r0, [sp, #51]	; 0x33

00002ea0 <l2858>:
    2ea0:	e3a0901e 	mov	r9, #30

00002ea4 <l2859>:
    2ea4:	e18d40b9 	strh	r4, [sp, r9]

00002ea8 <l2860>:
    2ea8:	e3a0c002 	mov	ip, #2

00002eac <l2861>:
    2eac:	118d00bc 	strhne	r0, [sp, ip]

00002eb0 <l2862>:
    2eb0:	10506000 	subsne	r6, r0, r0

00002eb4 <l2863>:
    2eb4:	e13b057c 	teq	fp, ip, ror r5

00002eb8 <l2864>:
    2eb8:	2014600a 	andscs	r6, r4, sl

00002ebc <l2865>:
    2ebc:	e5bdc010 	ldr	ip, [sp, #16]!

00002ec0 <l2866>:
    2ec0:	e061c918 	rsb	ip, r1, r8, lsl r9

00002ec4 <l2867>:
    2ec4:	60e06009 	rscvs	r6, r0, r9

00002ec8 <l2868>:
    2ec8:	619b2447 	orrsvs	r2, fp, r7, asr #8

00002ecc <l2869>:
    2ecc:	b090192e 	addslt	r1, r0, lr, lsr #18

00002ed0 <l2870>:
    2ed0:	70364215 	eorsvc	r4, r6, r5, lsl r2

00002ed4 <l2871>:
    2ed4:	e8ad8816 	stmia	sp!, {r1, r2, r4, fp, pc}

00002ed8 <l2872>:
    2ed8:	e15a0000 	cmp	sl, r0

00002edc <l2873>:
    2edc:	e16f4f10 	clz	r4, r0

00002ee0 <l2874>:
    2ee0:	41750c20 	cmnmi	r5, r0, lsr #24

00002ee4 <l2875>:
    2ee4:	41750557 	cmnmi	r5, r7, asr r5

00002ee8 <l2876>:
    2ee8:	e0126a16 	ands	r6, r2, r6, lsl sl

00002eec <l2877>:
    2eec:	00453e6e 	subeq	r3, r5, lr, ror #28

00002ef0 <l2878>:
    2ef0:	e16f3f15 	clz	r3, r5

00002ef4 <l2879>:
    2ef4:	115d03b2 	ldrhne	r0, [sp, #-50]	; 0xffffffce

00002ef8 <l2880>:
    2ef8:	e0e73151 	rsc	r3, r7, r1, asr r1

00002efc <l2881>:
    2efc:	e1780a71 	cmn	r8, r1, ror sl

00002f00 <l2882>:
    2f00:	c0e8ece0 	rscgt	lr, r8, r0, ror #25

00002f04 <l2883>:
    2f04:	e09c3004 	adds	r3, ip, r4

00002f08 <l2884>:
    2f08:	e00ee000 	and	lr, lr, r0

00002f0c <l2885>:
    2f0c:	a33b0a01 	teqge	fp, #4096	; 0x1000

00002f10 <l2886>:
    2f10:	e0798ecf 	rsbs	r8, r9, pc, asr #29

00002f14 <l2887>:
    2f14:	e55d2008 	ldrb	r2, [sp, #-8]

00002f18 <l2888>:
    2f18:	a17a05cf 	cmnge	sl, pc, asr #11

00002f1c <l2889>:
    2f1c:	e19c3009 	orrs	r3, ip, r9

00002f20 <l2890>:
    2f20:	eaffffff 	b	2f24 <l2891>

00002f24 <l2891>:
    2f24:	e16f8f1b 	clz	r8, fp

00002f28 <l2892>:
    2f28:	e23bbda3 	eors	fp, fp, #10432	; 0x28c0

00002f2c <l2893>:
    2f2c:	95ddc008 	ldrbls	ip, [sp, #8]

00002f30 <l2894>:
    2f30:	804f5008 	subhi	r5, pc, r8

00002f34 <l2895>:
    2f34:	ea000005 	b	2f50 <l2902>

00002f38 <l2896>:
    2f38:	e280107c 	add	r1, r0, #124	; 0x7c

00002f3c <l2897>:
    2f3c:	e1dee000 	bics	lr, lr, r0

00002f40 <l2898>:
    2f40:	c1901003 	orrsgt	r1, r0, r3

00002f44 <l2899>:
    2f44:	704405a0 	subvc	r0, r4, r0, lsr #11

00002f48 <l2900>:
    2f48:	201fcbaf 	andscs	ip, pc, pc, lsr #23

00002f4c <l2901>:
    2f4c:	ea000000 	b	2f54 <l2903>

00002f50 <l2902>:
    2f50:	eafffff9 	b	2f3c <l2897>

00002f54 <l2903>:
    2f54:	e16f3f19 	clz	r3, r9

00002f58 <l2904>:
    2f58:	e15d42d8 	ldrsb	r4, [sp, #-40]	; 0xffffffd8

00002f5c <l2905>:
    2f5c:	21d12007 	bicscs	r2, r1, r7

00002f60 <l2906>:
    2f60:	e15d51f8 	ldrsh	r5, [sp, #-24]	; 0xffffffe8

00002f64 <l2907>:
    2f64:	b55db004 	ldrblt	fp, [sp, #-4]

00002f68 <l2908>:
    2f68:	01140009 	tsteq	r4, r9

00002f6c <l2909>:
    2f6c:	c08be34a 	addgt	lr, fp, sl, asr #6

00002f70 <l2910>:
    2f70:	ea000002 	b	2f80 <l2914>

00002f74 <l2911>:
    2f74:	e2801059 	add	r1, r0, #89	; 0x59

00002f78 <l2912>:
    2f78:	705a4009 	subsvc	r4, sl, r9

00002f7c <l2913>:
    2f7c:	ea000000 	b	2f84 <l2915>

00002f80 <l2914>:
    2f80:	eafffffc 	b	2f78 <l2912>

00002f84 <l2915>:
    2f84:	e3a05009 	mov	r5, #9

00002f88 <l2916>:
    2f88:	e19d80d5 	ldrsb	r8, [sp, r5]

00002f8c <l2917>:
    2f8c:	91c7e3cb 	bicls	lr, r7, fp, asr #7

00002f90 <l2918>:
    2f90:	52bcef45 	adcspl	lr, ip, #276	; 0x114

00002f94 <l2919>:
    2f94:	e3a0501a 	mov	r5, #26

00002f98 <l2920>:
    2f98:	310d90b5 	strhcc	r9, [sp, -r5]

00002f9c <l2921>:
    2f9c:	e0de3003 	sbcs	r3, lr, r3

00002fa0 <l2922>:
    2fa0:	e19f5145 	orrs	r5, pc, r5, asr #2

00002fa4 <l2923>:
    2fa4:	e3a08008 	mov	r8, #8

00002fa8 <l2924>:
    2fa8:	e10d10b8 	strh	r1, [sp, -r8]

00002fac <l2925>:
    2fac:	e52d3004 	push	{r3}		; (str r3, [sp, #-4]!)

00002fb0 <l2926>:
    2fb0:	e16fcf1e 	clz	ip, lr

00002fb4 <l2927>:
    2fb4:	90124731 	andsls	r4, r2, r1, lsr r7

00002fb8 <l2928>:
    2fb8:	4266289e 	rsbmi	r2, r6, #10354688	; 0x9e0000

00002fbc <l2929>:
    2fbc:	e047c356 	sub	ip, r7, r6, asr r3

00002fc0 <l2930>:
    2fc0:	ea000005 	b	2fdc <l2937>

00002fc4 <l2931>:
    2fc4:	e280101a 	add	r1, r0, #26

00002fc8 <l2932>:
    2fc8:	b040b00b 	sublt	fp, r0, fp

00002fcc <l2933>:
    2fcc:	907e8a45 	rsbsls	r8, lr, r5, asr #20

00002fd0 <l2934>:
    2fd0:	e0a1a008 	adc	sl, r1, r8

00002fd4 <l2935>:
    2fd4:	00038b36 	andeq	r8, r3, r6, lsr fp

00002fd8 <l2936>:
    2fd8:	ea000000 	b	2fe0 <l2938>

00002fdc <l2937>:
    2fdc:	eafffff9 	b	2fc8 <l2932>

00002fe0 <l2938>:
    2fe0:	e16f6f10 	clz	r6, r0

00002fe4 <l2939>:
    2fe4:	e1b03631 	lsrs	r3, r1, r6

00002fe8 <l2940>:
    2fe8:	e11c0fa5 	tst	ip, r5, lsr #31

00002fec <l2941>:
    2fec:	00b1273b 	adcseq	r2, r1, fp, lsr r7

00002ff0 <l2942>:
    2ff0:	e83d4903 	ldmda	sp!, {r0, r1, r8, fp, lr}

00002ff4 <l2943>:
    2ff4:	91b0300b 	movsls	r3, fp

00002ff8 <l2944>:
    2ff8:	45cd701d 	strbmi	r7, [sp, #29]

00002ffc <l2945>:
    2ffc:	30e95009 	rsccc	r5, r9, r9

00003000 <l2946>:
    3000:	da000005 	ble	301c <l2953>

00003004 <l2947>:
    3004:	e280105c 	add	r1, r0, #92	; 0x5c

00003008 <l2948>:
    3008:	d33a071d 	teqle	sl, #7602176	; 0x740000

0000300c <l2949>:
    300c:	e17b0447 	cmn	fp, r7, asr #8

00003010 <l2950>:
    3010:	b0c41507 	sbclt	r1, r4, r7, lsl #10

00003014 <l2951>:
    3014:	81730921 	cmnhi	r3, r1, lsr #18

00003018 <l2952>:
    3018:	ea000000 	b	3020 <l2954>

0000301c <l2953>:
    301c:	eafffff9 	b	3008 <l2948>

00003020 <l2954>:
    3020:	ea000007 	b	3044 <l2963>

00003024 <l2955>:
    3024:	e2801078 	add	r1, r0, #120	; 0x78

00003028 <l2956>:
    3028:	9294b552 	addsls	fp, r4, #343932928	; 0x14800000

0000302c <l2957>:
    302c:	e0d155a0 	sbcs	r5, r1, r0, lsr #11

00003030 <l2958>:
    3030:	e1b0167b 	rors	r1, fp, r6

00003034 <l2959>:
    3034:	505faea4 	subspl	sl, pc, r4, lsr #29

00003038 <l2960>:
    3038:	e1d8c004 	bics	ip, r8, r4

0000303c <l2961>:
    303c:	71d00dc0 	bicsvc	r0, r0, r0, asr #27

00003040 <l2962>:
    3040:	ea000000 	b	3048 <l2964>

00003044 <l2963>:
    3044:	eafffff7 	b	3028 <l2956>

00003048 <l2964>:
    3048:	e59f8000 	ldr	r8, [pc]	; 3050 <l2966>

0000304c <l2965>:
    304c:	ea000000 	b	3054 <l2967>

00003050 <l2966>:
    3050:	000fffe8 	.word	0x000fffe8

00003054 <l2967>:
    3054:	51484094 	swpbpl	r4, r4, [r8]

00003058 <l2968>:
    3058:	e59f8000 	ldr	r8, [pc]	; 3060 <l2970>

0000305c <l2969>:
    305c:	ea000000 	b	3064 <l2971>

00003060 <l2970>:
    3060:	000fffc4 	.word	0x000fffc4

00003064 <l2971>:
    3064:	a148309a 	swpbge	r3, sl, [r8]

00003068 <l2972>:
    3068:	e05a8003 	subs	r8, sl, r3

0000306c <l2973>:
    306c:	01790060 	cmneq	r9, r0, rrx

00003070 <l2974>:
    3070:	e130006e 	teq	r0, lr, rrx

00003074 <l2975>:
    3074:	35cd7000 	strbcc	r7, [sp]

00003078 <l2976>:
    3078:	2011a00e 	andscs	sl, r1, lr

0000307c <l2977>:
    307c:	e3a0e024 	mov	lr, #36	; 0x24

00003080 <l2978>:
    3080:	e71d000e 	ldr	r0, [sp, -lr]

00003084 <l2979>:
    3084:	7197e00a 	orrsvc	lr, r7, sl

00003088 <l2980>:
    3088:	01500958 	cmpeq	r0, r8, asr r9

0000308c <l2981>:
    308c:	a2e6b7a5 	rscge	fp, r6, #43253760	; 0x2940000

00003090 <l2982>:
    3090:	e41d3014 	ldr	r3, [sp], #-20

00003094 <l2983>:
    3094:	11dd33d3 	ldrsbne	r3, [sp, #51]	; 0x33

00003098 <l2984>:
    3098:	e59f9000 	ldr	r9, [pc]	; 30a0 <l2986>

0000309c <l2985>:
    309c:	ea000000 	b	30a4 <l2987>

000030a0 <l2986>:
    30a0:	000fffa8 	.word	0x000fffa8

000030a4 <l2987>:
    30a4:	71498097 	swpbvc	r8, r7, [r9]

000030a8 <l2988>:
    30a8:	e82d0002 	stmda	sp!, {r1}

000030ac <l2989>:
    30ac:	32a1b312 	adccc	fp, r1, #1207959552	; 0x48000000

000030b0 <l2990>:
    30b0:	ea000003 	b	30c4 <l2995>

000030b4 <l2991>:
    30b4:	e28010a0 	add	r1, r0, #160	; 0xa0

000030b8 <l2992>:
    30b8:	e246c622 	sub	ip, r6, #35651584	; 0x2200000

000030bc <l2993>:
    30bc:	e08c405a 	add	r4, ip, sl, asr r0

000030c0 <l2994>:
    30c0:	ea000000 	b	30c8 <l2996>

000030c4 <l2995>:
    30c4:	eafffffb 	b	30b8 <l2992>

000030c8 <l2996>:
    30c8:	e1740213 	cmn	r4, r3, lsl r2

000030cc <l2997>:
    30cc:	e13c0950 	teq	ip, r0, asr r9

000030d0 <l2998>:
    30d0:	e3a0e00a 	mov	lr, #10

000030d4 <l2999>:
    30d4:	519da0de 	ldrsbpl	sl, [sp, lr]

000030d8 <l3000>:
    30d8:	e254a7b6 	subs	sl, r4, #47710208	; 0x2d80000

000030dc <l3001>:
    30dc:	e3a06010 	mov	r6, #16

000030e0 <l3002>:
    30e0:	b19d10b6 	ldrhlt	r1, [sp, r6]

000030e4 <l3003>:
    30e4:	e0826e54 	add	r6, r2, r4, asr lr

000030e8 <l3004>:
    30e8:	e1a00000 	nop			; (mov r0, r0)

000030ec <l3005>:
    30ec:	e1a05540 	asr	r5, r0, #10

000030f0 <l3006>:
    30f0:	e3a0b005 	mov	fp, #5

000030f4 <l3007>:
    30f4:	474d700b 	strbmi	r7, [sp, -fp]

000030f8 <l3008>:
    30f8:	e0d35005 	sbcs	r5, r3, r5

000030fc <l3009>:
    30fc:	e5ad7014 	str	r7, [sp, #20]!

00003100 <l3010>:
    3100:	e3a02008 	mov	r2, #8

00003104 <l3011>:
    3104:	818d00b2 	strhhi	r0, [sp, r2]

00003108 <l3012>:
    3108:	e1a0335c 	asr	r3, ip, r3

0000310c <l3013>:
    310c:	e05c740b 	subs	r7, ip, fp, lsl #8

00003110 <l3014>:
    3110:	e0e1300e 	rsc	r3, r1, lr

00003114 <l3015>:
    3114:	e1a00000 	nop			; (mov r0, r0)

00003118 <l3016>:
    3118:	d17f0008 	cmnle	pc, r8

0000311c <l3017>:
    311c:	e138006f 	teq	r8, pc, rrx

00003120 <l3018>:
    3120:	e3a0a014 	mov	sl, #20

00003124 <l3019>:
    3124:	211d00ba 	ldrhcs	r0, [sp, -sl]

00003128 <l3020>:
    3128:	e1330003 	teq	r3, r3

0000312c <l3021>:
    312c:	e3a00006 	mov	r0, #6

00003130 <l3022>:
    3130:	310d30b0 	strhcc	r3, [sp, -r0]

00003134 <l3023>:
    3134:	ea000003 	b	3148 <l3028>

00003138 <l3024>:
    3138:	e280105c 	add	r1, r0, #92	; 0x5c

0000313c <l3025>:
    313c:	006e8067 	rsbeq	r8, lr, r7, rrx

00003140 <l3026>:
    3140:	e1c1200e 	bic	r2, r1, lr

00003144 <l3027>:
    3144:	ea000000 	b	314c <l3029>

00003148 <l3028>:
    3148:	eafffffb 	b	313c <l3025>

0000314c <l3029>:
    314c:	e8bd1fe6 	pop	{r1, r2, r5, r6, r7, r8, r9, sl, fp, ip}

00003150 <l3030>:
    3150:	91c83434 	bicls	r3, r8, r4, lsr r4

00003154 <l3031>:
    3154:	90732f87 	rsbsls	r2, r3, r7, lsl #31

00003158 <l3032>:
    3158:	0a000003 	beq	316c <l3037>

0000315c <l3033>:
    315c:	a205682a 	andge	r6, r5, #2752512	; 0x2a0000

00003160 <l3034>:
    3160:	e1b0e275 	rors	lr, r5, r2

00003164 <l3035>:
    3164:	206a5067 	rsbcs	r5, sl, r7, rrx

00003168 <l3036>:
    3168:	e22e04c2 	eor	r0, lr, #-1040187392	; 0xc2000000

0000316c <l3037>:
    316c:	32a1cbae 	adccc	ip, r1, #178176	; 0x2b800

00003170 <l3038>:
    3170:	e59fa000 	ldr	sl, [pc]	; 3178 <l3040>

00003174 <l3039>:
    3174:	ea000000 	b	317c <l3041>

00003178 <l3040>:
    3178:	000fffa8 	.word	0x000fffa8

0000317c <l3041>:
    317c:	c14a109b 	swpbgt	r1, fp, [sl]

00003180 <l3042>:
    3180:	e154061b 	cmp	r4, fp, lsl r6

00003184 <l3043>:
    3184:	81c79000 	bichi	r9, r7, r0

00003188 <l3044>:
    3188:	0221b3ff 	eoreq	fp, r1, #-67108861	; 0xfc000003

0000318c <l3045>:
    318c:	e3a0c034 	mov	ip, #52	; 0x34

00003190 <l3046>:
    3190:	911d80dc 	ldrsbls	r8, [sp, -ip]

00003194 <l3047>:
    3194:	613b0a8b 	teqvs	fp, fp, lsl #21

00003198 <l3048>:
    3198:	e18c2009 	orr	r2, ip, r9

0000319c <l3049>:
    319c:	e3a0403c 	mov	r4, #60	; 0x3c

000031a0 <l3050>:
    31a0:	575d8004 	ldrbpl	r8, [sp, -r4]

000031a4 <l3051>:
    31a4:	e09c4fc6 	adds	r4, ip, r6, asr #31

000031a8 <l3052>:
    31a8:	e02ea009 	eor	sl, lr, r9

000031ac <l3053>:
    31ac:	2010e43a 	andscs	lr, r0, sl, lsr r4

000031b0 <l3054>:
    31b0:	71120005 	tstvc	r2, r5

000031b4 <l3055>:
    31b4:	5051c062 	subspl	ip, r1, r2, rrx

000031b8 <l3056>:
    31b8:	e14d82b8 	strh	r8, [sp, #-40]	; 0xffffffd8

000031bc <l3057>:
    31bc:	e55d8019 	ldrb	r8, [sp, #-25]

000031c0 <l3058>:
    31c0:	e3a0c002 	mov	ip, #2

000031c4 <l3059>:
    31c4:	e10d10bc 	strh	r1, [sp, -ip]

000031c8 <l3060>:
    31c8:	513404a0 	teqpl	r4, r0, lsr #9

000031cc <l3061>:
    31cc:	e193b112 	orrs	fp, r3, r2, lsl r1

000031d0 <l3062>:
    31d0:	e3a01023 	mov	r1, #35	; 0x23

000031d4 <l3063>:
    31d4:	b74d5001 	strblt	r5, [sp, -r1]

000031d8 <l3064>:
    31d8:	615d32fa 	ldrshvs	r3, [sp, #-42]	; 0xffffffd6

000031dc <l3065>:
    31dc:	e1b02278 	rors	r2, r8, r2

000031e0 <l3066>:
    31e0:	33993bc9 	orrscc	r3, r9, #205824	; 0x32400

000031e4 <l3067>:
    31e4:	e2136502 	ands	r6, r3, #8388608	; 0x800000

000031e8 <l3068>:
    31e8:	e0a2700c 	adc	r7, r2, ip

000031ec <l3069>:
    31ec:	e3a0302f 	mov	r3, #47	; 0x2f

000031f0 <l3070>:
    31f0:	675db003 	ldrbvs	fp, [sp, -r3]

000031f4 <l3071>:
    31f4:	21110066 	tstcs	r1, r6, rrx

000031f8 <l3072>:
    31f8:	e1de07c2 	bics	r0, lr, r2, asr #15

000031fc <l3073>:
    31fc:	e59f1000 	ldr	r1, [pc]	; 3204 <l3075>

00003200 <l3074>:
    3200:	ea000000 	b	3208 <l3076>

00003204 <l3075>:
    3204:	000fffc0 	.word	0x000fffc0

00003208 <l3076>:
    3208:	61019092 	swpvs	r9, r2, [r1]

0000320c <l3077>:
    320c:	7a000003 	bvc	3220 <l3082>

00003210 <l3078>:
    3210:	e2801082 	add	r1, r0, #130	; 0x82

00003214 <l3079>:
    3214:	51e0a91a 	mvnpl	sl, sl, lsl r9

00003218 <l3080>:
    3218:	405ea945 	subsmi	sl, lr, r5, asr #18

0000321c <l3081>:
    321c:	ea000000 	b	3224 <l3083>

00003220 <l3082>:
    3220:	eafffffb 	b	3214 <l3079>

00003224 <l3083>:
    3224:	11c1b31e 	bicne	fp, r1, lr, lsl r3

00003228 <l3084>:
    3228:	03cf5555 	biceq	r5, pc, #356515840	; 0x15400000

0000322c <l3085>:
    322c:	e3a0a045 	mov	sl, #69	; 0x45

00003230 <l3086>:
    3230:	311d30da 	ldrsbcc	r3, [sp, -sl]

00003234 <l3087>:
    3234:	e070300b 	rsbs	r3, r0, fp

00003238 <l3088>:
    3238:	a1570068 	cmpge	r7, r8, rrx

0000323c <l3089>:
    323c:	e51d203c 	ldr	r2, [sp, #-60]	; 0x3c

00003240 <l3090>:
    3240:	537e030f 	cmnpl	lr, #1006632960	; 0x3c000000

00003244 <l3091>:
    3244:	e0c12001 	sbc	r2, r1, r1

00003248 <l3092>:
    3248:	53980959 	orrspl	r0, r8, #1458176	; 0x164000

0000324c <l3093>:
    324c:	e0bab009 	adcs	fp, sl, r9

00003250 <l3094>:
    3250:	e155031a 	cmp	r5, sl, lsl r3

00003254 <l3095>:
    3254:	e40da044 	str	sl, [sp], #-68	; 0x44

00003258 <l3096>:
    3258:	7084000a 	addvc	r0, r4, sl

0000325c <l3097>:
    325c:	e1360008 	teq	r6, r8

00003260 <l3098>:
    3260:	ba000000 	blt	3268 <l3100>

00003264 <l3099>:
    3264:	e2cf5dab 	sbc	r5, pc, #10944	; 0x2ac0

00003268 <l3100>:
    3268:	e0b86000 	adcs	r6, r8, r0

0000326c <l3101>:
    326c:	e59f8000 	ldr	r8, [pc]	; 3274 <l3103>

00003270 <l3102>:
    3270:	ea000000 	b	3278 <l3104>

00003274 <l3103>:
    3274:	000fffd0 	.word	0x000fffd0

00003278 <l3104>:
    3278:	8108e090 	swphi	lr, r0, [r8]

0000327c <l3105>:
    327c:	e9bd1f22 	ldmib	sp!, {r1, r5, r8, r9, sl, fp, ip}

00003280 <l3106>:
    3280:	c1cd81b4 	strhgt	r8, [sp, #20]

00003284 <l3107>:
    3284:	31dd72b6 	ldrhcc	r7, [sp, #38]	; 0x26

00003288 <l3108>:
    3288:	e1d0900f 	bics	r9, r0, pc

0000328c <l3109>:
    328c:	e55d701b 	ldrb	r7, [sp, #-27]

00003290 <l3110>:
    3290:	ea000008 	b	32b8 <l3120>

00003294 <l3111>:
    3294:	e1520413 	cmp	r2, r3, lsl r4

00003298 <l3112>:
    3298:	53520e1d 	cmppl	r2, #464	; 0x1d0

0000329c <l3113>:
    329c:	a04050c2 	subge	r5, r0, r2, asr #1

000032a0 <l3114>:
    32a0:	e0dac001 	sbcs	ip, sl, r1

000032a4 <l3115>:
    32a4:	e37603a9 	cmn	r6, #-1543503870	; 0xa4000002

000032a8 <l3116>:
    32a8:	61300f6e 	teqvs	r0, lr, ror #30

000032ac <l3117>:
    32ac:	21da935a 	bicscs	r9, sl, sl, asr r3

000032b0 <l3118>:
    32b0:	51b08014 	lslspl	r8, r4, r0

000032b4 <l3119>:
    32b4:	e13b0e34 	teq	fp, r4, lsr lr

000032b8 <l3120>:
    32b8:	e00be064 	and	lr, fp, r4, rrx

000032bc <l3121>:
    32bc:	e3a06029 	mov	r6, #41	; 0x29

000032c0 <l3122>:
    32c0:	e19d90d6 	ldrsb	r9, [sp, r6]

000032c4 <l3123>:
    32c4:	30bc2856 	adcscc	r2, ip, r6, asr r8

000032c8 <l3124>:
    32c8:	a2d1041f 	sbcsge	r0, r1, #520093696	; 0x1f000000

000032cc <l3125>:
    32cc:	e0cf9001 	sbc	r9, pc, r1

000032d0 <l3126>:
    32d0:	e0114e8a 	ands	r4, r1, sl, lsl #29

000032d4 <l3127>:
    32d4:	a005400c 	andge	r4, r5, ip

000032d8 <l3128>:
    32d8:	e40db004 	str	fp, [sp], #-4

000032dc <l3129>:
    32dc:	e3a02009 	mov	r2, #9

000032e0 <l3130>:
    32e0:	e7cd9002 	strb	r9, [sp, r2]

000032e4 <l3131>:
    32e4:	50de463e 	sbcspl	r4, lr, lr, lsr r6

000032e8 <l3132>:
    32e8:	e9bd1091 	ldmib	sp!, {r0, r4, r7, ip}

000032ec <l3133>:
    32ec:	e1cd00b0 	strh	r0, [sp]

000032f0 <l3134>:
    32f0:	e1a00000 	nop			; (mov r0, r0)

000032f4 <l3135>:
    32f4:	e06c1060 	rsb	r1, ip, r0, rrx

000032f8 <l3136>:
    32f8:	815d70f6 	ldrshhi	r7, [sp, #-6]

000032fc <l3137>:
    32fc:	e0638d6a 	rsb	r8, r3, sl, ror #26

00003300 <l3138>:
    3300:	d1c49009 	bicle	r9, r4, r9

00003304 <l3139>:
    3304:	ea000000 	b	330c <l3141>

00003308 <l3140>:
    3308:	c20e947f 	andgt	r9, lr, #2130706432	; 0x7f000000

0000330c <l3141>:
    330c:	12cb564d 	sbcne	r5, fp, #80740352	; 0x4d00000

00003310 <l3142>:
    3310:	e1550317 	cmp	r5, r7, lsl r3

00003314 <l3143>:
    3314:	b193400a 	orrslt	r4, r3, sl

00003318 <l3144>:
    3318:	d0211004 	eorle	r1, r1, r4

0000331c <l3145>:
    331c:	e8ad2000 	stmia	sp!, {sp}

00003320 <l3146>:
    3320:	c0b6ae54 	adcsgt	sl, r6, r4, asr lr

00003324 <l3147>:
    3324:	e0611061 	rsb	r1, r1, r1, rrx

00003328 <l3148>:
    3328:	e59f5000 	ldr	r5, [pc]	; 3330 <l3150>

0000332c <l3149>:
    332c:	ea000000 	b	3334 <l3151>

00003330 <l3150>:
    3330:	000fffdc 	.word	0x000fffdc

00003334 <l3151>:
    3334:	5145809e 	swpbpl	r8, lr, [r5]

00003338 <l3152>:
    3338:	e051558a 	subs	r5, r1, sl, lsl #11

0000333c <l3153>:
    333c:	e3a0e00b 	mov	lr, #11

00003340 <l3154>:
    3340:	e7dd400e 	ldrb	r4, [sp, lr]

00003344 <l3155>:
    3344:	e59d500c 	ldr	r5, [sp, #12]

00003348 <l3156>:
    3348:	90723b66 	rsbsls	r3, r2, r6, ror #22

0000334c <l3157>:
    334c:	e29ce009 	adds	lr, ip, #9

00003350 <l3158>:
    3350:	e0472007 	sub	r2, r7, r7

00003354 <l3159>:
    3354:	e59f9000 	ldr	r9, [pc]	; 335c <l3161>

00003358 <l3160>:
    3358:	ea000000 	b	3360 <l3162>

0000335c <l3161>:
    335c:	000fffb8 	.word	0x000fffb8

00003360 <l3162>:
    3360:	d109009e 	swple	r0, lr, [r9]

00003364 <l3163>:
    3364:	e17f0062 	cmn	pc, r2, rrx

00003368 <l3164>:
    3368:	e13908e5 	teq	r9, r5, ror #17

0000336c <l3165>:
    336c:	00d62004 	sbcseq	r2, r6, r4

00003370 <l3166>:
    3370:	70082066 	andvc	r2, r8, r6, rrx

00003374 <l3167>:
    3374:	e3a0c002 	mov	ip, #2

00003378 <l3168>:
    3378:	618da0bc 	strhvs	sl, [sp, ip]

0000337c <l3169>:
    337c:	e3a03014 	mov	r3, #20

00003380 <l3170>:
    3380:	079d5003 	ldreq	r5, [sp, r3]

00003384 <l3171>:
    3384:	1034b005 	eorsne	fp, r4, r5

00003388 <l3172>:
    3388:	c29a1a0f 	addsgt	r1, sl, #61440	; 0xf000

0000338c <l3173>:
    338c:	829aba19 	addshi	fp, sl, #102400	; 0x19000

00003390 <l3174>:
    3390:	30565c74 	subscc	r5, r6, r4, ror ip

00003394 <l3175>:
    3394:	b90d1002 	stmdblt	sp, {r1, ip}

00003398 <l3176>:
    3398:	e9bd4090 	ldmib	sp!, {r4, r7, lr}

0000339c <l3177>:
    339c:	415d61f6 	ldrshmi	r6, [sp, #-22]	; 0xffffffea

000033a0 <l3178>:
    33a0:	e2770202 	rsbs	r0, r7, #536870912	; 0x20000000

000033a4 <l3179>:
    33a4:	e55d401a 	ldrb	r4, [sp, #-26]

000033a8 <l3180>:
    33a8:	e3a02022 	mov	r2, #34	; 0x22

000033ac <l3181>:
    33ac:	511db0d2 	ldrsbpl	fp, [sp, -r2]

000033b0 <l3182>:
    33b0:	a26ae7fa 	rsbge	lr, sl, #65536000	; 0x3e80000

000033b4 <l3183>:
    33b4:	e1160551 	tst	r6, r1, asr r5

000033b8 <l3184>:
    33b8:	81e0900b 	mvnhi	r9, fp

000033bc <l3185>:
    33bc:	e3550887 	cmp	r5, #8847360	; 0x870000

000033c0 <l3186>:
    33c0:	a55de003 	ldrbge	lr, [sp, #-3]

000033c4 <l3187>:
    33c4:	e0716061 	rsbs	r6, r1, r1, rrx

000033c8 <l3188>:
    33c8:	e3540c4f 	cmp	r4, #20224	; 0x4f00

000033cc <l3189>:
    33cc:	d0f0100c 	rscsle	r1, r0, ip

000033d0 <l3190>:
    33d0:	e59f8000 	ldr	r8, [pc]	; 33d8 <l3192>

000033d4 <l3191>:
    33d4:	ea000000 	b	33dc <l3193>

000033d8 <l3192>:
    33d8:	000fffb8 	.word	0x000fffb8

000033dc <l3193>:
    33dc:	21080091 	swpcs	r0, r1, [r8]

000033e0 <l3194>:
    33e0:	e35a0b86 	cmp	sl, #137216	; 0x21800

000033e4 <l3195>:
    33e4:	60a3ec5e 	adcvs	lr, r3, lr, asr ip

000033e8 <l3196>:
    33e8:	e25bb1a5 	subs	fp, fp, #1073741865	; 0x40000029

000033ec <l3197>:
    33ec:	d1f0600a 	mvnsle	r6, sl

000033f0 <l3198>:
    33f0:	81e0e069 	mvnhi	lr, r9, rrx

000033f4 <l3199>:
    33f4:	da000006 	ble	3414 <l3207>

000033f8 <l3200>:
    33f8:	0020225a 	eoreq	r2, r0, sl, asr r2

000033fc <l3201>:
    33fc:	11500069 	cmpne	r0, r9, rrx

00003400 <l3202>:
    3400:	e09f7003 	adds	r7, pc, r3

00003404 <l3203>:
    3404:	627a42af 	rsbsvs	r4, sl, #-268435446	; 0xf000000a

00003408 <l3204>:
    3408:	e099200e 	adds	r2, r9, lr

0000340c <l3205>:
    340c:	e1100d4e 	tst	r0, lr, asr #26

00003410 <l3206>:
    3410:	b0d9a82b 	sbcslt	sl, r9, fp, lsr #16

00003414 <l3207>:
    3414:	02f0304c 	rscseq	r3, r0, #76	; 0x4c

00003418 <l3208>:
    3418:	e110000f 	tst	r0, pc

0000341c <l3209>:
    341c:	a1e03000 	mvnge	r3, r0

00003420 <l3210>:
    3420:	d1e05869 	mvnle	r5, r9, ror #16

00003424 <l3211>:
    3424:	d15d12db 	ldrsble	r1, [sp, #-43]	; 0xffffffd5

00003428 <l3212>:
    3428:	e01b5005 	ands	r5, fp, r5

0000342c <l3213>:
    342c:	e2a135fb 	adc	r3, r1, #1052770304	; 0x3ec00000

00003430 <l3214>:
    3430:	1082600e 	addne	r6, r2, lr

00003434 <l3215>:
    3434:	43a0c637 	movmi	ip, #57671680	; 0x3700000

00003438 <l3216>:
    3438:	80cb8006 	sbchi	r8, fp, r6

0000343c <l3217>:
    343c:	81f0206a 	mvnshi	r2, sl, rrx

00003440 <l3218>:
    3440:	71120067 	tstvc	r2, r7, rrx

00003444 <l3219>:
    3444:	ba000005 	blt	3460 <l3226>

00003448 <l3220>:
    3448:	e13b0001 	teq	fp, r1

0000344c <l3221>:
    344c:	e1100565 	tst	r0, r5, ror #10

00003450 <l3222>:
    3450:	43d418ea 	bicsmi	r1, r4, #15335424	; 0xea0000

00003454 <l3223>:
    3454:	01d263aa 	bicseq	r6, r2, sl, lsr #7

00003458 <l3224>:
    3458:	e17c01c8 	cmn	ip, r8, asr #3

0000345c <l3225>:
    345c:	0136000e 	teqeq	r6, lr

00003460 <l3226>:
    3460:	e1d3ce5e 	bics	ip, r3, lr, asr lr

00003464 <l3227>:
    3464:	e1c6e45e 	bic	lr, r6, lr, asr r4

00003468 <l3228>:
    3468:	e1c89061 	bic	r9, r8, r1, rrx

0000346c <l3229>:
    346c:	e03c0f4b 	eors	r0, ip, fp, asr #30

00003470 <l3230>:
    3470:	c04f8007 	subgt	r8, pc, r7

00003474 <l3231>:
    3474:	e59f9000 	ldr	r9, [pc]	; 347c <l3233>

00003478 <l3232>:
    3478:	ea000000 	b	3480 <l3234>

0000347c <l3233>:
    347c:	000fffc0 	.word	0x000fffc0

00003480 <l3234>:
    3480:	4109a09e 	swpmi	sl, lr, [r9]

00003484 <l3235>:
    3484:	e3a00026 	mov	r0, #38	; 0x26

00003488 <l3236>:
    3488:	e11dc0b0 	ldrh	ip, [sp, -r0]

0000348c <l3237>:
    348c:	b0f8291c 	rscslt	r2, r8, ip, lsl r9

00003490 <l3238>:
    3490:	e0069779 	and	r9, r6, r9, ror r7

00003494 <l3239>:
    3494:	e2ca66e3 	sbc	r6, sl, #238026752	; 0xe300000

00003498 <l3240>:
    3498:	e079ac70 	rsbs	sl, r9, r0, ror ip

0000349c <l3241>:
    349c:	e3a0b007 	mov	fp, #7

000034a0 <l3242>:
    34a0:	e19d70db 	ldrsb	r7, [sp, fp]

000034a4 <l3243>:
    34a4:	e2a0aa13 	adc	sl, r0, #77824	; 0x13000

000034a8 <l3244>:
    34a8:	c198c067 	orrsgt	ip, r8, r7, rrx

000034ac <l3245>:
    34ac:	e59fc000 	ldr	ip, [pc]	; 34b4 <l3247>

000034b0 <l3246>:
    34b0:	ea000000 	b	34b8 <l3248>

000034b4 <l3247>:
    34b4:	000fffd0 	.word	0x000fffd0

000034b8 <l3248>:
    34b8:	914c609e 	swpbls	r6, lr, [ip]

000034bc <l3249>:
    34bc:	e48df004 	str	pc, [sp], #4

000034c0 <l3250>:
    34c0:	314da2ba 	strhcc	sl, [sp, #-42]	; 0xffffffd6

000034c4 <l3251>:
    34c4:	e0d04646 	sbcs	r4, r0, r6, asr #12

000034c8 <l3252>:
    34c8:	1288a196 	addne	sl, r8, #-2147483611	; 0x80000025

000034cc <l3253>:
    34cc:	e2094bab 	and	r4, r9, #175104	; 0x2ac00

000034d0 <l3254>:
    34d0:	e5adc004 	str	ip, [sp, #4]!

000034d4 <l3255>:
    34d4:	e3a04010 	mov	r4, #16

000034d8 <l3256>:
    34d8:	910dc0b4 	strhls	ip, [sp, -r4]

000034dc <l3257>:
    34dc:	e0423119 	sub	r3, r2, r9, lsl r1

000034e0 <l3258>:
    34e0:	ca000002 	bgt	34f0 <l3262>

000034e4 <l3259>:
    34e4:	10ea1f6f 	rscne	r1, sl, pc, ror #30

000034e8 <l3260>:
    34e8:	e182700a 	orr	r7, r2, sl

000034ec <l3261>:
    34ec:	10957003 	addsne	r7, r5, r3

000034f0 <l3262>:
    34f0:	b1320000 	teqlt	r2, r0

000034f4 <l3263>:
    34f4:	e51d0040 	ldr	r0, [sp, #-64]	; 0x40

000034f8 <l3264>:
    34f8:	80213611 	eorhi	r3, r1, r1, lsl r6

000034fc <l3265>:
    34fc:	e3710009 	cmn	r1, #9

00003500 <l3266>:
    3500:	6051b00a 	subsvs	fp, r1, sl

00003504 <l3267>:
    3504:	21550005 	cmpcs	r5, r5

00003508 <l3268>:
    3508:	81710f81 	cmnhi	r1, r1, lsl #31

0000350c <l3269>:
    350c:	70deec20 	sbcsvc	lr, lr, r0, lsr #24

00003510 <l3270>:
    3510:	e59fa000 	ldr	sl, [pc]	; 3518 <l3272>

00003514 <l3271>:
    3514:	ea000000 	b	351c <l3273>

00003518 <l3272>:
    3518:	000fffb4 	.word	0x000fffb4

0000351c <l3273>:
    351c:	114a9095 	swpbne	r9, r5, [sl]

00003520 <l3274>:
    3520:	e1e0106c 	mvn	r1, ip, rrx

00003524 <l3275>:
    3524:	e15d33ba 	ldrh	r3, [sp, #-58]	; 0xffffffc6

00003528 <l3276>:
    3528:	116f7f1a 	clzne	r7, sl

0000352c <l3277>:
    352c:	e15da4d4 	ldrsb	sl, [sp, #-68]	; 0xffffffbc

00003530 <l3278>:
    3530:	b16f2f17 	clzlt	r2, r7

00003534 <l3279>:
    3534:	e1e09e7b 	mvn	r9, fp, ror lr

00003538 <l3280>:
    3538:	30e16064 	rsccc	r6, r1, r4, rrx

0000353c <l3281>:
    353c:	115d22d2 	ldrsbne	r2, [sp, #-34]	; 0xffffffde

00003540 <l3282>:
    3540:	11f0e00e 	mvnsne	lr, lr

00003544 <l3283>:
    3544:	10410279 	subne	r0, r1, r9, ror r2

00003548 <l3284>:
    3548:	315d22d8 	ldrsbcc	r2, [sp, #-40]	; 0xffffffd8

0000354c <l3285>:
    354c:	83c08549 	bichi	r8, r0, #306184192	; 0x12400000

00003550 <l3286>:
    3550:	914d01b4 	strhls	r0, [sp, #-20]	; 0xffffffec

00003554 <l3287>:
    3554:	698d0010 	stmibvs	sp, {r4}

00003558 <l3288>:
    3558:	e058e150 	subs	lr, r8, r0, asr r1

0000355c <l3289>:
    355c:	62bf7343 	adcsvs	r7, pc, #201326593	; 0xc000001

00003560 <l3290>:
    3560:	e52de008 	str	lr, [sp, #-8]!

00003564 <l3291>:
    3564:	e24089c3 	sub	r8, r0, #3194880	; 0x30c000

00003568 <l3292>:
    3568:	92014123 	andls	r4, r1, #-1073741816	; 0xc0000008

0000356c <l3293>:
    356c:	e1150c8a 	tst	r5, sl, lsl #25

00003570 <l3294>:
    3570:	e15db1f8 	ldrsh	fp, [sp, #-24]	; 0xffffffe8

00003574 <l3295>:
    3574:	e15d71b0 	ldrh	r7, [sp, #-16]

00003578 <l3296>:
    3578:	a11a0003 	tstge	sl, r3

0000357c <l3297>:
    357c:	4130006c 	teqmi	r0, ip, rrx

00003580 <l3298>:
    3580:	30e13d27 	rsccc	r3, r1, r7, lsr #26

00003584 <l3299>:
    3584:	e3a0c016 	mov	ip, #22

00003588 <l3300>:
    3588:	910db0bc 	strhls	fp, [sp, -ip]

0000358c <l3301>:
    358c:	e1100318 	tst	r0, r8, lsl r3

00003590 <l3302>:
    3590:	855de01e 	ldrbhi	lr, [sp, #-30]

00003594 <l3303>:
    3594:	e55d8006 	ldrb	r8, [sp, #-6]

00003598 <l3304>:
    3598:	b55de005 	ldrblt	lr, [sp, #-5]

0000359c <l3305>:
    359c:	d1e05003 	mvnle	r5, r3

000035a0 <l3306>:
    35a0:	e3a0e008 	mov	lr, #8

000035a4 <l3307>:
    35a4:	d19d40de 	ldrsble	r4, [sp, lr]

000035a8 <l3308>:
    35a8:	e9bd0820 	ldmib	sp!, {r5, fp}

000035ac <l3309>:
    35ac:	e1f01782 	mvns	r1, r2, lsl #15

000035b0 <l3310>:
    35b0:	e3a04030 	mov	r4, #48	; 0x30

000035b4 <l3311>:
    35b4:	975d6004 	ldrbls	r6, [sp, -r4]

000035b8 <l3312>:
    35b8:	25cd0002 	strbcs	r0, [sp, #2]

000035bc <l3313>:
    35bc:	e50dc038 	str	ip, [sp, #-56]	; 0x38

000035c0 <l3314>:
    35c0:	e3a09008 	mov	r9, #8

000035c4 <l3315>:
    35c4:	e60d9009 	str	r9, [sp], -r9

000035c8 <l3316>:
    35c8:	31790b33 	cmncc	r9, r3, lsr fp

000035cc <l3317>:
    35cc:	b1120000 	tstlt	r2, r0

000035d0 <l3318>:
    35d0:	e1e09850 	mvn	r9, r0, asr r8

000035d4 <l3319>:
    35d4:	7035800e 	eorsvc	r8, r5, lr

000035d8 <l3320>:
    35d8:	e3a0b006 	mov	fp, #6

000035dc <l3321>:
    35dc:	e75d300b 	ldrb	r3, [sp, -fp]

000035e0 <l3322>:
    35e0:	91dd80f6 	ldrshls	r8, [sp, #6]

000035e4 <l3323>:
    35e4:	2221b004 	eorcs	fp, r1, #4

000035e8 <l3324>:
    35e8:	e15d32fa 	ldrsh	r3, [sp, #-42]	; 0xffffffd6

000035ec <l3325>:
    35ec:	e1dd80d4 	ldrsb	r8, [sp, #4]

000035f0 <l3326>:
    35f0:	735f0e66 	cmpvc	pc, #1632	; 0x660

000035f4 <l3327>:
    35f4:	409f2725 	addsmi	r2, pc, r5, lsr #14

000035f8 <l3328>:
    35f8:	ea000003 	b	360c <l3333>

000035fc <l3329>:
    35fc:	e28010e8 	add	r1, r0, #232	; 0xe8

00003600 <l3330>:
    3600:	8131091a 	teqhi	r1, sl, lsl r9

00003604 <l3331>:
    3604:	61e060cb 	mvnvs	r6, fp, asr #1

00003608 <l3332>:
    3608:	ea000000 	b	3610 <l3334>

0000360c <l3333>:
    360c:	eafffffb 	b	3600 <l3330>

00003610 <l3334>:
    3610:	c139007b 	teqgt	r9, fp, ror r0

00003614 <l3335>:
    3614:	016f1f15 	clzeq	r1, r5

00003618 <l3336>:
    3618:	e3b0b919 	movs	fp, #409600	; 0x64000

0000361c <l3337>:
    361c:	e0763867 	rsbs	r3, r6, r7, ror #16

00003620 <l3338>:
    3620:	c16f3f14 	clzgt	r3, r4

00003624 <l3339>:
    3624:	a04e3063 	subge	r3, lr, r3, rrx

00003628 <l3340>:
    3628:	21a0997e 	rorcs	r9, lr, r9

0000362c <l3341>:
    362c:	e075c6e2 	rsbs	ip, r5, r2, ror #13

00003630 <l3342>:
    3630:	b2883aab 	addlt	r3, r8, #700416	; 0xab000

00003634 <l3343>:
    3634:	e59f7000 	ldr	r7, [pc]	; 363c <l3345>

00003638 <l3344>:
    3638:	ea000000 	b	3640 <l3346>

0000363c <l3345>:
    363c:	000fffe4 	.word	0x000fffe4

00003640 <l3346>:
    3640:	e1079099 	swp	r9, r9, [r7]

00003644 <l3347>:
    3644:	e3a0c014 	mov	ip, #20

00003648 <l3348>:
    3648:	070d400c 	streq	r4, [sp, -ip]

0000364c <l3349>:
    364c:	a89d4300 	ldmge	sp, {r8, r9, lr}

00003650 <l3350>:
    3650:	90564a7e 	subsls	r4, r6, lr, ror sl

00003654 <l3351>:
    3654:	e1a00000 	nop			; (mov r0, r0)

00003658 <l3352>:
    3658:	e3a0c036 	mov	ip, #54	; 0x36

0000365c <l3353>:
    365c:	411d10bc 	ldrhmi	r1, [sp, -ip]

00003660 <l3354>:
    3660:	e82d2000 	stmda	sp!, {sp}

00003664 <l3355>:
    3664:	418aa002 	orrmi	sl, sl, r2

00003668 <l3356>:
    3668:	355d1026 	ldrbcc	r1, [sp, #-38]	; 0x26

0000366c <l3357>:
    366c:	e59d5004 	ldr	r5, [sp, #4]

00003670 <l3358>:
    3670:	ea000008 	b	3698 <l3368>

00003674 <l3359>:
    3674:	e38f4739 	orr	r4, pc, #14942208	; 0xe40000

00003678 <l3360>:
    3678:	32569235 	subscc	r9, r6, #1342177283	; 0x50000003

0000367c <l3361>:
    367c:	72fabcba 	rscsvc	fp, sl, #47616	; 0xba00

00003680 <l3362>:
    3680:	c015b448 	andsgt	fp, r5, r8, asr #8

00003684 <l3363>:
    3684:	e1d8006e 	bics	r0, r8, lr, rrx

00003688 <l3364>:
    3688:	024f553f 	subeq	r5, pc, #264241152	; 0xfc00000

0000368c <l3365>:
    368c:	8137090e 	teqhi	r7, lr, lsl #18

00003690 <l3366>:
    3690:	e08c0000 	add	r0, ip, r0

00003694 <l3367>:
    3694:	439eb7d6 	orrsmi	fp, lr, #56098816	; 0x3580000

00003698 <l3368>:
    3698:	30004d03 	andcc	r4, r0, r3, lsl #26

0000369c <l3369>:
    369c:	80010005 	andhi	r0, r1, r5

000036a0 <l3370>:
    36a0:	715908eb 	cmpvc	r9, fp, ror #17

000036a4 <l3371>:
    36a4:	b212b053 	andslt	fp, r2, #83	; 0x53

000036a8 <l3372>:
    36a8:	e59f8000 	ldr	r8, [pc]	; 36b0 <l3374>

000036ac <l3373>:
    36ac:	ea000000 	b	36b4 <l3375>

000036b0 <l3374>:
    36b0:	000fffd0 	.word	0x000fffd0

000036b4 <l3375>:
    36b4:	e1083097 	swp	r3, r7, [r8]

000036b8 <l3376>:
    36b8:	b54d402a 	strblt	r4, [sp, #-42]	; 0x2a

000036bc <l3377>:
    36bc:	40f1b003 	rscsmi	fp, r1, r3

000036c0 <l3378>:
    36c0:	52ea7a26 	rscpl	r7, sl, #155648	; 0x26000

000036c4 <l3379>:
    36c4:	e3a00014 	mov	r0, #20

000036c8 <l3380>:
    36c8:	e71db000 	ldr	fp, [sp, -r0]

000036cc <l3381>:
    36cc:	d0c72de8 	sbcle	r2, r7, r8, ror #27

000036d0 <l3382>:
    36d0:	115d12d6 	ldrsbne	r1, [sp, #-38]	; 0xffffffda

000036d4 <l3383>:
    36d4:	31b04f47 	asrscc	r4, r7, #30

000036d8 <l3384>:
    36d8:	a06f1469 	rsbge	r1, pc, r9, ror #8

000036dc <l3385>:
    36dc:	e3a0c004 	mov	ip, #4

000036e0 <l3386>:
    36e0:	e72d700c 	str	r7, [sp, -ip]!

000036e4 <l3387>:
    36e4:	e1da2008 	bics	r2, sl, r8

000036e8 <l3388>:
    36e8:	aa000004 	bge	3700 <l3394>

000036ec <l3389>:
    36ec:	e28010e4 	add	r1, r0, #228	; 0xe4

000036f0 <l3390>:
    36f0:	e16f5f1c 	clz	r5, ip

000036f4 <l3391>:
    36f4:	e185600c 	orr	r6, r5, ip

000036f8 <l3392>:
    36f8:	60e85061 	rscvs	r5, r8, r1, rrx

000036fc <l3393>:
    36fc:	ea000000 	b	3704 <l3395>

00003700 <l3394>:
    3700:	eafffffa 	b	36f0 <l3390>

00003704 <l3395>:
    3704:	116f7f17 	clzne	r7, r7

00003708 <l3396>:
    3708:	e59fe000 	ldr	lr, [pc]	; 3710 <l3398>

0000370c <l3397>:
    370c:	ea000000 	b	3714 <l3399>

00003710 <l3398>:
    3710:	000fffbc 	.word	0x000fffbc

00003714 <l3399>:
    3714:	d14e2095 	swpble	r2, r5, [lr]

00003718 <l3400>:
    3718:	099d504c 	ldmibeq	sp, {r2, r3, r6, ip, lr}

0000371c <l3401>:
    371c:	e15d10be 	ldrh	r1, [sp, #-14]

00003720 <l3402>:
    3720:	00781b76 	rsbseq	r1, r8, r6, ror fp

00003724 <l3403>:
    3724:	e3a0202c 	mov	r2, #44	; 0x2c

00003728 <l3404>:
    3728:	210d90b2 	strhcs	r9, [sp, -r2]

0000372c <l3405>:
    372c:	e3a08008 	mov	r8, #8

00003730 <l3406>:
    3730:	e79d5008 	ldr	r5, [sp, r8]

00003734 <l3407>:
    3734:	60eba5c8 	rscvs	sl, fp, r8, asr #11

00003738 <l3408>:
    3738:	e16f5f14 	clz	r5, r4

0000373c <l3409>:
    373c:	e059ca5e 	subs	ip, r9, lr, asr sl

00003740 <l3410>:
    3740:	1190b2c9 	orrsne	fp, r0, r9, asr #5

00003744 <l3411>:
    3744:	e3a0a008 	mov	sl, #8

00003748 <l3412>:
    3748:	e7bd800a 	ldr	r8, [sp, sl]!

0000374c <l3413>:
    374c:	715d71b6 	ldrhvc	r7, [sp, #-22]	; 0xffffffea

00003750 <l3414>:
    3750:	215d91db 	ldrsbcs	r9, [sp, #-27]	; 0xffffffe5

00003754 <l3415>:
    3754:	93790467 	cmnls	r9, #1728053248	; 0x67000000

00003758 <l3416>:
    3758:	a1b0400a 	movsge	r4, sl

0000375c <l3417>:
    375c:	e3817707 	orr	r7, r1, #1835008	; 0x1c0000

00003760 <l3418>:
    3760:	e3a0b00c 	mov	fp, #12

00003764 <l3419>:
    3764:	e68db00b 	str	fp, [sp], fp

00003768 <l3420>:
    3768:	30472b12 	subcc	r2, r7, r2, lsl fp

0000376c <l3421>:
    376c:	715d10f6 	ldrshvc	r1, [sp, #-6]

00003770 <l3422>:
    3770:	e097800c 	adds	r8, r7, ip

00003774 <l3423>:
    3774:	e111000c 	tst	r1, ip

00003778 <l3424>:
    3778:	e3a0e03c 	mov	lr, #60	; 0x3c

0000377c <l3425>:
    377c:	970d200e 	strls	r2, [sp, -lr]

00003780 <l3426>:
    3780:	51330d40 	teqpl	r3, r0, asr #26

00003784 <l3427>:
    3784:	ea000008 	b	37ac <l3437>

00003788 <l3428>:
    3788:	e1886069 	orr	r6, r8, r9, rrx

0000378c <l3429>:
    378c:	22c06665 	sbccs	r6, r0, #105906176	; 0x6500000

00003790 <l3430>:
    3790:	a1f04001 	mvnsge	r4, r1

00003794 <l3431>:
    3794:	90d2a063 	sbcsls	sl, r2, r3, rrx

00003798 <l3432>:
    3798:	91e0b03c 	mvnls	fp, ip, lsr r0

0000379c <l3433>:
    379c:	70d0b064 	sbcsvc	fp, r0, r4, rrx

000037a0 <l3434>:
    37a0:	e03fc00a 	eors	ip, pc, sl

000037a4 <l3435>:
    37a4:	61f01b08 	mvnsvs	r1, r8, lsl #22

000037a8 <l3436>:
    37a8:	e1c42061 	bic	r2, r4, r1, rrx

000037ac <l3437>:
    37ac:	116f9f1b 	clzne	r9, fp

000037b0 <l3438>:
    37b0:	415d22dd 	ldrsbmi	r2, [sp, #-45]	; 0xffffffd3

000037b4 <l3439>:
    37b4:	e59f2000 	ldr	r2, [pc]	; 37bc <l3441>

000037b8 <l3440>:
    37b8:	ea000000 	b	37c0 <l3442>

000037bc <l3441>:
    37bc:	000fffe8 	.word	0x000fffe8

000037c0 <l3442>:
    37c0:	9102b09e 	swpls	fp, lr, [r2]

000037c4 <l3443>:
    37c4:	e0c5bda6 	sbc	fp, r5, r6, lsr #27

000037c8 <l3444>:
    37c8:	e0605006 	rsb	r5, r0, r6

000037cc <l3445>:
    37cc:	e3a0201e 	mov	r2, #30

000037d0 <l3446>:
    37d0:	e75de002 	ldrb	lr, [sp, -r2]

000037d4 <l3447>:
    37d4:	e19c4479 	orrs	r4, ip, r9, ror r4

000037d8 <l3448>:
    37d8:	e0e0bae9 	rsc	fp, r0, r9, ror #21

000037dc <l3449>:
    37dc:	e59f8000 	ldr	r8, [pc]	; 37e4 <l3451>

000037e0 <l3450>:
    37e0:	ea000000 	b	37e8 <l3452>

000037e4 <l3451>:
    37e4:	000fffd8 	.word	0x000fffd8

000037e8 <l3452>:
    37e8:	8108b09a 	swphi	fp, sl, [r8]

000037ec <l3453>:
    37ec:	e1a02906 	lsl	r2, r6, #18

000037f0 <l3454>:
    37f0:	e40d6040 	str	r6, [sp], #-64	; 0x40

000037f4 <l3455>:
    37f4:	e1a00000 	nop			; (mov r0, r0)

000037f8 <l3456>:
    37f8:	e14d40b4 	strh	r4, [sp, #-4]

000037fc <l3457>:
    37fc:	e59f5000 	ldr	r5, [pc]	; 3804 <l3459>

00003800 <l3458>:
    3800:	ea000000 	b	3808 <l3460>

00003804 <l3459>:
    3804:	000fffe8 	.word	0x000fffe8

00003808 <l3460>:
    3808:	e1450099 	swpb	r0, r9, [r5]

0000380c <l3461>:
    380c:	e0932008 	adds	r2, r3, r8

00003810 <l3462>:
    3810:	e17c0912 	cmn	ip, r2, lsl r9

00003814 <l3463>:
    3814:	916f2f11 	clzls	r2, r1

00003818 <l3464>:
    3818:	e3a05038 	mov	r5, #56	; 0x38

0000381c <l3465>:
    381c:	e69dc005 	ldr	ip, [sp], r5

00003820 <l3466>:
    3820:	a0457009 	subge	r7, r5, r9

00003824 <l3467>:
    3824:	e065b657 	rsb	fp, r5, r7, asr r6

00003828 <l3468>:
    3828:	e3a07000 	mov	r7, #0

0000382c <l3469>:
    382c:	17cd3007 	strbne	r3, [sp, r7]

00003830 <l3470>:
    3830:	114d51be 	strhne	r5, [sp, #-30]	; 0xffffffe2

00003834 <l3471>:
    3834:	e3a0e008 	mov	lr, #8

00003838 <l3472>:
    3838:	e60dc00e 	str	ip, [sp], -lr

0000383c <l3473>:
    383c:	e3c5ed49 	bic	lr, r5, #4672	; 0x1240

00003840 <l3474>:
    3840:	e110000e 	tst	r0, lr

00003844 <l3475>:
    3844:	d99d5000 	ldmible	sp, {ip, lr}

00003848 <l3476>:
    3848:	e1710004 	cmn	r1, r4

0000384c <l3477>:
    384c:	809babab 	addshi	sl, fp, fp, lsr #23

00003850 <l3478>:
    3850:	e1dde0bc 	ldrh	lr, [sp, #12]

00003854 <l3479>:
    3854:	e33a0815 	teq	sl, #1376256	; 0x150000

00003858 <l3480>:
    3858:	43a02607 	movmi	r2, #7340032	; 0x700000

0000385c <l3481>:
    385c:	e3a0a00f 	mov	sl, #15

00003860 <l3482>:
    3860:	d7dd100a 	ldrble	r1, [sp, sl]

00003864 <l3483>:
    3864:	b3e08481 	mvnlt	r8, #-2130706432	; 0x81000000

00003868 <l3484>:
    3868:	b16fbf1a 	clzlt	fp, sl

0000386c <l3485>:
    386c:	e2f1105e 	rscs	r1, r1, #94	; 0x5e

00003870 <l3486>:
    3870:	e3a04007 	mov	r4, #7

00003874 <l3487>:
    3874:	27cd3004 	strbcs	r3, [sp, r4]

00003878 <l3488>:
    3878:	d0a25c16 	adcle	r5, r2, r6, lsl ip

0000387c <l3489>:
    387c:	e59fe000 	ldr	lr, [pc]	; 3884 <l3491>

00003880 <l3490>:
    3880:	ea000000 	b	3888 <l3492>

00003884 <l3491>:
    3884:	000fffd0 	.word	0x000fffd0

00003888 <l3492>:
    3888:	e14e4091 	swpb	r4, r1, [lr]

0000388c <l3493>:
    388c:	e59f8000 	ldr	r8, [pc]	; 3894 <l3495>

00003890 <l3494>:
    3890:	ea000000 	b	3898 <l3496>

00003894 <l3495>:
    3894:	000fffc8 	.word	0x000fffc8

00003898 <l3496>:
    3898:	e1086093 	swp	r6, r3, [r8]

0000389c <l3497>:
    389c:	e1710671 	cmn	r1, r1, ror r6

000038a0 <l3498>:
    38a0:	b19fb741 	orrslt	fp, pc, r1, asr #14

000038a4 <l3499>:
    38a4:	01859c12 	orreq	r9, r5, r2, lsl ip

000038a8 <l3500>:
    38a8:	e28b6239 	add	r6, fp, #-1879048189	; 0x90000003

000038ac <l3501>:
    38ac:	e3a0a024 	mov	sl, #36	; 0x24

000038b0 <l3502>:
    38b0:	671d500a 	ldrvs	r5, [sp, -sl]

000038b4 <l3503>:
    38b4:	ea000001 	b	38c0 <l3506>

000038b8 <l3504>:
    38b8:	515c0433 	cmppl	ip, r3, lsr r4

000038bc <l3505>:
    38bc:	e0463425 	sub	r3, r6, r5, lsr #8

000038c0 <l3506>:
    38c0:	e18bc97e 	orr	ip, fp, lr, ror r9

000038c4 <l3507>:
    38c4:	b1dd30db 	ldrsblt	r3, [sp, #11]

000038c8 <l3508>:
    38c8:	ea000006 	b	38e8 <l3516>

000038cc <l3509>:
    38cc:	e28010c6 	add	r1, r0, #198	; 0xc6

000038d0 <l3510>:
    38d0:	62fb2d16 	rscsvs	r2, fp, #1408	; 0x580

000038d4 <l3511>:
    38d4:	7007842f 	andvc	r8, r7, pc, lsr #8

000038d8 <l3512>:
    38d8:	502c2e00 	eorpl	r2, ip, r0, lsl #28

000038dc <l3513>:
    38dc:	e2b6162f 	adcs	r1, r6, #49283072	; 0x2f00000

000038e0 <l3514>:
    38e0:	4083e005 	addmi	lr, r3, r5

000038e4 <l3515>:
    38e4:	ea000000 	b	38ec <l3517>

000038e8 <l3516>:
    38e8:	eafffff8 	b	38d0 <l3510>

000038ec <l3517>:
    38ec:	b042b3ce 	sublt	fp, r2, lr, asr #7

000038f0 <l3518>:
    38f0:	61a05c00 	lslvs	r5, r0, #24

000038f4 <l3519>:
    38f4:	ea000004 	b	390c <l3525>

000038f8 <l3520>:
    38f8:	e2801026 	add	r1, r0, #38	; 0x26

000038fc <l3521>:
    38fc:	c2239949 	eorgt	r9, r3, #1196032	; 0x124000

00003900 <l3522>:
    3900:	215c080f 	cmpcs	ip, pc, lsl #16

00003904 <l3523>:
    3904:	e16f7f15 	clz	r7, r5

00003908 <l3524>:
    3908:	ea000000 	b	3910 <l3526>

0000390c <l3525>:
    390c:	eafffffa 	b	38fc <l3521>

00003910 <l3526>:
    3910:	e5bdb000 	ldr	fp, [sp, #0]!

00003914 <l3527>:
    3914:	e1a00000 	nop			; (mov r0, r0)

00003918 <l3528>:
    3918:	e0bf1009 	adcs	r1, pc, r9

0000391c <l3529>:
    391c:	111f04c9 	tstne	pc, r9, asr #9

00003920 <l3530>:
    3920:	70975570 	addsvc	r5, r7, r0, ror r5

00003924 <l3531>:
    3924:	716f0f1a 	clzvc	r0, sl

00003928 <l3532>:
    3928:	b16f3f18 	clzlt	r3, r8

0000392c <l3533>:
    392c:	33cc71ee 	biccc	r7, ip, #-2147483589	; 0x8000003b

00003930 <l3534>:
    3930:	e13f05e4 	teq	pc, r4, ror #11

00003934 <l3535>:
    3934:	d1dd90fe 	ldrshle	r9, [sp, #14]

00003938 <l3536>:
    3938:	e0e05069 	rsc	r5, r0, r9, rrx

0000393c <l3537>:
    393c:	82d3e013 	sbcshi	lr, r3, #19

00003940 <l3538>:
    3940:	033b0077 	teqeq	fp, #119	; 0x77

00003944 <l3539>:
    3944:	d0250233 	eorle	r0, r5, r3, lsr r2

00003948 <l3540>:
    3948:	31120639 	tstcc	r2, r9, lsr r6

0000394c <l3541>:
    394c:	e1170b11 	tst	r7, r1, lsl fp

00003950 <l3542>:
    3950:	e1922903 	orrs	r2, r2, r3, lsl #18

00003954 <l3543>:
    3954:	50f9c159 	rscspl	ip, r9, r9, asr r1

00003958 <l3544>:
    3958:	c0ce5881 	sbcgt	r5, lr, r1, lsl #17

0000395c <l3545>:
    395c:	e20a2336 	and	r2, sl, #-671088640	; 0xd8000000

00003960 <l3546>:
    3960:	502e46a2 	eorpl	r4, lr, r2, lsr #13

00003964 <l3547>:
    3964:	e046a338 	sub	sl, r6, r8, lsr r3

00003968 <l3548>:
    3968:	e1170068 	tst	r7, r8, rrx

0000396c <l3549>:
    396c:	c1330e18 	teqgt	r3, r8, lsl lr

00003970 <l3550>:
    3970:	00da76e0 	sbcseq	r7, sl, r0, ror #13

00003974 <l3551>:
    3974:	a55d4001 	ldrbge	r4, [sp, #-1]

00003978 <l3552>:
    3978:	e3a05020 	mov	r5, #32

0000397c <l3553>:
    397c:	e11d30f5 	ldrsh	r3, [sp, -r5]

00003980 <l3554>:
    3980:	217e0004 	cmncs	lr, r4

00003984 <l3555>:
    3984:	e3a0a00c 	mov	sl, #12

00003988 <l3556>:
    3988:	e73d400a 	ldr	r4, [sp, -sl]!

0000398c <l3557>:
    398c:	e9bd48ca 	ldmib	sp!, {r1, r3, r6, r7, fp, lr}

00003990 <l3558>:
    3990:	4a000005 	bmi	39ac <l3565>

00003994 <l3559>:
    3994:	e280102b 	add	r1, r0, #43	; 0x2b

00003998 <l3560>:
    3998:	e1e0c00f 	mvn	ip, pc

0000399c <l3561>:
    399c:	00ac6e36 	adceq	r6, ip, r6, lsr lr

000039a0 <l3562>:
    39a0:	e1a0e755 	asr	lr, r5, r7

000039a4 <l3563>:
    39a4:	e1f0b961 	mvns	fp, r1, ror #18

000039a8 <l3564>:
    39a8:	ea000000 	b	39b0 <l3566>

000039ac <l3565>:
    39ac:	eafffff9 	b	3998 <l3560>

000039b0 <l3566>:
    39b0:	ea000005 	b	39cc <l3573>

000039b4 <l3567>:
    39b4:	e280102a 	add	r1, r0, #42	; 0x2a

000039b8 <l3568>:
    39b8:	92064d1d 	andls	r4, r6, #1856	; 0x740

000039bc <l3569>:
    39bc:	b205866a 	andlt	r8, r5, #111149056	; 0x6a00000

000039c0 <l3570>:
    39c0:	e0069002 	and	r9, r6, r2

000039c4 <l3571>:
    39c4:	e1c7a003 	bic	sl, r7, r3

000039c8 <l3572>:
    39c8:	ea000000 	b	39d0 <l3574>

000039cc <l3573>:
    39cc:	eafffff9 	b	39b8 <l3568>

000039d0 <l3574>:
    39d0:	70790a35 	rsbsvc	r0, r9, r5, lsr sl

000039d4 <l3575>:
    39d4:	80498006 	subhi	r8, r9, r6

000039d8 <l3576>:
    39d8:	e5bd9004 	ldr	r9, [sp, #4]!

000039dc <l3577>:
    39dc:	e15b0a1b 	cmp	fp, fp, lsl sl

000039e0 <l3578>:
    39e0:	50134067 	andspl	r4, r3, r7, rrx

000039e4 <l3579>:
    39e4:	b384ce35 	orrlt	ip, r4, #848	; 0x350

000039e8 <l3580>:
    39e8:	908f6067 	addls	r6, pc, r7, rrx

000039ec <l3581>:
    39ec:	52264606 	eorpl	r4, r6, #6291456	; 0x600000

000039f0 <l3582>:
    39f0:	e16fef14 	clz	lr, r4

000039f4 <l3583>:
    39f4:	515d10fa 	ldrshpl	r1, [sp, #-10]

000039f8 <l3584>:
    39f8:	e59f2000 	ldr	r2, [pc]	; 3a00 <l3586>

000039fc <l3585>:
    39fc:	ea000000 	b	3a04 <l3587>

00003a00 <l3586>:
    3a00:	000fffd8 	.word	0x000fffd8

00003a04 <l3587>:
    3a04:	e1428093 	swpb	r8, r3, [r2]

00003a08 <l3588>:
    3a08:	e20aa30f 	and	sl, sl, #1006632960	; 0x3c000000

00003a0c <l3589>:
    3a0c:	e83d0c38 	ldmda	sp!, {r3, r4, r5, sl, fp}

00003a10 <l3590>:
    3a10:	e92d4c62 	push	{r1, r5, r6, sl, fp, lr}

00003a14 <l3591>:
    3a14:	3047b215 	subcc	fp, r7, r5, lsl r2

00003a18 <l3592>:
    3a18:	e3a0a028 	mov	sl, #40	; 0x28

00003a1c <l3593>:
    3a1c:	118dc0ba 	strhne	ip, [sp, sl]

00003a20 <l3594>:
    3a20:	e05bee50 	subs	lr, fp, r0, asr lr

00003a24 <l3595>:
    3a24:	c133087a 	teqgt	r3, sl, ror r8

00003a28 <l3596>:
    3a28:	e0c5106b 	sbc	r1, r5, fp, rrx

00003a2c <l3597>:
    3a2c:	30bf600e 	adcscc	r6, pc, lr

00003a30 <l3598>:
    3a30:	c1b0100e 	movsgt	r1, lr

00003a34 <l3599>:
    3a34:	116fef13 	clzne	lr, r3

00003a38 <l3600>:
    3a38:	b3f0ae2b 	mvnslt	sl, #688	; 0x2b0

00003a3c <l3601>:
    3a3c:	e31c0467 	tst	ip, #1728053248	; 0x67000000

00003a40 <l3602>:
    3a40:	5110000e 	tstpl	r0, lr

00003a44 <l3603>:
    3a44:	e01c7545 	ands	r7, ip, r5, asr #10

00003a48 <l3604>:
    3a48:	a04c2d23 	subge	r2, ip, r3, lsr #26

00003a4c <l3605>:
    3a4c:	82e68f47 	rschi	r8, r6, #284	; 0x11c

00003a50 <l3606>:
    3a50:	e3a0600c 	mov	r6, #12

00003a54 <l3607>:
    3a54:	e7cd6006 	strb	r6, [sp, r6]

00003a58 <l3608>:
    3a58:	e3a0b018 	mov	fp, #24

00003a5c <l3609>:
    3a5c:	a7dd800b 	ldrbge	r8, [sp, fp]

00003a60 <l3610>:
    3a60:	e243bf4f 	sub	fp, r3, #316	; 0x13c

00003a64 <l3611>:
    3a64:	e3a03020 	mov	r3, #32

00003a68 <l3612>:
    3a68:	e7ad5003 	str	r5, [sp, r3]!

00003a6c <l3613>:
    3a6c:	e184681a 	orr	r6, r4, sl, lsl r8

00003a70 <l3614>:
    3a70:	40ec6b64 	rscmi	r6, ip, r4, ror #22

00003a74 <l3615>:
    3a74:	90c6cb79 	sbcls	ip, r6, r9, ror fp

00003a78 <l3616>:
    3a78:	e3a06008 	mov	r6, #8

00003a7c <l3617>:
    3a7c:	310dc0b6 	strhcc	ip, [sp, -r6]

00003a80 <l3618>:
    3a80:	411a0003 	tstmi	sl, r3

00003a84 <l3619>:
    3a84:	e52d300c 	str	r3, [sp, #-12]!

00003a88 <l3620>:
    3a88:	e15db1dc 	ldrsb	fp, [sp, #-28]	; 0xffffffe4

00003a8c <l3621>:
    3a8c:	e3a0a01c 	mov	sl, #28

00003a90 <l3622>:
    3a90:	e72dc00a 	str	ip, [sp, -sl]!

00003a94 <l3623>:
    3a94:	a1520b12 	cmpge	r2, r2, lsl fp

00003a98 <l3624>:
    3a98:	e59f8000 	ldr	r8, [pc]	; 3aa0 <l3626>

00003a9c <l3625>:
    3a9c:	ea000000 	b	3aa4 <l3627>

00003aa0 <l3626>:
    3aa0:	000fffe0 	.word	0x000fffe0

00003aa4 <l3627>:
    3aa4:	e1486092 	swpb	r6, r2, [r8]

00003aa8 <l3628>:
    3aa8:	e5bdc028 	ldr	ip, [sp, #40]!	; 0x28

00003aac <l3629>:
    3aac:	e54d6038 	strb	r6, [sp, #-56]	; 0x38

00003ab0 <l3630>:
    3ab0:	d05f700c 	subsle	r7, pc, ip

00003ab4 <l3631>:
    3ab4:	50ce800a 	sbcpl	r8, lr, sl

00003ab8 <l3632>:
    3ab8:	e3a03034 	mov	r3, #52	; 0x34

00003abc <l3633>:
    3abc:	e73d8003 	ldr	r8, [sp, -r3]!

00003ac0 <l3634>:
    3ac0:	e11c000c 	tst	ip, ip

00003ac4 <l3635>:
    3ac4:	d16fef15 	clzle	lr, r5

00003ac8 <l3636>:
    3ac8:	a025e0e6 	eorge	lr, r5, r6, ror #1

00003acc <l3637>:
    3acc:	a110038a 	tstge	r0, sl, lsl #7

00003ad0 <l3638>:
    3ad0:	e3a03026 	mov	r3, #38	; 0x26

00003ad4 <l3639>:
    3ad4:	818d90b3 	strhhi	r9, [sp, r3]

00003ad8 <l3640>:
    3ad8:	e59f6000 	ldr	r6, [pc]	; 3ae0 <l3642>

00003adc <l3641>:
    3adc:	ea000000 	b	3ae4 <l3643>

00003ae0 <l3642>:
    3ae0:	000fffc8 	.word	0x000fffc8

00003ae4 <l3643>:
    3ae4:	e106109b 	swp	r1, fp, [r6]

00003ae8 <l3644>:
    3ae8:	25ddc021 	ldrbcs	ip, [sp, #33]	; 0x21

00003aec <l3645>:
    3aec:	8a000005 	bhi	3b08 <l3652>

00003af0 <l3646>:
    3af0:	e28010ba 	add	r1, r0, #186	; 0xba

00003af4 <l3647>:
    3af4:	e13b0002 	teq	fp, r2

00003af8 <l3648>:
    3af8:	439f3649 	orrsmi	r3, pc, #76546048	; 0x4900000

00003afc <l3649>:
    3afc:	e06ebf82 	rsb	fp, lr, r2, lsl #31

00003b00 <l3650>:
    3b00:	d16f0f10 	clzle	r0, r0

00003b04 <l3651>:
    3b04:	ea000000 	b	3b0c <l3653>

00003b08 <l3652>:
    3b08:	eafffff9 	b	3af4 <l3647>

00003b0c <l3653>:
    3b0c:	816fcf15 	clzhi	ip, r5

00003b10 <l3654>:
    3b10:	e59f9000 	ldr	r9, [pc]	; 3b18 <l3656>

00003b14 <l3655>:
    3b14:	ea000000 	b	3b1c <l3657>

00003b18 <l3656>:
    3b18:	000fffac 	.word	0x000fffac

00003b1c <l3657>:
    3b1c:	0149409e 	swpbeq	r4, lr, [r9]

00003b20 <l3658>:
    3b20:	e3a0c038 	mov	ip, #56	; 0x38

00003b24 <l3659>:
    3b24:	e19dc0bc 	ldrh	ip, [sp, ip]

00003b28 <l3660>:
    3b28:	c04fe001 	subgt	lr, pc, r1

00003b2c <l3661>:
    3b2c:	e1a00000 	nop			; (mov r0, r0)

00003b30 <l3662>:
    3b30:	e3a0c008 	mov	ip, #8

00003b34 <l3663>:
    3b34:	e73dc00c 	ldr	ip, [sp, -ip]!

00003b38 <l3664>:
    3b38:	d1dd30b6 	ldrhle	r3, [sp, #6]

00003b3c <l3665>:
    3b3c:	eaffffff 	b	3b40 <l3666>

00003b40 <l3666>:
    3b40:	b3f06626 	mvnslt	r6, #39845888	; 0x2600000

00003b44 <l3667>:
    3b44:	199d5fb3 	ldmibne	sp, {r0, r1, r4, r5, r7, r8, r9, sl, fp, ip, lr}

00003b48 <l3668>:
    3b48:	71c42627 	bicvc	r2, r4, r7, lsr #12

00003b4c <l3669>:
    3b4c:	e17f0007 	cmn	pc, r7

00003b50 <l3670>:
    3b50:	b5dd5044 	ldrblt	r5, [sp, #68]	; 0x44

00003b54 <l3671>:
    3b54:	e3a0b018 	mov	fp, #24

00003b58 <l3672>:
    3b58:	e18de0bb 	strh	lr, [sp, fp]

00003b5c <l3673>:
    3b5c:	10707410 	rsbsne	r7, r0, r0, lsl r4

00003b60 <l3674>:
    3b60:	ea000007 	b	3b84 <l3683>

00003b64 <l3675>:
    3b64:	e2801049 	add	r1, r0, #73	; 0x49

00003b68 <l3676>:
    3b68:	41710061 	cmnmi	r1, r1, rrx

00003b6c <l3677>:
    3b6c:	41c8e18c 	bicmi	lr, r8, ip, lsl #3

00003b70 <l3678>:
    3b70:	e1b01232 	lsrs	r1, r2, r2

00003b74 <l3679>:
    3b74:	b0e1ce73 	rsclt	ip, r1, r3, ror lr

00003b78 <l3680>:
    3b78:	83a06d72 	movhi	r6, #7296	; 0x1c80

00003b7c <l3681>:
    3b7c:	1388c9db 	orrne	ip, r8, #3588096	; 0x36c000

00003b80 <l3682>:
    3b80:	ea000000 	b	3b88 <l3684>

00003b84 <l3683>:
    3b84:	eafffff7 	b	3b68 <l3676>

00003b88 <l3684>:
    3b88:	e3a0601b 	mov	r6, #27

00003b8c <l3685>:
    3b8c:	219d10d6 	ldrsbcs	r1, [sp, r6]

00003b90 <l3686>:
    3b90:	e0e8b003 	rsc	fp, r8, r3

00003b94 <l3687>:
    3b94:	c0f4ae30 	rscsgt	sl, r4, r0, lsr lr

00003b98 <l3688>:
    3b98:	e8bd080d 	pop	{r0, r2, r3, fp}

00003b9c <l3689>:
    3b9c:	3290035f 	addscc	r0, r0, #2080374785	; 0x7c000001

00003ba0 <l3690>:
    3ba0:	20704002 	rsbscs	r4, r0, r2

00003ba4 <l3691>:
    3ba4:	e3a02007 	mov	r2, #7

00003ba8 <l3692>:
    3ba8:	97cdc002 	strbls	ip, [sp, r2]

00003bac <l3693>:
    3bac:	409a4e56 	addsmi	r4, sl, r6, asr lr

00003bb0 <l3694>:
    3bb0:	e3a0401e 	mov	r4, #30

00003bb4 <l3695>:
    3bb4:	e19d10b4 	ldrh	r1, [sp, r4]

00003bb8 <l3696>:
    3bb8:	e0aa300e 	adc	r3, sl, lr

00003bbc <l3697>:
    3bbc:	e3a0701e 	mov	r7, #30

00003bc0 <l3698>:
    3bc0:	e18d30b7 	strh	r3, [sp, r7]

00003bc4 <l3699>:
    3bc4:	a1a09003 	movge	r9, r3

00003bc8 <l3700>:
    3bc8:	b0881063 	addlt	r1, r8, r3, rrx

00003bcc <l3701>:
    3bcc:	e250a5be 	subs	sl, r0, #796917760	; 0x2f800000

00003bd0 <l3702>:
    3bd0:	d38a6103 	orrle	r6, sl, #-1073741824	; 0xc0000000

00003bd4 <l3703>:
    3bd4:	e59f3000 	ldr	r3, [pc]	; 3bdc <l3705>

00003bd8 <l3704>:
    3bd8:	ea000000 	b	3be0 <l3706>

00003bdc <l3705>:
    3bdc:	000fffe0 	.word	0x000fffe0

00003be0 <l3706>:
    3be0:	e143109a 	swpb	r1, sl, [r3]

00003be4 <l3707>:
    3be4:	2354056a 	cmpcs	r4, #444596224	; 0x1a800000

00003be8 <l3708>:
    3be8:	c0b58850 	adcsgt	r8, r5, r0, asr r8

00003bec <l3709>:
    3bec:	e2ea01af 	rsc	r0, sl, #-1073741781	; 0xc000002b

00003bf0 <l3710>:
    3bf0:	e1a00000 	nop			; (mov r0, r0)

00003bf4 <l3711>:
    3bf4:	e0a7a431 	adc	sl, r7, r1, lsr r4

00003bf8 <l3712>:
    3bf8:	e55d3001 	ldrb	r3, [sp, #-1]

00003bfc <l3713>:
    3bfc:	e3a0602c 	mov	r6, #44	; 0x2c

00003c00 <l3714>:
    3c00:	e7dd1006 	ldrb	r1, [sp, r6]

00003c04 <l3715>:
    3c04:	e59fe000 	ldr	lr, [pc]	; 3c0c <l3717>

00003c08 <l3716>:
    3c08:	ea000000 	b	3c10 <l3718>

00003c0c <l3717>:
    3c0c:	000fffd4 	.word	0x000fffd4

00003c10 <l3718>:
    3c10:	e14ec094 	swpb	ip, r4, [lr]

00003c14 <l3719>:
    3c14:	c39291c2 	orrsgt	r9, r2, #-2147483600	; 0x80000030

00003c18 <l3720>:
    3c18:	10656064 	rsbne	r6, r5, r4, rrx

00003c1c <l3721>:
    3c1c:	22fe61b2 	rscscs	r6, lr, #-2147483604	; 0x8000002c

00003c20 <l3722>:
    3c20:	11a08153 	asrne	r8, r3, r1

00003c24 <l3723>:
    3c24:	e1a00000 	nop			; (mov r0, r0)

00003c28 <l3724>:
    3c28:	800a800b 	andhi	r8, sl, fp

00003c2c <l3725>:
    3c2c:	50beb00c 	adcspl	fp, lr, ip

00003c30 <l3726>:
    3c30:	3240e18d 	subcc	lr, r0, #1073741859	; 0x40000023

00003c34 <l3727>:
    3c34:	e0d8500b 	sbcs	r5, r8, fp

00003c38 <l3728>:
    3c38:	e59f7000 	ldr	r7, [pc]	; 3c40 <l3730>

00003c3c <l3729>:
    3c3c:	ea000000 	b	3c44 <l3731>

00003c40 <l3730>:
    3c40:	000fffa4 	.word	0x000fffa4

00003c44 <l3731>:
    3c44:	e107c09e 	swp	ip, lr, [r7]

00003c48 <l3732>:
    3c48:	e59f0000 	ldr	r0, [pc]	; 3c50 <l3734>

00003c4c <l3733>:
    3c4c:	ea000000 	b	3c54 <l3735>

00003c50 <l3734>:
    3c50:	000fffe4 	.word	0x000fffe4

00003c54 <l3735>:
    3c54:	e140309e 	swpb	r3, lr, [r0]

00003c58 <l3736>:
    3c58:	a09b271e 	addsge	r2, fp, lr, lsl r7

00003c5c <l3737>:
    3c5c:	e9ad0b21 	stmib	sp!, {r0, r5, r8, r9, fp}

00003c60 <l3738>:
    3c60:	e0eb1005 	rsc	r1, fp, r5

00003c64 <l3739>:
    3c64:	e5bd1004 	ldr	r1, [sp, #4]!

00003c68 <l3740>:
    3c68:	e3a0b025 	mov	fp, #37	; 0x25

00003c6c <l3741>:
    3c6c:	811d90db 	ldrsbhi	r9, [sp, -fp]

00003c70 <l3742>:
    3c70:	e41d0018 	ldr	r0, [sp], #-24

00003c74 <l3743>:
    3c74:	e3a0c03a 	mov	ip, #58	; 0x3a

00003c78 <l3744>:
    3c78:	519d70dc 	ldrsbpl	r7, [sp, ip]

00003c7c <l3745>:
    3c7c:	b1d3200a 	bicslt	r2, r3, sl

00003c80 <l3746>:
    3c80:	e5bd9030 	ldr	r9, [sp, #48]!	; 0x30

00003c84 <l3747>:
    3c84:	e59f6000 	ldr	r6, [pc]	; 3c8c <l3749>

00003c88 <l3748>:
    3c88:	ea000000 	b	3c90 <l3750>

00003c8c <l3749>:
    3c8c:	000fffd4 	.word	0x000fffd4

00003c90 <l3750>:
    3c90:	6146e09a 	swpbvs	lr, sl, [r6]

00003c94 <l3751>:
    3c94:	e2953014 	adds	r3, r5, #20

00003c98 <l3752>:
    3c98:	e3a0c01c 	mov	ip, #28

00003c9c <l3753>:
    3c9c:	e11d20dc 	ldrsb	r2, [sp, -ip]

00003ca0 <l3754>:
    3ca0:	ea000003 	b	3cb4 <l3759>

00003ca4 <l3755>:
    3ca4:	e280108c 	add	r1, r0, #140	; 0x8c

00003ca8 <l3756>:
    3ca8:	61de4688 	bicsvs	r4, lr, r8, lsl #13

00003cac <l3757>:
    3cac:	315e086c 	cmpcc	lr, ip, ror #16

00003cb0 <l3758>:
    3cb0:	ea000000 	b	3cb8 <l3760>

00003cb4 <l3759>:
    3cb4:	eafffffb 	b	3ca8 <l3756>

00003cb8 <l3760>:
    3cb8:	1117000b 	tstne	r7, fp

00003cbc <l3761>:
    3cbc:	a3b06935 	movsge	r6, #868352	; 0xd4000

00003cc0 <l3762>:
    3cc0:	e1e03002 	mvn	r3, r2

00003cc4 <l3763>:
    3cc4:	e1a00000 	nop			; (mov r0, r0)

00003cc8 <l3764>:
    3cc8:	e151000c 	cmp	r1, ip

00003ccc <l3765>:
    3ccc:	30346002 	eorscc	r6, r4, r2

00003cd0 <l3766>:
    3cd0:	4a000002 	bmi	3ce0 <l3770>

00003cd4 <l3767>:
    3cd4:	e01b4663 	ands	r4, fp, r3, ror #12

00003cd8 <l3768>:
    3cd8:	e0a61425 	adc	r1, r6, r5, lsr #8

00003cdc <l3769>:
    3cdc:	e152000b 	cmp	r2, fp

00003ce0 <l3770>:
    3ce0:	e37e0912 	cmn	lr, #294912	; 0x48000

00003ce4 <l3771>:
    3ce4:	00605fe9 	rsbeq	r5, r0, r9, ror #31

00003ce8 <l3772>:
    3ce8:	515d21d2 	ldrsbpl	r2, [sp, #-18]	; 0xffffffee

00003cec <l3773>:
    3cec:	4a000006 	bmi	3d0c <l3781>

00003cf0 <l3774>:
    3cf0:	e28010f5 	add	r1, r0, #245	; 0xf5

00003cf4 <l3775>:
    3cf4:	e084a353 	add	sl, r4, r3, asr r3

00003cf8 <l3776>:
    3cf8:	e065bec5 	rsb	fp, r5, r5, asr #29

00003cfc <l3777>:
    3cfc:	c0fa4415 	rscsgt	r4, sl, r5, lsl r4

00003d00 <l3778>:
    3d00:	e150005a 	cmp	r0, sl, asr r0

00003d04 <l3779>:
    3d04:	b0b5896e 	adcslt	r8, r5, lr, ror #18

00003d08 <l3780>:
    3d08:	ea000000 	b	3d10 <l3782>

00003d0c <l3781>:
    3d0c:	eafffff8 	b	3cf4 <l3775>

00003d10 <l3782>:
    3d10:	211508c1 	tstcs	r5, r1, asr #17

00003d14 <l3783>:
    3d14:	e3a0c008 	mov	ip, #8

00003d18 <l3784>:
    3d18:	410d70bc 	strhmi	r7, [sp, -ip]

00003d1c <l3785>:
    3d1c:	e59f2000 	ldr	r2, [pc]	; 3d24 <l3787>

00003d20 <l3786>:
    3d20:	ea000000 	b	3d28 <l3788>

00003d24 <l3787>:
    3d24:	000fffc0 	.word	0x000fffc0

00003d28 <l3788>:
    3d28:	e1028093 	swp	r8, r3, [r2]

00003d2c <l3789>:
    3d2c:	21160276 	tstcs	r6, r6, ror r2

00003d30 <l3790>:
    3d30:	12036f5b 	andne	r6, r3, #364	; 0x16c

00003d34 <l3791>:
    3d34:	1110006e 	tstne	r0, lr, rrx

00003d38 <l3792>:
    3d38:	e0ebb931 	rsc	fp, fp, r1, lsr r9

00003d3c <l3793>:
    3d3c:	e3a05020 	mov	r5, #32

00003d40 <l3794>:
    3d40:	e61d0005 	ldr	r0, [sp], -r5

00003d44 <l3795>:
    3d44:	b1730060 	cmnlt	r3, r0, rrx

00003d48 <l3796>:
    3d48:	813c0065 	teqhi	ip, r5, rrx

00003d4c <l3797>:
    3d4c:	e3a03000 	mov	r3, #0

00003d50 <l3798>:
    3d50:	e69d3003 	ldr	r3, [sp], r3

00003d54 <l3799>:
    3d54:	c11f0923 	tstgt	pc, r3, lsr #18

00003d58 <l3800>:
    3d58:	e59f0000 	ldr	r0, [pc]	; 3d60 <l3802>

00003d5c <l3801>:
    3d5c:	ea000000 	b	3d64 <l3803>

00003d60 <l3802>:
    3d60:	000fffb4 	.word	0x000fffb4

00003d64 <l3803>:
    3d64:	1100b094 	swpne	fp, r4, [r0]

00003d68 <l3804>:
    3d68:	51dd70fe 	ldrshpl	r7, [sp, #14]

00003d6c <l3805>:
    3d6c:	e3a0200f 	mov	r2, #15

00003d70 <l3806>:
    3d70:	111d30d2 	ldrsbne	r3, [sp, -r2]

00003d74 <l3807>:
    3d74:	725f0f99 	subsvc	r0, pc, #612	; 0x264

00003d78 <l3808>:
    3d78:	51cd61b0 	strhpl	r6, [sp, #16]

00003d7c <l3809>:
    3d7c:	62625d21 	rsbvs	r5, r2, #2112	; 0x840

00003d80 <l3810>:
    3d80:	c2ffa029 	rscsgt	sl, pc, #41	; 0x29

00003d84 <l3811>:
    3d84:	e3a0800c 	mov	r8, #12

00003d88 <l3812>:
    3d88:	818d70b8 	strhhi	r7, [sp, r8]

00003d8c <l3813>:
    3d8c:	8a000008 	bhi	3db4 <l3823>

00003d90 <l3814>:
    3d90:	909ca06c 	addsls	sl, ip, ip, rrx

00003d94 <l3815>:
    3d94:	e0f577e7 	rscs	r7, r5, r7, ror #15

00003d98 <l3816>:
    3d98:	e3170b0d 	tst	r7, #13312	; 0x3400

00003d9c <l3817>:
    3d9c:	e299cb66 	adds	ip, r9, #104448	; 0x19800

00003da0 <l3818>:
    3da0:	c1db1b71 	bicsgt	r1, fp, r1, ror fp

00003da4 <l3819>:
    3da4:	80414ac9 	subhi	r4, r1, r9, asr #21

00003da8 <l3820>:
    3da8:	e25bc52f 	subs	ip, fp, #197132288	; 0xbc00000

00003dac <l3821>:
    3dac:	607f9526 	rsbsvs	r9, pc, r6, lsr #10

00003db0 <l3822>:
    3db0:	b134047a 	teqlt	r4, sl, ror r4

00003db4 <l3823>:
    3db4:	a042e00f 	subge	lr, r2, pc

00003db8 <l3824>:
    3db8:	e020a007 	eor	sl, r0, r7

00003dbc <l3825>:
    3dbc:	e9bd13d6 	ldmib	sp!, {r1, r2, r4, r6, r7, r8, r9, ip}

00003dc0 <l3826>:
    3dc0:	e59f2000 	ldr	r2, [pc]	; 3dc8 <l3828>

00003dc4 <l3827>:
    3dc4:	ea000000 	b	3dcc <l3829>

00003dc8 <l3828>:
    3dc8:	000fffc0 	.word	0x000fffc0

00003dcc <l3829>:
    3dcc:	e142909c 	swpb	r9, ip, [r2]

00003dd0 <l3830>:
    3dd0:	e04a58ea 	sub	r5, sl, sl, ror #17

00003dd4 <l3831>:
    3dd4:	e1ddb0ba 	ldrh	fp, [sp, #10]

00003dd8 <l3832>:
    3dd8:	21a08002 	movcs	r8, r2

00003ddc <l3833>:
    3ddc:	53570802 	cmppl	r7, #131072	; 0x20000

00003de0 <l3834>:
    3de0:	415d62b0 	ldrhmi	r6, [sp, #-32]	; 0xffffffe0

00003de4 <l3835>:
    3de4:	e99d0060 	ldmib	sp, {r5, r6}

00003de8 <l3836>:
    3de8:	a05a9001 	subsge	r9, sl, r1

00003dec <l3837>:
    3dec:	5352067b 	cmppl	r2, #128974848	; 0x7b00000

00003df0 <l3838>:
    3df0:	d07c3005 	rsbsle	r3, ip, r5

00003df4 <l3839>:
    3df4:	e03ee007 	eors	lr, lr, r7

00003df8 <l3840>:
    3df8:	d1b07758 	asrsle	r7, r8, r7

00003dfc <l3841>:
    3dfc:	c1973b59 	orrsgt	r3, r7, r9, asr fp

00003e00 <l3842>:
    3e00:	e82d6000 	stmda	sp!, {sp, lr}

00003e04 <l3843>:
    3e04:	10aa891e 	adcne	r8, sl, lr, lsl r9

00003e08 <l3844>:
    3e08:	d373078e 	cmnle	r3, #37224448	; 0x2380000

00003e0c <l3845>:
    3e0c:	e3a07024 	mov	r7, #36	; 0x24

00003e10 <l3846>:
    3e10:	e11d10f7 	ldrsh	r1, [sp, -r7]

00003e14 <l3847>:
    3e14:	617c0065 	cmnvs	ip, r5, rrx

00003e18 <l3848>:
    3e18:	e14d90b4 	strh	r9, [sp, #-4]

00003e1c <l3849>:
    3e1c:	254d6033 	strbcs	r6, [sp, #-51]	; 0x33

00003e20 <l3850>:
    3e20:	154d800c 	strbne	r8, [sp, #-12]

00003e24 <l3851>:
    3e24:	40b3cde0 	adcsmi	ip, r3, r0, ror #27

00003e28 <l3852>:
    3e28:	e59f9000 	ldr	r9, [pc]	; 3e30 <l3854>

00003e2c <l3853>:
    3e2c:	ea000000 	b	3e34 <l3855>

00003e30 <l3854>:
    3e30:	000fffe8 	.word	0x000fffe8

00003e34 <l3855>:
    3e34:	21094095 	swpcs	r4, r5, [r9]

00003e38 <l3856>:
    3e38:	616f3f12 	clzvs	r3, r2

00003e3c <l3857>:
    3e3c:	75dd100c 	ldrbvc	r1, [sp, #12]

00003e40 <l3858>:
    3e40:	c1a07001 	movgt	r7, r1

00003e44 <l3859>:
    3e44:	e3a0a038 	mov	sl, #56	; 0x38

00003e48 <l3860>:
    3e48:	e73d800a 	ldr	r8, [sp, -sl]!

00003e4c <l3861>:
    3e4c:	11da0001 	bicsne	r0, sl, r1

00003e50 <l3862>:
    3e50:	23f030d4 	mvnscs	r3, #212	; 0xd4

00003e54 <l3863>:
    3e54:	e0041c5c 	and	r1, r4, ip, asr ip

00003e58 <l3864>:
    3e58:	e3a0e024 	mov	lr, #36	; 0x24

00003e5c <l3865>:
    3e5c:	d19d50fe 	ldrshle	r5, [sp, lr]

00003e60 <l3866>:
    3e60:	e029a804 	eor	sl, r9, r4, lsl #16

00003e64 <l3867>:
    3e64:	71140005 	tstvc	r4, r5

00003e68 <l3868>:
    3e68:	80ffbee8 	rscshi	fp, pc, r8, ror #29

00003e6c <l3869>:
    3e6c:	e9bd4aa7 	ldmib	sp!, {r0, r1, r2, r5, r7, r9, fp, lr}

00003e70 <l3870>:
    3e70:	e026706f 	eor	r7, r6, pc, rrx

00003e74 <l3871>:
    3e74:	21dd60fe 	ldrshcs	r6, [sp, #14]

00003e78 <l3872>:
    3e78:	a00ee00c 	andge	lr, lr, ip

00003e7c <l3873>:
    3e7c:	c16f1f15 	clzgt	r1, r5

00003e80 <l3874>:
    3e80:	e3a0700a 	mov	r7, #10

00003e84 <l3875>:
    3e84:	17dd4007 	ldrbne	r4, [sp, r7]

00003e88 <l3876>:
    3e88:	537e0369 	cmnpl	lr, #-1543503871	; 0xa4000001

00003e8c <l3877>:
    3e8c:	c0a193c6 	adcgt	r9, r1, r6, asr #7

00003e90 <l3878>:
    3e90:	e82d0908 	stmda	sp!, {r3, r8, fp}

00003e94 <l3879>:
    3e94:	e59f9000 	ldr	r9, [pc]	; 3e9c <l3881>

00003e98 <l3880>:
    3e98:	ea000000 	b	3ea0 <l3882>

00003e9c <l3881>:
    3e9c:	000fffd0 	.word	0x000fffd0

00003ea0 <l3882>:
    3ea0:	a109309c 	swpge	r3, ip, [r9]

00003ea4 <l3883>:
    3ea4:	e3a06008 	mov	r6, #8

00003ea8 <l3884>:
    3ea8:	e7bd4006 	ldr	r4, [sp, r6]!

00003eac <l3885>:
    3eac:	e3a00025 	mov	r0, #37	; 0x25

00003eb0 <l3886>:
    3eb0:	e7cda000 	strb	sl, [sp, r0]

00003eb4 <l3887>:
    3eb4:	e03c900a 	eors	r9, ip, sl

00003eb8 <l3888>:
    3eb8:	e1390756 	teq	r9, r6, asr r7

00003ebc <l3889>:
    3ebc:	52f72b21 	rscspl	r2, r7, #33792	; 0x8400

00003ec0 <l3890>:
    3ec0:	e0422002 	sub	r2, r2, r2

00003ec4 <l3891>:
    3ec4:	e16f6f17 	clz	r6, r7

00003ec8 <l3892>:
    3ec8:	e1100005 	tst	r0, r5

00003ecc <l3893>:
    3ecc:	e1c1545e 	bic	r5, r1, lr, asr r4

00003ed0 <l3894>:
    3ed0:	017a08a9 	cmneq	sl, r9, lsr #17

00003ed4 <l3895>:
    3ed4:	e2512e9f 	subs	r2, r1, #2544	; 0x9f0

00003ed8 <l3896>:
    3ed8:	7204c147 	andvc	ip, r4, #-1073741807	; 0xc0000011

00003edc <l3897>:
    3edc:	e3a0c014 	mov	ip, #20

00003ee0 <l3898>:
    3ee0:	e19dc0bc 	ldrh	ip, [sp, ip]

00003ee4 <l3899>:
    3ee4:	721ec9e5 	andsvc	ip, lr, #3751936	; 0x394000

00003ee8 <l3900>:
    3ee8:	30537004 	subscc	r7, r3, r4

00003eec <l3901>:
    3eec:	22cc2a31 	sbccs	r2, ip, #200704	; 0x31000

00003ef0 <l3902>:
    3ef0:	40fc5938 	rscsmi	r5, ip, r8, lsr r9

00003ef4 <l3903>:
    3ef4:	e59f3000 	ldr	r3, [pc]	; 3efc <l3905>

00003ef8 <l3904>:
    3ef8:	ea000000 	b	3f00 <l3906>

00003efc <l3905>:
    3efc:	000fffd0 	.word	0x000fffd0

00003f00 <l3906>:
    3f00:	b1438095 	swpblt	r8, r5, [r3]

00003f04 <l3907>:
    3f04:	909b600a 	addsls	r6, fp, sl

00003f08 <l3908>:
    3f08:	e130067c 	teq	r0, ip, ror r6

00003f0c <l3909>:
    3f0c:	416f7f10 	clzmi	r7, r0

00003f10 <l3910>:
    3f10:	e3a0e024 	mov	lr, #36	; 0x24

00003f14 <l3911>:
    3f14:	e7dde00e 	ldrb	lr, [sp, lr]

00003f18 <l3912>:
    3f18:	70f922c8 	rscsvc	r2, r9, r8, asr #5

00003f1c <l3913>:
    3f1c:	e1d3912a 	bics	r9, r3, sl, lsr #2

00003f20 <l3914>:
    3f20:	e1dda0d5 	ldrsb	sl, [sp, #5]

00003f24 <l3915>:
    3f24:	719fa00f 	orrsvc	sl, pc, pc

00003f28 <l3916>:
    3f28:	901e0de0 	andsls	r0, lr, r0, ror #27

00003f2c <l3917>:
    3f2c:	e3a0701c 	mov	r7, #28

00003f30 <l3918>:
    3f30:	c7cd3007 	strbgt	r3, [sp, r7]

00003f34 <l3919>:
    3f34:	e82d9282 	stmda	sp!, {r1, r7, r9, ip, pc}

00003f38 <l3920>:
    3f38:	b31e0baf 	tstlt	lr, #179200	; 0x2bc00

00003f3c <l3921>:
    3f3c:	21e03007 	mvncs	r3, r7

00003f40 <l3922>:
    3f40:	d2c39a42 	sbcle	r9, r3, #270336	; 0x42000

00003f44 <l3923>:
    3f44:	75ddc01d 	ldrbvc	ip, [sp, #29]

00003f48 <l3924>:
    3f48:	811f0067 	tsthi	pc, r7, rrx

00003f4c <l3925>:
    3f4c:	e3a06004 	mov	r6, #4

00003f50 <l3926>:
    3f50:	e68d6006 	str	r6, [sp], r6

00003f54 <l3927>:
    3f54:	307c4359 	rsbscc	r4, ip, r9, asr r3

00003f58 <l3928>:
    3f58:	614d90bc 	strhvs	r9, [sp, #-12]

00003f5c <l3929>:
    3f5c:	20063271 	andcs	r3, r6, r1, ror r2

00003f60 <l3930>:
    3f60:	e3a00010 	mov	r0, #16

00003f64 <l3931>:
    3f64:	e18d60b0 	strh	r6, [sp, r0]

00003f68 <l3932>:
    3f68:	e3f0b003 	mvns	fp, #3

00003f6c <l3933>:
    3f6c:	e3a0c017 	mov	ip, #23

00003f70 <l3934>:
    3f70:	e19de0dc 	ldrsb	lr, [sp, ip]

00003f74 <l3935>:
    3f74:	015d80f2 	ldrsheq	r8, [sp, #-2]

00003f78 <l3936>:
    3f78:	e0b047a3 	adcs	r4, r0, r3, lsr #15

00003f7c <l3937>:
    3f7c:	e1dd23b2 	ldrh	r2, [sp, #50]	; 0x32

00003f80 <l3938>:
    3f80:	02e6278d 	rsceq	r2, r6, #36962304	; 0x2340000

00003f84 <l3939>:
    3f84:	e98d855c 	stmib	sp, {r2, r3, r4, r6, r8, sl, pc}

00003f88 <l3940>:
    3f88:	e2f6882f 	rscs	r8, r6, #3080192	; 0x2f0000

00003f8c <l3941>:
    3f8c:	7a000006 	bvc	3fac <l3949>

00003f90 <l3942>:
    3f90:	b18e1634 	orrlt	r1, lr, r4, lsr r6

00003f94 <l3943>:
    3f94:	40cee714 	sbcmi	lr, lr, r4, lsl r7

00003f98 <l3944>:
    3f98:	805bc00c 	subshi	ip, fp, ip

00003f9c <l3945>:
    3f9c:	e1a05068 	rrx	r5, r8

00003fa0 <l3946>:
    3fa0:	e25f59e2 	subs	r5, pc, #3702784	; 0x388000

00003fa4 <l3947>:
    3fa4:	8154000c 	cmphi	r4, ip

00003fa8 <l3948>:
    3fa8:	e16f7f1a 	clz	r7, sl

00003fac <l3949>:
    3fac:	e0511003 	subs	r1, r1, r3

00003fb0 <l3950>:
    3fb0:	139a590d 	orrsne	r5, sl, #212992	; 0x34000

00003fb4 <l3951>:
    3fb4:	e2895fe6 	add	r5, r9, #920	; 0x398

00003fb8 <l3952>:
    3fb8:	6009806b 	andvs	r8, r9, fp, rrx

00003fbc <l3953>:
    3fbc:	e0b64531 	adcs	r4, r6, r1, lsr r5

00003fc0 <l3954>:
    3fc0:	a1380f65 	teqge	r8, r5, ror #30

00003fc4 <l3955>:
    3fc4:	e21ca111 	ands	sl, ip, #1073741828	; 0x40000004

00003fc8 <l3956>:
    3fc8:	e1d59007 	bics	r9, r5, r7

00003fcc <l3957>:
    3fcc:	23170972 	tstcs	r7, #1867776	; 0x1c8000

00003fd0 <l3958>:
    3fd0:	e59f4000 	ldr	r4, [pc]	; 3fd8 <l3960>

00003fd4 <l3959>:
    3fd4:	ea000000 	b	3fdc <l3961>

00003fd8 <l3960>:
    3fd8:	000fffb4 	.word	0x000fffb4

00003fdc <l3961>:
    3fdc:	e104009e 	swp	r0, lr, [r4]

00003fe0 <l3962>:
    3fe0:	e1a0400f 	mov	r4, pc

00003fe4 <l3963>:
    3fe4:	e49d800c 	ldr	r8, [sp], #12

00003fe8 <l3964>:
    3fe8:	e0298009 	eor	r8, r9, r9

00003fec <l3965>:
    3fec:	d030b00e 	eorsle	fp, r0, lr

00003ff0 <l3966>:
    3ff0:	b59d4010 	ldrlt	r4, [sp, #16]

00003ff4 <l3967>:
    3ff4:	e80d8020 	stmda	sp, {r5, pc}

00003ff8 <l3968>:
    3ff8:	499d5bdf 	ldmibmi	sp, {r0, r1, r2, r3, r4, r6, r7, r8, r9, fp, ip, lr}

00003ffc <l3969>:
    3ffc:	43de137d 	bicsmi	r1, lr, #-201326591	; 0xf4000001

00004000 <l3970>:
    4000:	e15c0378 	cmp	ip, r8, ror r3

00004004 <l3971>:
    4004:	e3a0800d 	mov	r8, #13

00004008 <l3972>:
    4008:	e7cd6008 	strb	r6, [sp, r8]

0000400c <l3973>:
    400c:	e3a08010 	mov	r8, #16

00004010 <l3974>:
    4010:	37cd9008 	strbcc	r9, [sp, r8]

00004014 <l3975>:
    4014:	d33a0392 	teqle	sl, #1207959554	; 0x48000002

00004018 <l3976>:
    4018:	71dd13d1 	ldrsbvc	r1, [sp, #49]	; 0x31

0000401c <l3977>:
    401c:	e3a05030 	mov	r5, #48	; 0x30

00004020 <l3978>:
    4020:	e7cd6005 	strb	r6, [sp, r5]

00004024 <l3979>:
    4024:	e3a05018 	mov	r5, #24

00004028 <l3980>:
    4028:	419d20b5 	ldrhmi	r2, [sp, r5]

0000402c <l3981>:
    402c:	e26fa806 	rsb	sl, pc, #393216	; 0x60000

00004030 <l3982>:
    4030:	51510009 	cmppl	r1, r9

00004034 <l3983>:
    4034:	92e714ca 	rscls	r1, r7, #-905969664	; 0xca000000

00004038 <l3984>:
    4038:	45ddc01f 	ldrbmi	ip, [sp, #31]

0000403c <l3985>:
    403c:	1085b266 	addne	fp, r5, r6, ror #4

00004040 <l3986>:
    4040:	e3a03032 	mov	r3, #50	; 0x32

00004044 <l3987>:
    4044:	e19da0b3 	ldrh	sl, [sp, r3]

00004048 <l3988>:
    4048:	c1570928 	cmpgt	r7, r8, lsr #18

0000404c <l3989>:
    404c:	a03eb066 	eorsge	fp, lr, r6, rrx

00004050 <l3990>:
    4050:	e1a07034 	lsr	r7, r4, r0

00004054 <l3991>:
    4054:	a216043d 	andsge	r0, r6, #1023410176	; 0x3d000000

00004058 <l3992>:
    4058:	71550006 	cmpvc	r5, r6

0000405c <l3993>:
    405c:	e1790062 	cmn	r9, r2, rrx

00004060 <l3994>:
    4060:	e1f0308a 	mvns	r3, sl, lsl #1

00004064 <l3995>:
    4064:	e3a0b00b 	mov	fp, #11

00004068 <l3996>:
    4068:	27dd200b 	ldrbcs	r2, [sp, fp]

0000406c <l3997>:
    406c:	3357058e 	cmpcc	r7, #595591168	; 0x23800000

00004070 <l3998>:
    4070:	929e4d95 	addsls	r4, lr, #9536	; 0x2540

00004074 <l3999>:
    4074:	e1a04003 	mov	r4, r3

00004078 <l4000>:
    4078:	e3a0900b 	mov	r9, #11

0000407c <l4001>:
    407c:	e74d9009 	strb	r9, [sp, -r9]

00004080 <l4002>:
    4080:	a55d1011 	ldrbge	r1, [sp, #-17]

00004084 <l4003>:
    4084:	e2872227 	add	r2, r7, #1879048194	; 0x70000002

00004088 <l4004>:
    4088:	e37c00ae 	cmn	ip, #174	; 0xae

0000408c <l4005>:
    408c:	e8bd0500 	pop	{r8, sl}

00004090 <l4006>:
    4090:	3a000008 	bcc	40b8 <l4016>

00004094 <l4007>:
    4094:	50be1433 	adcspl	r1, lr, r3, lsr r4

00004098 <l4008>:
    4098:	30fe5068 	rscscc	r5, lr, r8, rrx

0000409c <l4009>:
    409c:	205e6318 	subscs	r6, lr, r8, lsl r3

000040a0 <l4010>:
    40a0:	806c74a7 	rsbhi	r7, ip, r7, lsr #9

000040a4 <l4011>:
    40a4:	21a0500b 	movcs	r5, fp

000040a8 <l4012>:
    40a8:	a0129687 	andsge	r9, r2, r7, lsl #13

000040ac <l4013>:
    40ac:	217b0aa3 	cmncs	fp, r3, lsr #21

000040b0 <l4014>:
    40b0:	01720009 	cmneq	r2, r9

000040b4 <l4015>:
    40b4:	30be800c 	adcscc	r8, lr, ip

000040b8 <l4016>:
    40b8:	e01b0067 	ands	r0, fp, r7, rrx

000040bc <l4017>:
    40bc:	e59f0000 	ldr	r0, [pc]	; 40c4 <l4019>

000040c0 <l4018>:
    40c0:	ea000000 	b	40c8 <l4020>

000040c4 <l4019>:
    40c4:	000fffa8 	.word	0x000fffa8

000040c8 <l4020>:
    40c8:	7100a09e 	swpvc	sl, lr, [r0]

000040cc <l4021>:
    40cc:	e3a0c02a 	mov	ip, #42	; 0x2a

000040d0 <l4022>:
    40d0:	e7cd100c 	strb	r1, [sp, ip]

000040d4 <l4023>:
    40d4:	800ea060 	andhi	sl, lr, r0, rrx

000040d8 <l4024>:
    40d8:	e54dc005 	strb	ip, [sp, #-5]

000040dc <l4025>:
    40dc:	e8ad0400 	stmia	sp!, {sl}

000040e0 <l4026>:
    40e0:	e82d4001 	stmda	sp!, {r0, lr}

000040e4 <l4027>:
    40e4:	e0573069 	subs	r3, r7, r9, rrx

000040e8 <l4028>:
    40e8:	e118006b 	tst	r8, fp, rrx

000040ec <l4029>:
    40ec:	90b90009 	adcsls	r0, r9, r9

000040f0 <l4030>:
    40f0:	e59f8000 	ldr	r8, [pc]	; 40f8 <l4032>

000040f4 <l4031>:
    40f4:	ea000000 	b	40fc <l4033>

000040f8 <l4032>:
    40f8:	000fffd0 	.word	0x000fffd0

000040fc <l4033>:
    40fc:	2108b095 	swpcs	fp, r5, [r8]

00004100 <l4034>:
    4100:	e3a0900e 	mov	r9, #14

00004104 <l4035>:
    4104:	618db0b9 	strhvs	fp, [sp, r9]

00004108 <l4036>:
    4108:	e09cc005 	adds	ip, ip, r5

0000410c <l4037>:
    410c:	659d2028 	ldrvs	r2, [sp, #40]	; 0x28

00004110 <l4038>:
    4110:	e59fa000 	ldr	sl, [pc]	; 4118 <l4040>

00004114 <l4039>:
    4114:	ea000000 	b	411c <l4041>

00004118 <l4040>:
    4118:	000fffe8 	.word	0x000fffe8

0000411c <l4041>:
    411c:	110a1090 	swpne	r1, r0, [sl]

00004120 <l4042>:
    4120:	e094e000 	adds	lr, r4, r0

00004124 <l4043>:
    4124:	e59f2000 	ldr	r2, [pc]	; 412c <l4045>

00004128 <l4044>:
    4128:	ea000000 	b	4130 <l4046>

0000412c <l4045>:
    412c:	000fffc0 	.word	0x000fffc0

00004130 <l4046>:
    4130:	91421097 	swpbls	r1, r7, [r2]

00004134 <l4047>:
    4134:	e172000e 	cmn	r2, lr

00004138 <l4048>:
    4138:	e110000b 	tst	r0, fp

0000413c <l4049>:
    413c:	e0b31c39 	adcs	r1, r3, r9, lsr ip

00004140 <l4050>:
    4140:	c0418e65 	subgt	r8, r1, r5, ror #28

00004144 <l4051>:
    4144:	e3a0600c 	mov	r6, #12

00004148 <l4052>:
    4148:	e18d30b6 	strh	r3, [sp, r6]

0000414c <l4053>:
    414c:	25ddc009 	ldrbcs	ip, [sp, #9]

00004150 <l4054>:
    4150:	ea000004 	b	4168 <l4060>

00004154 <l4055>:
    4154:	e28010e6 	add	r1, r0, #230	; 0xe6

00004158 <l4056>:
    4158:	e1b0be31 	lsrs	fp, r1, lr

0000415c <l4057>:
    415c:	81b00365 	rorshi	r0, r5, #6

00004160 <l4058>:
    4160:	51300005 	teqpl	r0, r5

00004164 <l4059>:
    4164:	ea000000 	b	416c <l4061>

00004168 <l4060>:
    4168:	eafffffa 	b	4158 <l4056>

0000416c <l4061>:
    416c:	e59fe000 	ldr	lr, [pc]	; 4174 <l4063>

00004170 <l4062>:
    4170:	ea000000 	b	4178 <l4064>

00004174 <l4063>:
    4174:	000fffac 	.word	0x000fffac

00004178 <l4064>:
    4178:	e10e709b 	swp	r7, fp, [lr]

0000417c <l4065>:
    417c:	e88d21c1 	stm	sp, {r0, r6, r7, r8, sp}

00004180 <l4066>:
    4180:	c1140bcb 	tstgt	r4, fp, asr #23

00004184 <l4067>:
    4184:	71c4c00e 	bicvc	ip, r4, lr

00004188 <l4068>:
    4188:	914d10b8 	strhls	r1, [sp, #-8]

0000418c <l4069>:
    418c:	e3350637 	teq	r5, #57671680	; 0x3700000

00004190 <l4070>:
    4190:	254d200d 	strbcs	r2, [sp, #-13]

00004194 <l4071>:
    4194:	e396c0e4 	orrs	ip, r6, #228	; 0xe4

00004198 <l4072>:
    4198:	b1e0a00a 	mvnlt	sl, sl

0000419c <l4073>:
    419c:	201a100a 	andscs	r1, sl, sl

000041a0 <l4074>:
    41a0:	ea000006 	b	41c0 <l4082>

000041a4 <l4075>:
    41a4:	e09aa067 	adds	sl, sl, r7, rrx

000041a8 <l4076>:
    41a8:	307baba3 	rsbscc	sl, fp, r3, lsr #23

000041ac <l4077>:
    41ac:	e239ae1f 	eors	sl, r9, #496	; 0x1f0

000041b0 <l4078>:
    41b0:	a1dc1062 	bicsge	r1, ip, r2, rrx

000041b4 <l4079>:
    41b4:	e030a06b 	eors	sl, r0, fp, rrx

000041b8 <l4080>:
    41b8:	e0a43e3e 	adc	r3, r4, lr, lsr lr

000041bc <l4081>:
    41bc:	722b7a25 	eorvc	r7, fp, #151552	; 0x25000

000041c0 <l4082>:
    41c0:	61cc0004 	bicvs	r0, ip, r4

000041c4 <l4083>:
