
smlal_1000.o:     file format elf32-littlearm


Disassembly of section .text:

00000000 <main>:
       0:	e05f000f 	subs	r0, pc, pc
       4:	e59fd000 	ldr	sp, [pc]	; c <val>
       8:	ea000000 	b	10 <next>

0000000c <val>:
       c:	000ffff0 	.word	0x000ffff0

00000010 <next>:
      10:	e59f1000 	ldr	r1, [pc]	; 18 <val1>
      14:	ea000000 	b	1c <next1>

00000018 <val1>:
      18:	2d2e4bd9 	.word	0x2d2e4bd9

0000001c <next1>:
      1c:	e59f2000 	ldr	r2, [pc]	; 24 <val2>
      20:	ea000000 	b	28 <next2>

00000024 <val2>:
      24:	5dc76ce0 	.word	0x5dc76ce0

00000028 <next2>:
      28:	e59f3000 	ldr	r3, [pc]	; 30 <val3>
      2c:	ea000000 	b	34 <next3>

00000030 <val3>:
      30:	3a3ffd15 	.word	0x3a3ffd15

00000034 <next3>:
      34:	e59f4000 	ldr	r4, [pc]	; 3c <val4>
      38:	ea000000 	b	40 <next4>

0000003c <val4>:
      3c:	1889562c 	.word	0x1889562c

00000040 <next4>:
      40:	e59f5000 	ldr	r5, [pc]	; 48 <val5>
      44:	ea000000 	b	4c <next5>

00000048 <val5>:
      48:	70b90439 	.word	0x70b90439

0000004c <next5>:
      4c:	e59f6000 	ldr	r6, [pc]	; 54 <val6>
      50:	ea000000 	b	58 <next6>

00000054 <val6>:
      54:	e086118e 	.word	0xe086118e

00000058 <next6>:
      58:	e59f7000 	ldr	r7, [pc]	; 60 <val7>
      5c:	ea000000 	b	64 <next7>

00000060 <val7>:
      60:	659e7da3 	.word	0x659e7da3

00000064 <next7>:
      64:	e59f8000 	ldr	r8, [pc]	; 6c <val8>
      68:	ea000000 	b	70 <next8>

0000006c <val8>:
      6c:	ed6b48eb 	.word	0xed6b48eb

00000070 <next8>:
      70:	e59f9000 	ldr	r9, [pc]	; 78 <val9>
      74:	ea000000 	b	7c <next9>

00000078 <val9>:
      78:	fa01828c 	.word	0xfa01828c

0000007c <next9>:
      7c:	e59fa000 	ldr	sl, [pc]	; 84 <val10>
      80:	ea000000 	b	88 <next10>

00000084 <val10>:
      84:	fcb05d01 	.word	0xfcb05d01

00000088 <next10>:
      88:	e59fb000 	ldr	fp, [pc]	; 90 <val11>
      8c:	ea000000 	b	94 <next11>

00000090 <val11>:
      90:	e42a0da2 	.word	0xe42a0da2

00000094 <next11>:
      94:	e59fc000 	ldr	ip, [pc]	; 9c <val12>
      98:	ea000000 	b	a0 <next12>

0000009c <val12>:
      9c:	e8976d79 	.word	0xe8976d79

000000a0 <next12>:
      a0:	e59fe000 	ldr	lr, [pc]	; a8 <val14>
      a4:	ea000000 	b	ac <next14>

000000a8 <val14>:
      a8:	4b75efaa 	.word	0x4b75efaa

000000ac <next14>:
      ac:	e59f1000 	ldr	r1, [pc]	; b4 <val15>
      b0:	ea000000 	b	b8 <next15>

000000b4 <val15>:
      b4:	fff24d3e 	.word	0xfff24d3e

000000b8 <next15>:
      b8:	e58d1000 	str	r1, [sp]
      bc:	e59f1000 	ldr	r1, [pc]	; c4 <val16>
      c0:	ea000000 	b	c8 <next16>

000000c4 <val16>:
      c4:	9274d56d 	.word	0x9274d56d

000000c8 <next16>:
      c8:	e50d1004 	str	r1, [sp, #-4]
      cc:	e59f1000 	ldr	r1, [pc]	; d4 <val17>
      d0:	ea000000 	b	d8 <next17>

000000d4 <val17>:
      d4:	a7dc3b02 	.word	0xa7dc3b02

000000d8 <next17>:
      d8:	e50d1008 	str	r1, [sp, #-8]
      dc:	e59f1000 	ldr	r1, [pc]	; e4 <val18>
      e0:	ea000000 	b	e8 <next18>

000000e4 <val18>:
      e4:	535697db 	.word	0x535697db

000000e8 <next18>:
      e8:	e50d100c 	str	r1, [sp, #-12]
      ec:	e59f1000 	ldr	r1, [pc]	; f4 <val19>
      f0:	ea000000 	b	f8 <next19>

000000f4 <val19>:
      f4:	8318eef6 	.word	0x8318eef6

000000f8 <next19>:
      f8:	e50d1010 	str	r1, [sp, #-16]
      fc:	e59f1000 	ldr	r1, [pc]	; 104 <val20>
     100:	ea000000 	b	108 <next20>

00000104 <val20>:
     104:	2f554897 	.word	0x2f554897

00000108 <next20>:
     108:	e50d1014 	str	r1, [sp, #-20]
     10c:	e59f1000 	ldr	r1, [pc]	; 114 <val21>
     110:	ea000000 	b	118 <next21>

00000114 <val21>:
     114:	bb0af12a 	.word	0xbb0af12a

00000118 <next21>:
     118:	e50d1018 	str	r1, [sp, #-24]
     11c:	e59f1000 	ldr	r1, [pc]	; 124 <val22>
     120:	ea000000 	b	128 <next22>

00000124 <val22>:
     124:	d13d23e2 	.word	0xd13d23e2

00000128 <next22>:
     128:	e50d101c 	str	r1, [sp, #-28]
     12c:	e59f1000 	ldr	r1, [pc]	; 134 <val23>
     130:	ea000000 	b	138 <next23>

00000134 <val23>:
     134:	5ca7a498 	.word	0x5ca7a498

00000138 <next23>:
     138:	e50d1020 	str	r1, [sp, #-32]
     13c:	e59f1000 	ldr	r1, [pc]	; 144 <val24>
     140:	ea000000 	b	148 <next24>

00000144 <val24>:
     144:	013d8964 	.word	0x013d8964

00000148 <next24>:
     148:	e50d1024 	str	r1, [sp, #-36]	; 0x24
     14c:	e59f1000 	ldr	r1, [pc]	; 154 <val25>
     150:	ea000000 	b	158 <next25>

00000154 <val25>:
     154:	7dd6ca99 	.word	0x7dd6ca99

00000158 <next25>:
     158:	e50d1028 	str	r1, [sp, #-40]	; 0x28
     15c:	e59f1000 	ldr	r1, [pc]	; 164 <val26>
     160:	ea000000 	b	168 <next26>

00000164 <val26>:
     164:	db7dccef 	.word	0xdb7dccef

00000168 <next26>:
     168:	e50d102c 	str	r1, [sp, #-44]	; 0x2c
     16c:	e59f1000 	ldr	r1, [pc]	; 174 <val27>
     170:	ea000000 	b	178 <next27>

00000174 <val27>:
     174:	2827f5e5 	.word	0x2827f5e5

00000178 <next27>:
     178:	e50d1030 	str	r1, [sp, #-48]	; 0x30
     17c:	e59f1000 	ldr	r1, [pc]	; 184 <val28>
     180:	ea000000 	b	188 <next28>

00000184 <val28>:
     184:	9f27ea8e 	.word	0x9f27ea8e

00000188 <next28>:
     188:	e50d1034 	str	r1, [sp, #-52]	; 0x34
     18c:	e59f1000 	ldr	r1, [pc]	; 194 <val29>
     190:	ea000000 	b	198 <next29>

00000194 <val29>:
     194:	df470aa2 	.word	0xdf470aa2

00000198 <next29>:
     198:	e50d1038 	str	r1, [sp, #-56]	; 0x38
     19c:	e59f1000 	ldr	r1, [pc]	; 1a4 <val30>
     1a0:	ea000000 	b	1a8 <next30>

000001a4 <val30>:
     1a4:	9c71bf83 	.word	0x9c71bf83

000001a8 <next30>:
     1a8:	e50d103c 	str	r1, [sp, #-60]	; 0x3c
     1ac:	e59f1000 	ldr	r1, [pc]	; 1b4 <val31>
     1b0:	ea000000 	b	1b8 <next31>

000001b4 <val31>:
     1b4:	4a4c8a25 	.word	0x4a4c8a25

000001b8 <next31>:
     1b8:	e50d1040 	str	r1, [sp, #-64]	; 0x40
     1bc:	e59f1000 	ldr	r1, [pc]	; 1c4 <val32>
     1c0:	ea000000 	b	1c8 <next32>

000001c4 <val32>:
     1c4:	8220ece8 	.word	0x8220ece8

000001c8 <next32>:
     1c8:	e50d1044 	str	r1, [sp, #-68]	; 0x44
     1cc:	e59f1000 	ldr	r1, [pc]	; 1d4 <val33>
     1d0:	ea000000 	b	1d8 <next33>

000001d4 <val33>:
     1d4:	43bb2bcd 	.word	0x43bb2bcd

000001d8 <next33>:
     1d8:	e50d1048 	str	r1, [sp, #-72]	; 0x48
     1dc:	e59f1000 	ldr	r1, [pc]	; 1e4 <val34>
     1e0:	ea000000 	b	1e8 <next34>

000001e4 <val34>:
     1e4:	e1697713 	.word	0xe1697713

000001e8 <next34>:
     1e8:	e50d104c 	str	r1, [sp, #-76]	; 0x4c
     1ec:	e59f1000 	ldr	r1, [pc]	; 1f4 <val35>
     1f0:	ea000000 	b	1f8 <next35>

000001f4 <val35>:
     1f4:	129400c3 	.word	0x129400c3

000001f8 <next35>:
     1f8:	e50d1050 	str	r1, [sp, #-80]	; 0x50

000001fc <l1>:
     1fc:	e0f82e91 	smlals	r2, r8, r1, lr

00000200 <l2>:
     200:	e0e47b91 	smlal	r7, r4, r1, fp

00000204 <l3>:
     204:	20f63795 	smlalscs	r3, r6, r5, r7

00000208 <l4>:
     208:	30e3a291 	smlalcc	sl, r3, r1, r2

0000020c <l5>:
     20c:	50e5949b 	smlalpl	r9, r5, fp, r4

00000210 <l6>:
     210:	20e1c697 	smlalcs	ip, r1, r7, r6

00000214 <l7>:
     214:	70f1449a 	smlalsvc	r4, r1, sl, r4

00000218 <l8>:
     218:	e0f3a090 	smlals	sl, r3, r0, r0

0000021c <l9>:
     21c:	e0e3a590 	smlal	sl, r3, r0, r5

00000220 <l10>:
     220:	e0e2619c 	smlal	r6, r2, ip, r1

00000224 <l11>:
     224:	e0f68e91 	smlals	r8, r6, r1, lr

00000228 <l12>:
     228:	d0f8b194 	smlalsle	fp, r8, r4, r1

0000022c <l13>:
     22c:	e0e1509a 	smlal	r5, r1, sl, r0

00000230 <l14>:
     230:	90e30195 	smlalls	r0, r3, r5, r1

00000234 <l15>:
     234:	70f10b9b 	smlalsvc	r0, r1, fp, fp

00000238 <l16>:
     238:	c0ee9b9a 	smlalgt	r9, lr, sl, fp

0000023c <l17>:
     23c:	e0f93291 	smlals	r3, r9, r1, r2

00000240 <l18>:
     240:	60fe9992 	smlalsvs	r9, lr, r2, r9

00000244 <l19>:
     244:	c0f12e94 	smlalsgt	r2, r1, r4, lr

00000248 <l20>:
     248:	c0e5a997 	smlalgt	sl, r5, r7, r9

0000024c <l21>:
     24c:	e0e65799 	smlal	r5, r6, r9, r7

00000250 <l22>:
     250:	30f89e9a 	smlalscc	r9, r8, sl, lr

00000254 <l23>:
     254:	00e2e39c 	smlaleq	lr, r2, ip, r3

00000258 <l24>:
     258:	e0f61699 	smlals	r1, r6, r9, r6

0000025c <l25>:
     25c:	60ec2294 	smlalvs	r2, ip, r4, r2

00000260 <l26>:
     260:	e0f0589b 	smlals	r5, r0, fp, r8

00000264 <l27>:
     264:	90e97b93 	smlalls	r7, r9, r3, fp

00000268 <l28>:
     268:	e0eec098 	smlal	ip, lr, r8, r0

0000026c <l29>:
     26c:	70e95c91 	smlalvc	r5, r9, r1, ip

00000270 <l30>:
     270:	00ec2c94 	smlaleq	r2, ip, r4, ip

00000274 <l31>:
     274:	e0ee9598 	smlal	r9, lr, r8, r5

00000278 <l32>:
     278:	e0e7bb90 	smlal	fp, r7, r0, fp

0000027c <l33>:
     27c:	50f57996 	smlalspl	r7, r5, r6, r9

00000280 <l34>:
     280:	e0f7b993 	smlals	fp, r7, r3, r9

00000284 <l35>:
     284:	e0e7e290 	smlal	lr, r7, r0, r2

00000288 <l36>:
     288:	80e3e095 	smlalhi	lr, r3, r5, r0

0000028c <l37>:
     28c:	70f1219e 	smlalsvc	r2, r1, lr, r1

00000290 <l38>:
     290:	e0f40797 	smlals	r0, r4, r7, r7

00000294 <l39>:
     294:	e0fe0b9b 	smlals	r0, lr, fp, fp

00000298 <l40>:
     298:	d0f0e095 	smlalsle	lr, r0, r5, r0

0000029c <l41>:
     29c:	d0eb3892 	smlalle	r3, fp, r2, r8

000002a0 <l42>:
     2a0:	e0e15493 	smlal	r5, r1, r3, r4

000002a4 <l43>:
     2a4:	e0e16a9b 	smlal	r6, r1, fp, sl

000002a8 <l44>:
     2a8:	e0e18a95 	smlal	r8, r1, r5, sl

000002ac <l45>:
     2ac:	e0e4a596 	smlal	sl, r4, r6, r5

000002b0 <l46>:
     2b0:	80fa3396 	smlalshi	r3, sl, r6, r3

000002b4 <l47>:
     2b4:	e0f7499e 	smlals	r4, r7, lr, r9

000002b8 <l48>:
     2b8:	10fa4c95 	smlalsne	r4, sl, r5, ip

000002bc <l49>:
     2bc:	80fae292 	smlalshi	lr, sl, r2, r2

000002c0 <l50>:
     2c0:	10e10897 	smlalne	r0, r1, r7, r8

000002c4 <l51>:
     2c4:	e0e1709c 	smlal	r7, r1, ip, r0

000002c8 <l52>:
     2c8:	c0f20c98 	smlalsgt	r0, r2, r8, ip

000002cc <l53>:
     2cc:	e0fe4499 	smlals	r4, lr, r9, r4

000002d0 <l54>:
     2d0:	30f93b94 	smlalscc	r3, r9, r4, fp

000002d4 <l55>:
     2d4:	10ea949e 	smlalne	r9, sl, lr, r4

000002d8 <l56>:
     2d8:	b0ee009a 	smlallt	r0, lr, sl, r0

000002dc <l57>:
     2dc:	e0fe0598 	smlals	r0, lr, r8, r5

000002e0 <l58>:
     2e0:	d0fa859b 	smlalsle	r8, sl, fp, r5

000002e4 <l59>:
     2e4:	70ec4695 	smlalvc	r4, ip, r5, r6

000002e8 <l60>:
     2e8:	40f97890 	smlalsmi	r7, r9, r0, r8

000002ec <l61>:
     2ec:	00e1c29b 	smlaleq	ip, r1, fp, r2

000002f0 <l62>:
     2f0:	40f67294 	smlalsmi	r7, r6, r4, r2

000002f4 <l63>:
     2f4:	e0e5c790 	smlal	ip, r5, r0, r7

000002f8 <l64>:
     2f8:	60f19290 	smlalsvs	r9, r1, r0, r2

000002fc <l65>:
     2fc:	30e52698 	smlalcc	r2, r5, r8, r6

00000300 <l66>:
     300:	60e95594 	smlalvs	r5, r9, r4, r5

00000304 <l67>:
     304:	90e37794 	smlalls	r7, r3, r4, r7

00000308 <l68>:
     308:	90fc8895 	smlalsls	r8, ip, r5, r8

0000030c <l69>:
     30c:	80f80c9c 	smlalshi	r0, r8, ip, ip

00000310 <l70>:
     310:	b0e83a96 	smlallt	r3, r8, r6, sl

00000314 <l71>:
     314:	50fa9997 	smlalspl	r9, sl, r7, r9

00000318 <l72>:
     318:	e0e7ac98 	smlal	sl, r7, r8, ip

0000031c <l73>:
     31c:	30f6c399 	smlalscc	ip, r6, r9, r3

00000320 <l74>:
     320:	70fe9694 	smlalsvc	r9, lr, r4, r6

00000324 <l75>:
     324:	50fc3990 	smlalspl	r3, ip, r0, r9

00000328 <l76>:
     328:	e0f81699 	smlals	r1, r8, r9, r6

0000032c <l77>:
     32c:	d0eecc99 	smlalle	ip, lr, r9, ip

00000330 <l78>:
     330:	e0ee609b 	smlal	r6, lr, fp, r0

00000334 <l79>:
     334:	90f4969e 	smlalsls	r9, r4, lr, r6

00000338 <l80>:
     338:	a0e9869c 	smlalge	r8, r9, ip, r6

0000033c <l81>:
     33c:	10fc9797 	smlalsne	r9, ip, r7, r7

00000340 <l82>:
     340:	b0e6aa95 	smlallt	sl, r6, r5, sl

00000344 <l83>:
     344:	d0f34891 	smlalsle	r4, r3, r1, r8

00000348 <l84>:
     348:	90fea196 	smlalsls	sl, lr, r6, r1

0000034c <l85>:
     34c:	e0fbca90 	smlals	ip, fp, r0, sl

00000350 <l86>:
     350:	e0f6e69c 	smlals	lr, r6, ip, r6

00000354 <l87>:
     354:	80e5a391 	smlalhi	sl, r5, r1, r3

00000358 <l88>:
     358:	20e04793 	smlalcs	r4, r0, r3, r7

0000035c <l89>:
     35c:	70eb759c 	smlalvc	r7, fp, ip, r5

00000360 <l90>:
     360:	90ecb091 	smlalls	fp, ip, r1, r0

00000364 <l91>:
     364:	70eec592 	smlalvc	ip, lr, r2, r5

00000368 <l92>:
     368:	e0e28091 	smlal	r8, r2, r1, r0

0000036c <l93>:
     36c:	b0ee6e94 	smlallt	r6, lr, r4, lr

00000370 <l94>:
     370:	e0fa7794 	smlals	r7, sl, r4, r7

00000374 <l95>:
     374:	e0f17c96 	smlals	r7, r1, r6, ip

00000378 <l96>:
     378:	e0eb2598 	smlal	r2, fp, r8, r5

0000037c <l97>:
     37c:	e0e8059a 	smlal	r0, r8, sl, r5

00000380 <l98>:
     380:	e0f59a93 	smlals	r9, r5, r3, sl

00000384 <l99>:
     384:	e0f8a895 	smlals	sl, r8, r5, r8

00000388 <l100>:
     388:	c0f53390 	smlalsgt	r3, r5, r0, r3

0000038c <l101>:
     38c:	40fc1999 	smlalsmi	r1, ip, r9, r9

00000390 <l102>:
     390:	90f3789c 	smlalsls	r7, r3, ip, r8

00000394 <l103>:
     394:	e0eb1698 	smlal	r1, fp, r8, r6

00000398 <l104>:
     398:	e0f86994 	smlals	r6, r8, r4, r9

0000039c <l105>:
     39c:	a0f05691 	smlalsge	r5, r0, r1, r6

000003a0 <l106>:
     3a0:	40e50899 	smlalmi	r0, r5, r9, r8

000003a4 <l107>:
     3a4:	d0f0189a 	smlalsle	r1, r0, sl, r8

000003a8 <l108>:
     3a8:	d0f72c9c 	smlalsle	r2, r7, ip, ip

000003ac <l109>:
     3ac:	e0ee1698 	smlal	r1, lr, r8, r6

000003b0 <l110>:
     3b0:	e0e6999b 	smlal	r9, r6, fp, r9

000003b4 <l111>:
     3b4:	40f71b9c 	smlalsmi	r1, r7, ip, fp

000003b8 <l112>:
     3b8:	d0fe5a99 	smlalsle	r5, lr, r9, sl

000003bc <l113>:
     3bc:	d0eb799e 	smlalle	r7, fp, lr, r9

000003c0 <l114>:
     3c0:	e0e2149c 	smlal	r1, r2, ip, r4

000003c4 <l115>:
     3c4:	e0f41a92 	smlals	r1, r4, r2, sl

000003c8 <l116>:
     3c8:	e0e07793 	smlal	r7, r0, r3, r7

000003cc <l117>:
     3cc:	e0eb2393 	smlal	r2, fp, r3, r3

000003d0 <l118>:
     3d0:	80f2649e 	smlalshi	r6, r2, lr, r4

000003d4 <l119>:
     3d4:	e0fb7698 	smlals	r7, fp, r8, r6

000003d8 <l120>:
     3d8:	e0e3589e 	smlal	r5, r3, lr, r8

000003dc <l121>:
     3dc:	e0e10398 	smlal	r0, r1, r8, r3

000003e0 <l122>:
     3e0:	d0f1b49c 	smlalsle	fp, r1, ip, r4

000003e4 <l123>:
     3e4:	e0f2439e 	smlals	r4, r2, lr, r3

000003e8 <l124>:
     3e8:	30f80699 	smlalscc	r0, r8, r9, r6

000003ec <l125>:
     3ec:	90f9ca94 	smlalsls	ip, r9, r4, sl

000003f0 <l126>:
     3f0:	e0fe9e9b 	smlals	r9, lr, fp, lr

000003f4 <l127>:
     3f4:	20f40899 	smlalscs	r0, r4, r9, r8

000003f8 <l128>:
     3f8:	60f0409a 	smlalsvs	r4, r0, sl, r0

000003fc <l129>:
     3fc:	e0f90096 	smlals	r0, r9, r6, r0

00000400 <l130>:
     400:	10e48893 	smlalne	r8, r4, r3, r8

00000404 <l131>:
     404:	80f3e395 	smlalshi	lr, r3, r5, r3

00000408 <l132>:
     408:	50f27c9e 	smlalspl	r7, r2, lr, ip

0000040c <l133>:
     40c:	e0e5cb99 	smlal	ip, r5, r9, fp

00000410 <l134>:
     410:	70e09091 	smlalvc	r9, r0, r1, r0

00000414 <l135>:
     414:	30ec6398 	smlalcc	r6, ip, r8, r3

00000418 <l136>:
     418:	e0fe4b90 	smlals	r4, lr, r0, fp

0000041c <l137>:
     41c:	e0f52c91 	smlals	r2, r5, r1, ip

00000420 <l138>:
     420:	e0ec4099 	smlal	r4, ip, r9, r0

00000424 <l139>:
     424:	60fb2699 	smlalsvs	r2, fp, r9, r6

00000428 <l140>:
     428:	e0f6a891 	smlals	sl, r6, r1, r8

0000042c <l141>:
     42c:	30e2aa9c 	smlalcc	sl, r2, ip, sl

00000430 <l142>:
     430:	e0eba39e 	smlal	sl, fp, lr, r3

00000434 <l143>:
     434:	e0f19692 	smlals	r9, r1, r2, r6

00000438 <l144>:
     438:	10fb8497 	smlalsne	r8, fp, r7, r4

0000043c <l145>:
     43c:	70f59292 	smlalsvc	r9, r5, r2, r2

00000440 <l146>:
     440:	e0e68e9c 	smlal	r8, r6, ip, lr

00000444 <l147>:
     444:	e0f81295 	smlals	r1, r8, r5, r2

00000448 <l148>:
     448:	e0e9e690 	smlal	lr, r9, r0, r6

0000044c <l149>:
     44c:	e0f2b495 	smlals	fp, r2, r5, r4

00000450 <l150>:
     450:	e0fb4997 	smlals	r4, fp, r7, r9

00000454 <l151>:
     454:	00fe6297 	smlalseq	r6, lr, r7, r2

00000458 <l152>:
     458:	e0e6ba9e 	smlal	fp, r6, lr, sl

0000045c <l153>:
     45c:	10e23e96 	smlalne	r3, r2, r6, lr

00000460 <l154>:
     460:	a0ec3e96 	smlalge	r3, ip, r6, lr

00000464 <l155>:
     464:	00f30c9a 	smlalseq	r0, r3, sl, ip

00000468 <l156>:
     468:	e0e26990 	smlal	r6, r2, r0, r9

0000046c <l157>:
     46c:	80e38390 	smlalhi	r8, r3, r0, r3

00000470 <l158>:
     470:	20e4ea92 	smlalcs	lr, r4, r2, sl

00000474 <l159>:
     474:	20f46093 	smlalscs	r6, r4, r3, r0

00000478 <l160>:
     478:	e0e39592 	smlal	r9, r3, r2, r5

0000047c <l161>:
     47c:	a0ec0894 	smlalge	r0, ip, r4, r8

00000480 <l162>:
     480:	10e08b92 	smlalne	r8, r0, r2, fp

00000484 <l163>:
     484:	10fb0996 	smlalsne	r0, fp, r6, r9

00000488 <l164>:
     488:	e0e20798 	smlal	r0, r2, r8, r7

0000048c <l165>:
     48c:	e0f3ec98 	smlals	lr, r3, r8, ip

00000490 <l166>:
     490:	20e5e898 	smlalcs	lr, r5, r8, r8

00000494 <l167>:
     494:	20e53c90 	smlalcs	r3, r5, r0, ip

00000498 <l168>:
     498:	90e74a92 	smlalls	r4, r7, r2, sl

0000049c <l169>:
     49c:	e0e2c399 	smlal	ip, r2, r9, r3

000004a0 <l170>:
     4a0:	20e12495 	smlalcs	r2, r1, r5, r4

000004a4 <l171>:
     4a4:	70ebe594 	smlalvc	lr, fp, r4, r5

000004a8 <l172>:
     4a8:	90e54690 	smlalls	r4, r5, r0, r6

000004ac <l173>:
     4ac:	c0e9ba9c 	smlalgt	fp, r9, ip, sl

000004b0 <l174>:
     4b0:	80fc229b 	smlalshi	r2, ip, fp, r2

000004b4 <l175>:
     4b4:	e0f65599 	smlals	r5, r6, r9, r5

000004b8 <l176>:
     4b8:	50e46197 	smlalpl	r6, r4, r7, r1

000004bc <l177>:
     4bc:	d0e68e97 	smlalle	r8, r6, r7, lr

000004c0 <l178>:
     4c0:	e0fe4990 	smlals	r4, lr, r0, r9

000004c4 <l179>:
     4c4:	20f1b098 	smlalscs	fp, r1, r8, r0

000004c8 <l180>:
     4c8:	d0fa4790 	smlalsle	r4, sl, r0, r7

000004cc <l181>:
     4cc:	e0fb869c 	smlals	r8, fp, ip, r6

000004d0 <l182>:
     4d0:	e0f8cb92 	smlals	ip, r8, r2, fp

000004d4 <l183>:
     4d4:	40e14590 	smlalmi	r4, r1, r0, r5

000004d8 <l184>:
     4d8:	e0e4b098 	smlal	fp, r4, r8, r0

000004dc <l185>:
     4dc:	d0e9429b 	smlalle	r4, r9, fp, r2

000004e0 <l186>:
     4e0:	e0e45591 	smlal	r5, r4, r1, r5

000004e4 <l187>:
     4e4:	e0f2329c 	smlals	r3, r2, ip, r2

000004e8 <l188>:
     4e8:	e0e61e98 	smlal	r1, r6, r8, lr

000004ec <l189>:
     4ec:	80e19296 	smlalhi	r9, r1, r6, r2

000004f0 <l190>:
     4f0:	d0e9cc96 	smlalle	ip, r9, r6, ip

000004f4 <l191>:
     4f4:	d0e61293 	smlalle	r1, r6, r3, r2

000004f8 <l192>:
     4f8:	e0f9c498 	smlals	ip, r9, r8, r4

000004fc <l193>:
     4fc:	90f32896 	smlalsls	r2, r3, r6, r8

00000500 <l194>:
     500:	20fe769b 	smlalscs	r7, lr, fp, r6

00000504 <l195>:
     504:	60f6089b 	smlalsvs	r0, r6, fp, r8

00000508 <l196>:
     508:	c0f31992 	smlalsgt	r1, r3, r2, r9

0000050c <l197>:
     50c:	c0fab890 	smlalsgt	fp, sl, r0, r8

00000510 <l198>:
     510:	e0f97e9b 	smlals	r7, r9, fp, lr

00000514 <l199>:
     514:	a0f34499 	smlalsge	r4, r3, r9, r4

00000518 <l200>:
     518:	e0fca592 	smlals	sl, ip, r2, r5

0000051c <l201>:
     51c:	20e94193 	smlalcs	r4, r9, r3, r1

00000520 <l202>:
     520:	e0f61c94 	smlals	r1, r6, r4, ip

00000524 <l203>:
     524:	e0f07499 	smlals	r7, r0, r9, r4

00000528 <l204>:
     528:	e0e26793 	smlal	r6, r2, r3, r7

0000052c <l205>:
     52c:	e0f4559b 	smlals	r5, r4, fp, r5

00000530 <l206>:
     530:	e0ec9694 	smlal	r9, ip, r4, r6

00000534 <l207>:
     534:	e0f1b698 	smlals	fp, r1, r8, r6

00000538 <l208>:
     538:	50e9249c 	smlalpl	r2, r9, ip, r4

0000053c <l209>:
     53c:	50f0be95 	smlalspl	fp, r0, r5, lr

00000540 <l210>:
     540:	80e7e299 	smlalhi	lr, r7, r9, r2

00000544 <l211>:
     544:	70e23196 	smlalvc	r3, r2, r6, r1

00000548 <l212>:
     548:	e0f2109e 	smlals	r1, r2, lr, r0

0000054c <l213>:
     54c:	e0e0a594 	smlal	sl, r0, r4, r5

00000550 <l214>:
     550:	e0f28690 	smlals	r8, r2, r0, r6

00000554 <l215>:
     554:	10f81897 	smlalsne	r1, r8, r7, r8

00000558 <l216>:
     558:	20e6289e 	smlalcs	r2, r6, lr, r8

0000055c <l217>:
     55c:	b0e2c294 	smlallt	ip, r2, r4, r2

00000560 <l218>:
     560:	a0f07695 	smlalsge	r7, r0, r5, r6

00000564 <l219>:
     564:	70e13995 	smlalvc	r3, r1, r5, r9

00000568 <l220>:
     568:	50fa379c 	smlalspl	r3, sl, ip, r7

0000056c <l221>:
     56c:	20fe1c9c 	smlalscs	r1, lr, ip, ip

00000570 <l222>:
     570:	e0f3c892 	smlals	ip, r3, r2, r8

00000574 <l223>:
     574:	d0fc0097 	smlalsle	r0, ip, r7, r0

00000578 <l224>:
     578:	a0e93a97 	smlalge	r3, r9, r7, sl

0000057c <l225>:
     57c:	e0fb9c90 	smlals	r9, fp, r0, ip

00000580 <l226>:
     580:	e0e69b92 	smlal	r9, r6, r2, fp

00000584 <l227>:
     584:	e0f2e494 	smlals	lr, r2, r4, r4

00000588 <l228>:
     588:	c0e3729a 	smlalgt	r7, r3, sl, r2

0000058c <l229>:
     58c:	80e1559e 	smlalhi	r5, r1, lr, r5

00000590 <l230>:
     590:	40f61c99 	smlalsmi	r1, r6, r9, ip

00000594 <l231>:
     594:	c0e98996 	smlalgt	r8, r9, r6, r9

00000598 <l232>:
     598:	50f93c94 	smlalspl	r3, r9, r4, ip

0000059c <l233>:
     59c:	30f69692 	smlalscc	r9, r6, r2, r6

000005a0 <l234>:
     5a0:	20fc2c91 	smlalscs	r2, ip, r1, ip

000005a4 <l235>:
     5a4:	e0e9449e 	smlal	r4, r9, lr, r4

000005a8 <l236>:
     5a8:	e0fa249e 	smlals	r2, sl, lr, r4

000005ac <l237>:
     5ac:	e0ea979b 	smlal	r9, sl, fp, r7

000005b0 <l238>:
     5b0:	10f9e991 	smlalsne	lr, r9, r1, r9

000005b4 <l239>:
     5b4:	40f64090 	smlalsmi	r4, r6, r0, r0

000005b8 <l240>:
     5b8:	e0e8b994 	smlal	fp, r8, r4, r9

000005bc <l241>:
     5bc:	e0e96397 	smlal	r6, r9, r7, r3

000005c0 <l242>:
     5c0:	90f39394 	smlalsls	r9, r3, r4, r3

000005c4 <l243>:
     5c4:	00fe0793 	smlalseq	r0, lr, r3, r7

000005c8 <l244>:
     5c8:	90f97190 	smlalsls	r7, r9, r0, r1

000005cc <l245>:
     5cc:	e0e12690 	smlal	r2, r1, r0, r6

000005d0 <l246>:
     5d0:	c0f23897 	smlalsgt	r3, r2, r7, r8

000005d4 <l247>:
     5d4:	e0e56693 	smlal	r6, r5, r3, r6

000005d8 <l248>:
     5d8:	30e2e593 	smlalcc	lr, r2, r3, r5

000005dc <l249>:
     5dc:	e0f21b9b 	smlals	r1, r2, fp, fp

000005e0 <l250>:
     5e0:	e0e1009e 	smlal	r0, r1, lr, r0

000005e4 <l251>:
     5e4:	e0e6449c 	smlal	r4, r6, ip, r4

000005e8 <l252>:
     5e8:	e0e2069a 	smlal	r0, r2, sl, r6

000005ec <l253>:
     5ec:	e0e68597 	smlal	r8, r6, r7, r5

000005f0 <l254>:
     5f0:	b0f64b9c 	smlalslt	r4, r6, ip, fp

000005f4 <l255>:
     5f4:	70eab897 	smlalvc	fp, sl, r7, r8

000005f8 <l256>:
     5f8:	e0f19b93 	smlals	r9, r1, r3, fp

000005fc <l257>:
     5fc:	20f5769a 	smlalscs	r7, r5, sl, r6

00000600 <l258>:
     600:	d0e9c59e 	smlalle	ip, r9, lr, r5

00000604 <l259>:
     604:	d0e47a91 	smlalle	r7, r4, r1, sl

00000608 <l260>:
     608:	c0e01496 	smlalgt	r1, r0, r6, r4

0000060c <l261>:
     60c:	00f4be97 	smlalseq	fp, r4, r7, lr

00000610 <l262>:
     610:	b0f5e697 	smlalslt	lr, r5, r7, r6

00000614 <l263>:
     614:	e0f7299c 	smlals	r2, r7, ip, r9

00000618 <l264>:
     618:	d0fa4c92 	smlalsle	r4, sl, r2, ip

0000061c <l265>:
     61c:	50f8679a 	smlalspl	r6, r8, sl, r7

00000620 <l266>:
     620:	e0fa5a92 	smlals	r5, sl, r2, sl

00000624 <l267>:
     624:	e0e0289c 	smlal	r2, r0, ip, r8

00000628 <l268>:
     628:	60f2ab93 	smlalsvs	sl, r2, r3, fp

0000062c <l269>:
     62c:	e0e24e93 	smlal	r4, r2, r3, lr

00000630 <l270>:
     630:	e0e85896 	smlal	r5, r8, r6, r8

00000634 <l271>:
     634:	70e2be9e 	smlalvc	fp, r2, lr, lr

00000638 <l272>:
     638:	d0f31095 	smlalsle	r1, r3, r5, r0

0000063c <l273>:
     63c:	90e30691 	smlalls	r0, r3, r1, r6

00000640 <l274>:
     640:	e0e1cc99 	smlal	ip, r1, r9, ip

00000644 <l275>:
     644:	70f1e493 	smlalsvc	lr, r1, r3, r4

00000648 <l276>:
     648:	30e65392 	smlalcc	r5, r6, r2, r3

0000064c <l277>:
     64c:	90f20994 	smlalsls	r0, r2, r4, r9

00000650 <l278>:
     650:	20f28c90 	smlalscs	r8, r2, r0, ip

00000654 <l279>:
     654:	e0ea0296 	smlal	r0, sl, r6, r2

00000658 <l280>:
     658:	d0e4629e 	smlalle	r6, r4, lr, r2

0000065c <l281>:
     65c:	90ee5896 	smlalls	r5, lr, r6, r8

00000660 <l282>:
     660:	00fe6293 	smlalseq	r6, lr, r3, r2

00000664 <l283>:
     664:	e0e1e299 	smlal	lr, r1, r9, r2

00000668 <l284>:
     668:	b0e70b92 	smlallt	r0, r7, r2, fp

0000066c <l285>:
     66c:	40e3079a 	smlalmi	r0, r3, sl, r7

00000670 <l286>:
     670:	e0eacb98 	smlal	ip, sl, r8, fp

00000674 <l287>:
     674:	e0e2a596 	smlal	sl, r2, r6, r5

00000678 <l288>:
     678:	20fe2196 	smlalscs	r2, lr, r6, r1

0000067c <l289>:
     67c:	50e0ea94 	smlalpl	lr, r0, r4, sl

00000680 <l290>:
     680:	e0f28895 	smlals	r8, r2, r5, r8

00000684 <l291>:
     684:	90fa2591 	smlalsls	r2, sl, r1, r5

00000688 <l292>:
     688:	30e39a91 	smlalcc	r9, r3, r1, sl

0000068c <l293>:
     68c:	40f24a90 	smlalsmi	r4, r2, r0, sl

00000690 <l294>:
     690:	60f4099e 	smlalsvs	r0, r4, lr, r9

00000694 <l295>:
     694:	50f84a95 	smlalspl	r4, r8, r5, sl

00000698 <l296>:
     698:	40f69491 	smlalsmi	r9, r6, r1, r4

0000069c <l297>:
     69c:	40f2039e 	smlalsmi	r0, r2, lr, r3

000006a0 <l298>:
     6a0:	00fa1693 	smlalseq	r1, sl, r3, r6

000006a4 <l299>:
     6a4:	d0e3249e 	smlalle	r2, r3, lr, r4

000006a8 <l300>:
     6a8:	10e6b391 	smlalne	fp, r6, r1, r3

000006ac <l301>:
     6ac:	40f4c49e 	smlalsmi	ip, r4, lr, r4

000006b0 <l302>:
     6b0:	60fa4a91 	smlalsvs	r4, sl, r1, sl

000006b4 <l303>:
     6b4:	50fcb190 	smlalspl	fp, ip, r0, r1

000006b8 <l304>:
     6b8:	e0f15e97 	smlals	r5, r1, r7, lr

000006bc <l305>:
     6bc:	60f38a97 	smlalsvs	r8, r3, r7, sl

000006c0 <l306>:
     6c0:	e0f3b79c 	smlals	fp, r3, ip, r7

000006c4 <l307>:
     6c4:	e0fcac9e 	smlals	sl, ip, lr, ip

000006c8 <l308>:
     6c8:	e0e92b9b 	smlal	r2, r9, fp, fp

000006cc <l309>:
     6cc:	10f06e92 	smlalsne	r6, r0, r2, lr

000006d0 <l310>:
     6d0:	e0ea029e 	smlal	r0, sl, lr, r2

000006d4 <l311>:
     6d4:	c0fc8a9e 	smlalsgt	r8, ip, lr, sl

000006d8 <l312>:
     6d8:	d0e3039e 	smlalle	r0, r3, lr, r3

000006dc <l313>:
     6dc:	e0f65998 	smlals	r5, r6, r8, r9

000006e0 <l314>:
     6e0:	b0f5b79a 	smlalslt	fp, r5, sl, r7

000006e4 <l315>:
     6e4:	e0f45093 	smlals	r5, r4, r3, r0

000006e8 <l316>:
     6e8:	30f08691 	smlalscc	r8, r0, r1, r6

000006ec <l317>:
     6ec:	e0f16994 	smlals	r6, r1, r4, r9

000006f0 <l318>:
     6f0:	e0e24091 	smlal	r4, r2, r1, r0

000006f4 <l319>:
     6f4:	e0f5bb94 	smlals	fp, r5, r4, fp

000006f8 <l320>:
     6f8:	a0e18c90 	smlalge	r8, r1, r0, ip

000006fc <l321>:
     6fc:	60e4359c 	smlalvs	r3, r4, ip, r5

00000700 <l322>:
     700:	10fc9090 	smlalsne	r9, ip, r0, r0

00000704 <l323>:
     704:	80e96095 	smlalhi	r6, r9, r5, r0

00000708 <l324>:
     708:	d0e0a094 	smlalle	sl, r0, r4, r0

0000070c <l325>:
     70c:	e0e8569e 	smlal	r5, r8, lr, r6

00000710 <l326>:
     710:	10e64699 	smlalne	r4, r6, r9, r6

00000714 <l327>:
     714:	c0e79295 	smlalgt	r9, r7, r5, r2

00000718 <l328>:
     718:	50f17299 	smlalspl	r7, r1, r9, r2

0000071c <l329>:
     71c:	e0fa7a98 	smlals	r7, sl, r8, sl

00000720 <l330>:
     720:	90e9739c 	smlalls	r7, r9, ip, r3

00000724 <l331>:
     724:	40eb669a 	smlalmi	r6, fp, sl, r6

00000728 <l332>:
     728:	c0f9c198 	smlalsgt	ip, r9, r8, r1

0000072c <l333>:
     72c:	a0eae892 	smlalge	lr, sl, r2, r8

00000730 <l334>:
     730:	c0eba39c 	smlalgt	sl, fp, ip, r3

00000734 <l335>:
     734:	30f8769e 	smlalscc	r7, r8, lr, r6

00000738 <l336>:
     738:	e0ee0e95 	smlal	r0, lr, r5, lr

0000073c <l337>:
     73c:	e0e7ab92 	smlal	sl, r7, r2, fp

00000740 <l338>:
     740:	e0e9a89c 	smlal	sl, r9, ip, r8

00000744 <l339>:
     744:	90fcb59e 	smlalsls	fp, ip, lr, r5

00000748 <l340>:
     748:	a0f85892 	smlalsge	r5, r8, r2, r8

0000074c <l341>:
     74c:	e0fc9594 	smlals	r9, ip, r4, r5

00000750 <l342>:
     750:	10e10994 	smlalne	r0, r1, r4, r9

00000754 <l343>:
     754:	90e31696 	smlalls	r1, r3, r6, r6

00000758 <l344>:
     758:	e0e85596 	smlal	r5, r8, r6, r5

0000075c <l345>:
     75c:	e0e8c290 	smlal	ip, r8, r0, r2

00000760 <l346>:
     760:	60e0389b 	smlalvs	r3, r0, fp, r8

00000764 <l347>:
     764:	40ec8897 	smlalmi	r8, ip, r7, r8

00000768 <l348>:
     768:	e0fce19b 	smlals	lr, ip, fp, r1

0000076c <l349>:
     76c:	e0fc279a 	smlals	r2, ip, sl, r7

00000770 <l350>:
     770:	d0e2c298 	smlalle	ip, r2, r8, r2

00000774 <l351>:
     774:	e0f0e895 	smlals	lr, r0, r5, r8

00000778 <l352>:
     778:	e0ea089e 	smlal	r0, sl, lr, r8

0000077c <l353>:
     77c:	e0e48499 	smlal	r8, r4, r9, r4

00000780 <l354>:
     780:	e0ebea99 	smlal	lr, fp, r9, sl

00000784 <l355>:
     784:	70f73595 	smlalsvc	r3, r7, r5, r5

00000788 <l356>:
     788:	60ece493 	smlalvs	lr, ip, r3, r4

0000078c <l357>:
     78c:	e0f92291 	smlals	r2, r9, r1, r2

00000790 <l358>:
     790:	70e28594 	smlalvc	r8, r2, r4, r5

00000794 <l359>:
     794:	20f26a99 	smlalscs	r6, r2, r9, sl

00000798 <l360>:
     798:	e0e7a190 	smlal	sl, r7, r0, r1

0000079c <l361>:
     79c:	e0f93491 	smlals	r3, r9, r1, r4

000007a0 <l362>:
     7a0:	d0f0e895 	smlalsle	lr, r0, r5, r8

000007a4 <l363>:
     7a4:	b0f5079e 	smlalslt	r0, r5, lr, r7

000007a8 <l364>:
     7a8:	60e76b98 	smlalvs	r6, r7, r8, fp

000007ac <l365>:
     7ac:	e0ec9e93 	smlal	r9, ip, r3, lr

000007b0 <l366>:
     7b0:	00f94a93 	smlalseq	r4, r9, r3, sl

000007b4 <l367>:
     7b4:	a0feb397 	smlalsge	fp, lr, r7, r3

000007b8 <l368>:
     7b8:	00e36297 	smlaleq	r6, r3, r7, r2

000007bc <l369>:
     7bc:	c0e8529a 	smlalgt	r5, r8, sl, r2

000007c0 <l370>:
     7c0:	e0e14a9a 	smlal	r4, r1, sl, sl

000007c4 <l371>:
     7c4:	90e7a093 	smlalls	sl, r7, r3, r0

000007c8 <l372>:
     7c8:	e0f80496 	smlals	r0, r8, r6, r4

000007cc <l373>:
     7cc:	40fb9993 	smlalsmi	r9, fp, r3, r9

000007d0 <l374>:
     7d0:	e0f39594 	smlals	r9, r3, r4, r5

000007d4 <l375>:
     7d4:	e0e47b91 	smlal	r7, r4, r1, fp

000007d8 <l376>:
     7d8:	40e09896 	smlalmi	r9, r0, r6, r8

000007dc <l377>:
     7dc:	e0fe769a 	smlals	r7, lr, sl, r6

000007e0 <l378>:
     7e0:	a0f56e90 	smlalsge	r6, r5, r0, lr

000007e4 <l379>:
     7e4:	e0e6479b 	smlal	r4, r6, fp, r7

000007e8 <l380>:
     7e8:	40f23a96 	smlalsmi	r3, r2, r6, sl

000007ec <l381>:
     7ec:	80e5159a 	smlalhi	r1, r5, sl, r5

000007f0 <l382>:
     7f0:	e0eb9795 	smlal	r9, fp, r5, r7

000007f4 <l383>:
     7f4:	50ea6298 	smlalpl	r6, sl, r8, r2

000007f8 <l384>:
     7f8:	40f7e196 	smlalsmi	lr, r7, r6, r1

000007fc <l385>:
     7fc:	20e15696 	smlalcs	r5, r1, r6, r6

00000800 <l386>:
     800:	10eb8596 	smlalne	r8, fp, r6, r5

00000804 <l387>:
     804:	70e92c95 	smlalvc	r2, r9, r5, ip

00000808 <l388>:
     808:	30f82796 	smlalscc	r2, r8, r6, r7

0000080c <l389>:
     80c:	e0f3839c 	smlals	r8, r3, ip, r3

00000810 <l390>:
     810:	40f6329e 	smlalsmi	r3, r6, lr, r2

00000814 <l391>:
     814:	e0fba492 	smlals	sl, fp, r2, r4

00000818 <l392>:
     818:	e0f4639e 	smlals	r6, r4, lr, r3

0000081c <l393>:
     81c:	00f21690 	smlalseq	r1, r2, r0, r6

00000820 <l394>:
     820:	10fc6997 	smlalsne	r6, ip, r7, r9

00000824 <l395>:
     824:	e0f9b892 	smlals	fp, r9, r2, r8

00000828 <l396>:
     828:	90e73e92 	smlalls	r3, r7, r2, lr

0000082c <l397>:
     82c:	e0e46590 	smlal	r6, r4, r0, r5

00000830 <l398>:
     830:	e0f04e98 	smlals	r4, r0, r8, lr

00000834 <l399>:
     834:	20f68294 	smlalscs	r8, r6, r4, r2

00000838 <l400>:
     838:	80fa5b98 	smlalshi	r5, sl, r8, fp

0000083c <l401>:
     83c:	e0fb5399 	smlals	r5, fp, r9, r3

00000840 <l402>:
     840:	e0f73394 	smlals	r3, r7, r4, r3

00000844 <l403>:
     844:	e0e73e9a 	smlal	r3, r7, sl, lr

00000848 <l404>:
     848:	70f2009a 	smlalsvc	r0, r2, sl, r0

0000084c <l405>:
     84c:	e0e1c997 	smlal	ip, r1, r7, r9

00000850 <l406>:
     850:	e0e60298 	smlal	r0, r6, r8, r2

00000854 <l407>:
     854:	d0fcbe92 	smlalsle	fp, ip, r2, lr

00000858 <l408>:
     858:	e0fec890 	smlals	ip, lr, r0, r8

0000085c <l409>:
     85c:	e0f30e92 	smlals	r0, r3, r2, lr

00000860 <l410>:
     860:	70ea559c 	smlalvc	r5, sl, ip, r5

00000864 <l411>:
     864:	a0fb7898 	smlalsge	r7, fp, r8, r8

00000868 <l412>:
     868:	b0ea7a92 	smlallt	r7, sl, r2, sl

0000086c <l413>:
     86c:	e0f5759c 	smlals	r7, r5, ip, r5

00000870 <l414>:
     870:	a0e2e097 	smlalge	lr, r2, r7, r0

00000874 <l415>:
     874:	e0e45693 	smlal	r5, r4, r3, r6

00000878 <l416>:
     878:	a0e8389b 	smlalge	r3, r8, fp, r8

0000087c <l417>:
     87c:	d0eea696 	smlalle	sl, lr, r6, r6

00000880 <l418>:
     880:	40e8b49c 	smlalmi	fp, r8, ip, r4

00000884 <l419>:
     884:	c0fa3896 	smlalsgt	r3, sl, r6, r8

00000888 <l420>:
     888:	e0ec4e93 	smlal	r4, ip, r3, lr

0000088c <l421>:
     88c:	e0e2a89b 	smlal	sl, r2, fp, r8

00000890 <l422>:
     890:	30fbc89a 	smlalscc	ip, fp, sl, r8

00000894 <l423>:
     894:	40fe2491 	smlalsmi	r2, lr, r1, r4

00000898 <l424>:
     898:	a0f4a390 	smlalsge	sl, r4, r0, r3

0000089c <l425>:
     89c:	c0ee8291 	smlalgt	r8, lr, r1, r2

000008a0 <l426>:
     8a0:	90e43192 	smlalls	r3, r4, r2, r1

000008a4 <l427>:
     8a4:	e0e0a391 	smlal	sl, r0, r1, r3

000008a8 <l428>:
     8a8:	00fb0396 	smlalseq	r0, fp, r6, r3

000008ac <l429>:
     8ac:	20f07c91 	smlalscs	r7, r0, r1, ip

000008b0 <l430>:
     8b0:	00f91897 	smlalseq	r1, r9, r7, r8

000008b4 <l431>:
     8b4:	d0fceb96 	smlalsle	lr, ip, r6, fp

000008b8 <l432>:
     8b8:	10f18b97 	smlalsne	r8, r1, r7, fp

000008bc <l433>:
     8bc:	e0ea6592 	smlal	r6, sl, r2, r5

000008c0 <l434>:
     8c0:	e0e74b92 	smlal	r4, r7, r2, fp

000008c4 <l435>:
     8c4:	00e2ae9e 	smlaleq	sl, r2, lr, lr

000008c8 <l436>:
     8c8:	e0f2319e 	smlals	r3, r2, lr, r1

000008cc <l437>:
     8cc:	20eba09c 	smlalcs	sl, fp, ip, r0

000008d0 <l438>:
     8d0:	00e45491 	smlaleq	r5, r4, r1, r4

000008d4 <l439>:
     8d4:	90ec149a 	smlalls	r1, ip, sl, r4

000008d8 <l440>:
     8d8:	40ece19b 	smlalmi	lr, ip, fp, r1

000008dc <l441>:
     8dc:	40e0349c 	smlalmi	r3, r0, ip, r4

000008e0 <l442>:
     8e0:	b0f63a9b 	smlalslt	r3, r6, fp, sl

000008e4 <l443>:
     8e4:	30f4729c 	smlalscc	r7, r4, ip, r2

000008e8 <l444>:
     8e8:	50e14b9e 	smlalpl	r4, r1, lr, fp

000008ec <l445>:
     8ec:	c0e3b791 	smlalgt	fp, r3, r1, r7

000008f0 <l446>:
     8f0:	00e51896 	smlaleq	r1, r5, r6, r8

000008f4 <l447>:
     8f4:	e0e3a191 	smlal	sl, r3, r1, r1

000008f8 <l448>:
     8f8:	90f80293 	smlalsls	r0, r8, r3, r2

000008fc <l449>:
     8fc:	00ebab92 	smlaleq	sl, fp, r2, fp

00000900 <l450>:
     900:	e0f03097 	smlals	r3, r0, r7, r0

00000904 <l451>:
     904:	b0f93594 	smlalslt	r3, r9, r4, r5

00000908 <l452>:
     908:	30fc419e 	smlalscc	r4, ip, lr, r1

0000090c <l453>:
     90c:	90f69890 	smlalsls	r9, r6, r0, r8

00000910 <l454>:
     910:	70fbe794 	smlalsvc	lr, fp, r4, r7

00000914 <l455>:
     914:	40e68b93 	smlalmi	r8, r6, r3, fp

00000918 <l456>:
     918:	b0f7239e 	smlalslt	r2, r7, lr, r3

0000091c <l457>:
     91c:	b0f6ea9b 	smlalslt	lr, r6, fp, sl

00000920 <l458>:
     920:	90f6bb9a 	smlalsls	fp, r6, sl, fp

00000924 <l459>:
     924:	e0ea2997 	smlal	r2, sl, r7, r9

00000928 <l460>:
     928:	60e5b492 	smlalvs	fp, r5, r2, r4

0000092c <l461>:
     92c:	60e7bb93 	smlalvs	fp, r7, r3, fp

00000930 <l462>:
     930:	30f30b9c 	smlalscc	r0, r3, ip, fp

00000934 <l463>:
     934:	d0e94598 	smlalle	r4, r9, r8, r5

00000938 <l464>:
     938:	e0f52693 	smlals	r2, r5, r3, r6

0000093c <l465>:
     93c:	50f17c95 	smlalspl	r7, r1, r5, ip

00000940 <l466>:
     940:	e0ebe49c 	smlal	lr, fp, ip, r4

00000944 <l467>:
     944:	e0e89493 	smlal	r9, r8, r3, r4

00000948 <l468>:
     948:	c0f76292 	smlalsgt	r6, r7, r2, r2

0000094c <l469>:
     94c:	e0e56398 	smlal	r6, r5, r8, r3

00000950 <l470>:
     950:	e0f9b197 	smlals	fp, r9, r7, r1

00000954 <l471>:
     954:	20e46899 	smlalcs	r6, r4, r9, r8

00000958 <l472>:
     958:	90f4569c 	smlalsls	r5, r4, ip, r6

0000095c <l473>:
     95c:	e0ea4499 	smlal	r4, sl, r9, r4

00000960 <l474>:
     960:	e0f7b295 	smlals	fp, r7, r5, r2

00000964 <l475>:
     964:	d0e42c96 	smlalle	r2, r4, r6, ip

00000968 <l476>:
     968:	e0e02799 	smlal	r2, r0, r9, r7

0000096c <l477>:
     96c:	a0e6c995 	smlalge	ip, r6, r5, r9

00000970 <l478>:
     970:	e0eb4998 	smlal	r4, fp, r8, r9

00000974 <l479>:
     974:	90e6749b 	smlalls	r7, r6, fp, r4

00000978 <l480>:
     978:	90e41298 	smlalls	r1, r4, r8, r2

0000097c <l481>:
     97c:	e0e2ab99 	smlal	sl, r2, r9, fp

00000980 <l482>:
     980:	e0f48993 	smlals	r8, r4, r3, r9

00000984 <l483>:
     984:	a0e26097 	smlalge	r6, r2, r7, r0

00000988 <l484>:
     988:	20e0bb9c 	smlalcs	fp, r0, ip, fp

0000098c <l485>:
     98c:	a0f56e97 	smlalsge	r6, r5, r7, lr

00000990 <l486>:
     990:	90fb309a 	smlalsls	r3, fp, sl, r0

00000994 <l487>:
     994:	90e93c98 	smlalls	r3, r9, r8, ip

00000998 <l488>:
     998:	c0eb3591 	smlalgt	r3, fp, r1, r5

0000099c <l489>:
     99c:	a0e95e98 	smlalge	r5, r9, r8, lr

000009a0 <l490>:
     9a0:	e0e4c796 	smlal	ip, r4, r6, r7

000009a4 <l491>:
     9a4:	00e53091 	smlaleq	r3, r5, r1, r0

000009a8 <l492>:
     9a8:	e0ee1996 	smlal	r1, lr, r6, r9

000009ac <l493>:
     9ac:	20e13392 	smlalcs	r3, r1, r2, r3

000009b0 <l494>:
     9b0:	e0e14990 	smlal	r4, r1, r0, r9

000009b4 <l495>:
     9b4:	c0e20298 	smlalgt	r0, r2, r8, r2

000009b8 <l496>:
     9b8:	50e47790 	smlalpl	r7, r4, r0, r7

000009bc <l497>:
     9bc:	e0fec198 	smlals	ip, lr, r8, r1

000009c0 <l498>:
     9c0:	60e1409c 	smlalvs	r4, r1, ip, r0

000009c4 <l499>:
     9c4:	60fbc19e 	smlalsvs	ip, fp, lr, r1

000009c8 <l500>:
     9c8:	e0e84c91 	smlal	r4, r8, r1, ip

000009cc <l501>:
     9cc:	00f93595 	smlalseq	r3, r9, r5, r5

000009d0 <l502>:
     9d0:	60f91495 	smlalsvs	r1, r9, r5, r4

000009d4 <l503>:
     9d4:	a0ec269e 	smlalge	r2, ip, lr, r6

000009d8 <l504>:
     9d8:	90e5b992 	smlalls	fp, r5, r2, r9

000009dc <l505>:
     9dc:	e0e3679a 	smlal	r6, r3, sl, r7

000009e0 <l506>:
     9e0:	b0f30297 	smlalslt	r0, r3, r7, r2

000009e4 <l507>:
     9e4:	a0f81099 	smlalsge	r1, r8, r9, r0

000009e8 <l508>:
     9e8:	b0e7b695 	smlallt	fp, r7, r5, r6

000009ec <l509>:
     9ec:	90e81393 	smlalls	r1, r8, r3, r3

000009f0 <l510>:
     9f0:	40e34698 	smlalmi	r4, r3, r8, r6

000009f4 <l511>:
     9f4:	90f41197 	smlalsls	r1, r4, r7, r1

000009f8 <l512>:
     9f8:	e0eab69e 	smlal	fp, sl, lr, r6

000009fc <l513>:
     9fc:	e0f5939b 	smlals	r9, r5, fp, r3

00000a00 <l514>:
     a00:	e0ee5998 	smlal	r5, lr, r8, r9

00000a04 <l515>:
     a04:	80fe8499 	smlalshi	r8, lr, r9, r4

00000a08 <l516>:
     a08:	a0e37a98 	smlalge	r7, r3, r8, sl

00000a0c <l517>:
     a0c:	10f72293 	smlalsne	r2, r7, r3, r2

00000a10 <l518>:
     a10:	e0eaee97 	smlal	lr, sl, r7, lr

00000a14 <l519>:
     a14:	a0e1a690 	smlalge	sl, r1, r0, r6

00000a18 <l520>:
     a18:	70fa569b 	smlalsvc	r5, sl, fp, r6

00000a1c <l521>:
     a1c:	70fe0496 	smlalsvc	r0, lr, r6, r4

00000a20 <l522>:
     a20:	90f67195 	smlalsls	r7, r6, r5, r1

00000a24 <l523>:
     a24:	e0fac590 	smlals	ip, sl, r0, r5

00000a28 <l524>:
     a28:	b0ec7794 	smlallt	r7, ip, r4, r7

00000a2c <l525>:
     a2c:	80e72b96 	smlalhi	r2, r7, r6, fp

00000a30 <l526>:
     a30:	e0f17495 	smlals	r7, r1, r5, r4

00000a34 <l527>:
     a34:	50f8569e 	smlalspl	r5, r8, lr, r6

00000a38 <l528>:
     a38:	e0eabe90 	smlal	fp, sl, r0, lr

00000a3c <l529>:
     a3c:	e0ea9794 	smlal	r9, sl, r4, r7

00000a40 <l530>:
     a40:	c0f2ca99 	smlalsgt	ip, r2, r9, sl

00000a44 <l531>:
     a44:	e0f67b93 	smlals	r7, r6, r3, fp

00000a48 <l532>:
     a48:	10e7a29e 	smlalne	sl, r7, lr, r2

00000a4c <l533>:
     a4c:	a0e67095 	smlalge	r7, r6, r5, r0

00000a50 <l534>:
     a50:	e0ea6b93 	smlal	r6, sl, r3, fp

00000a54 <l535>:
     a54:	e0fe6399 	smlals	r6, lr, r9, r3

00000a58 <l536>:
     a58:	30e0b996 	smlalcc	fp, r0, r6, r9

00000a5c <l537>:
     a5c:	e0f13690 	smlals	r3, r1, r0, r6

00000a60 <l538>:
     a60:	90e59096 	smlalls	r9, r5, r6, r0

00000a64 <l539>:
     a64:	e0e61399 	smlal	r1, r6, r9, r3

00000a68 <l540>:
     a68:	b0e6ca9b 	smlallt	ip, r6, fp, sl

00000a6c <l541>:
     a6c:	e0feb297 	smlals	fp, lr, r7, r2

00000a70 <l542>:
     a70:	e0f71395 	smlals	r1, r7, r5, r3

00000a74 <l543>:
     a74:	a0f01597 	smlalsge	r1, r0, r7, r5

00000a78 <l544>:
     a78:	a0f9169c 	smlalsge	r1, r9, ip, r6

00000a7c <l545>:
     a7c:	80e32894 	smlalhi	r2, r3, r4, r8

00000a80 <l546>:
     a80:	a0eca699 	smlalge	sl, ip, r9, r6

00000a84 <l547>:
     a84:	70e3e49b 	smlalvc	lr, r3, fp, r4

00000a88 <l548>:
     a88:	70e96897 	smlalvc	r6, r9, r7, r8

00000a8c <l549>:
     a8c:	e0f8ca90 	smlals	ip, r8, r0, sl

00000a90 <l550>:
     a90:	10fe5091 	smlalsne	r5, lr, r1, r0

00000a94 <l551>:
     a94:	40ecb291 	smlalmi	fp, ip, r1, r2

00000a98 <l552>:
     a98:	e0ea2391 	smlal	r2, sl, r1, r3

00000a9c <l553>:
     a9c:	e0fc0591 	smlals	r0, ip, r1, r5

00000aa0 <l554>:
     aa0:	b0f29990 	smlalslt	r9, r2, r0, r9

00000aa4 <l555>:
     aa4:	10f56398 	smlalsne	r6, r5, r8, r3

00000aa8 <l556>:
     aa8:	50fa6094 	smlalspl	r6, sl, r4, r0

00000aac <l557>:
     aac:	60e1a897 	smlalvs	sl, r1, r7, r8

00000ab0 <l558>:
     ab0:	e0f45690 	smlals	r5, r4, r0, r6

00000ab4 <l559>:
     ab4:	b0f8e69a 	smlalslt	lr, r8, sl, r6

00000ab8 <l560>:
     ab8:	e0fe9396 	smlals	r9, lr, r6, r3

00000abc <l561>:
     abc:	10e1ae96 	smlalne	sl, r1, r6, lr

00000ac0 <l562>:
     ac0:	70e01e9b 	smlalvc	r1, r0, fp, lr

00000ac4 <l563>:
     ac4:	e0fa6c99 	smlals	r6, sl, r9, ip

00000ac8 <l564>:
     ac8:	e0e28e95 	smlal	r8, r2, r5, lr

00000acc <l565>:
     acc:	e0e0b59c 	smlal	fp, r0, ip, r5

00000ad0 <l566>:
     ad0:	d0f09a94 	smlalsle	r9, r0, r4, sl

00000ad4 <l567>:
     ad4:	e0f3b292 	smlals	fp, r3, r2, r2

00000ad8 <l568>:
     ad8:	e0f18290 	smlals	r8, r1, r0, r2

00000adc <l569>:
     adc:	e0fa4c9e 	smlals	r4, sl, lr, ip

00000ae0 <l570>:
     ae0:	30e5e090 	smlalcc	lr, r5, r0, r0

00000ae4 <l571>:
     ae4:	00f57a94 	smlalseq	r7, r5, r4, sl

00000ae8 <l572>:
     ae8:	e0f4e490 	smlals	lr, r4, r0, r4

00000aec <l573>:
     aec:	70e0ec95 	smlalvc	lr, r0, r5, ip

00000af0 <l574>:
     af0:	e0fab896 	smlals	fp, sl, r6, r8

00000af4 <l575>:
     af4:	e0e5619c 	smlal	r6, r5, ip, r1

00000af8 <l576>:
     af8:	e0fb0391 	smlals	r0, fp, r1, r3

00000afc <l577>:
     afc:	70e18193 	smlalvc	r8, r1, r3, r1

00000b00 <l578>:
     b00:	e0e29795 	smlal	r9, r2, r5, r7

00000b04 <l579>:
     b04:	80e1c392 	smlalhi	ip, r1, r2, r3

00000b08 <l580>:
     b08:	70e04c91 	smlalvc	r4, r0, r1, ip

00000b0c <l581>:
     b0c:	e0e94393 	smlal	r4, r9, r3, r3

00000b10 <l582>:
     b10:	e0ec8290 	smlal	r8, ip, r0, r2

00000b14 <l583>:
     b14:	e0e82a93 	smlal	r2, r8, r3, sl

00000b18 <l584>:
     b18:	60e8229c 	smlalvs	r2, r8, ip, r2

00000b1c <l585>:
     b1c:	b0fc3e95 	smlalslt	r3, ip, r5, lr

00000b20 <l586>:
     b20:	e0e01799 	smlal	r1, r0, r9, r7

00000b24 <l587>:
     b24:	e0e07596 	smlal	r7, r0, r6, r5

00000b28 <l588>:
     b28:	c0eeb29a 	smlalgt	fp, lr, sl, r2

00000b2c <l589>:
     b2c:	20e72598 	smlalcs	r2, r7, r8, r5

00000b30 <l590>:
     b30:	e0f21896 	smlals	r1, r2, r6, r8

00000b34 <l591>:
     b34:	80f7e894 	smlalshi	lr, r7, r4, r8

00000b38 <l592>:
     b38:	e0e87e91 	smlal	r7, r8, r1, lr

00000b3c <l593>:
     b3c:	10f5419a 	smlalsne	r4, r5, sl, r1

00000b40 <l594>:
     b40:	c0e8519b 	smlalgt	r5, r8, fp, r1

00000b44 <l595>:
     b44:	30e21693 	smlalcc	r1, r2, r3, r6

00000b48 <l596>:
     b48:	e0e5109a 	smlal	r1, r5, sl, r0

00000b4c <l597>:
     b4c:	e0f56697 	smlals	r6, r5, r7, r6

00000b50 <l598>:
     b50:	90e7879e 	smlalls	r8, r7, lr, r7

00000b54 <l599>:
     b54:	e0ecac93 	smlal	sl, ip, r3, ip

00000b58 <l600>:
     b58:	70f6a490 	smlalsvc	sl, r6, r0, r4

00000b5c <l601>:
     b5c:	20eb9b9a 	smlalcs	r9, fp, sl, fp

00000b60 <l602>:
     b60:	80e57b9a 	smlalhi	r7, r5, sl, fp

00000b64 <l603>:
     b64:	e0e0ca92 	smlal	ip, r0, r2, sl

00000b68 <l604>:
     b68:	30e49693 	smlalcc	r9, r4, r3, r6

00000b6c <l605>:
     b6c:	c0f1bc95 	smlalsgt	fp, r1, r5, ip

00000b70 <l606>:
     b70:	00e25291 	smlaleq	r5, r2, r1, r2

00000b74 <l607>:
     b74:	10e2959b 	smlalne	r9, r2, fp, r5

00000b78 <l608>:
     b78:	e0fa2c96 	smlals	r2, sl, r6, ip

00000b7c <l609>:
     b7c:	10f0c99e 	smlalsne	ip, r0, lr, r9

00000b80 <l610>:
     b80:	e0f95190 	smlals	r5, r9, r0, r1

00000b84 <l611>:
     b84:	e0e6e290 	smlal	lr, r6, r0, r2

00000b88 <l612>:
     b88:	10e9b596 	smlalne	fp, r9, r6, r5

00000b8c <l613>:
     b8c:	e0fa1596 	smlals	r1, sl, r6, r5

00000b90 <l614>:
     b90:	10e38992 	smlalne	r8, r3, r2, r9

00000b94 <l615>:
     b94:	30f02791 	smlalscc	r2, r0, r1, r7

00000b98 <l616>:
     b98:	e0e30496 	smlal	r0, r3, r6, r4

00000b9c <l617>:
     b9c:	00e5c397 	smlaleq	ip, r5, r7, r3

00000ba0 <l618>:
     ba0:	e0e8ae97 	smlal	sl, r8, r7, lr

00000ba4 <l619>:
     ba4:	50eaeb98 	smlalpl	lr, sl, r8, fp

00000ba8 <l620>:
     ba8:	e0f97094 	smlals	r7, r9, r4, r0

00000bac <l621>:
     bac:	00ec799a 	smlaleq	r7, ip, sl, r9

00000bb0 <l622>:
     bb0:	e0e15796 	smlal	r5, r1, r6, r7

00000bb4 <l623>:
     bb4:	e0f2ea99 	smlals	lr, r2, r9, sl

00000bb8 <l624>:
     bb8:	e0f3e594 	smlals	lr, r3, r4, r5

00000bbc <l625>:
     bbc:	70f9029b 	smlalsvc	r0, r9, fp, r2

00000bc0 <l626>:
     bc0:	30f4559a 	smlalscc	r5, r4, sl, r5

00000bc4 <l627>:
     bc4:	a0f03a97 	smlalsge	r3, r0, r7, sl

00000bc8 <l628>:
     bc8:	40f0929b 	smlalsmi	r9, r0, fp, r2

00000bcc <l629>:
     bcc:	30f9b092 	smlalscc	fp, r9, r2, r0

00000bd0 <l630>:
     bd0:	80e61295 	smlalhi	r1, r6, r5, r2

00000bd4 <l631>:
     bd4:	70e21b9e 	smlalvc	r1, r2, lr, fp

00000bd8 <l632>:
     bd8:	e0eb4e98 	smlal	r4, fp, r8, lr

00000bdc <l633>:
     bdc:	40fb4b96 	smlalsmi	r4, fp, r6, fp

00000be0 <l634>:
     be0:	d0e49898 	smlalle	r9, r4, r8, r8

00000be4 <l635>:
     be4:	e0f48391 	smlals	r8, r4, r1, r3

00000be8 <l636>:
     be8:	30e6bc97 	smlalcc	fp, r6, r7, ip

00000bec <l637>:
     bec:	c0e2a99e 	smlalgt	sl, r2, lr, r9

00000bf0 <l638>:
     bf0:	e0f73c94 	smlals	r3, r7, r4, ip

00000bf4 <l639>:
     bf4:	50e4e498 	smlalpl	lr, r4, r8, r4

00000bf8 <l640>:
     bf8:	e0f4c697 	smlals	ip, r4, r7, r6

00000bfc <l641>:
     bfc:	b0e41997 	smlallt	r1, r4, r7, r9

00000c00 <l642>:
     c00:	b0eca890 	smlallt	sl, ip, r0, r8

00000c04 <l643>:
     c04:	30e7809a 	smlalcc	r8, r7, sl, r0

00000c08 <l644>:
     c08:	c0e5409b 	smlalgt	r4, r5, fp, r0

00000c0c <l645>:
     c0c:	e0f86c93 	smlals	r6, r8, r3, ip

00000c10 <l646>:
     c10:	e0ec1299 	smlal	r1, ip, r9, r2

00000c14 <l647>:
     c14:	10e1c89a 	smlalne	ip, r1, sl, r8

00000c18 <l648>:
     c18:	d0e4c490 	smlalle	ip, r4, r0, r4

00000c1c <l649>:
     c1c:	20e2c496 	smlalcs	ip, r2, r6, r4

00000c20 <l650>:
     c20:	e0fa7992 	smlals	r7, sl, r2, r9

00000c24 <l651>:
     c24:	e0e6349b 	smlal	r3, r6, fp, r4

00000c28 <l652>:
     c28:	d0e64c95 	smlalle	r4, r6, r5, ip

00000c2c <l653>:
     c2c:	b0f09594 	smlalslt	r9, r0, r4, r5

00000c30 <l654>:
     c30:	20f64c90 	smlalscs	r4, r6, r0, ip

00000c34 <l655>:
     c34:	e0f2b39e 	smlals	fp, r2, lr, r3

00000c38 <l656>:
     c38:	e0ea5e9b 	smlal	r5, sl, fp, lr

00000c3c <l657>:
     c3c:	c0ea2c91 	smlalgt	r2, sl, r1, ip

00000c40 <l658>:
     c40:	00e5ac94 	smlaleq	sl, r5, r4, ip

00000c44 <l659>:
     c44:	10fe8e93 	smlalsne	r8, lr, r3, lr

00000c48 <l660>:
     c48:	e0eec99a 	smlal	ip, lr, sl, r9

00000c4c <l661>:
     c4c:	a0e46393 	smlalge	r6, r4, r3, r3

00000c50 <l662>:
     c50:	d0fe979b 	smlalsle	r9, lr, fp, r7

00000c54 <l663>:
     c54:	30f50c9e 	smlalscc	r0, r5, lr, ip

00000c58 <l664>:
     c58:	40f6499b 	smlalsmi	r4, r6, fp, r9

00000c5c <l665>:
     c5c:	e0ece490 	smlal	lr, ip, r0, r4

00000c60 <l666>:
     c60:	d0e34896 	smlalle	r4, r3, r6, r8

00000c64 <l667>:
     c64:	00e21e9c 	smlaleq	r1, r2, ip, lr

00000c68 <l668>:
     c68:	b0f06e93 	smlalslt	r6, r0, r3, lr

00000c6c <l669>:
     c6c:	a0f71390 	smlalsge	r1, r7, r0, r3

00000c70 <l670>:
     c70:	e0e0149c 	smlal	r1, r0, ip, r4

00000c74 <l671>:
     c74:	e0e4cb9a 	smlal	ip, r4, sl, fp

00000c78 <l672>:
     c78:	90e65798 	smlalls	r5, r6, r8, r7

00000c7c <l673>:
     c7c:	c0f06094 	smlalsgt	r6, r0, r4, r0

00000c80 <l674>:
     c80:	80e36e92 	smlalhi	r6, r3, r2, lr

00000c84 <l675>:
     c84:	60e9b193 	smlalvs	fp, r9, r3, r1

00000c88 <l676>:
     c88:	e0f0619b 	smlals	r6, r0, fp, r1

00000c8c <l677>:
     c8c:	e0f85899 	smlals	r5, r8, r9, r8

00000c90 <l678>:
     c90:	20e86091 	smlalcs	r6, r8, r1, r0

00000c94 <l679>:
     c94:	e0f9c89a 	smlals	ip, r9, sl, r8

00000c98 <l680>:
     c98:	e0f92790 	smlals	r2, r9, r0, r7

00000c9c <l681>:
     c9c:	20e26698 	smlalcs	r6, r2, r8, r6

00000ca0 <l682>:
     ca0:	70f5b89e 	smlalsvc	fp, r5, lr, r8

00000ca4 <l683>:
     ca4:	a0ee0396 	smlalge	r0, lr, r6, r3

00000ca8 <l684>:
     ca8:	b0f2b29e 	smlalslt	fp, r2, lr, r2

00000cac <l685>:
     cac:	e0e2e696 	smlal	lr, r2, r6, r6

00000cb0 <l686>:
     cb0:	80e37c91 	smlalhi	r7, r3, r1, ip

00000cb4 <l687>:
     cb4:	80f74a90 	smlalshi	r4, r7, r0, sl

00000cb8 <l688>:
     cb8:	a0fc0b93 	smlalsge	r0, ip, r3, fp

00000cbc <l689>:
     cbc:	e0eb149a 	smlal	r1, fp, sl, r4

00000cc0 <l690>:
     cc0:	e0fbc49a 	smlals	ip, fp, sl, r4

00000cc4 <l691>:
     cc4:	60e4809e 	smlalvs	r8, r4, lr, r0

00000cc8 <l692>:
     cc8:	90eb0e94 	smlalls	r0, fp, r4, lr

00000ccc <l693>:
     ccc:	e0ec3a96 	smlal	r3, ip, r6, sl

00000cd0 <l694>:
     cd0:	e0e3499c 	smlal	r4, r3, ip, r9

00000cd4 <l695>:
     cd4:	30e6ac93 	smlalcc	sl, r6, r3, ip

00000cd8 <l696>:
     cd8:	00f9529c 	smlalseq	r5, r9, ip, r2

00000cdc <l697>:
     cdc:	e0e9c191 	smlal	ip, r9, r1, r1

00000ce0 <l698>:
     ce0:	a0f18793 	smlalsge	r8, r1, r3, r7

00000ce4 <l699>:
     ce4:	70f91197 	smlalsvc	r1, r9, r7, r1

00000ce8 <l700>:
     ce8:	40f59a90 	smlalsmi	r9, r5, r0, sl

00000cec <l701>:
     cec:	e0e6a692 	smlal	sl, r6, r2, r6

00000cf0 <l702>:
     cf0:	70e92197 	smlalvc	r2, r9, r7, r1

00000cf4 <l703>:
     cf4:	90f71b98 	smlalsls	r1, r7, r8, fp

00000cf8 <l704>:
     cf8:	10fe2e94 	smlalsne	r2, lr, r4, lr

00000cfc <l705>:
     cfc:	30f7a996 	smlalscc	sl, r7, r6, r9

00000d00 <l706>:
     d00:	10f28797 	smlalsne	r8, r2, r7, r7

00000d04 <l707>:
     d04:	e0fc9b95 	smlals	r9, ip, r5, fp

00000d08 <l708>:
     d08:	e0f07099 	smlals	r7, r0, r9, r0

00000d0c <l709>:
     d0c:	e0f60294 	smlals	r0, r6, r4, r2

00000d10 <l710>:
     d10:	90f1c692 	smlalsls	ip, r1, r2, r6

00000d14 <l711>:
     d14:	60fb8c91 	smlalsvs	r8, fp, r1, ip

00000d18 <l712>:
     d18:	60e06192 	smlalvs	r6, r0, r2, r1

00000d1c <l713>:
     d1c:	e0e6a093 	smlal	sl, r6, r3, r0

00000d20 <l714>:
     d20:	20e90a96 	smlalcs	r0, r9, r6, sl

00000d24 <l715>:
     d24:	90fb3596 	smlalsls	r3, fp, r6, r5

00000d28 <l716>:
     d28:	80f36a91 	smlalshi	r6, r3, r1, sl

00000d2c <l717>:
     d2c:	40f27e9c 	smlalsmi	r7, r2, ip, lr

00000d30 <l718>:
     d30:	e0f73b98 	smlals	r3, r7, r8, fp

00000d34 <l719>:
     d34:	70e8b09e 	smlalvc	fp, r8, lr, r0

00000d38 <l720>:
     d38:	e0e98091 	smlal	r8, r9, r1, r0

00000d3c <l721>:
     d3c:	e0e0bb95 	smlal	fp, r0, r5, fp

00000d40 <l722>:
     d40:	d0e21b93 	smlalle	r1, r2, r3, fp

00000d44 <l723>:
     d44:	00f12a93 	smlalseq	r2, r1, r3, sl

00000d48 <l724>:
     d48:	e0f7459a 	smlals	r4, r7, sl, r5

00000d4c <l725>:
     d4c:	e0f0aa9c 	smlals	sl, r0, ip, sl

00000d50 <l726>:
     d50:	e0f62c9b 	smlals	r2, r6, fp, ip

00000d54 <l727>:
     d54:	90e2ae9c 	smlalls	sl, r2, ip, lr

00000d58 <l728>:
     d58:	50e9aa93 	smlalpl	sl, r9, r3, sl

00000d5c <l729>:
     d5c:	e0e4ec98 	smlal	lr, r4, r8, ip

00000d60 <l730>:
     d60:	a0f57896 	smlalsge	r7, r5, r6, r8

00000d64 <l731>:
     d64:	d0eab495 	smlalle	fp, sl, r5, r4

00000d68 <l732>:
     d68:	c0e67199 	smlalgt	r7, r6, r9, r1

00000d6c <l733>:
     d6c:	70f4959c 	smlalsvc	r9, r4, ip, r5

00000d70 <l734>:
     d70:	20e0879b 	smlalcs	r8, r0, fp, r7

00000d74 <l735>:
     d74:	d0f83199 	smlalsle	r3, r8, r9, r1

00000d78 <l736>:
     d78:	10e37694 	smlalne	r7, r3, r4, r6

00000d7c <l737>:
     d7c:	20ee2090 	smlalcs	r2, lr, r0, r0

00000d80 <l738>:
     d80:	a0e64692 	smlalge	r4, r6, r2, r6

00000d84 <l739>:
     d84:	20e23998 	smlalcs	r3, r2, r8, r9

00000d88 <l740>:
     d88:	90fae496 	smlalsls	lr, sl, r6, r4

00000d8c <l741>:
     d8c:	50e4c197 	smlalpl	ip, r4, r7, r1

00000d90 <l742>:
     d90:	80e42a96 	smlalhi	r2, r4, r6, sl

00000d94 <l743>:
     d94:	90ea2e95 	smlalls	r2, sl, r5, lr

00000d98 <l744>:
     d98:	e0eeb696 	smlal	fp, lr, r6, r6

00000d9c <l745>:
     d9c:	20f6ec95 	smlalscs	lr, r6, r5, ip

00000da0 <l746>:
     da0:	c0fece92 	smlalsgt	ip, lr, r2, lr

00000da4 <l747>:
     da4:	e0e38491 	smlal	r8, r3, r1, r4

00000da8 <l748>:
     da8:	e0fc339b 	smlals	r3, ip, fp, r3

00000dac <l749>:
     dac:	70e13497 	smlalvc	r3, r1, r7, r4

00000db0 <l750>:
     db0:	d0f54599 	smlalsle	r4, r5, r9, r5

00000db4 <l751>:
     db4:	e0eb6591 	smlal	r6, fp, r1, r5

00000db8 <l752>:
     db8:	e0fc489e 	smlals	r4, ip, lr, r8

00000dbc <l753>:
     dbc:	e0f31596 	smlals	r1, r3, r6, r5

00000dc0 <l754>:
     dc0:	30fa2398 	smlalscc	r2, sl, r8, r3

00000dc4 <l755>:
     dc4:	30ea1493 	smlalcc	r1, sl, r3, r4

00000dc8 <l756>:
     dc8:	d0f3179b 	smlalsle	r1, r3, fp, r7

00000dcc <l757>:
     dcc:	b0e93196 	smlallt	r3, r9, r6, r1

00000dd0 <l758>:
     dd0:	20f7b096 	smlalscs	fp, r7, r6, r0

00000dd4 <l759>:
     dd4:	c0f51b93 	smlalsgt	r1, r5, r3, fp

00000dd8 <l760>:
     dd8:	80f6ec9c 	smlalshi	lr, r6, ip, ip

00000ddc <l761>:
     ddc:	e0f56e9a 	smlals	r6, r5, sl, lr

00000de0 <l762>:
     de0:	e0e3779c 	smlal	r7, r3, ip, r7

00000de4 <l763>:
     de4:	30f06b99 	smlalscc	r6, r0, r9, fp

00000de8 <l764>:
     de8:	e0e6799e 	smlal	r7, r6, lr, r9

00000dec <l765>:
     dec:	30f94796 	smlalscc	r4, r9, r6, r7

00000df0 <l766>:
     df0:	50e0399b 	smlalpl	r3, r0, fp, r9

00000df4 <l767>:
     df4:	e0e4eb92 	smlal	lr, r4, r2, fp

00000df8 <l768>:
     df8:	e0fa1994 	smlals	r1, sl, r4, r9

00000dfc <l769>:
     dfc:	e0f7699e 	smlals	r6, r7, lr, r9

00000e00 <l770>:
     e00:	e0e4b492 	smlal	fp, r4, r2, r4

00000e04 <l771>:
     e04:	a0e0899a 	smlalge	r8, r0, sl, r9

00000e08 <l772>:
     e08:	90f12495 	smlalsls	r2, r1, r5, r4

00000e0c <l773>:
     e0c:	e0e91396 	smlal	r1, r9, r6, r3

00000e10 <l774>:
     e10:	10ea9c91 	smlalne	r9, sl, r1, ip

00000e14 <l775>:
     e14:	50f76294 	smlalspl	r6, r7, r4, r2

00000e18 <l776>:
     e18:	e0e0729a 	smlal	r7, r0, sl, r2

00000e1c <l777>:
     e1c:	80f19090 	smlalshi	r9, r1, r0, r0

00000e20 <l778>:
     e20:	b0ea5490 	smlallt	r5, sl, r0, r4

00000e24 <l779>:
     e24:	e0f12b9a 	smlals	r2, r1, sl, fp

00000e28 <l780>:
     e28:	20f3109b 	smlalscs	r1, r3, fp, r0

00000e2c <l781>:
     e2c:	b0fa4596 	smlalslt	r4, sl, r6, r5

00000e30 <l782>:
     e30:	e0f7889c 	smlals	r8, r7, ip, r8

00000e34 <l783>:
     e34:	70fa1197 	smlalsvc	r1, sl, r7, r1

00000e38 <l784>:
     e38:	50e98695 	smlalpl	r8, r9, r5, r6

00000e3c <l785>:
     e3c:	40fc6897 	smlalsmi	r6, ip, r7, r8

00000e40 <l786>:
     e40:	50f9a997 	smlalspl	sl, r9, r7, r9

00000e44 <l787>:
     e44:	70f2399b 	smlalsvc	r3, r2, fp, r9

00000e48 <l788>:
     e48:	60e2e791 	smlalvs	lr, r2, r1, r7

00000e4c <l789>:
     e4c:	e0e68295 	smlal	r8, r6, r5, r2

00000e50 <l790>:
     e50:	e0fc0c98 	smlals	r0, ip, r8, ip

00000e54 <l791>:
     e54:	e0f50898 	smlals	r0, r5, r8, r8

00000e58 <l792>:
     e58:	e0eb789a 	smlal	r7, fp, sl, r8

00000e5c <l793>:
     e5c:	20f9079a 	smlalscs	r0, r9, sl, r7

00000e60 <l794>:
     e60:	e0f70a9c 	smlals	r0, r7, ip, sl

00000e64 <l795>:
     e64:	e0f0b09c 	smlals	fp, r0, ip, r0

00000e68 <l796>:
     e68:	e0e0789e 	smlal	r7, r0, lr, r8

00000e6c <l797>:
     e6c:	40f5099b 	smlalsmi	r0, r5, fp, r9

00000e70 <l798>:
     e70:	e0f90395 	smlals	r0, r9, r5, r3

00000e74 <l799>:
     e74:	50fa8792 	smlalspl	r8, sl, r2, r7

00000e78 <l800>:
     e78:	60f9e591 	smlalsvs	lr, r9, r1, r5

00000e7c <l801>:
     e7c:	c0f58a96 	smlalsgt	r8, r5, r6, sl

00000e80 <l802>:
     e80:	c0e6c790 	smlalgt	ip, r6, r0, r7

00000e84 <l803>:
     e84:	e0f1c793 	smlals	ip, r1, r3, r7

00000e88 <l804>:
     e88:	20e58990 	smlalcs	r8, r5, r0, r9

00000e8c <l805>:
     e8c:	60e16190 	smlalvs	r6, r1, r0, r1

00000e90 <l806>:
     e90:	80ec1c94 	smlalhi	r1, ip, r4, ip

00000e94 <l807>:
     e94:	00fc8392 	smlalseq	r8, ip, r2, r3

00000e98 <l808>:
     e98:	00fc8895 	smlalseq	r8, ip, r5, r8

00000e9c <l809>:
     e9c:	80e1c996 	smlalhi	ip, r1, r6, r9

00000ea0 <l810>:
     ea0:	e0f3159c 	smlals	r1, r3, ip, r5

00000ea4 <l811>:
     ea4:	10eb8c94 	smlalne	r8, fp, r4, ip

00000ea8 <l812>:
     ea8:	a0f1c199 	smlalsge	ip, r1, r9, r1

00000eac <l813>:
     eac:	e0fb5297 	smlals	r5, fp, r7, r2

00000eb0 <l814>:
     eb0:	e0e76094 	smlal	r6, r7, r4, r0

00000eb4 <l815>:
     eb4:	90e07b94 	smlalls	r7, r0, r4, fp

00000eb8 <l816>:
     eb8:	e0ec019e 	smlal	r0, ip, lr, r1

00000ebc <l817>:
     ebc:	e0f28095 	smlals	r8, r2, r5, r0

00000ec0 <l818>:
     ec0:	c0e30397 	smlalgt	r0, r3, r7, r3

00000ec4 <l819>:
     ec4:	c0eb3499 	smlalgt	r3, fp, r9, r4

00000ec8 <l820>:
     ec8:	e0eb4c98 	smlal	r4, fp, r8, ip

00000ecc <l821>:
     ecc:	90eb8b9c 	smlalls	r8, fp, ip, fp

00000ed0 <l822>:
     ed0:	80e7499e 	smlalhi	r4, r7, lr, r9

00000ed4 <l823>:
     ed4:	e0e49196 	smlal	r9, r4, r6, r1

00000ed8 <l824>:
     ed8:	e0f4839c 	smlals	r8, r4, ip, r3

00000edc <l825>:
     edc:	90fc6591 	smlalsls	r6, ip, r1, r5

00000ee0 <l826>:
     ee0:	50ec3797 	smlalpl	r3, ip, r7, r7

00000ee4 <l827>:
     ee4:	e0fceb99 	smlals	lr, ip, r9, fp

00000ee8 <l828>:
     ee8:	e0f2b490 	smlals	fp, r2, r0, r4

00000eec <l829>:
     eec:	e0fa8796 	smlals	r8, sl, r6, r7

00000ef0 <l830>:
     ef0:	70fc6a92 	smlalsvc	r6, ip, r2, sl

00000ef4 <l831>:
     ef4:	e0f05e98 	smlals	r5, r0, r8, lr

00000ef8 <l832>:
     ef8:	e0fb3290 	smlals	r3, fp, r0, r2

00000efc <l833>:
     efc:	50fce79a 	smlalspl	lr, ip, sl, r7

00000f00 <l834>:
     f00:	60f50791 	smlalsvs	r0, r5, r1, r7

00000f04 <l835>:
     f04:	e0f72499 	smlals	r2, r7, r9, r4

00000f08 <l836>:
     f08:	b0f96c98 	smlalslt	r6, r9, r8, ip

00000f0c <l837>:
     f0c:	e0f8aa9c 	smlals	sl, r8, ip, sl

00000f10 <l838>:
     f10:	e0f82295 	smlals	r2, r8, r5, r2

00000f14 <l839>:
     f14:	e0f9589e 	smlals	r5, r9, lr, r8

00000f18 <l840>:
     f18:	60e52298 	smlalvs	r2, r5, r8, r2

00000f1c <l841>:
     f1c:	b0f68594 	smlalslt	r8, r6, r4, r5

00000f20 <l842>:
     f20:	e0f24593 	smlals	r4, r2, r3, r5

00000f24 <l843>:
     f24:	c0f27498 	smlalsgt	r7, r2, r8, r4

00000f28 <l844>:
     f28:	60eab995 	smlalvs	fp, sl, r5, r9

00000f2c <l845>:
     f2c:	e0f7959a 	smlals	r9, r7, sl, r5

00000f30 <l846>:
     f30:	60fae499 	smlalsvs	lr, sl, r9, r4

00000f34 <l847>:
     f34:	b0f1a799 	smlalslt	sl, r1, r9, r7

00000f38 <l848>:
     f38:	40ee5999 	smlalmi	r5, lr, r9, r9

00000f3c <l849>:
     f3c:	e0fa9291 	smlals	r9, sl, r1, r2

00000f40 <l850>:
     f40:	a0f20b94 	smlalsge	r0, r2, r4, fp

00000f44 <l851>:
     f44:	e0f57494 	smlals	r7, r5, r4, r4

00000f48 <l852>:
     f48:	e0f5e692 	smlals	lr, r5, r2, r6

00000f4c <l853>:
     f4c:	e0e64390 	smlal	r4, r6, r0, r3

00000f50 <l854>:
     f50:	e0eb879c 	smlal	r8, fp, ip, r7

00000f54 <l855>:
     f54:	00e07295 	smlaleq	r7, r0, r5, r2

00000f58 <l856>:
     f58:	c0eb959c 	smlalgt	r9, fp, ip, r5

00000f5c <l857>:
     f5c:	b0f8c796 	smlalslt	ip, r8, r6, r7

00000f60 <l858>:
     f60:	e0ea6c90 	smlal	r6, sl, r0, ip

00000f64 <l859>:
     f64:	c0e19c9e 	smlalgt	r9, r1, lr, ip

00000f68 <l860>:
     f68:	e0e2b59a 	smlal	fp, r2, sl, r5

00000f6c <l861>:
     f6c:	e0e1339a 	smlal	r3, r1, sl, r3

00000f70 <l862>:
     f70:	e0ea0791 	smlal	r0, sl, r1, r7

00000f74 <l863>:
     f74:	40e56391 	smlalmi	r6, r5, r1, r3

00000f78 <l864>:
     f78:	c0fc4b96 	smlalsgt	r4, ip, r6, fp

00000f7c <l865>:
     f7c:	b0e7a796 	smlallt	sl, r7, r6, r7

00000f80 <l866>:
     f80:	30f30999 	smlalscc	r0, r3, r9, r9

00000f84 <l867>:
     f84:	40e23a9b 	smlalmi	r3, r2, fp, sl

00000f88 <l868>:
     f88:	20e19a9e 	smlalcs	r9, r1, lr, sl

00000f8c <l869>:
     f8c:	e0f76298 	smlals	r6, r7, r8, r2

00000f90 <l870>:
     f90:	e0fb539c 	smlals	r5, fp, ip, r3

00000f94 <l871>:
     f94:	e0e74096 	smlal	r4, r7, r6, r0

00000f98 <l872>:
     f98:	70fa059e 	smlalsvc	r0, sl, lr, r5

00000f9c <l873>:
     f9c:	00f50091 	smlalseq	r0, r5, r1, r0

00000fa0 <l874>:
     fa0:	40e0b499 	smlalmi	fp, r0, r9, r4

00000fa4 <l875>:
     fa4:	d0f5c594 	smlalsle	ip, r5, r4, r5

00000fa8 <l876>:
     fa8:	00f09b9e 	smlalseq	r9, r0, lr, fp

00000fac <l877>:
     fac:	b0ec159a 	smlallt	r1, ip, sl, r5

00000fb0 <l878>:
     fb0:	e0e34099 	smlal	r4, r3, r9, r0

00000fb4 <l879>:
     fb4:	70e6a89b 	smlalvc	sl, r6, fp, r8

00000fb8 <l880>:
     fb8:	b0e7539e 	smlallt	r5, r7, lr, r3

00000fbc <l881>:
     fbc:	50f5c990 	smlalspl	ip, r5, r0, r9

00000fc0 <l882>:
     fc0:	e0e42e9c 	smlal	r2, r4, ip, lr

00000fc4 <l883>:
     fc4:	e0eca995 	smlal	sl, ip, r5, r9

00000fc8 <l884>:
     fc8:	d0e0c39e 	smlalle	ip, r0, lr, r3

00000fcc <l885>:
     fcc:	e0ea5698 	smlal	r5, sl, r8, r6

00000fd0 <l886>:
     fd0:	e0f7eb98 	smlals	lr, r7, r8, fp

00000fd4 <l887>:
     fd4:	e0e56e99 	smlal	r6, r5, r9, lr

00000fd8 <l888>:
     fd8:	40e06397 	smlalmi	r6, r0, r7, r3

00000fdc <l889>:
     fdc:	30f9c89a 	smlalscc	ip, r9, sl, r8

00000fe0 <l890>:
     fe0:	50f7c694 	smlalspl	ip, r7, r4, r6

00000fe4 <l891>:
     fe4:	c0f2a69e 	smlalsgt	sl, r2, lr, r6

00000fe8 <l892>:
     fe8:	e0f6019a 	smlals	r0, r6, sl, r1

00000fec <l893>:
     fec:	70e2e79b 	smlalvc	lr, r2, fp, r7

00000ff0 <l894>:
     ff0:	d0f98493 	smlalsle	r8, r9, r3, r4

00000ff4 <l895>:
     ff4:	70fe6390 	smlalsvc	r6, lr, r0, r3

00000ff8 <l896>:
     ff8:	40f0209a 	smlalsmi	r2, r0, sl, r0

00000ffc <l897>:
     ffc:	80fa3394 	smlalshi	r3, sl, r4, r3

00001000 <l898>:
    1000:	a0f8089a 	smlalsge	r0, r8, sl, r8

00001004 <l899>:
    1004:	e0f29096 	smlals	r9, r2, r6, r0

00001008 <l900>:
    1008:	e0f0829a 	smlals	r8, r0, sl, r2

0000100c <l901>:
    100c:	e0f6939a 	smlals	r9, r6, sl, r3

00001010 <l902>:
    1010:	80f7b690 	smlalshi	fp, r7, r0, r6

00001014 <l903>:
    1014:	00e8a792 	smlaleq	sl, r8, r2, r7

00001018 <l904>:
    1018:	40f07b99 	smlalsmi	r7, r0, r9, fp

0000101c <l905>:
    101c:	20f9b592 	smlalscs	fp, r9, r2, r5

00001020 <l906>:
    1020:	e0e7049b 	smlal	r0, r7, fp, r4

00001024 <l907>:
    1024:	e0f97994 	smlals	r7, r9, r4, r9

00001028 <l908>:
    1028:	30e7899b 	smlalcc	r8, r7, fp, r9

0000102c <l909>:
    102c:	90ea3e92 	smlalls	r3, sl, r2, lr

00001030 <l910>:
    1030:	e0e90195 	smlal	r0, r9, r5, r1

00001034 <l911>:
    1034:	10e8949e 	smlalne	r9, r8, lr, r4

00001038 <l912>:
    1038:	e0f27c93 	smlals	r7, r2, r3, ip

0000103c <l913>:
    103c:	d0e9369e 	smlalle	r3, r9, lr, r6

00001040 <l914>:
    1040:	e0ea7594 	smlal	r7, sl, r4, r5

00001044 <l915>:
    1044:	20ea8a95 	smlalcs	r8, sl, r5, sl

00001048 <l916>:
    1048:	e0e64598 	smlal	r4, r6, r8, r5

0000104c <l917>:
    104c:	c0fab198 	smlalsgt	fp, sl, r8, r1

00001050 <l918>:
    1050:	e0f76793 	smlals	r6, r7, r3, r7

00001054 <l919>:
    1054:	e0ea2194 	smlal	r2, sl, r4, r1

00001058 <l920>:
    1058:	b0e64292 	smlallt	r4, r6, r2, r2

0000105c <l921>:
    105c:	b0febe97 	smlalslt	fp, lr, r7, lr

00001060 <l922>:
    1060:	e0f8c892 	smlals	ip, r8, r2, r8

00001064 <l923>:
    1064:	e0f56092 	smlals	r6, r5, r2, r0

00001068 <l924>:
    1068:	e0f18c92 	smlals	r8, r1, r2, ip

0000106c <l925>:
    106c:	a0fba193 	smlalsge	sl, fp, r3, r1

00001070 <l926>:
    1070:	70e6ac9b 	smlalvc	sl, r6, fp, ip

00001074 <l927>:
    1074:	d0f7849c 	smlalsle	r8, r7, ip, r4

00001078 <l928>:
    1078:	90e49a90 	smlalls	r9, r4, r0, sl

0000107c <l929>:
    107c:	d0e48695 	smlalle	r8, r4, r5, r6

00001080 <l930>:
    1080:	d0e31692 	smlalle	r1, r3, r2, r6

00001084 <l931>:
    1084:	e0f0719e 	smlals	r7, r0, lr, r1

00001088 <l932>:
    1088:	b0e17394 	smlallt	r7, r1, r4, r3

0000108c <l933>:
    108c:	e0e51793 	smlal	r1, r5, r3, r7

00001090 <l934>:
    1090:	e0ece392 	smlal	lr, ip, r2, r3

00001094 <l935>:
    1094:	e0f12097 	smlals	r2, r1, r7, r0

00001098 <l936>:
    1098:	a0e20c98 	smlalge	r0, r2, r8, ip

0000109c <l937>:
    109c:	e0f1a195 	smlals	sl, r1, r5, r1

000010a0 <l938>:
    10a0:	c0eb519a 	smlalgt	r5, fp, sl, r1

000010a4 <l939>:
    10a4:	e0e9b192 	smlal	fp, r9, r2, r1

000010a8 <l940>:
    10a8:	90e83e94 	smlalls	r3, r8, r4, lr

000010ac <l941>:
    10ac:	e0f7699e 	smlals	r6, r7, lr, r9

000010b0 <l942>:
    10b0:	e0ea7393 	smlal	r7, sl, r3, r3

000010b4 <l943>:
    10b4:	10ee6a98 	smlalne	r6, lr, r8, sl

000010b8 <l944>:
    10b8:	b0fc569a 	smlalslt	r5, ip, sl, r6

000010bc <l945>:
    10bc:	80f8eb9b 	smlalshi	lr, r8, fp, fp

000010c0 <l946>:
    10c0:	e0ea4c99 	smlal	r4, sl, r9, ip

000010c4 <l947>:
    10c4:	e0f21a99 	smlals	r1, r2, r9, sl

000010c8 <l948>:
    10c8:	90f41a9e 	smlalsls	r1, r4, lr, sl

000010cc <l949>:
    10cc:	90f96693 	smlalsls	r6, r9, r3, r6

000010d0 <l950>:
    10d0:	e0ea0492 	smlal	r0, sl, r2, r4

000010d4 <l951>:
    10d4:	20e7ba99 	smlalcs	fp, r7, r9, sl

000010d8 <l952>:
    10d8:	50f8e796 	smlalspl	lr, r8, r6, r7

000010dc <l953>:
    10dc:	40f9809e 	smlalsmi	r8, r9, lr, r0

000010e0 <l954>:
    10e0:	e0f15793 	smlals	r5, r1, r3, r7

000010e4 <l955>:
    10e4:	e0f1b090 	smlals	fp, r1, r0, r0

000010e8 <l956>:
    10e8:	00e30098 	smlaleq	r0, r3, r8, r0

000010ec <l957>:
    10ec:	d0fe5799 	smlalsle	r5, lr, r9, r7

000010f0 <l958>:
    10f0:	e0fc149e 	smlals	r1, ip, lr, r4

000010f4 <l959>:
    10f4:	e0fac899 	smlals	ip, sl, r9, r8

000010f8 <l960>:
    10f8:	e0e14c98 	smlal	r4, r1, r8, ip

000010fc <l961>:
    10fc:	40ea4b93 	smlalmi	r4, sl, r3, fp

00001100 <l962>:
    1100:	60f6a390 	smlalsvs	sl, r6, r0, r3

00001104 <l963>:
    1104:	e0f7c798 	smlals	ip, r7, r8, r7

00001108 <l964>:
    1108:	e0ec289a 	smlal	r2, ip, sl, r8

0000110c <l965>:
    110c:	40fe0998 	smlalsmi	r0, lr, r8, r9

00001110 <l966>:
    1110:	e0f96e95 	smlals	r6, r9, r5, lr

00001114 <l967>:
    1114:	90e83590 	smlalls	r3, r8, r0, r5

00001118 <l968>:
    1118:	e0e3e498 	smlal	lr, r3, r8, r4

0000111c <l969>:
    111c:	e0fec393 	smlals	ip, lr, r3, r3

00001120 <l970>:
    1120:	e0eca89e 	smlal	sl, ip, lr, r8

00001124 <l971>:
    1124:	50f07895 	smlalspl	r7, r0, r5, r8

00001128 <l972>:
    1128:	e0fbc89a 	smlals	ip, fp, sl, r8

0000112c <l973>:
    112c:	00f54c9e 	smlalseq	r4, r5, lr, ip

00001130 <l974>:
    1130:	e0fc1592 	smlals	r1, ip, r2, r5

00001134 <l975>:
    1134:	30f43298 	smlalscc	r3, r4, r8, r2

00001138 <l976>:
    1138:	e0eb8893 	smlal	r8, fp, r3, r8

0000113c <l977>:
    113c:	70fe1e94 	smlalsvc	r1, lr, r4, lr

00001140 <l978>:
    1140:	b0f1249e 	smlalslt	r2, r1, lr, r4

00001144 <l979>:
    1144:	e0fa3699 	smlals	r3, sl, r9, r6

00001148 <l980>:
    1148:	40f89091 	smlalsmi	r9, r8, r1, r0

0000114c <l981>:
    114c:	60e9ea92 	smlalvs	lr, r9, r2, sl

00001150 <l982>:
    1150:	80e32999 	smlalhi	r2, r3, r9, r9

00001154 <l983>:
    1154:	00fc7091 	smlalseq	r7, ip, r1, r0

00001158 <l984>:
    1158:	e0eb0191 	smlal	r0, fp, r1, r1

0000115c <l985>:
    115c:	80e9219b 	smlalhi	r2, r9, fp, r1

00001160 <l986>:
    1160:	e0ee089c 	smlal	r0, lr, ip, r8

00001164 <l987>:
    1164:	d0f69097 	smlalsle	r9, r6, r7, r0

00001168 <l988>:
    1168:	40f9069a 	smlalsmi	r0, r9, sl, r6

0000116c <l989>:
    116c:	e0f46192 	smlals	r6, r4, r2, r1

00001170 <l990>:
    1170:	10f15896 	smlalsne	r5, r1, r6, r8

00001174 <l991>:
    1174:	20e2149e 	smlalcs	r1, r2, lr, r4

00001178 <l992>:
    1178:	e0ec0391 	smlal	r0, ip, r1, r3

0000117c <l993>:
    117c:	40e9269a 	smlalmi	r2, r9, sl, r6

00001180 <l994>:
    1180:	e0f1b396 	smlals	fp, r1, r6, r3

00001184 <l995>:
    1184:	50e7bb9a 	smlalpl	fp, r7, sl, fp

00001188 <l996>:
    1188:	10e0b898 	smlalne	fp, r0, r8, r8

0000118c <l997>:
    118c:	e0e4539c 	smlal	r5, r4, ip, r3

00001190 <l998>:
    1190:	50f59b91 	smlalspl	r9, r5, r1, fp

00001194 <l999>:
    1194:	90fc3492 	smlalsls	r3, ip, r2, r4

00001198 <l1000>:
    1198:	e0fc8b97 	smlals	r8, ip, r7, fp

0000119c <end>:
    119c:	eafffffe 	b	119c <end>
