
smull_1000.o:     file format elf32-littlearm


Disassembly of section .text:

00000000 <main>:
       0:	e05f000f 	subs	r0, pc, pc
       4:	e59fd000 	ldr	sp, [pc]	; c <val>
       8:	ea000000 	b	10 <next>

0000000c <val>:
       c:	000ffff0 	.word	0x000ffff0

00000010 <next>:
      10:	e59f1000 	ldr	r1, [pc]	; 18 <val1>
      14:	ea000000 	b	1c <next1>

00000018 <val1>:
      18:	14b21548 	.word	0x14b21548

0000001c <next1>:
      1c:	e59f2000 	ldr	r2, [pc]	; 24 <val2>
      20:	ea000000 	b	28 <next2>

00000024 <val2>:
      24:	e24b2c24 	.word	0xe24b2c24

00000028 <next2>:
      28:	e59f3000 	ldr	r3, [pc]	; 30 <val3>
      2c:	ea000000 	b	34 <next3>

00000030 <val3>:
      30:	dc8e3043 	.word	0xdc8e3043

00000034 <next3>:
      34:	e59f4000 	ldr	r4, [pc]	; 3c <val4>
      38:	ea000000 	b	40 <next4>

0000003c <val4>:
      3c:	10b43f9f 	.word	0x10b43f9f

00000040 <next4>:
      40:	e59f5000 	ldr	r5, [pc]	; 48 <val5>
      44:	ea000000 	b	4c <next5>

00000048 <val5>:
      48:	ea3ad4ac 	.word	0xea3ad4ac

0000004c <next5>:
      4c:	e59f6000 	ldr	r6, [pc]	; 54 <val6>
      50:	ea000000 	b	58 <next6>

00000054 <val6>:
      54:	66e8f586 	.word	0x66e8f586

00000058 <next6>:
      58:	e59f7000 	ldr	r7, [pc]	; 60 <val7>
      5c:	ea000000 	b	64 <next7>

00000060 <val7>:
      60:	f8de5e83 	.word	0xf8de5e83

00000064 <next7>:
      64:	e59f8000 	ldr	r8, [pc]	; 6c <val8>
      68:	ea000000 	b	70 <next8>

0000006c <val8>:
      6c:	d801d0cd 	.word	0xd801d0cd

00000070 <next8>:
      70:	e59f9000 	ldr	r9, [pc]	; 78 <val9>
      74:	ea000000 	b	7c <next9>

00000078 <val9>:
      78:	63b6f3f1 	.word	0x63b6f3f1

0000007c <next9>:
      7c:	e59fa000 	ldr	sl, [pc]	; 84 <val10>
      80:	ea000000 	b	88 <next10>

00000084 <val10>:
      84:	97a4078b 	.word	0x97a4078b

00000088 <next10>:
      88:	e59fb000 	ldr	fp, [pc]	; 90 <val11>
      8c:	ea000000 	b	94 <next11>

00000090 <val11>:
      90:	8211acfe 	.word	0x8211acfe

00000094 <next11>:
      94:	e59fc000 	ldr	ip, [pc]	; 9c <val12>
      98:	ea000000 	b	a0 <next12>

0000009c <val12>:
      9c:	612f6725 	.word	0x612f6725

000000a0 <next12>:
      a0:	e59fe000 	ldr	lr, [pc]	; a8 <val14>
      a4:	ea000000 	b	ac <next14>

000000a8 <val14>:
      a8:	f7c758a1 	.word	0xf7c758a1

000000ac <next14>:
      ac:	e59f1000 	ldr	r1, [pc]	; b4 <val15>
      b0:	ea000000 	b	b8 <next15>

000000b4 <val15>:
      b4:	0cc11985 	.word	0x0cc11985

000000b8 <next15>:
      b8:	e58d1000 	str	r1, [sp]
      bc:	e59f1000 	ldr	r1, [pc]	; c4 <val16>
      c0:	ea000000 	b	c8 <next16>

000000c4 <val16>:
      c4:	2efb4611 	.word	0x2efb4611

000000c8 <next16>:
      c8:	e50d1004 	str	r1, [sp, #-4]
      cc:	e59f1000 	ldr	r1, [pc]	; d4 <val17>
      d0:	ea000000 	b	d8 <next17>

000000d4 <val17>:
      d4:	21ffbd34 	.word	0x21ffbd34

000000d8 <next17>:
      d8:	e50d1008 	str	r1, [sp, #-8]
      dc:	e59f1000 	ldr	r1, [pc]	; e4 <val18>
      e0:	ea000000 	b	e8 <next18>

000000e4 <val18>:
      e4:	42f47758 	.word	0x42f47758

000000e8 <next18>:
      e8:	e50d100c 	str	r1, [sp, #-12]
      ec:	e59f1000 	ldr	r1, [pc]	; f4 <val19>
      f0:	ea000000 	b	f8 <next19>

000000f4 <val19>:
      f4:	6f8a5399 	.word	0x6f8a5399

000000f8 <next19>:
      f8:	e50d1010 	str	r1, [sp, #-16]
      fc:	e59f1000 	ldr	r1, [pc]	; 104 <val20>
     100:	ea000000 	b	108 <next20>

00000104 <val20>:
     104:	5683d9ac 	.word	0x5683d9ac

00000108 <next20>:
     108:	e50d1014 	str	r1, [sp, #-20]
     10c:	e59f1000 	ldr	r1, [pc]	; 114 <val21>
     110:	ea000000 	b	118 <next21>

00000114 <val21>:
     114:	0f8608cd 	.word	0x0f8608cd

00000118 <next21>:
     118:	e50d1018 	str	r1, [sp, #-24]
     11c:	e59f1000 	ldr	r1, [pc]	; 124 <val22>
     120:	ea000000 	b	128 <next22>

00000124 <val22>:
     124:	33aa7064 	.word	0x33aa7064

00000128 <next22>:
     128:	e50d101c 	str	r1, [sp, #-28]
     12c:	e59f1000 	ldr	r1, [pc]	; 134 <val23>
     130:	ea000000 	b	138 <next23>

00000134 <val23>:
     134:	a5703aa7 	.word	0xa5703aa7

00000138 <next23>:
     138:	e50d1020 	str	r1, [sp, #-32]
     13c:	e59f1000 	ldr	r1, [pc]	; 144 <val24>
     140:	ea000000 	b	148 <next24>

00000144 <val24>:
     144:	c103b1c6 	.word	0xc103b1c6

00000148 <next24>:
     148:	e50d1024 	str	r1, [sp, #-36]	; 0x24
     14c:	e59f1000 	ldr	r1, [pc]	; 154 <val25>
     150:	ea000000 	b	158 <next25>

00000154 <val25>:
     154:	c8d7d903 	.word	0xc8d7d903

00000158 <next25>:
     158:	e50d1028 	str	r1, [sp, #-40]	; 0x28
     15c:	e59f1000 	ldr	r1, [pc]	; 164 <val26>
     160:	ea000000 	b	168 <next26>

00000164 <val26>:
     164:	49b51d33 	.word	0x49b51d33

00000168 <next26>:
     168:	e50d102c 	str	r1, [sp, #-44]	; 0x2c
     16c:	e59f1000 	ldr	r1, [pc]	; 174 <val27>
     170:	ea000000 	b	178 <next27>

00000174 <val27>:
     174:	26bbd0e2 	.word	0x26bbd0e2

00000178 <next27>:
     178:	e50d1030 	str	r1, [sp, #-48]	; 0x30
     17c:	e59f1000 	ldr	r1, [pc]	; 184 <val28>
     180:	ea000000 	b	188 <next28>

00000184 <val28>:
     184:	a1bb7252 	.word	0xa1bb7252

00000188 <next28>:
     188:	e50d1034 	str	r1, [sp, #-52]	; 0x34
     18c:	e59f1000 	ldr	r1, [pc]	; 194 <val29>
     190:	ea000000 	b	198 <next29>

00000194 <val29>:
     194:	bedd42ca 	.word	0xbedd42ca

00000198 <next29>:
     198:	e50d1038 	str	r1, [sp, #-56]	; 0x38
     19c:	e59f1000 	ldr	r1, [pc]	; 1a4 <val30>
     1a0:	ea000000 	b	1a8 <next30>

000001a4 <val30>:
     1a4:	25233514 	.word	0x25233514

000001a8 <next30>:
     1a8:	e50d103c 	str	r1, [sp, #-60]	; 0x3c
     1ac:	e59f1000 	ldr	r1, [pc]	; 1b4 <val31>
     1b0:	ea000000 	b	1b8 <next31>

000001b4 <val31>:
     1b4:	f2a4c91b 	.word	0xf2a4c91b

000001b8 <next31>:
     1b8:	e50d1040 	str	r1, [sp, #-64]	; 0x40
     1bc:	e59f1000 	ldr	r1, [pc]	; 1c4 <val32>
     1c0:	ea000000 	b	1c8 <next32>

000001c4 <val32>:
     1c4:	c3365047 	.word	0xc3365047

000001c8 <next32>:
     1c8:	e50d1044 	str	r1, [sp, #-68]	; 0x44
     1cc:	e59f1000 	ldr	r1, [pc]	; 1d4 <val33>
     1d0:	ea000000 	b	1d8 <next33>

000001d4 <val33>:
     1d4:	daa25c73 	.word	0xdaa25c73

000001d8 <next33>:
     1d8:	e50d1048 	str	r1, [sp, #-72]	; 0x48
     1dc:	e59f1000 	ldr	r1, [pc]	; 1e4 <val34>
     1e0:	ea000000 	b	1e8 <next34>

000001e4 <val34>:
     1e4:	c84574dc 	.word	0xc84574dc

000001e8 <next34>:
     1e8:	e50d104c 	str	r1, [sp, #-76]	; 0x4c
     1ec:	e59f1000 	ldr	r1, [pc]	; 1f4 <val35>
     1f0:	ea000000 	b	1f8 <next35>

000001f4 <val35>:
     1f4:	3e6583fa 	.word	0x3e6583fa

000001f8 <next35>:
     1f8:	e50d1050 	str	r1, [sp, #-80]	; 0x50

000001fc <l1>:
     1fc:	e0c2e999 	smull	lr, r2, r9, r9

00000200 <l2>:
     200:	e0c6ab94 	smull	sl, r6, r4, fp

00000204 <l3>:
     204:	e0ce4e96 	smull	r4, lr, r6, lr

00000208 <l4>:
     208:	e0c6c79a 	smull	ip, r6, sl, r7

0000020c <l5>:
     20c:	20c56b9c 	smullcs	r6, r5, ip, fp

00000210 <l6>:
     210:	b0d2069c 	smullslt	r0, r2, ip, r6

00000214 <l7>:
     214:	a0c84590 	smullge	r4, r8, r0, r5

00000218 <l8>:
     218:	d0d3be95 	smullsle	fp, r3, r5, lr

0000021c <l9>:
     21c:	e0d14999 	smulls	r4, r1, r9, r9

00000220 <l10>:
     220:	e0d63994 	smulls	r3, r6, r4, r9

00000224 <l11>:
     224:	e0d42395 	smulls	r2, r4, r5, r3

00000228 <l12>:
     228:	10d5b791 	smullsne	fp, r5, r1, r7

0000022c <l13>:
     22c:	70cca992 	smullvc	sl, ip, r2, r9

00000230 <l14>:
     230:	40c43a96 	smullmi	r3, r4, r6, sl

00000234 <l15>:
     234:	e0d2089b 	smulls	r0, r2, fp, r8

00000238 <l16>:
     238:	d0c21397 	smullle	r1, r2, r7, r3

0000023c <l17>:
     23c:	50d6e990 	smullspl	lr, r6, r0, r9

00000240 <l18>:
     240:	e0d2929e 	smulls	r9, r2, lr, r2

00000244 <l19>:
     244:	e0d56094 	smulls	r6, r5, r4, r0

00000248 <l20>:
     248:	e0de3e90 	smulls	r3, lr, r0, lr

0000024c <l21>:
     24c:	e0c9e495 	smull	lr, r9, r5, r4

00000250 <l22>:
     250:	90d67495 	smullsls	r7, r6, r5, r4

00000254 <l23>:
     254:	d0de5a97 	smullsle	r5, lr, r7, sl

00000258 <l24>:
     258:	a0dc329e 	smullsge	r3, ip, lr, r2

0000025c <l25>:
     25c:	e0d50c9a 	smulls	r0, r5, sl, ip

00000260 <l26>:
     260:	e0cb2e98 	smull	r2, fp, r8, lr

00000264 <l27>:
     264:	e0c13c9b 	smull	r3, r1, fp, ip

00000268 <l28>:
     268:	e0d83597 	smulls	r3, r8, r7, r5

0000026c <l29>:
     26c:	50daee9c 	smullspl	lr, sl, ip, lr

00000270 <l30>:
     270:	50d4b093 	smullspl	fp, r4, r3, r0

00000274 <l31>:
     274:	90c86994 	smullls	r6, r8, r4, r9

00000278 <l32>:
     278:	e0d4b395 	smulls	fp, r4, r5, r3

0000027c <l33>:
     27c:	e0cb4598 	smull	r4, fp, r8, r5

00000280 <l34>:
     280:	60d13496 	smullsvs	r3, r1, r6, r4

00000284 <l35>:
     284:	c0d52298 	smullsgt	r2, r5, r8, r2

00000288 <l36>:
     288:	e0c61998 	smull	r1, r6, r8, r9

0000028c <l37>:
     28c:	d0c28c9b 	smullle	r8, r2, fp, ip

00000290 <l38>:
     290:	e0dc5199 	smulls	r5, ip, r9, r1

00000294 <l39>:
     294:	e0d2969c 	smulls	r9, r2, ip, r6

00000298 <l40>:
     298:	c0c9ce9e 	smullgt	ip, r9, lr, lr

0000029c <l41>:
     29c:	80c8c793 	smullhi	ip, r8, r3, r7

000002a0 <l42>:
     2a0:	90c5e792 	smullls	lr, r5, r2, r7

000002a4 <l43>:
     2a4:	e0c92395 	smull	r2, r9, r5, r3

000002a8 <l44>:
     2a8:	e0c3459e 	smull	r4, r3, lr, r5

000002ac <l45>:
     2ac:	40d61c99 	smullsmi	r1, r6, r9, ip

000002b0 <l46>:
     2b0:	10c06a99 	smullne	r6, r0, r9, sl

000002b4 <l47>:
     2b4:	e0c31490 	smull	r1, r3, r0, r4

000002b8 <l48>:
     2b8:	e0c13899 	smull	r3, r1, r9, r8

000002bc <l49>:
     2bc:	e0c07396 	smull	r7, r0, r6, r3

000002c0 <l50>:
     2c0:	e0c08796 	smull	r8, r0, r6, r7

000002c4 <l51>:
     2c4:	e0c0e59b 	smull	lr, r0, fp, r5

000002c8 <l52>:
     2c8:	e0c06a9e 	smull	r6, r0, lr, sl

000002cc <l53>:
     2cc:	e0de1190 	smulls	r1, lr, r0, r1

000002d0 <l54>:
     2d0:	e0cb6298 	smull	r6, fp, r8, r2

000002d4 <l55>:
     2d4:	e0d24b98 	smulls	r4, r2, r8, fp

000002d8 <l56>:
     2d8:	a0c61a99 	smullge	r1, r6, r9, sl

000002dc <l57>:
     2dc:	d0cbc394 	smullle	ip, fp, r4, r3

000002e0 <l58>:
     2e0:	30c14e96 	smullcc	r4, r1, r6, lr

000002e4 <l59>:
     2e4:	e0d02299 	smulls	r2, r0, r9, r2

000002e8 <l60>:
     2e8:	e0d47792 	smulls	r7, r4, r2, r7

000002ec <l61>:
     2ec:	e0c06b94 	smull	r6, r0, r4, fp

000002f0 <l62>:
     2f0:	b0d69a95 	smullslt	r9, r6, r5, sl

000002f4 <l63>:
     2f4:	10c07895 	smullne	r7, r0, r5, r8

000002f8 <l64>:
     2f8:	e0c82799 	smull	r2, r8, r9, r7

000002fc <l65>:
     2fc:	e0c5ac98 	smull	sl, r5, r8, ip

00000300 <l66>:
     300:	e0cc0699 	smull	r0, ip, r9, r6

00000304 <l67>:
     304:	30d7bb98 	smullscc	fp, r7, r8, fp

00000308 <l68>:
     308:	20dabc9c 	smullscs	fp, sl, ip, ip

0000030c <l69>:
     30c:	40dec696 	smullsmi	ip, lr, r6, r6

00000310 <l70>:
     310:	e0c63990 	smull	r3, r6, r0, r9

00000314 <l71>:
     314:	e0c9a198 	smull	sl, r9, r8, r1

00000318 <l72>:
     318:	00ce5696 	smulleq	r5, lr, r6, r6

0000031c <l73>:
     31c:	50cb949e 	smullpl	r9, fp, lr, r4

00000320 <l74>:
     320:	40d8c893 	smullsmi	ip, r8, r3, r8

00000324 <l75>:
     324:	90cb8e92 	smullls	r8, fp, r2, lr

00000328 <l76>:
     328:	70d1e29b 	smullsvc	lr, r1, fp, r2

0000032c <l77>:
     32c:	e0d1ac90 	smulls	sl, r1, r0, ip

00000330 <l78>:
     330:	e0c03598 	smull	r3, r0, r8, r5

00000334 <l79>:
     334:	40c94e95 	smullmi	r4, r9, r5, lr

00000338 <l80>:
     338:	70d4be97 	smullsvc	fp, r4, r7, lr

0000033c <l81>:
     33c:	a0c45a9c 	smullge	r5, r4, ip, sl

00000340 <l82>:
     340:	d0d26a98 	smullsle	r6, r2, r8, sl

00000344 <l83>:
     344:	50c58499 	smullpl	r8, r5, r9, r4

00000348 <l84>:
     348:	50cec396 	smullpl	ip, lr, r6, r3

0000034c <l85>:
     34c:	e0d57796 	smulls	r7, r5, r6, r7

00000350 <l86>:
     350:	e0d47790 	smulls	r7, r4, r0, r7

00000354 <l87>:
     354:	50c7e390 	smullpl	lr, r7, r0, r3

00000358 <l88>:
     358:	e0c3e491 	smull	lr, r3, r1, r4

0000035c <l89>:
     35c:	80c03196 	smullhi	r3, r0, r6, r1

00000360 <l90>:
     360:	30ce6798 	smullcc	r6, lr, r8, r7

00000364 <l91>:
     364:	e0d2109e 	smulls	r1, r2, lr, r0

00000368 <l92>:
     368:	60db7b99 	smullsvs	r7, fp, r9, fp

0000036c <l93>:
     36c:	60c82891 	smullvs	r2, r8, r1, r8

00000370 <l94>:
     370:	e0d0819a 	smulls	r8, r0, sl, r1

00000374 <l95>:
     374:	e0d7bc95 	smulls	fp, r7, r5, ip

00000378 <l96>:
     378:	e0ca859e 	smull	r8, sl, lr, r5

0000037c <l97>:
     37c:	e0c8c99a 	smull	ip, r8, sl, r9

00000380 <l98>:
     380:	40c8789b 	smullmi	r7, r8, fp, r8

00000384 <l99>:
     384:	e0cb1a99 	smull	r1, fp, r9, sl

00000388 <l100>:
     388:	d0d5609b 	smullsle	r6, r5, fp, r0

0000038c <l101>:
     38c:	90d7c29e 	smullsls	ip, r7, lr, r2

00000390 <l102>:
     390:	80d98b90 	smullshi	r8, r9, r0, fp

00000394 <l103>:
     394:	50c64c91 	smullpl	r4, r6, r1, ip

00000398 <l104>:
     398:	e0d42496 	smulls	r2, r4, r6, r4

0000039c <l105>:
     39c:	c0d1619a 	smullsgt	r6, r1, sl, r1

000003a0 <l106>:
     3a0:	40d17e9b 	smullsmi	r7, r1, fp, lr

000003a4 <l107>:
     3a4:	e0cc479a 	smull	r4, ip, sl, r7

000003a8 <l108>:
     3a8:	e0d3499a 	smulls	r4, r3, sl, r9

000003ac <l109>:
     3ac:	10cbc795 	smullne	ip, fp, r5, r7

000003b0 <l110>:
     3b0:	10ca5592 	smullne	r5, sl, r2, r5

000003b4 <l111>:
     3b4:	30c3919e 	smullcc	r9, r3, lr, r1

000003b8 <l112>:
     3b8:	c0da2895 	smullsgt	r2, sl, r5, r8

000003bc <l113>:
     3bc:	e0c92590 	smull	r2, r9, r0, r5

000003c0 <l114>:
     3c0:	b0cc7a95 	smulllt	r7, ip, r5, sl

000003c4 <l115>:
     3c4:	30d2a69b 	smullscc	sl, r2, fp, r6

000003c8 <l116>:
     3c8:	00db8e93 	smullseq	r8, fp, r3, lr

000003cc <l117>:
     3cc:	90cb9793 	smullls	r9, fp, r3, r7

000003d0 <l118>:
     3d0:	e0d52893 	smulls	r2, r5, r3, r8

000003d4 <l119>:
     3d4:	e0dc0596 	smulls	r0, ip, r6, r5

000003d8 <l120>:
     3d8:	30d75498 	smullscc	r5, r7, r8, r4

000003dc <l121>:
     3dc:	10d63195 	smullsne	r3, r6, r5, r1

000003e0 <l122>:
     3e0:	e0c7ca98 	smull	ip, r7, r8, sl

000003e4 <l123>:
     3e4:	e0d67693 	smulls	r7, r6, r3, r6

000003e8 <l124>:
     3e8:	20d97c98 	smullscs	r7, r9, r8, ip

000003ec <l125>:
     3ec:	e0c89194 	smull	r9, r8, r4, r1

000003f0 <l126>:
     3f0:	e0d0a99b 	smulls	sl, r0, fp, r9

000003f4 <l127>:
     3f4:	e0c9ca95 	smull	ip, r9, r5, sl

000003f8 <l128>:
     3f8:	70d8269e 	smullsvc	r2, r8, lr, r6

000003fc <l129>:
     3fc:	00dbc999 	smullseq	ip, fp, r9, r9

00000400 <l130>:
     400:	30c2cc99 	smullcc	ip, r2, r9, ip

00000404 <l131>:
     404:	e0d87696 	smulls	r7, r8, r6, r6

00000408 <l132>:
     408:	e0c27898 	smull	r7, r2, r8, r8

0000040c <l133>:
     40c:	90c50799 	smullls	r0, r5, r9, r7

00000410 <l134>:
     410:	e0c5839c 	smull	r8, r5, ip, r3

00000414 <l135>:
     414:	70d45e97 	smullsvc	r5, r4, r7, lr

00000418 <l136>:
     418:	50d06a94 	smullspl	r6, r0, r4, sl

0000041c <l137>:
     41c:	e0d7409a 	smulls	r4, r7, sl, r0

00000420 <l138>:
     420:	e0c3b991 	smull	fp, r3, r1, r9

00000424 <l139>:
     424:	e0c7909a 	smull	r9, r7, sl, r0

00000428 <l140>:
     428:	70db199e 	smullsvc	r1, fp, lr, r9

0000042c <l141>:
     42c:	e0d98192 	smulls	r8, r9, r2, r1

00000430 <l142>:
     430:	e0ca2798 	smull	r2, sl, r8, r7

00000434 <l143>:
     434:	e0cab490 	smull	fp, sl, r0, r4

00000438 <l144>:
     438:	a0c8c692 	smullge	ip, r8, r2, r6

0000043c <l145>:
     43c:	10c47495 	smullne	r7, r4, r5, r4

00000440 <l146>:
     440:	00d4169e 	smullseq	r1, r4, lr, r6

00000444 <l147>:
     444:	e0d8b897 	smulls	fp, r8, r7, r8

00000448 <l148>:
     448:	80d7939e 	smullshi	r9, r7, lr, r3

0000044c <l149>:
     44c:	40c6a998 	smullmi	sl, r6, r8, r9

00000450 <l150>:
     450:	c0d7579e 	smullsgt	r5, r7, lr, r7

00000454 <l151>:
     454:	10d9a59e 	smullsne	sl, r9, lr, r5

00000458 <l152>:
     458:	b0ce3098 	smulllt	r3, lr, r8, r0

0000045c <l153>:
     45c:	70cc4092 	smullvc	r4, ip, r2, r0

00000460 <l154>:
     460:	10cba491 	smullne	sl, fp, r1, r4

00000464 <l155>:
     464:	60c40293 	smullvs	r0, r4, r3, r2

00000468 <l156>:
     468:	10d78691 	smullsne	r8, r7, r1, r6

0000046c <l157>:
     46c:	80cb9790 	smullhi	r9, fp, r0, r7

00000470 <l158>:
     470:	e0ca6c99 	smull	r6, sl, r9, ip

00000474 <l159>:
     474:	e0d34a92 	smulls	r4, r3, r2, sl

00000478 <l160>:
     478:	50cec39b 	smullpl	ip, lr, fp, r3

0000047c <l161>:
     47c:	10d5609a 	smullsne	r6, r5, sl, r0

00000480 <l162>:
     480:	50cc8a9b 	smullpl	r8, ip, fp, sl

00000484 <l163>:
     484:	e0c82c96 	smull	r2, r8, r6, ip

00000488 <l164>:
     488:	e0d72895 	smulls	r2, r7, r5, r8

0000048c <l165>:
     48c:	e0c52391 	smull	r2, r5, r1, r3

00000490 <l166>:
     490:	80d3089e 	smullshi	r0, r3, lr, r8

00000494 <l167>:
     494:	60c2389e 	smullvs	r3, r2, lr, r8

00000498 <l168>:
     498:	e0ca099c 	smull	r0, sl, ip, r9

0000049c <l169>:
     49c:	e0c74198 	smull	r4, r7, r8, r1

000004a0 <l170>:
     4a0:	e0d2449b 	smulls	r4, r2, fp, r4

000004a4 <l171>:
     4a4:	c0d3cc95 	smullsgt	ip, r3, r5, ip

000004a8 <l172>:
     4a8:	e0c16a99 	smull	r6, r1, r9, sl

000004ac <l173>:
     4ac:	40d02391 	smullsmi	r2, r0, r1, r3

000004b0 <l174>:
     4b0:	e0d40b9b 	smulls	r0, r4, fp, fp

000004b4 <l175>:
     4b4:	e0cc0991 	smull	r0, ip, r1, r9

000004b8 <l176>:
     4b8:	30d2bb9e 	smullscc	fp, r2, lr, fp

000004bc <l177>:
     4bc:	e0c60c94 	smull	r0, r6, r4, ip

000004c0 <l178>:
     4c0:	e0d5879c 	smulls	r8, r5, ip, r7

000004c4 <l179>:
     4c4:	50c1a796 	smullpl	sl, r1, r6, r7

000004c8 <l180>:
     4c8:	50dc869a 	smullspl	r8, ip, sl, r6

000004cc <l181>:
     4cc:	20dc7591 	smullscs	r7, ip, r1, r5

000004d0 <l182>:
     4d0:	e0cebc93 	smull	fp, lr, r3, ip

000004d4 <l183>:
     4d4:	a0d41095 	smullsge	r1, r4, r5, r0

000004d8 <l184>:
     4d8:	e0d97b91 	smulls	r7, r9, r1, fp

000004dc <l185>:
     4dc:	b0c9379b 	smulllt	r3, r9, fp, r7

000004e0 <l186>:
     4e0:	e0d2019b 	smulls	r0, r2, fp, r1

000004e4 <l187>:
     4e4:	e0d65899 	smulls	r5, r6, r9, r8

000004e8 <l188>:
     4e8:	e0c02298 	smull	r2, r0, r8, r2

000004ec <l189>:
     4ec:	10d9b891 	smullsne	fp, r9, r1, r8

000004f0 <l190>:
     4f0:	00c5c49b 	smulleq	ip, r5, fp, r4

000004f4 <l191>:
     4f4:	90d02a9c 	smullsls	r2, r0, ip, sl

000004f8 <l192>:
     4f8:	80cc349e 	smullhi	r3, ip, lr, r4

000004fc <l193>:
     4fc:	c0cc8491 	smullgt	r8, ip, r1, r4

00000500 <l194>:
     500:	50d07896 	smullspl	r7, r0, r6, r8

00000504 <l195>:
     504:	b0d6e292 	smullslt	lr, r6, r2, r2

00000508 <l196>:
     508:	e0c7be9c 	smull	fp, r7, ip, lr

0000050c <l197>:
     50c:	e0dc1b94 	smulls	r1, ip, r4, fp

00000510 <l198>:
     510:	00c7c693 	smulleq	ip, r7, r3, r6

00000514 <l199>:
     514:	70c8c193 	smullvc	ip, r8, r3, r1

00000518 <l200>:
     518:	e0d0aa9b 	smulls	sl, r0, fp, sl

0000051c <l201>:
     51c:	e0c60297 	smull	r0, r6, r7, r2

00000520 <l202>:
     520:	b0c7c399 	smulllt	ip, r7, r9, r3

00000524 <l203>:
     524:	b0c41495 	smulllt	r1, r4, r5, r4

00000528 <l204>:
     528:	60c6bc92 	smullvs	fp, r6, r2, ip

0000052c <l205>:
     52c:	80dc9e91 	smullshi	r9, ip, r1, lr

00000530 <l206>:
     530:	b0c15b96 	smulllt	r5, r1, r6, fp

00000534 <l207>:
     534:	90d81390 	smullsls	r1, r8, r0, r3

00000538 <l208>:
     538:	20c21b9c 	smullcs	r1, r2, ip, fp

0000053c <l209>:
     53c:	00c37792 	smulleq	r7, r3, r2, r7

00000540 <l210>:
     540:	10d6839b 	smullsne	r8, r6, fp, r3

00000544 <l211>:
     544:	b0d79996 	smullslt	r9, r7, r6, r9

00000548 <l212>:
     548:	a0c36291 	smullge	r6, r3, r1, r2

0000054c <l213>:
     54c:	40d31594 	smullsmi	r1, r3, r4, r5

00000550 <l214>:
     550:	40c9ac9c 	smullmi	sl, r9, ip, ip

00000554 <l215>:
     554:	e0c57e9b 	smull	r7, r5, fp, lr

00000558 <l216>:
     558:	70ccbc90 	smullvc	fp, ip, r0, ip

0000055c <l217>:
     55c:	e0ca8e9e 	smull	r8, sl, lr, lr

00000560 <l218>:
     560:	e0d9549c 	smulls	r5, r9, ip, r4

00000564 <l219>:
     564:	e0c30391 	smull	r0, r3, r1, r3

00000568 <l220>:
     568:	e0cb6793 	smull	r6, fp, r3, r7

0000056c <l221>:
     56c:	10c35894 	smullne	r5, r3, r4, r8

00000570 <l222>:
     570:	c0c2c593 	smullgt	ip, r2, r3, r5

00000574 <l223>:
     574:	e0c9b195 	smull	fp, r9, r5, r1

00000578 <l224>:
     578:	b0d9e19b 	smullslt	lr, r9, fp, r1

0000057c <l225>:
     57c:	e0c8c692 	smull	ip, r8, r2, r6

00000580 <l226>:
     580:	d0c10198 	smullle	r0, r1, r8, r1

00000584 <l227>:
     584:	70dbe398 	smullsvc	lr, fp, r8, r3

00000588 <l228>:
     588:	e0c60398 	smull	r0, r6, r8, r3

0000058c <l229>:
     58c:	e0c9c19a 	smull	ip, r9, sl, r1

00000590 <l230>:
     590:	e0d4869b 	smulls	r8, r4, fp, r6

00000594 <l231>:
     594:	e0ca0599 	smull	r0, sl, r9, r5

00000598 <l232>:
     598:	50c1a292 	smullpl	sl, r1, r2, r2

0000059c <l233>:
     59c:	e0d5b19a 	smulls	fp, r5, sl, r1

000005a0 <l234>:
     5a0:	70c9a695 	smullvc	sl, r9, r5, r6

000005a4 <l235>:
     5a4:	e0c7199c 	smull	r1, r7, ip, r9

000005a8 <l236>:
     5a8:	80c1b296 	smullhi	fp, r1, r6, r2

000005ac <l237>:
     5ac:	e0d6439b 	smulls	r4, r6, fp, r3

000005b0 <l238>:
     5b0:	60db2a96 	smullsvs	r2, fp, r6, sl

000005b4 <l239>:
     5b4:	c0d83899 	smullsgt	r3, r8, r9, r8

000005b8 <l240>:
     5b8:	e0d06b97 	smulls	r6, r0, r7, fp

000005bc <l241>:
     5bc:	e0c9b891 	smull	fp, r9, r1, r8

000005c0 <l242>:
     5c0:	00c3c296 	smulleq	ip, r3, r6, r2

000005c4 <l243>:
     5c4:	e0c9329b 	smull	r3, r9, fp, r2

000005c8 <l244>:
     5c8:	e0c5739a 	smull	r7, r5, sl, r3

000005cc <l245>:
     5cc:	90cc8c99 	smullls	r8, ip, r9, ip

000005d0 <l246>:
     5d0:	e0d86190 	smulls	r6, r8, r0, r1

000005d4 <l247>:
     5d4:	60ce5c96 	smullvs	r5, lr, r6, ip

000005d8 <l248>:
     5d8:	e0c8629e 	smull	r6, r8, lr, r2

000005dc <l249>:
     5dc:	e0d89195 	smulls	r9, r8, r5, r1

000005e0 <l250>:
     5e0:	e0d2c198 	smulls	ip, r2, r8, r1

000005e4 <l251>:
     5e4:	d0c5a29e 	smullle	sl, r5, lr, r2

000005e8 <l252>:
     5e8:	a0ce0b96 	smullge	r0, lr, r6, fp

000005ec <l253>:
     5ec:	c0c25190 	smullgt	r5, r2, r0, r1

000005f0 <l254>:
     5f0:	e0d2519b 	smulls	r5, r2, fp, r1

000005f4 <l255>:
     5f4:	e0c96a98 	smull	r6, r9, r8, sl

000005f8 <l256>:
     5f8:	70c90396 	smullvc	r0, r9, r6, r3

000005fc <l257>:
     5fc:	e0da7295 	smulls	r7, sl, r5, r2

00000600 <l258>:
     600:	e0d4c593 	smulls	ip, r4, r3, r5

00000604 <l259>:
     604:	e0d2be9e 	smulls	fp, r2, lr, lr

00000608 <l260>:
     608:	40c7bb9e 	smullmi	fp, r7, lr, fp

0000060c <l261>:
     60c:	60dc6695 	smullsvs	r6, ip, r5, r6

00000610 <l262>:
     610:	e0d6279b 	smulls	r2, r6, fp, r7

00000614 <l263>:
     614:	b0d9bc9c 	smullslt	fp, r9, ip, ip

00000618 <l264>:
     618:	e0c3189a 	smull	r1, r3, sl, r8

0000061c <l265>:
     61c:	10d7e495 	smullsne	lr, r7, r5, r4

00000620 <l266>:
     620:	b0caee90 	smulllt	lr, sl, r0, lr

00000624 <l267>:
     624:	b0d18893 	smullslt	r8, r1, r3, r8

00000628 <l268>:
     628:	30cbc097 	smullcc	ip, fp, r7, r0

0000062c <l269>:
     62c:	e0c0e197 	smull	lr, r0, r7, r1

00000630 <l270>:
     630:	70d9569a 	smullsvc	r5, r9, sl, r6

00000634 <l271>:
     634:	a0d9b791 	smullsge	fp, r9, r1, r7

00000638 <l272>:
     638:	e0c8b392 	smull	fp, r8, r2, r3

0000063c <l273>:
     63c:	50c8769e 	smullpl	r7, r8, lr, r6

00000640 <l274>:
     640:	50d70b96 	smullspl	r0, r7, r6, fp

00000644 <l275>:
     644:	e0d2b69e 	smulls	fp, r2, lr, r6

00000648 <l276>:
     648:	e0dc499a 	smulls	r4, ip, sl, r9

0000064c <l277>:
     64c:	70cb1e9c 	smullvc	r1, fp, ip, lr

00000650 <l278>:
     650:	00c64599 	smulleq	r4, r6, r9, r5

00000654 <l279>:
     654:	50d97a9e 	smullspl	r7, r9, lr, sl

00000658 <l280>:
     658:	80d9419b 	smullshi	r4, r9, fp, r1

0000065c <l281>:
     65c:	e0c3599a 	smull	r5, r3, sl, r9

00000660 <l282>:
     660:	e0c7919a 	smull	r9, r7, sl, r1

00000664 <l283>:
     664:	60cbea91 	smullvs	lr, fp, r1, sl

00000668 <l284>:
     668:	e0da2793 	smulls	r2, sl, r3, r7

0000066c <l285>:
     66c:	c0d69c95 	smullsgt	r9, r6, r5, ip

00000670 <l286>:
     670:	c0c76493 	smullgt	r6, r7, r3, r4

00000674 <l287>:
     674:	a0de0599 	smullsge	r0, lr, r9, r5

00000678 <l288>:
     678:	e0d5819a 	smulls	r8, r5, sl, r1

0000067c <l289>:
     67c:	e0dc4293 	smulls	r4, ip, r3, r2

00000680 <l290>:
     680:	60d6be93 	smullsvs	fp, r6, r3, lr

00000684 <l291>:
     684:	e0d21b93 	smulls	r1, r2, r3, fp

00000688 <l292>:
     688:	d0c39b9b 	smullle	r9, r3, fp, fp

0000068c <l293>:
     68c:	e0ceaa92 	smull	sl, lr, r2, sl

00000690 <l294>:
     690:	80da359e 	smullshi	r3, sl, lr, r5

00000694 <l295>:
     694:	e0d24095 	smulls	r4, r2, r5, r0

00000698 <l296>:
     698:	e0de9a94 	smulls	r9, lr, r4, sl

0000069c <l297>:
     69c:	b0c12495 	smulllt	r2, r1, r5, r4

000006a0 <l298>:
     6a0:	50d25297 	smullspl	r5, r2, r7, r2

000006a4 <l299>:
     6a4:	e0d2c999 	smulls	ip, r2, r9, r9

000006a8 <l300>:
     6a8:	a0cb3796 	smullge	r3, fp, r6, r7

000006ac <l301>:
     6ac:	60d4269c 	smullsvs	r2, r4, ip, r6

000006b0 <l302>:
     6b0:	10ca8a9b 	smullne	r8, sl, fp, sl

000006b4 <l303>:
     6b4:	e0d4cb98 	smulls	ip, r4, r8, fp

000006b8 <l304>:
     6b8:	e0d1ca95 	smulls	ip, r1, r5, sl

000006bc <l305>:
     6bc:	10c35191 	smullne	r5, r3, r1, r1

000006c0 <l306>:
     6c0:	e0d5a793 	smulls	sl, r5, r3, r7

000006c4 <l307>:
     6c4:	e0d17490 	smulls	r7, r1, r0, r4

000006c8 <l308>:
     6c8:	e0c8a992 	smull	sl, r8, r2, r9

000006cc <l309>:
     6cc:	40c4ca99 	smullmi	ip, r4, r9, sl

000006d0 <l310>:
     6d0:	d0ce0294 	smullle	r0, lr, r4, r2

000006d4 <l311>:
     6d4:	e0c5c799 	smull	ip, r5, r9, r7

000006d8 <l312>:
     6d8:	e0c3ab96 	smull	sl, r3, r6, fp

000006dc <l313>:
     6dc:	a0c7a399 	smullge	sl, r7, r9, r3

000006e0 <l314>:
     6e0:	e0d9379b 	smulls	r3, r9, fp, r7

000006e4 <l315>:
     6e4:	00dacb91 	smullseq	ip, sl, r1, fp

000006e8 <l316>:
     6e8:	80d3a19e 	smullshi	sl, r3, lr, r1

000006ec <l317>:
     6ec:	70c75891 	smullvc	r5, r7, r1, r8

000006f0 <l318>:
     6f0:	80d68492 	smullshi	r8, r6, r2, r4

000006f4 <l319>:
     6f4:	e0c6ec97 	smull	lr, r6, r7, ip

000006f8 <l320>:
     6f8:	00ce949b 	smulleq	r9, lr, fp, r4

000006fc <l321>:
     6fc:	e0db5b91 	smulls	r5, fp, r1, fp

00000700 <l322>:
     700:	c0d0299b 	smullsgt	r2, r0, fp, r9

00000704 <l323>:
     704:	40c6589e 	smullmi	r5, r6, lr, r8

00000708 <l324>:
     708:	e0c78694 	smull	r8, r7, r4, r6

0000070c <l325>:
     70c:	80c7a692 	smullhi	sl, r7, r2, r6

00000710 <l326>:
     710:	60c37199 	smullvs	r7, r3, r9, r1

00000714 <l327>:
     714:	e0cc1b98 	smull	r1, ip, r8, fp

00000718 <l328>:
     718:	e0c3b99a 	smull	fp, r3, sl, r9

0000071c <l329>:
     71c:	90c45996 	smullls	r5, r4, r6, r9

00000720 <l330>:
     720:	e0c64392 	smull	r4, r6, r2, r3

00000724 <l331>:
     724:	e0d6e898 	smulls	lr, r6, r8, r8

00000728 <l332>:
     728:	e0c2929e 	smull	r9, r2, lr, r2

0000072c <l333>:
     72c:	80d7a19e 	smullshi	sl, r7, lr, r1

00000730 <l334>:
     730:	e0d0c492 	smulls	ip, r0, r2, r4

00000734 <l335>:
     734:	e0ca1896 	smull	r1, sl, r6, r8

00000738 <l336>:
     738:	c0ce8b9c 	smullgt	r8, lr, ip, fp

0000073c <l337>:
     73c:	00c0be9c 	smulleq	fp, r0, ip, lr

00000740 <l338>:
     740:	e0c38797 	smull	r8, r3, r7, r7

00000744 <l339>:
     744:	10db3297 	smullsne	r3, fp, r7, r2

00000748 <l340>:
     748:	a0cbeb92 	smullge	lr, fp, r2, fp

0000074c <l341>:
     74c:	00d02a9c 	smullseq	r2, r0, ip, sl

00000750 <l342>:
     750:	30da619c 	smullscc	r6, sl, ip, r1

00000754 <l343>:
     754:	e0c7e491 	smull	lr, r7, r1, r4

00000758 <l344>:
     758:	b0d09592 	smullslt	r9, r0, r2, r5

0000075c <l345>:
     75c:	80dae697 	smullshi	lr, sl, r7, r6

00000760 <l346>:
     760:	e0d2c197 	smulls	ip, r2, r7, r1

00000764 <l347>:
     764:	e0d5bc99 	smulls	fp, r5, r9, ip

00000768 <l348>:
     768:	b0da4497 	smullslt	r4, sl, r7, r4

0000076c <l349>:
     76c:	e0c32a94 	smull	r2, r3, r4, sl

00000770 <l350>:
     770:	e0c6a599 	smull	sl, r6, r9, r5

00000774 <l351>:
     774:	00c0859b 	smulleq	r8, r0, fp, r5

00000778 <l352>:
     778:	60c89695 	smullvs	r9, r8, r5, r6

0000077c <l353>:
     77c:	e0debe93 	smulls	fp, lr, r3, lr

00000780 <l354>:
     780:	e0d09195 	smulls	r9, r0, r5, r1

00000784 <l355>:
     784:	e0d30991 	smulls	r0, r3, r1, r9

00000788 <l356>:
     788:	e0cc0997 	smull	r0, ip, r7, r9

0000078c <l357>:
     78c:	c0c3e695 	smullgt	lr, r3, r5, r6

00000790 <l358>:
     790:	e0c1649a 	smull	r6, r1, sl, r4

00000794 <l359>:
     794:	e0d4359c 	smulls	r3, r4, ip, r5

00000798 <l360>:
     798:	e0d30592 	smulls	r0, r3, r2, r5

0000079c <l361>:
     79c:	e0c5c192 	smull	ip, r5, r2, r1

000007a0 <l362>:
     7a0:	e0c14096 	smull	r4, r1, r6, r0

000007a4 <l363>:
     7a4:	60c2bc97 	smullvs	fp, r2, r7, ip

000007a8 <l364>:
     7a8:	d0c28596 	smullle	r8, r2, r6, r5

000007ac <l365>:
     7ac:	30db0c91 	smullscc	r0, fp, r1, ip

000007b0 <l366>:
     7b0:	e0c90298 	smull	r0, r9, r8, r2

000007b4 <l367>:
     7b4:	d0cea395 	smullle	sl, lr, r5, r3

000007b8 <l368>:
     7b8:	e0de5398 	smulls	r5, lr, r8, r3

000007bc <l369>:
     7bc:	e0dc6595 	smulls	r6, ip, r5, r5

000007c0 <l370>:
     7c0:	20c67c90 	smullcs	r7, r6, r0, ip

000007c4 <l371>:
     7c4:	90d9b196 	smullsls	fp, r9, r6, r1

000007c8 <l372>:
     7c8:	10c3549a 	smullne	r5, r3, sl, r4

000007cc <l373>:
     7cc:	e0db7295 	smulls	r7, fp, r5, r2

000007d0 <l374>:
     7d0:	70d3c391 	smullsvc	ip, r3, r1, r3

000007d4 <l375>:
     7d4:	10c43b9c 	smullne	r3, r4, ip, fp

000007d8 <l376>:
     7d8:	e0c03e98 	smull	r3, r0, r8, lr

000007dc <l377>:
     7dc:	30de9598 	smullscc	r9, lr, r8, r5

000007e0 <l378>:
     7e0:	e0c62297 	smull	r2, r6, r7, r2

000007e4 <l379>:
     7e4:	80c0279c 	smullhi	r2, r0, ip, r7

000007e8 <l380>:
     7e8:	b0cc3196 	smulllt	r3, ip, r6, r1

000007ec <l381>:
     7ec:	e0db2293 	smulls	r2, fp, r3, r2

000007f0 <l382>:
     7f0:	70dacc94 	smullsvc	ip, sl, r4, ip

000007f4 <l383>:
     7f4:	e0c52797 	smull	r2, r5, r7, r7

000007f8 <l384>:
     7f8:	40c03999 	smullmi	r3, r0, r9, r9

000007fc <l385>:
     7fc:	e0c92593 	smull	r2, r9, r3, r5

00000800 <l386>:
     800:	d0cc5693 	smullle	r5, ip, r3, r6

00000804 <l387>:
     804:	20d5a291 	smullscs	sl, r5, r1, r2

00000808 <l388>:
     808:	e0d31e96 	smulls	r1, r3, r6, lr

0000080c <l389>:
     80c:	80d3ee92 	smullshi	lr, r3, r2, lr

00000810 <l390>:
     810:	b0de4a91 	smullslt	r4, lr, r1, sl

00000814 <l391>:
     814:	e0c01498 	smull	r1, r0, r8, r4

00000818 <l392>:
     818:	b0ceb291 	smulllt	fp, lr, r1, r2

0000081c <l393>:
     81c:	60c26593 	smullvs	r6, r2, r3, r5

00000820 <l394>:
     820:	50c96b98 	smullpl	r6, r9, r8, fp

00000824 <l395>:
     824:	e0dc2595 	smulls	r2, ip, r5, r5

00000828 <l396>:
     828:	e0d3439e 	smulls	r4, r3, lr, r3

0000082c <l397>:
     82c:	e0ca6099 	smull	r6, sl, r9, r0

00000830 <l398>:
     830:	e0ca2590 	smull	r2, sl, r0, r5

00000834 <l399>:
     834:	40d0e392 	smullsmi	lr, r0, r2, r3

00000838 <l400>:
     838:	00d8c190 	smullseq	ip, r8, r0, r1

0000083c <l401>:
     83c:	30c6be91 	smullcc	fp, r6, r1, lr

00000840 <l402>:
     840:	80d8b592 	smullshi	fp, r8, r2, r5

00000844 <l403>:
     844:	e0cb3b97 	smull	r3, fp, r7, fp

00000848 <l404>:
     848:	e0d41192 	smulls	r1, r4, r2, r1

0000084c <l405>:
     84c:	e0caeb96 	smull	lr, sl, r6, fp

00000850 <l406>:
     850:	70c6ea92 	smullvc	lr, r6, r2, sl

00000854 <l407>:
     854:	e0ce119b 	smull	r1, lr, fp, r1

00000858 <l408>:
     858:	e0d2e196 	smulls	lr, r2, r6, r1

0000085c <l409>:
     85c:	e0da1e97 	smulls	r1, sl, r7, lr

00000860 <l410>:
     860:	e0d43497 	smulls	r3, r4, r7, r4

00000864 <l411>:
     864:	b0c4009e 	smulllt	r0, r4, lr, r0

00000868 <l412>:
     868:	e0d5b19a 	smulls	fp, r5, sl, r1

0000086c <l413>:
     86c:	30d5749b 	smullscc	r7, r5, fp, r4

00000870 <l414>:
     870:	e0d0539c 	smulls	r5, r0, ip, r3

00000874 <l415>:
     874:	70ce9e96 	smullvc	r9, lr, r6, lr

00000878 <l416>:
     878:	e0d0c599 	smulls	ip, r0, r9, r5

0000087c <l417>:
     87c:	e0c83894 	smull	r3, r8, r4, r8

00000880 <l418>:
     880:	e0ce0096 	smull	r0, lr, r6, r0

00000884 <l419>:
     884:	20c3ba98 	smullcs	fp, r3, r8, sl

00000888 <l420>:
     888:	c0c1829b 	smullgt	r8, r1, fp, r2

0000088c <l421>:
     88c:	b0d0969e 	smullslt	r9, r0, lr, r6

00000890 <l422>:
     890:	e0d94b92 	smulls	r4, r9, r2, fp

00000894 <l423>:
     894:	e0d4769e 	smulls	r7, r4, lr, r6

00000898 <l424>:
     898:	e0d74091 	smulls	r4, r7, r1, r0

0000089c <l425>:
     89c:	e0c1ab9c 	smull	sl, r1, ip, fp

000008a0 <l426>:
     8a0:	d0c59193 	smullle	r9, r5, r3, r1

000008a4 <l427>:
     8a4:	00cb1c9e 	smulleq	r1, fp, lr, ip

000008a8 <l428>:
     8a8:	d0d8749b 	smullsle	r7, r8, fp, r4

000008ac <l429>:
     8ac:	e0c40098 	smull	r0, r4, r8, r0

000008b0 <l430>:
     8b0:	e0d89993 	smulls	r9, r8, r3, r9

000008b4 <l431>:
     8b4:	80cb2e9a 	smullhi	r2, fp, sl, lr

000008b8 <l432>:
     8b8:	20c1a696 	smullcs	sl, r1, r6, r6

000008bc <l433>:
     8bc:	e0d43a9b 	smulls	r3, r4, fp, sl

000008c0 <l434>:
     8c0:	50dce990 	smullspl	lr, ip, r0, r9

000008c4 <l435>:
     8c4:	e0c39095 	smull	r9, r3, r5, r0

000008c8 <l436>:
     8c8:	e0c0e595 	smull	lr, r0, r5, r5

000008cc <l437>:
     8cc:	e0d90597 	smulls	r0, r9, r7, r5

000008d0 <l438>:
     8d0:	40d4b796 	smullsmi	fp, r4, r6, r7

000008d4 <l439>:
     8d4:	e0c36099 	smull	r6, r3, r9, r0

000008d8 <l440>:
     8d8:	30c50c99 	smullcc	r0, r5, r9, ip

000008dc <l441>:
     8dc:	e0d72893 	smulls	r2, r7, r3, r8

000008e0 <l442>:
     8e0:	e0c8159b 	smull	r1, r8, fp, r5

000008e4 <l443>:
     8e4:	e0d48795 	smulls	r8, r4, r5, r7

000008e8 <l444>:
     8e8:	30cc0499 	smullcc	r0, ip, r9, r4

000008ec <l445>:
     8ec:	c0d7c299 	smullsgt	ip, r7, r9, r2

000008f0 <l446>:
     8f0:	90ca289e 	smullls	r2, sl, lr, r8

000008f4 <l447>:
     8f4:	20d60791 	smullscs	r0, r6, r1, r7

000008f8 <l448>:
     8f8:	00d2cb93 	smullseq	ip, r2, r3, fp

000008fc <l449>:
     8fc:	e0debe96 	smulls	fp, lr, r6, lr

00000900 <l450>:
     900:	c0d23e95 	smullsgt	r3, r2, r5, lr

00000904 <l451>:
     904:	c0d7199c 	smullsgt	r1, r7, ip, r9

00000908 <l452>:
     908:	e0d6919c 	smulls	r9, r6, ip, r1

0000090c <l453>:
     90c:	b0d8ab9c 	smullslt	sl, r8, ip, fp

00000910 <l454>:
     910:	e0ca2090 	smull	r2, sl, r0, r0

00000914 <l455>:
     914:	20d6c09e 	smullscs	ip, r6, lr, r0

00000918 <l456>:
     918:	a0d6c69b 	smullsge	ip, r6, fp, r6

0000091c <l457>:
     91c:	80c0b198 	smullhi	fp, r0, r8, r1

00000920 <l458>:
     920:	80d2379b 	smullshi	r3, r2, fp, r7

00000924 <l459>:
     924:	50c60394 	smullpl	r0, r6, r4, r3

00000928 <l460>:
     928:	e0c2779c 	smull	r7, r2, ip, r7

0000092c <l461>:
     92c:	20d9059a 	smullscs	r0, r9, sl, r5

00000930 <l462>:
     930:	e0de5c91 	smulls	r5, lr, r1, ip

00000934 <l463>:
     934:	30c03695 	smullcc	r3, r0, r5, r6

00000938 <l464>:
     938:	e0d52896 	smulls	r2, r5, r6, r8

0000093c <l465>:
     93c:	e0db1c9a 	smulls	r1, fp, sl, ip

00000940 <l466>:
     940:	e0c8b690 	smull	fp, r8, r0, r6

00000944 <l467>:
     944:	b0c3aa9b 	smulllt	sl, r3, fp, sl

00000948 <l468>:
     948:	e0d2b09e 	smulls	fp, r2, lr, r0

0000094c <l469>:
     94c:	e0cb6893 	smull	r6, fp, r3, r8

00000950 <l470>:
     950:	a0d51697 	smullsge	r1, r5, r7, r6

00000954 <l471>:
     954:	e0c59a9b 	smull	r9, r5, fp, sl

00000958 <l472>:
     958:	20db7b9a 	smullscs	r7, fp, sl, fp

0000095c <l473>:
     95c:	e0d4259c 	smulls	r2, r4, ip, r5

00000960 <l474>:
     960:	50c85994 	smullpl	r5, r8, r4, r9

00000964 <l475>:
     964:	20c4a691 	smullcs	sl, r4, r1, r6

00000968 <l476>:
     968:	d0d5889a 	smullsle	r8, r5, sl, r8

0000096c <l477>:
     96c:	e0cec49a 	smull	ip, lr, sl, r4

00000970 <l478>:
     970:	60d3e897 	smullsvs	lr, r3, r7, r8

00000974 <l479>:
     974:	e0dc009a 	smulls	r0, ip, sl, r0

00000978 <l480>:
     978:	40da539b 	smullsmi	r5, sl, fp, r3

0000097c <l481>:
     97c:	50c6539e 	smullpl	r5, r6, lr, r3

00000980 <l482>:
     980:	e0d45a91 	smulls	r5, r4, r1, sl

00000984 <l483>:
     984:	e0d93591 	smulls	r3, r9, r1, r5

00000988 <l484>:
     988:	30cb3297 	smullcc	r3, fp, r7, r2

0000098c <l485>:
     98c:	10d9e694 	smullsne	lr, r9, r4, r6

00000990 <l486>:
     990:	e0cc6697 	smull	r6, ip, r7, r6

00000994 <l487>:
     994:	30d0b39a 	smullscc	fp, r0, sl, r3

00000998 <l488>:
     998:	50cb2998 	smullpl	r2, fp, r8, r9

0000099c <l489>:
     99c:	00c10994 	smulleq	r0, r1, r4, r9

000009a0 <l490>:
     9a0:	d0d1ca92 	smullsle	ip, r1, r2, sl

000009a4 <l491>:
     9a4:	40d7a994 	smullsmi	sl, r7, r4, r9

000009a8 <l492>:
     9a8:	40d87990 	smullsmi	r7, r8, r0, r9

000009ac <l493>:
     9ac:	60ce3e94 	smullvs	r3, lr, r4, lr

000009b0 <l494>:
     9b0:	20deb890 	smullscs	fp, lr, r0, r8

000009b4 <l495>:
     9b4:	e0de519a 	smulls	r5, lr, sl, r1

000009b8 <l496>:
     9b8:	e0d2159e 	smulls	r1, r2, lr, r5

000009bc <l497>:
     9bc:	e0c05894 	smull	r5, r0, r4, r8

000009c0 <l498>:
     9c0:	60c9ba9e 	smullvs	fp, r9, lr, sl

000009c4 <l499>:
     9c4:	80cbc098 	smullhi	ip, fp, r8, r0

000009c8 <l500>:
     9c8:	e0c81493 	smull	r1, r8, r3, r4

000009cc <l501>:
     9cc:	20dbcc95 	smullscs	ip, fp, r5, ip

000009d0 <l502>:
     9d0:	00d65e9c 	smullseq	r5, r6, ip, lr

000009d4 <l503>:
     9d4:	50c5a290 	smullpl	sl, r5, r0, r2

000009d8 <l504>:
     9d8:	b0c8129a 	smulllt	r1, r8, sl, r2

000009dc <l505>:
     9dc:	b0d2709e 	smullslt	r7, r2, lr, r0

000009e0 <l506>:
     9e0:	e0d37898 	smulls	r7, r3, r8, r8

000009e4 <l507>:
     9e4:	e0c05e93 	smull	r5, r0, r3, lr

000009e8 <l508>:
     9e8:	e0d20e9a 	smulls	r0, r2, sl, lr

000009ec <l509>:
     9ec:	e0db9392 	smulls	r9, fp, r2, r3

000009f0 <l510>:
     9f0:	70d5b398 	smullsvc	fp, r5, r8, r3

000009f4 <l511>:
     9f4:	e0de4691 	smulls	r4, lr, r1, r6

000009f8 <l512>:
     9f8:	50d13c9a 	smullspl	r3, r1, sl, ip

000009fc <l513>:
     9fc:	90d89897 	smullsls	r9, r8, r7, r8

00000a00 <l514>:
     a00:	40d2b495 	smullsmi	fp, r2, r5, r4

00000a04 <l515>:
     a04:	e0c28293 	smull	r8, r2, r3, r2

00000a08 <l516>:
     a08:	30dbec9c 	smullscc	lr, fp, ip, ip

00000a0c <l517>:
     a0c:	e0c7079c 	smull	r0, r7, ip, r7

00000a10 <l518>:
     a10:	e0d2769c 	smulls	r7, r2, ip, r6

00000a14 <l519>:
     a14:	e0dbec9c 	smulls	lr, fp, ip, ip

00000a18 <l520>:
     a18:	70c6099b 	smullvc	r0, r6, fp, r9

00000a1c <l521>:
     a1c:	10d5ab9b 	smullsne	sl, r5, fp, fp

00000a20 <l522>:
     a20:	60db7b96 	smullsvs	r7, fp, r6, fp

00000a24 <l523>:
     a24:	20d4b19e 	smullscs	fp, r4, lr, r1

00000a28 <l524>:
     a28:	90c17598 	smullls	r7, r1, r8, r5

00000a2c <l525>:
     a2c:	e0c82395 	smull	r2, r8, r5, r3

00000a30 <l526>:
     a30:	e0d0389b 	smulls	r3, r0, fp, r8

00000a34 <l527>:
     a34:	e0c0ae96 	smull	sl, r0, r6, lr

00000a38 <l528>:
     a38:	10cbaa92 	smullne	sl, fp, r2, sl

00000a3c <l529>:
     a3c:	c0d41c99 	smullsgt	r1, r4, r9, ip

00000a40 <l530>:
     a40:	60d73698 	smullsvs	r3, r7, r8, r6

00000a44 <l531>:
     a44:	40c0819b 	smullmi	r8, r0, fp, r1

00000a48 <l532>:
     a48:	e0d12994 	smulls	r2, r1, r4, r9

00000a4c <l533>:
     a4c:	e0c32997 	smull	r2, r3, r7, r9

00000a50 <l534>:
     a50:	e0cb1e9a 	smull	r1, fp, sl, lr

00000a54 <l535>:
     a54:	c0d89594 	smullsgt	r9, r8, r4, r5

00000a58 <l536>:
     a58:	e0c38892 	smull	r8, r3, r2, r8

00000a5c <l537>:
     a5c:	60c3e192 	smullvs	lr, r3, r2, r1

00000a60 <l538>:
     a60:	50cbe593 	smullpl	lr, fp, r3, r5

00000a64 <l539>:
     a64:	50d58b9b 	smullspl	r8, r5, fp, fp

00000a68 <l540>:
     a68:	e0c94e9e 	smull	r4, r9, lr, lr

00000a6c <l541>:
     a6c:	e0ca6c97 	smull	r6, sl, r7, ip

00000a70 <l542>:
     a70:	40d96897 	smullsmi	r6, r9, r7, r8

00000a74 <l543>:
     a74:	80c7969b 	smullhi	r9, r7, fp, r6

00000a78 <l544>:
     a78:	80c16092 	smullhi	r6, r1, r2, r0

00000a7c <l545>:
     a7c:	e0ceae98 	smull	sl, lr, r8, lr

00000a80 <l546>:
     a80:	40dc6e90 	smullsmi	r6, ip, r0, lr

00000a84 <l547>:
     a84:	e0c4ba99 	smull	fp, r4, r9, sl

00000a88 <l548>:
     a88:	90c46797 	smullls	r6, r4, r7, r7

00000a8c <l549>:
     a8c:	e0db0898 	smulls	r0, fp, r8, r8

00000a90 <l550>:
     a90:	e0c3ae94 	smull	sl, r3, r4, lr

00000a94 <l551>:
     a94:	20cc5796 	smullcs	r5, ip, r6, r7

00000a98 <l552>:
     a98:	e0de2191 	smulls	r2, lr, r1, r1

00000a9c <l553>:
     a9c:	e0d08b93 	smulls	r8, r0, r3, fp

00000aa0 <l554>:
     aa0:	50c0549b 	smullpl	r5, r0, fp, r4

00000aa4 <l555>:
     aa4:	e0c0ee98 	smull	lr, r0, r8, lr

00000aa8 <l556>:
     aa8:	e0c8599b 	smull	r5, r8, fp, r9

00000aac <l557>:
     aac:	e0d35190 	smulls	r5, r3, r0, r1

00000ab0 <l558>:
     ab0:	80cec399 	smullhi	ip, lr, r9, r3

00000ab4 <l559>:
     ab4:	90c21e9e 	smullls	r1, r2, lr, lr

00000ab8 <l560>:
     ab8:	80db219c 	smullshi	r2, fp, ip, r1

00000abc <l561>:
     abc:	e0cbce95 	smull	ip, fp, r5, lr

00000ac0 <l562>:
     ac0:	e0cc2398 	smull	r2, ip, r8, r3

00000ac4 <l563>:
     ac4:	e0c7b398 	smull	fp, r7, r8, r3

00000ac8 <l564>:
     ac8:	90c32891 	smullls	r2, r3, r1, r8

00000acc <l565>:
     acc:	e0c5449b 	smull	r4, r5, fp, r4

00000ad0 <l566>:
     ad0:	40d6c79e 	smullsmi	ip, r6, lr, r7

00000ad4 <l567>:
     ad4:	e0c5719e 	smull	r7, r5, lr, r1

00000ad8 <l568>:
     ad8:	10d82396 	smullsne	r2, r8, r6, r3

00000adc <l569>:
     adc:	40dc9b92 	smullsmi	r9, ip, r2, fp

00000ae0 <l570>:
     ae0:	20da619b 	smullscs	r6, sl, fp, r1

00000ae4 <l571>:
     ae4:	e0d5b092 	smulls	fp, r5, r2, r0

00000ae8 <l572>:
     ae8:	e0c3ae98 	smull	sl, r3, r8, lr

00000aec <l573>:
     aec:	e0d67e94 	smulls	r7, r6, r4, lr

00000af0 <l574>:
     af0:	90c51797 	smullls	r1, r5, r7, r7

00000af4 <l575>:
     af4:	b0d80993 	smullslt	r0, r8, r3, r9

00000af8 <l576>:
     af8:	e0c3769c 	smull	r7, r3, ip, r6

00000afc <l577>:
     afc:	30ca459c 	smullcc	r4, sl, ip, r5

00000b00 <l578>:
     b00:	d0cb5898 	smullle	r5, fp, r8, r8

00000b04 <l579>:
     b04:	e0dc7996 	smulls	r7, ip, r6, r9

00000b08 <l580>:
     b08:	70c43999 	smullvc	r3, r4, r9, r9

00000b0c <l581>:
     b0c:	10ca4799 	smullne	r4, sl, r9, r7

00000b10 <l582>:
     b10:	d0db3195 	smullsle	r3, fp, r5, r1

00000b14 <l583>:
     b14:	e0de9398 	smulls	r9, lr, r8, r3

00000b18 <l584>:
     b18:	a0ce6197 	smullge	r6, lr, r7, r1

00000b1c <l585>:
     b1c:	30c90a95 	smullcc	r0, r9, r5, sl

00000b20 <l586>:
     b20:	e0cc599b 	smull	r5, ip, fp, r9

00000b24 <l587>:
     b24:	e0de3898 	smulls	r3, lr, r8, r8

00000b28 <l588>:
     b28:	e0c2ce95 	smull	ip, r2, r5, lr

00000b2c <l589>:
     b2c:	e0c16399 	smull	r6, r1, r9, r3

00000b30 <l590>:
     b30:	c0c04593 	smullgt	r4, r0, r3, r5

00000b34 <l591>:
     b34:	40d97095 	smullsmi	r7, r9, r5, r0

00000b38 <l592>:
     b38:	e0d9539e 	smulls	r5, r9, lr, r3

00000b3c <l593>:
     b3c:	d0c2009c 	smullle	r0, r2, ip, r0

00000b40 <l594>:
     b40:	e0ca0298 	smull	r0, sl, r8, r2

00000b44 <l595>:
     b44:	e0ca7a9c 	smull	r7, sl, ip, sl

00000b48 <l596>:
     b48:	80c90192 	smullhi	r0, r9, r2, r1

00000b4c <l597>:
     b4c:	b0d7b096 	smullslt	fp, r7, r6, r0

00000b50 <l598>:
     b50:	e0c9cc9e 	smull	ip, r9, lr, ip

00000b54 <l599>:
     b54:	e0cbe690 	smull	lr, fp, r0, r6

00000b58 <l600>:
     b58:	50d1259c 	smullspl	r2, r1, ip, r5

00000b5c <l601>:
     b5c:	e0da1c9c 	smulls	r1, sl, ip, ip

00000b60 <l602>:
     b60:	e0dce094 	smulls	lr, ip, r4, r0

00000b64 <l603>:
     b64:	10d75391 	smullsne	r5, r7, r1, r3

00000b68 <l604>:
     b68:	e0d84b9b 	smulls	r4, r8, fp, fp

00000b6c <l605>:
     b6c:	c0c89e93 	smullgt	r9, r8, r3, lr

00000b70 <l606>:
     b70:	00d51c9a 	smullseq	r1, r5, sl, ip

00000b74 <l607>:
     b74:	b0da9291 	smullslt	r9, sl, r1, r2

00000b78 <l608>:
     b78:	40c43991 	smullmi	r3, r4, r1, r9

00000b7c <l609>:
     b7c:	60d0769a 	smullsvs	r7, r0, sl, r6

00000b80 <l610>:
     b80:	e0c9389a 	smull	r3, r9, sl, r8

00000b84 <l611>:
     b84:	e0d1c199 	smulls	ip, r1, r9, r1

00000b88 <l612>:
     b88:	30d02195 	smullscc	r2, r0, r5, r1

00000b8c <l613>:
     b8c:	40d24597 	smullsmi	r4, r2, r7, r5

00000b90 <l614>:
     b90:	a0cb7694 	smullge	r7, fp, r4, r6

00000b94 <l615>:
     b94:	50c07896 	smullpl	r7, r0, r6, r8

00000b98 <l616>:
     b98:	40d49092 	smullsmi	r9, r4, r2, r0

00000b9c <l617>:
     b9c:	10da7894 	smullsne	r7, sl, r4, r8

00000ba0 <l618>:
     ba0:	b0d16a9e 	smullslt	r6, r1, lr, sl

00000ba4 <l619>:
     ba4:	e0c9ab93 	smull	sl, r9, r3, fp

00000ba8 <l620>:
     ba8:	a0d14992 	smullsge	r4, r1, r2, r9

00000bac <l621>:
     bac:	e0c1439a 	smull	r4, r1, sl, r3

00000bb0 <l622>:
     bb0:	60c14799 	smullvs	r4, r1, r9, r7

00000bb4 <l623>:
     bb4:	e0db6398 	smulls	r6, fp, r8, r3

00000bb8 <l624>:
     bb8:	c0d8359c 	smullsgt	r3, r8, ip, r5

00000bbc <l625>:
     bbc:	e0de419b 	smulls	r4, lr, fp, r1

00000bc0 <l626>:
     bc0:	b0ce2193 	smulllt	r2, lr, r3, r1

00000bc4 <l627>:
     bc4:	e0c12b95 	smull	r2, r1, r5, fp

00000bc8 <l628>:
     bc8:	00d9319a 	smullseq	r3, r9, sl, r1

00000bcc <l629>:
     bcc:	90c4239b 	smullls	r2, r4, fp, r3

00000bd0 <l630>:
     bd0:	e0d69a95 	smulls	r9, r6, r5, sl

00000bd4 <l631>:
     bd4:	e0d83397 	smulls	r3, r8, r7, r3

00000bd8 <l632>:
     bd8:	60d93a9c 	smullsvs	r3, r9, ip, sl

00000bdc <l633>:
     bdc:	e0cba19e 	smull	sl, fp, lr, r1

00000be0 <l634>:
     be0:	e0cb0892 	smull	r0, fp, r2, r8

00000be4 <l635>:
     be4:	e0da8896 	smulls	r8, sl, r6, r8

00000be8 <l636>:
     be8:	e0d0b799 	smulls	fp, r0, r9, r7

00000bec <l637>:
     bec:	90c3cb96 	smullls	ip, r3, r6, fp

00000bf0 <l638>:
     bf0:	20d3759b 	smullscs	r7, r3, fp, r5

00000bf4 <l639>:
     bf4:	e0ce4e9a 	smull	r4, lr, sl, lr

00000bf8 <l640>:
     bf8:	e0c93c92 	smull	r3, r9, r2, ip

00000bfc <l641>:
     bfc:	e0dba59e 	smulls	sl, fp, lr, r5

00000c00 <l642>:
     c00:	00d9eb95 	smullseq	lr, r9, r5, fp

00000c04 <l643>:
     c04:	30dc0898 	smullscc	r0, ip, r8, r8

00000c08 <l644>:
     c08:	e0c42397 	smull	r2, r4, r7, r3

00000c0c <l645>:
     c0c:	b0d34198 	smullslt	r4, r3, r8, r1

00000c10 <l646>:
     c10:	c0c9b292 	smullgt	fp, r9, r2, r2

00000c14 <l647>:
     c14:	e0c3e698 	smull	lr, r3, r8, r6

00000c18 <l648>:
     c18:	e0dc1c9b 	smulls	r1, ip, fp, ip

00000c1c <l649>:
     c1c:	b0c7299e 	smulllt	r2, r7, lr, r9

00000c20 <l650>:
     c20:	e0dbe998 	smulls	lr, fp, r8, r9

00000c24 <l651>:
     c24:	80c03094 	smullhi	r3, r0, r4, r0

00000c28 <l652>:
     c28:	e0c1a499 	smull	sl, r1, r9, r4

00000c2c <l653>:
     c2c:	e0c1eb95 	smull	lr, r1, r5, fp

00000c30 <l654>:
     c30:	60c6079a 	smullvs	r0, r6, sl, r7

00000c34 <l655>:
     c34:	a0dc0c95 	smullsge	r0, ip, r5, ip

00000c38 <l656>:
     c38:	d0ca039e 	smullle	r0, sl, lr, r3

00000c3c <l657>:
     c3c:	c0d80c96 	smullsgt	r0, r8, r6, ip

00000c40 <l658>:
     c40:	20c47196 	smullcs	r7, r4, r6, r1

00000c44 <l659>:
     c44:	e0db2e91 	smulls	r2, fp, r1, lr

00000c48 <l660>:
     c48:	e0c6539c 	smull	r5, r6, ip, r3

00000c4c <l661>:
     c4c:	d0d1bc99 	smullsle	fp, r1, r9, ip

00000c50 <l662>:
     c50:	e0cc8891 	smull	r8, ip, r1, r8

00000c54 <l663>:
     c54:	e0d53992 	smulls	r3, r5, r2, r9

00000c58 <l664>:
     c58:	e0cc3196 	smull	r3, ip, r6, r1

00000c5c <l665>:
     c5c:	10d71e90 	smullsne	r1, r7, r0, lr

00000c60 <l666>:
     c60:	e0d49b92 	smulls	r9, r4, r2, fp

00000c64 <l667>:
     c64:	30d0cc9b 	smullscc	ip, r0, fp, ip

00000c68 <l668>:
     c68:	40c2ac94 	smullmi	sl, r2, r4, ip

00000c6c <l669>:
     c6c:	10d5a999 	smullsne	sl, r5, r9, r9

00000c70 <l670>:
     c70:	e0c3c491 	smull	ip, r3, r1, r4

00000c74 <l671>:
     c74:	e0dc4c91 	smulls	r4, ip, r1, ip

00000c78 <l672>:
     c78:	e0d42697 	smulls	r2, r4, r7, r6

00000c7c <l673>:
     c7c:	60d52199 	smullsvs	r2, r5, r9, r1

00000c80 <l674>:
     c80:	60d8b296 	smullsvs	fp, r8, r6, r2

00000c84 <l675>:
     c84:	50c57c9a 	smullpl	r7, r5, sl, ip

00000c88 <l676>:
     c88:	e0d9e493 	smulls	lr, r9, r3, r4

00000c8c <l677>:
     c8c:	e0cc0594 	smull	r0, ip, r4, r5

00000c90 <l678>:
     c90:	b0ce7e94 	smulllt	r7, lr, r4, lr

00000c94 <l679>:
     c94:	e0c69c9a 	smull	r9, r6, sl, ip

00000c98 <l680>:
     c98:	60c97b9e 	smullvs	r7, r9, lr, fp

00000c9c <l681>:
     c9c:	b0cb1290 	smulllt	r1, fp, r0, r2

00000ca0 <l682>:
     ca0:	e0c31399 	smull	r1, r3, r9, r3

00000ca4 <l683>:
     ca4:	00d5b992 	smullseq	fp, r5, r2, r9

00000ca8 <l684>:
     ca8:	a0c5c494 	smullge	ip, r5, r4, r4

00000cac <l685>:
     cac:	80ce4b96 	smullhi	r4, lr, r6, fp

00000cb0 <l686>:
     cb0:	e0ce8591 	smull	r8, lr, r1, r5

00000cb4 <l687>:
     cb4:	e0d6779e 	smulls	r7, r6, lr, r7

00000cb8 <l688>:
     cb8:	c0c08394 	smullgt	r8, r0, r4, r3

00000cbc <l689>:
     cbc:	e0dcb793 	smulls	fp, ip, r3, r7

00000cc0 <l690>:
     cc0:	40dca792 	smullsmi	sl, ip, r2, r7

00000cc4 <l691>:
     cc4:	e0d48e90 	smulls	r8, r4, r0, lr

00000cc8 <l692>:
     cc8:	00c74b95 	smulleq	r4, r7, r5, fp

00000ccc <l693>:
     ccc:	20d39a9c 	smullscs	r9, r3, ip, sl

00000cd0 <l694>:
     cd0:	30d80b96 	smullscc	r0, r8, r6, fp

00000cd4 <l695>:
     cd4:	e0c2b693 	smull	fp, r2, r3, r6

00000cd8 <l696>:
     cd8:	10d50199 	smullsne	r0, r5, r9, r1

00000cdc <l697>:
     cdc:	e0c0c294 	smull	ip, r0, r4, r2

00000ce0 <l698>:
     ce0:	30d69198 	smullscc	r9, r6, r8, r1

00000ce4 <l699>:
     ce4:	70d80893 	smullsvc	r0, r8, r3, r8

00000ce8 <l700>:
     ce8:	e0dace90 	smulls	ip, sl, r0, lr

00000cec <l701>:
     cec:	e0db2996 	smulls	r2, fp, r6, r9

00000cf0 <l702>:
     cf0:	50cb3796 	smullpl	r3, fp, r6, r7

00000cf4 <l703>:
     cf4:	30d8529e 	smullscc	r5, r8, lr, r2

00000cf8 <l704>:
     cf8:	60c8b99a 	smullvs	fp, r8, sl, r9

00000cfc <l705>:
     cfc:	e0ccb094 	smull	fp, ip, r4, r0

00000d00 <l706>:
     d00:	e0ca4396 	smull	r4, sl, r6, r3

00000d04 <l707>:
     d04:	40c7889a 	smullmi	r8, r7, sl, r8

00000d08 <l708>:
     d08:	30cc8499 	smullcc	r8, ip, r9, r4

00000d0c <l709>:
     d0c:	80c93495 	smullhi	r3, r9, r5, r4

00000d10 <l710>:
     d10:	30ceb299 	smullcc	fp, lr, r9, r2

00000d14 <l711>:
     d14:	c0d3859a 	smullsgt	r8, r3, sl, r5

00000d18 <l712>:
     d18:	e0d7099a 	smulls	r0, r7, sl, r9

00000d1c <l713>:
     d1c:	e0c42695 	smull	r2, r4, r5, r6

00000d20 <l714>:
     d20:	e0c26495 	smull	r6, r2, r5, r4

00000d24 <l715>:
     d24:	90c5789a 	smullls	r7, r5, sl, r8

00000d28 <l716>:
     d28:	30d4e699 	smullscc	lr, r4, r9, r6

00000d2c <l717>:
     d2c:	50d5b496 	smullspl	fp, r5, r6, r4

00000d30 <l718>:
     d30:	e0c68197 	smull	r8, r6, r7, r1

00000d34 <l719>:
     d34:	30c4e791 	smullcc	lr, r4, r1, r7

00000d38 <l720>:
     d38:	80d2bb95 	smullshi	fp, r2, r5, fp

00000d3c <l721>:
     d3c:	50c08a92 	smullpl	r8, r0, r2, sl

00000d40 <l722>:
     d40:	40dc6a94 	smullsmi	r6, ip, r4, sl

00000d44 <l723>:
     d44:	e0d8559b 	smulls	r5, r8, fp, r5

00000d48 <l724>:
     d48:	80c46e9e 	smullhi	r6, r4, lr, lr

00000d4c <l725>:
     d4c:	20d6709b 	smullscs	r7, r6, fp, r0

00000d50 <l726>:
     d50:	e0d0e199 	smulls	lr, r0, r9, r1

00000d54 <l727>:
     d54:	a0cc399e 	smullge	r3, ip, lr, r9

00000d58 <l728>:
     d58:	e0d9cc90 	smulls	ip, r9, r0, ip

00000d5c <l729>:
     d5c:	80d06c99 	smullshi	r6, r0, r9, ip

00000d60 <l730>:
     d60:	90db4c91 	smullsls	r4, fp, r1, ip

00000d64 <l731>:
     d64:	30d4119a 	smullscc	r1, r4, sl, r1

00000d68 <l732>:
     d68:	e0c80e9c 	smull	r0, r8, ip, lr

00000d6c <l733>:
     d6c:	50c65998 	smullpl	r5, r6, r8, r9

00000d70 <l734>:
     d70:	b0cae995 	smulllt	lr, sl, r5, r9

00000d74 <l735>:
     d74:	e0d86293 	smulls	r6, r8, r3, r2

00000d78 <l736>:
     d78:	a0dc8e96 	smullsge	r8, ip, r6, lr

00000d7c <l737>:
     d7c:	b0c1299e 	smulllt	r2, r1, lr, r9

00000d80 <l738>:
     d80:	e0cc8a95 	smull	r8, ip, r5, sl

00000d84 <l739>:
     d84:	c0dbc794 	smullsgt	ip, fp, r4, r7

00000d88 <l740>:
     d88:	e0c79a9b 	smull	r9, r7, fp, sl

00000d8c <l741>:
     d8c:	10d06e99 	smullsne	r6, r0, r9, lr

00000d90 <l742>:
     d90:	e0c9619c 	smull	r6, r9, ip, r1

00000d94 <l743>:
     d94:	e0c41b97 	smull	r1, r4, r7, fp

00000d98 <l744>:
     d98:	20d43b9a 	smullscs	r3, r4, sl, fp

00000d9c <l745>:
     d9c:	40d4aa9c 	smullsmi	sl, r4, ip, sl

00000da0 <l746>:
     da0:	50de7e99 	smullspl	r7, lr, r9, lr

00000da4 <l747>:
     da4:	e0cc9a96 	smull	r9, ip, r6, sl

00000da8 <l748>:
     da8:	e0c91e98 	smull	r1, r9, r8, lr

00000dac <l749>:
     dac:	40d4ea95 	smullsmi	lr, r4, r5, sl

00000db0 <l750>:
     db0:	10d81b99 	smullsne	r1, r8, r9, fp

00000db4 <l751>:
     db4:	90c5e29b 	smullls	lr, r5, fp, r2

00000db8 <l752>:
     db8:	70c64595 	smullvc	r4, r6, r5, r5

00000dbc <l753>:
     dbc:	20c2b39a 	smullcs	fp, r2, sl, r3

00000dc0 <l754>:
     dc0:	e0c3739e 	smull	r7, r3, lr, r3

00000dc4 <l755>:
     dc4:	60c61490 	smullvs	r1, r6, r0, r4

00000dc8 <l756>:
     dc8:	e0c2639e 	smull	r6, r2, lr, r3

00000dcc <l757>:
     dcc:	b0d02594 	smullslt	r2, r0, r4, r5

00000dd0 <l758>:
     dd0:	70c0ea98 	smullvc	lr, r0, r8, sl

00000dd4 <l759>:
     dd4:	a0db7a9a 	smullsge	r7, fp, sl, sl

00000dd8 <l760>:
     dd8:	e0cc0a93 	smull	r0, ip, r3, sl

00000ddc <l761>:
     ddc:	b0da1897 	smullslt	r1, sl, r7, r8

00000de0 <l762>:
     de0:	e0c6ce9b 	smull	ip, r6, fp, lr

00000de4 <l763>:
     de4:	50c92791 	smullpl	r2, r9, r1, r7

00000de8 <l764>:
     de8:	90c9be97 	smullls	fp, r9, r7, lr

00000dec <l765>:
     dec:	e0d5ee96 	smulls	lr, r5, r6, lr

00000df0 <l766>:
     df0:	e0c64391 	smull	r4, r6, r1, r3

00000df4 <l767>:
     df4:	00d68591 	smullseq	r8, r6, r1, r5

00000df8 <l768>:
     df8:	e0d94592 	smulls	r4, r9, r2, r5

00000dfc <l769>:
     dfc:	e0d58694 	smulls	r8, r5, r4, r6

00000e00 <l770>:
     e00:	e0cb039a 	smull	r0, fp, sl, r3

00000e04 <l771>:
     e04:	e0d2c497 	smulls	ip, r2, r7, r4

00000e08 <l772>:
     e08:	00c29393 	smulleq	r9, r2, r3, r3

00000e0c <l773>:
     e0c:	10d2a793 	smullsne	sl, r2, r3, r7

00000e10 <l774>:
     e10:	e0c1039c 	smull	r0, r1, ip, r3

00000e14 <l775>:
     e14:	e0d97c9b 	smulls	r7, r9, fp, ip

00000e18 <l776>:
     e18:	b0deab90 	smullslt	sl, lr, r0, fp

00000e1c <l777>:
     e1c:	d0da869b 	smullsle	r8, sl, fp, r6

00000e20 <l778>:
     e20:	40c2529e 	smullmi	r5, r2, lr, r2

00000e24 <l779>:
     e24:	e0c4279b 	smull	r2, r4, fp, r7

00000e28 <l780>:
     e28:	e0d21a98 	smulls	r1, r2, r8, sl

00000e2c <l781>:
     e2c:	e0d7e598 	smulls	lr, r7, r8, r5

00000e30 <l782>:
     e30:	e0d69092 	smulls	r9, r6, r2, r0

00000e34 <l783>:
     e34:	80c4b990 	smullhi	fp, r4, r0, r9

00000e38 <l784>:
     e38:	d0d5c69e 	smullsle	ip, r5, lr, r6

00000e3c <l785>:
     e3c:	b0d51190 	smullslt	r1, r5, r0, r1

00000e40 <l786>:
     e40:	e0d7909a 	smulls	r9, r7, sl, r0

00000e44 <l787>:
     e44:	e0ce2498 	smull	r2, lr, r8, r4

00000e48 <l788>:
     e48:	40cba391 	smullmi	sl, fp, r1, r3

00000e4c <l789>:
     e4c:	70c71392 	smullvc	r1, r7, r2, r3

00000e50 <l790>:
     e50:	00c82e90 	smulleq	r2, r8, r0, lr

00000e54 <l791>:
     e54:	e0de5793 	smulls	r5, lr, r3, r7

00000e58 <l792>:
     e58:	e0d4cb98 	smulls	ip, r4, r8, fp

00000e5c <l793>:
     e5c:	20c79c94 	smullcs	r9, r7, r4, ip

00000e60 <l794>:
     e60:	80de4a91 	smullshi	r4, lr, r1, sl

00000e64 <l795>:
     e64:	e0d94c90 	smulls	r4, r9, r0, ip

00000e68 <l796>:
     e68:	c0c84799 	smullgt	r4, r8, r9, r7

00000e6c <l797>:
     e6c:	50d59592 	smullspl	r9, r5, r2, r5

00000e70 <l798>:
     e70:	00c42b9b 	smulleq	r2, r4, fp, fp

00000e74 <l799>:
     e74:	e0c1b093 	smull	fp, r1, r3, r0

00000e78 <l800>:
     e78:	50d3949e 	smullspl	r9, r3, lr, r4

00000e7c <l801>:
     e7c:	80d67699 	smullshi	r7, r6, r9, r6

00000e80 <l802>:
     e80:	e0ce3990 	smull	r3, lr, r0, r9

00000e84 <l803>:
     e84:	e0dcb990 	smulls	fp, ip, r0, r9

00000e88 <l804>:
     e88:	e0db5b9e 	smulls	r5, fp, lr, fp

00000e8c <l805>:
     e8c:	e0d28199 	smulls	r8, r2, r9, r1

00000e90 <l806>:
     e90:	a0c1c995 	smullge	ip, r1, r5, r9

00000e94 <l807>:
     e94:	70cb409a 	smullvc	r4, fp, sl, r0

00000e98 <l808>:
     e98:	e0cc3790 	smull	r3, ip, r0, r7

00000e9c <l809>:
     e9c:	e0c01c94 	smull	r1, r0, r4, ip

00000ea0 <l810>:
     ea0:	50ce239b 	smullpl	r2, lr, fp, r3

00000ea4 <l811>:
     ea4:	20cca293 	smullcs	sl, ip, r3, r2

00000ea8 <l812>:
     ea8:	00c5169e 	smulleq	r1, r5, lr, r6

00000eac <l813>:
     eac:	e0c46e9a 	smull	r6, r4, sl, lr

00000eb0 <l814>:
     eb0:	90dac59e 	smullsls	ip, sl, lr, r5

00000eb4 <l815>:
     eb4:	e0c39c9e 	smull	r9, r3, lr, ip

00000eb8 <l816>:
     eb8:	c0d72b93 	smullsgt	r2, r7, r3, fp

00000ebc <l817>:
     ebc:	e0d7429c 	smulls	r4, r7, ip, r2

00000ec0 <l818>:
     ec0:	30d0579a 	smullscc	r5, r0, sl, r7

00000ec4 <l819>:
     ec4:	e0d10892 	smulls	r0, r1, r2, r8

00000ec8 <l820>:
     ec8:	c0ce8195 	smullgt	r8, lr, r5, r1

00000ecc <l821>:
     ecc:	b0cca798 	smulllt	sl, ip, r8, r7

00000ed0 <l822>:
     ed0:	b0c12794 	smulllt	r2, r1, r4, r7

00000ed4 <l823>:
     ed4:	e0d53699 	smulls	r3, r5, r9, r6

00000ed8 <l824>:
     ed8:	e0de4692 	smulls	r4, lr, r2, r6

00000edc <l825>:
     edc:	e0d18e92 	smulls	r8, r1, r2, lr

00000ee0 <l826>:
     ee0:	c0db0097 	smullsgt	r0, fp, r7, r0

00000ee4 <l827>:
     ee4:	90d3599b 	smullsls	r5, r3, fp, r9

00000ee8 <l828>:
     ee8:	30c19593 	smullcc	r9, r1, r3, r5

00000eec <l829>:
     eec:	a0d43495 	smullsge	r3, r4, r5, r4

00000ef0 <l830>:
     ef0:	e0cb6799 	smull	r6, fp, r9, r7

00000ef4 <l831>:
     ef4:	e0c5c69a 	smull	ip, r5, sl, r6

00000ef8 <l832>:
     ef8:	b0ce0893 	smulllt	r0, lr, r3, r8

00000efc <l833>:
     efc:	e0c2c398 	smull	ip, r2, r8, r3

00000f00 <l834>:
     f00:	20c8039e 	smullcs	r0, r8, lr, r3

00000f04 <l835>:
     f04:	e0c0b49a 	smull	fp, r0, sl, r4

00000f08 <l836>:
     f08:	70c4b692 	smullvc	fp, r4, r2, r6

00000f0c <l837>:
     f0c:	c0d78291 	smullsgt	r8, r7, r1, r2

00000f10 <l838>:
     f10:	d0c9859c 	smullle	r8, r9, ip, r5

00000f14 <l839>:
     f14:	50d02c9c 	smullspl	r2, r0, ip, ip

00000f18 <l840>:
     f18:	60d9a092 	smullsvs	sl, r9, r2, r0

00000f1c <l841>:
     f1c:	e0ce719b 	smull	r7, lr, fp, r1

00000f20 <l842>:
     f20:	20c74391 	smullcs	r4, r7, r1, r3

00000f24 <l843>:
     f24:	40c6e197 	smullmi	lr, r6, r7, r1

00000f28 <l844>:
     f28:	e0c6c595 	smull	ip, r6, r5, r5

00000f2c <l845>:
     f2c:	d0d04495 	smullsle	r4, r0, r5, r4

00000f30 <l846>:
     f30:	a0ca7a95 	smullge	r7, sl, r5, sl

00000f34 <l847>:
     f34:	50c8b597 	smullpl	fp, r8, r7, r5

00000f38 <l848>:
     f38:	70c6be91 	smullvc	fp, r6, r1, lr

00000f3c <l849>:
     f3c:	b0c73491 	smulllt	r3, r7, r1, r4

00000f40 <l850>:
     f40:	10d8029b 	smullsne	r0, r8, fp, r2

00000f44 <l851>:
     f44:	d0d4c997 	smullsle	ip, r4, r7, r9

00000f48 <l852>:
     f48:	e0cbaa99 	smull	sl, fp, r9, sl

00000f4c <l853>:
     f4c:	e0d84e99 	smulls	r4, r8, r9, lr

00000f50 <l854>:
     f50:	e0c70493 	smull	r0, r7, r3, r4

00000f54 <l855>:
     f54:	90d15092 	smullsls	r5, r1, r2, r0

00000f58 <l856>:
     f58:	e0d9e197 	smulls	lr, r9, r7, r1

00000f5c <l857>:
     f5c:	e0db559a 	smulls	r5, fp, sl, r5

00000f60 <l858>:
     f60:	e0c4129e 	smull	r1, r4, lr, r2

00000f64 <l859>:
     f64:	d0dba799 	smullsle	sl, fp, r9, r7

00000f68 <l860>:
     f68:	70c1a195 	smullvc	sl, r1, r5, r1

00000f6c <l861>:
     f6c:	c0cae890 	smullgt	lr, sl, r0, r8

00000f70 <l862>:
     f70:	d0d43198 	smullsle	r3, r4, r8, r1

00000f74 <l863>:
     f74:	50d7a59b 	smullspl	sl, r7, fp, r5

00000f78 <l864>:
     f78:	40d9cc97 	smullsmi	ip, r9, r7, ip

00000f7c <l865>:
     f7c:	e0cb2296 	smull	r2, fp, r6, r2

00000f80 <l866>:
     f80:	50d1b394 	smullspl	fp, r1, r4, r3

00000f84 <l867>:
     f84:	e0c0e799 	smull	lr, r0, r9, r7

00000f88 <l868>:
     f88:	e0d0ac93 	smulls	sl, r0, r3, ip

00000f8c <l869>:
     f8c:	30c75994 	smullcc	r5, r7, r4, r9

00000f90 <l870>:
     f90:	30cb6994 	smullcc	r6, fp, r4, r9

00000f94 <l871>:
     f94:	e0ca9995 	smull	r9, sl, r5, r9

00000f98 <l872>:
     f98:	d0d5989e 	smullsle	r9, r5, lr, r8

00000f9c <l873>:
     f9c:	10d41b98 	smullsne	r1, r4, r8, fp

00000fa0 <l874>:
     fa0:	e0cae692 	smull	lr, sl, r2, r6

00000fa4 <l875>:
     fa4:	e0d7b291 	smulls	fp, r7, r1, r2

00000fa8 <l876>:
     fa8:	90cce393 	smullls	lr, ip, r3, r3

00000fac <l877>:
     fac:	e0d5b798 	smulls	fp, r5, r8, r7

00000fb0 <l878>:
     fb0:	e0d65492 	smulls	r5, r6, r2, r4

00000fb4 <l879>:
     fb4:	e0c9769c 	smull	r7, r9, ip, r6

00000fb8 <l880>:
     fb8:	90cc7e99 	smullls	r7, ip, r9, lr

00000fbc <l881>:
     fbc:	e0c5899c 	smull	r8, r5, ip, r9

00000fc0 <l882>:
     fc0:	40d76398 	smullsmi	r6, r7, r8, r3

00000fc4 <l883>:
     fc4:	e0de4390 	smulls	r4, lr, r0, r3

00000fc8 <l884>:
     fc8:	d0d3279e 	smullsle	r2, r3, lr, r7

00000fcc <l885>:
     fcc:	b0de2890 	smullslt	r2, lr, r0, r8

00000fd0 <l886>:
     fd0:	00c3259c 	smulleq	r2, r3, ip, r5

00000fd4 <l887>:
     fd4:	50dcab9e 	smullspl	sl, ip, lr, fp

00000fd8 <l888>:
     fd8:	e0db2694 	smulls	r2, fp, r4, r6

00000fdc <l889>:
     fdc:	e0c2c690 	smull	ip, r2, r0, r6

00000fe0 <l890>:
     fe0:	b0d8c492 	smullslt	ip, r8, r2, r4

00000fe4 <l891>:
     fe4:	30c0e09a 	smullcc	lr, r0, sl, r0

00000fe8 <l892>:
     fe8:	e0d9049b 	smulls	r0, r9, fp, r4

00000fec <l893>:
     fec:	e0d48197 	smulls	r8, r4, r7, r1

00000ff0 <l894>:
     ff0:	e0c49691 	smull	r9, r4, r1, r6

00000ff4 <l895>:
     ff4:	e0c6c799 	smull	ip, r6, r9, r7

00000ff8 <l896>:
     ff8:	e0cc459e 	smull	r4, ip, lr, r5

00000ffc <l897>:
     ffc:	e0d4c898 	smulls	ip, r4, r8, r8

00001000 <l898>:
    1000:	60c0829c 	smullvs	r8, r0, ip, r2

00001004 <l899>:
    1004:	00d1ba99 	smullseq	fp, r1, r9, sl

00001008 <l900>:
    1008:	20d7819a 	smullscs	r8, r7, sl, r1

0000100c <l901>:
    100c:	e0c7e798 	smull	lr, r7, r8, r7

00001010 <l902>:
    1010:	10d5789b 	smullsne	r7, r5, fp, r8

00001014 <l903>:
    1014:	e0cacc98 	smull	ip, sl, r8, ip

00001018 <l904>:
    1018:	d0c9449e 	smullle	r4, r9, lr, r4

0000101c <l905>:
    101c:	90c9679b 	smullls	r6, r9, fp, r7

00001020 <l906>:
    1020:	e0d31c9e 	smulls	r1, r3, lr, ip

00001024 <l907>:
    1024:	30c84c9a 	smullcc	r4, r8, sl, ip

00001028 <l908>:
    1028:	e0d7639b 	smulls	r6, r7, fp, r3

0000102c <l909>:
    102c:	e0c4b899 	smull	fp, r4, r9, r8

00001030 <l910>:
    1030:	50db6e9a 	smullspl	r6, fp, sl, lr

00001034 <l911>:
    1034:	e0c28693 	smull	r8, r2, r3, r6

00001038 <l912>:
    1038:	e0d4139c 	smulls	r1, r4, ip, r3

0000103c <l913>:
    103c:	a0c8b295 	smullge	fp, r8, r5, r2

00001040 <l914>:
    1040:	50ce4096 	smullpl	r4, lr, r6, r0

00001044 <l915>:
    1044:	20c3059e 	smullcs	r0, r3, lr, r5

00001048 <l916>:
    1048:	e0dbca90 	smulls	ip, fp, r0, sl

0000104c <l917>:
    104c:	e0d6379b 	smulls	r3, r6, fp, r7

00001050 <l918>:
    1050:	e0ce4197 	smull	r4, lr, r7, r1

00001054 <l919>:
    1054:	e0dc229a 	smulls	r2, ip, sl, r2

00001058 <l920>:
    1058:	40d16390 	smullsmi	r6, r1, r0, r3

0000105c <l921>:
    105c:	20c7409c 	smullcs	r4, r7, ip, r0

00001060 <l922>:
    1060:	90d3c09b 	smullsls	ip, r3, fp, r0

00001064 <l923>:
    1064:	90dc5e9e 	smullsls	r5, ip, lr, lr

00001068 <l924>:
    1068:	20c56891 	smullcs	r6, r5, r1, r8

0000106c <l925>:
    106c:	e0d24495 	smulls	r4, r2, r5, r4

00001070 <l926>:
    1070:	e0c4eb99 	smull	lr, r4, r9, fp

00001074 <l927>:
    1074:	e0db6e90 	smulls	r6, fp, r0, lr

00001078 <l928>:
    1078:	e0caeb97 	smull	lr, sl, r7, fp

0000107c <l929>:
    107c:	a0d70192 	smullsge	r0, r7, r2, r1

00001080 <l930>:
    1080:	10ca8799 	smullne	r8, sl, r9, r7

00001084 <l931>:
    1084:	40c9c890 	smullmi	ip, r9, r0, r8

00001088 <l932>:
    1088:	e0ca7296 	smull	r7, sl, r6, r2

0000108c <l933>:
    108c:	e0d13597 	smulls	r3, r1, r7, r5

00001090 <l934>:
    1090:	e0c24c91 	smull	r4, r2, r1, ip

00001094 <l935>:
    1094:	50d1bb97 	smullspl	fp, r1, r7, fp

00001098 <l936>:
    1098:	e0d59491 	smulls	r9, r5, r1, r4

0000109c <l937>:
    109c:	90ce939b 	smullls	r9, lr, fp, r3

000010a0 <l938>:
    10a0:	90c3c995 	smullls	ip, r3, r5, r9

000010a4 <l939>:
    10a4:	e0c3ec91 	smull	lr, r3, r1, ip

000010a8 <l940>:
    10a8:	40d14e9b 	smullsmi	r4, r1, fp, lr

000010ac <l941>:
    10ac:	d0c3b59e 	smullle	fp, r3, lr, r5

000010b0 <l942>:
    10b0:	80ca669b 	smullhi	r6, sl, fp, r6

000010b4 <l943>:
    10b4:	e0dc9c97 	smulls	r9, ip, r7, ip

000010b8 <l944>:
    10b8:	e0d71095 	smulls	r1, r7, r5, r0

000010bc <l945>:
    10bc:	70cc0191 	smullvc	r0, ip, r1, r1

000010c0 <l946>:
    10c0:	e0c4e79a 	smull	lr, r4, sl, r7

000010c4 <l947>:
    10c4:	e0d81399 	smulls	r1, r8, r9, r3

000010c8 <l948>:
    10c8:	70d43a99 	smullsvc	r3, r4, r9, sl

000010cc <l949>:
    10cc:	30cc4993 	smullcc	r4, ip, r3, r9

000010d0 <l950>:
    10d0:	e0d2c793 	smulls	ip, r2, r3, r7

000010d4 <l951>:
    10d4:	20c1ab9e 	smullcs	sl, r1, lr, fp

000010d8 <l952>:
    10d8:	10c54b92 	smullne	r4, r5, r2, fp

000010dc <l953>:
    10dc:	30d63190 	smullscc	r3, r6, r0, r1

000010e0 <l954>:
    10e0:	c0d01693 	smullsgt	r1, r0, r3, r6

000010e4 <l955>:
    10e4:	70d7a094 	smullsvc	sl, r7, r4, r0

000010e8 <l956>:
    10e8:	e0d8ea9b 	smulls	lr, r8, fp, sl

000010ec <l957>:
    10ec:	d0dc3794 	smullsle	r3, ip, r4, r7

000010f0 <l958>:
    10f0:	e0c49793 	smull	r9, r4, r3, r7

000010f4 <l959>:
    10f4:	70da379c 	smullsvc	r3, sl, ip, r7

000010f8 <l960>:
    10f8:	40da3b98 	smullsmi	r3, sl, r8, fp

000010fc <l961>:
    10fc:	e0c85a9c 	smull	r5, r8, ip, sl

00001100 <l962>:
    1100:	80d12993 	smullshi	r2, r1, r3, r9

00001104 <l963>:
    1104:	90d95b9a 	smullsls	r5, r9, sl, fp

00001108 <l964>:
    1108:	30c7989b 	smullcc	r9, r7, fp, r8

0000110c <l965>:
    110c:	e0dc9c97 	smulls	r9, ip, r7, ip

00001110 <l966>:
    1110:	10da0991 	smullsne	r0, sl, r1, r9

00001114 <l967>:
    1114:	e0db1297 	smulls	r1, fp, r7, r2

00001118 <l968>:
    1118:	00c94a9a 	smulleq	r4, r9, sl, sl

0000111c <l969>:
    111c:	b0db9c9a 	smullslt	r9, fp, sl, ip

00001120 <l970>:
    1120:	90d5aa98 	smullsls	sl, r5, r8, sl

00001124 <l971>:
    1124:	60c7419e 	smullvs	r4, r7, lr, r1

00001128 <l972>:
    1128:	90d6bb91 	smullsls	fp, r6, r1, fp

0000112c <l973>:
    112c:	e0d8949a 	smulls	r9, r8, sl, r4

00001130 <l974>:
    1130:	50c3089a 	smullpl	r0, r3, sl, r8

00001134 <l975>:
    1134:	e0c83992 	smull	r3, r8, r2, r9

00001138 <l976>:
    1138:	d0d07594 	smullsle	r7, r0, r4, r5

0000113c <l977>:
    113c:	e0d4a899 	smulls	sl, r4, r9, r8

00001140 <l978>:
    1140:	80d86299 	smullshi	r6, r8, r9, r2

00001144 <l979>:
    1144:	20c5e599 	smullcs	lr, r5, r9, r5

00001148 <l980>:
    1148:	10c3c097 	smullne	ip, r3, r7, r0

0000114c <l981>:
    114c:	e0c12794 	smull	r2, r1, r4, r7

00001150 <l982>:
    1150:	40c3469a 	smullmi	r4, r3, sl, r6

00001154 <l983>:
    1154:	60d54193 	smullsvs	r4, r5, r3, r1

00001158 <l984>:
    1158:	90c63a9e 	smullls	r3, r6, lr, sl

0000115c <l985>:
    115c:	e0c37391 	smull	r7, r3, r1, r3

00001160 <l986>:
    1160:	90ce2298 	smullls	r2, lr, r8, r2

00001164 <l987>:
    1164:	90c7e295 	smullls	lr, r7, r5, r2

00001168 <l988>:
    1168:	e0c9a191 	smull	sl, r9, r1, r1

0000116c <l989>:
    116c:	60c67690 	smullvs	r7, r6, r0, r6

00001170 <l990>:
    1170:	50ccb795 	smullpl	fp, ip, r5, r7

00001174 <l991>:
    1174:	60d54797 	smullsvs	r4, r5, r7, r7

00001178 <l992>:
    1178:	70c8bb94 	smullvc	fp, r8, r4, fp

0000117c <l993>:
    117c:	60c96a9a 	smullvs	r6, r9, sl, sl

00001180 <l994>:
    1180:	e0d43699 	smulls	r3, r4, r9, r6

00001184 <l995>:
    1184:	60dbcc91 	smullsvs	ip, fp, r1, ip

00001188 <l996>:
    1188:	d0c2e997 	smullle	lr, r2, r7, r9

0000118c <l997>:
    118c:	e0d1839a 	smulls	r8, r1, sl, r3

00001190 <l998>:
    1190:	e0cc969e 	smull	r9, ip, lr, r6

00001194 <l999>:
    1194:	e0d26a98 	smulls	r6, r2, r8, sl

00001198 <l1000>:
    1198:	c0c0699e 	smullgt	r6, r0, lr, r9

0000119c <end>:
    119c:	eafffffe 	b	119c <end>
