
stm_1000.o:     file format elf32-littlearm


Disassembly of section .text:

00000000 <main>:
       0:	e05f000f 	subs	r0, pc, pc
       4:	e59fd000 	ldr	sp, [pc]	; c <val>
       8:	ea000000 	b	10 <next>

0000000c <val>:
       c:	000ffff0 	.word	0x000ffff0

00000010 <next>:
      10:	e59f1000 	ldr	r1, [pc]	; 18 <val1>
      14:	ea000000 	b	1c <next1>

00000018 <val1>:
      18:	cb67b003 	.word	0xcb67b003

0000001c <next1>:
      1c:	e59f2000 	ldr	r2, [pc]	; 24 <val2>
      20:	ea000000 	b	28 <next2>

00000024 <val2>:
      24:	3364c727 	.word	0x3364c727

00000028 <next2>:
      28:	e59f3000 	ldr	r3, [pc]	; 30 <val3>
      2c:	ea000000 	b	34 <next3>

00000030 <val3>:
      30:	5129f3e5 	.word	0x5129f3e5

00000034 <next3>:
      34:	e59f4000 	ldr	r4, [pc]	; 3c <val4>
      38:	ea000000 	b	40 <next4>

0000003c <val4>:
      3c:	cfee7564 	.word	0xcfee7564

00000040 <next4>:
      40:	e59f5000 	ldr	r5, [pc]	; 48 <val5>
      44:	ea000000 	b	4c <next5>

00000048 <val5>:
      48:	b8e1c878 	.word	0xb8e1c878

0000004c <next5>:
      4c:	e59f6000 	ldr	r6, [pc]	; 54 <val6>
      50:	ea000000 	b	58 <next6>

00000054 <val6>:
      54:	0d4ac672 	.word	0x0d4ac672

00000058 <next6>:
      58:	e59f7000 	ldr	r7, [pc]	; 60 <val7>
      5c:	ea000000 	b	64 <next7>

00000060 <val7>:
      60:	41448339 	.word	0x41448339

00000064 <next7>:
      64:	e59f8000 	ldr	r8, [pc]	; 6c <val8>
      68:	ea000000 	b	70 <next8>

0000006c <val8>:
      6c:	309f8c0f 	.word	0x309f8c0f

00000070 <next8>:
      70:	e59f9000 	ldr	r9, [pc]	; 78 <val9>
      74:	ea000000 	b	7c <next9>

00000078 <val9>:
      78:	2adb243a 	.word	0x2adb243a

0000007c <next9>:
      7c:	e59fa000 	ldr	sl, [pc]	; 84 <val10>
      80:	ea000000 	b	88 <next10>

00000084 <val10>:
      84:	30f1e65f 	.word	0x30f1e65f

00000088 <next10>:
      88:	e59fb000 	ldr	fp, [pc]	; 90 <val11>
      8c:	ea000000 	b	94 <next11>

00000090 <val11>:
      90:	bb754472 	.word	0xbb754472

00000094 <next11>:
      94:	e59fc000 	ldr	ip, [pc]	; 9c <val12>
      98:	ea000000 	b	a0 <next12>

0000009c <val12>:
      9c:	415f69eb 	.word	0x415f69eb

000000a0 <next12>:
      a0:	e59fe000 	ldr	lr, [pc]	; a8 <val14>
      a4:	ea000000 	b	ac <next14>

000000a8 <val14>:
      a8:	3f288c62 	.word	0x3f288c62

000000ac <next14>:
      ac:	e59f1000 	ldr	r1, [pc]	; b4 <val15>
      b0:	ea000000 	b	b8 <next15>

000000b4 <val15>:
      b4:	8be27db1 	.word	0x8be27db1

000000b8 <next15>:
      b8:	e58d1000 	str	r1, [sp]
      bc:	e59f1000 	ldr	r1, [pc]	; c4 <val16>
      c0:	ea000000 	b	c8 <next16>

000000c4 <val16>:
      c4:	f12b256f 	.word	0xf12b256f

000000c8 <next16>:
      c8:	e50d1004 	str	r1, [sp, #-4]
      cc:	e59f1000 	ldr	r1, [pc]	; d4 <val17>
      d0:	ea000000 	b	d8 <next17>

000000d4 <val17>:
      d4:	612971f7 	.word	0x612971f7

000000d8 <next17>:
      d8:	e50d1008 	str	r1, [sp, #-8]
      dc:	e59f1000 	ldr	r1, [pc]	; e4 <val18>
      e0:	ea000000 	b	e8 <next18>

000000e4 <val18>:
      e4:	5269ef06 	.word	0x5269ef06

000000e8 <next18>:
      e8:	e50d100c 	str	r1, [sp, #-12]
      ec:	e59f1000 	ldr	r1, [pc]	; f4 <val19>
      f0:	ea000000 	b	f8 <next19>

000000f4 <val19>:
      f4:	42101964 	.word	0x42101964

000000f8 <next19>:
      f8:	e50d1010 	str	r1, [sp, #-16]
      fc:	e59f1000 	ldr	r1, [pc]	; 104 <val20>
     100:	ea000000 	b	108 <next20>

00000104 <val20>:
     104:	ea8ea672 	.word	0xea8ea672

00000108 <next20>:
     108:	e50d1014 	str	r1, [sp, #-20]
     10c:	e59f1000 	ldr	r1, [pc]	; 114 <val21>
     110:	ea000000 	b	118 <next21>

00000114 <val21>:
     114:	8e90e177 	.word	0x8e90e177

00000118 <next21>:
     118:	e50d1018 	str	r1, [sp, #-24]
     11c:	e59f1000 	ldr	r1, [pc]	; 124 <val22>
     120:	ea000000 	b	128 <next22>

00000124 <val22>:
     124:	df5af315 	.word	0xdf5af315

00000128 <next22>:
     128:	e50d101c 	str	r1, [sp, #-28]
     12c:	e59f1000 	ldr	r1, [pc]	; 134 <val23>
     130:	ea000000 	b	138 <next23>

00000134 <val23>:
     134:	4b563b35 	.word	0x4b563b35

00000138 <next23>:
     138:	e50d1020 	str	r1, [sp, #-32]
     13c:	e59f1000 	ldr	r1, [pc]	; 144 <val24>
     140:	ea000000 	b	148 <next24>

00000144 <val24>:
     144:	3a7dbd44 	.word	0x3a7dbd44

00000148 <next24>:
     148:	e50d1024 	str	r1, [sp, #-36]	; 0x24
     14c:	e59f1000 	ldr	r1, [pc]	; 154 <val25>
     150:	ea000000 	b	158 <next25>

00000154 <val25>:
     154:	e30a057b 	.word	0xe30a057b

00000158 <next25>:
     158:	e50d1028 	str	r1, [sp, #-40]	; 0x28
     15c:	e59f1000 	ldr	r1, [pc]	; 164 <val26>
     160:	ea000000 	b	168 <next26>

00000164 <val26>:
     164:	2be3b829 	.word	0x2be3b829

00000168 <next26>:
     168:	e50d102c 	str	r1, [sp, #-44]	; 0x2c
     16c:	e59f1000 	ldr	r1, [pc]	; 174 <val27>
     170:	ea000000 	b	178 <next27>

00000174 <val27>:
     174:	61e54954 	.word	0x61e54954

00000178 <next27>:
     178:	e50d1030 	str	r1, [sp, #-48]	; 0x30
     17c:	e59f1000 	ldr	r1, [pc]	; 184 <val28>
     180:	ea000000 	b	188 <next28>

00000184 <val28>:
     184:	7046edb5 	.word	0x7046edb5

00000188 <next28>:
     188:	e50d1034 	str	r1, [sp, #-52]	; 0x34
     18c:	e59f1000 	ldr	r1, [pc]	; 194 <val29>
     190:	ea000000 	b	198 <next29>

00000194 <val29>:
     194:	9040dd8f 	.word	0x9040dd8f

00000198 <next29>:
     198:	e50d1038 	str	r1, [sp, #-56]	; 0x38
     19c:	e59f1000 	ldr	r1, [pc]	; 1a4 <val30>
     1a0:	ea000000 	b	1a8 <next30>

000001a4 <val30>:
     1a4:	74ac8b6b 	.word	0x74ac8b6b

000001a8 <next30>:
     1a8:	e50d103c 	str	r1, [sp, #-60]	; 0x3c
     1ac:	e59f1000 	ldr	r1, [pc]	; 1b4 <val31>
     1b0:	ea000000 	b	1b8 <next31>

000001b4 <val31>:
     1b4:	c14b34d3 	.word	0xc14b34d3

000001b8 <next31>:
     1b8:	e50d1040 	str	r1, [sp, #-64]	; 0x40
     1bc:	e59f1000 	ldr	r1, [pc]	; 1c4 <val32>
     1c0:	ea000000 	b	1c8 <next32>

000001c4 <val32>:
     1c4:	af4e2c3d 	.word	0xaf4e2c3d

000001c8 <next32>:
     1c8:	e50d1044 	str	r1, [sp, #-68]	; 0x44
     1cc:	e59f1000 	ldr	r1, [pc]	; 1d4 <val33>
     1d0:	ea000000 	b	1d8 <next33>

000001d4 <val33>:
     1d4:	3f01969f 	.word	0x3f01969f

000001d8 <next33>:
     1d8:	e50d1048 	str	r1, [sp, #-72]	; 0x48
     1dc:	e59f1000 	ldr	r1, [pc]	; 1e4 <val34>
     1e0:	ea000000 	b	1e8 <next34>

000001e4 <val34>:
     1e4:	78df423e 	.word	0x78df423e

000001e8 <next34>:
     1e8:	e50d104c 	str	r1, [sp, #-76]	; 0x4c
     1ec:	e59f1000 	ldr	r1, [pc]	; 1f4 <val35>
     1f0:	ea000000 	b	1f8 <next35>

000001f4 <val35>:
     1f4:	d5302176 	.word	0xd5302176

000001f8 <next35>:
     1f8:	e50d1050 	str	r1, [sp, #-80]	; 0x50

000001fc <l1>:
     1fc:	e82d2000 	stmda	sp!, {sp}

00000200 <l2>:
     200:	e82de000 	stmda	sp!, {sp, lr, pc}

00000204 <l3>:
     204:	e1a00000 	nop			; (mov r0, r0)

00000208 <l4>:
     208:	e9ad8000 	stmib	sp!, {pc}

0000020c <l5>:
     20c:	e8ad2000 	stmia	sp!, {sp}

00000210 <l6>:
     210:	e80d0108 	stmda	sp, {r3, r8}

00000214 <l7>:
     214:	e1a00000 	nop			; (mov r0, r0)

00000218 <l8>:
     218:	e92de000 	push	{sp, lr, pc}

0000021c <l9>:
     21c:	480d01a0 	stmdami	sp, {r5, r7, r8}

00000220 <l10>:
     220:	e1a00000 	nop			; (mov r0, r0)

00000224 <l11>:
     224:	e82d452a 	stmda	sp!, {r1, r3, r5, r8, sl, lr}

00000228 <l12>:
     228:	e1a00000 	nop			; (mov r0, r0)

0000022c <l13>:
     22c:	e82d8000 	stmda	sp!, {pc}

00000230 <l14>:
     230:	e1a00000 	nop			; (mov r0, r0)

00000234 <l15>:
     234:	e82d8040 	stmda	sp!, {r6, pc}

00000238 <l16>:
     238:	e9ad890a 	stmib	sp!, {r1, r3, r8, fp, pc}

0000023c <l17>:
     23c:	e8ad5410 	stmia	sp!, {r4, sl, ip, lr}

00000240 <l18>:
     240:	e1a00000 	nop			; (mov r0, r0)

00000244 <l19>:
     244:	e1a00000 	nop			; (mov r0, r0)

00000248 <l20>:
     248:	e1a00000 	nop			; (mov r0, r0)

0000024c <l21>:
     24c:	e90d0802 	stmdb	sp, {r1, fp}

00000250 <l22>:
     250:	e9ad0c08 	stmib	sp!, {r3, sl, fp}

00000254 <l23>:
     254:	e92d6000 	push	{sp, lr}

00000258 <l24>:
     258:	e1a00000 	nop			; (mov r0, r0)

0000025c <l25>:
     25c:	798d0880 	stmibvc	sp, {r7, fp}

00000260 <l26>:
     260:	c80d0401 	stmdagt	sp, {r0, sl}

00000264 <l27>:
     264:	e1a00000 	nop			; (mov r0, r0)

00000268 <l28>:
     268:	e92d6000 	push	{sp, lr}

0000026c <l29>:
     26c:	e9ad2000 	stmib	sp!, {sp}

00000270 <l30>:
     270:	e80d2001 	stmda	sp, {r0, sp}

00000274 <l31>:
     274:	e98d0020 	stmib	sp, {r5}

00000278 <l32>:
     278:	e8ad0010 	stmia	sp!, {r4}

0000027c <l33>:
     27c:	e82d8438 	stmda	sp!, {r3, r4, r5, sl, pc}

00000280 <l34>:
     280:	e98d2855 	stmib	sp, {r0, r2, r4, r6, fp, sp}

00000284 <l35>:
     284:	098d0002 	stmibeq	sp, {r1}

00000288 <l36>:
     288:	e82da000 	stmda	sp!, {sp, pc}

0000028c <l37>:
     28c:	e9ad2000 	stmib	sp!, {sp}

00000290 <l38>:
     290:	480d6104 	stmdami	sp, {r2, r8, sp, lr}

00000294 <l39>:
     294:	e8ad0200 	stmia	sp!, {r9}

00000298 <l40>:
     298:	790d1024 	stmdbvc	sp, {r2, r5, ip}

0000029c <l41>:
     29c:	e1a00000 	nop			; (mov r0, r0)

000002a0 <l42>:
     2a0:	498d0124 	stmibmi	sp, {r2, r5, r8}

000002a4 <l43>:
     2a4:	c90d7926 	stmdbgt	sp, {r1, r2, r5, r8, fp, ip, sp, lr}

000002a8 <l44>:
     2a8:	e8ad2000 	stmia	sp!, {sp}

000002ac <l45>:
     2ac:	e88d84c1 	stm	sp, {r0, r6, r7, sl, pc}

000002b0 <l46>:
     2b0:	e8ade000 	stmia	sp!, {sp, lr, pc}

000002b4 <l47>:
     2b4:	298d8802 	stmibcs	sp, {r1, fp, pc}

000002b8 <l48>:
     2b8:	e9ad0010 	stmib	sp!, {r4}

000002bc <l49>:
     2bc:	988d0040 	stmls	sp, {r6}

000002c0 <l50>:
     2c0:	e1a00000 	nop			; (mov r0, r0)

000002c4 <l51>:
     2c4:	e98d0021 	stmib	sp, {r0, r5}

000002c8 <l52>:
     2c8:	e82d8380 	stmda	sp!, {r7, r8, r9, pc}

000002cc <l53>:
     2cc:	e92d8000 	stmfd	sp!, {pc}

000002d0 <l54>:
     2d0:	e8ad191e 	stmia	sp!, {r1, r2, r3, r4, r8, fp, ip}

000002d4 <l55>:
     2d4:	e1a00000 	nop			; (mov r0, r0)

000002d8 <l56>:
     2d8:	e1a00000 	nop			; (mov r0, r0)

000002dc <l57>:
     2dc:	e1a00000 	nop			; (mov r0, r0)

000002e0 <l58>:
     2e0:	e90d1088 	stmdb	sp, {r3, r7, ip}

000002e4 <l59>:
     2e4:	e82d9f6b 	stmda	sp!, {r0, r1, r3, r5, r6, r8, r9, sl, fp, ip, pc}

000002e8 <l60>:
     2e8:	e82d0200 	stmda	sp!, {r9}

000002ec <l61>:
     2ec:	e92d009c 	push	{r2, r3, r4, r7}

000002f0 <l62>:
     2f0:	e1a00000 	nop			; (mov r0, r0)

000002f4 <l63>:
     2f4:	e8ad2000 	stmia	sp!, {sp}

000002f8 <l64>:
     2f8:	e80d1000 	stmda	sp, {ip}

000002fc <l65>:
     2fc:	e80d0100 	stmda	sp, {r8}

00000300 <l66>:
     300:	e9ad9299 	stmib	sp!, {r0, r3, r4, r7, r9, ip, pc}

00000304 <l67>:
     304:	e9ad0c00 	stmib	sp!, {sl, fp}

00000308 <l68>:
     308:	e1a00000 	nop			; (mov r0, r0)

0000030c <l69>:
     30c:	490dc943 	stmdbmi	sp, {r0, r1, r6, r8, fp, lr, pc}

00000310 <l70>:
     310:	e8ada000 	stmia	sp!, {sp, pc}

00000314 <l71>:
     314:	e8ad4000 	stmia	sp!, {lr}

00000318 <l72>:
     318:	e8ad1005 	stmia	sp!, {r0, r2, ip}

0000031c <l73>:
     31c:	e1a00000 	nop			; (mov r0, r0)

00000320 <l74>:
     320:	e1a00000 	nop			; (mov r0, r0)

00000324 <l75>:
     324:	e80d0200 	stmda	sp, {r9}

00000328 <l76>:
     328:	e1a00000 	nop			; (mov r0, r0)

0000032c <l77>:
     32c:	e92d0010 	stmfd	sp!, {r4}

00000330 <l78>:
     330:	e1a00000 	nop			; (mov r0, r0)

00000334 <l79>:
     334:	e9ad0200 	stmib	sp!, {r9}

00000338 <l80>:
     338:	e1a00000 	nop			; (mov r0, r0)

0000033c <l81>:
     33c:	e1a00000 	nop			; (mov r0, r0)

00000340 <l82>:
     340:	e92d8004 	push	{r2, pc}

00000344 <l83>:
     344:	e1a00000 	nop			; (mov r0, r0)

00000348 <l84>:
     348:	e1a00000 	nop			; (mov r0, r0)

0000034c <l85>:
     34c:	e9ad0004 	stmib	sp!, {r2}

00000350 <l86>:
     350:	a98d0008 	stmibge	sp, {r3}

00000354 <l87>:
     354:	e92d401a 	push	{r1, r3, r4, lr}

00000358 <l88>:
     358:	e1a00000 	nop			; (mov r0, r0)

0000035c <l89>:
     35c:	e8ad0118 	stmia	sp!, {r3, r4, r8}

00000360 <l90>:
     360:	e8ad0500 	stmia	sp!, {r8, sl}

00000364 <l91>:
     364:	e92d199d 	push	{r0, r2, r3, r4, r7, r8, fp, ip}

00000368 <l92>:
     368:	e9ada000 	stmib	sp!, {sp, pc}

0000036c <l93>:
     36c:	e9adc898 	stmib	sp!, {r3, r4, r7, fp, lr, pc}

00000370 <l94>:
     370:	e82da000 	stmda	sp!, {sp, pc}

00000374 <l95>:
     374:	e1a00000 	nop			; (mov r0, r0)

00000378 <l96>:
     378:	e98d8000 	stmib	sp, {pc}

0000037c <l97>:
     37c:	e9ad0028 	stmib	sp!, {r3, r5}

00000380 <l98>:
     380:	e1a00000 	nop			; (mov r0, r0)

00000384 <l99>:
     384:	e1a00000 	nop			; (mov r0, r0)

00000388 <l100>:
     388:	e92da000 	push	{sp, pc}

0000038c <l101>:
     38c:	e82d0135 	stmda	sp!, {r0, r2, r4, r5, r8}

00000390 <l102>:
     390:	e1a00000 	nop			; (mov r0, r0)

00000394 <l103>:
     394:	e80d82c5 	stmda	sp, {r0, r2, r6, r7, r9, pc}

00000398 <l104>:
     398:	e9ad9010 	stmib	sp!, {r4, ip, pc}

0000039c <l105>:
     39c:	e1a00000 	nop			; (mov r0, r0)

000003a0 <l106>:
     3a0:	e80d13ae 	stmda	sp, {r1, r2, r3, r5, r7, r8, r9, ip}

000003a4 <l107>:
     3a4:	e1a00000 	nop			; (mov r0, r0)

000003a8 <l108>:
     3a8:	e1a00000 	nop			; (mov r0, r0)

000003ac <l109>:
     3ac:	e9ad8002 	stmib	sp!, {r1, pc}

000003b0 <l110>:
     3b0:	e1a00000 	nop			; (mov r0, r0)

000003b4 <l111>:
     3b4:	e1a00000 	nop			; (mov r0, r0)

000003b8 <l112>:
     3b8:	e82d0001 	stmda	sp!, {r0}

000003bc <l113>:
     3bc:	e8ad0700 	stmia	sp!, {r8, r9, sl}

000003c0 <l114>:
     3c0:	e90d8a02 	stmdb	sp, {r1, r9, fp, pc}

000003c4 <l115>:
     3c4:	e92de000 	push	{sp, lr, pc}

000003c8 <l116>:
     3c8:	198d0041 	stmibne	sp, {r0, r6}

000003cc <l117>:
     3cc:	e1a00000 	nop			; (mov r0, r0)

000003d0 <l118>:
     3d0:	e92d04c8 	push	{r3, r6, r7, sl}

000003d4 <l119>:
     3d4:	e8ad000b 	stmia	sp!, {r0, r1, r3}

000003d8 <l120>:
     3d8:	e1a00000 	nop			; (mov r0, r0)

000003dc <l121>:
     3dc:	e82d9cd7 	stmda	sp!, {r0, r1, r2, r4, r6, r7, sl, fp, ip, pc}

000003e0 <l122>:
     3e0:	e9ad6000 	stmib	sp!, {sp, lr}

000003e4 <l123>:
     3e4:	e98d4e0a 	stmib	sp, {r1, r3, r9, sl, fp, lr}

000003e8 <l124>:
     3e8:	e88dfe4f 	stm	sp, {r0, r1, r2, r3, r6, r9, sl, fp, ip, sp, lr, pc}

000003ec <l125>:
     3ec:	e8ad4ded 	stmia	sp!, {r0, r2, r3, r5, r6, r7, r8, sl, fp, lr}

000003f0 <l126>:
     3f0:	e82d0063 	stmda	sp!, {r0, r1, r5, r6}

000003f4 <l127>:
     3f4:	e82d0081 	stmda	sp!, {r0, r7}

000003f8 <l128>:
     3f8:	e82d5890 	stmda	sp!, {r4, r7, fp, ip, lr}

000003fc <l129>:
     3fc:	e8ad8112 	stmia	sp!, {r1, r4, r8, pc}

00000400 <l130>:
     400:	e8ad0100 	stmia	sp!, {r8}

00000404 <l131>:
     404:	e1a00000 	nop			; (mov r0, r0)

00000408 <l132>:
     408:	e90d0124 	stmdb	sp, {r2, r5, r8}

0000040c <l133>:
     40c:	e8ad0244 	stmia	sp!, {r2, r6, r9}

00000410 <l134>:
     410:	e8ad0001 	stmia	sp!, {r0}

00000414 <l135>:
     414:	588d8040 	stmpl	sp, {r6, pc}

00000418 <l136>:
     418:	e8ad2000 	stmia	sp!, {sp}

0000041c <l137>:
     41c:	e92d594f 	push	{r0, r1, r2, r3, r6, r8, fp, ip, lr}

00000420 <l138>:
     420:	e98d8820 	stmib	sp, {r5, fp, pc}

00000424 <l139>:
     424:	490d4108 	stmdbmi	sp, {r3, r8, lr}

00000428 <l140>:
     428:	e8ad00b2 	stmia	sp!, {r1, r4, r5, r7}

0000042c <l141>:
     42c:	e9ad9613 	stmib	sp!, {r0, r1, r4, r9, sl, ip, pc}

00000430 <l142>:
     430:	e9ad4000 	stmib	sp!, {lr}

00000434 <l143>:
     434:	e92d2000 	stmfd	sp!, {sp}

00000438 <l144>:
     438:	e92d6000 	push	{sp, lr}

0000043c <l145>:
     43c:	e92d9205 	push	{r0, r2, r9, ip, pc}

00000440 <l146>:
     440:	e9ad8080 	stmib	sp!, {r7, pc}

00000444 <l147>:
     444:	e8ad2000 	stmia	sp!, {sp}

00000448 <l148>:
     448:	e1a00000 	nop			; (mov r0, r0)

0000044c <l149>:
     44c:	e8ad8600 	stmia	sp!, {r9, sl, pc}

00000450 <l150>:
     450:	e1a00000 	nop			; (mov r0, r0)

00000454 <l151>:
     454:	e1a00000 	nop			; (mov r0, r0)

00000458 <l152>:
     458:	e8ad0800 	stmia	sp!, {fp}

0000045c <l153>:
     45c:	e92d52aa 	push	{r1, r3, r5, r7, r9, ip, lr}

00000460 <l154>:
     460:	e88da302 	stm	sp, {r1, r8, r9, sp, pc}

00000464 <l155>:
     464:	e8ad52c4 	stmia	sp!, {r2, r6, r7, r9, ip, lr}

00000468 <l156>:
     468:	e92ddfe7 	push	{r0, r1, r2, r5, r6, r7, r8, r9, sl, fp, ip, lr, pc}

0000046c <l157>:
     46c:	b98debee 	stmiblt	sp, {r1, r2, r3, r5, r6, r7, r8, r9, fp, sp, lr, pc}

00000470 <l158>:
     470:	e98dffef 	stmib	sp, {r0, r1, r2, r3, r5, r6, r7, r8, r9, sl, fp, ip, sp, lr, pc}

00000474 <l159>:
     474:	588d2fa5 	stmpl	sp, {r0, r2, r5, r7, r8, r9, sl, fp, sp}

00000478 <l160>:
     478:	e98d76ff 	stmib	sp, {r0, r1, r2, r3, r4, r5, r6, r7, r9, sl, ip, sp, lr}

0000047c <l161>:
     47c:	e82d0008 	stmda	sp!, {r3}

00000480 <l162>:
     480:	e1a00000 	nop			; (mov r0, r0)

00000484 <l163>:
     484:	e9ad4004 	stmib	sp!, {r2, lr}

00000488 <l164>:
     488:	490d0024 	stmdbmi	sp, {r2, r5}

0000048c <l165>:
     48c:	880d0800 	stmdahi	sp, {fp}

00000490 <l166>:
     490:	e92d0200 	stmfd	sp!, {r9}

00000494 <l167>:
     494:	e1a00000 	nop			; (mov r0, r0)

00000498 <l168>:
     498:	e1a00000 	nop			; (mov r0, r0)

0000049c <l169>:
     49c:	e1a00000 	nop			; (mov r0, r0)

000004a0 <l170>:
     4a0:	e98d0c65 	stmib	sp, {r0, r2, r5, r6, sl, fp}

000004a4 <l171>:
     4a4:	e1a00000 	nop			; (mov r0, r0)

000004a8 <l172>:
     4a8:	e88d8140 	stm	sp, {r6, r8, pc}

000004ac <l173>:
     4ac:	e82d0002 	stmda	sp!, {r1}

000004b0 <l174>:
     4b0:	e9ad6000 	stmib	sp!, {sp, lr}

000004b4 <l175>:
     4b4:	190d1000 	stmdbne	sp, {ip}

000004b8 <l176>:
     4b8:	e98d1080 	stmib	sp, {r7, ip}

000004bc <l177>:
     4bc:	e1a00000 	nop			; (mov r0, r0)

000004c0 <l178>:
     4c0:	e8ad0840 	stmia	sp!, {r6, fp}

000004c4 <l179>:
     4c4:	e9ad0c00 	stmib	sp!, {sl, fp}

000004c8 <l180>:
     4c8:	e82d0014 	stmda	sp!, {r2, r4}

000004cc <l181>:
     4cc:	e1a00000 	nop			; (mov r0, r0)

000004d0 <l182>:
     4d0:	e82d0060 	stmda	sp!, {r5, r6}

000004d4 <l183>:
     4d4:	e82d0009 	stmda	sp!, {r0, r3}

000004d8 <l184>:
     4d8:	e1a00000 	nop			; (mov r0, r0)

000004dc <l185>:
     4dc:	e88d564a 	stm	sp, {r1, r3, r6, r9, sl, ip, lr}

000004e0 <l186>:
     4e0:	588d0220 	stmpl	sp, {r5, r9}

000004e4 <l187>:
     4e4:	e1a00000 	nop			; (mov r0, r0)

000004e8 <l188>:
     4e8:	698dc1a6 	stmibvs	sp, {r1, r2, r5, r7, r8, lr, pc}

000004ec <l189>:
     4ec:	898d0821 	stmibhi	sp, {r0, r5, fp}

000004f0 <l190>:
     4f0:	e8ad2000 	stmia	sp!, {sp}

000004f4 <l191>:
     4f4:	e92d4000 	stmfd	sp!, {lr}

000004f8 <l192>:
     4f8:	e1a00000 	nop			; (mov r0, r0)

000004fc <l193>:
     4fc:	e1a00000 	nop			; (mov r0, r0)

00000500 <l194>:
     500:	e8ad4008 	stmia	sp!, {r3, lr}

00000504 <l195>:
     504:	598d2499 	stmibpl	sp, {r0, r3, r4, r7, sl, sp}

00000508 <l196>:
     508:	e8ada000 	stmia	sp!, {sp, pc}

0000050c <l197>:
     50c:	e82d0830 	stmda	sp!, {r4, r5, fp}

00000510 <l198>:
     510:	e8ad8114 	stmia	sp!, {r2, r4, r8, pc}

00000514 <l199>:
     514:	e80d0a41 	stmda	sp, {r0, r6, r9, fp}

00000518 <l200>:
     518:	e8ada000 	stmia	sp!, {sp, pc}

0000051c <l201>:
     51c:	e90d2605 	stmdb	sp, {r0, r2, r9, sl, sp}

00000520 <l202>:
     520:	e92d9019 	push	{r0, r3, r4, ip, pc}

00000524 <l203>:
     524:	e92d0002 	stmfd	sp!, {r1}

00000528 <l204>:
     528:	e82d0020 	stmda	sp!, {r5}

0000052c <l205>:
     52c:	e1a00000 	nop			; (mov r0, r0)

00000530 <l206>:
     530:	e1a00000 	nop			; (mov r0, r0)

00000534 <l207>:
     534:	e9ad2000 	stmib	sp!, {sp}

00000538 <l208>:
     538:	e1a00000 	nop			; (mov r0, r0)

0000053c <l209>:
     53c:	e8ade000 	stmia	sp!, {sp, lr, pc}

00000540 <l210>:
     540:	e1a00000 	nop			; (mov r0, r0)

00000544 <l211>:
     544:	e1a00000 	nop			; (mov r0, r0)

00000548 <l212>:
     548:	e88de04c 	stm	sp, {r2, r3, r6, sp, lr, pc}

0000054c <l213>:
     54c:	e1a00000 	nop			; (mov r0, r0)

00000550 <l214>:
     550:	e90da050 	stmdb	sp, {r4, r6, sp, pc}

00000554 <l215>:
     554:	298d43f4 	stmibcs	sp, {r2, r4, r5, r6, r7, r8, r9, lr}

00000558 <l216>:
     558:	e92d0200 	stmfd	sp!, {r9}

0000055c <l217>:
     55c:	e92d1004 	push	{r2, ip}

00000560 <l218>:
     560:	e1a00000 	nop			; (mov r0, r0)

00000564 <l219>:
     564:	e1a00000 	nop			; (mov r0, r0)

00000568 <l220>:
     568:	e1a00000 	nop			; (mov r0, r0)

0000056c <l221>:
     56c:	e8ad6000 	stmia	sp!, {sp, lr}

00000570 <l222>:
     570:	e1a00000 	nop			; (mov r0, r0)

00000574 <l223>:
     574:	e1a00000 	nop			; (mov r0, r0)

00000578 <l224>:
     578:	e1a00000 	nop			; (mov r0, r0)

0000057c <l225>:
     57c:	e8ade000 	stmia	sp!, {sp, lr, pc}

00000580 <l226>:
     580:	e92d2000 	stmfd	sp!, {sp}

00000584 <l227>:
     584:	e90d0a12 	stmdb	sp, {r1, r4, r9, fp}

00000588 <l228>:
     588:	e9ad0111 	stmib	sp!, {r0, r4, r8}

0000058c <l229>:
     58c:	e8ad8d6a 	stmia	sp!, {r1, r3, r5, r6, r8, sl, fp, pc}

00000590 <l230>:
     590:	e82da000 	stmda	sp!, {sp, pc}

00000594 <l231>:
     594:	e82d6000 	stmda	sp!, {sp, lr}

00000598 <l232>:
     598:	e80d1000 	stmda	sp, {ip}

0000059c <l233>:
     59c:	e98d0440 	stmib	sp, {r6, sl}

000005a0 <l234>:
     5a0:	e1a00000 	nop			; (mov r0, r0)

000005a4 <l235>:
     5a4:	e82d0040 	stmda	sp!, {r6}

000005a8 <l236>:
     5a8:	e82da000 	stmda	sp!, {sp, pc}

000005ac <l237>:
     5ac:	e8ad0844 	stmia	sp!, {r2, r6, fp}

000005b0 <l238>:
     5b0:	e92d8fe5 	push	{r0, r2, r5, r6, r7, r8, r9, sl, fp, pc}

000005b4 <l239>:
     5b4:	e9ad9020 	stmib	sp!, {r5, ip, pc}

000005b8 <l240>:
     5b8:	e8ad400c 	stmia	sp!, {r2, r3, lr}

000005bc <l241>:
     5bc:	e9ad89b4 	stmib	sp!, {r2, r4, r5, r7, r8, fp, pc}

000005c0 <l242>:
     5c0:	e82d5f3c 	stmda	sp!, {r2, r3, r4, r5, r8, r9, sl, fp, ip, lr}

000005c4 <l243>:
     5c4:	e8ad4818 	stmia	sp!, {r3, r4, fp, lr}

000005c8 <l244>:
     5c8:	d88d5204 	stmle	sp, {r2, r9, ip, lr}

000005cc <l245>:
     5cc:	e92d0008 	stmfd	sp!, {r3}

000005d0 <l246>:
     5d0:	e8ada000 	stmia	sp!, {sp, pc}

000005d4 <l247>:
     5d4:	e90ddbc4 	stmdb	sp, {r2, r6, r7, r8, r9, fp, ip, lr, pc}

000005d8 <l248>:
     5d8:	e82dc0c0 	stmda	sp!, {r6, r7, lr, pc}

000005dc <l249>:
     5dc:	e9ad0800 	stmib	sp!, {fp}

000005e0 <l250>:
     5e0:	290d0c40 	stmdbcs	sp, {r6, sl, fp}

000005e4 <l251>:
     5e4:	e1a00000 	nop			; (mov r0, r0)

000005e8 <l252>:
     5e8:	e92d4040 	push	{r6, lr}

000005ec <l253>:
     5ec:	e98d9c54 	stmib	sp, {r2, r4, r6, sl, fp, ip, pc}

000005f0 <l254>:
     5f0:	e88d6db4 	stm	sp, {r2, r4, r5, r7, r8, sl, fp, sp, lr}

000005f4 <l255>:
     5f4:	e1a00000 	nop			; (mov r0, r0)

000005f8 <l256>:
     5f8:	e8ad1104 	stmia	sp!, {r2, r8, ip}

000005fc <l257>:
     5fc:	e88d90c2 	stm	sp, {r1, r6, r7, ip, pc}

00000600 <l258>:
     600:	e90df330 	stmdb	sp, {r4, r5, r8, r9, ip, sp, lr, pc}

00000604 <l259>:
     604:	e92da000 	push	{sp, pc}

00000608 <l260>:
     608:	e9ada000 	stmib	sp!, {sp, pc}

0000060c <l261>:
     60c:	988d1840 	stmls	sp, {r6, fp, ip}

00000610 <l262>:
     610:	e8ad2000 	stmia	sp!, {sp}

00000614 <l263>:
     614:	e9ada000 	stmib	sp!, {sp, pc}

00000618 <l264>:
     618:	e92d4113 	push	{r0, r1, r4, r8, lr}

0000061c <l265>:
     61c:	e92d0040 	stmfd	sp!, {r6}

00000620 <l266>:
     620:	e82d8192 	stmda	sp!, {r1, r4, r7, r8, pc}

00000624 <l267>:
     624:	e88dbb5f 	stm	sp, {r0, r1, r2, r3, r4, r6, r8, r9, fp, ip, sp, pc}

00000628 <l268>:
     628:	e1a00000 	nop			; (mov r0, r0)

0000062c <l269>:
     62c:	e1a00000 	nop			; (mov r0, r0)

00000630 <l270>:
     630:	e1a00000 	nop			; (mov r0, r0)

00000634 <l271>:
     634:	e1a00000 	nop			; (mov r0, r0)

00000638 <l272>:
     638:	e1a00000 	nop			; (mov r0, r0)

0000063c <l273>:
     63c:	e8adc927 	stmia	sp!, {r0, r1, r2, r5, r8, fp, lr, pc}

00000640 <l274>:
     640:	e8ad110c 	stmia	sp!, {r2, r3, r8, ip}

00000644 <l275>:
     644:	e92da000 	push	{sp, pc}

00000648 <l276>:
     648:	e9ada000 	stmib	sp!, {sp, pc}

0000064c <l277>:
     64c:	e9ad4000 	stmib	sp!, {lr}

00000650 <l278>:
     650:	e1a00000 	nop			; (mov r0, r0)

00000654 <l279>:
     654:	e8ad6000 	stmia	sp!, {sp, lr}

00000658 <l280>:
     658:	e1a00000 	nop			; (mov r0, r0)

0000065c <l281>:
     65c:	e8ad0008 	stmia	sp!, {r3}

00000660 <l282>:
     660:	e82d851b 	stmda	sp!, {r0, r1, r3, r4, r8, sl, pc}

00000664 <l283>:
     664:	e82d2000 	stmda	sp!, {sp}

00000668 <l284>:
     668:	680d2100 	stmdavs	sp, {r8, sp}

0000066c <l285>:
     66c:	e8ad4713 	stmia	sp!, {r0, r1, r4, r8, r9, sl, lr}

00000670 <l286>:
     670:	e1a00000 	nop			; (mov r0, r0)

00000674 <l287>:
     674:	c90ddb63 	stmdbgt	sp, {r0, r1, r5, r6, r8, r9, fp, ip, lr, pc}

00000678 <l288>:
     678:	e1a00000 	nop			; (mov r0, r0)

0000067c <l289>:
     67c:	e1a00000 	nop			; (mov r0, r0)

00000680 <l290>:
     680:	e88d0008 	stm	sp, {r3}

00000684 <l291>:
     684:	e8ad8000 	stmia	sp!, {pc}

00000688 <l292>:
     688:	e1a00000 	nop			; (mov r0, r0)

0000068c <l293>:
     68c:	e1a00000 	nop			; (mov r0, r0)

00000690 <l294>:
     690:	e90d2fe4 	stmdb	sp, {r2, r5, r6, r7, r8, r9, sl, fp, sp}

00000694 <l295>:
     694:	e90d8008 	stmdb	sp, {r3, pc}

00000698 <l296>:
     698:	e1a00000 	nop			; (mov r0, r0)

0000069c <l297>:
     69c:	e82d2000 	stmda	sp!, {sp}

000006a0 <l298>:
     6a0:	e1a00000 	nop			; (mov r0, r0)

000006a4 <l299>:
     6a4:	298d0002 	stmibcs	sp, {r1}

000006a8 <l300>:
     6a8:	e82da000 	stmda	sp!, {sp, pc}

000006ac <l301>:
     6ac:	e92d6000 	push	{sp, lr}

000006b0 <l302>:
     6b0:	398da024 	stmibcc	sp, {r2, r5, sp, pc}

000006b4 <l303>:
     6b4:	e90d6f1b 	stmdb	sp, {r0, r1, r3, r4, r8, r9, sl, fp, sp, lr}

000006b8 <l304>:
     6b8:	e82d2000 	stmda	sp!, {sp}

000006bc <l305>:
     6bc:	e92d9582 	push	{r1, r7, r8, sl, ip, pc}

000006c0 <l306>:
     6c0:	e9ad6000 	stmib	sp!, {sp, lr}

000006c4 <l307>:
     6c4:	e82d056a 	stmda	sp!, {r1, r3, r5, r6, r8, sl}

000006c8 <l308>:
     6c8:	e1a00000 	nop			; (mov r0, r0)

000006cc <l309>:
     6cc:	e98d0004 	stmib	sp, {r2}

000006d0 <l310>:
     6d0:	e1a00000 	nop			; (mov r0, r0)

000006d4 <l311>:
     6d4:	e1a00000 	nop			; (mov r0, r0)

000006d8 <l312>:
     6d8:	288ddfff 	stmcs	sp, {r0, r1, r2, r3, r4, r5, r6, r7, r8, r9, sl, fp, ip, lr, pc}

000006dc <l313>:
     6dc:	188da105 	stmne	sp, {r0, r2, r8, sp, pc}

000006e0 <l314>:
     6e0:	e98db89d 	stmib	sp, {r0, r2, r3, r4, r7, fp, ip, sp, pc}

000006e4 <l315>:
     6e4:	e98d4e7b 	stmib	sp, {r0, r1, r3, r4, r5, r6, r9, sl, fp, lr}

000006e8 <l316>:
     6e8:	088dfd9f 	stmeq	sp, {r0, r1, r2, r3, r4, r7, r8, sl, fp, ip, sp, lr, pc}

000006ec <l317>:
     6ec:	e1a00000 	nop			; (mov r0, r0)

000006f0 <l318>:
     6f0:	e1a00000 	nop			; (mov r0, r0)

000006f4 <l319>:
     6f4:	e1a00000 	nop			; (mov r0, r0)

000006f8 <l320>:
     6f8:	e1a00000 	nop			; (mov r0, r0)

000006fc <l321>:
     6fc:	e8ade000 	stmia	sp!, {sp, lr, pc}

00000700 <l322>:
     700:	e92d8010 	push	{r4, pc}

00000704 <l323>:
     704:	e8ad9414 	stmia	sp!, {r2, r4, sl, ip, pc}

00000708 <l324>:
     708:	e1a00000 	nop			; (mov r0, r0)

0000070c <l325>:
     70c:	e9ad6000 	stmib	sp!, {sp, lr}

00000710 <l326>:
     710:	e8ada000 	stmia	sp!, {sp, pc}

00000714 <l327>:
     714:	e82d2000 	stmda	sp!, {sp}

00000718 <l328>:
     718:	280d39da 	stmdacs	sp, {r1, r3, r4, r6, r7, r8, fp, ip, sp}

0000071c <l329>:
     71c:	c90d0280 	stmdbgt	sp, {r7, r9}

00000720 <l330>:
     720:	e8ada000 	stmia	sp!, {sp, pc}

00000724 <l331>:
     724:	088d0003 	stmeq	sp, {r0, r1}

00000728 <l332>:
     728:	e80de3f6 	stmda	sp, {r1, r2, r4, r5, r6, r7, r8, r9, sp, lr, pc}

0000072c <l333>:
     72c:	080d0408 	stmdaeq	sp, {r3, sl}

00000730 <l334>:
     730:	e82d16a1 	stmda	sp!, {r0, r5, r7, r9, sl, ip}

00000734 <l335>:
     734:	e8ad411c 	stmia	sp!, {r2, r3, r4, r8, lr}

00000738 <l336>:
     738:	890d2008 	stmdbhi	sp, {r3, sp}

0000073c <l337>:
     73c:	e92da000 	push	{sp, pc}

00000740 <l338>:
     740:	e8ad2000 	stmia	sp!, {sp}

00000744 <l339>:
     744:	e8ad0208 	stmia	sp!, {r3, r9}

00000748 <l340>:
     748:	c90db4fd 	stmdbgt	sp, {r0, r2, r3, r4, r5, r6, r7, sl, ip, sp, pc}

0000074c <l341>:
     74c:	e9ad2000 	stmib	sp!, {sp}

00000750 <l342>:
     750:	e92d1080 	push	{r7, ip}

00000754 <l343>:
     754:	e90d8b32 	stmdb	sp, {r1, r4, r5, r8, r9, fp, pc}

00000758 <l344>:
     758:	d90d7729 	stmdble	sp, {r0, r3, r5, r8, r9, sl, ip, sp, lr}

0000075c <l345>:
     75c:	e90d003a 	stmdb	sp, {r1, r3, r4, r5}

00000760 <l346>:
     760:	e80d8800 	stmda	sp, {fp, pc}

00000764 <l347>:
     764:	780d8527 	stmdavc	sp, {r0, r1, r2, r5, r8, sl, pc}

00000768 <l348>:
     768:	e82d0008 	stmda	sp!, {r3}

0000076c <l349>:
     76c:	e88d0ea8 	stm	sp, {r3, r5, r7, r9, sl, fp}

00000770 <l350>:
     770:	588d3a21 	stmpl	sp, {r0, r5, r9, fp, ip, sp}

00000774 <l351>:
     774:	e8ad0400 	stmia	sp!, {sl}

00000778 <l352>:
     778:	e9ad2000 	stmib	sp!, {sp}

0000077c <l353>:
     77c:	e92d6000 	push	{sp, lr}

00000780 <l354>:
     780:	e9ade000 	stmib	sp!, {sp, lr, pc}

00000784 <l355>:
     784:	e8ad4812 	stmia	sp!, {r1, r4, fp, lr}

00000788 <l356>:
     788:	e1a00000 	nop			; (mov r0, r0)

0000078c <l357>:
     78c:	e1a00000 	nop			; (mov r0, r0)

00000790 <l358>:
     790:	380d3cec 	stmdacc	sp, {r2, r3, r5, r6, r7, sl, fp, ip, sp}

00000794 <l359>:
     794:	e1a00000 	nop			; (mov r0, r0)

00000798 <l360>:
     798:	680d401b 	stmdavs	sp, {r0, r1, r3, r4, lr}

0000079c <l361>:
     79c:	e82dd852 	stmda	sp!, {r1, r4, r6, fp, ip, lr, pc}

000007a0 <l362>:
     7a0:	e92da000 	push	{sp, pc}

000007a4 <l363>:
     7a4:	e8ad07a7 	stmia	sp!, {r0, r1, r2, r5, r7, r8, r9, sl}

000007a8 <l364>:
     7a8:	e80dcfff 	stmda	sp, {r0, r1, r2, r3, r4, r5, r6, r7, r8, r9, sl, fp, lr, pc}

000007ac <l365>:
     7ac:	e1a00000 	nop			; (mov r0, r0)

000007b0 <l366>:
     7b0:	e1a00000 	nop			; (mov r0, r0)

000007b4 <l367>:
     7b4:	e1a00000 	nop			; (mov r0, r0)

000007b8 <l368>:
     7b8:	e1a00000 	nop			; (mov r0, r0)

000007bc <l369>:
     7bc:	e82de000 	stmda	sp!, {sp, lr, pc}

000007c0 <l370>:
     7c0:	e8ad1002 	stmia	sp!, {r1, ip}

000007c4 <l371>:
     7c4:	298d0008 	stmibcs	sp, {r3}

000007c8 <l372>:
     7c8:	e82d0024 	stmda	sp!, {r2, r5}

000007cc <l373>:
     7cc:	e8ad0010 	stmia	sp!, {r4}

000007d0 <l374>:
     7d0:	e1a00000 	nop			; (mov r0, r0)

000007d4 <l375>:
     7d4:	980dc95f 	stmdals	sp, {r0, r1, r2, r3, r4, r6, r8, fp, lr, pc}

000007d8 <l376>:
     7d8:	e1a00000 	nop			; (mov r0, r0)

000007dc <l377>:
     7dc:	e8ad4100 	stmia	sp!, {r8, lr}

000007e0 <l378>:
     7e0:	e92dd6b0 	push	{r4, r5, r7, r9, sl, ip, lr, pc}

000007e4 <l379>:
     7e4:	e90d1800 	stmdb	sp, {fp, ip}

000007e8 <l380>:
     7e8:	e1a00000 	nop			; (mov r0, r0)

000007ec <l381>:
     7ec:	898d61fa 	stmibhi	sp, {r1, r3, r4, r5, r6, r7, r8, sp, lr}

000007f0 <l382>:
     7f0:	880d1414 	stmdahi	sp, {r2, r4, sl, ip}

000007f4 <l383>:
     7f4:	e90d0220 	stmdb	sp, {r5, r9}

000007f8 <l384>:
     7f8:	e90d6005 	stmdb	sp, {r0, r2, sp, lr}

000007fc <l385>:
     7fc:	e90d4180 	stmdb	sp, {r7, r8, lr}

00000800 <l386>:
     800:	e9ad6000 	stmib	sp!, {sp, lr}

00000804 <l387>:
     804:	a80d25c0 	stmdage	sp, {r6, r7, r8, sl, sp}

00000808 <l388>:
     808:	e82d1003 	stmda	sp!, {r0, r1, ip}

0000080c <l389>:
     80c:	e1a00000 	nop			; (mov r0, r0)

00000810 <l390>:
     810:	e82d0004 	stmda	sp!, {r2}

00000814 <l391>:
     814:	e82d00a0 	stmda	sp!, {r5, r7}

00000818 <l392>:
     818:	e1a00000 	nop			; (mov r0, r0)

0000081c <l393>:
     81c:	e1a00000 	nop			; (mov r0, r0)

00000820 <l394>:
     820:	c90d1010 	stmdbgt	sp, {r4, ip}

00000824 <l395>:
     824:	e92d0022 	push	{r1, r5}

00000828 <l396>:
     828:	098d0842 	stmibeq	sp, {r1, r6, fp}

0000082c <l397>:
     82c:	e82d8000 	stmda	sp!, {pc}

00000830 <l398>:
     830:	e1a00000 	nop			; (mov r0, r0)

00000834 <l399>:
     834:	e9ade000 	stmib	sp!, {sp, lr, pc}

00000838 <l400>:
     838:	e1a00000 	nop			; (mov r0, r0)

0000083c <l401>:
     83c:	e92d0801 	push	{r0, fp}

00000840 <l402>:
     840:	e1a00000 	nop			; (mov r0, r0)

00000844 <l403>:
     844:	e8ad6000 	stmia	sp!, {sp, lr}

00000848 <l404>:
     848:	e1a00000 	nop			; (mov r0, r0)

0000084c <l405>:
     84c:	e82d0088 	stmda	sp!, {r3, r7}

00000850 <l406>:
     850:	298dfbbc 	stmibcs	sp, {r2, r3, r4, r5, r7, r8, r9, fp, ip, sp, lr, pc}

00000854 <l407>:
     854:	780d0001 	stmdavc	sp, {r0}

00000858 <l408>:
     858:	e9ade000 	stmib	sp!, {sp, lr, pc}

0000085c <l409>:
     85c:	e92d5028 	push	{r3, r5, ip, lr}

00000860 <l410>:
     860:	e8ad57b9 	stmia	sp!, {r0, r3, r4, r5, r7, r8, r9, sl, ip, lr}

00000864 <l411>:
     864:	e8ad1280 	stmia	sp!, {r7, r9, ip}

00000868 <l412>:
     868:	e1a00000 	nop			; (mov r0, r0)

0000086c <l413>:
     86c:	290d1eef 	stmdbcs	sp, {r0, r1, r2, r3, r5, r6, r7, r9, sl, fp, ip}

00000870 <l414>:
     870:	e9ad0228 	stmib	sp!, {r3, r5, r9}

00000874 <l415>:
     874:	e92d4793 	push	{r0, r1, r4, r7, r8, r9, sl, lr}

00000878 <l416>:
     878:	e1a00000 	nop			; (mov r0, r0)

0000087c <l417>:
     87c:	e82d0120 	stmda	sp!, {r5, r8}

00000880 <l418>:
     880:	e8ad2000 	stmia	sp!, {sp}

00000884 <l419>:
     884:	e9ad4012 	stmib	sp!, {r1, r4, lr}

00000888 <l420>:
     888:	388d0892 	stmcc	sp, {r1, r4, r7, fp}

0000088c <l421>:
     88c:	e92da000 	push	{sp, pc}

00000890 <l422>:
     890:	e92d1000 	stmfd	sp!, {ip}

00000894 <l423>:
     894:	e80d0022 	stmda	sp, {r1, r5}

00000898 <l424>:
     898:	290d201d 	stmdbcs	sp, {r0, r2, r3, r4, sp}

0000089c <l425>:
     89c:	e82d6000 	stmda	sp!, {sp, lr}

000008a0 <l426>:
     8a0:	e9ad5321 	stmib	sp!, {r0, r5, r8, r9, ip, lr}

000008a4 <l427>:
     8a4:	e82d0110 	stmda	sp!, {r4, r8}

000008a8 <l428>:
     8a8:	e80d3a41 	stmda	sp, {r0, r6, r9, fp, ip, sp}

000008ac <l429>:
     8ac:	e1a00000 	nop			; (mov r0, r0)

000008b0 <l430>:
     8b0:	b98d2a1d 	stmiblt	sp, {r0, r2, r3, r4, r9, fp, sp}

000008b4 <l431>:
     8b4:	e8ad4244 	stmia	sp!, {r2, r6, r9, lr}

000008b8 <l432>:
     8b8:	e82d00a1 	stmda	sp!, {r0, r5, r7}

000008bc <l433>:
     8bc:	e9ad8146 	stmib	sp!, {r1, r2, r6, r8, pc}

000008c0 <l434>:
     8c0:	288d0010 	stmcs	sp, {r4}

000008c4 <l435>:
     8c4:	e98d0001 	stmib	sp, {r0}

000008c8 <l436>:
     8c8:	e8ad0001 	stmia	sp!, {r0}

000008cc <l437>:
     8cc:	e82dd8ba 	stmda	sp!, {r1, r3, r4, r5, r7, fp, ip, lr, pc}

000008d0 <l438>:
     8d0:	e92d441a 	push	{r1, r3, r4, sl, lr}

000008d4 <l439>:
     8d4:	e8ad0a22 	stmia	sp!, {r1, r5, r9, fp}

000008d8 <l440>:
     8d8:	e1a00000 	nop			; (mov r0, r0)

000008dc <l441>:
     8dc:	190d1085 	stmdbne	sp, {r0, r2, r7, ip}

000008e0 <l442>:
     8e0:	e9ad0580 	stmib	sp!, {r7, r8, sl}

000008e4 <l443>:
     8e4:	e8ada000 	stmia	sp!, {sp, pc}

000008e8 <l444>:
     8e8:	e88d0441 	stm	sp, {r0, r6, sl}

000008ec <l445>:
     8ec:	e92d4103 	push	{r0, r1, r8, lr}

000008f0 <l446>:
     8f0:	e9ade000 	stmib	sp!, {sp, lr, pc}

000008f4 <l447>:
     8f4:	e8ad0048 	stmia	sp!, {r3, r6}

000008f8 <l448>:
     8f8:	e9ad0a20 	stmib	sp!, {r5, r9, fp}

000008fc <l449>:
     8fc:	e1a00000 	nop			; (mov r0, r0)

00000900 <l450>:
     900:	e1a00000 	nop			; (mov r0, r0)

00000904 <l451>:
     904:	e8ad0004 	stmia	sp!, {r2}

00000908 <l452>:
     908:	e1a00000 	nop			; (mov r0, r0)

0000090c <l453>:
     90c:	e1a00000 	nop			; (mov r0, r0)

00000910 <l454>:
     910:	e1a00000 	nop			; (mov r0, r0)

00000914 <l455>:
     914:	e1a00000 	nop			; (mov r0, r0)

00000918 <l456>:
     918:	e1a00000 	nop			; (mov r0, r0)

0000091c <l457>:
     91c:	e1a00000 	nop			; (mov r0, r0)

00000920 <l458>:
     920:	e82dd8cf 	stmda	sp!, {r0, r1, r2, r3, r6, r7, fp, ip, lr, pc}

00000924 <l459>:
     924:	c80d5110 	stmdagt	sp, {r4, r8, ip, lr}

00000928 <l460>:
     928:	e8ada000 	stmia	sp!, {sp, pc}

0000092c <l461>:
     92c:	e90d0016 	stmdb	sp, {r1, r2, r4}

00000930 <l462>:
     930:	e88d628c 	stm	sp, {r2, r3, r7, r9, sp, lr}

00000934 <l463>:
     934:	e82d0100 	stmda	sp!, {r8}

00000938 <l464>:
     938:	e82d00a0 	stmda	sp!, {r5, r7}

0000093c <l465>:
     93c:	e82d050c 	stmda	sp!, {r2, r3, r8, sl}

00000940 <l466>:
     940:	e80d0002 	stmda	sp, {r1}

00000944 <l467>:
     944:	e82d0001 	stmda	sp!, {r0}

00000948 <l468>:
     948:	588d88af 	stmpl	sp, {r0, r1, r2, r3, r5, r7, fp, pc}

0000094c <l469>:
     94c:	198d349b 	stmibne	sp, {r0, r1, r3, r4, r7, sl, ip, sp}

00000950 <l470>:
     950:	e9ad0ae8 	stmib	sp!, {r3, r5, r6, r7, r9, fp}

00000954 <l471>:
     954:	c90d860d 	stmdbgt	sp, {r0, r2, r3, r9, sl, pc}

00000958 <l472>:
     958:	498d0408 	stmibmi	sp, {r3, sl}

0000095c <l473>:
     95c:	e8ade000 	stmia	sp!, {sp, lr, pc}

00000960 <l474>:
     960:	e82d0e68 	stmda	sp!, {r3, r5, r6, r9, sl, fp}

00000964 <l475>:
     964:	e8add51c 	stmia	sp!, {r2, r3, r4, r8, sl, ip, lr, pc}

00000968 <l476>:
     968:	e1a00000 	nop			; (mov r0, r0)

0000096c <l477>:
     96c:	e90d6063 	stmdb	sp, {r0, r1, r5, r6, sp, lr}

00000970 <l478>:
     970:	e92d8fd8 	push	{r3, r4, r6, r7, r8, r9, sl, fp, pc}

00000974 <l479>:
     974:	e9ad6000 	stmib	sp!, {sp, lr}

00000978 <l480>:
     978:	e82d40a0 	stmda	sp!, {r5, r7, lr}

0000097c <l481>:
     97c:	580d0002 	stmdapl	sp, {r1}

00000980 <l482>:
     980:	e1a00000 	nop			; (mov r0, r0)

00000984 <l483>:
     984:	e1a00000 	nop			; (mov r0, r0)

00000988 <l484>:
     988:	e9ade000 	stmib	sp!, {sp, lr, pc}

0000098c <l485>:
     98c:	e1a00000 	nop			; (mov r0, r0)

00000990 <l486>:
     990:	188d0040 	stmne	sp, {r6}

00000994 <l487>:
     994:	e9ad8084 	stmib	sp!, {r2, r7, pc}

00000998 <l488>:
     998:	e8ad001a 	stmia	sp!, {r1, r3, r4}

0000099c <l489>:
     99c:	590d0e0c 	stmdbpl	sp, {r2, r3, r9, sl, fp}

000009a0 <l490>:
     9a0:	e92d0001 	stmfd	sp!, {r0}

000009a4 <l491>:
     9a4:	e8ad4d38 	stmia	sp!, {r3, r4, r5, r8, sl, fp, lr}

000009a8 <l492>:
     9a8:	e1a00000 	nop			; (mov r0, r0)

000009ac <l493>:
     9ac:	e1a00000 	nop			; (mov r0, r0)

000009b0 <l494>:
     9b0:	e82d6000 	stmda	sp!, {sp, lr}

000009b4 <l495>:
     9b4:	e82d0208 	stmda	sp!, {r3, r9}

000009b8 <l496>:
     9b8:	e8ad0100 	stmia	sp!, {r8}

000009bc <l497>:
     9bc:	990d68ff 	stmdbls	sp, {r0, r1, r2, r3, r4, r5, r6, r7, fp, sp, lr}

000009c0 <l498>:
     9c0:	288d0480 	stmcs	sp, {r7, sl}

000009c4 <l499>:
     9c4:	e1a00000 	nop			; (mov r0, r0)

000009c8 <l500>:
     9c8:	e8ad0900 	stmia	sp!, {r8, fp}

000009cc <l501>:
     9cc:	e92d2000 	stmfd	sp!, {sp}

000009d0 <l502>:
     9d0:	e9ad2000 	stmib	sp!, {sp}

000009d4 <l503>:
     9d4:	e82d0020 	stmda	sp!, {r5}

000009d8 <l504>:
     9d8:	e82d0010 	stmda	sp!, {r4}

000009dc <l505>:
     9dc:	e8ad4000 	stmia	sp!, {lr}

000009e0 <l506>:
     9e0:	e8ad0001 	stmia	sp!, {r0}

000009e4 <l507>:
     9e4:	e1a00000 	nop			; (mov r0, r0)

000009e8 <l508>:
     9e8:	e1a00000 	nop			; (mov r0, r0)

000009ec <l509>:
     9ec:	e8ad0400 	stmia	sp!, {sl}

000009f0 <l510>:
     9f0:	e1a00000 	nop			; (mov r0, r0)

000009f4 <l511>:
     9f4:	e1a00000 	nop			; (mov r0, r0)

000009f8 <l512>:
     9f8:	e1a00000 	nop			; (mov r0, r0)

000009fc <l513>:
     9fc:	e1a00000 	nop			; (mov r0, r0)

00000a00 <l514>:
     a00:	e92d6000 	push	{sp, lr}

00000a04 <l515>:
     a04:	388d0808 	stmcc	sp, {r3, fp}

00000a08 <l516>:
     a08:	e1a00000 	nop			; (mov r0, r0)

00000a0c <l517>:
     a0c:	e92d2000 	stmfd	sp!, {sp}

00000a10 <l518>:
     a10:	490d5ec8 	stmdbmi	sp, {r3, r6, r7, r9, sl, fp, ip, lr}

00000a14 <l519>:
     a14:	e92dd66c 	push	{r2, r3, r5, r6, r9, sl, ip, lr, pc}

00000a18 <l520>:
     a18:	e92d0200 	stmfd	sp!, {r9}

00000a1c <l521>:
     a1c:	780d1c00 	stmdavc	sp, {sl, fp, ip}

00000a20 <l522>:
     a20:	598dac26 	stmibpl	sp, {r1, r2, r5, sl, fp, sp, pc}

00000a24 <l523>:
     a24:	e8ad2000 	stmia	sp!, {sp}

00000a28 <l524>:
     a28:	b98dbc00 	stmiblt	sp, {sl, fp, ip, sp, pc}

00000a2c <l525>:
     a2c:	e92d8000 	stmfd	sp!, {pc}

00000a30 <l526>:
     a30:	e9ad2000 	stmib	sp!, {sp}

00000a34 <l527>:
     a34:	e9ade000 	stmib	sp!, {sp, lr, pc}

00000a38 <l528>:
     a38:	e9ad2000 	stmib	sp!, {sp}

00000a3c <l529>:
     a3c:	e92d4139 	push	{r0, r3, r4, r5, r8, lr}

00000a40 <l530>:
     a40:	b80d0080 	stmdalt	sp, {r7}

00000a44 <l531>:
     a44:	e80d0010 	stmda	sp, {r4}

00000a48 <l532>:
     a48:	e9ad0110 	stmib	sp!, {r4, r8}

00000a4c <l533>:
     a4c:	e82d2000 	stmda	sp!, {sp}

00000a50 <l534>:
     a50:	798dd26d 	stmibvc	sp, {r0, r2, r3, r5, r6, r9, ip, lr, pc}

00000a54 <l535>:
     a54:	e98dbafe 	stmib	sp, {r1, r2, r3, r4, r5, r6, r7, r9, fp, ip, sp, pc}

00000a58 <l536>:
     a58:	b88d4930 	stmlt	sp, {r4, r5, r8, fp, lr}

00000a5c <l537>:
     a5c:	788d0100 	stmvc	sp, {r8}

00000a60 <l538>:
     a60:	e98d291e 	stmib	sp, {r1, r2, r3, r4, r8, fp, sp}

00000a64 <l539>:
     a64:	e8ada000 	stmia	sp!, {sp, pc}

00000a68 <l540>:
     a68:	e92d4410 	push	{r4, sl, lr}

00000a6c <l541>:
     a6c:	e9ad9974 	stmib	sp!, {r2, r4, r5, r6, r8, fp, ip, pc}

00000a70 <l542>:
     a70:	e8ad4464 	stmia	sp!, {r2, r5, r6, sl, lr}

00000a74 <l543>:
     a74:	e1a00000 	nop			; (mov r0, r0)

00000a78 <l544>:
     a78:	098d0020 	stmibeq	sp, {r5}

00000a7c <l545>:
     a7c:	c90d7bff 	stmdbgt	sp, {r0, r1, r2, r3, r4, r5, r6, r7, r8, r9, fp, ip, sp, lr}

00000a80 <l546>:
     a80:	980df5fe 	stmdals	sp, {r1, r2, r3, r4, r5, r6, r7, r8, sl, ip, sp, lr, pc}

00000a84 <l547>:
     a84:	e8ad0080 	stmia	sp!, {r7}

00000a88 <l548>:
     a88:	e1a00000 	nop			; (mov r0, r0)

00000a8c <l549>:
     a8c:	e82d0080 	stmda	sp!, {r7}

00000a90 <l550>:
     a90:	298d0004 	stmibcs	sp, {r2}

00000a94 <l551>:
     a94:	e92d0001 	stmfd	sp!, {r0}

00000a98 <l552>:
     a98:	e82dccb0 	stmda	sp!, {r4, r5, r7, sl, fp, lr, pc}

00000a9c <l553>:
     a9c:	e98d1214 	stmib	sp, {r2, r4, r9, ip}

00000aa0 <l554>:
     aa0:	088d0800 	stmeq	sp, {fp}

00000aa4 <l555>:
     aa4:	180d0820 	stmdane	sp, {r5, fp}

00000aa8 <l556>:
     aa8:	e9ad9d8a 	stmib	sp!, {r1, r3, r7, r8, sl, fp, ip, pc}

00000aac <l557>:
     aac:	e1a00000 	nop			; (mov r0, r0)

00000ab0 <l558>:
     ab0:	380ded9b 	stmdacc	sp, {r0, r1, r3, r4, r7, r8, sl, fp, sp, lr, pc}

00000ab4 <l559>:
     ab4:	e1a00000 	nop			; (mov r0, r0)

00000ab8 <l560>:
     ab8:	990daa44 	stmdbls	sp, {r2, r6, r9, fp, sp, pc}

00000abc <l561>:
     abc:	e1a00000 	nop			; (mov r0, r0)

00000ac0 <l562>:
     ac0:	980d9c00 	stmdals	sp, {sl, fp, ip, pc}

00000ac4 <l563>:
     ac4:	690d0a2c 	stmdbvs	sp, {r2, r3, r5, r9, fp}

00000ac8 <l564>:
     ac8:	e82d0020 	stmda	sp!, {r5}

00000acc <l565>:
     acc:	e92d2000 	stmfd	sp!, {sp}

00000ad0 <l566>:
     ad0:	e9ad4082 	stmib	sp!, {r1, r7, lr}

00000ad4 <l567>:
     ad4:	e82d0428 	stmda	sp!, {r3, r5, sl}

00000ad8 <l568>:
     ad8:	e82da000 	stmda	sp!, {sp, pc}

00000adc <l569>:
     adc:	e82d6000 	stmda	sp!, {sp, lr}

00000ae0 <l570>:
     ae0:	e88d0020 	stm	sp, {r5}

00000ae4 <l571>:
     ae4:	e8ad0002 	stmia	sp!, {r1}

00000ae8 <l572>:
     ae8:	e88dc126 	stm	sp, {r1, r2, r5, r8, lr, pc}

00000aec <l573>:
     aec:	e92d4808 	push	{r3, fp, lr}

00000af0 <l574>:
     af0:	e88dde48 	stm	sp, {r3, r6, r9, sl, fp, ip, lr, pc}

00000af4 <l575>:
     af4:	e92d882b 	push	{r0, r1, r3, r5, fp, pc}

00000af8 <l576>:
     af8:	d98db2e3 	stmible	sp, {r0, r1, r5, r6, r7, r9, ip, sp, pc}

00000afc <l577>:
     afc:	c98d0147 	stmibgt	sp, {r0, r1, r2, r6, r8}

00000b00 <l578>:
     b00:	e8ad8a40 	stmia	sp!, {r6, r9, fp, pc}

00000b04 <l579>:
     b04:	e82d1080 	stmda	sp!, {r7, ip}

00000b08 <l580>:
     b08:	488df6ee 	stmmi	sp, {r1, r2, r3, r5, r6, r7, r9, sl, ip, sp, lr, pc}

00000b0c <l581>:
     b0c:	e1a00000 	nop			; (mov r0, r0)

00000b10 <l582>:
     b10:	e9ad8841 	stmib	sp!, {r0, r6, fp, pc}

00000b14 <l583>:
     b14:	b80d2b20 	stmdalt	sp, {r5, r8, r9, fp, sp}

00000b18 <l584>:
     b18:	e82d940c 	stmda	sp!, {r2, r3, sl, ip, pc}

00000b1c <l585>:
     b1c:	e9ada000 	stmib	sp!, {sp, pc}

00000b20 <l586>:
     b20:	580d1412 	stmdapl	sp, {r1, r4, sl, ip}

00000b24 <l587>:
     b24:	e92d0101 	push	{r0, r8}

00000b28 <l588>:
     b28:	e9ad0350 	stmib	sp!, {r4, r6, r8, r9}

00000b2c <l589>:
     b2c:	e82d0021 	stmda	sp!, {r0, r5}

00000b30 <l590>:
     b30:	480d8000 	stmdami	sp, {pc}

00000b34 <l591>:
     b34:	e1a00000 	nop			; (mov r0, r0)

00000b38 <l592>:
     b38:	e9ada000 	stmib	sp!, {sp, pc}

00000b3c <l593>:
     b3c:	e82d0020 	stmda	sp!, {r5}

00000b40 <l594>:
     b40:	e92d8160 	push	{r5, r6, r8, pc}

00000b44 <l595>:
     b44:	e9ad0082 	stmib	sp!, {r1, r7}

00000b48 <l596>:
     b48:	e8ad0411 	stmia	sp!, {r0, r4, sl}

00000b4c <l597>:
     b4c:	688d2081 	stmvs	sp, {r0, r7, sp}

00000b50 <l598>:
     b50:	e1a00000 	nop			; (mov r0, r0)

00000b54 <l599>:
     b54:	e92d0044 	push	{r2, r6}

00000b58 <l600>:
     b58:	e8ad6000 	stmia	sp!, {sp, lr}

00000b5c <l601>:
     b5c:	e8ad0080 	stmia	sp!, {r7}

00000b60 <l602>:
     b60:	088d4240 	stmeq	sp, {r6, r9, lr}

00000b64 <l603>:
     b64:	e98d0090 	stmib	sp, {r4, r7}

00000b68 <l604>:
     b68:	680d48aa 	stmdavs	sp, {r1, r3, r5, r7, fp, lr}

00000b6c <l605>:
     b6c:	c88d0a47 	stmgt	sp, {r0, r1, r2, r6, r9, fp}

00000b70 <l606>:
     b70:	090d0300 	stmdbeq	sp, {r8, r9}

00000b74 <l607>:
     b74:	e8adcce8 	stmia	sp!, {r3, r5, r6, r7, sl, fp, lr, pc}

00000b78 <l608>:
     b78:	390d359c 	stmdbcc	sp, {r2, r3, r4, r7, r8, sl, ip, sp}

00000b7c <l609>:
     b7c:	e82d0424 	stmda	sp!, {r2, r5, sl}

00000b80 <l610>:
     b80:	e1a00000 	nop			; (mov r0, r0)

00000b84 <l611>:
     b84:	e92d6000 	push	{sp, lr}

00000b88 <l612>:
     b88:	690d0204 	stmdbvs	sp, {r2, r9}

00000b8c <l613>:
     b8c:	e82d2000 	stmda	sp!, {sp}

00000b90 <l614>:
     b90:	e82d472a 	stmda	sp!, {r1, r3, r5, r8, r9, sl, lr}

00000b94 <l615>:
     b94:	e82d1001 	stmda	sp!, {r0, ip}

00000b98 <l616>:
     b98:	e1a00000 	nop			; (mov r0, r0)

00000b9c <l617>:
     b9c:	e9ad0a00 	stmib	sp!, {r9, fp}

00000ba0 <l618>:
     ba0:	e1a00000 	nop			; (mov r0, r0)

00000ba4 <l619>:
     ba4:	e8ade000 	stmia	sp!, {sp, lr, pc}

00000ba8 <l620>:
     ba8:	e9ad059d 	stmib	sp!, {r0, r2, r3, r4, r7, r8, sl}

00000bac <l621>:
     bac:	480dda8f 	stmdami	sp, {r0, r1, r2, r3, r7, r9, fp, ip, lr, pc}

00000bb0 <l622>:
     bb0:	e9ad0008 	stmib	sp!, {r3}

00000bb4 <l623>:
     bb4:	790d380e 	stmdbvc	sp, {r1, r2, r3, fp, ip, sp}

00000bb8 <l624>:
     bb8:	e92d2000 	stmfd	sp!, {sp}

00000bbc <l625>:
     bbc:	e88d0070 	stm	sp, {r4, r5, r6}

00000bc0 <l626>:
     bc0:	e82da000 	stmda	sp!, {sp, pc}

00000bc4 <l627>:
     bc4:	e9ad0800 	stmib	sp!, {fp}

00000bc8 <l628>:
     bc8:	e1a00000 	nop			; (mov r0, r0)

00000bcc <l629>:
     bcc:	e9ad0200 	stmib	sp!, {r9}

00000bd0 <l630>:
     bd0:	390d53a8 	stmdbcc	sp, {r3, r5, r7, r8, r9, ip, lr}

00000bd4 <l631>:
     bd4:	e92d8150 	push	{r4, r6, r8, pc}

00000bd8 <l632>:
     bd8:	780d8200 	stmdavc	sp, {r9, pc}

00000bdc <l633>:
     bdc:	788d0300 	stmvc	sp, {r8, r9}

00000be0 <l634>:
     be0:	e8ad0050 	stmia	sp!, {r4, r6}

00000be4 <l635>:
     be4:	e92d0864 	push	{r2, r5, r6, fp}

00000be8 <l636>:
     be8:	e9ad2000 	stmib	sp!, {sp}

00000bec <l637>:
     bec:	e92d44e0 	push	{r5, r6, r7, sl, lr}

00000bf0 <l638>:
     bf0:	e80d0008 	stmda	sp, {r3}

00000bf4 <l639>:
     bf4:	380dc000 	stmdacc	sp, {lr, pc}

00000bf8 <l640>:
     bf8:	e92d8800 	push	{fp, pc}

00000bfc <l641>:
     bfc:	e1a00000 	nop			; (mov r0, r0)

00000c00 <l642>:
     c00:	e1a00000 	nop			; (mov r0, r0)

00000c04 <l643>:
     c04:	e1a00000 	nop			; (mov r0, r0)

00000c08 <l644>:
     c08:	e1a00000 	nop			; (mov r0, r0)

00000c0c <l645>:
     c0c:	e88d2480 	stm	sp, {r7, sl, sp}

00000c10 <l646>:
     c10:	e9ad6000 	stmib	sp!, {sp, lr}

00000c14 <l647>:
     c14:	e1a00000 	nop			; (mov r0, r0)

00000c18 <l648>:
     c18:	e82d0100 	stmda	sp!, {r8}

00000c1c <l649>:
     c1c:	e1a00000 	nop			; (mov r0, r0)

00000c20 <l650>:
     c20:	e8ade000 	stmia	sp!, {sp, lr, pc}

00000c24 <l651>:
     c24:	e9ada000 	stmib	sp!, {sp, pc}

00000c28 <l652>:
     c28:	588da955 	stmpl	sp, {r0, r2, r4, r6, r8, fp, sp, pc}

00000c2c <l653>:
     c2c:	b98da7cc 	stmiblt	sp, {r2, r3, r6, r7, r8, r9, sl, sp, pc}

00000c30 <l654>:
     c30:	e9ad4080 	stmib	sp!, {r7, lr}

00000c34 <l655>:
     c34:	088d0200 	stmeq	sp, {r9}

00000c38 <l656>:
     c38:	e82d2000 	stmda	sp!, {sp}

00000c3c <l657>:
     c3c:	e9ad2000 	stmib	sp!, {sp}

00000c40 <l658>:
     c40:	e1a00000 	nop			; (mov r0, r0)

00000c44 <l659>:
     c44:	e82d0180 	stmda	sp!, {r7, r8}

00000c48 <l660>:
     c48:	e9ad812c 	stmib	sp!, {r2, r3, r5, r8, pc}

00000c4c <l661>:
     c4c:	a88d4000 	stmge	sp, {lr}

00000c50 <l662>:
     c50:	e1a00000 	nop			; (mov r0, r0)

00000c54 <l663>:
     c54:	e1a00000 	nop			; (mov r0, r0)

00000c58 <l664>:
     c58:	e1a00000 	nop			; (mov r0, r0)

00000c5c <l665>:
     c5c:	790d0109 	stmdbvc	sp, {r0, r3, r8}

00000c60 <l666>:
     c60:	e8ad6000 	stmia	sp!, {sp, lr}

00000c64 <l667>:
     c64:	d88d0002 	stmle	sp, {r1}

00000c68 <l668>:
     c68:	e9ada000 	stmib	sp!, {sp, pc}

00000c6c <l669>:
     c6c:	e1a00000 	nop			; (mov r0, r0)

00000c70 <l670>:
     c70:	e1a00000 	nop			; (mov r0, r0)

00000c74 <l671>:
     c74:	e80d0002 	stmda	sp, {r1}

00000c78 <l672>:
     c78:	c80dfe41 	stmdagt	sp, {r0, r6, r9, sl, fp, ip, sp, lr, pc}

00000c7c <l673>:
     c7c:	e9ad0100 	stmib	sp!, {r8}

00000c80 <l674>:
     c80:	e92d2000 	stmfd	sp!, {sp}

00000c84 <l675>:
     c84:	e1a00000 	nop			; (mov r0, r0)

00000c88 <l676>:
     c88:	290dbeee 	stmdbcs	sp, {r1, r2, r3, r5, r6, r7, r9, sl, fp, ip, sp, pc}

00000c8c <l677>:
     c8c:	e88d0010 	stm	sp, {r4}

00000c90 <l678>:
     c90:	e9ad0080 	stmib	sp!, {r7}

00000c94 <l679>:
     c94:	990d8e28 	stmdbls	sp, {r3, r5, r9, sl, fp, pc}

00000c98 <l680>:
     c98:	e82de000 	stmda	sp!, {sp, lr, pc}

00000c9c <l681>:
     c9c:	e1a00000 	nop			; (mov r0, r0)

00000ca0 <l682>:
     ca0:	b80da444 	stmdalt	sp, {r2, r6, sl, sp, pc}

00000ca4 <l683>:
     ca4:	e82d42e3 	stmda	sp!, {r0, r1, r5, r6, r7, r9, lr}

00000ca8 <l684>:
     ca8:	e8ad9838 	stmia	sp!, {r3, r4, r5, fp, ip, pc}

00000cac <l685>:
     cac:	e9ad1101 	stmib	sp!, {r0, r8, ip}

00000cb0 <l686>:
     cb0:	e82d0408 	stmda	sp!, {r3, sl}

00000cb4 <l687>:
     cb4:	c98d0800 	stmibgt	sp, {fp}

00000cb8 <l688>:
     cb8:	e1a00000 	nop			; (mov r0, r0)

00000cbc <l689>:
     cbc:	e80d776f 	stmda	sp, {r0, r1, r2, r3, r5, r6, r8, r9, sl, ip, sp, lr}

00000cc0 <l690>:
     cc0:	e1a00000 	nop			; (mov r0, r0)

00000cc4 <l691>:
     cc4:	e88d4000 	stm	sp, {lr}

00000cc8 <l692>:
     cc8:	e82d6000 	stmda	sp!, {sp, lr}

00000ccc <l693>:
     ccc:	e1a00000 	nop			; (mov r0, r0)

00000cd0 <l694>:
     cd0:	e82da000 	stmda	sp!, {sp, pc}

00000cd4 <l695>:
     cd4:	e8ad4016 	stmia	sp!, {r1, r2, r4, lr}

00000cd8 <l696>:
     cd8:	e98d2100 	stmib	sp, {r8, sp}

00000cdc <l697>:
     cdc:	e92d2000 	stmfd	sp!, {sp}

00000ce0 <l698>:
     ce0:	e1a00000 	nop			; (mov r0, r0)

00000ce4 <l699>:
     ce4:	e82d55cb 	stmda	sp!, {r0, r1, r3, r6, r7, r8, sl, ip, lr}

00000ce8 <l700>:
     ce8:	d88dbc7f 	stmle	sp, {r0, r1, r2, r3, r4, r5, r6, sl, fp, ip, sp, pc}

00000cec <l701>:
     cec:	e80d2900 	stmda	sp, {r8, fp, sp}

00000cf0 <l702>:
     cf0:	e82d8220 	stmda	sp!, {r5, r9, pc}

00000cf4 <l703>:
     cf4:	e9ad6000 	stmib	sp!, {sp, lr}

00000cf8 <l704>:
     cf8:	e1a00000 	nop			; (mov r0, r0)

00000cfc <l705>:
     cfc:	e9ad2000 	stmib	sp!, {sp}

00000d00 <l706>:
     d00:	e98ddbbf 	stmib	sp, {r0, r1, r2, r3, r4, r5, r7, r8, r9, fp, ip, lr, pc}

00000d04 <l707>:
     d04:	e80d0009 	stmda	sp, {r0, r3}

00000d08 <l708>:
     d08:	e82d1002 	stmda	sp!, {r1, ip}

00000d0c <l709>:
     d0c:	e9ade000 	stmib	sp!, {sp, lr, pc}

00000d10 <l710>:
     d10:	e80d0218 	stmda	sp, {r3, r4, r9}

00000d14 <l711>:
     d14:	e9ad95cc 	stmib	sp!, {r2, r3, r6, r7, r8, sl, ip, pc}

00000d18 <l712>:
     d18:	e8ad8820 	stmia	sp!, {r5, fp, pc}

00000d1c <l713>:
     d1c:	e92de000 	push	{sp, lr, pc}

00000d20 <l714>:
     d20:	e1a00000 	nop			; (mov r0, r0)

00000d24 <l715>:
     d24:	e90d88c6 	stmdb	sp, {r1, r2, r6, r7, fp, pc}

00000d28 <l716>:
     d28:	e9ad0041 	stmib	sp!, {r0, r6}

00000d2c <l717>:
     d2c:	e9ad000a 	stmib	sp!, {r1, r3}

00000d30 <l718>:
     d30:	e82de000 	stmda	sp!, {sp, lr, pc}

00000d34 <l719>:
     d34:	e82d0082 	stmda	sp!, {r1, r7}

00000d38 <l720>:
     d38:	e9adc0c8 	stmib	sp!, {r3, r6, r7, lr, pc}

00000d3c <l721>:
     d3c:	e1a00000 	nop			; (mov r0, r0)

00000d40 <l722>:
     d40:	e1a00000 	nop			; (mov r0, r0)

00000d44 <l723>:
     d44:	e1a00000 	nop			; (mov r0, r0)

00000d48 <l724>:
     d48:	e1a00000 	nop			; (mov r0, r0)

00000d4c <l725>:
     d4c:	e1a00000 	nop			; (mov r0, r0)

00000d50 <l726>:
     d50:	e1a00000 	nop			; (mov r0, r0)

00000d54 <l727>:
     d54:	e1a00000 	nop			; (mov r0, r0)

00000d58 <l728>:
     d58:	e82d6000 	stmda	sp!, {sp, lr}

00000d5c <l729>:
     d5c:	e92d0108 	push	{r3, r8}

00000d60 <l730>:
     d60:	680d004c 	stmdavs	sp, {r2, r3, r6}

00000d64 <l731>:
     d64:	880dae1a 	stmdahi	sp, {r1, r3, r4, r9, sl, fp, sp, pc}

00000d68 <l732>:
     d68:	e1a00000 	nop			; (mov r0, r0)

00000d6c <l733>:
     d6c:	e9ad0050 	stmib	sp!, {r4, r6}

00000d70 <l734>:
     d70:	e82de000 	stmda	sp!, {sp, lr, pc}

00000d74 <l735>:
     d74:	e9ad121c 	stmib	sp!, {r2, r3, r4, r9, ip}

00000d78 <l736>:
     d78:	e1a00000 	nop			; (mov r0, r0)

00000d7c <l737>:
     d7c:	e1a00000 	nop			; (mov r0, r0)

00000d80 <l738>:
     d80:	e92d0002 	stmfd	sp!, {r1}

00000d84 <l739>:
     d84:	e80defd9 	stmda	sp, {r0, r3, r4, r6, r7, r8, r9, sl, fp, sp, lr, pc}

00000d88 <l740>:
     d88:	e82d1001 	stmda	sp!, {r0, ip}

00000d8c <l741>:
     d8c:	e92d1000 	stmfd	sp!, {ip}

00000d90 <l742>:
     d90:	e82dc77c 	stmda	sp!, {r2, r3, r4, r5, r6, r8, r9, sl, lr, pc}

00000d94 <l743>:
     d94:	e82d0010 	stmda	sp!, {r4}

00000d98 <l744>:
     d98:	298dff6f 	stmibcs	sp, {r0, r1, r2, r3, r5, r6, r8, r9, sl, fp, ip, sp, lr, pc}

00000d9c <l745>:
     d9c:	e9ad2000 	stmib	sp!, {sp}

00000da0 <l746>:
     da0:	e9adcf77 	stmib	sp!, {r0, r1, r2, r4, r5, r6, r8, r9, sl, fp, lr, pc}

00000da4 <l747>:
     da4:	e1a00000 	nop			; (mov r0, r0)

00000da8 <l748>:
     da8:	e1a00000 	nop			; (mov r0, r0)

00000dac <l749>:
     dac:	e92da000 	push	{sp, pc}

00000db0 <l750>:
     db0:	e92d440a 	push	{r1, r3, sl, lr}

00000db4 <l751>:
     db4:	e82d094c 	stmda	sp!, {r2, r3, r6, r8, fp}

00000db8 <l752>:
     db8:	e1a00000 	nop			; (mov r0, r0)

00000dbc <l753>:
     dbc:	e8addb64 	stmia	sp!, {r2, r5, r6, r8, r9, fp, ip, lr, pc}

00000dc0 <l754>:
     dc0:	090d33bb 	stmdbeq	sp, {r0, r1, r3, r4, r5, r7, r8, r9, ip, sp}

00000dc4 <l755>:
     dc4:	e82dc0a8 	stmda	sp!, {r3, r5, r7, lr, pc}

00000dc8 <l756>:
     dc8:	998d8984 	stmibls	sp, {r2, r7, r8, fp, pc}

00000dcc <l757>:
     dcc:	280da006 	stmdacs	sp, {r1, r2, sp, pc}

00000dd0 <l758>:
     dd0:	e1a00000 	nop			; (mov r0, r0)

00000dd4 <l759>:
     dd4:	e82d450c 	stmda	sp!, {r2, r3, r8, sl, lr}

00000dd8 <l760>:
     dd8:	e9ade000 	stmib	sp!, {sp, lr, pc}

00000ddc <l761>:
     ddc:	e82d00a8 	stmda	sp!, {r3, r5, r7}

00000de0 <l762>:
     de0:	e1a00000 	nop			; (mov r0, r0)

00000de4 <l763>:
     de4:	e8ad2000 	stmia	sp!, {sp}

00000de8 <l764>:
     de8:	698df1a0 	stmibvs	sp, {r5, r7, r8, ip, sp, lr, pc}

00000dec <l765>:
     dec:	e1a00000 	nop			; (mov r0, r0)

00000df0 <l766>:
     df0:	e1a00000 	nop			; (mov r0, r0)

00000df4 <l767>:
     df4:	e8ad4000 	stmia	sp!, {lr}

00000df8 <l768>:
     df8:	e92d0825 	push	{r0, r2, r5, fp}

00000dfc <l769>:
     dfc:	b98dbfff 	stmiblt	sp, {r0, r1, r2, r3, r4, r5, r6, r7, r8, r9, sl, fp, ip, sp, pc}

00000e00 <l770>:
     e00:	e8ade000 	stmia	sp!, {sp, lr, pc}

00000e04 <l771>:
     e04:	e92d0010 	stmfd	sp!, {r4}

00000e08 <l772>:
     e08:	190d0280 	stmdbne	sp, {r7, r9}

00000e0c <l773>:
     e0c:	e92d0400 	stmfd	sp!, {sl}

00000e10 <l774>:
     e10:	290d0200 	stmdbcs	sp, {r9}

00000e14 <l775>:
     e14:	e88d526c 	stm	sp, {r2, r3, r5, r6, r9, ip, lr}

00000e18 <l776>:
     e18:	e9ade000 	stmib	sp!, {sp, lr, pc}

00000e1c <l777>:
     e1c:	e9ade000 	stmib	sp!, {sp, lr, pc}

00000e20 <l778>:
     e20:	e92d1862 	push	{r1, r5, r6, fp, ip}

00000e24 <l779>:
     e24:	e82d8000 	stmda	sp!, {pc}

00000e28 <l780>:
     e28:	688defff 	stmvs	sp, {r0, r1, r2, r3, r4, r5, r6, r7, r8, r9, sl, fp, sp, lr, pc}

00000e2c <l781>:
     e2c:	e1a00000 	nop			; (mov r0, r0)

00000e30 <l782>:
     e30:	e92d0100 	stmfd	sp!, {r8}

00000e34 <l783>:
     e34:	e9ad0204 	stmib	sp!, {r2, r9}

00000e38 <l784>:
     e38:	e9ad1fab 	stmib	sp!, {r0, r1, r3, r5, r7, r8, r9, sl, fp, ip}

00000e3c <l785>:
     e3c:	e82da000 	stmda	sp!, {sp, pc}

00000e40 <l786>:
     e40:	e82d2000 	stmda	sp!, {sp}

00000e44 <l787>:
     e44:	e9ad4200 	stmib	sp!, {r9, lr}

00000e48 <l788>:
     e48:	e82d0040 	stmda	sp!, {r6}

00000e4c <l789>:
     e4c:	e9ad0080 	stmib	sp!, {r7}

00000e50 <l790>:
     e50:	288d2015 	stmcs	sp, {r0, r2, r4, sp}

00000e54 <l791>:
     e54:	e92d0800 	stmfd	sp!, {fp}

00000e58 <l792>:
     e58:	e80dc286 	stmda	sp, {r1, r2, r7, r9, lr, pc}

00000e5c <l793>:
     e5c:	e82d2000 	stmda	sp!, {sp}

00000e60 <l794>:
     e60:	e82d1bd8 	stmda	sp!, {r3, r4, r6, r7, r8, r9, fp, ip}

00000e64 <l795>:
     e64:	e82d0400 	stmda	sp!, {sl}

00000e68 <l796>:
     e68:	e9ad0080 	stmib	sp!, {r7}

00000e6c <l797>:
     e6c:	e1a00000 	nop			; (mov r0, r0)

00000e70 <l798>:
     e70:	e8ade000 	stmia	sp!, {sp, lr, pc}

00000e74 <l799>:
     e74:	988dd420 	stmls	sp, {r5, sl, ip, lr, pc}

00000e78 <l800>:
     e78:	e8ada000 	stmia	sp!, {sp, pc}

00000e7c <l801>:
     e7c:	e8ad2000 	stmia	sp!, {sp}

00000e80 <l802>:
     e80:	e90da4c9 	stmdb	sp, {r0, r3, r6, r7, sl, sp, pc}

00000e84 <l803>:
     e84:	e92d4090 	push	{r4, r7, lr}

00000e88 <l804>:
     e88:	e8ada000 	stmia	sp!, {sp, pc}

00000e8c <l805>:
     e8c:	e92d0050 	push	{r4, r6}

00000e90 <l806>:
     e90:	e98de6f1 	stmib	sp, {r0, r4, r5, r6, r7, r9, sl, sp, lr, pc}

00000e94 <l807>:
     e94:	e1a00000 	nop			; (mov r0, r0)

00000e98 <l808>:
     e98:	e9adde85 	stmib	sp!, {r0, r2, r7, r9, sl, fp, ip, lr, pc}

00000e9c <l809>:
     e9c:	e92d2000 	stmfd	sp!, {sp}

00000ea0 <l810>:
     ea0:	e8ad0200 	stmia	sp!, {r9}

00000ea4 <l811>:
     ea4:	e9ad10a0 	stmib	sp!, {r5, r7, ip}

00000ea8 <l812>:
     ea8:	490dd8f7 	stmdbmi	sp, {r0, r1, r2, r4, r5, r6, r7, fp, ip, lr, pc}

00000eac <l813>:
     eac:	e82ddf3a 	stmda	sp!, {r1, r3, r4, r5, r8, r9, sl, fp, ip, lr, pc}

00000eb0 <l814>:
     eb0:	e82d0148 	stmda	sp!, {r3, r6, r8}

00000eb4 <l815>:
     eb4:	e9ad0003 	stmib	sp!, {r0, r1}

00000eb8 <l816>:
     eb8:	e92d0a48 	push	{r3, r6, r9, fp}

00000ebc <l817>:
     ebc:	e9ad1801 	stmib	sp!, {r0, fp, ip}

00000ec0 <l818>:
     ec0:	e1a00000 	nop			; (mov r0, r0)

00000ec4 <l819>:
     ec4:	090d00c0 	stmdbeq	sp, {r6, r7}

00000ec8 <l820>:
     ec8:	e1a00000 	nop			; (mov r0, r0)

00000ecc <l821>:
     ecc:	790d0200 	stmdbvc	sp, {r9}

00000ed0 <l822>:
     ed0:	e9ad2000 	stmib	sp!, {sp}

00000ed4 <l823>:
     ed4:	e1a00000 	nop			; (mov r0, r0)

00000ed8 <l824>:
     ed8:	e1a00000 	nop			; (mov r0, r0)

00000edc <l825>:
     edc:	e1a00000 	nop			; (mov r0, r0)

00000ee0 <l826>:
     ee0:	680d9004 	stmdavs	sp, {r2, ip, pc}

00000ee4 <l827>:
     ee4:	e8ada000 	stmia	sp!, {sp, pc}

00000ee8 <l828>:
     ee8:	e8ad1514 	stmia	sp!, {r2, r4, r8, sl, ip}

00000eec <l829>:
     eec:	e8ad1710 	stmia	sp!, {r4, r8, r9, sl, ip}

00000ef0 <l830>:
     ef0:	e1a00000 	nop			; (mov r0, r0)

00000ef4 <l831>:
     ef4:	e1a00000 	nop			; (mov r0, r0)

00000ef8 <l832>:
     ef8:	e1a00000 	nop			; (mov r0, r0)

00000efc <l833>:
     efc:	d90d2150 	stmdble	sp, {r4, r6, r8, sp}

00000f00 <l834>:
     f00:	e1a00000 	nop			; (mov r0, r0)

00000f04 <l835>:
     f04:	e80df2f7 	stmda	sp, {r0, r1, r2, r4, r5, r6, r7, r9, ip, sp, lr, pc}

00000f08 <l836>:
     f08:	680dfeff 	stmdavs	sp, {r0, r1, r2, r3, r4, r5, r6, r7, r9, sl, fp, ip, sp, lr, pc}

00000f0c <l837>:
     f0c:	e92d2000 	stmfd	sp!, {sp}

00000f10 <l838>:
     f10:	e82de000 	stmda	sp!, {sp, lr, pc}

00000f14 <l839>:
     f14:	288d0001 	stmcs	sp, {r0}

00000f18 <l840>:
     f18:	190d0c40 	stmdbne	sp, {r6, sl, fp}

00000f1c <l841>:
     f1c:	e1a00000 	nop			; (mov r0, r0)

00000f20 <l842>:
     f20:	e90d0040 	stmdb	sp, {r6}

00000f24 <l843>:
     f24:	e80d4802 	stmda	sp, {r1, fp, lr}

00000f28 <l844>:
     f28:	e1a00000 	nop			; (mov r0, r0)

00000f2c <l845>:
     f2c:	e9ad0800 	stmib	sp!, {fp}

00000f30 <l846>:
     f30:	e90dcf47 	stmdb	sp, {r0, r1, r2, r6, r8, r9, sl, fp, lr, pc}

00000f34 <l847>:
     f34:	e9ad1000 	stmib	sp!, {ip}

00000f38 <l848>:
     f38:	488d4000 	stmmi	sp, {lr}

00000f3c <l849>:
     f3c:	e1a00000 	nop			; (mov r0, r0)

00000f40 <l850>:
     f40:	e82de000 	stmda	sp!, {sp, lr, pc}

00000f44 <l851>:
     f44:	e82dcb00 	stmda	sp!, {r8, r9, fp, lr, pc}

00000f48 <l852>:
     f48:	e92d8127 	push	{r0, r1, r2, r5, r8, pc}

00000f4c <l853>:
     f4c:	e1a00000 	nop			; (mov r0, r0)

00000f50 <l854>:
     f50:	e88dec76 	stm	sp, {r1, r2, r4, r5, r6, sl, fp, sp, lr, pc}

00000f54 <l855>:
     f54:	898d4838 	stmibhi	sp, {r3, r4, r5, fp, lr}

00000f58 <l856>:
     f58:	e9ade000 	stmib	sp!, {sp, lr, pc}

00000f5c <l857>:
     f5c:	e8ad4601 	stmia	sp!, {r0, r9, sl, lr}

00000f60 <l858>:
     f60:	e90d3000 	stmdb	sp, {ip, sp}

00000f64 <l859>:
     f64:	e8ad0601 	stmia	sp!, {r0, r9, sl}

00000f68 <l860>:
     f68:	e9ad0800 	stmib	sp!, {fp}

00000f6c <l861>:
     f6c:	e8ad8111 	stmia	sp!, {r0, r4, r8, pc}

00000f70 <l862>:
     f70:	e88d8000 	stm	sp, {pc}

00000f74 <l863>:
     f74:	e1a00000 	nop			; (mov r0, r0)

00000f78 <l864>:
     f78:	e1a00000 	nop			; (mov r0, r0)

00000f7c <l865>:
     f7c:	e90d0020 	stmdb	sp, {r5}

00000f80 <l866>:
     f80:	e1a00000 	nop			; (mov r0, r0)

00000f84 <l867>:
     f84:	e92d2000 	stmfd	sp!, {sp}

00000f88 <l868>:
     f88:	490d6fff 	stmdbmi	sp, {r0, r1, r2, r3, r4, r5, r6, r7, r8, r9, sl, fp, sp, lr}

00000f8c <l869>:
     f8c:	e9ad0440 	stmib	sp!, {r6, sl}

00000f90 <l870>:
     f90:	e82d2000 	stmda	sp!, {sp}

00000f94 <l871>:
     f94:	e9ad4000 	stmib	sp!, {lr}

00000f98 <l872>:
     f98:	390d1028 	stmdbcc	sp, {r3, r5, ip}

00000f9c <l873>:
     f9c:	e82de000 	stmda	sp!, {sp, lr, pc}

00000fa0 <l874>:
     fa0:	e80d0908 	stmda	sp, {r3, r8, fp}

00000fa4 <l875>:
     fa4:	e9ad2000 	stmib	sp!, {sp}

00000fa8 <l876>:
     fa8:	e82d1000 	stmda	sp!, {ip}

00000fac <l877>:
     fac:	e92d5cbc 	push	{r2, r3, r4, r5, r7, sl, fp, ip, lr}

00000fb0 <l878>:
     fb0:	e8adc400 	stmia	sp!, {sl, lr, pc}

00000fb4 <l879>:
     fb4:	e1a00000 	nop			; (mov r0, r0)

00000fb8 <l880>:
     fb8:	e9ad4a04 	stmib	sp!, {r2, r9, fp, lr}

00000fbc <l881>:
     fbc:	e1a00000 	nop			; (mov r0, r0)

00000fc0 <l882>:
     fc0:	e92d6000 	push	{sp, lr}

00000fc4 <l883>:
     fc4:	e1a00000 	nop			; (mov r0, r0)

00000fc8 <l884>:
     fc8:	e82d2000 	stmda	sp!, {sp}

00000fcc <l885>:
     fcc:	390d5574 	stmdbcc	sp, {r2, r4, r5, r6, r8, sl, ip, lr}

00000fd0 <l886>:
     fd0:	e8ad9002 	stmia	sp!, {r1, ip, pc}

00000fd4 <l887>:
     fd4:	e8ad0310 	stmia	sp!, {r4, r8, r9}

00000fd8 <l888>:
     fd8:	e82dd7ef 	stmda	sp!, {r0, r1, r2, r3, r5, r6, r7, r8, r9, sl, ip, lr, pc}

00000fdc <l889>:
     fdc:	e1a00000 	nop			; (mov r0, r0)

00000fe0 <l890>:
     fe0:	e98dd7ff 	stmib	sp, {r0, r1, r2, r3, r4, r5, r6, r7, r8, r9, sl, ip, lr, pc}

00000fe4 <l891>:
     fe4:	e98d2110 	stmib	sp, {r4, r8, sp}

00000fe8 <l892>:
     fe8:	e1a00000 	nop			; (mov r0, r0)

00000fec <l893>:
     fec:	e8ad6000 	stmia	sp!, {sp, lr}

00000ff0 <l894>:
     ff0:	e9ad001c 	stmib	sp!, {r2, r3, r4}

00000ff4 <l895>:
     ff4:	e92d0002 	stmfd	sp!, {r1}

00000ff8 <l896>:
     ff8:	e9ad4214 	stmib	sp!, {r2, r4, r9, lr}

00000ffc <l897>:
     ffc:	e82d0001 	stmda	sp!, {r0}

00001000 <l898>:
    1000:	e8ad1874 	stmia	sp!, {r2, r4, r5, r6, fp, ip}

00001004 <l899>:
    1004:	c90d249c 	stmdbgt	sp, {r2, r3, r4, r7, sl, sp}

00001008 <l900>:
    1008:	e90de7f3 	stmdb	sp, {r0, r1, r4, r5, r6, r7, r8, r9, sl, sp, lr, pc}

0000100c <l901>:
    100c:	e82d4002 	stmda	sp!, {r1, lr}

00001010 <l902>:
    1010:	c88d1000 	stmgt	sp, {ip}

00001014 <l903>:
    1014:	e92de000 	push	{sp, lr, pc}

00001018 <l904>:
    1018:	e8ad1040 	stmia	sp!, {r6, ip}

0000101c <l905>:
    101c:	e80d8280 	stmda	sp, {r7, r9, pc}

00001020 <l906>:
    1020:	e82d4ee4 	stmda	sp!, {r2, r5, r6, r7, r9, sl, fp, lr}

00001024 <l907>:
    1024:	380d0090 	stmdacc	sp, {r4, r7}

00001028 <l908>:
    1028:	e92d2000 	stmfd	sp!, {sp}

0000102c <l909>:
    102c:	e98d3c21 	stmib	sp, {r0, r5, sl, fp, ip, sp}

00001030 <l910>:
    1030:	e82d4000 	stmda	sp!, {lr}

00001034 <l911>:
    1034:	e92d1000 	stmfd	sp!, {ip}

00001038 <l912>:
    1038:	e8ad4034 	stmia	sp!, {r2, r4, r5, lr}

0000103c <l913>:
    103c:	e82d0401 	stmda	sp!, {r0, sl}

00001040 <l914>:
    1040:	e92d0012 	push	{r1, r4}

00001044 <l915>:
    1044:	e1a00000 	nop			; (mov r0, r0)

00001048 <l916>:
    1048:	988d7ccf 	stmls	sp, {r0, r1, r2, r3, r6, r7, sl, fp, ip, sp, lr}

0000104c <l917>:
    104c:	e9ade000 	stmib	sp!, {sp, lr, pc}

00001050 <l918>:
    1050:	688d0001 	stmvs	sp, {r0}

00001054 <l919>:
    1054:	e92d0411 	push	{r0, r4, sl}

00001058 <l920>:
    1058:	e88d4800 	stm	sp, {fp, lr}

0000105c <l921>:
    105c:	e1a00000 	nop			; (mov r0, r0)

00001060 <l922>:
    1060:	e1a00000 	nop			; (mov r0, r0)

00001064 <l923>:
    1064:	e1a00000 	nop			; (mov r0, r0)

00001068 <l924>:
    1068:	e1a00000 	nop			; (mov r0, r0)

0000106c <l925>:
    106c:	088d7880 	stmeq	sp, {r7, fp, ip, sp, lr}

00001070 <l926>:
    1070:	e98d7b5b 	stmib	sp, {r0, r1, r3, r4, r6, r8, r9, fp, ip, sp, lr}

00001074 <l927>:
    1074:	e1a00000 	nop			; (mov r0, r0)

00001078 <l928>:
    1078:	e1a00000 	nop			; (mov r0, r0)

0000107c <l929>:
    107c:	e1a00000 	nop			; (mov r0, r0)

00001080 <l930>:
    1080:	e1a00000 	nop			; (mov r0, r0)

00001084 <l931>:
    1084:	e1a00000 	nop			; (mov r0, r0)

00001088 <l932>:
    1088:	e1a00000 	nop			; (mov r0, r0)

0000108c <l933>:
    108c:	e9ad2000 	stmib	sp!, {sp}

00001090 <l934>:
    1090:	e1a00000 	nop			; (mov r0, r0)

00001094 <l935>:
    1094:	e8ade000 	stmia	sp!, {sp, lr, pc}

00001098 <l936>:
    1098:	e92d0004 	stmfd	sp!, {r2}

0000109c <l937>:
    109c:	e1a00000 	nop			; (mov r0, r0)

000010a0 <l938>:
    10a0:	e1a00000 	nop			; (mov r0, r0)

000010a4 <l939>:
    10a4:	e8ad2000 	stmia	sp!, {sp}

000010a8 <l940>:
    10a8:	e88d3fb7 	stm	sp, {r0, r1, r2, r4, r5, r7, r8, r9, sl, fp, ip, sp}

000010ac <l941>:
    10ac:	e80d1404 	stmda	sp, {r2, sl, ip}

000010b0 <l942>:
    10b0:	e82d1040 	stmda	sp!, {r6, ip}

000010b4 <l943>:
    10b4:	e9ad4584 	stmib	sp!, {r2, r7, r8, sl, lr}

000010b8 <l944>:
    10b8:	e8add242 	stmia	sp!, {r1, r6, r9, ip, lr, pc}

000010bc <l945>:
    10bc:	e9ad1000 	stmib	sp!, {ip}

000010c0 <l946>:
    10c0:	e9ad0004 	stmib	sp!, {r2}

000010c4 <l947>:
    10c4:	e8ad4000 	stmia	sp!, {lr}

000010c8 <l948>:
    10c8:	e1a00000 	nop			; (mov r0, r0)

000010cc <l949>:
    10cc:	e1a00000 	nop			; (mov r0, r0)

000010d0 <l950>:
    10d0:	e1a00000 	nop			; (mov r0, r0)

000010d4 <l951>:
    10d4:	e1a00000 	nop			; (mov r0, r0)

000010d8 <l952>:
    10d8:	e1a00000 	nop			; (mov r0, r0)

000010dc <l953>:
    10dc:	e1a00000 	nop			; (mov r0, r0)

000010e0 <l954>:
    10e0:	e92dc1a7 	push	{r0, r1, r2, r5, r7, r8, lr, pc}

000010e4 <l955>:
    10e4:	e92de000 	push	{sp, lr, pc}

000010e8 <l956>:
    10e8:	688d2202 	stmvs	sp, {r1, r9, sp}

000010ec <l957>:
    10ec:	e9ade000 	stmib	sp!, {sp, lr, pc}

000010f0 <l958>:
    10f0:	e82d5023 	stmda	sp!, {r0, r1, r5, ip, lr}

000010f4 <l959>:
    10f4:	e9ad6000 	stmib	sp!, {sp, lr}

000010f8 <l960>:
    10f8:	e92d0800 	stmfd	sp!, {fp}

000010fc <l961>:
    10fc:	e82d0040 	stmda	sp!, {r6}

00001100 <l962>:
    1100:	e8ada000 	stmia	sp!, {sp, pc}

00001104 <l963>:
    1104:	780d8002 	stmdavc	sp, {r1, pc}

00001108 <l964>:
    1108:	e9ad4200 	stmib	sp!, {r9, lr}

0000110c <l965>:
    110c:	e92d06a8 	push	{r3, r5, r7, r9, sl}

00001110 <l966>:
    1110:	e9ad8001 	stmib	sp!, {r0, pc}

00001114 <l967>:
    1114:	190d0200 	stmdbne	sp, {r9}

00001118 <l968>:
    1118:	e1a00000 	nop			; (mov r0, r0)

0000111c <l969>:
    111c:	e8ade000 	stmia	sp!, {sp, lr, pc}

00001120 <l970>:
    1120:	580d0413 	stmdapl	sp, {r0, r1, r4, sl}

00001124 <l971>:
    1124:	398d0200 	stmibcc	sp, {r9}

00001128 <l972>:
    1128:	e8ade000 	stmia	sp!, {sp, lr, pc}

0000112c <l973>:
    112c:	e8ad2000 	stmia	sp!, {sp}

00001130 <l974>:
    1130:	e90d63fb 	stmdb	sp, {r0, r1, r3, r4, r5, r6, r7, r8, r9, sp, lr}

00001134 <l975>:
    1134:	898d8005 	stmibhi	sp, {r0, r2, pc}

00001138 <l976>:
    1138:	e82d8f83 	stmda	sp!, {r0, r1, r7, r8, r9, sl, fp, pc}

0000113c <l977>:
    113c:	e8add7df 	stmia	sp!, {r0, r1, r2, r3, r4, r6, r7, r8, r9, sl, ip, lr, pc}

00001140 <l978>:
    1140:	c90d4444 	stmdbgt	sp, {r2, r6, sl, lr}

00001144 <l979>:
    1144:	e1a00000 	nop			; (mov r0, r0)

00001148 <l980>:
    1148:	e1a00000 	nop			; (mov r0, r0)

0000114c <l981>:
    114c:	e1a00000 	nop			; (mov r0, r0)

00001150 <l982>:
    1150:	e1a00000 	nop			; (mov r0, r0)

00001154 <l983>:
    1154:	e80dd700 	stmda	sp, {r8, r9, sl, ip, lr, pc}

00001158 <l984>:
    1158:	e1a00000 	nop			; (mov r0, r0)

0000115c <l985>:
    115c:	e1a00000 	nop			; (mov r0, r0)

00001160 <l986>:
    1160:	e92de000 	push	{sp, lr, pc}

00001164 <l987>:
    1164:	e88d0120 	stm	sp, {r5, r8}

00001168 <l988>:
    1168:	b90d4200 	stmdblt	sp, {r9, lr}

0000116c <l989>:
    116c:	e80d1262 	stmda	sp, {r1, r5, r6, r9, ip}

00001170 <l990>:
    1170:	e92d2000 	stmfd	sp!, {sp}

00001174 <l991>:
    1174:	e1a00000 	nop			; (mov r0, r0)

00001178 <l992>:
    1178:	e82d0039 	stmda	sp!, {r0, r3, r4, r5}

0000117c <l993>:
    117c:	e9ada000 	stmib	sp!, {sp, pc}

00001180 <l994>:
    1180:	e8ad4a29 	stmia	sp!, {r0, r3, r5, r9, fp, lr}

00001184 <l995>:
    1184:	e92d2000 	stmfd	sp!, {sp}

00001188 <l996>:
    1188:	e1a00000 	nop			; (mov r0, r0)

0000118c <l997>:
    118c:	e92d188c 	push	{r2, r3, r7, fp, ip}

00001190 <l998>:
    1190:	e9ad1102 	stmib	sp!, {r1, r8, ip}

00001194 <l999>:
    1194:	e82ddded 	stmda	sp!, {r0, r2, r3, r5, r6, r7, r8, sl, fp, ip, lr, pc}

00001198 <l1000>:
    1198:	e8ad2000 	stmia	sp!, {sp}

0000119c <end>:
    119c:	eafffffe 	b	119c <end>
