
str_1000.o:     file format elf32-littlearm


Disassembly of section .text:

00000000 <main>:
       0:	e05f000f 	subs	r0, pc, pc
       4:	e59fd000 	ldr	sp, [pc]	; c <val>
       8:	ea000000 	b	10 <next>

0000000c <val>:
       c:	000ffff0 	.word	0x000ffff0

00000010 <next>:
      10:	e59f1000 	ldr	r1, [pc]	; 18 <val1>
      14:	ea000000 	b	1c <next1>

00000018 <val1>:
      18:	5568b939 	.word	0x5568b939

0000001c <next1>:
      1c:	e59f2000 	ldr	r2, [pc]	; 24 <val2>
      20:	ea000000 	b	28 <next2>

00000024 <val2>:
      24:	0e22f95a 	.word	0x0e22f95a

00000028 <next2>:
      28:	e59f3000 	ldr	r3, [pc]	; 30 <val3>
      2c:	ea000000 	b	34 <next3>

00000030 <val3>:
      30:	f2ee9b47 	.word	0xf2ee9b47

00000034 <next3>:
      34:	e59f4000 	ldr	r4, [pc]	; 3c <val4>
      38:	ea000000 	b	40 <next4>

0000003c <val4>:
      3c:	84e63b5a 	.word	0x84e63b5a

00000040 <next4>:
      40:	e59f5000 	ldr	r5, [pc]	; 48 <val5>
      44:	ea000000 	b	4c <next5>

00000048 <val5>:
      48:	4faafc65 	.word	0x4faafc65

0000004c <next5>:
      4c:	e59f6000 	ldr	r6, [pc]	; 54 <val6>
      50:	ea000000 	b	58 <next6>

00000054 <val6>:
      54:	e40594ec 	.word	0xe40594ec

00000058 <next6>:
      58:	e59f7000 	ldr	r7, [pc]	; 60 <val7>
      5c:	ea000000 	b	64 <next7>

00000060 <val7>:
      60:	a5d78f04 	.word	0xa5d78f04

00000064 <next7>:
      64:	e59f8000 	ldr	r8, [pc]	; 6c <val8>
      68:	ea000000 	b	70 <next8>

0000006c <val8>:
      6c:	b0c70e1d 	.word	0xb0c70e1d

00000070 <next8>:
      70:	e59f9000 	ldr	r9, [pc]	; 78 <val9>
      74:	ea000000 	b	7c <next9>

00000078 <val9>:
      78:	cf07fbf5 	.word	0xcf07fbf5

0000007c <next9>:
      7c:	e59fa000 	ldr	sl, [pc]	; 84 <val10>
      80:	ea000000 	b	88 <next10>

00000084 <val10>:
      84:	a639ae68 	.word	0xa639ae68

00000088 <next10>:
      88:	e59fb000 	ldr	fp, [pc]	; 90 <val11>
      8c:	ea000000 	b	94 <next11>

00000090 <val11>:
      90:	7b7d094b 	.word	0x7b7d094b

00000094 <next11>:
      94:	e59fc000 	ldr	ip, [pc]	; 9c <val12>
      98:	ea000000 	b	a0 <next12>

0000009c <val12>:
      9c:	b03bba73 	.word	0xb03bba73

000000a0 <next12>:
      a0:	e59fe000 	ldr	lr, [pc]	; a8 <val14>
      a4:	ea000000 	b	ac <next14>

000000a8 <val14>:
      a8:	55fb9233 	.word	0x55fb9233

000000ac <next14>:
      ac:	e59f1000 	ldr	r1, [pc]	; b4 <val15>
      b0:	ea000000 	b	b8 <next15>

000000b4 <val15>:
      b4:	c6b1d3b8 	.word	0xc6b1d3b8

000000b8 <next15>:
      b8:	e58d1000 	str	r1, [sp]
      bc:	e59f1000 	ldr	r1, [pc]	; c4 <val16>
      c0:	ea000000 	b	c8 <next16>

000000c4 <val16>:
      c4:	0187737b 	.word	0x0187737b

000000c8 <next16>:
      c8:	e50d1004 	str	r1, [sp, #-4]
      cc:	e59f1000 	ldr	r1, [pc]	; d4 <val17>
      d0:	ea000000 	b	d8 <next17>

000000d4 <val17>:
      d4:	f18c256e 	.word	0xf18c256e

000000d8 <next17>:
      d8:	e50d1008 	str	r1, [sp, #-8]
      dc:	e59f1000 	ldr	r1, [pc]	; e4 <val18>
      e0:	ea000000 	b	e8 <next18>

000000e4 <val18>:
      e4:	033a2b7e 	.word	0x033a2b7e

000000e8 <next18>:
      e8:	e50d100c 	str	r1, [sp, #-12]
      ec:	e59f1000 	ldr	r1, [pc]	; f4 <val19>
      f0:	ea000000 	b	f8 <next19>

000000f4 <val19>:
      f4:	89f39a10 	.word	0x89f39a10

000000f8 <next19>:
      f8:	e50d1010 	str	r1, [sp, #-16]
      fc:	e59f1000 	ldr	r1, [pc]	; 104 <val20>
     100:	ea000000 	b	108 <next20>

00000104 <val20>:
     104:	1a3ec7fc 	.word	0x1a3ec7fc

00000108 <next20>:
     108:	e50d1014 	str	r1, [sp, #-20]
     10c:	e59f1000 	ldr	r1, [pc]	; 114 <val21>
     110:	ea000000 	b	118 <next21>

00000114 <val21>:
     114:	03aa15ea 	.word	0x03aa15ea

00000118 <next21>:
     118:	e50d1018 	str	r1, [sp, #-24]
     11c:	e59f1000 	ldr	r1, [pc]	; 124 <val22>
     120:	ea000000 	b	128 <next22>

00000124 <val22>:
     124:	b4462aec 	.word	0xb4462aec

00000128 <next22>:
     128:	e50d101c 	str	r1, [sp, #-28]
     12c:	e59f1000 	ldr	r1, [pc]	; 134 <val23>
     130:	ea000000 	b	138 <next23>

00000134 <val23>:
     134:	4e098894 	.word	0x4e098894

00000138 <next23>:
     138:	e50d1020 	str	r1, [sp, #-32]
     13c:	e59f1000 	ldr	r1, [pc]	; 144 <val24>
     140:	ea000000 	b	148 <next24>

00000144 <val24>:
     144:	182d809e 	.word	0x182d809e

00000148 <next24>:
     148:	e50d1024 	str	r1, [sp, #-36]	; 0x24
     14c:	e59f1000 	ldr	r1, [pc]	; 154 <val25>
     150:	ea000000 	b	158 <next25>

00000154 <val25>:
     154:	433b5436 	.word	0x433b5436

00000158 <next25>:
     158:	e50d1028 	str	r1, [sp, #-40]	; 0x28
     15c:	e59f1000 	ldr	r1, [pc]	; 164 <val26>
     160:	ea000000 	b	168 <next26>

00000164 <val26>:
     164:	b9ea9735 	.word	0xb9ea9735

00000168 <next26>:
     168:	e50d102c 	str	r1, [sp, #-44]	; 0x2c
     16c:	e59f1000 	ldr	r1, [pc]	; 174 <val27>
     170:	ea000000 	b	178 <next27>

00000174 <val27>:
     174:	ffe7723b 	.word	0xffe7723b

00000178 <next27>:
     178:	e50d1030 	str	r1, [sp, #-48]	; 0x30
     17c:	e59f1000 	ldr	r1, [pc]	; 184 <val28>
     180:	ea000000 	b	188 <next28>

00000184 <val28>:
     184:	677b19a1 	.word	0x677b19a1

00000188 <next28>:
     188:	e50d1034 	str	r1, [sp, #-52]	; 0x34
     18c:	e59f1000 	ldr	r1, [pc]	; 194 <val29>
     190:	ea000000 	b	198 <next29>

00000194 <val29>:
     194:	6535d9c6 	.word	0x6535d9c6

00000198 <next29>:
     198:	e50d1038 	str	r1, [sp, #-56]	; 0x38
     19c:	e59f1000 	ldr	r1, [pc]	; 1a4 <val30>
     1a0:	ea000000 	b	1a8 <next30>

000001a4 <val30>:
     1a4:	42358155 	.word	0x42358155

000001a8 <next30>:
     1a8:	e50d103c 	str	r1, [sp, #-60]	; 0x3c
     1ac:	e59f1000 	ldr	r1, [pc]	; 1b4 <val31>
     1b0:	ea000000 	b	1b8 <next31>

000001b4 <val31>:
     1b4:	30f39c0a 	.word	0x30f39c0a

000001b8 <next31>:
     1b8:	e50d1040 	str	r1, [sp, #-64]	; 0x40
     1bc:	e59f1000 	ldr	r1, [pc]	; 1c4 <val32>
     1c0:	ea000000 	b	1c8 <next32>

000001c4 <val32>:
     1c4:	261f63ca 	.word	0x261f63ca

000001c8 <next32>:
     1c8:	e50d1044 	str	r1, [sp, #-68]	; 0x44
     1cc:	e59f1000 	ldr	r1, [pc]	; 1d4 <val33>
     1d0:	ea000000 	b	1d8 <next33>

000001d4 <val33>:
     1d4:	ddc7a0de 	.word	0xddc7a0de

000001d8 <next33>:
     1d8:	e50d1048 	str	r1, [sp, #-72]	; 0x48
     1dc:	e59f1000 	ldr	r1, [pc]	; 1e4 <val34>
     1e0:	ea000000 	b	1e8 <next34>

000001e4 <val34>:
     1e4:	6a568908 	.word	0x6a568908

000001e8 <next34>:
     1e8:	e50d104c 	str	r1, [sp, #-76]	; 0x4c
     1ec:	e59f1000 	ldr	r1, [pc]	; 1f4 <val35>
     1f0:	ea000000 	b	1f8 <next35>

000001f4 <val35>:
     1f4:	1fb3e1ad 	.word	0x1fb3e1ad

000001f8 <next35>:
     1f8:	e50d1050 	str	r1, [sp, #-80]	; 0x50

000001fc <l1>:
     1fc:	e3a04040 	mov	r4, #64	; 0x40

00000200 <l2>:
     200:	e72d9004 	str	r9, [sp, -r4]!

00000204 <l3>:
     204:	e40db010 	str	fp, [sp], #-16

00000208 <l4>:
     208:	e3a03004 	mov	r3, #4

0000020c <l5>:
     20c:	e68d7003 	str	r7, [sp], r3

00000210 <l6>:
     210:	e3a0e014 	mov	lr, #20

00000214 <l7>:
     214:	e68d900e 	str	r9, [sp], lr

00000218 <l8>:
     218:	e3a08014 	mov	r8, #20

0000021c <l9>:
     21c:	e78d9008 	str	r9, [sp, r8]

00000220 <l10>:
     220:	e3a01000 	mov	r1, #0

00000224 <l11>:
     224:	e68d6001 	str	r6, [sp], r1

00000228 <l12>:
     228:	e3a03028 	mov	r3, #40	; 0x28

0000022c <l13>:
     22c:	e68d9003 	str	r9, [sp], r3

00000230 <l14>:
     230:	e3a05018 	mov	r5, #24

00000234 <l15>:
     234:	e60df005 	str	pc, [sp], -r5

00000238 <l16>:
     238:	e3a08028 	mov	r8, #40	; 0x28

0000023c <l17>:
     23c:	e70d3008 	str	r3, [sp, -r8]

00000240 <l18>:
     240:	e3a0a000 	mov	sl, #0

00000244 <l19>:
     244:	e7ad400a 	str	r4, [sp, sl]!

00000248 <l20>:
     248:	e3a06008 	mov	r6, #8

0000024c <l21>:
     24c:	e70d3006 	str	r3, [sp, -r6]

00000250 <l22>:
     250:	e58d2000 	str	r2, [sp]

00000254 <l23>:
     254:	e3a04020 	mov	r4, #32

00000258 <l24>:
     258:	870da004 	strhi	sl, [sp, -r4]

0000025c <l25>:
     25c:	e3a08004 	mov	r8, #4

00000260 <l26>:
     260:	e72d1008 	str	r1, [sp, -r8]!

00000264 <l27>:
     264:	e3a08018 	mov	r8, #24

00000268 <l28>:
     268:	470d5008 	strmi	r5, [sp, -r8]

0000026c <l29>:
     26c:	e48d7020 	str	r7, [sp], #32

00000270 <l30>:
     270:	e52d101c 	str	r1, [sp, #-28]!

00000274 <l31>:
     274:	e3a01008 	mov	r1, #8

00000278 <l32>:
     278:	e68de001 	str	lr, [sp], r1

0000027c <l33>:
     27c:	e52d7014 	str	r7, [sp, #-20]!

00000280 <l34>:
     280:	e5ad7014 	str	r7, [sp, #20]!

00000284 <l35>:
     284:	a58d6000 	strge	r6, [sp]

00000288 <l36>:
     288:	e3a0e00c 	mov	lr, #12

0000028c <l37>:
     28c:	e72db00e 	str	fp, [sp, -lr]!

00000290 <l38>:
     290:	e3a07018 	mov	r7, #24

00000294 <l39>:
     294:	e68dc007 	str	ip, [sp], r7

00000298 <l40>:
     298:	e58d9004 	str	r9, [sp, #4]

0000029c <l41>:
     29c:	e40dc004 	str	ip, [sp], #-4

000002a0 <l42>:
     2a0:	e3a03024 	mov	r3, #36	; 0x24

000002a4 <l43>:
     2a4:	e60de003 	str	lr, [sp], -r3

000002a8 <l44>:
     2a8:	e3a0402c 	mov	r4, #44	; 0x2c

000002ac <l45>:
     2ac:	e7ada004 	str	sl, [sp, r4]!

000002b0 <l46>:
     2b0:	e40d2034 	str	r2, [sp], #-52	; 0x34

000002b4 <l47>:
     2b4:	e48d6000 	str	r6, [sp], #0

000002b8 <l48>:
     2b8:	e3a03028 	mov	r3, #40	; 0x28

000002bc <l49>:
     2bc:	e7ad4003 	str	r4, [sp, r3]!

000002c0 <l50>:
     2c0:	e3a0c02c 	mov	ip, #44	; 0x2c

000002c4 <l51>:
     2c4:	e72d400c 	str	r4, [sp, -ip]!

000002c8 <l52>:
     2c8:	e48d5030 	str	r5, [sp], #48	; 0x30

000002cc <l53>:
     2cc:	c50d6024 	strgt	r6, [sp, #-36]	; 0x24

000002d0 <l54>:
     2d0:	e40d301c 	str	r3, [sp], #-28

000002d4 <l55>:
     2d4:	e48d9008 	str	r9, [sp], #8

000002d8 <l56>:
     2d8:	e3a03018 	mov	r3, #24

000002dc <l57>:
     2dc:	e60d2003 	str	r2, [sp], -r3

000002e0 <l58>:
     2e0:	550d0008 	strpl	r0, [sp, #-8]

000002e4 <l59>:
     2e4:	858d5020 	strhi	r5, [sp, #32]

000002e8 <l60>:
     2e8:	e48d9028 	str	r9, [sp], #40	; 0x28

000002ec <l61>:
     2ec:	e3a03008 	mov	r3, #8

000002f0 <l62>:
     2f0:	e7ad9003 	str	r9, [sp, r3]!

000002f4 <l63>:
     2f4:	e40d5008 	str	r5, [sp], #-8

000002f8 <l64>:
     2f8:	e3a0400c 	mov	r4, #12

000002fc <l65>:
     2fc:	e68d4004 	str	r4, [sp], r4

00000300 <l66>:
     300:	e3a05000 	mov	r5, #0

00000304 <l67>:
     304:	878db005 	strhi	fp, [sp, r5]

00000308 <l68>:
     308:	e3a03018 	mov	r3, #24

0000030c <l69>:
     30c:	d70d7003 	strle	r7, [sp, -r3]

00000310 <l70>:
     310:	e3a0c020 	mov	ip, #32

00000314 <l71>:
     314:	e60d100c 	str	r1, [sp], -ip

00000318 <l72>:
     318:	e3a06018 	mov	r6, #24

0000031c <l73>:
     31c:	e7ad3006 	str	r3, [sp, r6]!

00000320 <l74>:
     320:	e3a0000c 	mov	r0, #12

00000324 <l75>:
     324:	e60dc000 	str	ip, [sp], -r0

00000328 <l76>:
     328:	e3a0c010 	mov	ip, #16

0000032c <l77>:
     32c:	e70d300c 	str	r3, [sp, -ip]

00000330 <l78>:
     330:	e3a0700c 	mov	r7, #12

00000334 <l79>:
     334:	b78de007 	strlt	lr, [sp, r7]

00000338 <l80>:
     338:	e48df008 	str	pc, [sp], #8

0000033c <l81>:
     33c:	e3a0700c 	mov	r7, #12

00000340 <l82>:
     340:	e70d7007 	str	r7, [sp, -r7]

00000344 <l83>:
     344:	e52d2020 	str	r2, [sp, #-32]!

00000348 <l84>:
     348:	e3a0100c 	mov	r1, #12

0000034c <l85>:
     34c:	570d9001 	strpl	r9, [sp, -r1]

00000350 <l86>:
     350:	e58d8014 	str	r8, [sp, #20]

00000354 <l87>:
     354:	e48d8034 	str	r8, [sp], #52	; 0x34

00000358 <l88>:
     358:	e3a0c028 	mov	ip, #40	; 0x28

0000035c <l89>:
     35c:	e60d800c 	str	r8, [sp], -ip

00000360 <l90>:
     360:	e3a0e01c 	mov	lr, #28

00000364 <l91>:
     364:	e68d700e 	str	r7, [sp], lr

00000368 <l92>:
     368:	e5ad0004 	str	r0, [sp, #4]!

0000036c <l93>:
     36c:	e3a00004 	mov	r0, #4

00000370 <l94>:
     370:	e72d4000 	str	r4, [sp, -r0]!

00000374 <l95>:
     374:	e3a0400c 	mov	r4, #12

00000378 <l96>:
     378:	e70dc004 	str	ip, [sp, -r4]

0000037c <l97>:
     37c:	e3a0e008 	mov	lr, #8

00000380 <l98>:
     380:	e68d300e 	str	r3, [sp], lr

00000384 <l99>:
     384:	e40d8028 	str	r8, [sp], #-40	; 0x28

00000388 <l100>:
     388:	e5ad101c 	str	r1, [sp, #28]!

0000038c <l101>:
     38c:	d58d3010 	strle	r3, [sp, #16]

00000390 <l102>:
     390:	e52d6004 	push	{r6}		; (str r6, [sp, #-4]!)

00000394 <l103>:
     394:	e3a02030 	mov	r2, #48	; 0x30

00000398 <l104>:
     398:	e60d1002 	str	r1, [sp], -r2

0000039c <l105>:
     39c:	e40d4004 	str	r4, [sp], #-4

000003a0 <l106>:
     3a0:	e58d6004 	str	r6, [sp, #4]

000003a4 <l107>:
     3a4:	e3a0b020 	mov	fp, #32

000003a8 <l108>:
     3a8:	e68d100b 	str	r1, [sp], fp

000003ac <l109>:
     3ac:	e40d8018 	str	r8, [sp], #-24

000003b0 <l110>:
     3b0:	358d1024 	strcc	r1, [sp, #36]	; 0x24

000003b4 <l111>:
     3b4:	e5ad401c 	str	r4, [sp, #28]!

000003b8 <l112>:
     3b8:	e58d0020 	str	r0, [sp, #32]

000003bc <l113>:
     3bc:	e3a07014 	mov	r7, #20

000003c0 <l114>:
     3c0:	e60d2007 	str	r2, [sp], -r7

000003c4 <l115>:
     3c4:	e5adb024 	str	fp, [sp, #36]!	; 0x24

000003c8 <l116>:
     3c8:	e3a05014 	mov	r5, #20

000003cc <l117>:
     3cc:	e68d1005 	str	r1, [sp], r5

000003d0 <l118>:
     3d0:	e40dc018 	str	ip, [sp], #-24

000003d4 <l119>:
     3d4:	e52d9024 	str	r9, [sp, #-36]!	; 0x24

000003d8 <l120>:
     3d8:	e5ad1020 	str	r1, [sp, #32]!

000003dc <l121>:
     3dc:	e52da014 	str	sl, [sp, #-20]!

000003e0 <l122>:
     3e0:	e3a0602c 	mov	r6, #44	; 0x2c

000003e4 <l123>:
     3e4:	e68d6006 	str	r6, [sp], r6

000003e8 <l124>:
     3e8:	e3a09004 	mov	r9, #4

000003ec <l125>:
     3ec:	e60d8009 	str	r8, [sp], -r9

000003f0 <l126>:
     3f0:	e3a0402c 	mov	r4, #44	; 0x2c

000003f4 <l127>:
     3f4:	e60d1004 	str	r1, [sp], -r4

000003f8 <l128>:
     3f8:	e3a00000 	mov	r0, #0

000003fc <l129>:
     3fc:	e68dc000 	str	ip, [sp], r0

00000400 <l130>:
     400:	158dc00c 	strne	ip, [sp, #12]

00000404 <l131>:
     404:	e40d2010 	str	r2, [sp], #-16

00000408 <l132>:
     408:	e3a08044 	mov	r8, #68	; 0x44

0000040c <l133>:
     40c:	e7ad7008 	str	r7, [sp, r8]!

00000410 <l134>:
     410:	750d6014 	strvc	r6, [sp, #-20]

00000414 <l135>:
     414:	e3a04018 	mov	r4, #24

00000418 <l136>:
     418:	e60d8004 	str	r8, [sp], -r4

0000041c <l137>:
     41c:	e5ad3010 	str	r3, [sp, #16]!

00000420 <l138>:
     420:	850d9010 	strhi	r9, [sp, #-16]

00000424 <l139>:
     424:	e3a05028 	mov	r5, #40	; 0x28

00000428 <l140>:
     428:	e72d0005 	str	r0, [sp, -r5]!

0000042c <l141>:
     42c:	e48dc004 	str	ip, [sp], #4

00000430 <l142>:
     430:	e40df018 	str	pc, [sp], #-24

00000434 <l143>:
     434:	e48df044 	str	pc, [sp], #68	; 0x44

00000438 <l144>:
     438:	e3a09034 	mov	r9, #52	; 0x34

0000043c <l145>:
     43c:	770d7009 	strvc	r7, [sp, -r9]

00000440 <l146>:
     440:	e3a06030 	mov	r6, #48	; 0x30

00000444 <l147>:
     444:	e72d5006 	str	r5, [sp, -r6]!

00000448 <l148>:
     448:	e3a09014 	mov	r9, #20

0000044c <l149>:
     44c:	e7ad1009 	str	r1, [sp, r9]!

00000450 <l150>:
     450:	e40d102c 	str	r1, [sp], #-44	; 0x2c

00000454 <l151>:
     454:	e5ad3018 	str	r3, [sp, #24]!

00000458 <l152>:
     458:	e52d700c 	str	r7, [sp, #-12]!

0000045c <l153>:
     45c:	e3a06018 	mov	r6, #24

00000460 <l154>:
     460:	e7adf006 	str	pc, [sp, r6]!

00000464 <l155>:
     464:	e3a0b024 	mov	fp, #36	; 0x24

00000468 <l156>:
     468:	e60de00b 	str	lr, [sp], -fp

0000046c <l157>:
     46c:	e5ada02c 	str	sl, [sp, #44]!	; 0x2c

00000470 <l158>:
     470:	e40d9010 	str	r9, [sp], #-16

00000474 <l159>:
     474:	158de02c 	strne	lr, [sp, #44]	; 0x2c

00000478 <l160>:
     478:	e40d4018 	str	r4, [sp], #-24

0000047c <l161>:
     47c:	e3a03030 	mov	r3, #48	; 0x30

00000480 <l162>:
     480:	e68d7003 	str	r7, [sp], r3

00000484 <l163>:
     484:	e3a0900c 	mov	r9, #12

00000488 <l164>:
     488:	e70db009 	str	fp, [sp, -r9]

0000048c <l165>:
     48c:	e58d1004 	str	r1, [sp, #4]

00000490 <l166>:
     490:	e3a01004 	mov	r1, #4

00000494 <l167>:
     494:	e78df001 	str	pc, [sp, r1]

00000498 <l168>:
     498:	e48db014 	str	fp, [sp], #20

0000049c <l169>:
     49c:	e3a08018 	mov	r8, #24

000004a0 <l170>:
     4a0:	e60d0008 	str	r0, [sp], -r8

000004a4 <l171>:
     4a4:	e3a02008 	mov	r2, #8

000004a8 <l172>:
     4a8:	e72d1002 	str	r1, [sp, -r2]!

000004ac <l173>:
     4ac:	e50d2004 	str	r2, [sp, #-4]

000004b0 <l174>:
     4b0:	e5ad9018 	str	r9, [sp, #24]!

000004b4 <l175>:
     4b4:	e48db000 	str	fp, [sp], #0

000004b8 <l176>:
     4b8:	e52d3020 	str	r3, [sp, #-32]!

000004bc <l177>:
     4bc:	e3a0701c 	mov	r7, #28

000004c0 <l178>:
     4c0:	e78d6007 	str	r6, [sp, r7]

000004c4 <l179>:
     4c4:	e40d801c 	str	r8, [sp], #-28

000004c8 <l180>:
     4c8:	e48db038 	str	fp, [sp], #56	; 0x38

000004cc <l181>:
     4cc:	e52d6028 	str	r6, [sp, #-40]!	; 0x28

000004d0 <l182>:
     4d0:	e48dc028 	str	ip, [sp], #40	; 0x28

000004d4 <l183>:
     4d4:	e40df01c 	str	pc, [sp], #-28

000004d8 <l184>:
     4d8:	e48d8020 	str	r8, [sp], #32

000004dc <l185>:
     4dc:	e5adc008 	str	ip, [sp, #8]!

000004e0 <l186>:
     4e0:	e3a06000 	mov	r6, #0

000004e4 <l187>:
     4e4:	e78da006 	str	sl, [sp, r6]

000004e8 <l188>:
     4e8:	e3a02028 	mov	r2, #40	; 0x28

000004ec <l189>:
     4ec:	e60d3002 	str	r3, [sp], -r2

000004f0 <l190>:
     4f0:	e52d2010 	str	r2, [sp, #-16]!

000004f4 <l191>:
     4f4:	e3a05010 	mov	r5, #16

000004f8 <l192>:
     4f8:	e72d0005 	str	r0, [sp, -r5]!

000004fc <l193>:
     4fc:	e5ad7044 	str	r7, [sp, #68]!	; 0x44

00000500 <l194>:
     500:	e3a02038 	mov	r2, #56	; 0x38

00000504 <l195>:
     504:	e72d9002 	str	r9, [sp, -r2]!

00000508 <l196>:
     508:	e3a0c01c 	mov	ip, #28

0000050c <l197>:
     50c:	e7ad400c 	str	r4, [sp, ip]!

00000510 <l198>:
     510:	e5ade018 	str	lr, [sp, #24]!

00000514 <l199>:
     514:	e52da00c 	str	sl, [sp, #-12]!

00000518 <l200>:
     518:	e5ade010 	str	lr, [sp, #16]!

0000051c <l201>:
     51c:	e3a0202c 	mov	r2, #44	; 0x2c

00000520 <l202>:
     520:	270d9002 	strcs	r9, [sp, -r2]

00000524 <l203>:
     524:	e50df008 	str	pc, [sp, #-8]

00000528 <l204>:
     528:	e3a0101c 	mov	r1, #28

0000052c <l205>:
     52c:	e72d0001 	str	r0, [sp, -r1]!

00000530 <l206>:
     530:	e52dc00c 	str	ip, [sp, #-12]!

00000534 <l207>:
     534:	e3a02010 	mov	r2, #16

00000538 <l208>:
     538:	e72de002 	str	lr, [sp, -r2]!

0000053c <l209>:
     53c:	e3a0c008 	mov	ip, #8

00000540 <l210>:
     540:	e60d400c 	str	r4, [sp], -ip

00000544 <l211>:
     544:	e5ad1030 	str	r1, [sp, #48]!	; 0x30

00000548 <l212>:
     548:	e40d1034 	str	r1, [sp], #-52	; 0x34

0000054c <l213>:
     54c:	e48dc03c 	str	ip, [sp], #60	; 0x3c

00000550 <l214>:
     550:	e3a06004 	mov	r6, #4

00000554 <l215>:
     554:	e70dc006 	str	ip, [sp, -r6]

00000558 <l216>:
     558:	e5ad9008 	str	r9, [sp, #8]!

0000055c <l217>:
     55c:	950db040 	strls	fp, [sp, #-64]	; 0x40

00000560 <l218>:
     560:	e50d1028 	str	r1, [sp, #-40]	; 0x28

00000564 <l219>:
     564:	e52d5018 	str	r5, [sp, #-24]!

00000568 <l220>:
     568:	658d5018 	strvs	r5, [sp, #24]

0000056c <l221>:
     56c:	d58d801c 	strle	r8, [sp, #28]

00000570 <l222>:
     570:	e3a0c01c 	mov	ip, #28

00000574 <l223>:
     574:	e72d400c 	str	r4, [sp, -ip]!

00000578 <l224>:
     578:	e48df028 	str	pc, [sp], #40	; 0x28

0000057c <l225>:
     57c:	e3a0a02c 	mov	sl, #44	; 0x2c

00000580 <l226>:
     580:	e60dc00a 	str	ip, [sp], -sl

00000584 <l227>:
     584:	e58d2038 	str	r2, [sp, #56]	; 0x38

00000588 <l228>:
     588:	158d5018 	strne	r5, [sp, #24]

0000058c <l229>:
     58c:	e3a0003c 	mov	r0, #60	; 0x3c

00000590 <l230>:
     590:	578d4000 	strpl	r4, [sp, r0]

00000594 <l231>:
     594:	e5ad6028 	str	r6, [sp, #40]!	; 0x28

00000598 <l232>:
     598:	e3a0e018 	mov	lr, #24

0000059c <l233>:
     59c:	e60d100e 	str	r1, [sp], -lr

000005a0 <l234>:
     5a0:	e3a01008 	mov	r1, #8

000005a4 <l235>:
     5a4:	e70d8001 	str	r8, [sp, -r1]

000005a8 <l236>:
     5a8:	e5ad601c 	str	r6, [sp, #28]!

000005ac <l237>:
     5ac:	950d1030 	strls	r1, [sp, #-48]	; 0x30

000005b0 <l238>:
     5b0:	e52d6020 	str	r6, [sp, #-32]!

000005b4 <l239>:
     5b4:	e3a05008 	mov	r5, #8

000005b8 <l240>:
     5b8:	e72d2005 	str	r2, [sp, -r5]!

000005bc <l241>:
     5bc:	e3a06020 	mov	r6, #32

000005c0 <l242>:
     5c0:	e68d6006 	str	r6, [sp], r6

000005c4 <l243>:
     5c4:	e3a0c004 	mov	ip, #4

000005c8 <l244>:
     5c8:	e7ad800c 	str	r8, [sp, ip]!

000005cc <l245>:
     5cc:	e3a0600c 	mov	r6, #12

000005d0 <l246>:
     5d0:	e7ad2006 	str	r2, [sp, r6]!

000005d4 <l247>:
     5d4:	e3a04008 	mov	r4, #8

000005d8 <l248>:
     5d8:	e68d8004 	str	r8, [sp], r4

000005dc <l249>:
     5dc:	e3a03024 	mov	r3, #36	; 0x24

000005e0 <l250>:
     5e0:	e60d5003 	str	r5, [sp], -r3

000005e4 <l251>:
     5e4:	e3a01018 	mov	r1, #24

000005e8 <l252>:
     5e8:	e60de001 	str	lr, [sp], -r1

000005ec <l253>:
     5ec:	e50d6008 	str	r6, [sp, #-8]

000005f0 <l254>:
     5f0:	e3a0e030 	mov	lr, #48	; 0x30

000005f4 <l255>:
     5f4:	e68d600e 	str	r6, [sp], lr

000005f8 <l256>:
     5f8:	e40d602c 	str	r6, [sp], #-44	; 0x2c

000005fc <l257>:
     5fc:	e48d5038 	str	r5, [sp], #56	; 0x38

00000600 <l258>:
     600:	e3a0e018 	mov	lr, #24

00000604 <l259>:
     604:	e72d700e 	str	r7, [sp, -lr]!

00000608 <l260>:
     608:	e3a06010 	mov	r6, #16

0000060c <l261>:
     60c:	e68d0006 	str	r0, [sp], r6

00000610 <l262>:
     610:	e3a0a014 	mov	sl, #20

00000614 <l263>:
     614:	e72da00a 	str	sl, [sp, -sl]!

00000618 <l264>:
     618:	e50d2024 	str	r2, [sp, #-36]	; 0x24

0000061c <l265>:
     61c:	e3a05000 	mov	r5, #0

00000620 <l266>:
     620:	e7adb005 	str	fp, [sp, r5]!

00000624 <l267>:
     624:	e3a02008 	mov	r2, #8

00000628 <l268>:
     628:	e60d4002 	str	r4, [sp], -r2

0000062c <l269>:
     62c:	e3a09024 	mov	r9, #36	; 0x24

00000630 <l270>:
     630:	d78d0009 	strle	r0, [sp, r9]

00000634 <l271>:
     634:	e3a06008 	mov	r6, #8

00000638 <l272>:
     638:	570db006 	strpl	fp, [sp, -r6]

0000063c <l273>:
     63c:	e3a00008 	mov	r0, #8

00000640 <l274>:
     640:	e72d1000 	str	r1, [sp, -r0]!

00000644 <l275>:
     644:	e3a0600c 	mov	r6, #12

00000648 <l276>:
     648:	e78da006 	str	sl, [sp, r6]

0000064c <l277>:
     64c:	e40d9004 	str	r9, [sp], #-4

00000650 <l278>:
     650:	e48d002c 	str	r0, [sp], #44	; 0x2c

00000654 <l279>:
     654:	450d1030 	strmi	r1, [sp, #-48]	; 0x30

00000658 <l280>:
     658:	350da004 	strcc	sl, [sp, #-4]

0000065c <l281>:
     65c:	e40de024 	str	lr, [sp], #-36	; 0x24

00000660 <l282>:
     660:	e3a0c01c 	mov	ip, #28

00000664 <l283>:
     664:	570d700c 	strpl	r7, [sp, -ip]

00000668 <l284>:
     668:	e3a09018 	mov	r9, #24

0000066c <l285>:
     66c:	e72d4009 	str	r4, [sp, -r9]!

00000670 <l286>:
     670:	e3a0b01c 	mov	fp, #28

00000674 <l287>:
     674:	e7ada00b 	str	sl, [sp, fp]!

00000678 <l288>:
     678:	e3a08018 	mov	r8, #24

0000067c <l289>:
     67c:	e68d3008 	str	r3, [sp], r8

00000680 <l290>:
     680:	e52d7024 	str	r7, [sp, #-36]!	; 0x24

00000684 <l291>:
     684:	558d6030 	strpl	r6, [sp, #48]	; 0x30

00000688 <l292>:
     688:	e3a0400c 	mov	r4, #12

0000068c <l293>:
     68c:	e68df004 	str	pc, [sp], r4

00000690 <l294>:
     690:	e50d0010 	str	r0, [sp, #-16]

00000694 <l295>:
     694:	e3a0b014 	mov	fp, #20

00000698 <l296>:
     698:	e78d300b 	str	r3, [sp, fp]

0000069c <l297>:
     69c:	e5ad600c 	str	r6, [sp, #12]!

000006a0 <l298>:
     6a0:	e3a00020 	mov	r0, #32

000006a4 <l299>:
     6a4:	e72d3000 	str	r3, [sp, -r0]!

000006a8 <l300>:
     6a8:	e3a01008 	mov	r1, #8

000006ac <l301>:
     6ac:	e60dc001 	str	ip, [sp], -r1

000006b0 <l302>:
     6b0:	e3a0701c 	mov	r7, #28

000006b4 <l303>:
     6b4:	e7ada007 	str	sl, [sp, r7]!

000006b8 <l304>:
     6b8:	e48df010 	str	pc, [sp], #16

000006bc <l305>:
     6bc:	e3a07010 	mov	r7, #16

000006c0 <l306>:
     6c0:	e60d5007 	str	r5, [sp], -r7

000006c4 <l307>:
     6c4:	e52d4024 	str	r4, [sp, #-36]!	; 0x24

000006c8 <l308>:
     6c8:	e48d3048 	str	r3, [sp], #72	; 0x48

000006cc <l309>:
     6cc:	e3a0402c 	mov	r4, #44	; 0x2c

000006d0 <l310>:
     6d0:	e72dc004 	str	ip, [sp, -r4]!

000006d4 <l311>:
     6d4:	e58d0004 	str	r0, [sp, #4]

000006d8 <l312>:
     6d8:	858d4008 	strhi	r4, [sp, #8]

000006dc <l313>:
     6dc:	e3a0c01c 	mov	ip, #28

000006e0 <l314>:
     6e0:	e72d300c 	str	r3, [sp, -ip]!

000006e4 <l315>:
     6e4:	e5ad0020 	str	r0, [sp, #32]!

000006e8 <l316>:
     6e8:	e3a06018 	mov	r6, #24

000006ec <l317>:
     6ec:	e70d2006 	str	r2, [sp, -r6]

000006f0 <l318>:
     6f0:	e3a0200c 	mov	r2, #12

000006f4 <l319>:
     6f4:	e60d1002 	str	r1, [sp], -r2

000006f8 <l320>:
     6f8:	058d401c 	streq	r4, [sp, #28]

000006fc <l321>:
     6fc:	e3a09004 	mov	r9, #4

00000700 <l322>:
     700:	e68d6009 	str	r6, [sp], r9

00000704 <l323>:
     704:	e58df014 	str	pc, [sp, #20]

00000708 <l324>:
     708:	e3a01018 	mov	r1, #24

0000070c <l325>:
     70c:	e68db001 	str	fp, [sp], r1

00000710 <l326>:
     710:	e3a0c028 	mov	ip, #40	; 0x28

00000714 <l327>:
     714:	970d700c 	strls	r7, [sp, -ip]

00000718 <l328>:
     718:	e3a0301c 	mov	r3, #28

0000071c <l329>:
     71c:	e60d7003 	str	r7, [sp], -r3

00000720 <l330>:
     720:	e3a0500c 	mov	r5, #12

00000724 <l331>:
     724:	e70d7005 	str	r7, [sp, -r5]

00000728 <l332>:
     728:	558de008 	strpl	lr, [sp, #8]

0000072c <l333>:
     72c:	e5ad3014 	str	r3, [sp, #20]!

00000730 <l334>:
     730:	e52d8024 	str	r8, [sp, #-36]!	; 0x24

00000734 <l335>:
     734:	e3a0b028 	mov	fp, #40	; 0x28

00000738 <l336>:
     738:	e78d700b 	str	r7, [sp, fp]

0000073c <l337>:
     73c:	e3a05030 	mov	r5, #48	; 0x30

00000740 <l338>:
     740:	e7ada005 	str	sl, [sp, r5]!

00000744 <l339>:
     744:	e3a0b014 	mov	fp, #20

00000748 <l340>:
     748:	e68dc00b 	str	ip, [sp], fp

0000074c <l341>:
     74c:	e3a06020 	mov	r6, #32

00000750 <l342>:
     750:	e72d4006 	str	r4, [sp, -r6]!

00000754 <l343>:
     754:	e3a03010 	mov	r3, #16

00000758 <l344>:
     758:	e7ada003 	str	sl, [sp, r3]!

0000075c <l345>:
     75c:	e50d101c 	str	r1, [sp, #-28]

00000760 <l346>:
     760:	e52de038 	str	lr, [sp, #-56]!	; 0x38

00000764 <l347>:
     764:	e58da02c 	str	sl, [sp, #44]	; 0x2c

00000768 <l348>:
     768:	e48d2044 	str	r2, [sp], #68	; 0x44

0000076c <l349>:
     76c:	250db018 	strcs	fp, [sp, #-24]

00000770 <l350>:
     770:	e3a00004 	mov	r0, #4

00000774 <l351>:
     774:	e72d1000 	str	r1, [sp, -r0]!

00000778 <l352>:
     778:	e40d2038 	str	r2, [sp], #-56	; 0x38

0000077c <l353>:
     77c:	e5adc01c 	str	ip, [sp, #28]!

00000780 <l354>:
     780:	e3a0e008 	mov	lr, #8

00000784 <l355>:
     784:	e7ade00e 	str	lr, [sp, lr]!

00000788 <l356>:
     788:	e3a05024 	mov	r5, #36	; 0x24

0000078c <l357>:
     78c:	e60df005 	str	pc, [sp], -r5

00000790 <l358>:
     790:	e3a0c00c 	mov	ip, #12

00000794 <l359>:
     794:	e7ad500c 	str	r5, [sp, ip]!

00000798 <l360>:
     798:	e3a0800c 	mov	r8, #12

0000079c <l361>:
     79c:	e72db008 	str	fp, [sp, -r8]!

000007a0 <l362>:
     7a0:	e48d7010 	str	r7, [sp], #16

000007a4 <l363>:
     7a4:	e3a01008 	mov	r1, #8

000007a8 <l364>:
     7a8:	e60d3001 	str	r3, [sp], -r1

000007ac <l365>:
     7ac:	e50dc008 	str	ip, [sp, #-8]

000007b0 <l366>:
     7b0:	e3a0b030 	mov	fp, #48	; 0x30

000007b4 <l367>:
     7b4:	e7adc00b 	str	ip, [sp, fp]!

000007b8 <l368>:
     7b8:	950d5010 	strls	r5, [sp, #-16]

000007bc <l369>:
     7bc:	e3a03010 	mov	r3, #16

000007c0 <l370>:
     7c0:	e60da003 	str	sl, [sp], -r3

000007c4 <l371>:
     7c4:	e5ad9008 	str	r9, [sp, #8]!

000007c8 <l372>:
     7c8:	e3a0b038 	mov	fp, #56	; 0x38

000007cc <l373>:
     7cc:	e72d200b 	str	r2, [sp, -fp]!

000007d0 <l374>:
     7d0:	e3a04000 	mov	r4, #0

000007d4 <l375>:
     7d4:	e78df004 	str	pc, [sp, r4]

000007d8 <l376>:
     7d8:	758d5048 	strvc	r5, [sp, #72]	; 0x48

000007dc <l377>:
     7dc:	858d1018 	strhi	r1, [sp, #24]

000007e0 <l378>:
     7e0:	e3a0a024 	mov	sl, #36	; 0x24

000007e4 <l379>:
     7e4:	e7ad500a 	str	r5, [sp, sl]!

000007e8 <l380>:
     7e8:	e3a07018 	mov	r7, #24

000007ec <l381>:
     7ec:	e7ad0007 	str	r0, [sp, r7]!

000007f0 <l382>:
     7f0:	e3a06010 	mov	r6, #16

000007f4 <l383>:
     7f4:	e72db006 	str	fp, [sp, -r6]!

000007f8 <l384>:
     7f8:	b58db008 	strlt	fp, [sp, #8]

000007fc <l385>:
     7fc:	e3a0000c 	mov	r0, #12

00000800 <l386>:
     800:	e72d2000 	str	r2, [sp, -r0]!

00000804 <l387>:
     804:	e58d600c 	str	r6, [sp, #12]

00000808 <l388>:
     808:	e3a0a024 	mov	sl, #36	; 0x24

0000080c <l389>:
     80c:	978de00a 	strls	lr, [sp, sl]

00000810 <l390>:
     810:	e3a0b004 	mov	fp, #4

00000814 <l391>:
     814:	e60d800b 	str	r8, [sp], -fp

00000818 <l392>:
     818:	050d401c 	streq	r4, [sp, #-28]

0000081c <l393>:
     81c:	e5ad101c 	str	r1, [sp, #28]!

00000820 <l394>:
     820:	e48d8008 	str	r8, [sp], #8

00000824 <l395>:
     824:	e3a09004 	mov	r9, #4

00000828 <l396>:
     828:	e68d5009 	str	r5, [sp], r9

0000082c <l397>:
     82c:	e50d601c 	str	r6, [sp, #-28]

00000830 <l398>:
     830:	e3a01020 	mov	r1, #32

00000834 <l399>:
     834:	e60d3001 	str	r3, [sp], -r1

00000838 <l400>:
     838:	e48dc014 	str	ip, [sp], #20

0000083c <l401>:
     83c:	e48d6010 	str	r6, [sp], #16

00000840 <l402>:
     840:	e40d8010 	str	r8, [sp], #-16

00000844 <l403>:
     844:	e3a09030 	mov	r9, #48	; 0x30

00000848 <l404>:
     848:	470da009 	strmi	sl, [sp, -r9]

0000084c <l405>:
     84c:	e3a07010 	mov	r7, #16

00000850 <l406>:
     850:	e60df007 	str	pc, [sp], -r7

00000854 <l407>:
     854:	e52d201c 	str	r2, [sp, #-28]!

00000858 <l408>:
     858:	e48d6020 	str	r6, [sp], #32

0000085c <l409>:
     85c:	e48d0004 	str	r0, [sp], #4

00000860 <l410>:
     860:	e3a0802c 	mov	r8, #44	; 0x2c

00000864 <l411>:
     864:	e60d9008 	str	r9, [sp], -r8

00000868 <l412>:
     868:	e48d0038 	str	r0, [sp], #56	; 0x38

0000086c <l413>:
     86c:	e3a0b024 	mov	fp, #36	; 0x24

00000870 <l414>:
     870:	e60d200b 	str	r2, [sp], -fp

00000874 <l415>:
     874:	e48df00c 	str	pc, [sp], #12

00000878 <l416>:
     878:	e58d3000 	str	r3, [sp]

0000087c <l417>:
     87c:	e3a0e020 	mov	lr, #32

00000880 <l418>:
     880:	e68d300e 	str	r3, [sp], lr

00000884 <l419>:
     884:	e3a0601c 	mov	r6, #28

00000888 <l420>:
     888:	e60dc006 	str	ip, [sp], -r6

0000088c <l421>:
     88c:	a50d3010 	strge	r3, [sp, #-16]

00000890 <l422>:
     890:	e3a04008 	mov	r4, #8

00000894 <l423>:
     894:	e60de004 	str	lr, [sp], -r4

00000898 <l424>:
     898:	e3a05020 	mov	r5, #32

0000089c <l425>:
     89c:	e68d8005 	str	r8, [sp], r5

000008a0 <l426>:
     8a0:	e3a07030 	mov	r7, #48	; 0x30

000008a4 <l427>:
     8a4:	e72d4007 	str	r4, [sp, -r7]!

000008a8 <l428>:
     8a8:	e52da010 	str	sl, [sp, #-16]!

000008ac <l429>:
     8ac:	e58df030 	str	pc, [sp, #48]	; 0x30

000008b0 <l430>:
     8b0:	e3a0e024 	mov	lr, #36	; 0x24

000008b4 <l431>:
     8b4:	e7ad700e 	str	r7, [sp, lr]!

000008b8 <l432>:
     8b8:	e52d2010 	str	r2, [sp, #-16]!

000008bc <l433>:
     8bc:	e3a02030 	mov	r2, #48	; 0x30

000008c0 <l434>:
     8c0:	c78d5002 	strgt	r5, [sp, r2]

000008c4 <l435>:
     8c4:	e3a08024 	mov	r8, #36	; 0x24

000008c8 <l436>:
     8c8:	e7ade008 	str	lr, [sp, r8]!

000008cc <l437>:
     8cc:	e48d0000 	str	r0, [sp], #0

000008d0 <l438>:
     8d0:	e3a07008 	mov	r7, #8

000008d4 <l439>:
     8d4:	e68d9007 	str	r9, [sp], r7

000008d8 <l440>:
     8d8:	e40dc024 	str	ip, [sp], #-36	; 0x24

000008dc <l441>:
     8dc:	e50de008 	str	lr, [sp, #-8]

000008e0 <l442>:
     8e0:	e48d6004 	str	r6, [sp], #4

000008e4 <l443>:
     8e4:	e3a09008 	mov	r9, #8

000008e8 <l444>:
     8e8:	e72d1009 	str	r1, [sp, -r9]!

000008ec <l445>:
     8ec:	e5ad4024 	str	r4, [sp, #36]!	; 0x24

000008f0 <l446>:
     8f0:	e3a0e030 	mov	lr, #48	; 0x30

000008f4 <l447>:
     8f4:	e60d700e 	str	r7, [sp], -lr

000008f8 <l448>:
     8f8:	e3a03038 	mov	r3, #56	; 0x38

000008fc <l449>:
     8fc:	a78d3003 	strge	r3, [sp, r3]

00000900 <l450>:
     900:	a58d3010 	strge	r3, [sp, #16]

00000904 <l451>:
     904:	e52de00c 	str	lr, [sp, #-12]!

00000908 <l452>:
     908:	e48da018 	str	sl, [sp], #24

0000090c <l453>:
     90c:	e3a06010 	mov	r6, #16

00000910 <l454>:
     910:	e60da006 	str	sl, [sp], -r6

00000914 <l455>:
     914:	e3a0a034 	mov	sl, #52	; 0x34

00000918 <l456>:
     918:	e68d600a 	str	r6, [sp], sl

0000091c <l457>:
     91c:	350de028 	strcc	lr, [sp, #-40]	; 0x28

00000920 <l458>:
     920:	e3a0403c 	mov	r4, #60	; 0x3c

00000924 <l459>:
     924:	270d2004 	strcs	r2, [sp, -r4]

00000928 <l460>:
     928:	e3a0301c 	mov	r3, #28

0000092c <l461>:
     92c:	e60d6003 	str	r6, [sp], -r3

00000930 <l462>:
     930:	e3a03020 	mov	r3, #32

00000934 <l463>:
     934:	e70d9003 	str	r9, [sp, -r3]

00000938 <l464>:
     938:	e3a0e028 	mov	lr, #40	; 0x28

0000093c <l465>:
     93c:	e7ad900e 	str	r9, [sp, lr]!

00000940 <l466>:
     940:	e3a03010 	mov	r3, #16

00000944 <l467>:
     944:	e72d4003 	str	r4, [sp, -r3]!

00000948 <l468>:
     948:	e40d6010 	str	r6, [sp], #-16

0000094c <l469>:
     94c:	e3a02004 	mov	r2, #4

00000950 <l470>:
     950:	870d2002 	strhi	r2, [sp, -r2]

00000954 <l471>:
     954:	e48d6018 	str	r6, [sp], #24

00000958 <l472>:
     958:	e50db004 	str	fp, [sp, #-4]

0000095c <l473>:
     95c:	e52d1034 	str	r1, [sp, #-52]!	; 0x34

00000960 <l474>:
     960:	e40d5004 	str	r5, [sp], #-4

00000964 <l475>:
     964:	e5ad3014 	str	r3, [sp, #20]!

00000968 <l476>:
     968:	e48d9014 	str	r9, [sp], #20

0000096c <l477>:
     96c:	e40de020 	str	lr, [sp], #-32

00000970 <l478>:
     970:	e48da02c 	str	sl, [sp], #44	; 0x2c

00000974 <l479>:
     974:	e40d1028 	str	r1, [sp], #-40	; 0x28

00000978 <l480>:
     978:	e3a01014 	mov	r1, #20

0000097c <l481>:
     97c:	978d3001 	strls	r3, [sp, r1]

00000980 <l482>:
     980:	e3a01034 	mov	r1, #52	; 0x34

00000984 <l483>:
     984:	e7ad8001 	str	r8, [sp, r1]!

00000988 <l484>:
     988:	e3a0b02c 	mov	fp, #44	; 0x2c

0000098c <l485>:
     98c:	e70db00b 	str	fp, [sp, -fp]

00000990 <l486>:
     990:	e52d5034 	str	r5, [sp, #-52]!	; 0x34

00000994 <l487>:
     994:	e3a07020 	mov	r7, #32

00000998 <l488>:
     998:	978d8007 	strls	r8, [sp, r7]

0000099c <l489>:
     99c:	e3a02018 	mov	r2, #24

000009a0 <l490>:
     9a0:	e68db002 	str	fp, [sp], r2

000009a4 <l491>:
     9a4:	e3a0a00c 	mov	sl, #12

000009a8 <l492>:
     9a8:	b70d800a 	strlt	r8, [sp, -sl]

000009ac <l493>:
     9ac:	e40da004 	str	sl, [sp], #-4

000009b0 <l494>:
     9b0:	e40da014 	str	sl, [sp], #-20

000009b4 <l495>:
     9b4:	e3a02024 	mov	r2, #36	; 0x24

000009b8 <l496>:
     9b8:	e68dc002 	str	ip, [sp], r2

000009bc <l497>:
     9bc:	e40db008 	str	fp, [sp], #-8

000009c0 <l498>:
     9c0:	e3a0800c 	mov	r8, #12

000009c4 <l499>:
     9c4:	e68d9008 	str	r9, [sp], r8

000009c8 <l500>:
     9c8:	e48de004 	str	lr, [sp], #4

000009cc <l501>:
     9cc:	e52de010 	str	lr, [sp, #-16]!

000009d0 <l502>:
     9d0:	e3a0100c 	mov	r1, #12

000009d4 <l503>:
     9d4:	e60d1001 	str	r1, [sp], -r1

000009d8 <l504>:
     9d8:	e3a0a008 	mov	sl, #8

000009dc <l505>:
     9dc:	e60d100a 	str	r1, [sp], -sl

000009e0 <l506>:
     9e0:	850d2004 	strhi	r2, [sp, #-4]

000009e4 <l507>:
     9e4:	558dc024 	strpl	ip, [sp, #36]	; 0x24

000009e8 <l508>:
     9e8:	e52de01c 	str	lr, [sp, #-28]!

000009ec <l509>:
     9ec:	e3a02004 	mov	r2, #4

000009f0 <l510>:
     9f0:	e7ad6002 	str	r6, [sp, r2]!

000009f4 <l511>:
     9f4:	e3a03010 	mov	r3, #16

000009f8 <l512>:
     9f8:	e7ade003 	str	lr, [sp, r3]!

000009fc <l513>:
     9fc:	e3a08028 	mov	r8, #40	; 0x28

00000a00 <l514>:
     a00:	078d4008 	streq	r4, [sp, r8]

00000a04 <l515>:
     a04:	e58d001c 	str	r0, [sp, #28]

00000a08 <l516>:
     a08:	e48dc02c 	str	ip, [sp], #44	; 0x2c

00000a0c <l517>:
     a0c:	e40dc038 	str	ip, [sp], #-56	; 0x38

00000a10 <l518>:
     a10:	e3a06020 	mov	r6, #32

00000a14 <l519>:
     a14:	e68d5006 	str	r5, [sp], r6

00000a18 <l520>:
     a18:	e3a0b020 	mov	fp, #32

00000a1c <l521>:
     a1c:	e68d100b 	str	r1, [sp], fp

00000a20 <l522>:
     a20:	e3a02034 	mov	r2, #52	; 0x34

00000a24 <l523>:
     a24:	e72d8002 	str	r8, [sp, -r2]!

00000a28 <l524>:
     a28:	e3a05014 	mov	r5, #20

00000a2c <l525>:
     a2c:	e7adc005 	str	ip, [sp, r5]!

00000a30 <l526>:
     a30:	e5ad9014 	str	r9, [sp, #20]!

00000a34 <l527>:
     a34:	e3a09010 	mov	r9, #16

00000a38 <l528>:
     a38:	e70dc009 	str	ip, [sp, -r9]

00000a3c <l529>:
     a3c:	e3a06024 	mov	r6, #36	; 0x24

00000a40 <l530>:
     a40:	e72d9006 	str	r9, [sp, -r6]!

00000a44 <l531>:
     a44:	c50d3008 	strgt	r3, [sp, #-8]

00000a48 <l532>:
     a48:	e3a0e010 	mov	lr, #16

00000a4c <l533>:
     a4c:	e78d100e 	str	r1, [sp, lr]

00000a50 <l534>:
     a50:	e3a04024 	mov	r4, #36	; 0x24

00000a54 <l535>:
     a54:	e68d0004 	str	r0, [sp], r4

00000a58 <l536>:
     a58:	e3a09008 	mov	r9, #8

00000a5c <l537>:
     a5c:	e68d8009 	str	r8, [sp], r9

00000a60 <l538>:
     a60:	e3a04024 	mov	r4, #36	; 0x24

00000a64 <l539>:
     a64:	e72d9004 	str	r9, [sp, -r4]!

00000a68 <l540>:
     a68:	e3a04028 	mov	r4, #40	; 0x28

00000a6c <l541>:
     a6c:	778d3004 	strvc	r3, [sp, r4]

00000a70 <l542>:
     a70:	e48d8024 	str	r8, [sp], #36	; 0x24

00000a74 <l543>:
     a74:	e3a06020 	mov	r6, #32

00000a78 <l544>:
     a78:	e60d7006 	str	r7, [sp], -r6

00000a7c <l545>:
     a7c:	e3a0b024 	mov	fp, #36	; 0x24

00000a80 <l546>:
     a80:	e7ade00b 	str	lr, [sp, fp]!

00000a84 <l547>:
     a84:	e3a08028 	mov	r8, #40	; 0x28

00000a88 <l548>:
     a88:	e70d7008 	str	r7, [sp, -r8]

00000a8c <l549>:
     a8c:	950d401c 	strls	r4, [sp, #-28]

00000a90 <l550>:
     a90:	e3a05048 	mov	r5, #72	; 0x48

00000a94 <l551>:
     a94:	570da005 	strpl	sl, [sp, -r5]

00000a98 <l552>:
     a98:	e3a0b028 	mov	fp, #40	; 0x28

00000a9c <l553>:
     a9c:	e72d900b 	str	r9, [sp, -fp]!

00000aa0 <l554>:
     aa0:	e3a0200c 	mov	r2, #12

00000aa4 <l555>:
     aa4:	e7ad5002 	str	r5, [sp, r2]!

00000aa8 <l556>:
     aa8:	e50d9018 	str	r9, [sp, #-24]

00000aac <l557>:
     aac:	a58d400c 	strge	r4, [sp, #12]

00000ab0 <l558>:
     ab0:	e40d8020 	str	r8, [sp], #-32

00000ab4 <l559>:
     ab4:	e40d6004 	str	r6, [sp], #-4

00000ab8 <l560>:
     ab8:	e3a05000 	mov	r5, #0

00000abc <l561>:
     abc:	e7ad1005 	str	r1, [sp, r5]!

00000ac0 <l562>:
     ac0:	e3a0e02c 	mov	lr, #44	; 0x2c

00000ac4 <l563>:
     ac4:	e68da00e 	str	sl, [sp], lr

00000ac8 <l564>:
     ac8:	e58da000 	str	sl, [sp]

00000acc <l565>:
     acc:	e3a0e02c 	mov	lr, #44	; 0x2c

00000ad0 <l566>:
     ad0:	e72d500e 	str	r5, [sp, -lr]!

00000ad4 <l567>:
     ad4:	c58d5008 	strgt	r5, [sp, #8]

00000ad8 <l568>:
     ad8:	e58dc000 	str	ip, [sp]

00000adc <l569>:
     adc:	e48de00c 	str	lr, [sp], #12

00000ae0 <l570>:
     ae0:	c58d2008 	strgt	r2, [sp, #8]

00000ae4 <l571>:
     ae4:	e40d6010 	str	r6, [sp], #-16

00000ae8 <l572>:
     ae8:	e48db014 	str	fp, [sp], #20

00000aec <l573>:
     aec:	e3a00014 	mov	r0, #20

00000af0 <l574>:
     af0:	e78da000 	str	sl, [sp, r0]

00000af4 <l575>:
     af4:	e3a09020 	mov	r9, #32

00000af8 <l576>:
     af8:	e7ad7009 	str	r7, [sp, r9]!

00000afc <l577>:
     afc:	e52d1030 	str	r1, [sp, #-48]!	; 0x30

00000b00 <l578>:
     b00:	e3a06024 	mov	r6, #36	; 0x24

00000b04 <l579>:
     b04:	e68d2006 	str	r2, [sp], r6

00000b08 <l580>:
     b08:	350db010 	strcc	fp, [sp, #-16]

00000b0c <l581>:
     b0c:	058de018 	streq	lr, [sp, #24]

00000b10 <l582>:
     b10:	e52d3004 	push	{r3}		; (str r3, [sp, #-4]!)

00000b14 <l583>:
     b14:	e3a0b004 	mov	fp, #4

00000b18 <l584>:
     b18:	278d000b 	strcs	r0, [sp, fp]

00000b1c <l585>:
     b1c:	e50d7014 	str	r7, [sp, #-20]

00000b20 <l586>:
     b20:	e3a0b024 	mov	fp, #36	; 0x24

00000b24 <l587>:
     b24:	e60d300b 	str	r3, [sp], -fp

00000b28 <l588>:
     b28:	e48d6028 	str	r6, [sp], #40	; 0x28

00000b2c <l589>:
     b2c:	750d8004 	strvc	r8, [sp, #-4]

00000b30 <l590>:
     b30:	e3a05018 	mov	r5, #24

00000b34 <l591>:
     b34:	478dc005 	strmi	ip, [sp, r5]

00000b38 <l592>:
     b38:	e3a01010 	mov	r1, #16

00000b3c <l593>:
     b3c:	e60d0001 	str	r0, [sp], -r1

00000b40 <l594>:
     b40:	050d4004 	streq	r4, [sp, #-4]

00000b44 <l595>:
     b44:	e3a0c01c 	mov	ip, #28

00000b48 <l596>:
     b48:	e68d000c 	str	r0, [sp], ip

00000b4c <l597>:
     b4c:	e3a07034 	mov	r7, #52	; 0x34

00000b50 <l598>:
     b50:	e70d1007 	str	r1, [sp, -r7]

00000b54 <l599>:
     b54:	e3a0a00c 	mov	sl, #12

00000b58 <l600>:
     b58:	e78d900a 	str	r9, [sp, sl]

00000b5c <l601>:
     b5c:	e3a0b020 	mov	fp, #32

00000b60 <l602>:
     b60:	e72d500b 	str	r5, [sp, -fp]!

00000b64 <l603>:
     b64:	e40dc004 	str	ip, [sp], #-4

00000b68 <l604>:
     b68:	e3a00008 	mov	r0, #8

00000b6c <l605>:
     b6c:	e60d3000 	str	r3, [sp], -r0

00000b70 <l606>:
     b70:	858d901c 	strhi	r9, [sp, #28]

00000b74 <l607>:
     b74:	e3a08018 	mov	r8, #24

00000b78 <l608>:
     b78:	e7ad0008 	str	r0, [sp, r8]!

00000b7c <l609>:
     b7c:	e3a0901c 	mov	r9, #28

00000b80 <l610>:
     b80:	e70de009 	str	lr, [sp, -r9]

00000b84 <l611>:
     b84:	e5ad8014 	str	r8, [sp, #20]!

00000b88 <l612>:
     b88:	e3a0402c 	mov	r4, #44	; 0x2c

00000b8c <l613>:
     b8c:	e70d0004 	str	r0, [sp, -r4]

00000b90 <l614>:
     b90:	e3a09008 	mov	r9, #8

00000b94 <l615>:
     b94:	e68df009 	str	pc, [sp], r9

00000b98 <l616>:
     b98:	e40df028 	str	pc, [sp], #-40	; 0x28

00000b9c <l617>:
     b9c:	e3a04020 	mov	r4, #32

00000ba0 <l618>:
     ba0:	e78da004 	str	sl, [sp, r4]

00000ba4 <l619>:
     ba4:	e40d3008 	str	r3, [sp], #-8

00000ba8 <l620>:
     ba8:	e3a0a020 	mov	sl, #32

00000bac <l621>:
     bac:	478d000a 	strmi	r0, [sp, sl]

00000bb0 <l622>:
     bb0:	e40dc004 	str	ip, [sp], #-4

00000bb4 <l623>:
     bb4:	e5ad902c 	str	r9, [sp, #44]!	; 0x2c

00000bb8 <l624>:
     bb8:	e3a0600c 	mov	r6, #12

00000bbc <l625>:
     bbc:	e7ad9006 	str	r9, [sp, r6]!

00000bc0 <l626>:
     bc0:	e3a01004 	mov	r1, #4

00000bc4 <l627>:
     bc4:	e60db001 	str	fp, [sp], -r1

00000bc8 <l628>:
     bc8:	250da040 	strcs	sl, [sp, #-64]	; 0x40

00000bcc <l629>:
     bcc:	e3a0a038 	mov	sl, #56	; 0x38

00000bd0 <l630>:
     bd0:	e70d500a 	str	r5, [sp, -sl]

00000bd4 <l631>:
     bd4:	e52dc02c 	str	ip, [sp, #-44]!	; 0x2c

00000bd8 <l632>:
     bd8:	e3a03018 	mov	r3, #24

00000bdc <l633>:
     bdc:	078d7003 	streq	r7, [sp, r3]

00000be0 <l634>:
     be0:	e48de02c 	str	lr, [sp], #44	; 0x2c

00000be4 <l635>:
     be4:	e3a0e01c 	mov	lr, #28

00000be8 <l636>:
     be8:	e72d300e 	str	r3, [sp, -lr]!

00000bec <l637>:
     bec:	e40d5004 	str	r5, [sp], #-4

00000bf0 <l638>:
     bf0:	e5ad2008 	str	r2, [sp, #8]!

00000bf4 <l639>:
     bf4:	e3a00014 	mov	r0, #20

00000bf8 <l640>:
     bf8:	e60d7000 	str	r7, [sp], -r0

00000bfc <l641>:
     bfc:	e5ad7034 	str	r7, [sp, #52]!	; 0x34

00000c00 <l642>:
     c00:	e3a0901c 	mov	r9, #28

00000c04 <l643>:
     c04:	e60da009 	str	sl, [sp], -r9

00000c08 <l644>:
     c08:	e3a0200c 	mov	r2, #12

00000c0c <l645>:
     c0c:	e7adc002 	str	ip, [sp, r2]!

00000c10 <l646>:
     c10:	e3a0e00c 	mov	lr, #12

00000c14 <l647>:
     c14:	e72db00e 	str	fp, [sp, -lr]!

00000c18 <l648>:
     c18:	e40d4010 	str	r4, [sp], #-16

00000c1c <l649>:
     c1c:	e3a09008 	mov	r9, #8

00000c20 <l650>:
     c20:	e72d1009 	str	r1, [sp, -r9]!

00000c24 <l651>:
     c24:	e48d4010 	str	r4, [sp], #16

00000c28 <l652>:
     c28:	e40d501c 	str	r5, [sp], #-28

00000c2c <l653>:
     c2c:	e3a01024 	mov	r1, #36	; 0x24

00000c30 <l654>:
     c30:	e68dc001 	str	ip, [sp], r1

00000c34 <l655>:
     c34:	e3a09008 	mov	r9, #8

00000c38 <l656>:
     c38:	670d5009 	strvs	r5, [sp, -r9]

00000c3c <l657>:
     c3c:	e40d8008 	str	r8, [sp], #-8

00000c40 <l658>:
     c40:	e3a0b020 	mov	fp, #32

00000c44 <l659>:
     c44:	e7ad100b 	str	r1, [sp, fp]!

00000c48 <l660>:
     c48:	e3a0c010 	mov	ip, #16

00000c4c <l661>:
     c4c:	e60d800c 	str	r8, [sp], -ip

00000c50 <l662>:
     c50:	e3a07004 	mov	r7, #4

00000c54 <l663>:
     c54:	e7ad3007 	str	r3, [sp, r7]!

00000c58 <l664>:
     c58:	e3a0c018 	mov	ip, #24

00000c5c <l665>:
     c5c:	e60db00c 	str	fp, [sp], -ip

00000c60 <l666>:
     c60:	e3a00000 	mov	r0, #0

00000c64 <l667>:
     c64:	578d6000 	strpl	r6, [sp, r0]

00000c68 <l668>:
     c68:	258d5014 	strcs	r5, [sp, #20]

00000c6c <l669>:
     c6c:	e3a03010 	mov	r3, #16

00000c70 <l670>:
     c70:	470d0003 	strmi	r0, [sp, -r3]

00000c74 <l671>:
     c74:	e3a0e000 	mov	lr, #0

00000c78 <l672>:
     c78:	778d300e 	strvc	r3, [sp, lr]

00000c7c <l673>:
     c7c:	e3a0001c 	mov	r0, #28

00000c80 <l674>:
     c80:	e68dc000 	str	ip, [sp], r0

00000c84 <l675>:
     c84:	e40d4010 	str	r4, [sp], #-16

00000c88 <l676>:
     c88:	e3a06010 	mov	r6, #16

00000c8c <l677>:
     c8c:	e7ad6006 	str	r6, [sp, r6]!

00000c90 <l678>:
     c90:	e3a04030 	mov	r4, #48	; 0x30

00000c94 <l679>:
     c94:	e60d1004 	str	r1, [sp], -r4

00000c98 <l680>:
     c98:	e5ad2028 	str	r2, [sp, #40]!	; 0x28

00000c9c <l681>:
     c9c:	e3a0a00c 	mov	sl, #12

00000ca0 <l682>:
     ca0:	e7ada00a 	str	sl, [sp, sl]!

00000ca4 <l683>:
     ca4:	e58dc000 	str	ip, [sp]

00000ca8 <l684>:
     ca8:	e40d101c 	str	r1, [sp], #-28

00000cac <l685>:
     cac:	e48d7008 	str	r7, [sp], #8

00000cb0 <l686>:
     cb0:	e48d2014 	str	r2, [sp], #20

00000cb4 <l687>:
     cb4:	e40d4028 	str	r4, [sp], #-40	; 0x28

00000cb8 <l688>:
     cb8:	e3a07028 	mov	r7, #40	; 0x28

00000cbc <l689>:
     cbc:	e7ad1007 	str	r1, [sp, r7]!

00000cc0 <l690>:
     cc0:	e40d1008 	str	r1, [sp], #-8

00000cc4 <l691>:
     cc4:	e3a02020 	mov	r2, #32

00000cc8 <l692>:
     cc8:	e60d2002 	str	r2, [sp], -r2

00000ccc <l693>:
     ccc:	e3a03018 	mov	r3, #24

00000cd0 <l694>:
     cd0:	e68d8003 	str	r8, [sp], r3

00000cd4 <l695>:
     cd4:	e40d101c 	str	r1, [sp], #-28

00000cd8 <l696>:
     cd8:	e48d201c 	str	r2, [sp], #28

00000cdc <l697>:
     cdc:	e3a00000 	mov	r0, #0

00000ce0 <l698>:
     ce0:	e7ad2000 	str	r2, [sp, r0]!

00000ce4 <l699>:
     ce4:	e3a09008 	mov	r9, #8

00000ce8 <l700>:
     ce8:	d70d0009 	strle	r0, [sp, -r9]

00000cec <l701>:
     cec:	e3a08018 	mov	r8, #24

00000cf0 <l702>:
     cf0:	870d2008 	strhi	r2, [sp, -r8]

00000cf4 <l703>:
     cf4:	e58d8014 	str	r8, [sp, #20]

00000cf8 <l704>:
     cf8:	e52d4028 	str	r4, [sp, #-40]!	; 0x28

00000cfc <l705>:
     cfc:	e3a01008 	mov	r1, #8

00000d00 <l706>:
     d00:	e60da001 	str	sl, [sp], -r1

00000d04 <l707>:
     d04:	e3a0e008 	mov	lr, #8

00000d08 <l708>:
     d08:	e68d900e 	str	r9, [sp], lr

00000d0c <l709>:
     d0c:	e5ad2000 	str	r2, [sp, #0]!

00000d10 <l710>:
     d10:	e3a0c030 	mov	ip, #48	; 0x30

00000d14 <l711>:
     d14:	e78d800c 	str	r8, [sp, ip]

00000d18 <l712>:
     d18:	e3a0701c 	mov	r7, #28

00000d1c <l713>:
     d1c:	e7ad4007 	str	r4, [sp, r7]!

00000d20 <l714>:
     d20:	e3a02004 	mov	r2, #4

00000d24 <l715>:
     d24:	e72dc002 	str	ip, [sp, -r2]!

00000d28 <l716>:
     d28:	e52dc004 	push	{ip}		; (str ip, [sp, #-4]!)

00000d2c <l717>:
     d2c:	e5ada004 	str	sl, [sp, #4]!

00000d30 <l718>:
     d30:	958d6024 	strls	r6, [sp, #36]	; 0x24

00000d34 <l719>:
     d34:	e3a00014 	mov	r0, #20

00000d38 <l720>:
     d38:	370da000 	strcc	sl, [sp, -r0]

00000d3c <l721>:
     d3c:	e50d5020 	str	r5, [sp, #-32]

00000d40 <l722>:
     d40:	e3a03024 	mov	r3, #36	; 0x24

00000d44 <l723>:
     d44:	e78d3003 	str	r3, [sp, r3]

00000d48 <l724>:
     d48:	e48d2014 	str	r2, [sp], #20

00000d4c <l725>:
     d4c:	e3a02004 	mov	r2, #4

00000d50 <l726>:
     d50:	e60d5002 	str	r5, [sp], -r2

00000d54 <l727>:
     d54:	e3a09010 	mov	r9, #16

00000d58 <l728>:
     d58:	e60d3009 	str	r3, [sp], -r9

00000d5c <l729>:
     d5c:	e40d9014 	str	r9, [sp], #-20

00000d60 <l730>:
     d60:	658d8010 	strvs	r8, [sp, #16]

00000d64 <l731>:
     d64:	e5adf03c 	str	pc, [sp, #60]!	; 0x3c

00000d68 <l732>:
     d68:	e3a0e00c 	mov	lr, #12

00000d6c <l733>:
     d6c:	e70d600e 	str	r6, [sp, -lr]

00000d70 <l734>:
     d70:	e3a01010 	mov	r1, #16

00000d74 <l735>:
     d74:	e60d3001 	str	r3, [sp], -r1

00000d78 <l736>:
     d78:	e52d002c 	str	r0, [sp, #-44]!	; 0x2c

00000d7c <l737>:
     d7c:	e48db02c 	str	fp, [sp], #44	; 0x2c

00000d80 <l738>:
     d80:	e3a0902c 	mov	r9, #44	; 0x2c

00000d84 <l739>:
     d84:	e72d5009 	str	r5, [sp, -r9]!

00000d88 <l740>:
     d88:	e48d0030 	str	r0, [sp], #48	; 0x30

00000d8c <l741>:
     d8c:	950d1010 	strls	r1, [sp, #-16]

00000d90 <l742>:
     d90:	e3a0b034 	mov	fp, #52	; 0x34

00000d94 <l743>:
     d94:	a70db00b 	strge	fp, [sp, -fp]

00000d98 <l744>:
     d98:	e52d0004 	push	{r0}		; (str r0, [sp, #-4]!)

00000d9c <l745>:
     d9c:	e58da004 	str	sl, [sp, #4]

00000da0 <l746>:
     da0:	e3a01018 	mov	r1, #24

00000da4 <l747>:
     da4:	e72d3001 	str	r3, [sp, -r1]!

00000da8 <l748>:
     da8:	e3a03024 	mov	r3, #36	; 0x24

00000dac <l749>:
     dac:	e7adc003 	str	ip, [sp, r3]!

00000db0 <l750>:
     db0:	e52d8040 	str	r8, [sp, #-64]!	; 0x40

00000db4 <l751>:
     db4:	e58d9008 	str	r9, [sp, #8]

00000db8 <l752>:
     db8:	e5ada03c 	str	sl, [sp, #60]!	; 0x3c

00000dbc <l753>:
     dbc:	e52d0020 	str	r0, [sp, #-32]!

00000dc0 <l754>:
     dc0:	e3a00014 	mov	r0, #20

00000dc4 <l755>:
     dc4:	e72dc000 	str	ip, [sp, -r0]!

00000dc8 <l756>:
     dc8:	e5ad4014 	str	r4, [sp, #20]!

00000dcc <l757>:
     dcc:	e52d600c 	str	r6, [sp, #-12]!

00000dd0 <l758>:
     dd0:	e3a06008 	mov	r6, #8

00000dd4 <l759>:
     dd4:	e60da006 	str	sl, [sp], -r6

00000dd8 <l760>:
     dd8:	e5ad9024 	str	r9, [sp, #36]!	; 0x24

00000ddc <l761>:
     ddc:	e3a05010 	mov	r5, #16

00000de0 <l762>:
     de0:	e78df005 	str	pc, [sp, r5]

00000de4 <l763>:
     de4:	e5ad7010 	str	r7, [sp, #16]!

00000de8 <l764>:
     de8:	e3a0b008 	mov	fp, #8

00000dec <l765>:
     dec:	e72db00b 	str	fp, [sp, -fp]!

00000df0 <l766>:
     df0:	e50db038 	str	fp, [sp, #-56]	; 0x38

00000df4 <l767>:
     df4:	e3a0600c 	mov	r6, #12

00000df8 <l768>:
     df8:	170d5006 	strne	r5, [sp, -r6]

00000dfc <l769>:
     dfc:	e52dc024 	str	ip, [sp, #-36]!	; 0x24

00000e00 <l770>:
     e00:	e5ad6004 	str	r6, [sp, #4]!

00000e04 <l771>:
     e04:	d50d1004 	strle	r1, [sp, #-4]

00000e08 <l772>:
     e08:	e3a00014 	mov	r0, #20

00000e0c <l773>:
     e0c:	e72da000 	str	sl, [sp, -r0]!

00000e10 <l774>:
     e10:	e3a04044 	mov	r4, #68	; 0x44

00000e14 <l775>:
     e14:	e68d4004 	str	r4, [sp], r4

00000e18 <l776>:
     e18:	e52d5038 	str	r5, [sp, #-56]!	; 0x38

00000e1c <l777>:
     e1c:	e3a0901c 	mov	r9, #28

00000e20 <l778>:
     e20:	e7adf009 	str	pc, [sp, r9]!

00000e24 <l779>:
     e24:	e48da010 	str	sl, [sp], #16

00000e28 <l780>:
     e28:	e3a0102c 	mov	r1, #44	; 0x2c

00000e2c <l781>:
     e2c:	670df001 	strvs	pc, [sp, -r1]

00000e30 <l782>:
     e30:	e3a00014 	mov	r0, #20

00000e34 <l783>:
     e34:	e70de000 	str	lr, [sp, -r0]

00000e38 <l784>:
     e38:	e3a03008 	mov	r3, #8

00000e3c <l785>:
     e3c:	e72d6003 	str	r6, [sp, -r3]!

00000e40 <l786>:
     e40:	e40d402c 	str	r4, [sp], #-44	; 0x2c

00000e44 <l787>:
     e44:	e3a07024 	mov	r7, #36	; 0x24

00000e48 <l788>:
     e48:	978d3007 	strls	r3, [sp, r7]

00000e4c <l789>:
     e4c:	e3a07004 	mov	r7, #4

00000e50 <l790>:
     e50:	e7ad6007 	str	r6, [sp, r7]!

00000e54 <l791>:
     e54:	e3a08034 	mov	r8, #52	; 0x34

00000e58 <l792>:
     e58:	e78d7008 	str	r7, [sp, r8]

00000e5c <l793>:
     e5c:	e3a0200c 	mov	r2, #12

00000e60 <l794>:
     e60:	e68d6002 	str	r6, [sp], r2

00000e64 <l795>:
     e64:	e3a04014 	mov	r4, #20

00000e68 <l796>:
     e68:	e68d2004 	str	r2, [sp], r4

00000e6c <l797>:
     e6c:	e40df008 	str	pc, [sp], #-8

00000e70 <l798>:
     e70:	e3a0a010 	mov	sl, #16

00000e74 <l799>:
     e74:	e60dc00a 	str	ip, [sp], -sl

00000e78 <l800>:
     e78:	e58d000c 	str	r0, [sp, #12]

00000e7c <l801>:
     e7c:	e58d5014 	str	r5, [sp, #20]

00000e80 <l802>:
     e80:	e3a05030 	mov	r5, #48	; 0x30

00000e84 <l803>:
     e84:	e68d2005 	str	r2, [sp], r5

00000e88 <l804>:
     e88:	e50d7024 	str	r7, [sp, #-36]	; 0x24

00000e8c <l805>:
     e8c:	150d3004 	strne	r3, [sp, #-4]

00000e90 <l806>:
     e90:	e52d0004 	push	{r0}		; (str r0, [sp, #-4]!)

00000e94 <l807>:
     e94:	e40de028 	str	lr, [sp], #-40	; 0x28

00000e98 <l808>:
     e98:	e3a06014 	mov	r6, #20

00000e9c <l809>:
     e9c:	c70da006 	strgt	sl, [sp, -r6]

00000ea0 <l810>:
     ea0:	e48df018 	str	pc, [sp], #24

00000ea4 <l811>:
     ea4:	e3a04004 	mov	r4, #4

00000ea8 <l812>:
     ea8:	e72d1004 	str	r1, [sp, -r4]!

00000eac <l813>:
     eac:	e3a03020 	mov	r3, #32

00000eb0 <l814>:
     eb0:	d70dc003 	strle	ip, [sp, -r3]

00000eb4 <l815>:
     eb4:	e48db004 	str	fp, [sp], #4

00000eb8 <l816>:
     eb8:	e48d9004 	str	r9, [sp], #4

00000ebc <l817>:
     ebc:	e5adc00c 	str	ip, [sp, #12]!

00000ec0 <l818>:
     ec0:	c50df018 	strgt	pc, [sp, #-24]

00000ec4 <l819>:
     ec4:	e3a0e018 	mov	lr, #24

00000ec8 <l820>:
     ec8:	e60dc00e 	str	ip, [sp], -lr

00000ecc <l821>:
     ecc:	e40d301c 	str	r3, [sp], #-28

00000ed0 <l822>:
     ed0:	e48d4024 	str	r4, [sp], #36	; 0x24

00000ed4 <l823>:
     ed4:	e40db010 	str	fp, [sp], #-16

00000ed8 <l824>:
     ed8:	e3a04028 	mov	r4, #40	; 0x28

00000edc <l825>:
     edc:	e68d7004 	str	r7, [sp], r4

00000ee0 <l826>:
     ee0:	e52d2034 	str	r2, [sp, #-52]!	; 0x34

00000ee4 <l827>:
     ee4:	e5ad0000 	str	r0, [sp, #0]!

00000ee8 <l828>:
     ee8:	e3a01024 	mov	r1, #36	; 0x24

00000eec <l829>:
     eec:	e7ada001 	str	sl, [sp, r1]!

00000ef0 <l830>:
     ef0:	e40de01c 	str	lr, [sp], #-28

00000ef4 <l831>:
     ef4:	e3a0c028 	mov	ip, #40	; 0x28

00000ef8 <l832>:
     ef8:	e7ad900c 	str	r9, [sp, ip]!

00000efc <l833>:
     efc:	e3a00040 	mov	r0, #64	; 0x40

00000f00 <l834>:
     f00:	e70d1000 	str	r1, [sp, -r0]

00000f04 <l835>:
     f04:	650d0010 	strvs	r0, [sp, #-16]

00000f08 <l836>:
     f08:	050d902c 	streq	r9, [sp, #-44]	; 0x2c

00000f0c <l837>:
     f0c:	e52da040 	str	sl, [sp, #-64]!	; 0x40

00000f10 <l838>:
     f10:	e3a08008 	mov	r8, #8

00000f14 <l839>:
     f14:	e78dc008 	str	ip, [sp, r8]

00000f18 <l840>:
     f18:	e3a0b024 	mov	fp, #36	; 0x24

00000f1c <l841>:
     f1c:	e7ad000b 	str	r0, [sp, fp]!

00000f20 <l842>:
     f20:	e40d3020 	str	r3, [sp], #-32

00000f24 <l843>:
     f24:	e3a0201c 	mov	r2, #28

00000f28 <l844>:
     f28:	e78d5002 	str	r5, [sp, r2]

00000f2c <l845>:
     f2c:	e58d5028 	str	r5, [sp, #40]	; 0x28

00000f30 <l846>:
     f30:	158d8028 	strne	r8, [sp, #40]	; 0x28

00000f34 <l847>:
     f34:	e3a09008 	mov	r9, #8

00000f38 <l848>:
     f38:	e7ad0009 	str	r0, [sp, r9]!

00000f3c <l849>:
     f3c:	e50dc00c 	str	ip, [sp, #-12]

00000f40 <l850>:
     f40:	e3a0800c 	mov	r8, #12

00000f44 <l851>:
     f44:	e68dc008 	str	ip, [sp], r8

00000f48 <l852>:
     f48:	e3a07018 	mov	r7, #24

00000f4c <l853>:
     f4c:	878d3007 	strhi	r3, [sp, r7]

00000f50 <l854>:
     f50:	e52d1018 	str	r1, [sp, #-24]!

00000f54 <l855>:
     f54:	e48d902c 	str	r9, [sp], #44	; 0x2c

00000f58 <l856>:
     f58:	e50d202c 	str	r2, [sp, #-44]	; 0x2c

00000f5c <l857>:
     f5c:	e48dc014 	str	ip, [sp], #20

00000f60 <l858>:
     f60:	550d301c 	strpl	r3, [sp, #-28]

00000f64 <l859>:
     f64:	e40d500c 	str	r5, [sp], #-12

00000f68 <l860>:
     f68:	e3a07038 	mov	r7, #56	; 0x38

00000f6c <l861>:
     f6c:	e60d6007 	str	r6, [sp], -r7

00000f70 <l862>:
     f70:	e3a00034 	mov	r0, #52	; 0x34

00000f74 <l863>:
     f74:	e7ad1000 	str	r1, [sp, r0]!

00000f78 <l864>:
     f78:	e3a04000 	mov	r4, #0

00000f7c <l865>:
     f7c:	e78d9004 	str	r9, [sp, r4]

00000f80 <l866>:
     f80:	e52d5034 	str	r5, [sp, #-52]!	; 0x34

00000f84 <l867>:
     f84:	e3a05018 	mov	r5, #24

00000f88 <l868>:
     f88:	e7ad9005 	str	r9, [sp, r5]!

00000f8c <l869>:
     f8c:	e3a02010 	mov	r2, #16

00000f90 <l870>:
     f90:	e72df002 	str	pc, [sp, -r2]!

00000f94 <l871>:
     f94:	e58d0030 	str	r0, [sp, #48]	; 0x30

00000f98 <l872>:
     f98:	e5ad8040 	str	r8, [sp, #64]!	; 0x40

00000f9c <l873>:
     f9c:	b50d3034 	strlt	r3, [sp, #-52]	; 0x34

00000fa0 <l874>:
     fa0:	850d6004 	strhi	r6, [sp, #-4]

00000fa4 <l875>:
     fa4:	e3a0a040 	mov	sl, #64	; 0x40

00000fa8 <l876>:
     fa8:	e72d400a 	str	r4, [sp, -sl]!

00000fac <l877>:
     fac:	e5ad101c 	str	r1, [sp, #28]!

00000fb0 <l878>:
     fb0:	e3a0301c 	mov	r3, #28

00000fb4 <l879>:
     fb4:	170db003 	strne	fp, [sp, -r3]

00000fb8 <l880>:
     fb8:	e3a01004 	mov	r1, #4

00000fbc <l881>:
     fbc:	e60d5001 	str	r5, [sp], -r1

00000fc0 <l882>:
     fc0:	e50d7004 	str	r7, [sp, #-4]

00000fc4 <l883>:
     fc4:	e52d0020 	str	r0, [sp, #-32]!

00000fc8 <l884>:
     fc8:	e5adc02c 	str	ip, [sp, #44]!	; 0x2c

00000fcc <l885>:
     fcc:	e50d9024 	str	r9, [sp, #-36]	; 0x24

00000fd0 <l886>:
     fd0:	e48da018 	str	sl, [sp], #24

00000fd4 <l887>:
     fd4:	e3a06028 	mov	r6, #40	; 0x28

00000fd8 <l888>:
     fd8:	e60d1006 	str	r1, [sp], -r6

00000fdc <l889>:
     fdc:	e3a06018 	mov	r6, #24

00000fe0 <l890>:
     fe0:	e60d5006 	str	r5, [sp], -r6

00000fe4 <l891>:
     fe4:	e3a05044 	mov	r5, #68	; 0x44

00000fe8 <l892>:
     fe8:	e68d2005 	str	r2, [sp], r5

00000fec <l893>:
     fec:	e40d8048 	str	r8, [sp], #-72	; 0x48

00000ff0 <l894>:
     ff0:	e48d9034 	str	r9, [sp], #52	; 0x34

00000ff4 <l895>:
     ff4:	e3a02014 	mov	r2, #20

00000ff8 <l896>:
     ff8:	e60d4002 	str	r4, [sp], -r2

00000ffc <l897>:
     ffc:	e3a08004 	mov	r8, #4

00001000 <l898>:
    1000:	770d0008 	strvc	r0, [sp, -r8]

00001004 <l899>:
    1004:	e52d301c 	str	r3, [sp, #-28]!

00001008 <l900>:
    1008:	e3a0e040 	mov	lr, #64	; 0x40

0000100c <l901>:
    100c:	c78d200e 	strgt	r2, [sp, lr]

00001010 <l902>:
    1010:	558da024 	strpl	sl, [sp, #36]	; 0x24

00001014 <l903>:
    1014:	e3a03030 	mov	r3, #48	; 0x30

00001018 <l904>:
    1018:	e78d5003 	str	r5, [sp, r3]

0000101c <l905>:
    101c:	e3a07028 	mov	r7, #40	; 0x28

00001020 <l906>:
    1020:	078d5007 	streq	r5, [sp, r7]

00001024 <l907>:
    1024:	e3a03004 	mov	r3, #4

00001028 <l908>:
    1028:	e60d8003 	str	r8, [sp], -r3

0000102c <l909>:
    102c:	e3a0e048 	mov	lr, #72	; 0x48

00001030 <l910>:
    1030:	e7ad500e 	str	r5, [sp, lr]!

00001034 <l911>:
    1034:	e3a07044 	mov	r7, #68	; 0x44

00001038 <l912>:
    1038:	e72da007 	str	sl, [sp, -r7]!

0000103c <l913>:
    103c:	e48d8004 	str	r8, [sp], #4

00001040 <l914>:
    1040:	e3a06024 	mov	r6, #36	; 0x24

00001044 <l915>:
    1044:	e68d4006 	str	r4, [sp], r6

00001048 <l916>:
    1048:	e40de028 	str	lr, [sp], #-40	; 0x28

0000104c <l917>:
    104c:	e3a02024 	mov	r2, #36	; 0x24

00001050 <l918>:
    1050:	e7ad5002 	str	r5, [sp, r2]!

00001054 <l919>:
    1054:	e3a07014 	mov	r7, #20

00001058 <l920>:
    1058:	e60d0007 	str	r0, [sp], -r7

0000105c <l921>:
    105c:	e5ad1004 	str	r1, [sp, #4]!

00001060 <l922>:
    1060:	e3a0b014 	mov	fp, #20

00001064 <l923>:
    1064:	e68d900b 	str	r9, [sp], fp

00001068 <l924>:
    1068:	e3a0b008 	mov	fp, #8

0000106c <l925>:
    106c:	c70d500b 	strgt	r5, [sp, -fp]

00001070 <l926>:
    1070:	e52d8018 	str	r8, [sp, #-24]!

00001074 <l927>:
    1074:	e3a03014 	mov	r3, #20

00001078 <l928>:
    1078:	e68d3003 	str	r3, [sp], r3

0000107c <l929>:
    107c:	850d1028 	strhi	r1, [sp, #-40]	; 0x28

00001080 <l930>:
    1080:	858d3008 	strhi	r3, [sp, #8]

00001084 <l931>:
    1084:	e50d9024 	str	r9, [sp, #-36]	; 0x24

00001088 <l932>:
    1088:	e3a02018 	mov	r2, #24

0000108c <l933>:
    108c:	e78df002 	str	pc, [sp, r2]

00001090 <l934>:
    1090:	e3a0b010 	mov	fp, #16

00001094 <l935>:
    1094:	e7adb00b 	str	fp, [sp, fp]!

00001098 <l936>:
    1098:	058de00c 	streq	lr, [sp, #12]

0000109c <l937>:
    109c:	e52db030 	str	fp, [sp, #-48]!	; 0x30

000010a0 <l938>:
    10a0:	e3a06008 	mov	r6, #8

000010a4 <l939>:
    10a4:	e72d2006 	str	r2, [sp, -r6]!

000010a8 <l940>:
    10a8:	e3a0a02c 	mov	sl, #44	; 0x2c

000010ac <l941>:
    10ac:	e7adf00a 	str	pc, [sp, sl]!

000010b0 <l942>:
    10b0:	e3a0b00c 	mov	fp, #12

000010b4 <l943>:
    10b4:	370d200b 	strcc	r2, [sp, -fp]

000010b8 <l944>:
    10b8:	e5ad101c 	str	r1, [sp, #28]!

000010bc <l945>:
    10bc:	e3a08040 	mov	r8, #64	; 0x40

000010c0 <l946>:
    10c0:	e72da008 	str	sl, [sp, -r8]!

000010c4 <l947>:
    10c4:	e58de03c 	str	lr, [sp, #60]	; 0x3c

000010c8 <l948>:
    10c8:	558d403c 	strpl	r4, [sp, #60]	; 0x3c

000010cc <l949>:
    10cc:	e3a03014 	mov	r3, #20

000010d0 <l950>:
    10d0:	e68df003 	str	pc, [sp], r3

000010d4 <l951>:
    10d4:	e3a08014 	mov	r8, #20

000010d8 <l952>:
    10d8:	e70de008 	str	lr, [sp, -r8]

000010dc <l953>:
    10dc:	e58d5008 	str	r5, [sp, #8]

000010e0 <l954>:
    10e0:	e48d6028 	str	r6, [sp], #40	; 0x28

000010e4 <l955>:
    10e4:	e40dc03c 	str	ip, [sp], #-60	; 0x3c

000010e8 <l956>:
    10e8:	e3a0e008 	mov	lr, #8

000010ec <l957>:
    10ec:	a70d900e 	strge	r9, [sp, -lr]

000010f0 <l958>:
    10f0:	e3a03018 	mov	r3, #24

000010f4 <l959>:
    10f4:	778d1003 	strvc	r1, [sp, r3]

000010f8 <l960>:
    10f8:	e3a0c010 	mov	ip, #16

000010fc <l961>:
    10fc:	e68d700c 	str	r7, [sp], ip

00001100 <l962>:
    1100:	258d6024 	strcs	r6, [sp, #36]	; 0x24

00001104 <l963>:
    1104:	e3a06004 	mov	r6, #4

00001108 <l964>:
    1108:	e68d1006 	str	r1, [sp], r6

0000110c <l965>:
    110c:	e3a0700c 	mov	r7, #12

00001110 <l966>:
    1110:	e72d2007 	str	r2, [sp, -r7]!

00001114 <l967>:
    1114:	e3a0c038 	mov	ip, #56	; 0x38

00001118 <l968>:
    1118:	e68d600c 	str	r6, [sp], ip

0000111c <l969>:
    111c:	e52d0028 	str	r0, [sp, #-40]!	; 0x28

00001120 <l970>:
    1120:	e3a07020 	mov	r7, #32

00001124 <l971>:
    1124:	e68d5007 	str	r5, [sp], r7

00001128 <l972>:
    1128:	e40dc028 	str	ip, [sp], #-40	; 0x28

0000112c <l973>:
    112c:	e3a05028 	mov	r5, #40	; 0x28

00001130 <l974>:
    1130:	e68d1005 	str	r1, [sp], r5

00001134 <l975>:
    1134:	e40dc020 	str	ip, [sp], #-32

00001138 <l976>:
    1138:	e3a00020 	mov	r0, #32

0000113c <l977>:
    113c:	e60df000 	str	pc, [sp], -r0

00001140 <l978>:
    1140:	e3a08008 	mov	r8, #8

00001144 <l979>:
    1144:	b78d6008 	strlt	r6, [sp, r8]

00001148 <l980>:
    1148:	e58d8034 	str	r8, [sp, #52]	; 0x34

0000114c <l981>:
    114c:	e3a0900c 	mov	r9, #12

00001150 <l982>:
    1150:	e7ad6009 	str	r6, [sp, r9]!

00001154 <l983>:
    1154:	e5ad701c 	str	r7, [sp, #28]!

00001158 <l984>:
    1158:	e48d201c 	str	r2, [sp], #28

0000115c <l985>:
    115c:	e3a04028 	mov	r4, #40	; 0x28

00001160 <l986>:
    1160:	270de004 	strcs	lr, [sp, -r4]

00001164 <l987>:
    1164:	e3a09028 	mov	r9, #40	; 0x28

00001168 <l988>:
    1168:	e72d0009 	str	r0, [sp, -r9]!

0000116c <l989>:
    116c:	e5ad9028 	str	r9, [sp, #40]!	; 0x28

00001170 <l990>:
    1170:	e50d201c 	str	r2, [sp, #-28]

00001174 <l991>:
    1174:	e52d4018 	str	r4, [sp, #-24]!

00001178 <l992>:
    1178:	e3a0601c 	mov	r6, #28

0000117c <l993>:
    117c:	b78d7006 	strlt	r7, [sp, r6]

00001180 <l994>:
    1180:	e3a0c02c 	mov	ip, #44	; 0x2c

00001184 <l995>:
    1184:	e72d800c 	str	r8, [sp, -ip]!

00001188 <l996>:
    1188:	e3a0e010 	mov	lr, #16

0000118c <l997>:
    118c:	e78d500e 	str	r5, [sp, lr]

00001190 <l998>:
    1190:	e48db004 	str	fp, [sp], #4

00001194 <l999>:
    1194:	e3a05030 	mov	r5, #48	; 0x30

00001198 <l1000>:
    1198:	e68dc005 	str	ip, [sp], r5

0000119c <end>:
    119c:	eafffffe 	b	119c <end>
