
sc/swpb_1000.o:     file format elf32-littlearm


Disassembly of section .text:

00000000 <main>:
       0:	e05f000f 	subs	r0, pc, pc
       4:	e59fd000 	ldr	sp, [pc]	; c <val>
       8:	ea000000 	b	10 <next>

0000000c <val>:
       c:	000ffff0 	.word	0x000ffff0

00000010 <next>:
      10:	e59f1000 	ldr	r1, [pc]	; 18 <val1>
      14:	ea000000 	b	1c <next1>

00000018 <val1>:
      18:	4c5dfa00 	.word	0x4c5dfa00

0000001c <next1>:
      1c:	e59f2000 	ldr	r2, [pc]	; 24 <val2>
      20:	ea000000 	b	28 <next2>

00000024 <val2>:
      24:	8b319ff6 	.word	0x8b319ff6

00000028 <next2>:
      28:	e59f3000 	ldr	r3, [pc]	; 30 <val3>
      2c:	ea000000 	b	34 <next3>

00000030 <val3>:
      30:	abcc2dd5 	.word	0xabcc2dd5

00000034 <next3>:
      34:	e59f4000 	ldr	r4, [pc]	; 3c <val4>
      38:	ea000000 	b	40 <next4>

0000003c <val4>:
      3c:	6ce7e5f2 	.word	0x6ce7e5f2

00000040 <next4>:
      40:	e59f5000 	ldr	r5, [pc]	; 48 <val5>
      44:	ea000000 	b	4c <next5>

00000048 <val5>:
      48:	97eb8f34 	.word	0x97eb8f34

0000004c <next5>:
      4c:	e59f6000 	ldr	r6, [pc]	; 54 <val6>
      50:	ea000000 	b	58 <next6>

00000054 <val6>:
      54:	8b35e132 	.word	0x8b35e132

00000058 <next6>:
      58:	e59f7000 	ldr	r7, [pc]	; 60 <val7>
      5c:	ea000000 	b	64 <next7>

00000060 <val7>:
      60:	e71d2332 	.word	0xe71d2332

00000064 <next7>:
      64:	e59f8000 	ldr	r8, [pc]	; 6c <val8>
      68:	ea000000 	b	70 <next8>

0000006c <val8>:
      6c:	687a7668 	.word	0x687a7668

00000070 <next8>:
      70:	e59f9000 	ldr	r9, [pc]	; 78 <val9>
      74:	ea000000 	b	7c <next9>

00000078 <val9>:
      78:	25255ba5 	.word	0x25255ba5

0000007c <next9>:
      7c:	e59fa000 	ldr	sl, [pc]	; 84 <val10>
      80:	ea000000 	b	88 <next10>

00000084 <val10>:
      84:	ab4772d4 	.word	0xab4772d4

00000088 <next10>:
      88:	e59fb000 	ldr	fp, [pc]	; 90 <val11>
      8c:	ea000000 	b	94 <next11>

00000090 <val11>:
      90:	8ed4b65a 	.word	0x8ed4b65a

00000094 <next11>:
      94:	e59fc000 	ldr	ip, [pc]	; 9c <val12>
      98:	ea000000 	b	a0 <next12>

0000009c <val12>:
      9c:	c3e6318e 	.word	0xc3e6318e

000000a0 <next12>:
      a0:	e59fe000 	ldr	lr, [pc]	; a8 <val14>
      a4:	ea000000 	b	ac <next14>

000000a8 <val14>:
      a8:	e80d02fa 	.word	0xe80d02fa

000000ac <next14>:
      ac:	e59f1000 	ldr	r1, [pc]	; b4 <val15>
      b0:	ea000000 	b	b8 <next15>

000000b4 <val15>:
      b4:	a4619193 	.word	0xa4619193

000000b8 <next15>:
      b8:	e58d1000 	str	r1, [sp]
      bc:	e59f1000 	ldr	r1, [pc]	; c4 <val16>
      c0:	ea000000 	b	c8 <next16>

000000c4 <val16>:
      c4:	51b10aa9 	.word	0x51b10aa9

000000c8 <next16>:
      c8:	e50d1004 	str	r1, [sp, #-4]
      cc:	e59f1000 	ldr	r1, [pc]	; d4 <val17>
      d0:	ea000000 	b	d8 <next17>

000000d4 <val17>:
      d4:	e8a54f2f 	.word	0xe8a54f2f

000000d8 <next17>:
      d8:	e50d1008 	str	r1, [sp, #-8]
      dc:	e59f1000 	ldr	r1, [pc]	; e4 <val18>
      e0:	ea000000 	b	e8 <next18>

000000e4 <val18>:
      e4:	65378779 	.word	0x65378779

000000e8 <next18>:
      e8:	e50d100c 	str	r1, [sp, #-12]
      ec:	e59f1000 	ldr	r1, [pc]	; f4 <val19>
      f0:	ea000000 	b	f8 <next19>

000000f4 <val19>:
      f4:	a17dfa79 	.word	0xa17dfa79

000000f8 <next19>:
      f8:	e50d1010 	str	r1, [sp, #-16]
      fc:	e59f1000 	ldr	r1, [pc]	; 104 <val20>
     100:	ea000000 	b	108 <next20>

00000104 <val20>:
     104:	cb2f54cf 	.word	0xcb2f54cf

00000108 <next20>:
     108:	e50d1014 	str	r1, [sp, #-20]
     10c:	e59f1000 	ldr	r1, [pc]	; 114 <val21>
     110:	ea000000 	b	118 <next21>

00000114 <val21>:
     114:	17c013e9 	.word	0x17c013e9

00000118 <next21>:
     118:	e50d1018 	str	r1, [sp, #-24]
     11c:	e59f1000 	ldr	r1, [pc]	; 124 <val22>
     120:	ea000000 	b	128 <next22>

00000124 <val22>:
     124:	11ad55fd 	.word	0x11ad55fd

00000128 <next22>:
     128:	e50d101c 	str	r1, [sp, #-28]
     12c:	e59f1000 	ldr	r1, [pc]	; 134 <val23>
     130:	ea000000 	b	138 <next23>

00000134 <val23>:
     134:	1c3c0490 	.word	0x1c3c0490

00000138 <next23>:
     138:	e50d1020 	str	r1, [sp, #-32]
     13c:	e59f1000 	ldr	r1, [pc]	; 144 <val24>
     140:	ea000000 	b	148 <next24>

00000144 <val24>:
     144:	25bfb89f 	.word	0x25bfb89f

00000148 <next24>:
     148:	e50d1024 	str	r1, [sp, #-36]	; 0x24
     14c:	e59f1000 	ldr	r1, [pc]	; 154 <val25>
     150:	ea000000 	b	158 <next25>

00000154 <val25>:
     154:	9b205495 	.word	0x9b205495

00000158 <next25>:
     158:	e50d1028 	str	r1, [sp, #-40]	; 0x28
     15c:	e59f1000 	ldr	r1, [pc]	; 164 <val26>
     160:	ea000000 	b	168 <next26>

00000164 <val26>:
     164:	1e5001a2 	.word	0x1e5001a2

00000168 <next26>:
     168:	e50d102c 	str	r1, [sp, #-44]	; 0x2c
     16c:	e59f1000 	ldr	r1, [pc]	; 174 <val27>
     170:	ea000000 	b	178 <next27>

00000174 <val27>:
     174:	68c83260 	.word	0x68c83260

00000178 <next27>:
     178:	e50d1030 	str	r1, [sp, #-48]	; 0x30
     17c:	e59f1000 	ldr	r1, [pc]	; 184 <val28>
     180:	ea000000 	b	188 <next28>

00000184 <val28>:
     184:	1e664e2b 	.word	0x1e664e2b

00000188 <next28>:
     188:	e50d1034 	str	r1, [sp, #-52]	; 0x34
     18c:	e59f1000 	ldr	r1, [pc]	; 194 <val29>
     190:	ea000000 	b	198 <next29>

00000194 <val29>:
     194:	efb69f26 	.word	0xefb69f26

00000198 <next29>:
     198:	e50d1038 	str	r1, [sp, #-56]	; 0x38
     19c:	e59f1000 	ldr	r1, [pc]	; 1a4 <val30>
     1a0:	ea000000 	b	1a8 <next30>

000001a4 <val30>:
     1a4:	b29e2478 	.word	0xb29e2478

000001a8 <next30>:
     1a8:	e50d103c 	str	r1, [sp, #-60]	; 0x3c
     1ac:	e59f1000 	ldr	r1, [pc]	; 1b4 <val31>
     1b0:	ea000000 	b	1b8 <next31>

000001b4 <val31>:
     1b4:	7e514244 	.word	0x7e514244

000001b8 <next31>:
     1b8:	e50d1040 	str	r1, [sp, #-64]	; 0x40
     1bc:	e59f1000 	ldr	r1, [pc]	; 1c4 <val32>
     1c0:	ea000000 	b	1c8 <next32>

000001c4 <val32>:
     1c4:	4456d563 	.word	0x4456d563

000001c8 <next32>:
     1c8:	e50d1044 	str	r1, [sp, #-68]	; 0x44
     1cc:	e59f1000 	ldr	r1, [pc]	; 1d4 <val33>
     1d0:	ea000000 	b	1d8 <next33>

000001d4 <val33>:
     1d4:	413bc419 	.word	0x413bc419

000001d8 <next33>:
     1d8:	e50d1048 	str	r1, [sp, #-72]	; 0x48
     1dc:	e59f1000 	ldr	r1, [pc]	; 1e4 <val34>
     1e0:	ea000000 	b	1e8 <next34>

000001e4 <val34>:
     1e4:	8b268434 	.word	0x8b268434

000001e8 <next34>:
     1e8:	e50d104c 	str	r1, [sp, #-76]	; 0x4c
     1ec:	e59f1000 	ldr	r1, [pc]	; 1f4 <val35>
     1f0:	ea000000 	b	1f8 <next35>

000001f4 <val35>:
     1f4:	92e0ba59 	.word	0x92e0ba59

000001f8 <next35>:
     1f8:	e50d1050 	str	r1, [sp, #-80]	; 0x50

000001fc <l1>:
     1fc:	b089806b 	addlt	r8, r9, fp, rrx

00000200 <l2>:
     200:	e29c8e8d 	adds	r8, ip, #2256	; 0x8d0

00000204 <l3>:
     204:	e08c300e 	add	r3, ip, lr

00000208 <l4>:
     208:	e09a443a 	adds	r4, sl, sl, lsr r4

0000020c <l5>:
     20c:	e084e951 	add	lr, r4, r1, asr r9

00000210 <l6>:
     210:	e59f2000 	ldr	r2, [pc]	; 218 <l8>

00000214 <l7>:
     214:	ea000000 	b	21c <l9>

00000218 <l8>:
     218:	000fffe8 	.word	0x000fffe8

0000021c <l9>:
     21c:	c142309a 	swpbgt	r3, sl, [r2]

00000220 <l10>:
     220:	e59fe000 	ldr	lr, [pc]	; 228 <l12>

00000224 <l11>:
     224:	ea000000 	b	22c <l13>

00000228 <l12>:
     228:	000fffb4 	.word	0x000fffb4

0000022c <l13>:
     22c:	e14e6092 	swpb	r6, r2, [lr]

00000230 <l14>:
     230:	e0802757 	add	r2, r0, r7, asr r7

00000234 <l15>:
     234:	e59f9000 	ldr	r9, [pc]	; 23c <l17>

00000238 <l16>:
     238:	ea000000 	b	240 <l18>

0000023c <l17>:
     23c:	000fffc0 	.word	0x000fffc0

00000240 <l18>:
     240:	b1494093 	swpblt	r4, r3, [r9]

00000244 <l19>:
     244:	e59fb000 	ldr	fp, [pc]	; 24c <l21>

00000248 <l20>:
     248:	ea000000 	b	250 <l22>

0000024c <l21>:
     24c:	000fffa4 	.word	0x000fffa4

00000250 <l22>:
     250:	e14b809a 	swpb	r8, sl, [fp]

00000254 <l23>:
     254:	e091006e 	adds	r0, r1, lr, rrx

00000258 <l24>:
     258:	52844511 	addpl	r4, r4, #71303168	; 0x4400000

0000025c <l25>:
     25c:	e0929005 	adds	r9, r2, r5

00000260 <l26>:
     260:	709c4c72 	addsvc	r4, ip, r2, ror ip

00000264 <l27>:
     264:	e083e06a 	add	lr, r3, sl, rrx

00000268 <l28>:
     268:	e59fe000 	ldr	lr, [pc]	; 270 <l30>

0000026c <l29>:
     26c:	ea000000 	b	274 <l31>

00000270 <l30>:
     270:	000fffd0 	.word	0x000fffd0

00000274 <l31>:
     274:	c14e8096 	swpbgt	r8, r6, [lr]

00000278 <l32>:
     278:	e086a000 	add	sl, r6, r0

0000027c <l33>:
     27c:	e59fe000 	ldr	lr, [pc]	; 284 <l35>

00000280 <l34>:
     280:	ea000000 	b	288 <l36>

00000284 <l35>:
     284:	000fffa0 	.word	0x000fffa0

00000288 <l36>:
     288:	b14e1091 	swpblt	r1, r1, [lr]

0000028c <l37>:
     28c:	80802008 	addhi	r2, r0, r8

00000290 <l38>:
     290:	e0861003 	add	r1, r6, r3

00000294 <l39>:
     294:	e59f6000 	ldr	r6, [pc]	; 29c <l41>

00000298 <l40>:
     298:	ea000000 	b	2a0 <l42>

0000029c <l41>:
     29c:	000fffc0 	.word	0x000fffc0

000002a0 <l42>:
     2a0:	e146b09b 	swpb	fp, fp, [r6]

000002a4 <l43>:
     2a4:	a0891632 	addge	r1, r9, r2, lsr r6

000002a8 <l44>:
     2a8:	0093a00c 	addseq	sl, r3, ip

000002ac <l45>:
     2ac:	9291cb02 	addsls	ip, r1, #2048	; 0x800

000002b0 <l46>:
     2b0:	e09ea007 	adds	sl, lr, r7

000002b4 <l47>:
     2b4:	e08c706e 	add	r7, ip, lr, rrx

000002b8 <l48>:
     2b8:	2087a225 	addcs	sl, r7, r5, lsr #4

000002bc <l49>:
     2bc:	e09e2a43 	adds	r2, lr, r3, asr #20

000002c0 <l50>:
     2c0:	e59f0000 	ldr	r0, [pc]	; 2c8 <l52>

000002c4 <l51>:
     2c4:	ea000000 	b	2cc <l53>

000002c8 <l52>:
     2c8:	000fffb8 	.word	0x000fffb8

000002cc <l53>:
     2cc:	b1401098 	swpblt	r1, r8, [r0]

000002d0 <l54>:
     2d0:	e59f5000 	ldr	r5, [pc]	; 2d8 <l56>

000002d4 <l55>:
     2d4:	ea000000 	b	2dc <l57>

000002d8 <l56>:
     2d8:	000fffb0 	.word	0x000fffb0

000002dc <l57>:
     2dc:	51452094 	swpbpl	r2, r4, [r5]

000002e0 <l58>:
     2e0:	e59fe000 	ldr	lr, [pc]	; 2e8 <l60>

000002e4 <l59>:
     2e4:	ea000000 	b	2ec <l61>

000002e8 <l60>:
     2e8:	000fffe4 	.word	0x000fffe4

000002ec <l61>:
     2ec:	914e4097 	swpbls	r4, r7, [lr]

000002f0 <l62>:
     2f0:	e0998dc1 	adds	r8, r9, r1, asr #27

000002f4 <l63>:
     2f4:	008e6002 	addeq	r6, lr, r2

000002f8 <l64>:
     2f8:	e59f3000 	ldr	r3, [pc]	; 300 <l66>

000002fc <l65>:
     2fc:	ea000000 	b	304 <l67>

00000300 <l66>:
     300:	000fffc8 	.word	0x000fffc8

00000304 <l67>:
     304:	b1431099 	swpblt	r1, r9, [r3]

00000308 <l68>:
     308:	e59fc000 	ldr	ip, [pc]	; 310 <l70>

0000030c <l69>:
     30c:	ea000000 	b	314 <l71>

00000310 <l70>:
     310:	000fffb0 	.word	0x000fffb0

00000314 <l71>:
     314:	214c509b 	swpbcs	r5, fp, [ip]

00000318 <l72>:
     318:	e59f2000 	ldr	r2, [pc]	; 320 <l74>

0000031c <l73>:
     31c:	ea000000 	b	324 <l75>

00000320 <l74>:
     320:	000fffa0 	.word	0x000fffa0

00000324 <l75>:
     324:	31421093 	swpbcc	r1, r3, [r2]

00000328 <l76>:
     328:	e59f3000 	ldr	r3, [pc]	; 330 <l78>

0000032c <l77>:
     32c:	ea000000 	b	334 <l79>

00000330 <l78>:
     330:	000fffd8 	.word	0x000fffd8

00000334 <l79>:
     334:	b1434096 	swpblt	r4, r6, [r3]

00000338 <l80>:
     338:	50890009 	addpl	r0, r9, r9

0000033c <l81>:
     33c:	9296293d 	addsls	r2, r6, #999424	; 0xf4000

00000340 <l82>:
     340:	90879008 	addls	r9, r7, r8

00000344 <l83>:
     344:	e59f8000 	ldr	r8, [pc]	; 34c <l85>

00000348 <l84>:
     348:	ea000000 	b	350 <l86>

0000034c <l85>:
     34c:	000fffc4 	.word	0x000fffc4

00000350 <l86>:
     350:	41484097 	swpbmi	r4, r7, [r8]

00000354 <l87>:
     354:	00957008 	addseq	r7, r5, r8

00000358 <l88>:
     358:	e0829a48 	add	r9, r2, r8, asr #20

0000035c <l89>:
     35c:	c0836ca7 	addgt	r6, r3, r7, lsr #25

00000360 <l90>:
     360:	e59f0000 	ldr	r0, [pc]	; 368 <l92>

00000364 <l91>:
     364:	ea000000 	b	36c <l93>

00000368 <l92>:
     368:	000fffa0 	.word	0x000fffa0

0000036c <l93>:
     36c:	e140909b 	swpb	r9, fp, [r0]

00000370 <l94>:
     370:	e59fe000 	ldr	lr, [pc]	; 378 <l96>

00000374 <l95>:
     374:	ea000000 	b	37c <l97>

00000378 <l96>:
     378:	000fffc0 	.word	0x000fffc0

0000037c <l97>:
     37c:	e14ec09b 	swpb	ip, fp, [lr]

00000380 <l98>:
     380:	008a1c45 	addeq	r1, sl, r5, asr #24

00000384 <l99>:
     384:	e59f1000 	ldr	r1, [pc]	; 38c <l101>

00000388 <l100>:
     388:	ea000000 	b	390 <l102>

0000038c <l101>:
     38c:	000fffb0 	.word	0x000fffb0

00000390 <l102>:
     390:	8141509c 	swpbhi	r5, ip, [r1]

00000394 <l103>:
     394:	e59f8000 	ldr	r8, [pc]	; 39c <l105>

00000398 <l104>:
     398:	ea000000 	b	3a0 <l106>

0000039c <l105>:
     39c:	000fffa8 	.word	0x000fffa8

000003a0 <l106>:
     3a0:	e148709b 	swpb	r7, fp, [r8]

000003a4 <l107>:
     3a4:	e59f5000 	ldr	r5, [pc]	; 3ac <l109>

000003a8 <l108>:
     3a8:	ea000000 	b	3b0 <l110>

000003ac <l109>:
     3ac:	000fffbc 	.word	0x000fffbc

000003b0 <l110>:
     3b0:	d145b096 	swpble	fp, r6, [r5]

000003b4 <l111>:
     3b4:	e0890064 	add	r0, r9, r4, rrx

000003b8 <l112>:
     3b8:	00995003 	addseq	r5, r9, r3

000003bc <l113>:
     3bc:	e59f0000 	ldr	r0, [pc]	; 3c4 <l115>

000003c0 <l114>:
     3c0:	ea000000 	b	3c8 <l116>

000003c4 <l115>:
     3c4:	000fffb8 	.word	0x000fffb8

000003c8 <l116>:
     3c8:	e1407096 	swpb	r7, r6, [r0]

000003cc <l117>:
     3cc:	e095ab72 	adds	sl, r5, r2, ror fp

000003d0 <l118>:
     3d0:	e59f1000 	ldr	r1, [pc]	; 3d8 <l120>

000003d4 <l119>:
     3d4:	ea000000 	b	3dc <l121>

000003d8 <l120>:
     3d8:	000fffd0 	.word	0x000fffd0

000003dc <l121>:
     3dc:	5141a090 	swpbpl	sl, r0, [r1]

000003e0 <l122>:
     3e0:	e59f4000 	ldr	r4, [pc]	; 3e8 <l124>

000003e4 <l123>:
     3e4:	ea000000 	b	3ec <l125>

000003e8 <l124>:
     3e8:	000fffb4 	.word	0x000fffb4

000003ec <l125>:
     3ec:	e1448097 	swpb	r8, r7, [r4]

000003f0 <l126>:
     3f0:	e59f6000 	ldr	r6, [pc]	; 3f8 <l128>

000003f4 <l127>:
     3f4:	ea000000 	b	3fc <l129>

000003f8 <l128>:
     3f8:	000fffac 	.word	0x000fffac

000003fc <l129>:
     3fc:	e146209a 	swpb	r2, sl, [r6]

00000400 <l130>:
     400:	20885b70 	addcs	r5, r8, r0, ror fp

00000404 <l131>:
     404:	70949426 	addsvc	r9, r4, r6, lsr #8

00000408 <l132>:
     408:	e59f7000 	ldr	r7, [pc]	; 410 <l134>

0000040c <l133>:
     40c:	ea000000 	b	414 <l135>

00000410 <l134>:
     410:	000fffd0 	.word	0x000fffd0

00000414 <l135>:
     414:	41476095 	swpbmi	r6, r5, [r7]

00000418 <l136>:
     418:	e59fb000 	ldr	fp, [pc]	; 420 <l138>

0000041c <l137>:
     41c:	ea000000 	b	424 <l139>

00000420 <l138>:
     420:	000fffd4 	.word	0x000fffd4

00000424 <l139>:
     424:	514b3091 	swpbpl	r3, r1, [fp]

00000428 <l140>:
     428:	e59f2000 	ldr	r2, [pc]	; 430 <l142>

0000042c <l141>:
     42c:	ea000000 	b	434 <l143>

00000430 <l142>:
     430:	000fffd8 	.word	0x000fffd8

00000434 <l143>:
     434:	e1429090 	swpb	r9, r0, [r2]

00000438 <l144>:
     438:	c0925835 	addsgt	r5, r2, r5, lsr r8

0000043c <l145>:
     43c:	e28c8b3f 	add	r8, ip, #64512	; 0xfc00

00000440 <l146>:
     440:	c088ee56 	addgt	lr, r8, r6, asr lr

00000444 <l147>:
     444:	508a600e 	addpl	r6, sl, lr

00000448 <l148>:
     448:	d0832006 	addle	r2, r3, r6

0000044c <l149>:
     44c:	e59fe000 	ldr	lr, [pc]	; 454 <l151>

00000450 <l150>:
     450:	ea000000 	b	458 <l152>

00000454 <l151>:
     454:	000fffcc 	.word	0x000fffcc

00000458 <l152>:
     458:	e14e3095 	swpb	r3, r5, [lr]

0000045c <l153>:
     45c:	e59fe000 	ldr	lr, [pc]	; 464 <l155>

00000460 <l154>:
     460:	ea000000 	b	468 <l156>

00000464 <l155>:
     464:	000fffe4 	.word	0x000fffe4

00000468 <l156>:
     468:	e14ea093 	swpb	sl, r3, [lr]

0000046c <l157>:
     46c:	e094700b 	adds	r7, r4, fp

00000470 <l158>:
     470:	30954058 	addscc	r4, r5, r8, asr r0

00000474 <l159>:
     474:	228c5339 	addcs	r5, ip, #-469762048	; 0xe4000000

00000478 <l160>:
     478:	e099a351 	adds	sl, r9, r1, asr r3

0000047c <l161>:
     47c:	00871805 	addeq	r1, r7, r5, lsl #16

00000480 <l162>:
     480:	e095698f 	adds	r6, r5, pc, lsl #19

00000484 <l163>:
     484:	e59fa000 	ldr	sl, [pc]	; 48c <l165>

00000488 <l164>:
     488:	ea000000 	b	490 <l166>

0000048c <l165>:
     48c:	000fffc4 	.word	0x000fffc4

00000490 <l166>:
     490:	c14a409c 	swpbgt	r4, ip, [sl]

00000494 <l167>:
     494:	e59f2000 	ldr	r2, [pc]	; 49c <l169>

00000498 <l168>:
     498:	ea000000 	b	4a0 <l170>

0000049c <l169>:
     49c:	000fffa0 	.word	0x000fffa0

000004a0 <l170>:
     4a0:	e1423090 	swpb	r3, r0, [r2]

000004a4 <l171>:
     4a4:	92999035 	addsls	r9, r9, #53	; 0x35

000004a8 <l172>:
     4a8:	e59f8000 	ldr	r8, [pc]	; 4b0 <l174>

000004ac <l173>:
     4ac:	ea000000 	b	4b4 <l175>

000004b0 <l174>:
     4b0:	000fffe0 	.word	0x000fffe0

000004b4 <l175>:
     4b4:	c148909e 	swpbgt	r9, lr, [r8]

000004b8 <l176>:
     4b8:	e0990068 	adds	r0, r9, r8, rrx

000004bc <l177>:
     4bc:	b0830350 	addlt	r0, r3, r0, asr r3

000004c0 <l178>:
     4c0:	e59f4000 	ldr	r4, [pc]	; 4c8 <l180>

000004c4 <l179>:
     4c4:	ea000000 	b	4cc <l181>

000004c8 <l180>:
     4c8:	000fffe8 	.word	0x000fffe8

000004cc <l181>:
     4cc:	e144b097 	swpb	fp, r7, [r4]

000004d0 <l182>:
     4d0:	e59f3000 	ldr	r3, [pc]	; 4d8 <l184>

000004d4 <l183>:
     4d4:	ea000000 	b	4dc <l185>

000004d8 <l184>:
     4d8:	000fffb0 	.word	0x000fffb0

000004dc <l185>:
     4dc:	e143e09a 	swpb	lr, sl, [r3]

000004e0 <l186>:
     4e0:	e59f2000 	ldr	r2, [pc]	; 4e8 <l188>

000004e4 <l187>:
     4e4:	ea000000 	b	4ec <l189>

000004e8 <l188>:
     4e8:	000fffe4 	.word	0x000fffe4

000004ec <l189>:
     4ec:	7142a097 	swpbvc	sl, r7, [r2]

000004f0 <l190>:
     4f0:	e59fb000 	ldr	fp, [pc]	; 4f8 <l192>

000004f4 <l191>:
     4f4:	ea000000 	b	4fc <l193>

000004f8 <l192>:
     4f8:	000fffb8 	.word	0x000fffb8

000004fc <l193>:
     4fc:	e14b8097 	swpb	r8, r7, [fp]

00000500 <l194>:
     500:	e59f6000 	ldr	r6, [pc]	; 508 <l196>

00000504 <l195>:
     504:	ea000000 	b	50c <l197>

00000508 <l196>:
     508:	000fffc8 	.word	0x000fffc8

0000050c <l197>:
     50c:	e146409a 	swpb	r4, sl, [r6]

00000510 <l198>:
     510:	e59f8000 	ldr	r8, [pc]	; 518 <l200>

00000514 <l199>:
     514:	ea000000 	b	51c <l201>

00000518 <l200>:
     518:	000fffc0 	.word	0x000fffc0

0000051c <l201>:
     51c:	0148c09b 	swpbeq	ip, fp, [r8]

00000520 <l202>:
     520:	308ce005 	addcc	lr, ip, r5

00000524 <l203>:
     524:	e59f4000 	ldr	r4, [pc]	; 52c <l205>

00000528 <l204>:
     528:	ea000000 	b	530 <l206>

0000052c <l205>:
     52c:	000fffb4 	.word	0x000fffb4

00000530 <l206>:
     530:	8144109c 	swpbhi	r1, ip, [r4]

00000534 <l207>:
     534:	70883689 	addvc	r3, r8, r9, lsl #13

00000538 <l208>:
     538:	e59f5000 	ldr	r5, [pc]	; 540 <l210>

0000053c <l209>:
     53c:	ea000000 	b	544 <l211>

00000540 <l210>:
     540:	000fffbc 	.word	0x000fffbc

00000544 <l211>:
     544:	e145b093 	swpb	fp, r3, [r5]

00000548 <l212>:
     548:	e59fa000 	ldr	sl, [pc]	; 550 <l214>

0000054c <l213>:
     54c:	ea000000 	b	554 <l215>

00000550 <l214>:
     550:	000fffe8 	.word	0x000fffe8

00000554 <l215>:
     554:	e14ac099 	swpb	ip, r9, [sl]

00000558 <l216>:
     558:	d085e815 	addle	lr, r5, r5, lsl r8

0000055c <l217>:
     55c:	e289eb02 	add	lr, r9, #2048	; 0x800

00000560 <l218>:
     560:	e59f5000 	ldr	r5, [pc]	; 568 <l220>

00000564 <l219>:
     564:	ea000000 	b	56c <l221>

00000568 <l220>:
     568:	000fffe0 	.word	0x000fffe0

0000056c <l221>:
     56c:	11450091 	swpbne	r0, r1, [r5]

00000570 <l222>:
     570:	3096800a 	addscc	r8, r6, sl

00000574 <l223>:
     574:	e0916658 	adds	r6, r1, r8, asr r6

00000578 <l224>:
     578:	e59f0000 	ldr	r0, [pc]	; 580 <l226>

0000057c <l225>:
     57c:	ea000000 	b	584 <l227>

00000580 <l226>:
     580:	000fffa0 	.word	0x000fffa0

00000584 <l227>:
     584:	e140209a 	swpb	r2, sl, [r0]

00000588 <l228>:
     588:	e59f1000 	ldr	r1, [pc]	; 590 <l230>

0000058c <l229>:
     58c:	ea000000 	b	594 <l231>

00000590 <l230>:
     590:	000fffc0 	.word	0x000fffc0

00000594 <l231>:
     594:	11410098 	swpbne	r0, r8, [r1]

00000598 <l232>:
     598:	e0977004 	adds	r7, r7, r4

0000059c <l233>:
     59c:	8282e405 	addhi	lr, r2, #83886080	; 0x5000000

000005a0 <l234>:
     5a0:	0098a06b 	addseq	sl, r8, fp, rrx

000005a4 <l235>:
     5a4:	c080200b 	addgt	r2, r0, fp

000005a8 <l236>:
     5a8:	e092300f 	adds	r3, r2, pc

000005ac <l237>:
     5ac:	e59f5000 	ldr	r5, [pc]	; 5b4 <l239>

000005b0 <l238>:
     5b0:	ea000000 	b	5b8 <l240>

000005b4 <l239>:
     5b4:	000fffc0 	.word	0x000fffc0

000005b8 <l240>:
     5b8:	e1450096 	swpb	r0, r6, [r5]

000005bc <l241>:
     5bc:	e59fc000 	ldr	ip, [pc]	; 5c4 <l243>

000005c0 <l242>:
     5c0:	ea000000 	b	5c8 <l244>

000005c4 <l243>:
     5c4:	000fffdc 	.word	0x000fffdc

000005c8 <l244>:
     5c8:	e14c9090 	swpb	r9, r0, [ip]

000005cc <l245>:
     5cc:	e59f1000 	ldr	r1, [pc]	; 5d4 <l247>

000005d0 <l246>:
     5d0:	ea000000 	b	5d8 <l248>

000005d4 <l247>:
     5d4:	000fffa8 	.word	0x000fffa8

000005d8 <l248>:
     5d8:	c141809c 	swpbgt	r8, ip, [r1]

000005dc <l249>:
     5dc:	e09b4000 	adds	r4, fp, r0

000005e0 <l250>:
     5e0:	e59f9000 	ldr	r9, [pc]	; 5e8 <l252>

000005e4 <l251>:
     5e4:	ea000000 	b	5ec <l253>

000005e8 <l252>:
     5e8:	000fffd8 	.word	0x000fffd8

000005ec <l253>:
     5ec:	e1492095 	swpb	r2, r5, [r9]

000005f0 <l254>:
     5f0:	e59f4000 	ldr	r4, [pc]	; 5f8 <l256>

000005f4 <l255>:
     5f4:	ea000000 	b	5fc <l257>

000005f8 <l256>:
     5f8:	000fffb4 	.word	0x000fffb4

000005fc <l257>:
     5fc:	0144509b 	swpbeq	r5, fp, [r4]

00000600 <l258>:
     600:	7093b359 	addsvc	fp, r3, r9, asr r3

00000604 <l259>:
     604:	5088c002 	addpl	ip, r8, r2

00000608 <l260>:
     608:	128b2a09 	addne	r2, fp, #36864	; 0x9000

0000060c <l261>:
     60c:	e59f1000 	ldr	r1, [pc]	; 614 <l263>

00000610 <l262>:
     610:	ea000000 	b	618 <l264>

00000614 <l263>:
     614:	000fffd4 	.word	0x000fffd4

00000618 <l264>:
     618:	e141c096 	swpb	ip, r6, [r1]

0000061c <l265>:
     61c:	e59f7000 	ldr	r7, [pc]	; 624 <l267>

00000620 <l266>:
     620:	ea000000 	b	628 <l268>

00000624 <l267>:
     624:	000fffe0 	.word	0x000fffe0

00000628 <l268>:
     628:	8147a099 	swpbhi	sl, r9, [r7]

0000062c <l269>:
     62c:	a094c082 	addsge	ip, r4, r2, lsl #1

00000630 <l270>:
     630:	e59fb000 	ldr	fp, [pc]	; 638 <l272>

00000634 <l271>:
     634:	ea000000 	b	63c <l273>

00000638 <l272>:
     638:	000fffa0 	.word	0x000fffa0

0000063c <l273>:
     63c:	014b9094 	swpbeq	r9, r4, [fp]

00000640 <l274>:
     640:	e59f8000 	ldr	r8, [pc]	; 648 <l276>

00000644 <l275>:
     644:	ea000000 	b	64c <l277>

00000648 <l276>:
     648:	000fffd4 	.word	0x000fffd4

0000064c <l277>:
     64c:	91481091 	swpbls	r1, r1, [r8]

00000650 <l278>:
     650:	e59fe000 	ldr	lr, [pc]	; 658 <l280>

00000654 <l279>:
     654:	ea000000 	b	65c <l281>

00000658 <l280>:
     658:	000fffb0 	.word	0x000fffb0

0000065c <l281>:
     65c:	e14e5093 	swpb	r5, r3, [lr]

00000660 <l282>:
     660:	608b0003 	addvs	r0, fp, r3

00000664 <l283>:
     664:	308e5066 	addcc	r5, lr, r6, rrx

00000668 <l284>:
     668:	e098e05c 	adds	lr, r8, ip, asr r0

0000066c <l285>:
     66c:	b2910a12 	addslt	r0, r1, #73728	; 0x12000

00000670 <l286>:
     670:	e08e2009 	add	r2, lr, r9

00000674 <l287>:
     674:	e59f4000 	ldr	r4, [pc]	; 67c <l289>

00000678 <l288>:
     678:	ea000000 	b	680 <l290>

0000067c <l289>:
     67c:	000fffd0 	.word	0x000fffd0

00000680 <l290>:
     680:	e144609e 	swpb	r6, lr, [r4]

00000684 <l291>:
     684:	e59fa000 	ldr	sl, [pc]	; 68c <l293>

00000688 <l292>:
     688:	ea000000 	b	690 <l294>

0000068c <l293>:
     68c:	000fffc4 	.word	0x000fffc4

00000690 <l294>:
     690:	e14a1097 	swpb	r1, r7, [sl]

00000694 <l295>:
     694:	e0812007 	add	r2, r1, r7

00000698 <l296>:
     698:	e0844064 	add	r4, r4, r4, rrx

0000069c <l297>:
     69c:	e59f1000 	ldr	r1, [pc]	; 6a4 <l299>

000006a0 <l298>:
     6a0:	ea000000 	b	6a8 <l300>

000006a4 <l299>:
     6a4:	000fffe8 	.word	0x000fffe8

000006a8 <l300>:
     6a8:	8141709b 	swpbhi	r7, fp, [r1]

000006ac <l301>:
     6ac:	e297af83 	adds	sl, r7, #524	; 0x20c

000006b0 <l302>:
     6b0:	e59f3000 	ldr	r3, [pc]	; 6b8 <l304>

000006b4 <l303>:
     6b4:	ea000000 	b	6bc <l305>

000006b8 <l304>:
     6b8:	000fffa8 	.word	0x000fffa8

000006bc <l305>:
     6bc:	e143a098 	swpb	sl, r8, [r3]

000006c0 <l306>:
     6c0:	e59f3000 	ldr	r3, [pc]	; 6c8 <l308>

000006c4 <l307>:
     6c4:	ea000000 	b	6cc <l309>

000006c8 <l308>:
     6c8:	000fffd4 	.word	0x000fffd4

000006cc <l309>:
     6cc:	e1432094 	swpb	r2, r4, [r3]

000006d0 <l310>:
     6d0:	6082e005 	addvs	lr, r2, r5

000006d4 <l311>:
     6d4:	e59f9000 	ldr	r9, [pc]	; 6dc <l313>

000006d8 <l312>:
     6d8:	ea000000 	b	6e0 <l314>

000006dc <l313>:
     6dc:	000fffa4 	.word	0x000fffa4

000006e0 <l314>:
     6e0:	e149209c 	swpb	r2, ip, [r9]

000006e4 <l315>:
     6e4:	e59f7000 	ldr	r7, [pc]	; 6ec <l317>

000006e8 <l316>:
     6e8:	ea000000 	b	6f0 <l318>

000006ec <l317>:
     6ec:	000fffa4 	.word	0x000fffa4

000006f0 <l318>:
     6f0:	e147c096 	swpb	ip, r6, [r7]

000006f4 <l319>:
     6f4:	e59f1000 	ldr	r1, [pc]	; 6fc <l321>

000006f8 <l320>:
     6f8:	ea000000 	b	700 <l322>

000006fc <l321>:
     6fc:	000fffb4 	.word	0x000fffb4

00000700 <l322>:
     700:	9141b094 	swpbls	fp, r4, [r1]

00000704 <l323>:
     704:	b29a7559 	addslt	r7, sl, #373293056	; 0x16400000

00000708 <l324>:
     708:	9086ba3e 	addls	fp, r6, lr, lsr sl

0000070c <l325>:
     70c:	e09b600e 	adds	r6, fp, lr

00000710 <l326>:
     710:	e093c154 	adds	ip, r3, r4, asr r1

00000714 <l327>:
     714:	0095606c 	addseq	r6, r5, ip, rrx

00000718 <l328>:
     718:	e0801004 	add	r1, r0, r4

0000071c <l329>:
     71c:	4299b416 	addsmi	fp, r9, #369098752	; 0x16000000

00000720 <l330>:
     720:	928388a9 	addls	r8, r3, #11075584	; 0xa90000

00000724 <l331>:
     724:	e0878d2e 	add	r8, r7, lr, lsr #26

00000728 <l332>:
     728:	8080500e 	addhi	r5, r0, lr

0000072c <l333>:
     72c:	e08ecb1a 	add	ip, lr, sl, lsl fp

00000730 <l334>:
     730:	e59fa000 	ldr	sl, [pc]	; 738 <l336>

00000734 <l335>:
     734:	ea000000 	b	73c <l337>

00000738 <l336>:
     738:	000fffc8 	.word	0x000fffc8

0000073c <l337>:
     73c:	814ae096 	swpbhi	lr, r6, [sl]

00000740 <l338>:
     740:	e59f6000 	ldr	r6, [pc]	; 748 <l340>

00000744 <l339>:
     744:	ea000000 	b	74c <l341>

00000748 <l340>:
     748:	000fffa8 	.word	0x000fffa8

0000074c <l341>:
     74c:	b1463093 	swpblt	r3, r3, [r6]

00000750 <l342>:
     750:	e08a04cb 	add	r0, sl, fp, asr #9

00000754 <l343>:
     754:	e59f9000 	ldr	r9, [pc]	; 75c <l345>

00000758 <l344>:
     758:	ea000000 	b	760 <l346>

0000075c <l345>:
     75c:	000fffb0 	.word	0x000fffb0

00000760 <l346>:
     760:	e149b09c 	swpb	fp, ip, [r9]

00000764 <l347>:
     764:	e59fe000 	ldr	lr, [pc]	; 76c <l349>

00000768 <l348>:
     768:	ea000000 	b	770 <l350>

0000076c <l349>:
     76c:	000fffd0 	.word	0x000fffd0

00000770 <l350>:
     770:	e14e009b 	swpb	r0, fp, [lr]

00000774 <l351>:
     774:	e59f0000 	ldr	r0, [pc]	; 77c <l353>

00000778 <l352>:
     778:	ea000000 	b	780 <l354>

0000077c <l353>:
     77c:	000fffd4 	.word	0x000fffd4

00000780 <l354>:
     780:	e140e093 	swpb	lr, r3, [r0]

00000784 <l355>:
     784:	40968e5b 	addsmi	r8, r6, fp, asr lr

00000788 <l356>:
     788:	e09a5002 	adds	r5, sl, r2

0000078c <l357>:
     78c:	e59f3000 	ldr	r3, [pc]	; 794 <l359>

00000790 <l358>:
     790:	ea000000 	b	798 <l360>

00000794 <l359>:
     794:	000fffe4 	.word	0x000fffe4

00000798 <l360>:
     798:	01435099 	swpbeq	r5, r9, [r3]

0000079c <l361>:
     79c:	e59f3000 	ldr	r3, [pc]	; 7a4 <l363>

000007a0 <l362>:
     7a0:	ea000000 	b	7a8 <l364>

000007a4 <l363>:
     7a4:	000fffb4 	.word	0x000fffb4

000007a8 <l364>:
     7a8:	e1430098 	swpb	r0, r8, [r3]

000007ac <l365>:
     7ac:	e59f4000 	ldr	r4, [pc]	; 7b4 <l367>

000007b0 <l366>:
     7b0:	ea000000 	b	7b8 <l368>

000007b4 <l367>:
     7b4:	000fffa8 	.word	0x000fffa8

000007b8 <l368>:
     7b8:	71448096 	swpbvc	r8, r6, [r4]

000007bc <l369>:
     7bc:	e59f6000 	ldr	r6, [pc]	; 7c4 <l371>

000007c0 <l370>:
     7c0:	ea000000 	b	7c8 <l372>

000007c4 <l371>:
     7c4:	000fffe0 	.word	0x000fffe0

000007c8 <l372>:
     7c8:	c1467098 	swpbgt	r7, r8, [r6]

000007cc <l373>:
     7cc:	e099400f 	adds	r4, r9, pc

000007d0 <l374>:
     7d0:	e2843f97 	add	r3, r4, #604	; 0x25c

000007d4 <l375>:
     7d4:	e59f4000 	ldr	r4, [pc]	; 7dc <l377>

000007d8 <l376>:
     7d8:	ea000000 	b	7e0 <l378>

000007dc <l377>:
     7dc:	000fffcc 	.word	0x000fffcc

000007e0 <l378>:
     7e0:	41442093 	swpbmi	r2, r3, [r4]

000007e4 <l379>:
     7e4:	e0941007 	adds	r1, r4, r7

000007e8 <l380>:
     7e8:	e08c5064 	add	r5, ip, r4, rrx

000007ec <l381>:
     7ec:	a0883004 	addge	r3, r8, r4

000007f0 <l382>:
     7f0:	e59fc000 	ldr	ip, [pc]	; 7f8 <l384>

000007f4 <l383>:
     7f4:	ea000000 	b	7fc <l385>

000007f8 <l384>:
     7f8:	000fffa0 	.word	0x000fffa0

000007fc <l385>:
     7fc:	014c3092 	swpbeq	r3, r2, [ip]

00000800 <l386>:
     800:	0086c00a 	addeq	ip, r6, sl

00000804 <l387>:
     804:	e2970b7a 	adds	r0, r7, #124928	; 0x1e800

00000808 <l388>:
     808:	50839b84 	addpl	r9, r3, r4, lsl #23

0000080c <l389>:
     80c:	e59fc000 	ldr	ip, [pc]	; 814 <l391>

00000810 <l390>:
     810:	ea000000 	b	818 <l392>

00000814 <l391>:
     814:	000fffdc 	.word	0x000fffdc

00000818 <l392>:
     818:	914ca09b 	swpbls	sl, fp, [ip]

0000081c <l393>:
     81c:	e09c8001 	adds	r8, ip, r1

00000820 <l394>:
     820:	e59fc000 	ldr	ip, [pc]	; 828 <l396>

00000824 <l395>:
     824:	ea000000 	b	82c <l397>

00000828 <l396>:
     828:	000fffa8 	.word	0x000fffa8

0000082c <l397>:
     82c:	a14c8093 	swpbge	r8, r3, [ip]

00000830 <l398>:
     830:	2091beac 	addscs	fp, r1, ip, lsr #29

00000834 <l399>:
     834:	e296cdfa 	adds	ip, r6, #16000	; 0x3e80

00000838 <l400>:
     838:	70894e8f 	addvc	r4, r9, pc, lsl #29

0000083c <l401>:
     83c:	e59f0000 	ldr	r0, [pc]	; 844 <l403>

00000840 <l402>:
     840:	ea000000 	b	848 <l404>

00000844 <l403>:
     844:	000fffdc 	.word	0x000fffdc

00000848 <l404>:
     848:	7140a097 	swpbvc	sl, r7, [r0]

0000084c <l405>:
     84c:	e59fb000 	ldr	fp, [pc]	; 854 <l407>

00000850 <l406>:
     850:	ea000000 	b	858 <l408>

00000854 <l407>:
     854:	000fffc4 	.word	0x000fffc4

00000858 <l408>:
     858:	914b4098 	swpbls	r4, r8, [fp]

0000085c <l409>:
     85c:	e59f2000 	ldr	r2, [pc]	; 864 <l411>

00000860 <l410>:
     860:	ea000000 	b	868 <l412>

00000864 <l411>:
     864:	000fffa4 	.word	0x000fffa4

00000868 <l412>:
     868:	e1429097 	swpb	r9, r7, [r2]

0000086c <l413>:
     86c:	0097ca26 	addseq	ip, r7, r6, lsr #20

00000870 <l414>:
     870:	e094e422 	adds	lr, r4, r2, lsr #8

00000874 <l415>:
     874:	e59f4000 	ldr	r4, [pc]	; 87c <l417>

00000878 <l416>:
     878:	ea000000 	b	880 <l418>

0000087c <l417>:
     87c:	000fffe4 	.word	0x000fffe4

00000880 <l418>:
     880:	e144009e 	swpb	r0, lr, [r4]

00000884 <l419>:
     884:	e59fe000 	ldr	lr, [pc]	; 88c <l421>

00000888 <l420>:
     888:	ea000000 	b	890 <l422>

0000088c <l421>:
     88c:	000fffc4 	.word	0x000fffc4

00000890 <l422>:
     890:	714e7090 	swpbvc	r7, r0, [lr]

00000894 <l423>:
     894:	e29f4ab6 	adds	r4, pc, #745472	; 0xb6000

00000898 <l424>:
     898:	e59f4000 	ldr	r4, [pc]	; 8a0 <l426>

0000089c <l425>:
     89c:	ea000000 	b	8a4 <l427>

000008a0 <l426>:
     8a0:	000fffc8 	.word	0x000fffc8

000008a4 <l427>:
     8a4:	a1440099 	swpbge	r0, r9, [r4]

000008a8 <l428>:
     8a8:	e59f7000 	ldr	r7, [pc]	; 8b0 <l430>

000008ac <l429>:
     8ac:	ea000000 	b	8b4 <l431>

000008b0 <l430>:
     8b0:	000fffd0 	.word	0x000fffd0

000008b4 <l431>:
     8b4:	41479096 	swpbmi	r9, r6, [r7]

000008b8 <l432>:
     8b8:	e59f2000 	ldr	r2, [pc]	; 8c0 <l434>

000008bc <l433>:
     8bc:	ea000000 	b	8c4 <l435>

000008c0 <l434>:
     8c0:	000fffc0 	.word	0x000fffc0

000008c4 <l435>:
     8c4:	41427096 	swpbmi	r7, r6, [r2]

000008c8 <l436>:
     8c8:	e59f4000 	ldr	r4, [pc]	; 8d0 <l438>

000008cc <l437>:
     8cc:	ea000000 	b	8d4 <l439>

000008d0 <l438>:
     8d0:	000fffb0 	.word	0x000fffb0

000008d4 <l439>:
     8d4:	e144a098 	swpb	sl, r8, [r4]

000008d8 <l440>:
     8d8:	e59f4000 	ldr	r4, [pc]	; 8e0 <l442>

000008dc <l441>:
     8dc:	ea000000 	b	8e4 <l443>

000008e0 <l442>:
     8e0:	000fffd8 	.word	0x000fffd8

000008e4 <l443>:
     8e4:	2144b09a 	swpbcs	fp, sl, [r4]

000008e8 <l444>:
     8e8:	e09631c2 	adds	r3, r6, r2, asr #3

000008ec <l445>:
     8ec:	00877009 	addeq	r7, r7, r9

000008f0 <l446>:
     8f0:	e59f0000 	ldr	r0, [pc]	; 8f8 <l448>

000008f4 <l447>:
     8f4:	ea000000 	b	8fc <l449>

000008f8 <l448>:
     8f8:	000fffa4 	.word	0x000fffa4

000008fc <l449>:
     8fc:	01407094 	swpbeq	r7, r4, [r0]

00000900 <l450>:
     900:	b08c3ea7 	addlt	r3, ip, r7, lsr #29

00000904 <l451>:
     904:	e59f2000 	ldr	r2, [pc]	; 90c <l453>

00000908 <l452>:
     908:	ea000000 	b	910 <l454>

0000090c <l453>:
     90c:	000fffd8 	.word	0x000fffd8

00000910 <l454>:
     910:	9142309c 	swpbls	r3, ip, [r2]

00000914 <l455>:
     914:	e59fb000 	ldr	fp, [pc]	; 91c <l457>

00000918 <l456>:
     918:	ea000000 	b	920 <l458>

0000091c <l457>:
     91c:	000fffb0 	.word	0x000fffb0

00000920 <l458>:
     920:	e14b9097 	swpb	r9, r7, [fp]

00000924 <l459>:
     924:	e59f7000 	ldr	r7, [pc]	; 92c <l461>

00000928 <l460>:
     928:	ea000000 	b	930 <l462>

0000092c <l461>:
     92c:	000fffc0 	.word	0x000fffc0

00000930 <l462>:
     930:	0147b091 	swpbeq	fp, r1, [r7]

00000934 <l463>:
     934:	e59f3000 	ldr	r3, [pc]	; 93c <l465>

00000938 <l464>:
     938:	ea000000 	b	940 <l466>

0000093c <l465>:
     93c:	000fffb0 	.word	0x000fffb0

00000940 <l466>:
     940:	e1437098 	swpb	r7, r8, [r3]

00000944 <l467>:
     944:	e59f6000 	ldr	r6, [pc]	; 94c <l469>

00000948 <l468>:
     948:	ea000000 	b	950 <l470>

0000094c <l469>:
     94c:	000fffa8 	.word	0x000fffa8

00000950 <l470>:
     950:	41467092 	swpbmi	r7, r2, [r6]

00000954 <l471>:
     954:	b29ba8a9 	addslt	sl, fp, #11075584	; 0xa90000

00000958 <l472>:
     958:	c0851a3e 	addgt	r1, r5, lr, lsr sl

0000095c <l473>:
     95c:	e59fb000 	ldr	fp, [pc]	; 964 <l475>

00000960 <l474>:
     960:	ea000000 	b	968 <l476>

00000964 <l475>:
     964:	000fffb4 	.word	0x000fffb4

00000968 <l476>:
     968:	e14b9091 	swpb	r9, r1, [fp]

0000096c <l477>:
     96c:	e59f7000 	ldr	r7, [pc]	; 974 <l479>

00000970 <l478>:
     970:	ea000000 	b	978 <l480>

00000974 <l479>:
     974:	000fffe0 	.word	0x000fffe0

00000978 <l480>:
     978:	8147b09b 	swpbhi	fp, fp, [r7]

0000097c <l481>:
     97c:	109a2066 	addsne	r2, sl, r6, rrx

00000980 <l482>:
     980:	e59f2000 	ldr	r2, [pc]	; 988 <l484>

00000984 <l483>:
     984:	ea000000 	b	98c <l485>

00000988 <l484>:
     988:	000fffb0 	.word	0x000fffb0

0000098c <l485>:
     98c:	e142a09a 	swpb	sl, sl, [r2]

00000990 <l486>:
     990:	5085bd04 	addpl	fp, r5, r4, lsl #26

00000994 <l487>:
     994:	62856272 	addvs	r6, r5, #536870919	; 0x20000007

00000998 <l488>:
     998:	e59f1000 	ldr	r1, [pc]	; 9a0 <l490>

0000099c <l489>:
     99c:	ea000000 	b	9a4 <l491>

000009a0 <l490>:
     9a0:	000fffd4 	.word	0x000fffd4

000009a4 <l491>:
     9a4:	e1418092 	swpb	r8, r2, [r1]

000009a8 <l492>:
     9a8:	70853001 	addvc	r3, r5, r1

000009ac <l493>:
     9ac:	e59f5000 	ldr	r5, [pc]	; 9b4 <l495>

000009b0 <l494>:
     9b0:	ea000000 	b	9b8 <l496>

000009b4 <l495>:
     9b4:	000fffdc 	.word	0x000fffdc

000009b8 <l496>:
     9b8:	01454096 	swpbeq	r4, r6, [r5]

000009bc <l497>:
     9bc:	e59f6000 	ldr	r6, [pc]	; 9c4 <l499>

000009c0 <l498>:
     9c0:	ea000000 	b	9c8 <l500>

000009c4 <l499>:
     9c4:	000fffe0 	.word	0x000fffe0

000009c8 <l500>:
     9c8:	8146e097 	swpbhi	lr, r7, [r6]

000009cc <l501>:
     9cc:	5081a008 	addpl	sl, r1, r8

000009d0 <l502>:
     9d0:	309827ca 	addscc	r2, r8, sl, asr #15

000009d4 <l503>:
     9d4:	e09b98c9 	adds	r9, fp, r9, asr #17

000009d8 <l504>:
     9d8:	e59fa000 	ldr	sl, [pc]	; 9e0 <l506>

000009dc <l505>:
     9dc:	ea000000 	b	9e4 <l507>

000009e0 <l506>:
     9e0:	000fffc8 	.word	0x000fffc8

000009e4 <l507>:
     9e4:	e14a309b 	swpb	r3, fp, [sl]

000009e8 <l508>:
     9e8:	e2842fb7 	add	r2, r4, #732	; 0x2dc

000009ec <l509>:
     9ec:	609e7065 	addsvs	r7, lr, r5, rrx

000009f0 <l510>:
     9f0:	e59f6000 	ldr	r6, [pc]	; 9f8 <l512>

000009f4 <l511>:
     9f4:	ea000000 	b	9fc <l513>

000009f8 <l512>:
     9f8:	000fffb0 	.word	0x000fffb0

000009fc <l513>:
     9fc:	51467098 	swpbpl	r7, r8, [r6]

00000a00 <l514>:
     a00:	1092240e 	addsne	r2, r2, lr, lsl #8

00000a04 <l515>:
     a04:	e59fb000 	ldr	fp, [pc]	; a0c <l517>

00000a08 <l516>:
     a08:	ea000000 	b	a10 <l518>

00000a0c <l517>:
     a0c:	000fffa4 	.word	0x000fffa4

00000a10 <l518>:
     a10:	e14b909c 	swpb	r9, ip, [fp]

00000a14 <l519>:
     a14:	10893184 	addne	r3, r9, r4, lsl #3

00000a18 <l520>:
     a18:	e59f3000 	ldr	r3, [pc]	; a20 <l522>

00000a1c <l521>:
     a1c:	ea000000 	b	a24 <l523>

00000a20 <l522>:
     a20:	000fffc0 	.word	0x000fffc0

00000a24 <l523>:
     a24:	a1434095 	swpbge	r4, r5, [r3]

00000a28 <l524>:
     a28:	e082e00b 	add	lr, r2, fp

00000a2c <l525>:
     a2c:	52923a7b 	addspl	r3, r2, #503808	; 0x7b000

00000a30 <l526>:
     a30:	5092e55e 	addspl	lr, r2, lr, asr r5

00000a34 <l527>:
     a34:	c2907000 	addsgt	r7, r0, #0

00000a38 <l528>:
     a38:	e59f7000 	ldr	r7, [pc]	; a40 <l530>

00000a3c <l529>:
     a3c:	ea000000 	b	a44 <l531>

00000a40 <l530>:
     a40:	000fffe0 	.word	0x000fffe0

00000a44 <l531>:
     a44:	a147609a 	swpbge	r6, sl, [r7]

00000a48 <l532>:
     a48:	e080b806 	add	fp, r0, r6, lsl #16

00000a4c <l533>:
     a4c:	408175ac 	addmi	r7, r1, ip, lsr #11

00000a50 <l534>:
     a50:	e59f7000 	ldr	r7, [pc]	; a58 <l536>

00000a54 <l535>:
     a54:	ea000000 	b	a5c <l537>

00000a58 <l536>:
     a58:	000fffc0 	.word	0x000fffc0

00000a5c <l537>:
     a5c:	71478090 	swpbvc	r8, r0, [r7]

00000a60 <l538>:
     a60:	e59fb000 	ldr	fp, [pc]	; a68 <l540>

00000a64 <l539>:
     a64:	ea000000 	b	a6c <l541>

00000a68 <l540>:
     a68:	000fffac 	.word	0x000fffac

00000a6c <l541>:
     a6c:	e14bc098 	swpb	ip, r8, [fp]

00000a70 <l542>:
     a70:	e59fb000 	ldr	fp, [pc]	; a78 <l544>

00000a74 <l543>:
     a74:	ea000000 	b	a7c <l545>

00000a78 <l544>:
     a78:	000fffa8 	.word	0x000fffa8

00000a7c <l545>:
     a7c:	714b209a 	swpbvc	r2, sl, [fp]

00000a80 <l546>:
     a80:	329e075f 	addscc	r0, lr, #24903680	; 0x17c0000

00000a84 <l547>:
     a84:	e293c917 	adds	ip, r3, #376832	; 0x5c000

00000a88 <l548>:
     a88:	00924006 	addseq	r4, r2, r6

00000a8c <l549>:
     a8c:	e09e0ec2 	adds	r0, lr, r2, asr #29

00000a90 <l550>:
     a90:	e59f8000 	ldr	r8, [pc]	; a98 <l552>

00000a94 <l551>:
     a94:	ea000000 	b	a9c <l553>

00000a98 <l552>:
     a98:	000fffb0 	.word	0x000fffb0

00000a9c <l553>:
     a9c:	b1480097 	swpblt	r0, r7, [r8]

00000aa0 <l554>:
     aa0:	e59f9000 	ldr	r9, [pc]	; aa8 <l556>

00000aa4 <l555>:
     aa4:	ea000000 	b	aac <l557>

00000aa8 <l556>:
     aa8:	000fffdc 	.word	0x000fffdc

00000aac <l557>:
     aac:	e1494095 	swpb	r4, r5, [r9]

00000ab0 <l558>:
     ab0:	e59f4000 	ldr	r4, [pc]	; ab8 <l560>

00000ab4 <l559>:
     ab4:	ea000000 	b	abc <l561>

00000ab8 <l560>:
     ab8:	000fffd0 	.word	0x000fffd0

00000abc <l561>:
     abc:	e144e093 	swpb	lr, r3, [r4]

00000ac0 <l562>:
     ac0:	20918dc5 	addscs	r8, r1, r5, asr #27

00000ac4 <l563>:
     ac4:	e091600e 	adds	r6, r1, lr

00000ac8 <l564>:
     ac8:	e59fe000 	ldr	lr, [pc]	; ad0 <l566>

00000acc <l565>:
     acc:	ea000000 	b	ad4 <l567>

00000ad0 <l566>:
     ad0:	000fffa8 	.word	0x000fffa8

00000ad4 <l567>:
     ad4:	414ea091 	swpbmi	sl, r1, [lr]

00000ad8 <l568>:
     ad8:	e59f6000 	ldr	r6, [pc]	; ae0 <l570>

00000adc <l569>:
     adc:	ea000000 	b	ae4 <l571>

00000ae0 <l570>:
     ae0:	000fffe4 	.word	0x000fffe4

00000ae4 <l571>:
     ae4:	e1469094 	swpb	r9, r4, [r6]

00000ae8 <l572>:
     ae8:	e08f1004 	add	r1, pc, r4

00000aec <l573>:
     aec:	e59f8000 	ldr	r8, [pc]	; af4 <l575>

00000af0 <l574>:
     af0:	ea000000 	b	af8 <l576>

00000af4 <l575>:
     af4:	000fffd0 	.word	0x000fffd0

00000af8 <l576>:
     af8:	71484097 	swpbvc	r4, r7, [r8]

00000afc <l577>:
     afc:	e59fa000 	ldr	sl, [pc]	; b04 <l579>

00000b00 <l578>:
     b00:	ea000000 	b	b08 <l580>

00000b04 <l579>:
     b04:	000fffdc 	.word	0x000fffdc

00000b08 <l580>:
     b08:	714a0092 	swpbvc	r0, r2, [sl]

00000b0c <l581>:
     b0c:	e59f1000 	ldr	r1, [pc]	; b14 <l583>

00000b10 <l582>:
     b10:	ea000000 	b	b18 <l584>

00000b14 <l583>:
     b14:	000fffbc 	.word	0x000fffbc

00000b18 <l584>:
     b18:	e141e093 	swpb	lr, r3, [r1]

00000b1c <l585>:
     b1c:	8086e068 	addhi	lr, r6, r8, rrx

00000b20 <l586>:
     b20:	229c3d23 	addscs	r3, ip, #2240	; 0x8c0

00000b24 <l587>:
     b24:	e08e1004 	add	r1, lr, r4

00000b28 <l588>:
     b28:	e0866ea0 	add	r6, r6, r0, lsr #29

00000b2c <l589>:
     b2c:	e59f1000 	ldr	r1, [pc]	; b34 <l591>

00000b30 <l590>:
     b30:	ea000000 	b	b38 <l592>

00000b34 <l591>:
     b34:	000fffa8 	.word	0x000fffa8

00000b38 <l592>:
     b38:	e141a092 	swpb	sl, r2, [r1]

00000b3c <l593>:
     b3c:	e59fb000 	ldr	fp, [pc]	; b44 <l595>

00000b40 <l594>:
     b40:	ea000000 	b	b48 <l596>

00000b44 <l595>:
     b44:	000fffb0 	.word	0x000fffb0

00000b48 <l596>:
     b48:	e14b8094 	swpb	r8, r4, [fp]

00000b4c <l597>:
     b4c:	e59f7000 	ldr	r7, [pc]	; b54 <l599>

00000b50 <l598>:
     b50:	ea000000 	b	b58 <l600>

00000b54 <l599>:
     b54:	000fffc4 	.word	0x000fffc4

00000b58 <l600>:
     b58:	21474096 	swpbcs	r4, r6, [r7]

00000b5c <l601>:
     b5c:	e59f4000 	ldr	r4, [pc]	; b64 <l603>

00000b60 <l602>:
     b60:	ea000000 	b	b68 <l604>

00000b64 <l603>:
     b64:	000fffc4 	.word	0x000fffc4

00000b68 <l604>:
     b68:	e1443092 	swpb	r3, r2, [r4]

00000b6c <l605>:
     b6c:	2294e6bf 	addscs	lr, r4, #200278016	; 0xbf00000

00000b70 <l606>:
     b70:	e59f5000 	ldr	r5, [pc]	; b78 <l608>

00000b74 <l607>:
     b74:	ea000000 	b	b7c <l609>

00000b78 <l608>:
     b78:	000fffd4 	.word	0x000fffd4

00000b7c <l609>:
     b7c:	9145109e 	swpbls	r1, lr, [r5]

00000b80 <l610>:
     b80:	d0941e74 	addsle	r1, r4, r4, ror lr

00000b84 <l611>:
     b84:	e09692e5 	adds	r9, r6, r5, ror #5

00000b88 <l612>:
     b88:	40983007 	addsmi	r3, r8, r7

00000b8c <l613>:
     b8c:	e59fe000 	ldr	lr, [pc]	; b94 <l615>

00000b90 <l614>:
     b90:	ea000000 	b	b98 <l616>

00000b94 <l615>:
     b94:	000fffdc 	.word	0x000fffdc

00000b98 <l616>:
     b98:	e14e1092 	swpb	r1, r2, [lr]

00000b9c <l617>:
     b9c:	e59fe000 	ldr	lr, [pc]	; ba4 <l619>

00000ba0 <l618>:
     ba0:	ea000000 	b	ba8 <l620>

00000ba4 <l619>:
     ba4:	000fffe4 	.word	0x000fffe4

00000ba8 <l620>:
     ba8:	e14e2098 	swpb	r2, r8, [lr]

00000bac <l621>:
     bac:	e59f7000 	ldr	r7, [pc]	; bb4 <l623>

00000bb0 <l622>:
     bb0:	ea000000 	b	bb8 <l624>

00000bb4 <l623>:
     bb4:	000fffb0 	.word	0x000fffb0

00000bb8 <l624>:
     bb8:	61475091 	swpbvs	r5, r1, [r7]

00000bbc <l625>:
     bbc:	e59f9000 	ldr	r9, [pc]	; bc4 <l627>

00000bc0 <l626>:
     bc0:	ea000000 	b	bc8 <l628>

00000bc4 <l627>:
     bc4:	000fffa8 	.word	0x000fffa8

00000bc8 <l628>:
     bc8:	e1498090 	swpb	r8, r0, [r9]

00000bcc <l629>:
     bcc:	e59f1000 	ldr	r1, [pc]	; bd4 <l631>

00000bd0 <l630>:
     bd0:	ea000000 	b	bd8 <l632>

00000bd4 <l631>:
     bd4:	000fffe8 	.word	0x000fffe8

00000bd8 <l632>:
     bd8:	7141509c 	swpbvc	r5, ip, [r1]

00000bdc <l633>:
     bdc:	e08f9001 	add	r9, pc, r1

00000be0 <l634>:
     be0:	30995c30 	addscc	r5, r9, r0, lsr ip

00000be4 <l635>:
     be4:	e59f7000 	ldr	r7, [pc]	; bec <l637>

00000be8 <l636>:
     be8:	ea000000 	b	bf0 <l638>

00000bec <l637>:
     bec:	000fffa8 	.word	0x000fffa8

00000bf0 <l638>:
     bf0:	4147c099 	swpbmi	ip, r9, [r7]

00000bf4 <l639>:
     bf4:	e09e8c5e 	adds	r8, lr, lr, asr ip

00000bf8 <l640>:
     bf8:	e0873063 	add	r3, r7, r3, rrx

00000bfc <l641>:
     bfc:	b09b9066 	addslt	r9, fp, r6, rrx

00000c00 <l642>:
     c00:	e2857020 	add	r7, r5, #32

00000c04 <l643>:
     c04:	e59f6000 	ldr	r6, [pc]	; c0c <l645>

00000c08 <l644>:
     c08:	ea000000 	b	c10 <l646>

00000c0c <l645>:
     c0c:	000fffc0 	.word	0x000fffc0

00000c10 <l646>:
     c10:	b1467094 	swpblt	r7, r4, [r6]

00000c14 <l647>:
     c14:	e09a5879 	adds	r5, sl, r9, ror r8

00000c18 <l648>:
     c18:	e59fe000 	ldr	lr, [pc]	; c20 <l650>

00000c1c <l649>:
     c1c:	ea000000 	b	c24 <l651>

00000c20 <l650>:
     c20:	000fffe4 	.word	0x000fffe4

00000c24 <l651>:
     c24:	314e9092 	swpbcc	r9, r2, [lr]

00000c28 <l652>:
     c28:	12850a41 	addne	r0, r5, #266240	; 0x41000

00000c2c <l653>:
     c2c:	029a0239 	addseq	r0, sl, #-1879048189	; 0x90000003

00000c30 <l654>:
     c30:	e59f9000 	ldr	r9, [pc]	; c38 <l656>

00000c34 <l655>:
     c34:	ea000000 	b	c3c <l657>

00000c38 <l656>:
     c38:	000fffc0 	.word	0x000fffc0

00000c3c <l657>:
     c3c:	4149209a 	swpbmi	r2, sl, [r9]

00000c40 <l658>:
     c40:	e2988c66 	adds	r8, r8, #26112	; 0x6600

00000c44 <l659>:
     c44:	e59f8000 	ldr	r8, [pc]	; c4c <l661>

00000c48 <l660>:
     c48:	ea000000 	b	c50 <l662>

00000c4c <l661>:
     c4c:	000fffe4 	.word	0x000fffe4

00000c50 <l662>:
     c50:	c148b092 	swpbgt	fp, r2, [r8]

00000c54 <l663>:
     c54:	e59f0000 	ldr	r0, [pc]	; c5c <l665>

00000c58 <l664>:
     c58:	ea000000 	b	c60 <l666>

00000c5c <l665>:
     c5c:	000fffb4 	.word	0x000fffb4

00000c60 <l666>:
     c60:	e140609e 	swpb	r6, lr, [r0]

00000c64 <l667>:
     c64:	e59fa000 	ldr	sl, [pc]	; c6c <l669>

00000c68 <l668>:
     c68:	ea000000 	b	c70 <l670>

00000c6c <l669>:
     c6c:	000fffb8 	.word	0x000fffb8

00000c70 <l670>:
     c70:	e14a9099 	swpb	r9, r9, [sl]

00000c74 <l671>:
     c74:	e59f4000 	ldr	r4, [pc]	; c7c <l673>

00000c78 <l672>:
     c78:	ea000000 	b	c80 <l674>

00000c7c <l673>:
     c7c:	000fffc4 	.word	0x000fffc4

00000c80 <l674>:
     c80:	3144b095 	swpbcc	fp, r5, [r4]

00000c84 <l675>:
     c84:	e59f6000 	ldr	r6, [pc]	; c8c <l677>

00000c88 <l676>:
     c88:	ea000000 	b	c90 <l678>

00000c8c <l677>:
     c8c:	000fffd4 	.word	0x000fffd4

00000c90 <l678>:
     c90:	e1464097 	swpb	r4, r7, [r6]

00000c94 <l679>:
     c94:	608a6066 	addvs	r6, sl, r6, rrx

00000c98 <l680>:
     c98:	60829063 	addvs	r9, r2, r3, rrx

00000c9c <l681>:
     c9c:	429c3292 	addsmi	r3, ip, #536870921	; 0x20000009

00000ca0 <l682>:
     ca0:	e2807543 	add	r7, r0, #281018368	; 0x10c00000

00000ca4 <l683>:
     ca4:	e59f7000 	ldr	r7, [pc]	; cac <l685>

00000ca8 <l684>:
     ca8:	ea000000 	b	cb0 <l686>

00000cac <l685>:
     cac:	000fffe0 	.word	0x000fffe0

00000cb0 <l686>:
     cb0:	e1479093 	swpb	r9, r3, [r7]

00000cb4 <l687>:
     cb4:	e59f9000 	ldr	r9, [pc]	; cbc <l689>

00000cb8 <l688>:
     cb8:	ea000000 	b	cc0 <l690>

00000cbc <l689>:
     cbc:	000fffdc 	.word	0x000fffdc

00000cc0 <l690>:
     cc0:	4149609b 	swpbmi	r6, fp, [r9]

00000cc4 <l691>:
     cc4:	e59fc000 	ldr	ip, [pc]	; ccc <l693>

00000cc8 <l692>:
     cc8:	ea000000 	b	cd0 <l694>

00000ccc <l693>:
     ccc:	000fffe8 	.word	0x000fffe8

00000cd0 <l694>:
     cd0:	914c1094 	swpbls	r1, r4, [ip]

00000cd4 <l695>:
     cd4:	e59fa000 	ldr	sl, [pc]	; cdc <l697>

00000cd8 <l696>:
     cd8:	ea000000 	b	ce0 <l698>

00000cdc <l697>:
     cdc:	000fffb8 	.word	0x000fffb8

00000ce0 <l698>:
     ce0:	c14a809e 	swpbgt	r8, lr, [sl]

00000ce4 <l699>:
     ce4:	90843530 	addls	r3, r4, r0, lsr r5

00000ce8 <l700>:
     ce8:	629a35d7 	addsvs	r3, sl, #901775360	; 0x35c00000

00000cec <l701>:
     cec:	e59f8000 	ldr	r8, [pc]	; cf4 <l703>

00000cf0 <l702>:
     cf0:	ea000000 	b	cf8 <l704>

00000cf4 <l703>:
     cf4:	000fffe8 	.word	0x000fffe8

00000cf8 <l704>:
     cf8:	e148509a 	swpb	r5, sl, [r8]

00000cfc <l705>:
     cfc:	e59f5000 	ldr	r5, [pc]	; d04 <l707>

00000d00 <l706>:
     d00:	ea000000 	b	d08 <l708>

00000d04 <l707>:
     d04:	000fffd4 	.word	0x000fffd4

00000d08 <l708>:
     d08:	b145e098 	swpblt	lr, r8, [r5]

00000d0c <l709>:
     d0c:	e0802009 	add	r2, r0, r9

00000d10 <l710>:
     d10:	e59f3000 	ldr	r3, [pc]	; d18 <l712>

00000d14 <l711>:
     d14:	ea000000 	b	d1c <l713>

00000d18 <l712>:
     d18:	000fffb4 	.word	0x000fffb4

00000d1c <l713>:
     d1c:	e143609a 	swpb	r6, sl, [r3]

00000d20 <l714>:
     d20:	e28f1a96 	add	r1, pc, #614400	; 0x96000

00000d24 <l715>:
     d24:	e59f3000 	ldr	r3, [pc]	; d2c <l717>

00000d28 <l716>:
     d28:	ea000000 	b	d30 <l718>

00000d2c <l717>:
     d2c:	000fffb0 	.word	0x000fffb0

00000d30 <l718>:
     d30:	e143909a 	swpb	r9, sl, [r3]

00000d34 <l719>:
     d34:	e59f5000 	ldr	r5, [pc]	; d3c <l721>

00000d38 <l720>:
     d38:	ea000000 	b	d40 <l722>

00000d3c <l721>:
     d3c:	000fffa8 	.word	0x000fffa8

00000d40 <l722>:
     d40:	e145609b 	swpb	r6, fp, [r5]

00000d44 <l723>:
     d44:	e59f4000 	ldr	r4, [pc]	; d4c <l725>

00000d48 <l724>:
     d48:	ea000000 	b	d50 <l726>

00000d4c <l725>:
     d4c:	000fffa4 	.word	0x000fffa4

00000d50 <l726>:
     d50:	21443098 	swpbcs	r3, r8, [r4]

00000d54 <l727>:
     d54:	e089ee74 	add	lr, r9, r4, ror lr

00000d58 <l728>:
     d58:	e59f6000 	ldr	r6, [pc]	; d60 <l730>

00000d5c <l729>:
     d5c:	ea000000 	b	d64 <l731>

00000d60 <l730>:
     d60:	000fffb8 	.word	0x000fffb8

00000d64 <l731>:
     d64:	e1467093 	swpb	r7, r3, [r6]

00000d68 <l732>:
     d68:	e59f9000 	ldr	r9, [pc]	; d70 <l734>

00000d6c <l733>:
     d6c:	ea000000 	b	d74 <l735>

00000d70 <l734>:
     d70:	000fffb0 	.word	0x000fffb0

00000d74 <l735>:
     d74:	e149209c 	swpb	r2, ip, [r9]

00000d78 <l736>:
     d78:	4088003a 	addmi	r0, r8, sl, lsr r0

00000d7c <l737>:
     d7c:	e59fc000 	ldr	ip, [pc]	; d84 <l739>

00000d80 <l738>:
     d80:	ea000000 	b	d88 <l740>

00000d84 <l739>:
     d84:	000fffc8 	.word	0x000fffc8

00000d88 <l740>:
     d88:	e14c909a 	swpb	r9, sl, [ip]

00000d8c <l741>:
     d8c:	e59f0000 	ldr	r0, [pc]	; d94 <l743>

00000d90 <l742>:
     d90:	ea000000 	b	d98 <l744>

00000d94 <l743>:
     d94:	000fffc4 	.word	0x000fffc4

00000d98 <l744>:
     d98:	a140909c 	swpbge	r9, ip, [r0]

00000d9c <l745>:
     d9c:	1094906f 	addsne	r9, r4, pc, rrx

00000da0 <l746>:
     da0:	e59f3000 	ldr	r3, [pc]	; da8 <l748>

00000da4 <l747>:
     da4:	ea000000 	b	dac <l749>

00000da8 <l748>:
     da8:	000fffb4 	.word	0x000fffb4

00000dac <l749>:
     dac:	d143e099 	swpble	lr, r9, [r3]

00000db0 <l750>:
     db0:	e59f0000 	ldr	r0, [pc]	; db8 <l752>

00000db4 <l751>:
     db4:	ea000000 	b	dbc <l753>

00000db8 <l752>:
     db8:	000fffd4 	.word	0x000fffd4

00000dbc <l753>:
     dbc:	e140409e 	swpb	r4, lr, [r0]

00000dc0 <l754>:
     dc0:	e59f1000 	ldr	r1, [pc]	; dc8 <l756>

00000dc4 <l755>:
     dc4:	ea000000 	b	dcc <l757>

00000dc8 <l756>:
     dc8:	000fffe4 	.word	0x000fffe4

00000dcc <l757>:
     dcc:	e141e092 	swpb	lr, r2, [r1]

00000dd0 <l758>:
     dd0:	e08ea005 	add	sl, lr, r5

00000dd4 <l759>:
     dd4:	e08a7006 	add	r7, sl, r6

00000dd8 <l760>:
     dd8:	e59f3000 	ldr	r3, [pc]	; de0 <l762>

00000ddc <l761>:
     ddc:	ea000000 	b	de4 <l763>

00000de0 <l762>:
     de0:	000fffa8 	.word	0x000fffa8

00000de4 <l763>:
     de4:	11432097 	swpbne	r2, r7, [r3]

00000de8 <l764>:
     de8:	e59f1000 	ldr	r1, [pc]	; df0 <l766>

00000dec <l765>:
     dec:	ea000000 	b	df4 <l767>

00000df0 <l766>:
     df0:	000fffb8 	.word	0x000fffb8

00000df4 <l767>:
     df4:	8141b097 	swpbhi	fp, r7, [r1]

00000df8 <l768>:
     df8:	e59f0000 	ldr	r0, [pc]	; e00 <l770>

00000dfc <l769>:
     dfc:	ea000000 	b	e04 <l771>

00000e00 <l770>:
     e00:	000fffcc 	.word	0x000fffcc

00000e04 <l771>:
     e04:	81404093 	swpbhi	r4, r3, [r0]

00000e08 <l772>:
     e08:	e59f6000 	ldr	r6, [pc]	; e10 <l774>

00000e0c <l773>:
     e0c:	ea000000 	b	e14 <l775>

00000e10 <l774>:
     e10:	000fffe8 	.word	0x000fffe8

00000e14 <l775>:
     e14:	e146709e 	swpb	r7, lr, [r6]

00000e18 <l776>:
     e18:	e09e000b 	adds	r0, lr, fp

00000e1c <l777>:
     e1c:	30908007 	addscc	r8, r0, r7

00000e20 <l778>:
     e20:	e59f6000 	ldr	r6, [pc]	; e28 <l780>

00000e24 <l779>:
     e24:	ea000000 	b	e2c <l781>

00000e28 <l780>:
     e28:	000fffc4 	.word	0x000fffc4

00000e2c <l781>:
     e2c:	e1465097 	swpb	r5, r7, [r6]

00000e30 <l782>:
     e30:	20885007 	addcs	r5, r8, r7

00000e34 <l783>:
     e34:	e59fe000 	ldr	lr, [pc]	; e3c <l785>

00000e38 <l784>:
     e38:	ea000000 	b	e40 <l786>

00000e3c <l785>:
     e3c:	000fffd4 	.word	0x000fffd4

00000e40 <l786>:
     e40:	e14e2097 	swpb	r2, r7, [lr]

00000e44 <l787>:
     e44:	e59f4000 	ldr	r4, [pc]	; e4c <l789>

00000e48 <l788>:
     e48:	ea000000 	b	e50 <l790>

00000e4c <l789>:
     e4c:	000fffb8 	.word	0x000fffb8

00000e50 <l790>:
     e50:	4144709e 	swpbmi	r7, lr, [r4]

00000e54 <l791>:
     e54:	e59f6000 	ldr	r6, [pc]	; e5c <l793>

00000e58 <l792>:
     e58:	ea000000 	b	e60 <l794>

00000e5c <l793>:
     e5c:	000fffc4 	.word	0x000fffc4

00000e60 <l794>:
     e60:	e146509c 	swpb	r5, ip, [r6]

00000e64 <l795>:
     e64:	e2872cad 	add	r2, r7, #44288	; 0xad00

00000e68 <l796>:
     e68:	e59fc000 	ldr	ip, [pc]	; e70 <l798>

00000e6c <l797>:
     e6c:	ea000000 	b	e74 <l799>

00000e70 <l798>:
     e70:	000fffdc 	.word	0x000fffdc

00000e74 <l799>:
     e74:	114ce098 	swpbne	lr, r8, [ip]

00000e78 <l800>:
     e78:	628cb4c9 	addvs	fp, ip, #-922746880	; 0xc9000000

00000e7c <l801>:
     e7c:	e2895dc5 	add	r5, r9, #12608	; 0x3140

00000e80 <l802>:
     e80:	e59fe000 	ldr	lr, [pc]	; e88 <l804>

00000e84 <l803>:
     e84:	ea000000 	b	e8c <l805>

00000e88 <l804>:
     e88:	000fffa8 	.word	0x000fffa8

00000e8c <l805>:
     e8c:	e14e0090 	swpb	r0, r0, [lr]

00000e90 <l806>:
     e90:	e08f306b 	add	r3, pc, fp, rrx

00000e94 <l807>:
     e94:	c08f006c 	addgt	r0, pc, ip, rrx

00000e98 <l808>:
     e98:	e0955a88 	adds	r5, r5, r8, lsl #21

00000e9c <l809>:
     e9c:	e59f7000 	ldr	r7, [pc]	; ea4 <l811>

00000ea0 <l810>:
     ea0:	ea000000 	b	ea8 <l812>

00000ea4 <l811>:
     ea4:	000fffa0 	.word	0x000fffa0

00000ea8 <l812>:
     ea8:	d147a095 	swpble	sl, r5, [r7]

00000eac <l813>:
     eac:	90859077 	addls	r9, r5, r7, ror r0

00000eb0 <l814>:
     eb0:	e59fa000 	ldr	sl, [pc]	; eb8 <l816>

00000eb4 <l815>:
     eb4:	ea000000 	b	ebc <l817>

00000eb8 <l816>:
     eb8:	000fffd4 	.word	0x000fffd4

00000ebc <l817>:
     ebc:	e14a4095 	swpb	r4, r5, [sl]

00000ec0 <l818>:
     ec0:	e59fb000 	ldr	fp, [pc]	; ec8 <l820>

00000ec4 <l819>:
     ec4:	ea000000 	b	ecc <l821>

00000ec8 <l820>:
     ec8:	000fffd0 	.word	0x000fffd0

00000ecc <l821>:
     ecc:	514b9090 	swpbpl	r9, r0, [fp]

00000ed0 <l822>:
     ed0:	909c000e 	addsls	r0, ip, lr

00000ed4 <l823>:
     ed4:	e292aa55 	adds	sl, r2, #348160	; 0x55000

00000ed8 <l824>:
     ed8:	a0882a1a 	addge	r2, r8, sl, lsl sl

00000edc <l825>:
     edc:	309fe006 	addscc	lr, pc, r6

00000ee0 <l826>:
     ee0:	e080ab13 	add	sl, r0, r3, lsl fp

00000ee4 <l827>:
     ee4:	e59f2000 	ldr	r2, [pc]	; eec <l829>

00000ee8 <l828>:
     ee8:	ea000000 	b	ef0 <l830>

00000eec <l829>:
     eec:	000fffe8 	.word	0x000fffe8

00000ef0 <l830>:
     ef0:	b142c098 	swpblt	ip, r8, [r2]

00000ef4 <l831>:
     ef4:	a09e5009 	addsge	r5, lr, r9

00000ef8 <l832>:
     ef8:	e59f9000 	ldr	r9, [pc]	; f00 <l834>

00000efc <l833>:
     efc:	ea000000 	b	f04 <l835>

00000f00 <l834>:
     f00:	000fffb0 	.word	0x000fffb0

00000f04 <l835>:
     f04:	e149e092 	swpb	lr, r2, [r9]

00000f08 <l836>:
     f08:	e59f2000 	ldr	r2, [pc]	; f10 <l838>

00000f0c <l837>:
     f0c:	ea000000 	b	f14 <l839>

00000f10 <l838>:
     f10:	000fffe4 	.word	0x000fffe4

00000f14 <l839>:
     f14:	c142a099 	swpbgt	sl, r9, [r2]

00000f18 <l840>:
     f18:	d099947c 	addsle	r9, r9, ip, ror r4

00000f1c <l841>:
     f1c:	4084e036 	addmi	lr, r4, r6, lsr r0

00000f20 <l842>:
     f20:	e59f5000 	ldr	r5, [pc]	; f28 <l844>

00000f24 <l843>:
     f24:	ea000000 	b	f2c <l845>

00000f28 <l844>:
     f28:	000fffc0 	.word	0x000fffc0

00000f2c <l845>:
     f2c:	61459091 	swpbvs	r9, r1, [r5]

00000f30 <l846>:
     f30:	e59fc000 	ldr	ip, [pc]	; f38 <l848>

00000f34 <l847>:
     f34:	ea000000 	b	f3c <l849>

00000f38 <l848>:
     f38:	000fffb8 	.word	0x000fffb8

00000f3c <l849>:
     f3c:	e14ce095 	swpb	lr, r5, [ip]

00000f40 <l850>:
     f40:	929798c3 	addsls	r9, r7, #12779520	; 0xc30000

00000f44 <l851>:
     f44:	e0808216 	add	r8, r0, r6, lsl r2

00000f48 <l852>:
     f48:	1081a00f 	addne	sl, r1, pc

00000f4c <l853>:
     f4c:	e59fe000 	ldr	lr, [pc]	; f54 <l855>

00000f50 <l854>:
     f50:	ea000000 	b	f58 <l856>

00000f54 <l855>:
     f54:	000fffa4 	.word	0x000fffa4

00000f58 <l856>:
     f58:	e14e4094 	swpb	r4, r4, [lr]

00000f5c <l857>:
     f5c:	e59f4000 	ldr	r4, [pc]	; f64 <l859>

00000f60 <l858>:
     f60:	ea000000 	b	f68 <l860>

00000f64 <l859>:
     f64:	000fffe0 	.word	0x000fffe0

00000f68 <l860>:
     f68:	e144a098 	swpb	sl, r8, [r4]

00000f6c <l861>:
     f6c:	e59fb000 	ldr	fp, [pc]	; f74 <l863>

00000f70 <l862>:
     f70:	ea000000 	b	f78 <l864>

00000f74 <l863>:
     f74:	000fffd4 	.word	0x000fffd4

00000f78 <l864>:
     f78:	714b709e 	swpbvc	r7, lr, [fp]

00000f7c <l865>:
     f7c:	5091c06e 	addspl	ip, r1, lr, rrx

00000f80 <l866>:
     f80:	e083c70e 	add	ip, r3, lr, lsl #14

00000f84 <l867>:
     f84:	e59f8000 	ldr	r8, [pc]	; f8c <l869>

00000f88 <l868>:
     f88:	ea000000 	b	f90 <l870>

00000f8c <l869>:
     f8c:	000fffd4 	.word	0x000fffd4

00000f90 <l870>:
     f90:	e148c091 	swpb	ip, r1, [r8]

00000f94 <l871>:
     f94:	e59fc000 	ldr	ip, [pc]	; f9c <l873>

00000f98 <l872>:
     f98:	ea000000 	b	fa0 <l874>

00000f9c <l873>:
     f9c:	000fffcc 	.word	0x000fffcc

00000fa0 <l874>:
     fa0:	014c4095 	swpbeq	r4, r5, [ip]

00000fa4 <l875>:
     fa4:	909e4075 	addsls	r4, lr, r5, ror r0

00000fa8 <l876>:
     fa8:	e088045b 	add	r0, r8, fp, asr r4

00000fac <l877>:
     fac:	e59f1000 	ldr	r1, [pc]	; fb4 <l879>

00000fb0 <l878>:
     fb0:	ea000000 	b	fb8 <l880>

00000fb4 <l879>:
     fb4:	000fffdc 	.word	0x000fffdc

00000fb8 <l880>:
     fb8:	e141c09b 	swpb	ip, fp, [r1]

00000fbc <l881>:
     fbc:	b09ea005 	addslt	sl, lr, r5

00000fc0 <l882>:
     fc0:	e0963e08 	adds	r3, r6, r8, lsl #28

00000fc4 <l883>:
     fc4:	0083ee79 	addeq	lr, r3, r9, ror lr

00000fc8 <l884>:
     fc8:	208a7982 	addcs	r7, sl, r2, lsl #19

00000fcc <l885>:
     fcc:	10969008 	addsne	r9, r6, r8

00000fd0 <l886>:
     fd0:	3083bb78 	addcc	fp, r3, r8, ror fp

00000fd4 <l887>:
     fd4:	e59f8000 	ldr	r8, [pc]	; fdc <l889>

00000fd8 <l888>:
     fd8:	ea000000 	b	fe0 <l890>

00000fdc <l889>:
     fdc:	000fffac 	.word	0x000fffac

00000fe0 <l890>:
     fe0:	3148b095 	swpbcc	fp, r5, [r8]

00000fe4 <l891>:
     fe4:	e2892905 	add	r2, r9, #81920	; 0x14000

00000fe8 <l892>:
     fe8:	e59f9000 	ldr	r9, [pc]	; ff0 <l894>

00000fec <l893>:
     fec:	ea000000 	b	ff4 <l895>

00000ff0 <l894>:
     ff0:	000fffe4 	.word	0x000fffe4

00000ff4 <l895>:
     ff4:	e1494097 	swpb	r4, r7, [r9]

00000ff8 <l896>:
     ff8:	e59f3000 	ldr	r3, [pc]	; 1000 <l898>

00000ffc <l897>:
     ffc:	ea000000 	b	1004 <l899>

00001000 <l898>:
    1000:	000fffcc 	.word	0x000fffcc

00001004 <l899>:
    1004:	e1432096 	swpb	r2, r6, [r3]

00001008 <l900>:
    1008:	e59f9000 	ldr	r9, [pc]	; 1010 <l902>

0000100c <l901>:
    100c:	ea000000 	b	1014 <l903>

00001010 <l902>:
    1010:	000fffb0 	.word	0x000fffb0

00001014 <l903>:
    1014:	e1495095 	swpb	r5, r5, [r9]

00001018 <l904>:
    1018:	e59f6000 	ldr	r6, [pc]	; 1020 <l906>

0000101c <l905>:
    101c:	ea000000 	b	1024 <l907>

00001020 <l906>:
    1020:	000fffdc 	.word	0x000fffdc

00001024 <l907>:
    1024:	4146909c 	swpbmi	r9, ip, [r6]

00001028 <l908>:
    1028:	329f3422 	addscc	r3, pc, #570425344	; 0x22000000

0000102c <l909>:
    102c:	e28e983b 	add	r9, lr, #3866624	; 0x3b0000

00001030 <l910>:
    1030:	e59f5000 	ldr	r5, [pc]	; 1038 <l912>

00001034 <l911>:
    1034:	ea000000 	b	103c <l913>

00001038 <l912>:
    1038:	000fffb8 	.word	0x000fffb8

0000103c <l913>:
    103c:	e1456094 	swpb	r6, r4, [r5]

00001040 <l914>:
    1040:	e08e6832 	add	r6, lr, r2, lsr r8

00001044 <l915>:
    1044:	5099cda4 	addspl	ip, r9, r4, lsr #27

00001048 <l916>:
    1048:	829e054f 	addshi	r0, lr, #331350016	; 0x13c00000

0000104c <l917>:
    104c:	e297b311 	adds	fp, r7, #1140850688	; 0x44000000

00001050 <l918>:
    1050:	e59f3000 	ldr	r3, [pc]	; 1058 <l920>

00001054 <l919>:
    1054:	ea000000 	b	105c <l921>

00001058 <l920>:
    1058:	000fffb8 	.word	0x000fffb8

0000105c <l921>:
    105c:	5143909c 	swpbpl	r9, ip, [r3]

00001060 <l922>:
    1060:	e59f4000 	ldr	r4, [pc]	; 1068 <l924>

00001064 <l923>:
    1064:	ea000000 	b	106c <l925>

00001068 <l924>:
    1068:	000fffc0 	.word	0x000fffc0

0000106c <l925>:
    106c:	3144909b 	swpbcc	r9, fp, [r4]

00001070 <l926>:
    1070:	b2878021 	addlt	r8, r7, #33	; 0x21

00001074 <l927>:
    1074:	6299a85a 	addsvs	sl, r9, #5898240	; 0x5a0000

00001078 <l928>:
    1078:	e59f1000 	ldr	r1, [pc]	; 1080 <l930>

0000107c <l929>:
    107c:	ea000000 	b	1084 <l931>

00001080 <l930>:
    1080:	000fffb8 	.word	0x000fffb8

00001084 <l931>:
    1084:	e141609b 	swpb	r6, fp, [r1]

00001088 <l932>:
    1088:	e59f1000 	ldr	r1, [pc]	; 1090 <l934>

0000108c <l933>:
    108c:	ea000000 	b	1094 <l935>

00001090 <l934>:
    1090:	000fffdc 	.word	0x000fffdc

00001094 <l935>:
    1094:	b141b094 	swpblt	fp, r4, [r1]

00001098 <l936>:
    1098:	e094406b 	adds	r4, r4, fp, rrx

0000109c <l937>:
    109c:	e59f8000 	ldr	r8, [pc]	; 10a4 <l939>

000010a0 <l938>:
    10a0:	ea000000 	b	10a8 <l940>

000010a4 <l939>:
    10a4:	000fffa4 	.word	0x000fffa4

000010a8 <l940>:
    10a8:	e1481094 	swpb	r1, r4, [r8]

000010ac <l941>:
    10ac:	e59f8000 	ldr	r8, [pc]	; 10b4 <l943>

000010b0 <l942>:
    10b0:	ea000000 	b	10b8 <l944>

000010b4 <l943>:
    10b4:	000fffc0 	.word	0x000fffc0

000010b8 <l944>:
    10b8:	91489090 	swpbls	r9, r0, [r8]

000010bc <l945>:
    10bc:	e59f6000 	ldr	r6, [pc]	; 10c4 <l947>

000010c0 <l946>:
    10c0:	ea000000 	b	10c8 <l948>

000010c4 <l947>:
    10c4:	000fffb8 	.word	0x000fffb8

000010c8 <l948>:
    10c8:	21468092 	swpbcs	r8, r2, [r6]

000010cc <l949>:
    10cc:	e59fb000 	ldr	fp, [pc]	; 10d4 <l951>

000010d0 <l950>:
    10d0:	ea000000 	b	10d8 <l952>

000010d4 <l951>:
    10d4:	000fffe4 	.word	0x000fffe4

000010d8 <l952>:
    10d8:	e14b4099 	swpb	r4, r9, [fp]

000010dc <l953>:
    10dc:	e59f9000 	ldr	r9, [pc]	; 10e4 <l955>

000010e0 <l954>:
    10e0:	ea000000 	b	10e8 <l956>

000010e4 <l955>:
    10e4:	000fffa4 	.word	0x000fffa4

000010e8 <l956>:
    10e8:	d1492094 	swpble	r2, r4, [r9]

000010ec <l957>:
    10ec:	e59f8000 	ldr	r8, [pc]	; 10f4 <l959>

000010f0 <l958>:
    10f0:	ea000000 	b	10f8 <l960>

000010f4 <l959>:
    10f4:	000fffa4 	.word	0x000fffa4

000010f8 <l960>:
    10f8:	8148e09a 	swpbhi	lr, sl, [r8]

000010fc <l961>:
    10fc:	e59f4000 	ldr	r4, [pc]	; 1104 <l963>

00001100 <l962>:
    1100:	ea000000 	b	1108 <l964>

00001104 <l963>:
    1104:	000fffc0 	.word	0x000fffc0

00001108 <l964>:
    1108:	31445097 	swpbcc	r5, r7, [r4]

0000110c <l965>:
    110c:	e59f8000 	ldr	r8, [pc]	; 1114 <l967>

00001110 <l966>:
    1110:	ea000000 	b	1118 <l968>

00001114 <l967>:
    1114:	000fffd8 	.word	0x000fffd8

00001118 <l968>:
    1118:	e1482097 	swpb	r2, r7, [r8]

0000111c <l969>:
    111c:	e09b8003 	adds	r8, fp, r3

00001120 <l970>:
    1120:	b08a900f 	addlt	r9, sl, pc

00001124 <l971>:
    1124:	e59f8000 	ldr	r8, [pc]	; 112c <l973>

00001128 <l972>:
    1128:	ea000000 	b	1130 <l974>

0000112c <l973>:
    112c:	000fffbc 	.word	0x000fffbc

00001130 <l974>:
    1130:	e148009a 	swpb	r0, sl, [r8]

00001134 <l975>:
    1134:	e59f5000 	ldr	r5, [pc]	; 113c <l977>

00001138 <l976>:
    1138:	ea000000 	b	1140 <l978>

0000113c <l977>:
    113c:	000fffb4 	.word	0x000fffb4

00001140 <l978>:
    1140:	a1456093 	swpbge	r6, r3, [r5]

00001144 <l979>:
    1144:	e59f4000 	ldr	r4, [pc]	; 114c <l981>

00001148 <l980>:
    1148:	ea000000 	b	1150 <l982>

0000114c <l981>:
    114c:	000fffd0 	.word	0x000fffd0

00001150 <l982>:
    1150:	e1442097 	swpb	r2, r7, [r4]

00001154 <l983>:
    1154:	e0936e00 	adds	r6, r3, r0, lsl #28

00001158 <l984>:
    1158:	a285a1f1 	addge	sl, r5, #1073741884	; 0x4000003c

0000115c <l985>:
    115c:	e0919139 	adds	r9, r1, r9, lsr r1

00001160 <l986>:
    1160:	c09b2648 	addsgt	r2, fp, r8, asr #12

00001164 <l987>:
    1164:	e59f9000 	ldr	r9, [pc]	; 116c <l989>

00001168 <l988>:
    1168:	ea000000 	b	1170 <l990>

0000116c <l989>:
    116c:	000fffd0 	.word	0x000fffd0

00001170 <l990>:
    1170:	a1491097 	swpbge	r1, r7, [r9]

00001174 <l991>:
    1174:	8090e707 	addshi	lr, r0, r7, lsl #14

00001178 <l992>:
    1178:	e59f6000 	ldr	r6, [pc]	; 1180 <l994>

0000117c <l993>:
    117c:	ea000000 	b	1184 <l995>

00001180 <l994>:
    1180:	000fffc8 	.word	0x000fffc8

00001184 <l995>:
    1184:	0146009b 	swpbeq	r0, fp, [r6]

00001188 <l996>:
    1188:	e59f8000 	ldr	r8, [pc]	; 1190 <l998>

0000118c <l997>:
    118c:	ea000000 	b	1194 <l999>

00001190 <l998>:
    1190:	000fffac 	.word	0x000fffac

00001194 <l999>:
    1194:	e148a09b 	swpb	sl, fp, [r8]

00001198 <l1000>:
    1198:	e09e8854 	adds	r8, lr, r4, asr r8

0000119c <end>:
    119c:	eafffffe 	b	119c <end>
