
teq_1000.o:     file format elf32-littlearm


Disassembly of section .text:

00000000 <main>:
       0:	e05f000f 	subs	r0, pc, pc
       4:	e59fd000 	ldr	sp, [pc]	; c <val>
       8:	ea000000 	b	10 <next>

0000000c <val>:
       c:	000ffff0 	.word	0x000ffff0

00000010 <next>:
      10:	e59f1000 	ldr	r1, [pc]	; 18 <val1>
      14:	ea000000 	b	1c <next1>

00000018 <val1>:
      18:	6ee5032a 	.word	0x6ee5032a

0000001c <next1>:
      1c:	e59f2000 	ldr	r2, [pc]	; 24 <val2>
      20:	ea000000 	b	28 <next2>

00000024 <val2>:
      24:	a0bc7a07 	.word	0xa0bc7a07

00000028 <next2>:
      28:	e59f3000 	ldr	r3, [pc]	; 30 <val3>
      2c:	ea000000 	b	34 <next3>

00000030 <val3>:
      30:	007133e0 	.word	0x007133e0

00000034 <next3>:
      34:	e59f4000 	ldr	r4, [pc]	; 3c <val4>
      38:	ea000000 	b	40 <next4>

0000003c <val4>:
      3c:	523cf116 	.word	0x523cf116

00000040 <next4>:
      40:	e59f5000 	ldr	r5, [pc]	; 48 <val5>
      44:	ea000000 	b	4c <next5>

00000048 <val5>:
      48:	3dd8c241 	.word	0x3dd8c241

0000004c <next5>:
      4c:	e59f6000 	ldr	r6, [pc]	; 54 <val6>
      50:	ea000000 	b	58 <next6>

00000054 <val6>:
      54:	97195ddb 	.word	0x97195ddb

00000058 <next6>:
      58:	e59f7000 	ldr	r7, [pc]	; 60 <val7>
      5c:	ea000000 	b	64 <next7>

00000060 <val7>:
      60:	8008279b 	.word	0x8008279b

00000064 <next7>:
      64:	e59f8000 	ldr	r8, [pc]	; 6c <val8>
      68:	ea000000 	b	70 <next8>

0000006c <val8>:
      6c:	99850b4c 	.word	0x99850b4c

00000070 <next8>:
      70:	e59f9000 	ldr	r9, [pc]	; 78 <val9>
      74:	ea000000 	b	7c <next9>

00000078 <val9>:
      78:	b5826a77 	.word	0xb5826a77

0000007c <next9>:
      7c:	e59fa000 	ldr	sl, [pc]	; 84 <val10>
      80:	ea000000 	b	88 <next10>

00000084 <val10>:
      84:	8e9a1eb9 	.word	0x8e9a1eb9

00000088 <next10>:
      88:	e59fb000 	ldr	fp, [pc]	; 90 <val11>
      8c:	ea000000 	b	94 <next11>

00000090 <val11>:
      90:	33e337eb 	.word	0x33e337eb

00000094 <next11>:
      94:	e59fc000 	ldr	ip, [pc]	; 9c <val12>
      98:	ea000000 	b	a0 <next12>

0000009c <val12>:
      9c:	d315005b 	.word	0xd315005b

000000a0 <next12>:
      a0:	e59fe000 	ldr	lr, [pc]	; a8 <val14>
      a4:	ea000000 	b	ac <next14>

000000a8 <val14>:
      a8:	4fff2477 	.word	0x4fff2477

000000ac <next14>:
      ac:	e59f1000 	ldr	r1, [pc]	; b4 <val15>
      b0:	ea000000 	b	b8 <next15>

000000b4 <val15>:
      b4:	a9ddf14b 	.word	0xa9ddf14b

000000b8 <next15>:
      b8:	e58d1000 	str	r1, [sp]
      bc:	e59f1000 	ldr	r1, [pc]	; c4 <val16>
      c0:	ea000000 	b	c8 <next16>

000000c4 <val16>:
      c4:	c42a4e72 	.word	0xc42a4e72

000000c8 <next16>:
      c8:	e50d1004 	str	r1, [sp, #-4]
      cc:	e59f1000 	ldr	r1, [pc]	; d4 <val17>
      d0:	ea000000 	b	d8 <next17>

000000d4 <val17>:
      d4:	bceca51f 	.word	0xbceca51f

000000d8 <next17>:
      d8:	e50d1008 	str	r1, [sp, #-8]
      dc:	e59f1000 	ldr	r1, [pc]	; e4 <val18>
      e0:	ea000000 	b	e8 <next18>

000000e4 <val18>:
      e4:	df95ff6c 	.word	0xdf95ff6c

000000e8 <next18>:
      e8:	e50d100c 	str	r1, [sp, #-12]
      ec:	e59f1000 	ldr	r1, [pc]	; f4 <val19>
      f0:	ea000000 	b	f8 <next19>

000000f4 <val19>:
      f4:	da514b06 	.word	0xda514b06

000000f8 <next19>:
      f8:	e50d1010 	str	r1, [sp, #-16]
      fc:	e59f1000 	ldr	r1, [pc]	; 104 <val20>
     100:	ea000000 	b	108 <next20>

00000104 <val20>:
     104:	c0b086b1 	.word	0xc0b086b1

00000108 <next20>:
     108:	e50d1014 	str	r1, [sp, #-20]
     10c:	e59f1000 	ldr	r1, [pc]	; 114 <val21>
     110:	ea000000 	b	118 <next21>

00000114 <val21>:
     114:	f51816eb 	.word	0xf51816eb

00000118 <next21>:
     118:	e50d1018 	str	r1, [sp, #-24]
     11c:	e59f1000 	ldr	r1, [pc]	; 124 <val22>
     120:	ea000000 	b	128 <next22>

00000124 <val22>:
     124:	2d3a07a6 	.word	0x2d3a07a6

00000128 <next22>:
     128:	e50d101c 	str	r1, [sp, #-28]
     12c:	e59f1000 	ldr	r1, [pc]	; 134 <val23>
     130:	ea000000 	b	138 <next23>

00000134 <val23>:
     134:	9bbc3f90 	.word	0x9bbc3f90

00000138 <next23>:
     138:	e50d1020 	str	r1, [sp, #-32]
     13c:	e59f1000 	ldr	r1, [pc]	; 144 <val24>
     140:	ea000000 	b	148 <next24>

00000144 <val24>:
     144:	1044fef1 	.word	0x1044fef1

00000148 <next24>:
     148:	e50d1024 	str	r1, [sp, #-36]	; 0x24
     14c:	e59f1000 	ldr	r1, [pc]	; 154 <val25>
     150:	ea000000 	b	158 <next25>

00000154 <val25>:
     154:	871bde65 	.word	0x871bde65

00000158 <next25>:
     158:	e50d1028 	str	r1, [sp, #-40]	; 0x28
     15c:	e59f1000 	ldr	r1, [pc]	; 164 <val26>
     160:	ea000000 	b	168 <next26>

00000164 <val26>:
     164:	ece6c1f1 	.word	0xece6c1f1

00000168 <next26>:
     168:	e50d102c 	str	r1, [sp, #-44]	; 0x2c
     16c:	e59f1000 	ldr	r1, [pc]	; 174 <val27>
     170:	ea000000 	b	178 <next27>

00000174 <val27>:
     174:	49b761b3 	.word	0x49b761b3

00000178 <next27>:
     178:	e50d1030 	str	r1, [sp, #-48]	; 0x30
     17c:	e59f1000 	ldr	r1, [pc]	; 184 <val28>
     180:	ea000000 	b	188 <next28>

00000184 <val28>:
     184:	b4c5be3b 	.word	0xb4c5be3b

00000188 <next28>:
     188:	e50d1034 	str	r1, [sp, #-52]	; 0x34
     18c:	e59f1000 	ldr	r1, [pc]	; 194 <val29>
     190:	ea000000 	b	198 <next29>

00000194 <val29>:
     194:	177725e9 	.word	0x177725e9

00000198 <next29>:
     198:	e50d1038 	str	r1, [sp, #-56]	; 0x38
     19c:	e59f1000 	ldr	r1, [pc]	; 1a4 <val30>
     1a0:	ea000000 	b	1a8 <next30>

000001a4 <val30>:
     1a4:	01d9a439 	.word	0x01d9a439

000001a8 <next30>:
     1a8:	e50d103c 	str	r1, [sp, #-60]	; 0x3c
     1ac:	e59f1000 	ldr	r1, [pc]	; 1b4 <val31>
     1b0:	ea000000 	b	1b8 <next31>

000001b4 <val31>:
     1b4:	bec5cdda 	.word	0xbec5cdda

000001b8 <next31>:
     1b8:	e50d1040 	str	r1, [sp, #-64]	; 0x40
     1bc:	e59f1000 	ldr	r1, [pc]	; 1c4 <val32>
     1c0:	ea000000 	b	1c8 <next32>

000001c4 <val32>:
     1c4:	c0a856e2 	.word	0xc0a856e2

000001c8 <next32>:
     1c8:	e50d1044 	str	r1, [sp, #-68]	; 0x44
     1cc:	e59f1000 	ldr	r1, [pc]	; 1d4 <val33>
     1d0:	ea000000 	b	1d8 <next33>

000001d4 <val33>:
     1d4:	b4b33764 	.word	0xb4b33764

000001d8 <next33>:
     1d8:	e50d1048 	str	r1, [sp, #-72]	; 0x48
     1dc:	e59f1000 	ldr	r1, [pc]	; 1e4 <val34>
     1e0:	ea000000 	b	1e8 <next34>

000001e4 <val34>:
     1e4:	070dd7dc 	.word	0x070dd7dc

000001e8 <next34>:
     1e8:	e50d104c 	str	r1, [sp, #-76]	; 0x4c
     1ec:	e59f1000 	ldr	r1, [pc]	; 1f4 <val35>
     1f0:	ea000000 	b	1f8 <next35>

000001f4 <val35>:
     1f4:	6a440269 	.word	0x6a440269

000001f8 <next35>:
     1f8:	e50d1050 	str	r1, [sp, #-80]	; 0x50

000001fc <l1>:
     1fc:	513e0004 	teqpl	lr, r4

00000200 <l2>:
     200:	81310a59 	teqhi	r1, r9, asr sl

00000204 <l3>:
     204:	e33c0b33 	teq	ip, #52224	; 0xcc00

00000208 <l4>:
     208:	1137006e 	teqne	r7, lr, rrx

0000020c <l5>:
     20c:	e33e0ca5 	teq	lr, #42240	; 0xa500

00000210 <l6>:
     210:	e13a0061 	teq	sl, r1, rrx

00000214 <l7>:
     214:	133b06ba 	teqne	fp, #195035136	; 0xba00000

00000218 <l8>:
     218:	213b0002 	teqcs	fp, r2

0000021c <l9>:
     21c:	c13408a3 	teqgt	r4, r3, lsr #17

00000220 <l10>:
     220:	e1340008 	teq	r4, r8

00000224 <l11>:
     224:	e3360c71 	teq	r6, #28928	; 0x7100

00000228 <l12>:
     228:	e13b0000 	teq	fp, r0

0000022c <l13>:
     22c:	e331002c 	teq	r1, #44	; 0x2c

00000230 <l14>:
     230:	513f0065 	teqpl	pc, r5, rrx

00000234 <l15>:
     234:	1134081a 	teqne	r4, sl, lsl r8

00000238 <l16>:
     238:	113a06af 	teqne	sl, pc, lsr #13

0000023c <l17>:
     23c:	713a006b 	teqvc	sl, fp, rrx

00000240 <l18>:
     240:	e13c0527 	teq	ip, r7, lsr #10

00000244 <l19>:
     244:	c33c0caf 	teqgt	ip, #44800	; 0xaf00

00000248 <l20>:
     248:	e1310353 	teq	r1, r3, asr r3

0000024c <l21>:
     24c:	e1320009 	teq	r2, r9

00000250 <l22>:
     250:	e1340b5c 	teq	r4, ip, asr fp

00000254 <l23>:
     254:	313a0214 	teqcc	sl, r4, lsl r2

00000258 <l24>:
     258:	e131000a 	teq	r1, sl

0000025c <l25>:
     25c:	e3300cf5 	teq	r0, #62720	; 0xf500

00000260 <l26>:
     260:	e3380cf7 	teq	r8, #63232	; 0xf700

00000264 <l27>:
     264:	113606ea 	teqne	r6, sl, ror #13

00000268 <l28>:
     268:	513c0544 	teqpl	ip, r4, asr #10

0000026c <l29>:
     26c:	a13b000f 	teqge	fp, pc

00000270 <l30>:
     270:	71380006 	teqvc	r8, r6

00000274 <l31>:
     274:	01330163 	teqeq	r3, r3, ror #2

00000278 <l32>:
     278:	e135077e 	teq	r5, lr, ror r7

0000027c <l33>:
     27c:	133f063f 	teqne	pc, #66060288	; 0x3f00000

00000280 <l34>:
     280:	e339030f 	teq	r9, #1006632960	; 0x3c000000

00000284 <l35>:
     284:	91380b34 	teqls	r8, r4, lsr fp

00000288 <l36>:
     288:	e1340007 	teq	r4, r7

0000028c <l37>:
     28c:	33300c7a 	teqcc	r0, #31232	; 0x7a00

00000290 <l38>:
     290:	e1360ae8 	teq	r6, r8, ror #21

00000294 <l39>:
     294:	01310000 	teqeq	r1, r0

00000298 <l40>:
     298:	e13b037a 	teq	fp, sl, ror r3

0000029c <l41>:
     29c:	6134013a 	teqvs	r4, sl, lsr r1

000002a0 <l42>:
     2a0:	613b000c 	teqvs	fp, ip

000002a4 <l43>:
     2a4:	d13e0a81 	teqle	lr, r1, lsl #21

000002a8 <l44>:
     2a8:	d1300481 	teqle	r0, r1, lsl #9

000002ac <l45>:
     2ac:	513e000c 	teqpl	lr, ip

000002b0 <l46>:
     2b0:	e13600c0 	teq	r6, r0, asr #1

000002b4 <l47>:
     2b4:	b13c0009 	teqlt	ip, r9

000002b8 <l48>:
     2b8:	e1360032 	teq	r6, r2, lsr r0

000002bc <l49>:
     2bc:	31320067 	teqcc	r2, r7, rrx

000002c0 <l50>:
     2c0:	41340002 	teqmi	r4, r2

000002c4 <l51>:
     2c4:	b1340008 	teqlt	r4, r8

000002c8 <l52>:
     2c8:	113b0008 	teqne	fp, r8

000002cc <l53>:
     2cc:	e1390005 	teq	r9, r5

000002d0 <l54>:
     2d0:	e13f0f6f 	teq	pc, pc, ror #30

000002d4 <l55>:
     2d4:	e339032b 	teq	r9, #-1409286144	; 0xac000000

000002d8 <l56>:
     2d8:	11330000 	teqne	r3, r0

000002dc <l57>:
     2dc:	e1390dec 	teq	r9, ip, ror #27

000002e0 <l58>:
     2e0:	e13a047b 	teq	sl, fp, ror r4

000002e4 <l59>:
     2e4:	e13e006a 	teq	lr, sl, rrx

000002e8 <l60>:
     2e8:	51310965 	teqpl	r1, r5, ror #18

000002ec <l61>:
     2ec:	e3300292 	teq	r0, #536870921	; 0x20000009

000002f0 <l62>:
     2f0:	a1370836 	teqge	r7, r6, lsr r8

000002f4 <l63>:
     2f4:	c1330a72 	teqgt	r3, r2, ror sl

000002f8 <l64>:
     2f8:	e13b000c 	teq	fp, ip

000002fc <l65>:
     2fc:	e3320d32 	teq	r2, #3200	; 0xc80

00000300 <l66>:
     300:	a33b0d85 	teqge	fp, #8512	; 0x2140

00000304 <l67>:
     304:	313907e8 	teqcc	r9, r8, ror #15

00000308 <l68>:
     308:	a13b0535 	teqge	fp, r5, lsr r5

0000030c <l69>:
     30c:	d134026a 	teqle	r4, sl, ror #4

00000310 <l70>:
     310:	a33b0602 	teqge	fp, #2097152	; 0x200000

00000314 <l71>:
     314:	e3350c2b 	teq	r5, #11008	; 0x2b00

00000318 <l72>:
     318:	d1360bc2 	teqle	r6, r2, asr #23

0000031c <l73>:
     31c:	41360a78 	teqmi	r6, r8, ror sl

00000320 <l74>:
     320:	e134071a 	teq	r4, sl, lsl r7

00000324 <l75>:
     324:	c1390005 	teqgt	r9, r5

00000328 <l76>:
     328:	e3310bed 	teq	r1, #242688	; 0x3b400

0000032c <l77>:
     32c:	613104e5 	teqvs	r1, r5, ror #9

00000330 <l78>:
     330:	a33f0e37 	teqge	pc, #880	; 0x370

00000334 <l79>:
     334:	61370001 	teqvs	r7, r1

00000338 <l80>:
     338:	e136000b 	teq	r6, fp

0000033c <l81>:
     33c:	33310809 	teqcc	r1, #589824	; 0x90000

00000340 <l82>:
     340:	d1300003 	teqle	r0, r3

00000344 <l83>:
     344:	e13b0053 	teq	fp, r3, asr r0

00000348 <l84>:
     348:	b1300c72 	teqlt	r0, r2, ror ip

0000034c <l85>:
     34c:	71390b50 	teqvc	r9, r0, asr fp

00000350 <l86>:
     350:	e33a0bb1 	teq	sl, #181248	; 0x2c400

00000354 <l87>:
     354:	e1390066 	teq	r9, r6, rrx

00000358 <l88>:
     358:	d133085c 	teqle	r3, ip, asr r8

0000035c <l89>:
     35c:	e3340a42 	teq	r4, #270336	; 0x42000

00000360 <l90>:
     360:	613b0518 	teqvs	fp, r8, lsl r5

00000364 <l91>:
     364:	633300e5 	teqvs	r3, #229	; 0xe5

00000368 <l92>:
     368:	e1360622 	teq	r6, r2, lsr #12

0000036c <l93>:
     36c:	91370061 	teqls	r7, r1, rrx

00000370 <l94>:
     370:	213a0069 	teqcs	sl, r9, rrx

00000374 <l95>:
     374:	113a006a 	teqne	sl, sl, rrx

00000378 <l96>:
     378:	43350aa7 	teqmi	r5, #684032	; 0xa7000

0000037c <l97>:
     37c:	b1380009 	teqlt	r8, r9

00000380 <l98>:
     380:	e33b0515 	teq	fp, #88080384	; 0x5400000

00000384 <l99>:
     384:	71360e49 	teqvc	r6, r9, asr #28

00000388 <l100>:
     388:	13300153 	teqne	r0, #-1073741804	; 0xc0000014

0000038c <l101>:
     38c:	73340633 	teqvc	r4, #53477376	; 0x3300000

00000390 <l102>:
     390:	e136006c 	teq	r6, ip, rrx

00000394 <l103>:
     394:	51310068 	teqpl	r1, r8, rrx

00000398 <l104>:
     398:	e1350030 	teq	r5, r0, lsr r0

0000039c <l105>:
     39c:	b3350d56 	teqlt	r5, #5504	; 0x1580

000003a0 <l106>:
     3a0:	e331009d 	teq	r1, #157	; 0x9d

000003a4 <l107>:
     3a4:	41330001 	teqmi	r3, r1

000003a8 <l108>:
     3a8:	71310961 	teqvc	r1, r1, ror #18

000003ac <l109>:
     3ac:	e1330a52 	teq	r3, r2, asr sl

000003b0 <l110>:
     3b0:	61390953 	teqvs	r9, r3, asr r9

000003b4 <l111>:
     3b4:	833f0074 	teqhi	pc, #116	; 0x74

000003b8 <l112>:
     3b8:	e13a0fce 	teq	sl, lr, asr #31

000003bc <l113>:
     3bc:	e138000f 	teq	r8, pc

000003c0 <l114>:
     3c0:	91300cc8 	teqls	r0, r8, asr #25

000003c4 <l115>:
     3c4:	e1380915 	teq	r8, r5, lsl r9

000003c8 <l116>:
     3c8:	a13a040f 	teqge	sl, pc, lsl #8

000003cc <l117>:
     3cc:	81330016 	teqhi	r3, r6, lsl r0

000003d0 <l118>:
     3d0:	e13c0a6e 	teq	ip, lr, ror #20

000003d4 <l119>:
     3d4:	81310c7c 	teqhi	r1, ip, ror ip

000003d8 <l120>:
     3d8:	e13a006c 	teq	sl, ip, rrx

000003dc <l121>:
     3dc:	e13c0339 	teq	ip, r9, lsr r3

000003e0 <l122>:
     3e0:	d1370413 	teqle	r7, r3, lsl r4

000003e4 <l123>:
     3e4:	e13f0000 	teq	pc, r0

000003e8 <l124>:
     3e8:	a1320903 	teqge	r2, r3, lsl #18

000003ec <l125>:
     3ec:	313b000c 	teqcc	fp, ip

000003f0 <l126>:
     3f0:	c1320916 	teqgt	r2, r6, lsl r9

000003f4 <l127>:
     3f4:	333703ea 	teqcc	r7, #-1476395005	; 0xa8000003

000003f8 <l128>:
     3f8:	33300441 	teqcc	r0, #1090519040	; 0x41000000

000003fc <l129>:
     3fc:	e1390001 	teq	r9, r1

00000400 <l130>:
     400:	e130000f 	teq	r0, pc

00000404 <l131>:
     404:	e13f0362 	teq	pc, r2, ror #6

00000408 <l132>:
     408:	e1310004 	teq	r1, r4

0000040c <l133>:
     40c:	e330060b 	teq	r0, #11534336	; 0xb00000

00000410 <l134>:
     410:	b1300002 	teqlt	r0, r2

00000414 <l135>:
     414:	71360244 	teqvc	r6, r4, asr #4

00000418 <l136>:
     418:	c33405a5 	teqgt	r4, #692060160	; 0x29400000

0000041c <l137>:
     41c:	1133006c 	teqne	r3, ip, rrx

00000420 <l138>:
     420:	c1390006 	teqgt	r9, r6

00000424 <l139>:
     424:	e1310e61 	teq	r1, r1, ror #28

00000428 <l140>:
     428:	933600a8 	teqls	r6, #168	; 0xa8

0000042c <l141>:
     42c:	81390f26 	teqhi	r9, r6, lsr #30

00000430 <l142>:
     430:	d1370373 	teqle	r7, r3, ror r3

00000434 <l143>:
     434:	e1300b56 	teq	r0, r6, asr fp

00000438 <l144>:
     438:	d331001f 	teqle	r1, #31

0000043c <l145>:
     43c:	e3330a0e 	teq	r3, #57344	; 0xe000

00000440 <l146>:
     440:	e3360153 	teq	r6, #-1073741804	; 0xc0000014

00000444 <l147>:
     444:	e1390ec4 	teq	r9, r4, asr #29

00000448 <l148>:
     448:	33340acb 	teqcc	r4, #831488	; 0xcb000

0000044c <l149>:
     44c:	213b0001 	teqcs	fp, r1

00000450 <l150>:
     450:	233e08eb 	teqcs	lr, #15400960	; 0xeb0000

00000454 <l151>:
     454:	01310ec9 	teqeq	r1, r9, asr #29

00000458 <l152>:
     458:	e13e000a 	teq	lr, sl

0000045c <l153>:
     45c:	e1330000 	teq	r3, r0

00000460 <l154>:
     460:	e1300069 	teq	r0, r9, rrx

00000464 <l155>:
     464:	c1390005 	teqgt	r9, r5

00000468 <l156>:
     468:	e13309c0 	teq	r3, r0, asr #19

0000046c <l157>:
     46c:	e3350717 	teq	r5, #6029312	; 0x5c0000

00000470 <l158>:
     470:	e135000a 	teq	r5, sl

00000474 <l159>:
     474:	e13c0111 	teq	ip, r1, lsl r1

00000478 <l160>:
     478:	e1380062 	teq	r8, r2, rrx

0000047c <l161>:
     47c:	e1340000 	teq	r4, r0

00000480 <l162>:
     480:	013f0005 	teqeq	pc, r5

00000484 <l163>:
     484:	b131000e 	teqlt	r1, lr

00000488 <l164>:
     488:	e13802e1 	teq	r8, r1, ror #5

0000048c <l165>:
     48c:	61300003 	teqvs	r0, r3

00000490 <l166>:
     490:	e3350af6 	teq	r5, #1007616	; 0xf6000

00000494 <l167>:
     494:	e1300302 	teq	r0, r2, lsl #6

00000498 <l168>:
     498:	e335023d 	teq	r5, #-805306365	; 0xd0000003

0000049c <l169>:
     49c:	a13b0001 	teqge	fp, r1

000004a0 <l170>:
     4a0:	21390065 	teqcs	r9, r5, rrx

000004a4 <l171>:
     4a4:	23380014 	teqcs	r8, #20

000004a8 <l172>:
     4a8:	e1380e6a 	teq	r8, sl, ror #28

000004ac <l173>:
     4ac:	e13f022e 	teq	pc, lr, lsr #4

000004b0 <l174>:
     4b0:	d13b000f 	teqle	fp, pc

000004b4 <l175>:
     4b4:	e1360a37 	teq	r6, r7, lsr sl

000004b8 <l176>:
     4b8:	e1390870 	teq	r9, r0, ror r8

000004bc <l177>:
     4bc:	e1360003 	teq	r6, r3

000004c0 <l178>:
     4c0:	e33a094f 	teq	sl, #1294336	; 0x13c000

000004c4 <l179>:
     4c4:	c1340006 	teqgt	r4, r6

000004c8 <l180>:
     4c8:	21320a3e 	teqcs	r2, lr, lsr sl

000004cc <l181>:
     4cc:	e1390001 	teq	r9, r1

000004d0 <l182>:
     4d0:	013a006b 	teqeq	sl, fp, rrx

000004d4 <l183>:
     4d4:	73330902 	teqvc	r3, #32768	; 0x8000

000004d8 <l184>:
     4d8:	e13e000b 	teq	lr, fp

000004dc <l185>:
     4dc:	41330556 	teqmi	r3, r6, asr r5

000004e0 <l186>:
     4e0:	e1380004 	teq	r8, r4

000004e4 <l187>:
     4e4:	6138006f 	teqvs	r8, pc, rrx

000004e8 <l188>:
     4e8:	e13701ce 	teq	r7, lr, asr #3

000004ec <l189>:
     4ec:	e13f0009 	teq	pc, r9

000004f0 <l190>:
     4f0:	e13a0002 	teq	sl, r2

000004f4 <l191>:
     4f4:	b3380bdd 	teqlt	r8, #226304	; 0x37400

000004f8 <l192>:
     4f8:	e1340007 	teq	r4, r7

000004fc <l193>:
     4fc:	e139000f 	teq	r9, pc

00000500 <l194>:
     500:	e33a0849 	teq	sl, #4784128	; 0x490000

00000504 <l195>:
     504:	61370a89 	teqvs	r7, r9, lsl #21

00000508 <l196>:
     508:	b133006e 	teqlt	r3, lr, rrx

0000050c <l197>:
     50c:	133e00d1 	teqne	lr, #209	; 0xd1

00000510 <l198>:
     510:	a130073a 	teqge	r0, sl, lsr r7

00000514 <l199>:
     514:	c1350009 	teqgt	r5, r9

00000518 <l200>:
     518:	c1360bc6 	teqgt	r6, r6, asr #23

0000051c <l201>:
     51c:	e1330063 	teq	r3, r3, rrx

00000520 <l202>:
     520:	e13b0009 	teq	fp, r9

00000524 <l203>:
     524:	613a0a70 	teqvs	sl, r0, ror sl

00000528 <l204>:
     528:	d1330000 	teqle	r3, r0

0000052c <l205>:
     52c:	31300008 	teqcc	r0, r8

00000530 <l206>:
     530:	e1320031 	teq	r2, r1, lsr r0

00000534 <l207>:
     534:	73330383 	teqvc	r3, #201326594	; 0xc000002

00000538 <l208>:
     538:	21310157 	teqcs	r1, r7, asr r1

0000053c <l209>:
     53c:	23360adf 	teqcs	r6, #913408	; 0xdf000

00000540 <l210>:
     540:	933009d6 	teqls	r0, #3506176	; 0x358000

00000544 <l211>:
     544:	0133000f 	teqeq	r3, pc

00000548 <l212>:
     548:	a13b000a 	teqge	fp, sl

0000054c <l213>:
     54c:	513c0063 	teqpl	ip, r3, rrx

00000550 <l214>:
     550:	e1320051 	teq	r2, r1, asr r0

00000554 <l215>:
     554:	33300289 	teqcc	r0, #-1879048184	; 0x90000008

00000558 <l216>:
     558:	21370e1e 	teqcs	r7, lr, lsl lr

0000055c <l217>:
     55c:	e13a0062 	teq	sl, r2, rrx

00000560 <l218>:
     560:	c13b0006 	teqgt	fp, r6

00000564 <l219>:
     564:	e1350007 	teq	r5, r7

00000568 <l220>:
     568:	31390007 	teqcc	r9, r7

0000056c <l221>:
     56c:	c1320a1a 	teqgt	r2, sl, lsl sl

00000570 <l222>:
     570:	313c000e 	teqcc	ip, lr

00000574 <l223>:
     574:	81300000 	teqhi	r0, r0

00000578 <l224>:
     578:	e139052e 	teq	r9, lr, lsr #10

0000057c <l225>:
     57c:	7136027b 	teqvc	r6, fp, ror r2

00000580 <l226>:
     580:	e13b06e5 	teq	fp, r5, ror #13

00000584 <l227>:
     584:	a3320159 	teqge	r2, #1073741846	; 0x40000016

00000588 <l228>:
     588:	91340645 	teqls	r4, r5, asr #12

0000058c <l229>:
     58c:	033c0a03 	teqeq	ip, #12288	; 0x3000

00000590 <l230>:
     590:	e1380062 	teq	r8, r2, rrx

00000594 <l231>:
     594:	e139021c 	teq	r9, ip, lsl r2

00000598 <l232>:
     598:	713e000f 	teqvc	lr, pc

0000059c <l233>:
     59c:	c13b0de6 	teqgt	fp, r6, ror #27

000005a0 <l234>:
     5a0:	51350003 	teqpl	r5, r3

000005a4 <l235>:
     5a4:	51370000 	teqpl	r7, r0

000005a8 <l236>:
     5a8:	a1300009 	teqge	r0, r9

000005ac <l237>:
     5ac:	91370218 	teqls	r7, r8, lsl r2

000005b0 <l238>:
     5b0:	e13c0003 	teq	ip, r3

000005b4 <l239>:
     5b4:	833104ba 	teqhi	r1, #-1174405120	; 0xba000000

000005b8 <l240>:
     5b8:	6131073c 	teqvs	r1, ip, lsr r7

000005bc <l241>:
     5bc:	81360250 	teqhi	r6, r0, asr r2

000005c0 <l242>:
     5c0:	113c0ae1 	teqne	ip, r1, ror #21

000005c4 <l243>:
     5c4:	e1380a21 	teq	r8, r1, lsr #20

000005c8 <l244>:
     5c8:	e130000a 	teq	r0, sl

000005cc <l245>:
     5cc:	e1320935 	teq	r2, r5, lsr r9

000005d0 <l246>:
     5d0:	533b03c2 	teqpl	fp, #134217731	; 0x8000003

000005d4 <l247>:
     5d4:	e1370c0e 	teq	r7, lr, lsl #24

000005d8 <l248>:
     5d8:	e1360f40 	teq	r6, r0, asr #30

000005dc <l249>:
     5dc:	71390002 	teqvc	r9, r2

000005e0 <l250>:
     5e0:	813e0a8e 	teqhi	lr, lr, lsl #21

000005e4 <l251>:
     5e4:	e13a0b75 	teq	sl, r5, ror fp

000005e8 <l252>:
     5e8:	e130073c 	teq	r0, ip, lsr r7

000005ec <l253>:
     5ec:	e1390003 	teq	r9, r3

000005f0 <l254>:
     5f0:	c1330519 	teqgt	r3, r9, lsl r5

000005f4 <l255>:
     5f4:	113b000e 	teqne	fp, lr

000005f8 <l256>:
     5f8:	d1360063 	teqle	r6, r3, rrx

000005fc <l257>:
     5fc:	9133000e 	teqls	r3, lr

00000600 <l258>:
     600:	313f0f6c 	teqcc	pc, ip, ror #30

00000604 <l259>:
     604:	e33502d9 	teq	r5, #-1879048179	; 0x9000000d

00000608 <l260>:
     608:	d13b0e69 	teqle	fp, r9, ror #28

0000060c <l261>:
     60c:	21390063 	teqcs	r9, r3, rrx

00000610 <l262>:
     610:	d33b09de 	teqle	fp, #3637248	; 0x378000

00000614 <l263>:
     614:	733903c5 	teqvc	r9, #335544323	; 0x14000003

00000618 <l264>:
     618:	61310950 	teqvs	r1, r0, asr r9

0000061c <l265>:
     61c:	a1300005 	teqge	r0, r5

00000620 <l266>:
     620:	c13e0002 	teqgt	lr, r2

00000624 <l267>:
     624:	01300061 	teqeq	r0, r1, rrx

00000628 <l268>:
     628:	e1300062 	teq	r0, r2, rrx

0000062c <l269>:
     62c:	e335000b 	teq	r5, #11

00000630 <l270>:
     630:	e33c0d5e 	teq	ip, #6016	; 0x1780

00000634 <l271>:
     634:	b1340519 	teqlt	r4, r9, lsl r5

00000638 <l272>:
     638:	b13a0819 	teqlt	sl, r9, lsl r8

0000063c <l273>:
     63c:	e13c0e54 	teq	ip, r4, asr lr

00000640 <l274>:
     640:	a3340c2a 	teqge	r4, #10752	; 0x2a00

00000644 <l275>:
     644:	61300986 	teqvs	r0, r6, lsl #19

00000648 <l276>:
     648:	e1360009 	teq	r6, r9

0000064c <l277>:
     64c:	e1340003 	teq	r4, r3

00000650 <l278>:
     650:	c138015c 	teqgt	r8, ip, asr r1

00000654 <l279>:
     654:	e1310003 	teq	r1, r3

00000658 <l280>:
     658:	d1380067 	teqle	r8, r7, rrx

0000065c <l281>:
     65c:	533f00cf 	teqpl	pc, #207	; 0xcf

00000660 <l282>:
     660:	133b0c96 	teqne	fp, #38400	; 0x9600

00000664 <l283>:
     664:	913c0067 	teqls	ip, r7, rrx

00000668 <l284>:
     668:	e1370008 	teq	r7, r8

0000066c <l285>:
     66c:	e13c0000 	teq	ip, r0

00000670 <l286>:
     670:	e3320fa3 	teq	r2, #652	; 0x28c

00000674 <l287>:
     674:	233c0503 	teqcs	ip, #12582912	; 0xc00000

00000678 <l288>:
     678:	513c0a6b 	teqpl	ip, fp, ror #20

0000067c <l289>:
     67c:	c1350e59 	teqgt	r5, r9, asr lr

00000680 <l290>:
     680:	c13b0002 	teqgt	fp, r2

00000684 <l291>:
     684:	61380068 	teqvs	r8, r8, rrx

00000688 <l292>:
     688:	e1300f02 	teq	r0, r2, lsl #30

0000068c <l293>:
     68c:	e132087e 	teq	r2, lr, ror r8

00000690 <l294>:
     690:	e1360901 	teq	r6, r1, lsl #18

00000694 <l295>:
     694:	e13c006a 	teq	ip, sl, rrx

00000698 <l296>:
     698:	e1320006 	teq	r2, r6

0000069c <l297>:
     69c:	b1310357 	teqlt	r1, r7, asr r3

000006a0 <l298>:
     6a0:	e13f0f87 	teq	pc, r7, lsl #31

000006a4 <l299>:
     6a4:	813b0001 	teqhi	fp, r1

000006a8 <l300>:
     6a8:	e13f000c 	teq	pc, ip

000006ac <l301>:
     6ac:	a136006b 	teqge	r6, fp, rrx

000006b0 <l302>:
     6b0:	a13c000e 	teqge	ip, lr

000006b4 <l303>:
     6b4:	e33600c5 	teq	r6, #197	; 0xc5

000006b8 <l304>:
     6b8:	413a0652 	teqmi	sl, r2, asr r6

000006bc <l305>:
     6bc:	e13c0068 	teq	ip, r8, rrx

000006c0 <l306>:
     6c0:	a1310157 	teqge	r1, r7, asr r1

000006c4 <l307>:
     6c4:	413e04e3 	teqmi	lr, r3, ror #9

000006c8 <l308>:
     6c8:	c132006a 	teqgt	r2, sl, rrx

000006cc <l309>:
     6cc:	81310031 	teqhi	r1, r1, lsr r0

000006d0 <l310>:
     6d0:	a13e006e 	teqge	lr, lr, rrx

000006d4 <l311>:
     6d4:	03330c9a 	teqeq	r3, #39424	; 0x9a00

000006d8 <l312>:
     6d8:	a132006f 	teqge	r2, pc, rrx

000006dc <l313>:
     6dc:	31390ac4 	teqcc	r9, r4, asr #21

000006e0 <l314>:
     6e0:	e136043a 	teq	r6, sl, lsr r4

000006e4 <l315>:
     6e4:	41360003 	teqmi	r6, r3

000006e8 <l316>:
     6e8:	01370ae1 	teqeq	r7, r1, ror #21

000006ec <l317>:
     6ec:	9130065a 	teqls	r0, sl, asr r6

000006f0 <l318>:
     6f0:	e1310524 	teq	r1, r4, lsr #10

000006f4 <l319>:
     6f4:	e3370cc6 	teq	r7, #50688	; 0xc600

000006f8 <l320>:
     6f8:	e3390606 	teq	r9, #6291456	; 0x600000

000006fc <l321>:
     6fc:	b33a00a1 	teqlt	sl, #161	; 0xa1

00000700 <l322>:
     700:	513b0061 	teqpl	fp, r1, rrx

00000704 <l323>:
     704:	e3340fb2 	teq	r4, #712	; 0x2c8

00000708 <l324>:
     708:	e3310e45 	teq	r1, #1104	; 0x450

0000070c <l325>:
     70c:	733b0346 	teqvc	fp, #402653185	; 0x18000001

00000710 <l326>:
     710:	e131055e 	teq	r1, lr, asr r5

00000714 <l327>:
     714:	e13b0067 	teq	fp, r7, rrx

00000718 <l328>:
     718:	633903f6 	teqvs	r9, #-671088637	; 0xd8000003

0000071c <l329>:
     71c:	e1300007 	teq	r0, r7

00000720 <l330>:
     720:	313c0457 	teqcc	ip, r7, asr r4

00000724 <l331>:
     724:	113e0006 	teqne	lr, r6

00000728 <l332>:
     728:	23370705 	teqcs	r7, #1310720	; 0x140000

0000072c <l333>:
     72c:	e1380054 	teq	r8, r4, asr r0

00000730 <l334>:
     730:	e13b003a 	teq	fp, sl, lsr r0

00000734 <l335>:
     734:	e13b0153 	teq	fp, r3, asr r1

00000738 <l336>:
     738:	e33b0cc9 	teq	fp, #51456	; 0xc900

0000073c <l337>:
     73c:	813a0b47 	teqhi	sl, r7, asr #22

00000740 <l338>:
     740:	e13a0060 	teq	sl, r0, rrx

00000744 <l339>:
     744:	e13c006b 	teq	ip, fp, rrx

00000748 <l340>:
     748:	91380346 	teqls	r8, r6, asr #6

0000074c <l341>:
     74c:	e137006c 	teq	r7, ip, rrx

00000750 <l342>:
     750:	e3320c77 	teq	r2, #30464	; 0x7700

00000754 <l343>:
     754:	03370413 	teqeq	r7, #318767104	; 0x13000000

00000758 <l344>:
     758:	b1350f02 	teqlt	r5, r2, lsl #30

0000075c <l345>:
     75c:	9138037a 	teqls	r8, sl, ror r3

00000760 <l346>:
     760:	83370d09 	teqhi	r7, #576	; 0x240

00000764 <l347>:
     764:	e13606ce 	teq	r6, lr, asr #13

00000768 <l348>:
     768:	11300000 	teqne	r0, r0

0000076c <l349>:
     76c:	013e000a 	teqeq	lr, sl

00000770 <l350>:
     770:	91320004 	teqls	r2, r4

00000774 <l351>:
     774:	d1310062 	teqle	r1, r2, rrx

00000778 <l352>:
     778:	d3310ec7 	teqle	r1, #3184	; 0xc70

0000077c <l353>:
     77c:	e1340004 	teq	r4, r4

00000780 <l354>:
     780:	513a0069 	teqpl	sl, r9, rrx

00000784 <l355>:
     784:	e13e0001 	teq	lr, r1

00000788 <l356>:
     788:	e13f02eb 	teq	pc, fp, ror #5

0000078c <l357>:
     78c:	91370a33 	teqls	r7, r3, lsr sl

00000790 <l358>:
     790:	e136000c 	teq	r6, ip

00000794 <l359>:
     794:	e1380b83 	teq	r8, r3, lsl #23

00000798 <l360>:
     798:	e1350000 	teq	r5, r0

0000079c <l361>:
     79c:	813c0066 	teqhi	ip, r6, rrx

000007a0 <l362>:
     7a0:	e13c0384 	teq	ip, r4, lsl #7

000007a4 <l363>:
     7a4:	d130000f 	teqle	r0, pc

000007a8 <l364>:
     7a8:	31370002 	teqcc	r7, r2

000007ac <l365>:
     7ac:	c3350bf3 	teqgt	r5, #248832	; 0x3cc00

000007b0 <l366>:
     7b0:	433a0eb6 	teqmi	sl, #2912	; 0xb60

000007b4 <l367>:
     7b4:	91310359 	teqls	r1, r9, asr r3

000007b8 <l368>:
     7b8:	e1390009 	teq	r9, r9

000007bc <l369>:
     7bc:	a133000a 	teqge	r3, sl

000007c0 <l370>:
     7c0:	e33c001e 	teq	ip, #30

000007c4 <l371>:
     7c4:	e1390636 	teq	r9, r6, lsr r6

000007c8 <l372>:
     7c8:	e135017a 	teq	r5, sl, ror r1

000007cc <l373>:
     7cc:	e1340319 	teq	r4, r9, lsl r3

000007d0 <l374>:
     7d0:	81380008 	teqhi	r8, r8

000007d4 <l375>:
     7d4:	53360127 	teqpl	r6, #-1073741815	; 0xc0000009

000007d8 <l376>:
     7d8:	e134000b 	teq	r4, fp

000007dc <l377>:
     7dc:	e13c0739 	teq	ip, r9, lsr r7

000007e0 <l378>:
     7e0:	313c043b 	teqcc	ip, fp, lsr r4

000007e4 <l379>:
     7e4:	c1310fab 	teqgt	r1, fp, lsr #31

000007e8 <l380>:
     7e8:	a3320b4d 	teqge	r2, #78848	; 0x13400

000007ec <l381>:
     7ec:	413e0061 	teqmi	lr, r1, rrx

000007f0 <l382>:
     7f0:	933100ae 	teqls	r1, #174	; 0xae

000007f4 <l383>:
     7f4:	e13b007e 	teq	fp, lr, ror r0

000007f8 <l384>:
     7f8:	71340b39 	teqvc	r4, r9, lsr fp

000007fc <l385>:
     7fc:	e1310b8b 	teq	r1, fp, lsl #23

00000800 <l386>:
     800:	33350b2b 	teqcc	r5, #44032	; 0xac00

00000804 <l387>:
     804:	e3370b2d 	teq	r7, #46080	; 0xb400

00000808 <l388>:
     808:	e1340007 	teq	r4, r7

0000080c <l389>:
     80c:	413401c0 	teqmi	r4, r0, asr #3

00000810 <l390>:
     810:	83380ba7 	teqhi	r8, #171008	; 0x29c00

00000814 <l391>:
     814:	313804a7 	teqcc	r8, r7, lsr #9

00000818 <l392>:
     818:	2136057a 	teqcs	r6, sl, ror r5

0000081c <l393>:
     81c:	41350473 	teqmi	r5, r3, ror r4

00000820 <l394>:
     820:	e13e0810 	teq	lr, r0, lsl r8

00000824 <l395>:
     824:	e330041f 	teq	r0, #520093696	; 0x1f000000

00000828 <l396>:
     828:	c1340006 	teqgt	r4, r6

0000082c <l397>:
     82c:	91390078 	teqls	r9, r8, ror r0

00000830 <l398>:
     830:	41310335 	teqmi	r1, r5, lsr r3

00000834 <l399>:
     834:	013a0000 	teqeq	sl, r0

00000838 <l400>:
     838:	e3320ccf 	teq	r2, #52992	; 0xcf00

0000083c <l401>:
     83c:	91330002 	teqls	r3, r2

00000840 <l402>:
     840:	e13c018c 	teq	ip, ip, lsl #3

00000844 <l403>:
     844:	e1360009 	teq	r6, r9

00000848 <l404>:
     848:	e3390b03 	teq	r9, #3072	; 0xc00

0000084c <l405>:
     84c:	51350008 	teqpl	r5, r8

00000850 <l406>:
     850:	e134000e 	teq	r4, lr

00000854 <l407>:
     854:	91360003 	teqls	r6, r3

00000858 <l408>:
     858:	e13e006e 	teq	lr, lr, rrx

0000085c <l409>:
     85c:	a13f000f 	teqge	pc, pc

00000860 <l410>:
     860:	b1380006 	teqlt	r8, r6

00000864 <l411>:
     864:	a13c0559 	teqge	ip, r9, asr r5

00000868 <l412>:
     868:	a1320061 	teqge	r2, r1, rrx

0000086c <l413>:
     86c:	63310931 	teqvs	r1, #802816	; 0xc4000

00000870 <l414>:
     870:	c1390007 	teqgt	r9, r7

00000874 <l415>:
     874:	e13e0008 	teq	lr, r8

00000878 <l416>:
     878:	91310002 	teqls	r1, r2

0000087c <l417>:
     87c:	81360001 	teqhi	r6, r1

00000880 <l418>:
     880:	a13e0002 	teqge	lr, r2

00000884 <l419>:
     884:	e33900a7 	teq	r9, #167	; 0xa7

00000888 <l420>:
     888:	b1350da1 	teqlt	r5, r1, lsr #27

0000088c <l421>:
     88c:	41330704 	teqmi	r3, r4, lsl #14

00000890 <l422>:
     890:	63360ca3 	teqvs	r6, #41728	; 0xa300

00000894 <l423>:
     894:	e1350430 	teq	r5, r0, lsr r4

00000898 <l424>:
     898:	e13f0002 	teq	pc, r2

0000089c <l425>:
     89c:	e13e0930 	teq	lr, r0, lsr r9

000008a0 <l426>:
     8a0:	4132057e 	teqmi	r2, lr, ror r5

000008a4 <l427>:
     8a4:	11340064 	teqne	r4, r4, rrx

000008a8 <l428>:
     8a8:	81330810 	teqhi	r3, r0, lsl r8

000008ac <l429>:
     8ac:	2134000e 	teqcs	r4, lr

000008b0 <l430>:
     8b0:	e3380719 	teq	r8, #6553600	; 0x640000

000008b4 <l431>:
     8b4:	41300c70 	teqmi	r0, r0, ror ip

000008b8 <l432>:
     8b8:	e1350000 	teq	r5, r0

000008bc <l433>:
     8bc:	83390c37 	teqhi	r9, #14080	; 0x3700

000008c0 <l434>:
     8c0:	e3340a71 	teq	r4, #462848	; 0x71000

000008c4 <l435>:
     8c4:	e1300c53 	teq	r0, r3, asr ip

000008c8 <l436>:
     8c8:	21370b7b 	teqcs	r7, fp, ror fp

000008cc <l437>:
     8cc:	e133077c 	teq	r3, ip, ror r7

000008d0 <l438>:
     8d0:	3134006b 	teqcc	r4, fp, rrx

000008d4 <l439>:
     8d4:	e3300719 	teq	r0, #6553600	; 0x640000

000008d8 <l440>:
     8d8:	713e067a 	teqvc	lr, sl, ror r6

000008dc <l441>:
     8dc:	e1390063 	teq	r9, r3, rrx

000008e0 <l442>:
     8e0:	21370714 	teqcs	r7, r4, lsl r7

000008e4 <l443>:
     8e4:	e3330e3b 	teq	r3, #944	; 0x3b0

000008e8 <l444>:
     8e8:	4137097b 	teqmi	r7, fp, ror r9

000008ec <l445>:
     8ec:	e13c0004 	teq	ip, r4

000008f0 <l446>:
     8f0:	e13405af 	teq	r4, pc, lsr #11

000008f4 <l447>:
     8f4:	e1350001 	teq	r5, r1

000008f8 <l448>:
     8f8:	e336032d 	teq	r6, #-1275068416	; 0xb4000000

000008fc <l449>:
     8fc:	8135000c 	teqhi	r5, ip

00000900 <l450>:
     900:	313c0413 	teqcc	ip, r3, lsl r4

00000904 <l451>:
     904:	4139000f 	teqmi	r9, pc

00000908 <l452>:
     908:	c137000b 	teqgt	r7, fp

0000090c <l453>:
     90c:	9337060f 	teqls	r7, #15728640	; 0xf00000

00000910 <l454>:
     910:	2132015c 	teqcs	r2, ip, asr r1

00000914 <l455>:
     914:	51370004 	teqpl	r7, r4

00000918 <l456>:
     918:	e1360ba0 	teq	r6, r0, lsr #23

0000091c <l457>:
     91c:	e33c038b 	teq	ip, #738197506	; 0x2c000002

00000920 <l458>:
     920:	e13a0001 	teq	sl, r1

00000924 <l459>:
     924:	e1330001 	teq	r3, r1

00000928 <l460>:
     928:	013f000c 	teqeq	pc, ip

0000092c <l461>:
     92c:	e13b0001 	teq	fp, r1

00000930 <l462>:
     930:	d1360000 	teqle	r6, r0

00000934 <l463>:
     934:	71340e0e 	teqvc	r4, lr, lsl #28

00000938 <l464>:
     938:	e130000f 	teq	r0, pc

0000093c <l465>:
     93c:	73360865 	teqvc	r6, #6619136	; 0x650000

00000940 <l466>:
     940:	01380be5 	teqeq	r8, r5, ror #23

00000944 <l467>:
     944:	91390000 	teqls	r9, r0

00000948 <l468>:
     948:	e1380008 	teq	r8, r8

0000094c <l469>:
     94c:	e13c02ef 	teq	ip, pc, ror #5

00000950 <l470>:
     950:	e13903ef 	teq	r9, pc, ror #7

00000954 <l471>:
     954:	51320239 	teqpl	r2, r9, lsr r2

00000958 <l472>:
     958:	e1360065 	teq	r6, r5, rrx

0000095c <l473>:
     95c:	6131000a 	teqvs	r1, sl

00000960 <l474>:
     960:	e1330003 	teq	r3, r3

00000964 <l475>:
     964:	71360008 	teqvc	r6, r8

00000968 <l476>:
     968:	d1350521 	teqle	r5, r1, lsr #10

0000096c <l477>:
     96c:	e1310f6f 	teq	r1, pc, ror #30

00000970 <l478>:
     970:	e13a006a 	teq	sl, sl, rrx

00000974 <l479>:
     974:	e1370008 	teq	r7, r8

00000978 <l480>:
     978:	d130000f 	teqle	r0, pc

0000097c <l481>:
     97c:	e33108d1 	teq	r1, #13697024	; 0xd10000

00000980 <l482>:
     980:	0336035b 	teqeq	r6, #1811939329	; 0x6c000001

00000984 <l483>:
     984:	e3330a75 	teq	r3, #479232	; 0x75000

00000988 <l484>:
     988:	e1330003 	teq	r3, r3

0000098c <l485>:
     98c:	313e0006 	teqcc	lr, r6

00000990 <l486>:
     990:	e13900e0 	teq	r9, r0, ror #1

00000994 <l487>:
     994:	e13a0913 	teq	sl, r3, lsl r9

00000998 <l488>:
     998:	e133000b 	teq	r3, fp

0000099c <l489>:
     99c:	e1330069 	teq	r3, r9, rrx

000009a0 <l490>:
     9a0:	b139000a 	teqlt	r9, sl

000009a4 <l491>:
     9a4:	413b0065 	teqmi	fp, r5, rrx

000009a8 <l492>:
     9a8:	e131057a 	teq	r1, sl, ror r5

000009ac <l493>:
     9ac:	213e006b 	teqcs	lr, fp, rrx

000009b0 <l494>:
     9b0:	a13a0816 	teqge	sl, r6, lsl r8

000009b4 <l495>:
     9b4:	e135003e 	teq	r5, lr, lsr r0

000009b8 <l496>:
     9b8:	e13e0475 	teq	lr, r5, ror r4

000009bc <l497>:
     9bc:	d33e083f 	teqle	lr, #4128768	; 0x3f0000

000009c0 <l498>:
     9c0:	7337001b 	teqvc	r7, #27

000009c4 <l499>:
     9c4:	e338088f 	teq	r8, #9371648	; 0x8f0000

000009c8 <l500>:
     9c8:	313b07ab 	teqcc	fp, fp, lsr #15

000009cc <l501>:
     9cc:	e1320c56 	teq	r2, r6, asr ip

000009d0 <l502>:
     9d0:	21320003 	teqcs	r2, r3

000009d4 <l503>:
     9d4:	e139000b 	teq	r9, fp

000009d8 <l504>:
     9d8:	c136000c 	teqgt	r6, ip

000009dc <l505>:
     9dc:	e13205c6 	teq	r2, r6, asr #11

000009e0 <l506>:
     9e0:	e1340909 	teq	r4, r9, lsl #18

000009e4 <l507>:
     9e4:	333c0917 	teqcc	ip, #376832	; 0x5c000

000009e8 <l508>:
     9e8:	e13a02ac 	teq	sl, ip, lsr #5

000009ec <l509>:
     9ec:	c13c000e 	teqgt	ip, lr

000009f0 <l510>:
     9f0:	51350631 	teqpl	r5, r1, lsr r6

000009f4 <l511>:
     9f4:	133300ce 	teqne	r3, #206	; 0xce

000009f8 <l512>:
     9f8:	e1310658 	teq	r1, r8, asr r6

000009fc <l513>:
     9fc:	81350064 	teqhi	r5, r4, rrx

00000a00 <l514>:
     a00:	e139066a 	teq	r9, sl, ror #12

00000a04 <l515>:
     a04:	e1330060 	teq	r3, r0, rrx

00000a08 <l516>:
     a08:	71370f61 	teqvc	r7, r1, ror #30

00000a0c <l517>:
     a0c:	41380007 	teqmi	r8, r7

00000a10 <l518>:
     a10:	e13c0674 	teq	ip, r4, ror r6

00000a14 <l519>:
     a14:	b1310217 	teqlt	r1, r7, lsl r2

00000a18 <l520>:
     a18:	d3300ce3 	teqle	r0, #58112	; 0xe300

00000a1c <l521>:
     a1c:	e333016a 	teq	r3, #-2147483622	; 0x8000001a

00000a20 <l522>:
     a20:	e1370575 	teq	r7, r5, ror r5

00000a24 <l523>:
     a24:	a13c0005 	teqge	ip, r5

00000a28 <l524>:
     a28:	413b0385 	teqmi	fp, r5, lsl #7

00000a2c <l525>:
     a2c:	71310007 	teqvc	r1, r7

00000a30 <l526>:
     a30:	013906c1 	teqeq	r9, r1, asr #13

00000a34 <l527>:
     a34:	a133000b 	teqge	r3, fp

00000a38 <l528>:
     a38:	e1310409 	teq	r1, r9, lsl #8

00000a3c <l529>:
     a3c:	e1320006 	teq	r2, r6

00000a40 <l530>:
     a40:	61320002 	teqvs	r2, r2

00000a44 <l531>:
     a44:	5337063e 	teqpl	r7, #65011712	; 0x3e00000

00000a48 <l532>:
     a48:	033f0ee7 	teqeq	pc, #3696	; 0xe70

00000a4c <l533>:
     a4c:	a131077b 	teqge	r1, fp, ror r7

00000a50 <l534>:
     a50:	013a006c 	teqeq	sl, ip, rrx

00000a54 <l535>:
     a54:	a1380e3b 	teqge	r8, fp, lsr lr

00000a58 <l536>:
     a58:	e13b006e 	teq	fp, lr, rrx

00000a5c <l537>:
     a5c:	21350003 	teqcs	r5, r3

00000a60 <l538>:
     a60:	533b0907 	teqpl	fp, #114688	; 0x1c000

00000a64 <l539>:
     a64:	813c0005 	teqhi	ip, r5

00000a68 <l540>:
     a68:	31390377 	teqcc	r9, r7, ror r3

00000a6c <l541>:
     a6c:	e33c038d 	teq	ip, #872415234	; 0x34000002

00000a70 <l542>:
     a70:	e3330976 	teq	r3, #1933312	; 0x1d8000

00000a74 <l543>:
     a74:	e1390e1a 	teq	r9, sl, lsl lr

00000a78 <l544>:
     a78:	c339032b 	teqgt	r9, #-1409286144	; 0xac000000

00000a7c <l545>:
     a7c:	c33c0109 	teqgt	ip, #1073741826	; 0x40000002

00000a80 <l546>:
     a80:	e1380241 	teq	r8, r1, asr #4

00000a84 <l547>:
     a84:	e13f0009 	teq	pc, r9

00000a88 <l548>:
     a88:	e1340a0b 	teq	r4, fp, lsl #20

00000a8c <l549>:
     a8c:	a13c0069 	teqge	ip, r9, rrx

00000a90 <l550>:
     a90:	e1380b16 	teq	r8, r6, lsl fp

00000a94 <l551>:
     a94:	e13e000a 	teq	lr, sl

00000a98 <l552>:
     a98:	333c0561 	teqcc	ip, #406847488	; 0x18400000

00000a9c <l553>:
     a9c:	43340731 	teqmi	r4, #12845056	; 0xc40000

00000aa0 <l554>:
     aa0:	81320c04 	teqhi	r2, r4, lsl #24

00000aa4 <l555>:
     aa4:	03370503 	teqeq	r7, #12582912	; 0xc00000

00000aa8 <l556>:
     aa8:	c1310001 	teqgt	r1, r1

00000aac <l557>:
     aac:	513f0005 	teqpl	pc, r5

00000ab0 <l558>:
     ab0:	d13c051e 	teqle	ip, lr, lsl r5

00000ab4 <l559>:
     ab4:	e132035a 	teq	r2, sl, asr r3

00000ab8 <l560>:
     ab8:	91310735 	teqls	r1, r5, lsr r7

00000abc <l561>:
     abc:	0138000f 	teqeq	r8, pc

00000ac0 <l562>:
     ac0:	e13c0060 	teq	ip, r0, rrx

00000ac4 <l563>:
     ac4:	613f000f 	teqvs	pc, pc

00000ac8 <l564>:
     ac8:	c1370570 	teqgt	r7, r0, ror r5

00000acc <l565>:
     acc:	e1320238 	teq	r2, r8, lsr r2

00000ad0 <l566>:
     ad0:	c1340530 	teqgt	r4, r0, lsr r5

00000ad4 <l567>:
     ad4:	9130081c 	teqls	r0, ip, lsl r8

00000ad8 <l568>:
     ad8:	b1370574 	teqlt	r7, r4, ror r5

00000adc <l569>:
     adc:	e33808f1 	teq	r8, #15794176	; 0xf10000

00000ae0 <l570>:
     ae0:	91350910 	teqls	r5, r0, lsl r9

00000ae4 <l571>:
     ae4:	d137071a 	teqle	r7, sl, lsl r7

00000ae8 <l572>:
     ae8:	71310002 	teqvc	r1, r2

00000aec <l573>:
     aec:	4135006e 	teqmi	r5, lr, rrx

00000af0 <l574>:
     af0:	e139051b 	teq	r9, fp, lsl r5

00000af4 <l575>:
     af4:	e1330060 	teq	r3, r0, rrx

00000af8 <l576>:
     af8:	e1370008 	teq	r7, r8

00000afc <l577>:
     afc:	c1380a79 	teqgt	r8, r9, ror sl

00000b00 <l578>:
     b00:	e1390224 	teq	r9, r4, lsr #4

00000b04 <l579>:
     b04:	213b0001 	teqcs	fp, r1

00000b08 <l580>:
     b08:	533a00eb 	teqpl	sl, #235	; 0xeb

00000b0c <l581>:
     b0c:	a3340931 	teqge	r4, #802816	; 0xc4000

00000b10 <l582>:
     b10:	83340161 	teqhi	r4, #1073741848	; 0x40000018

00000b14 <l583>:
     b14:	a13c000c 	teqge	ip, ip

00000b18 <l584>:
     b18:	e13f0a23 	teq	pc, r3, lsr #20

00000b1c <l585>:
     b1c:	613f0006 	teqvs	pc, r6

00000b20 <l586>:
     b20:	61340061 	teqvs	r4, r1, rrx

00000b24 <l587>:
     b24:	733a058a 	teqvc	sl, #578813952	; 0x22800000

00000b28 <l588>:
     b28:	213a0314 	teqcs	sl, r4, lsl r3

00000b2c <l589>:
     b2c:	133202c3 	teqne	r2, #805306380	; 0x3000000c

00000b30 <l590>:
     b30:	e3330a4a 	teq	r3, #303104	; 0x4a000

00000b34 <l591>:
     b34:	e13c000a 	teq	ip, sl

00000b38 <l592>:
     b38:	5138006c 	teqpl	r8, ip, rrx

00000b3c <l593>:
     b3c:	8135000c 	teqhi	r5, ip

00000b40 <l594>:
     b40:	e3360b07 	teq	r6, #7168	; 0x1c00

00000b44 <l595>:
     b44:	e1350540 	teq	r5, r0, asr #10

00000b48 <l596>:
     b48:	01300a3e 	teqeq	r0, lr, lsr sl

00000b4c <l597>:
     b4c:	213a000c 	teqcs	sl, ip

00000b50 <l598>:
     b50:	e132000a 	teq	r2, sl

00000b54 <l599>:
     b54:	71360d2e 	teqvc	r6, lr, lsr #26

00000b58 <l600>:
     b58:	e13a0062 	teq	sl, r2, rrx

00000b5c <l601>:
     b5c:	51380b15 	teqpl	r8, r5, lsl fp

00000b60 <l602>:
     b60:	4138000a 	teqmi	r8, sl

00000b64 <l603>:
     b64:	5130094f 	teqpl	r0, pc, asr #18

00000b68 <l604>:
     b68:	e1350003 	teq	r5, r3

00000b6c <l605>:
     b6c:	e13f000a 	teq	pc, sl

00000b70 <l606>:
     b70:	81300000 	teqhi	r0, r0

00000b74 <l607>:
     b74:	91300069 	teqls	r0, r9, rrx

00000b78 <l608>:
     b78:	e1310038 	teq	r1, r8, lsr r0

00000b7c <l609>:
     b7c:	e1340522 	teq	r4, r2, lsr #10

00000b80 <l610>:
     b80:	d13e0000 	teqle	lr, r0

00000b84 <l611>:
     b84:	e1350d62 	teq	r5, r2, ror #26

00000b88 <l612>:
     b88:	e13b0c4f 	teq	fp, pc, asr #24

00000b8c <l613>:
     b8c:	e1310062 	teq	r1, r2, rrx

00000b90 <l614>:
     b90:	e13c0118 	teq	ip, r8, lsl r1

00000b94 <l615>:
     b94:	833607b1 	teqhi	r6, #46399488	; 0x2c40000

00000b98 <l616>:
     b98:	e1330078 	teq	r3, r8, ror r0

00000b9c <l617>:
     b9c:	333309c3 	teqcc	r3, #3194880	; 0x30c000

00000ba0 <l618>:
     ba0:	e13a0c5b 	teq	sl, fp, asr ip

00000ba4 <l619>:
     ba4:	e1380e2a 	teq	r8, sl, lsr #28

00000ba8 <l620>:
     ba8:	e139000e 	teq	r9, lr

00000bac <l621>:
     bac:	e13206ae 	teq	r2, lr, lsr #13

00000bb0 <l622>:
     bb0:	83360d22 	teqhi	r6, #2176	; 0x880

00000bb4 <l623>:
     bb4:	e3360a0b 	teq	r6, #45056	; 0xb000

00000bb8 <l624>:
     bb8:	e13806a1 	teq	r8, r1, lsr #13

00000bbc <l625>:
     bbc:	d3330616 	teqle	r3, #23068672	; 0x1600000

00000bc0 <l626>:
     bc0:	a3350957 	teqge	r5, #1425408	; 0x15c000

00000bc4 <l627>:
     bc4:	213e006a 	teqcs	lr, sl, rrx

00000bc8 <l628>:
     bc8:	7131000c 	teqvc	r1, ip

00000bcc <l629>:
     bcc:	b13f0067 	teqlt	pc, r7, rrx

00000bd0 <l630>:
     bd0:	e1350003 	teq	r5, r3

00000bd4 <l631>:
     bd4:	d137000f 	teqle	r7, pc

00000bd8 <l632>:
     bd8:	e13c0e12 	teq	ip, r2, lsl lr

00000bdc <l633>:
     bdc:	81340c85 	teqhi	r4, r5, lsl #25

00000be0 <l634>:
     be0:	8134000e 	teqhi	r4, lr

00000be4 <l635>:
     be4:	e1370a7c 	teq	r7, ip, ror sl

00000be8 <l636>:
     be8:	0138000f 	teqeq	r8, pc

00000bec <l637>:
     bec:	e1320570 	teq	r2, r0, ror r5

00000bf0 <l638>:
     bf0:	0135000b 	teqeq	r5, fp

00000bf4 <l639>:
     bf4:	e134080f 	teq	r4, pc, lsl #16

00000bf8 <l640>:
     bf8:	713c0065 	teqvc	ip, r5, rrx

00000bfc <l641>:
     bfc:	21370008 	teqcs	r7, r8

00000c00 <l642>:
     c00:	e13f0068 	teq	pc, r8, rrx

00000c04 <l643>:
     c04:	01340004 	teqeq	r4, r4

00000c08 <l644>:
     c08:	e33c0739 	teq	ip, #14942208	; 0xe40000

00000c0c <l645>:
     c0c:	e13b0000 	teq	fp, r0

00000c10 <l646>:
     c10:	e1320739 	teq	r2, r9, lsr r7

00000c14 <l647>:
     c14:	a1370778 	teqge	r7, r8, ror r7

00000c18 <l648>:
     c18:	e1390005 	teq	r9, r5

00000c1c <l649>:
     c1c:	b1370062 	teqlt	r7, r2, rrx

00000c20 <l650>:
     c20:	21330a39 	teqcs	r3, r9, lsr sl

00000c24 <l651>:
     c24:	e136033a 	teq	r6, sl, lsr r3

00000c28 <l652>:
     c28:	31370056 	teqcc	r7, r6, asr r0

00000c2c <l653>:
     c2c:	e13c0007 	teq	ip, r7

00000c30 <l654>:
     c30:	e1350542 	teq	r5, r2, asr #10

00000c34 <l655>:
     c34:	53310322 	teqpl	r1, #-2013265920	; 0x88000000

00000c38 <l656>:
     c38:	e1310c32 	teq	r1, r2, lsr ip

00000c3c <l657>:
     c3c:	413b0f4e 	teqmi	fp, lr, asr #30

00000c40 <l658>:
     c40:	113a0007 	teqne	sl, r7

00000c44 <l659>:
     c44:	913903e4 	teqls	r9, r4, ror #7

00000c48 <l660>:
     c48:	e1330009 	teq	r3, r9

00000c4c <l661>:
     c4c:	e13c0b18 	teq	ip, r8, lsl fp

00000c50 <l662>:
     c50:	e33a0303 	teq	sl, #201326592	; 0xc000000

00000c54 <l663>:
     c54:	d135006a 	teqle	r5, sl, rrx

00000c58 <l664>:
     c58:	e1330061 	teq	r3, r1, rrx

00000c5c <l665>:
     c5c:	e1330062 	teq	r3, r2, rrx

00000c60 <l666>:
     c60:	e13a0c48 	teq	sl, r8, asr #24

00000c64 <l667>:
     c64:	e33a042e 	teq	sl, #771751936	; 0x2e000000

00000c68 <l668>:
     c68:	c1320356 	teqgt	r2, r6, asr r3

00000c6c <l669>:
     c6c:	d1330252 	teqle	r3, r2, asr r2

00000c70 <l670>:
     c70:	e1370000 	teq	r7, r0

00000c74 <l671>:
     c74:	61310003 	teqvs	r1, r3

00000c78 <l672>:
     c78:	e13f006a 	teq	pc, sl, rrx

00000c7c <l673>:
     c7c:	213e0e4b 	teqcs	lr, fp, asr #28

00000c80 <l674>:
     c80:	213f0562 	teqcs	pc, r2, ror #10

00000c84 <l675>:
     c84:	233b0943 	teqcs	fp, #1097728	; 0x10c000

00000c88 <l676>:
     c88:	e13000cc 	teq	r0, ip, asr #1

00000c8c <l677>:
     c8c:	e1370943 	teq	r7, r3, asr #18

00000c90 <l678>:
     c90:	61340835 	teqvs	r4, r5, lsr r8

00000c94 <l679>:
     c94:	41370214 	teqmi	r7, r4, lsl r2

00000c98 <l680>:
     c98:	033c0fed 	teqeq	ip, #948	; 0x3b4

00000c9c <l681>:
     c9c:	e3310dad 	teq	r1, #11072	; 0x2b40

00000ca0 <l682>:
     ca0:	e13c000e 	teq	ip, lr

00000ca4 <l683>:
     ca4:	e13a0150 	teq	sl, r0, asr r1

00000ca8 <l684>:
     ca8:	5139006e 	teqpl	r9, lr, rrx

00000cac <l685>:
     cac:	e13e08a9 	teq	lr, r9, lsr #17

00000cb0 <l686>:
     cb0:	b138027a 	teqlt	r8, sl, ror r2

00000cb4 <l687>:
     cb4:	31370b56 	teqcc	r7, r6, asr fp

00000cb8 <l688>:
     cb8:	1336072a 	teqne	r6, #11010048	; 0xa80000

00000cbc <l689>:
     cbc:	d133000f 	teqle	r3, pc

00000cc0 <l690>:
     cc0:	e1380067 	teq	r8, r7, rrx

00000cc4 <l691>:
     cc4:	e33b0078 	teq	fp, #120	; 0x78

00000cc8 <l692>:
     cc8:	a13c0006 	teqge	ip, r6

00000ccc <l693>:
     ccc:	d1300009 	teqle	r0, r9

00000cd0 <l694>:
     cd0:	21350061 	teqcs	r5, r1, rrx

00000cd4 <l695>:
     cd4:	e335027f 	teq	r5, #-268435449	; 0xf0000007

00000cd8 <l696>:
     cd8:	a13c091a 	teqge	ip, sl, lsl r9

00000cdc <l697>:
     cdc:	e13104aa 	teq	r1, sl, lsr #9

00000ce0 <l698>:
     ce0:	83310927 	teqhi	r1, #638976	; 0x9c000

00000ce4 <l699>:
     ce4:	31310670 	teqcc	r1, r0, ror r6

00000ce8 <l700>:
     ce8:	313e0000 	teqcc	lr, r0

00000cec <l701>:
     cec:	e3340113 	teq	r4, #-1073741820	; 0xc0000004

00000cf0 <l702>:
     cf0:	e13a01a4 	teq	sl, r4, lsr #3

00000cf4 <l703>:
     cf4:	c1380a23 	teqgt	r8, r3, lsr #20

00000cf8 <l704>:
     cf8:	e1350005 	teq	r5, r5

00000cfc <l705>:
     cfc:	113a0e39 	teqne	sl, r9, lsr lr

00000d00 <l706>:
     d00:	413e0275 	teqmi	lr, r5, ror r2

00000d04 <l707>:
     d04:	e13b0834 	teq	fp, r4, lsr r8

00000d08 <l708>:
     d08:	e13b0005 	teq	fp, r5

00000d0c <l709>:
     d0c:	e13a006b 	teq	sl, fp, rrx

00000d10 <l710>:
     d10:	b1350105 	teqlt	r5, r5, lsl #2

00000d14 <l711>:
     d14:	e13007e7 	teq	r0, r7, ror #15

00000d18 <l712>:
     d18:	e33a0916 	teq	sl, #360448	; 0x58000

00000d1c <l713>:
     d1c:	213f0003 	teqcs	pc, r3

00000d20 <l714>:
     d20:	e130006a 	teq	r0, sl, rrx

00000d24 <l715>:
     d24:	e135006e 	teq	r5, lr, rrx

00000d28 <l716>:
     d28:	11380084 	teqne	r8, r4, lsl #1

00000d2c <l717>:
     d2c:	e13c0064 	teq	ip, r4, rrx

00000d30 <l718>:
     d30:	e1310a34 	teq	r1, r4, lsr sl

00000d34 <l719>:
     d34:	e33f078e 	teq	pc, #37224448	; 0x2380000

00000d38 <l720>:
     d38:	e1350650 	teq	r5, r0, asr r6

00000d3c <l721>:
     d3c:	913e000e 	teqls	lr, lr

00000d40 <l722>:
     d40:	413b006a 	teqmi	fp, sl, rrx

00000d44 <l723>:
     d44:	51360b45 	teqpl	r6, r5, asr #22

00000d48 <l724>:
     d48:	53360722 	teqpl	r6, #8912896	; 0x880000

00000d4c <l725>:
     d4c:	e33c06cb 	teq	ip, #212860928	; 0xcb00000

00000d50 <l726>:
     d50:	e1320d24 	teq	r2, r4, lsr #26

00000d54 <l727>:
     d54:	e13a0005 	teq	sl, r5

00000d58 <l728>:
     d58:	e1380008 	teq	r8, r8

00000d5c <l729>:
     d5c:	e135035b 	teq	r5, fp, asr r3

00000d60 <l730>:
     d60:	3135000b 	teqcc	r5, fp

00000d64 <l731>:
     d64:	b3370712 	teqlt	r7, #4718592	; 0x480000

00000d68 <l732>:
     d68:	e33a095e 	teq	sl, #1540096	; 0x178000

00000d6c <l733>:
     d6c:	e13c0535 	teq	ip, r5, lsr r5

00000d70 <l734>:
     d70:	5132000c 	teqpl	r2, ip

00000d74 <l735>:
     d74:	31330373 	teqcc	r3, r3, ror r3

00000d78 <l736>:
     d78:	b132000f 	teqlt	r2, pc

00000d7c <l737>:
     d7c:	e132000c 	teq	r2, ip

00000d80 <l738>:
     d80:	a33c0277 	teqge	ip, #1879048199	; 0x70000007

00000d84 <l739>:
     d84:	e13e000b 	teq	lr, fp

00000d88 <l740>:
     d88:	a13801af 	teqge	r8, pc, lsr #3

00000d8c <l741>:
     d8c:	633b0291 	teqvs	fp, #268435465	; 0x10000009

00000d90 <l742>:
     d90:	813b000f 	teqhi	fp, pc

00000d94 <l743>:
     d94:	9136000b 	teqls	r6, fp

00000d98 <l744>:
     d98:	e1350b35 	teq	r5, r5, lsr fp

00000d9c <l745>:
     d9c:	533c08d6 	teqpl	ip, #14024704	; 0xd60000

00000da0 <l746>:
     da0:	a3350cd6 	teqge	r5, #54784	; 0xd600

00000da4 <l747>:
     da4:	e13e0061 	teq	lr, r1, rrx

00000da8 <l748>:
     da8:	433603cf 	teqmi	r6, #1006632963	; 0x3c000003

00000dac <l749>:
     dac:	b13b0dea 	teqlt	fp, sl, ror #27

00000db0 <l750>:
     db0:	a331080f 	teqge	r1, #983040	; 0xf0000

00000db4 <l751>:
     db4:	b1320617 	teqlt	r2, r7, lsl r6

00000db8 <l752>:
     db8:	61360a7a 	teqvs	r6, sl, ror sl

00000dbc <l753>:
     dbc:	e134000a 	teq	r4, sl

00000dc0 <l754>:
     dc0:	e33c0030 	teq	ip, #48	; 0x30

00000dc4 <l755>:
     dc4:	51320770 	teqpl	r2, r0, ror r7

00000dc8 <l756>:
     dc8:	e1370174 	teq	r7, r4, ror r1

00000dcc <l757>:
     dcc:	513608eb 	teqpl	r6, fp, ror #17

00000dd0 <l758>:
     dd0:	d134006e 	teqle	r4, lr, rrx

00000dd4 <l759>:
     dd4:	b13c02c3 	teqlt	ip, r3, asr #5

00000dd8 <l760>:
     dd8:	e1320064 	teq	r2, r4, rrx

00000ddc <l761>:
     ddc:	c1380c65 	teqgt	r8, r5, ror #24

00000de0 <l762>:
     de0:	513c006c 	teqpl	ip, ip, rrx

00000de4 <l763>:
     de4:	333b0191 	teqcc	fp, #1073741860	; 0x40000024

00000de8 <l764>:
     de8:	d33e0557 	teqle	lr, #364904448	; 0x15c00000

00000dec <l765>:
     dec:	6135045c 	teqvs	r5, ip, asr r4

00000df0 <l766>:
     df0:	313506ee 	teqcc	r5, lr, ror #13

00000df4 <l767>:
     df4:	e3350d15 	teq	r5, #1344	; 0x540

00000df8 <l768>:
     df8:	01330634 	teqeq	r3, r4, lsr r6

00000dfc <l769>:
     dfc:	e1390c33 	teq	r9, r3, lsr ip

00000e00 <l770>:
     e00:	113c0066 	teqne	ip, r6, rrx

00000e04 <l771>:
     e04:	e13f000b 	teq	pc, fp

00000e08 <l772>:
     e08:	213b000c 	teqcs	fp, ip

00000e0c <l773>:
     e0c:	613e0f47 	teqvs	lr, r7, asr #30

00000e10 <l774>:
     e10:	e33003a2 	teq	r0, #-2013265918	; 0x88000002

00000e14 <l775>:
     e14:	21360008 	teqcs	r6, r8

00000e18 <l776>:
     e18:	e3390583 	teq	r9, #549453824	; 0x20c00000

00000e1c <l777>:
     e1c:	81390067 	teqhi	r9, r7, rrx

00000e20 <l778>:
     e20:	e338009d 	teq	r8, #157	; 0x9d

00000e24 <l779>:
     e24:	133600b3 	teqne	r6, #179	; 0xb3

00000e28 <l780>:
     e28:	e1300b69 	teq	r0, r9, ror #22

00000e2c <l781>:
     e2c:	c1380413 	teqgt	r8, r3, lsl r4

00000e30 <l782>:
     e30:	11300ca7 	teqne	r0, r7, lsr #25

00000e34 <l783>:
     e34:	c1350e3c 	teqgt	r5, ip, lsr lr

00000e38 <l784>:
     e38:	e33e0cbd 	teq	lr, #48384	; 0xbd00

00000e3c <l785>:
     e3c:	e13c0151 	teq	ip, r1, asr r1

00000e40 <l786>:
     e40:	113a0007 	teqne	sl, r7

00000e44 <l787>:
     e44:	51370003 	teqpl	r7, r3

00000e48 <l788>:
     e48:	e33003b5 	teq	r0, #-738197502	; 0xd4000002

00000e4c <l789>:
     e4c:	e1300a76 	teq	r0, r6, ror sl

00000e50 <l790>:
     e50:	e13e0006 	teq	lr, r6

00000e54 <l791>:
     e54:	133f0ad1 	teqne	pc, #856064	; 0xd1000

00000e58 <l792>:
     e58:	d13e081c 	teqle	lr, ip, lsl r8

00000e5c <l793>:
     e5c:	c13e0920 	teqgt	lr, r0, lsr #18

00000e60 <l794>:
     e60:	e1330107 	teq	r3, r7, lsl #2

00000e64 <l795>:
     e64:	41360533 	teqmi	r6, r3, lsr r5

00000e68 <l796>:
     e68:	133e0a8d 	teqne	lr, #577536	; 0x8d000

00000e6c <l797>:
     e6c:	41320b38 	teqmi	r2, r8, lsr fp

00000e70 <l798>:
     e70:	93370335 	teqls	r7, #-738197504	; 0xd4000000

00000e74 <l799>:
     e74:	813b0065 	teqhi	fp, r5, rrx

00000e78 <l800>:
     e78:	113e0c64 	teqne	lr, r4, ror #24

00000e7c <l801>:
     e7c:	e33202e1 	teq	r2, #268435470	; 0x1000000e

00000e80 <l802>:
     e80:	e13403aa 	teq	r4, sl, lsr #7

00000e84 <l803>:
     e84:	e13a0a5b 	teq	sl, fp, asr sl

00000e88 <l804>:
     e88:	e13c0503 	teq	ip, r3, lsl #10

00000e8c <l805>:
     e8c:	313804c6 	teqcc	r8, r6, asr #9

00000e90 <l806>:
     e90:	4137000a 	teqmi	r7, sl

00000e94 <l807>:
     e94:	e134000b 	teq	r4, fp

00000e98 <l808>:
     e98:	83330ffb 	teqhi	r3, #1004	; 0x3ec

00000e9c <l809>:
     e9c:	c13e0065 	teqgt	lr, r5, rrx

00000ea0 <l810>:
     ea0:	e13b0063 	teq	fp, r3, rrx

00000ea4 <l811>:
     ea4:	e13600e7 	teq	r6, r7, ror #1

00000ea8 <l812>:
     ea8:	2137000f 	teqcs	r7, pc

00000eac <l813>:
     eac:	e33a0229 	teq	sl, #-1879048190	; 0x90000002

00000eb0 <l814>:
     eb0:	e1390066 	teq	r9, r6, rrx

00000eb4 <l815>:
     eb4:	e33300c0 	teq	r3, #192	; 0xc0

00000eb8 <l816>:
     eb8:	6138000a 	teqvs	r8, sl

00000ebc <l817>:
     ebc:	513b030e 	teqpl	fp, lr, lsl #6

00000ec0 <l818>:
     ec0:	e1300c0f 	teq	r0, pc, lsl #24

00000ec4 <l819>:
     ec4:	71370c58 	teqvc	r7, r8, asr ip

00000ec8 <l820>:
     ec8:	11370001 	teqne	r7, r1

00000ecc <l821>:
     ecc:	7136070b 	teqvc	r6, fp, lsl #14

00000ed0 <l822>:
     ed0:	e1320008 	teq	r2, r8

00000ed4 <l823>:
     ed4:	e13c0007 	teq	ip, r7

00000ed8 <l824>:
     ed8:	e138000a 	teq	r8, sl

00000edc <l825>:
     edc:	233b0f59 	teqcs	fp, #356	; 0x164

00000ee0 <l826>:
     ee0:	31360554 	teqcc	r6, r4, asr r5

00000ee4 <l827>:
     ee4:	e1320d26 	teq	r2, r6, lsr #26

00000ee8 <l828>:
     ee8:	e1310cec 	teq	r1, ip, ror #25

00000eec <l829>:
     eec:	e33b044d 	teq	fp, #1291845632	; 0x4d000000

00000ef0 <l830>:
     ef0:	433a00f8 	teqmi	sl, #248	; 0xf8

00000ef4 <l831>:
     ef4:	c13e0839 	teqgt	lr, r9, lsr r8

00000ef8 <l832>:
     ef8:	51360007 	teqpl	r6, r7

00000efc <l833>:
     efc:	c1340c33 	teqgt	r4, r3, lsr ip

00000f00 <l834>:
     f00:	e13e0426 	teq	lr, r6, lsr #8

00000f04 <l835>:
     f04:	a13a0062 	teqge	sl, r2, rrx

00000f08 <l836>:
     f08:	e13a0003 	teq	sl, r3

00000f0c <l837>:
     f0c:	e13e018e 	teq	lr, lr, lsl #3

00000f10 <l838>:
     f10:	21380005 	teqcs	r8, r5

00000f14 <l839>:
     f14:	c1340066 	teqgt	r4, r6, rrx

00000f18 <l840>:
     f18:	413a0003 	teqmi	sl, r3

00000f1c <l841>:
     f1c:	e13f0061 	teq	pc, r1, rrx

00000f20 <l842>:
     f20:	c13e0a33 	teqgt	lr, r3, lsr sl

00000f24 <l843>:
     f24:	e1310624 	teq	r1, r4, lsr #12

00000f28 <l844>:
     f28:	913e0004 	teqls	lr, r4

00000f2c <l845>:
     f2c:	b33b048d 	teqlt	fp, #-1929379840	; 0x8d000000

00000f30 <l846>:
     f30:	91350065 	teqls	r5, r5, rrx

00000f34 <l847>:
     f34:	313b06e6 	teqcc	fp, r6, ror #13

00000f38 <l848>:
     f38:	1130000a 	teqne	r0, sl

00000f3c <l849>:
     f3c:	61330004 	teqvs	r3, r4

00000f40 <l850>:
     f40:	e1360bec 	teq	r6, ip, ror #23

00000f44 <l851>:
     f44:	513f0007 	teqpl	pc, r7

00000f48 <l852>:
     f48:	e1360719 	teq	r6, r9, lsl r7

00000f4c <l853>:
     f4c:	e33b051f 	teq	fp, #130023424	; 0x7c00000

00000f50 <l854>:
     f50:	33320672 	teqcc	r2, #119537664	; 0x7200000

00000f54 <l855>:
     f54:	61340006 	teqvs	r4, r6

00000f58 <l856>:
     f58:	e33300a9 	teq	r3, #169	; 0xa9

00000f5c <l857>:
     f5c:	e134006c 	teq	r4, ip, rrx

00000f60 <l858>:
     f60:	b1320009 	teqlt	r2, r9

00000f64 <l859>:
     f64:	b1300ca9 	teqlt	r0, r9, lsr #25

00000f68 <l860>:
     f68:	a13b0062 	teqge	fp, r2, rrx

00000f6c <l861>:
     f6c:	533b093a 	teqpl	fp, #950272	; 0xe8000

00000f70 <l862>:
     f70:	e33a09c2 	teq	sl, #3178496	; 0x308000

00000f74 <l863>:
     f74:	e13c0457 	teq	ip, r7, asr r4

00000f78 <l864>:
     f78:	e1360a08 	teq	r6, r8, lsl #20

00000f7c <l865>:
     f7c:	313b0002 	teqcc	fp, r2

00000f80 <l866>:
     f80:	e3360431 	teq	r6, #822083584	; 0x31000000

00000f84 <l867>:
     f84:	e1320c8b 	teq	r2, fp, lsl #25

00000f88 <l868>:
     f88:	e131073c 	teq	r1, ip, lsr r7

00000f8c <l869>:
     f8c:	e1360151 	teq	r6, r1, asr r1

00000f90 <l870>:
     f90:	63390b06 	teqvs	r9, #6144	; 0x1800

00000f94 <l871>:
     f94:	e130000c 	teq	r0, ip

00000f98 <l872>:
     f98:	b1380551 	teqlt	r8, r1, asr r5

00000f9c <l873>:
     f9c:	e1300425 	teq	r0, r5, lsr #8

00000fa0 <l874>:
     fa0:	6137000e 	teqvs	r7, lr

00000fa4 <l875>:
     fa4:	e13a0b6e 	teq	sl, lr, ror #22

00000fa8 <l876>:
     fa8:	e13b0252 	teq	fp, r2, asr r2

00000fac <l877>:
     fac:	e13f0cc6 	teq	pc, r6, asr #25

00000fb0 <l878>:
     fb0:	e13c0001 	teq	ip, r1

00000fb4 <l879>:
     fb4:	013b0b52 	teqeq	fp, r2, asr fp

00000fb8 <l880>:
     fb8:	e131035b 	teq	r1, fp, asr r3

00000fbc <l881>:
     fbc:	813a0287 	teqhi	sl, r7, lsl #5

00000fc0 <l882>:
     fc0:	c1390069 	teqgt	r9, r9, rrx

00000fc4 <l883>:
     fc4:	b13b000f 	teqlt	fp, pc

00000fc8 <l884>:
     fc8:	b3330d0f 	teqlt	r3, #960	; 0x3c0

00000fcc <l885>:
     fcc:	61390007 	teqvs	r9, r7

00000fd0 <l886>:
     fd0:	0332035e 	teqeq	r2, #2013265921	; 0x78000001

00000fd4 <l887>:
     fd4:	e3390055 	teq	r9, #85	; 0x55

00000fd8 <l888>:
     fd8:	e1370a15 	teq	r7, r5, lsl sl

00000fdc <l889>:
     fdc:	83300ac1 	teqhi	r0, #790528	; 0xc1000

00000fe0 <l890>:
     fe0:	213706ac 	teqcs	r7, ip, lsr #13

00000fe4 <l891>:
     fe4:	d339063b 	teqle	r9, #61865984	; 0x3b00000

00000fe8 <l892>:
     fe8:	113c0060 	teqne	ip, r0, rrx

00000fec <l893>:
     fec:	e13a02e2 	teq	sl, r2, ror #5

00000ff0 <l894>:
     ff0:	e3320d43 	teq	r2, #4288	; 0x10c0

00000ff4 <l895>:
     ff4:	113f000c 	teqne	pc, ip

00000ff8 <l896>:
     ff8:	e13c0a74 	teq	ip, r4, ror sl

00000ffc <l897>:
     ffc:	b132000b 	teqlt	r2, fp

00001000 <l898>:
    1000:	e13e0776 	teq	lr, r6, ror r7

00001004 <l899>:
    1004:	01330004 	teqeq	r3, r4

00001008 <l900>:
    1008:	a33101ba 	teqge	r1, #-2147483602	; 0x8000002e

0000100c <l901>:
    100c:	e132006e 	teq	r2, lr, rrx

00001010 <l902>:
    1010:	2130001e 	teqcs	r0, lr, lsl r0

00001014 <l903>:
    1014:	213a0065 	teqcs	sl, r5, rrx

00001018 <l904>:
    1018:	e13f000a 	teq	pc, sl

0000101c <l905>:
    101c:	b1370061 	teqlt	r7, r1, rrx

00001020 <l906>:
    1020:	d1360c44 	teqle	r6, r4, asr #24

00001024 <l907>:
    1024:	b1300e7a 	teqlt	r0, sl, ror lr

00001028 <l908>:
    1028:	e13a000c 	teq	sl, ip

0000102c <l909>:
    102c:	c33a0cd5 	teqgt	sl, #54528	; 0xd500

00001030 <l910>:
    1030:	7132000e 	teqvc	r2, lr

00001034 <l911>:
    1034:	e3330b81 	teq	r3, #132096	; 0x20400

00001038 <l912>:
    1038:	e33f012e 	teq	pc, #-2147483637	; 0x8000000b

0000103c <l913>:
    103c:	e13b0a82 	teq	fp, r2, lsl #21

00001040 <l914>:
    1040:	9135038b 	teqls	r5, fp, lsl #7

00001044 <l915>:
    1044:	c33b01d9 	teqgt	fp, #1073741878	; 0x40000036

00001048 <l916>:
    1048:	91370001 	teqls	r7, r1

0000104c <l917>:
    104c:	013f0185 	teqeq	pc, r5, lsl #3

00001050 <l918>:
    1050:	b3330359 	teqlt	r3, #1677721601	; 0x64000001

00001054 <l919>:
    1054:	e33b0676 	teq	fp, #123731968	; 0x7600000

00001058 <l920>:
    1058:	61390068 	teqvs	r9, r8, rrx

0000105c <l921>:
    105c:	e13002a6 	teq	r0, r6, lsr #5

00001060 <l922>:
    1060:	b1330544 	teqlt	r3, r4, asr #10

00001064 <l923>:
    1064:	51330066 	teqpl	r3, r6, rrx

00001068 <l924>:
    1068:	c13302e2 	teqgt	r3, r2, ror #5

0000106c <l925>:
    106c:	d33f0105 	teqle	pc, #1073741825	; 0x40000001

00001070 <l926>:
    1070:	e1310e76 	teq	r1, r6, ror lr

00001074 <l927>:
    1074:	e33b0d3a 	teq	fp, #3712	; 0xe80

00001078 <l928>:
    1078:	01310565 	teqeq	r1, r5, ror #10

0000107c <l929>:
    107c:	a1340068 	teqge	r4, r8, rrx

00001080 <l930>:
    1080:	113308aa 	teqne	r3, sl, lsr #17

00001084 <l931>:
    1084:	d13c0e16 	teqle	ip, r6, lsl lr

00001088 <l932>:
    1088:	31320055 	teqcc	r2, r5, asr r0

0000108c <l933>:
    108c:	e136058f 	teq	r6, pc, lsl #11

00001090 <l934>:
    1090:	e13b000b 	teq	fp, fp

00001094 <l935>:
    1094:	333800cc 	teqcc	r8, #204	; 0xcc

00001098 <l936>:
    1098:	43310b37 	teqmi	r1, #56320	; 0xdc00

0000109c <l937>:
    109c:	31310069 	teqcc	r1, r9, rrx

000010a0 <l938>:
    10a0:	e1340006 	teq	r4, r6

000010a4 <l939>:
    10a4:	313b0067 	teqcc	fp, r7, rrx

000010a8 <l940>:
    10a8:	e3330615 	teq	r3, #22020096	; 0x1500000

000010ac <l941>:
    10ac:	e137000b 	teq	r7, fp

000010b0 <l942>:
    10b0:	91320000 	teqls	r2, r0

000010b4 <l943>:
    10b4:	41300da5 	teqmi	r0, r5, lsr #27

000010b8 <l944>:
    10b8:	d1340d40 	teqle	r4, r0, asr #26

000010bc <l945>:
    10bc:	e3300d2b 	teq	r0, #2752	; 0xac0

000010c0 <l946>:
    10c0:	51320404 	teqpl	r2, r4, lsl #8

000010c4 <l947>:
    10c4:	01340007 	teqeq	r4, r7

000010c8 <l948>:
    10c8:	933a0327 	teqls	sl, #-1677721600	; 0x9c000000

000010cc <l949>:
    10cc:	e1320009 	teq	r2, r9

000010d0 <l950>:
    10d0:	e1310004 	teq	r1, r4

000010d4 <l951>:
    10d4:	013b0c78 	teqeq	fp, r8, ror ip

000010d8 <l952>:
    10d8:	e138006e 	teq	r8, lr, rrx

000010dc <l953>:
    10dc:	e1330008 	teq	r3, r8

000010e0 <l954>:
    10e0:	d13009e7 	teqle	r0, r7, ror #19

000010e4 <l955>:
    10e4:	513302ab 	teqpl	r3, fp, lsr #5

000010e8 <l956>:
    10e8:	41350003 	teqmi	r5, r3

000010ec <l957>:
    10ec:	e1310e74 	teq	r1, r4, ror lr

000010f0 <l958>:
    10f0:	a1300012 	teqge	r0, r2, lsl r0

000010f4 <l959>:
    10f4:	613a048e 	teqvs	sl, lr, lsl #9

000010f8 <l960>:
    10f8:	e3300059 	teq	r0, #89	; 0x59

000010fc <l961>:
    10fc:	e137006f 	teq	r7, pc, rrx

00001100 <l962>:
    1100:	813a000f 	teqhi	sl, pc

00001104 <l963>:
    1104:	41380116 	teqmi	r8, r6, lsl r1

00001108 <l964>:
    1108:	1135000e 	teqne	r5, lr

0000110c <l965>:
    110c:	43370119 	teqmi	r7, #1073741830	; 0x40000006

00001110 <l966>:
    1110:	c3330247 	teqgt	r3, #1879048196	; 0x70000004

00001114 <l967>:
    1114:	3134053c 	teqcc	r4, ip, lsr r5

00001118 <l968>:
    1118:	e1310715 	teq	r1, r5, lsl r7

0000111c <l969>:
    111c:	e132000f 	teq	r2, pc

00001120 <l970>:
    1120:	a336028f 	teqge	r6, #-268435448	; 0xf0000008

00001124 <l971>:
    1124:	6130071e 	teqvs	r0, lr, lsl r7

00001128 <l972>:
    1128:	e338002c 	teq	r8, #44	; 0x2c

0000112c <l973>:
    112c:	e1340302 	teq	r4, r2, lsl #6

00001130 <l974>:
    1130:	d137000a 	teqle	r7, sl

00001134 <l975>:
    1134:	81330131 	teqhi	r3, r1, lsr r1

00001138 <l976>:
    1138:	713b0ac8 	teqvc	fp, r8, asr #21

0000113c <l977>:
    113c:	e335026a 	teq	r5, #-1610612730	; 0xa0000006

00001140 <l978>:
    1140:	e1350b70 	teq	r5, r0, ror fp

00001144 <l979>:
    1144:	81370000 	teqhi	r7, r0

00001148 <l980>:
    1148:	e3350010 	teq	r5, #16

0000114c <l981>:
    114c:	6130013b 	teqvs	r0, fp, lsr r1

00001150 <l982>:
    1150:	613900a8 	teqvs	r9, r8, lsr #1

00001154 <l983>:
    1154:	413c0006 	teqmi	ip, r6

00001158 <l984>:
    1158:	6139000b 	teqvs	r9, fp

0000115c <l985>:
    115c:	e1380005 	teq	r8, r5

00001160 <l986>:
    1160:	313207ae 	teqcc	r2, lr, lsr #15

00001164 <l987>:
    1164:	b33a0b1e 	teqlt	sl, #30720	; 0x7800

00001168 <l988>:
    1168:	e1310d2a 	teq	r1, sl, lsr #26

0000116c <l989>:
    116c:	d13b0630 	teqle	fp, r0, lsr r6

00001170 <l990>:
    1170:	e139048a 	teq	r9, sl, lsl #9

00001174 <l991>:
    1174:	e130006f 	teq	r0, pc, rrx

00001178 <l992>:
    1178:	9134073b 	teqls	r4, fp, lsr r7

0000117c <l993>:
    117c:	61330453 	teqvs	r3, r3, asr r4

00001180 <l994>:
    1180:	413203af 	teqmi	r2, pc, lsr #7

00001184 <l995>:
    1184:	c3300cea 	teqgt	r0, #59904	; 0xea00

00001188 <l996>:
    1188:	e136000a 	teq	r6, sl

0000118c <l997>:
    118c:	e333056a 	teq	r3, #444596224	; 0x1a800000

00001190 <l998>:
    1190:	633801de 	teqvs	r8, #-2147483593	; 0x80000037

00001194 <l999>:
    1194:	01360063 	teqeq	r6, r3, rrx

00001198 <l1000>:
    1198:	51390069 	teqpl	r9, r9, rrx

0000119c <end>:
    119c:	eafffffe 	b	119c <end>
