
tst_1000.o:     file format elf32-littlearm


Disassembly of section .text:

00000000 <main>:
       0:	e05f000f 	subs	r0, pc, pc
       4:	e59fd000 	ldr	sp, [pc]	; c <val>
       8:	ea000000 	b	10 <next>

0000000c <val>:
       c:	000ffff0 	.word	0x000ffff0

00000010 <next>:
      10:	e59f1000 	ldr	r1, [pc]	; 18 <val1>
      14:	ea000000 	b	1c <next1>

00000018 <val1>:
      18:	6e71bcac 	.word	0x6e71bcac

0000001c <next1>:
      1c:	e59f2000 	ldr	r2, [pc]	; 24 <val2>
      20:	ea000000 	b	28 <next2>

00000024 <val2>:
      24:	c3a33650 	.word	0xc3a33650

00000028 <next2>:
      28:	e59f3000 	ldr	r3, [pc]	; 30 <val3>
      2c:	ea000000 	b	34 <next3>

00000030 <val3>:
      30:	684c66a3 	.word	0x684c66a3

00000034 <next3>:
      34:	e59f4000 	ldr	r4, [pc]	; 3c <val4>
      38:	ea000000 	b	40 <next4>

0000003c <val4>:
      3c:	f8694127 	.word	0xf8694127

00000040 <next4>:
      40:	e59f5000 	ldr	r5, [pc]	; 48 <val5>
      44:	ea000000 	b	4c <next5>

00000048 <val5>:
      48:	7ed338c6 	.word	0x7ed338c6

0000004c <next5>:
      4c:	e59f6000 	ldr	r6, [pc]	; 54 <val6>
      50:	ea000000 	b	58 <next6>

00000054 <val6>:
      54:	39db1ce1 	.word	0x39db1ce1

00000058 <next6>:
      58:	e59f7000 	ldr	r7, [pc]	; 60 <val7>
      5c:	ea000000 	b	64 <next7>

00000060 <val7>:
      60:	664fa523 	.word	0x664fa523

00000064 <next7>:
      64:	e59f8000 	ldr	r8, [pc]	; 6c <val8>
      68:	ea000000 	b	70 <next8>

0000006c <val8>:
      6c:	34664e5c 	.word	0x34664e5c

00000070 <next8>:
      70:	e59f9000 	ldr	r9, [pc]	; 78 <val9>
      74:	ea000000 	b	7c <next9>

00000078 <val9>:
      78:	f98bf167 	.word	0xf98bf167

0000007c <next9>:
      7c:	e59fa000 	ldr	sl, [pc]	; 84 <val10>
      80:	ea000000 	b	88 <next10>

00000084 <val10>:
      84:	37eadf18 	.word	0x37eadf18

00000088 <next10>:
      88:	e59fb000 	ldr	fp, [pc]	; 90 <val11>
      8c:	ea000000 	b	94 <next11>

00000090 <val11>:
      90:	3400e333 	.word	0x3400e333

00000094 <next11>:
      94:	e59fc000 	ldr	ip, [pc]	; 9c <val12>
      98:	ea000000 	b	a0 <next12>

0000009c <val12>:
      9c:	57968e41 	.word	0x57968e41

000000a0 <next12>:
      a0:	e59fe000 	ldr	lr, [pc]	; a8 <val14>
      a4:	ea000000 	b	ac <next14>

000000a8 <val14>:
      a8:	9fa0f41c 	.word	0x9fa0f41c

000000ac <next14>:
      ac:	e59f1000 	ldr	r1, [pc]	; b4 <val15>
      b0:	ea000000 	b	b8 <next15>

000000b4 <val15>:
      b4:	f6d183c1 	.word	0xf6d183c1

000000b8 <next15>:
      b8:	e58d1000 	str	r1, [sp]
      bc:	e59f1000 	ldr	r1, [pc]	; c4 <val16>
      c0:	ea000000 	b	c8 <next16>

000000c4 <val16>:
      c4:	4a42395d 	.word	0x4a42395d

000000c8 <next16>:
      c8:	e50d1004 	str	r1, [sp, #-4]
      cc:	e59f1000 	ldr	r1, [pc]	; d4 <val17>
      d0:	ea000000 	b	d8 <next17>

000000d4 <val17>:
      d4:	665feca1 	.word	0x665feca1

000000d8 <next17>:
      d8:	e50d1008 	str	r1, [sp, #-8]
      dc:	e59f1000 	ldr	r1, [pc]	; e4 <val18>
      e0:	ea000000 	b	e8 <next18>

000000e4 <val18>:
      e4:	a1672787 	.word	0xa1672787

000000e8 <next18>:
      e8:	e50d100c 	str	r1, [sp, #-12]
      ec:	e59f1000 	ldr	r1, [pc]	; f4 <val19>
      f0:	ea000000 	b	f8 <next19>

000000f4 <val19>:
      f4:	964e107a 	.word	0x964e107a

000000f8 <next19>:
      f8:	e50d1010 	str	r1, [sp, #-16]
      fc:	e59f1000 	ldr	r1, [pc]	; 104 <val20>
     100:	ea000000 	b	108 <next20>

00000104 <val20>:
     104:	c4ebe3e7 	.word	0xc4ebe3e7

00000108 <next20>:
     108:	e50d1014 	str	r1, [sp, #-20]
     10c:	e59f1000 	ldr	r1, [pc]	; 114 <val21>
     110:	ea000000 	b	118 <next21>

00000114 <val21>:
     114:	40e49762 	.word	0x40e49762

00000118 <next21>:
     118:	e50d1018 	str	r1, [sp, #-24]
     11c:	e59f1000 	ldr	r1, [pc]	; 124 <val22>
     120:	ea000000 	b	128 <next22>

00000124 <val22>:
     124:	addcae75 	.word	0xaddcae75

00000128 <next22>:
     128:	e50d101c 	str	r1, [sp, #-28]
     12c:	e59f1000 	ldr	r1, [pc]	; 134 <val23>
     130:	ea000000 	b	138 <next23>

00000134 <val23>:
     134:	f4f8d5e8 	.word	0xf4f8d5e8

00000138 <next23>:
     138:	e50d1020 	str	r1, [sp, #-32]
     13c:	e59f1000 	ldr	r1, [pc]	; 144 <val24>
     140:	ea000000 	b	148 <next24>

00000144 <val24>:
     144:	330745e2 	.word	0x330745e2

00000148 <next24>:
     148:	e50d1024 	str	r1, [sp, #-36]	; 0x24
     14c:	e59f1000 	ldr	r1, [pc]	; 154 <val25>
     150:	ea000000 	b	158 <next25>

00000154 <val25>:
     154:	54e6251c 	.word	0x54e6251c

00000158 <next25>:
     158:	e50d1028 	str	r1, [sp, #-40]	; 0x28
     15c:	e59f1000 	ldr	r1, [pc]	; 164 <val26>
     160:	ea000000 	b	168 <next26>

00000164 <val26>:
     164:	7156dde3 	.word	0x7156dde3

00000168 <next26>:
     168:	e50d102c 	str	r1, [sp, #-44]	; 0x2c
     16c:	e59f1000 	ldr	r1, [pc]	; 174 <val27>
     170:	ea000000 	b	178 <next27>

00000174 <val27>:
     174:	fa654639 	.word	0xfa654639

00000178 <next27>:
     178:	e50d1030 	str	r1, [sp, #-48]	; 0x30
     17c:	e59f1000 	ldr	r1, [pc]	; 184 <val28>
     180:	ea000000 	b	188 <next28>

00000184 <val28>:
     184:	1801b3dc 	.word	0x1801b3dc

00000188 <next28>:
     188:	e50d1034 	str	r1, [sp, #-52]	; 0x34
     18c:	e59f1000 	ldr	r1, [pc]	; 194 <val29>
     190:	ea000000 	b	198 <next29>

00000194 <val29>:
     194:	7036f524 	.word	0x7036f524

00000198 <next29>:
     198:	e50d1038 	str	r1, [sp, #-56]	; 0x38
     19c:	e59f1000 	ldr	r1, [pc]	; 1a4 <val30>
     1a0:	ea000000 	b	1a8 <next30>

000001a4 <val30>:
     1a4:	b0a8429e 	.word	0xb0a8429e

000001a8 <next30>:
     1a8:	e50d103c 	str	r1, [sp, #-60]	; 0x3c
     1ac:	e59f1000 	ldr	r1, [pc]	; 1b4 <val31>
     1b0:	ea000000 	b	1b8 <next31>

000001b4 <val31>:
     1b4:	ceb50c42 	.word	0xceb50c42

000001b8 <next31>:
     1b8:	e50d1040 	str	r1, [sp, #-64]	; 0x40
     1bc:	e59f1000 	ldr	r1, [pc]	; 1c4 <val32>
     1c0:	ea000000 	b	1c8 <next32>

000001c4 <val32>:
     1c4:	86c85578 	.word	0x86c85578

000001c8 <next32>:
     1c8:	e50d1044 	str	r1, [sp, #-68]	; 0x44
     1cc:	e59f1000 	ldr	r1, [pc]	; 1d4 <val33>
     1d0:	ea000000 	b	1d8 <next33>

000001d4 <val33>:
     1d4:	9806f833 	.word	0x9806f833

000001d8 <next33>:
     1d8:	e50d1048 	str	r1, [sp, #-72]	; 0x48
     1dc:	e59f1000 	ldr	r1, [pc]	; 1e4 <val34>
     1e0:	ea000000 	b	1e8 <next34>

000001e4 <val34>:
     1e4:	f3b42c31 	.word	0xf3b42c31

000001e8 <next34>:
     1e8:	e50d104c 	str	r1, [sp, #-76]	; 0x4c
     1ec:	e59f1000 	ldr	r1, [pc]	; 1f4 <val35>
     1f0:	ea000000 	b	1f8 <next35>

000001f4 <val35>:
     1f4:	8ad9a956 	.word	0x8ad9a956

000001f8 <next35>:
     1f8:	e50d1050 	str	r1, [sp, #-80]	; 0x50

000001fc <l1>:
     1fc:	e115006c 	tst	r5, ip, rrx

00000200 <l2>:
     200:	4111000c 	tstmi	r1, ip

00000204 <l3>:
     204:	e1120052 	tst	r2, r2, asr r0

00000208 <l4>:
     208:	7315028a 	tstvc	r5, #-1610612728	; 0xa0000008

0000020c <l5>:
     20c:	c3160f43 	tstgt	r6, #268	; 0x10c

00000210 <l6>:
     210:	531a0833 	tstpl	sl, #3342336	; 0x330000

00000214 <l7>:
     214:	91100062 	tstls	r0, r2, rrx

00000218 <l8>:
     218:	e1130085 	tst	r3, r5, lsl #1

0000021c <l9>:
     21c:	a11b0833 	tstge	fp, r3, lsr r8

00000220 <l10>:
     220:	e11f0063 	tst	pc, r3, rrx

00000224 <l11>:
     224:	e1130061 	tst	r3, r1, rrx

00000228 <l12>:
     228:	411e0000 	tstmi	lr, r0

0000022c <l13>:
     22c:	731e0b81 	tstvc	lr, #132096	; 0x20400

00000230 <l14>:
     230:	e1100a36 	tst	r0, r6, lsr sl

00000234 <l15>:
     234:	e1110a2b 	tst	r1, fp, lsr #20

00000238 <l16>:
     238:	531802b5 	tstpl	r8, #1342177291	; 0x5000000b

0000023c <l17>:
     23c:	53100f7e 	tstpl	r0, #504	; 0x1f8

00000240 <l18>:
     240:	81110004 	tsthi	r1, r4

00000244 <l19>:
     244:	231f058f 	tstcs	pc, #599785472	; 0x23c00000

00000248 <l20>:
     248:	e111006f 	tst	r1, pc, rrx

0000024c <l21>:
     24c:	b11a0067 	tstlt	sl, r7, rrx

00000250 <l22>:
     250:	111506a9 	tstne	r5, r9, lsr #13

00000254 <l23>:
     254:	83130395 	tsthi	r3, #1409286146	; 0x54000002

00000258 <l24>:
     258:	c3100587 	tstgt	r0, #566231040	; 0x21c00000

0000025c <l25>:
     25c:	21100776 	tstcs	r0, r6, ror r7

00000260 <l26>:
     260:	111c0152 	tstne	ip, r2, asr r1

00000264 <l27>:
     264:	831306ea 	tsthi	r3, #245366784	; 0xea00000

00000268 <l28>:
     268:	e11b006b 	tst	fp, fp, rrx

0000026c <l29>:
     26c:	e11f000c 	tst	pc, ip

00000270 <l30>:
     270:	e11b0c74 	tst	fp, r4, ror ip

00000274 <l31>:
     274:	e1170062 	tst	r7, r2, rrx

00000278 <l32>:
     278:	e1180731 	tst	r8, r1, lsr r7

0000027c <l33>:
     27c:	e112053c 	tst	r2, ip, lsr r5

00000280 <l34>:
     280:	c1100008 	tstgt	r0, r8

00000284 <l35>:
     284:	b3130345 	tstlt	r3, #335544321	; 0x14000001

00000288 <l36>:
     288:	e11300e1 	tst	r3, r1, ror #1

0000028c <l37>:
     28c:	e1190003 	tst	r9, r3

00000290 <l38>:
     290:	c110000a 	tstgt	r0, sl

00000294 <l39>:
     294:	71170007 	tstvc	r7, r7

00000298 <l40>:
     298:	911407c1 	tstls	r4, r1, asr #15

0000029c <l41>:
     29c:	e3120c81 	tst	r2, #33024	; 0x8100

000002a0 <l42>:
     2a0:	e113000f 	tst	r3, pc

000002a4 <l43>:
     2a4:	e3120077 	tst	r2, #119	; 0x77

000002a8 <l44>:
     2a8:	41190750 	tstmi	r9, r0, asr r7

000002ac <l45>:
     2ac:	d11b0061 	tstle	fp, r1, rrx

000002b0 <l46>:
     2b0:	b110006c 	tstlt	r0, ip, rrx

000002b4 <l47>:
     2b4:	e11803e8 	tst	r8, r8, ror #7

000002b8 <l48>:
     2b8:	431c0d3b 	tstmi	ip, #3776	; 0xec0

000002bc <l49>:
     2bc:	e1100067 	tst	r0, r7, rrx

000002c0 <l50>:
     2c0:	7112000c 	tstvc	r2, ip

000002c4 <l51>:
     2c4:	e11c0320 	tst	ip, r0, lsr #6

000002c8 <l52>:
     2c8:	311305e5 	tstcc	r3, r5, ror #11

000002cc <l53>:
     2cc:	e1130e4c 	tst	r3, ip, asr #28

000002d0 <l54>:
     2d0:	811e0068 	tsthi	lr, r8, rrx

000002d4 <l55>:
     2d4:	e11a0009 	tst	sl, r9

000002d8 <l56>:
     2d8:	b31f0471 	tstlt	pc, #1895825408	; 0x71000000

000002dc <l57>:
     2dc:	31130fa3 	tstcc	r3, r3, lsr #31

000002e0 <l58>:
     2e0:	e31403ed 	tst	r4, #-1275068413	; 0xb4000003

000002e4 <l59>:
     2e4:	e3180040 	tst	r8, #64	; 0x40

000002e8 <l60>:
     2e8:	231a0e29 	tstcs	sl, #656	; 0x290

000002ec <l61>:
     2ec:	b1150005 	tstlt	r5, r5

000002f0 <l62>:
     2f0:	631e096b 	tstvs	lr, #1753088	; 0x1ac000

000002f4 <l63>:
     2f4:	6118000e 	tstvs	r8, lr

000002f8 <l64>:
     2f8:	e11b0126 	tst	fp, r6, lsr #2

000002fc <l65>:
     2fc:	63110237 	tstvs	r1, #1879048195	; 0x70000003

00000300 <l66>:
     300:	531502bf 	tstpl	r5, #-268435445	; 0xf000000b

00000304 <l67>:
     304:	e3160b21 	tst	r6, #33792	; 0x8400

00000308 <l68>:
     308:	d3100619 	tstle	r0, #26214400	; 0x1900000

0000030c <l69>:
     30c:	d1170007 	tstle	r7, r7

00000310 <l70>:
     310:	e1110003 	tst	r1, r3

00000314 <l71>:
     314:	c1110007 	tstgt	r1, r7

00000318 <l72>:
     318:	83170005 	tsthi	r7, #5

0000031c <l73>:
     31c:	031802c5 	tsteq	r8, #1342177292	; 0x5000000c

00000320 <l74>:
     320:	e31f093b 	tst	pc, #966656	; 0xec000

00000324 <l75>:
     324:	811c0004 	tsthi	ip, r4

00000328 <l76>:
     328:	e3160029 	tst	r6, #41	; 0x29

0000032c <l77>:
     32c:	e1110f2b 	tst	r1, fp, lsr #30

00000330 <l78>:
     330:	e1110006 	tst	r1, r6

00000334 <l79>:
     334:	e11e0c04 	tst	lr, r4, lsl #24

00000338 <l80>:
     338:	e3120301 	tst	r2, #67108864	; 0x4000000

0000033c <l81>:
     33c:	01150069 	tsteq	r5, r9, rrx

00000340 <l82>:
     340:	c31507ef 	tstgt	r5, #62652416	; 0x3bc0000

00000344 <l83>:
     344:	e11b000c 	tst	fp, ip

00000348 <l84>:
     348:	e1160006 	tst	r6, r6

0000034c <l85>:
     34c:	2118000e 	tstcs	r8, lr

00000350 <l86>:
     350:	e1140007 	tst	r4, r7

00000354 <l87>:
     354:	13180e39 	tstne	r8, #912	; 0x390

00000358 <l88>:
     358:	e1180003 	tst	r8, r3

0000035c <l89>:
     35c:	e1120432 	tst	r2, r2, lsr r4

00000360 <l90>:
     360:	e3160cdd 	tst	r6, #56576	; 0xdd00

00000364 <l91>:
     364:	e1160007 	tst	r6, r7

00000368 <l92>:
     368:	031f0eef 	tsteq	pc, #3824	; 0xef0

0000036c <l93>:
     36c:	811e0003 	tsthi	lr, r3

00000370 <l94>:
     370:	e1170ec6 	tst	r7, r6, asr #29

00000374 <l95>:
     374:	411a0005 	tstmi	sl, r5

00000378 <l96>:
     378:	e11f0ac7 	tst	pc, r7, asr #21

0000037c <l97>:
     37c:	111e0010 	tstne	lr, r0, lsl r0

00000380 <l98>:
     380:	51120068 	tstpl	r2, r8, rrx

00000384 <l99>:
     384:	a113033c 	tstge	r3, ip, lsr r3

00000388 <l100>:
     388:	41130b15 	tstmi	r3, r5, lsl fp

0000038c <l101>:
     38c:	e311036d 	tst	r1, #-1275068415	; 0xb4000001

00000390 <l102>:
     390:	03130715 	tsteq	r3, #5505024	; 0x540000

00000394 <l103>:
     394:	e3130106 	tst	r3, #-2147483647	; 0x80000001

00000398 <l104>:
     398:	011c0768 	tsteq	ip, r8, ror #14

0000039c <l105>:
     39c:	93150a15 	tstls	r5, #86016	; 0x15000

000003a0 <l106>:
     3a0:	5115030f 	tstpl	r5, pc, lsl #6

000003a4 <l107>:
     3a4:	231a0412 	tstcs	sl, #301989888	; 0x12000000

000003a8 <l108>:
     3a8:	e1150bcf 	tst	r5, pc, asr #23

000003ac <l109>:
     3ac:	e11f0ba7 	tst	pc, r7, lsr #23

000003b0 <l110>:
     3b0:	e115000c 	tst	r5, ip

000003b4 <l111>:
     3b4:	e1130e4b 	tst	r3, fp, asr #28

000003b8 <l112>:
     3b8:	e1170009 	tst	r7, r9

000003bc <l113>:
     3bc:	e11a000a 	tst	sl, sl

000003c0 <l114>:
     3c0:	b113000f 	tstlt	r3, pc

000003c4 <l115>:
     3c4:	b119000f 	tstlt	r9, pc

000003c8 <l116>:
     3c8:	b1160009 	tstlt	r6, r9

000003cc <l117>:
     3cc:	1119006a 	tstne	r9, sl, rrx

000003d0 <l118>:
     3d0:	91100062 	tstls	r0, r2, rrx

000003d4 <l119>:
     3d4:	e1110c75 	tst	r1, r5, ror ip

000003d8 <l120>:
     3d8:	511b0727 	tstpl	fp, r7, lsr #14

000003dc <l121>:
     3dc:	311a0007 	tstcc	sl, r7

000003e0 <l122>:
     3e0:	e11101a3 	tst	r1, r3, lsr #3

000003e4 <l123>:
     3e4:	41150008 	tstmi	r5, r8

000003e8 <l124>:
     3e8:	83170a71 	tsthi	r7, #462848	; 0x71000

000003ec <l125>:
     3ec:	311b032c 	tstcc	fp, ip, lsr #6

000003f0 <l126>:
     3f0:	511b0c6a 	tstpl	fp, sl, ror #24

000003f4 <l127>:
     3f4:	e1180004 	tst	r8, r4

000003f8 <l128>:
     3f8:	e3140d7f 	tst	r4, #8128	; 0x1fc0

000003fc <l129>:
     3fc:	911a000b 	tstls	sl, fp

00000400 <l130>:
     400:	e11e0ea9 	tst	lr, r9, lsr #29

00000404 <l131>:
     404:	c115000f 	tstgt	r5, pc

00000408 <l132>:
     408:	e1190b72 	tst	r9, r2, ror fp

0000040c <l133>:
     40c:	41110004 	tstmi	r1, r4

00000410 <l134>:
     410:	e119000f 	tst	r9, pc

00000414 <l135>:
     414:	e1190336 	tst	r9, r6, lsr r3

00000418 <l136>:
     418:	31150e16 	tstcc	r5, r6, lsl lr

0000041c <l137>:
     41c:	231a0d95 	tstcs	sl, #9536	; 0x2540

00000420 <l138>:
     420:	731a05b5 	tstvc	sl, #759169024	; 0x2d400000

00000424 <l139>:
     424:	91100a77 	tstls	r0, r7, ror sl

00000428 <l140>:
     428:	6118003e 	tstvs	r8, lr, lsr r0

0000042c <l141>:
     42c:	e113000a 	tst	r3, sl

00000430 <l142>:
     430:	e112098b 	tst	r2, fp, lsl #19

00000434 <l143>:
     434:	c110000b 	tstgt	r0, fp

00000438 <l144>:
     438:	c3100020 	tstgt	r0, #32

0000043c <l145>:
     43c:	71100b25 	tstvc	r0, r5, lsr #22

00000440 <l146>:
     440:	e11b000c 	tst	fp, ip

00000444 <l147>:
     444:	e31a020b 	tst	sl, #-1342177280	; 0xb0000000

00000448 <l148>:
     448:	731802bf 	tstvc	r8, #-268435445	; 0xf000000b

0000044c <l149>:
     44c:	e1150375 	tst	r5, r5, ror r3

00000450 <l150>:
     450:	e1130000 	tst	r3, r0

00000454 <l151>:
     454:	631a0000 	tstvs	sl, #0

00000458 <l152>:
     458:	e11c000b 	tst	ip, fp

0000045c <l153>:
     45c:	e31a0305 	tst	sl, #335544320	; 0x14000000

00000460 <l154>:
     460:	11180003 	tstne	r8, r3

00000464 <l155>:
     464:	811a0060 	tsthi	sl, r0, rrx

00000468 <l156>:
     468:	71150be5 	tstvc	r5, r5, ror #23

0000046c <l157>:
     46c:	611b08a5 	tstvs	fp, r5, lsr #17

00000470 <l158>:
     470:	e11b0312 	tst	fp, r2, lsl r3

00000474 <l159>:
     474:	81190676 	tsthi	r9, r6, ror r6

00000478 <l160>:
     478:	41180069 	tstmi	r8, r9, rrx

0000047c <l161>:
     47c:	e1160005 	tst	r6, r5

00000480 <l162>:
     480:	63130636 	tstvs	r3, #56623104	; 0x3600000

00000484 <l163>:
     484:	231c05b7 	tstcs	ip, #767557632	; 0x2dc00000

00000488 <l164>:
     488:	731f0cc3 	tstvc	pc, #49920	; 0xc300

0000048c <l165>:
     48c:	a1150d8f 	tstge	r5, pc, lsl #27

00000490 <l166>:
     490:	0110000f 	tsteq	r0, pc

00000494 <l167>:
     494:	e11501c5 	tst	r5, r5, asr #3

00000498 <l168>:
     498:	4312067b 	tstmi	r2, #128974848	; 0x7b00000

0000049c <l169>:
     49c:	e31a01a7 	tst	sl, #-1073741783	; 0xc0000029

000004a0 <l170>:
     4a0:	73190417 	tstvc	r9, #385875968	; 0x17000000

000004a4 <l171>:
     4a4:	8110000e 	tsthi	r0, lr

000004a8 <l172>:
     4a8:	1110023e 	tstne	r0, lr, lsr r2

000004ac <l173>:
     4ac:	a113006f 	tstge	r3, pc, rrx

000004b0 <l174>:
     4b0:	e31e0e25 	tst	lr, #592	; 0x250

000004b4 <l175>:
     4b4:	a1120002 	tstge	r2, r2

000004b8 <l176>:
     4b8:	e1100588 	tst	r0, r8, lsl #11

000004bc <l177>:
     4bc:	e1180a59 	tst	r8, r9, asr sl

000004c0 <l178>:
     4c0:	41100003 	tstmi	r0, r3

000004c4 <l179>:
     4c4:	c317090f 	tstgt	r7, #245760	; 0x3c000

000004c8 <l180>:
     4c8:	131b0d4f 	tstne	fp, #5056	; 0x13c0

000004cc <l181>:
     4cc:	e11b0002 	tst	fp, r2

000004d0 <l182>:
     4d0:	a110047a 	tstge	r0, sl, ror r4

000004d4 <l183>:
     4d4:	e115071e 	tst	r5, lr, lsl r7

000004d8 <l184>:
     4d8:	e31a0403 	tst	sl, #50331648	; 0x3000000

000004dc <l185>:
     4dc:	e11e0117 	tst	lr, r7, lsl r1

000004e0 <l186>:
     4e0:	e11c0471 	tst	ip, r1, ror r4

000004e4 <l187>:
     4e4:	e11b0b56 	tst	fp, r6, asr fp

000004e8 <l188>:
     4e8:	e11e0002 	tst	lr, r2

000004ec <l189>:
     4ec:	511c0065 	tstpl	ip, r5, rrx

000004f0 <l190>:
     4f0:	a1180176 	tstge	r8, r6, ror r1

000004f4 <l191>:
     4f4:	21160cc0 	tstcs	r6, r0, asr #25

000004f8 <l192>:
     4f8:	e111078e 	tst	r1, lr, lsl #15

000004fc <l193>:
     4fc:	4119075b 	tstmi	r9, fp, asr r7

00000500 <l194>:
     500:	e11e0001 	tst	lr, r1

00000504 <l195>:
     504:	83120f7e 	tsthi	r2, #504	; 0x1f8

00000508 <l196>:
     508:	411b0006 	tstmi	fp, r6

0000050c <l197>:
     50c:	d1120007 	tstle	r2, r7

00000510 <l198>:
     510:	e1130e74 	tst	r3, r4, ror lr

00000514 <l199>:
     514:	53180dc1 	tstpl	r8, #12352	; 0x3040

00000518 <l200>:
     518:	e1140004 	tst	r4, r4

0000051c <l201>:
     51c:	311a00aa 	tstcc	sl, sl, lsr #1

00000520 <l202>:
     520:	e11a0c26 	tst	sl, r6, lsr #24

00000524 <l203>:
     524:	411e020c 	tstmi	lr, ip, lsl #4

00000528 <l204>:
     528:	41100000 	tstmi	r0, r0

0000052c <l205>:
     52c:	e31a0d81 	tst	sl, #8256	; 0x2040

00000530 <l206>:
     530:	e3120013 	tst	r2, #19

00000534 <l207>:
     534:	b115066b 	tstlt	r5, fp, ror #12

00000538 <l208>:
     538:	e11a0061 	tst	sl, r1, rrx

0000053c <l209>:
     53c:	531b0439 	tstpl	fp, #956301312	; 0x39000000

00000540 <l210>:
     540:	91120005 	tstls	r2, r5

00000544 <l211>:
     544:	61100431 	tstvs	r0, r1, lsr r4

00000548 <l212>:
     548:	e1130901 	tst	r3, r1, lsl #18

0000054c <l213>:
     54c:	e1160aa2 	tst	r6, r2, lsr #21

00000550 <l214>:
     550:	e1190354 	tst	r9, r4, asr r3

00000554 <l215>:
     554:	21130003 	tstcs	r3, r3

00000558 <l216>:
     558:	e1180b78 	tst	r8, r8, ror fp

0000055c <l217>:
     55c:	e11e0167 	tst	lr, r7, ror #2

00000560 <l218>:
     560:	13110d07 	tstne	r1, #448	; 0x1c0

00000564 <l219>:
     564:	4119000a 	tstmi	r9, sl

00000568 <l220>:
     568:	e11b0006 	tst	fp, r6

0000056c <l221>:
     56c:	911e0069 	tstls	lr, r9, rrx

00000570 <l222>:
     570:	e115000a 	tst	r5, sl

00000574 <l223>:
     574:	c318020b 	tstgt	r8, #-1342177280	; 0xb0000000

00000578 <l224>:
     578:	e1190003 	tst	r9, r3

0000057c <l225>:
     57c:	e31e0101 	tst	lr, #1073741824	; 0x40000000

00000580 <l226>:
     580:	011b0060 	tsteq	fp, r0, rrx

00000584 <l227>:
     584:	c1130b70 	tstgt	r3, r0, ror fp

00000588 <l228>:
     588:	e1150f80 	tst	r5, r0, lsl #31

0000058c <l229>:
     58c:	2312030b 	tstcs	r2, #738197504	; 0x2c000000

00000590 <l230>:
     590:	e11b000f 	tst	fp, pc

00000594 <l231>:
     594:	d110023e 	tstle	r0, lr, lsr r2

00000598 <l232>:
     598:	911e0e37 	tstls	lr, r7, lsr lr

0000059c <l233>:
     59c:	d3120636 	tstle	r2, #56623104	; 0x3600000

000005a0 <l234>:
     5a0:	e3180d5a 	tst	r8, #5760	; 0x1680

000005a4 <l235>:
     5a4:	21130004 	tstcs	r3, r4

000005a8 <l236>:
     5a8:	e3100e5e 	tst	r0, #1504	; 0x5e0

000005ac <l237>:
     5ac:	e31908b9 	tst	r9, #12124160	; 0xb90000

000005b0 <l238>:
     5b0:	e117031c 	tst	r7, ip, lsl r3

000005b4 <l239>:
     5b4:	1114000c 	tstne	r4, ip

000005b8 <l240>:
     5b8:	2118013a 	tstcs	r8, sl, lsr r1

000005bc <l241>:
     5bc:	e119000c 	tst	r9, ip

000005c0 <l242>:
     5c0:	a1120c4c 	tstge	r2, ip, asr #24

000005c4 <l243>:
     5c4:	e115081e 	tst	r5, lr, lsl r8

000005c8 <l244>:
     5c8:	a11a0911 	tstge	sl, r1, lsl r9

000005cc <l245>:
     5cc:	411b0a35 	tstmi	fp, r5, lsr sl

000005d0 <l246>:
     5d0:	311c006e 	tstcc	ip, lr, rrx

000005d4 <l247>:
     5d4:	d311010d 	tstle	r1, #1073741827	; 0x40000003

000005d8 <l248>:
     5d8:	73110c8f 	tstvc	r1, #36608	; 0x8f00

000005dc <l249>:
     5dc:	0116081e 	tsteq	r6, lr, lsl r8

000005e0 <l250>:
     5e0:	91160656 	tstls	r6, r6, asr r6

000005e4 <l251>:
     5e4:	6110006f 	tstvs	r0, pc, rrx

000005e8 <l252>:
     5e8:	11190064 	tstne	r9, r4, rrx

000005ec <l253>:
     5ec:	b11e0007 	tstlt	lr, r7

000005f0 <l254>:
     5f0:	61170002 	tstvs	r7, r2

000005f4 <l255>:
     5f4:	e11a006a 	tst	sl, sl, rrx

000005f8 <l256>:
     5f8:	d11f0008 	tstle	pc, r8

000005fc <l257>:
     5fc:	11110001 	tstne	r1, r1

00000600 <l258>:
     600:	711b000a 	tstvc	fp, sl

00000604 <l259>:
     604:	311c0004 	tstcc	ip, r4

00000608 <l260>:
     608:	e1100009 	tst	r0, r9

0000060c <l261>:
     60c:	31120005 	tstcc	r2, r5

00000610 <l262>:
     610:	e31c0913 	tst	ip, #311296	; 0x4c000

00000614 <l263>:
     614:	6112000c 	tstvs	r2, ip

00000618 <l264>:
     618:	c1170002 	tstgt	r7, r2

0000061c <l265>:
     61c:	e31e0f43 	tst	lr, #268	; 0x10c

00000620 <l266>:
     620:	e11b0284 	tst	fp, r4, lsl #5

00000624 <l267>:
     624:	e116006a 	tst	r6, sl, rrx

00000628 <l268>:
     628:	e31208b7 	tst	r2, #11993088	; 0xb70000

0000062c <l269>:
     62c:	e3130bc2 	tst	r3, #198656	; 0x30800

00000630 <l270>:
     630:	e11a000a 	tst	sl, sl

00000634 <l271>:
     634:	c113006b 	tstgt	r3, fp, rrx

00000638 <l272>:
     638:	91110006 	tstls	r1, r6

0000063c <l273>:
     63c:	11110003 	tstne	r1, r3

00000640 <l274>:
     640:	61160156 	tstvs	r6, r6, asr r1

00000644 <l275>:
     644:	e319027d 	tst	r9, #-805306361	; 0xd0000007

00000648 <l276>:
     648:	e1180006 	tst	r8, r6

0000064c <l277>:
     64c:	e1120003 	tst	r2, r3

00000650 <l278>:
     650:	d11f0003 	tstle	pc, r3

00000654 <l279>:
     654:	9112006c 	tstls	r2, ip, rrx

00000658 <l280>:
     658:	51100f87 	tstpl	r0, r7, lsl #31

0000065c <l281>:
     65c:	b1180005 	tstlt	r8, r5

00000660 <l282>:
     660:	01190a11 	tsteq	r9, r1, lsl sl

00000664 <l283>:
     664:	e3190702 	tst	r9, #524288	; 0x80000

00000668 <l284>:
     668:	e11e0184 	tst	lr, r4, lsl #3

0000066c <l285>:
     66c:	e118073e 	tst	r8, lr, lsr r7

00000670 <l286>:
     670:	b11b0737 	tstlt	fp, r7, lsr r7

00000674 <l287>:
     674:	231800ec 	tstcs	r8, #236	; 0xec

00000678 <l288>:
     678:	e11b0e73 	tst	fp, r3, ror lr

0000067c <l289>:
     67c:	111f0003 	tstne	pc, r3

00000680 <l290>:
     680:	e1110009 	tst	r1, r9

00000684 <l291>:
     684:	01130002 	tsteq	r3, r2

00000688 <l292>:
     688:	e1180b75 	tst	r8, r5, ror fp

0000068c <l293>:
     68c:	e11c0559 	tst	ip, r9, asr r5

00000690 <l294>:
     690:	e1160ee6 	tst	r6, r6, ror #29

00000694 <l295>:
     694:	e11b0002 	tst	fp, r2

00000698 <l296>:
     698:	e117022a 	tst	r7, sl, lsr #4

0000069c <l297>:
     69c:	61150065 	tstvs	r5, r5, rrx

000006a0 <l298>:
     6a0:	e310038a 	tst	r0, #671088642	; 0x28000002

000006a4 <l299>:
     6a4:	e11c000e 	tst	ip, lr

000006a8 <l300>:
     6a8:	31120000 	tstcc	r2, r0

000006ac <l301>:
     6ac:	b1100bc5 	tstlt	r0, r5, asr #23

000006b0 <l302>:
     6b0:	e11e0067 	tst	lr, r7, rrx

000006b4 <l303>:
     6b4:	e31901d6 	tst	r9, #-2147483595	; 0x80000035

000006b8 <l304>:
     6b8:	41120662 	tstmi	r2, r2, ror #12

000006bc <l305>:
     6bc:	b3170c4d 	tstlt	r7, #19712	; 0x4d00

000006c0 <l306>:
     6c0:	e1170a50 	tst	r7, r0, asr sl

000006c4 <l307>:
     6c4:	e11e006e 	tst	lr, lr, rrx

000006c8 <l308>:
     6c8:	e31f0852 	tst	pc, #5373952	; 0x520000

000006cc <l309>:
     6cc:	e11a0256 	tst	sl, r6, asr r2

000006d0 <l310>:
     6d0:	e1130001 	tst	r3, r1

000006d4 <l311>:
     6d4:	e112000a 	tst	r2, sl

000006d8 <l312>:
     6d8:	e11b006f 	tst	fp, pc, rrx

000006dc <l313>:
     6dc:	81130005 	tsthi	r3, r5

000006e0 <l314>:
     6e0:	731f077f 	tstvc	pc, #33292288	; 0x1fc0000

000006e4 <l315>:
     6e4:	e1160004 	tst	r6, r4

000006e8 <l316>:
     6e8:	63170301 	tstvs	r7, #67108864	; 0x4000000

000006ec <l317>:
     6ec:	e315053b 	tst	r5, #247463936	; 0xec00000

000006f0 <l318>:
     6f0:	7112000f 	tstvc	r2, pc

000006f4 <l319>:
     6f4:	31150480 	tstcc	r5, r0, lsl #9

000006f8 <l320>:
     6f8:	111e000a 	tstne	lr, sl

000006fc <l321>:
     6fc:	9316008d 	tstls	r6, #141	; 0x8d

00000700 <l322>:
     700:	a1140069 	tstge	r4, r9, rrx

00000704 <l323>:
     704:	e1180000 	tst	r8, r0

00000708 <l324>:
     708:	e1120062 	tst	r2, r2, rrx

0000070c <l325>:
     70c:	e119000b 	tst	r9, fp

00000710 <l326>:
     710:	e115000f 	tst	r5, pc

00000714 <l327>:
     714:	e11e0c87 	tst	lr, r7, lsl #25

00000718 <l328>:
     718:	e31f07b3 	tst	pc, #46923776	; 0x2cc0000

0000071c <l329>:
     71c:	e1150006 	tst	r5, r6

00000720 <l330>:
     720:	e1170252 	tst	r7, r2, asr r2

00000724 <l331>:
     724:	23120d09 	tstcs	r2, #576	; 0x240

00000728 <l332>:
     728:	11150062 	tstne	r5, r2, rrx

0000072c <l333>:
     72c:	d11b0279 	tstle	fp, r9, ror r2

00000730 <l334>:
     730:	b11f0007 	tstlt	pc, r7

00000734 <l335>:
     734:	011c0009 	tsteq	ip, r9

00000738 <l336>:
     738:	e1170f46 	tst	r7, r6, asr #30

0000073c <l337>:
     73c:	911b0113 	tstls	fp, r3, lsl r1

00000740 <l338>:
     740:	01160689 	tsteq	r6, r9, lsl #13

00000744 <l339>:
     744:	a11909c1 	tstge	r9, r1, asr #19

00000748 <l340>:
     748:	b1140c79 	tstlt	r4, r9, ror ip

0000074c <l341>:
     74c:	e118000e 	tst	r8, lr

00000750 <l342>:
     750:	e1140008 	tst	r4, r8

00000754 <l343>:
     754:	2113000b 	tstcs	r3, fp

00000758 <l344>:
     758:	91120957 	tstls	r2, r7, asr r9

0000075c <l345>:
     75c:	41120002 	tstmi	r2, r2

00000760 <l346>:
     760:	01150066 	tsteq	r5, r6, rrx

00000764 <l347>:
     764:	e311094a 	tst	r1, #1212416	; 0x128000

00000768 <l348>:
     768:	211b0de5 	tstcs	fp, r5, ror #27

0000076c <l349>:
     76c:	e110045e 	tst	r0, lr, asr r4

00000770 <l350>:
     770:	e1120654 	tst	r2, r4, asr r6

00000774 <l351>:
     774:	81140a3a 	tsthi	r4, sl, lsr sl

00000778 <l352>:
     778:	d11f0007 	tstle	pc, r7

0000077c <l353>:
     77c:	d1120634 	tstle	r2, r4, lsr r6

00000780 <l354>:
     780:	91190c01 	tstls	r9, r1, lsl #24

00000784 <l355>:
     784:	a3190d6a 	tstge	r9, #6784	; 0x1a80

00000788 <l356>:
     788:	931303b7 	tstls	r3, #-603979774	; 0xdc000002

0000078c <l357>:
     78c:	e111000a 	tst	r1, sl

00000790 <l358>:
     790:	a3100163 	tstge	r0, #-1073741800	; 0xc0000018

00000794 <l359>:
     794:	8116014c 	tsthi	r6, ip, asr #2

00000798 <l360>:
     798:	411b000c 	tstmi	fp, ip

0000079c <l361>:
     79c:	a11c0266 	tstge	ip, r6, ror #4

000007a0 <l362>:
     7a0:	e11807ac 	tst	r8, ip, lsr #15

000007a4 <l363>:
     7a4:	111901aa 	tstne	r9, sl, lsr #3

000007a8 <l364>:
     7a8:	43180070 	tstmi	r8, #112	; 0x70

000007ac <l365>:
     7ac:	d3180c03 	tstle	r8, #768	; 0x300

000007b0 <l366>:
     7b0:	d31f022d 	tstle	pc, #-805306366	; 0xd0000002

000007b4 <l367>:
     7b4:	e3110856 	tst	r1, #5636096	; 0x560000

000007b8 <l368>:
     7b8:	e31b0512 	tst	fp, #75497472	; 0x4800000

000007bc <l369>:
     7bc:	b3180084 	tstlt	r8, #132	; 0x84

000007c0 <l370>:
     7c0:	e314093b 	tst	r4, #966656	; 0xec000

000007c4 <l371>:
     7c4:	e11a0e5c 	tst	sl, ip, asr lr

000007c8 <l372>:
     7c8:	e11c0008 	tst	ip, r8

000007cc <l373>:
     7cc:	c318020a 	tstgt	r8, #-1610612736	; 0xa0000000

000007d0 <l374>:
     7d0:	4114005e 	tstmi	r4, lr, asr r0

000007d4 <l375>:
     7d4:	e31f0961 	tst	pc, #1589248	; 0x184000

000007d8 <l376>:
     7d8:	e118091e 	tst	r8, lr, lsl r9

000007dc <l377>:
     7dc:	e31b021d 	tst	fp, #-805306367	; 0xd0000001

000007e0 <l378>:
     7e0:	e11e0068 	tst	lr, r8, rrx

000007e4 <l379>:
     7e4:	c11208c6 	tstgt	r2, r6, asr #17

000007e8 <l380>:
     7e8:	e11c048a 	tst	ip, sl, lsl #9

000007ec <l381>:
     7ec:	71130002 	tstvc	r3, r2

000007f0 <l382>:
     7f0:	e110000f 	tst	r0, pc

000007f4 <l383>:
     7f4:	81170a0a 	tsthi	r7, sl, lsl #20

000007f8 <l384>:
     7f8:	83150876 	tsthi	r5, #7733248	; 0x760000

000007fc <l385>:
     7fc:	9115083a 	tstls	r5, sl, lsr r8

00000800 <l386>:
     800:	e11c0bc0 	tst	ip, r0, asr #23

00000804 <l387>:
     804:	e11c0337 	tst	ip, r7, lsr r3

00000808 <l388>:
     808:	1110006f 	tstne	r0, pc, rrx

0000080c <l389>:
     80c:	711f000a 	tstvc	pc, sl

00000810 <l390>:
     810:	e31c0e5b 	tst	ip, #1456	; 0x5b0

00000814 <l391>:
     814:	711c0e60 	tstvc	ip, r0, ror #28

00000818 <l392>:
     818:	631f0916 	tstvs	pc, #360448	; 0x58000

0000081c <l393>:
     81c:	e31906da 	tst	r9, #228589568	; 0xda00000

00000820 <l394>:
     820:	41190010 	tstmi	r9, r0, lsl r0

00000824 <l395>:
     824:	e11e0007 	tst	lr, r7

00000828 <l396>:
     828:	e11c0001 	tst	ip, r1

0000082c <l397>:
     82c:	41170555 	tstmi	r7, r5, asr r5

00000830 <l398>:
     830:	011f0068 	tsteq	pc, r8, rrx

00000834 <l399>:
     834:	e3170ea2 	tst	r7, #2592	; 0xa20

00000838 <l400>:
     838:	e11f0d0e 	tst	pc, lr, lsl #26

0000083c <l401>:
     83c:	e119021a 	tst	r9, sl, lsl r2

00000840 <l402>:
     840:	211b000e 	tstcs	fp, lr

00000844 <l403>:
     844:	e11c040f 	tst	ip, pc, lsl #8

00000848 <l404>:
     848:	511e0002 	tstpl	lr, r2

0000084c <l405>:
     84c:	e31b0926 	tst	fp, #622592	; 0x98000

00000850 <l406>:
     850:	c1160564 	tstgt	r6, r4, ror #10

00000854 <l407>:
     854:	e1150230 	tst	r5, r0, lsr r2

00000858 <l408>:
     858:	e31b0e39 	tst	fp, #912	; 0x390

0000085c <l409>:
     85c:	e1180008 	tst	r8, r8

00000860 <l410>:
     860:	e11f0002 	tst	pc, r2

00000864 <l411>:
     864:	e1140a04 	tst	r4, r4, lsl #20

00000868 <l412>:
     868:	7310099b 	tstvc	r0, #2539520	; 0x26c000

0000086c <l413>:
     86c:	e1140da7 	tst	r4, r7, lsr #27

00000870 <l414>:
     870:	111e0006 	tstne	lr, r6

00000874 <l415>:
     874:	e3170932 	tst	r7, #819200	; 0xc8000

00000878 <l416>:
     878:	e31b0777 	tst	fp, #31195136	; 0x1dc0000

0000087c <l417>:
     87c:	e11c0f27 	tst	ip, r7, lsr #30

00000880 <l418>:
     880:	e31907b1 	tst	r9, #46399488	; 0x2c40000

00000884 <l419>:
     884:	711706cb 	tstvc	r7, fp, asr #13

00000888 <l420>:
     888:	e11b0069 	tst	fp, r9, rrx

0000088c <l421>:
     88c:	e11e0454 	tst	lr, r4, asr r4

00000890 <l422>:
     890:	e11f0009 	tst	pc, r9

00000894 <l423>:
     894:	e1170767 	tst	r7, r7, ror #14

00000898 <l424>:
     898:	431f03ad 	tstmi	pc, #-1275068414	; 0xb4000002

0000089c <l425>:
     89c:	e1190353 	tst	r9, r3, asr r3

000008a0 <l426>:
     8a0:	11110b2b 	tstne	r1, fp, lsr #22

000008a4 <l427>:
     8a4:	e11c0c30 	tst	ip, r0, lsr ip

000008a8 <l428>:
     8a8:	9110027b 	tstls	r0, fp, ror r2

000008ac <l429>:
     8ac:	e1140b77 	tst	r4, r7, ror fp

000008b0 <l430>:
     8b0:	e1100003 	tst	r0, r3

000008b4 <l431>:
     8b4:	e1120008 	tst	r2, r8

000008b8 <l432>:
     8b8:	0317062f 	tsteq	r7, #49283072	; 0x2f00000

000008bc <l433>:
     8bc:	e11a0245 	tst	sl, r5, asr #4

000008c0 <l434>:
     8c0:	e11406ea 	tst	r4, sl, ror #13

000008c4 <l435>:
     8c4:	e1180004 	tst	r8, r4

000008c8 <l436>:
     8c8:	d11a060a 	tstle	sl, sl, lsl #12

000008cc <l437>:
     8cc:	71160a46 	tstvc	r6, r6, asr #20

000008d0 <l438>:
     8d0:	e11b0122 	tst	fp, r2, lsr #2

000008d4 <l439>:
     8d4:	e11f0841 	tst	pc, r1, asr #16

000008d8 <l440>:
     8d8:	e1160e89 	tst	r6, r9, lsl #29

000008dc <l441>:
     8dc:	71110000 	tstvc	r1, r0

000008e0 <l442>:
     8e0:	e11f02e7 	tst	pc, r7, ror #5

000008e4 <l443>:
     8e4:	21100008 	tstcs	r0, r8

000008e8 <l444>:
     8e8:	e1100444 	tst	r0, r4, asr #8

000008ec <l445>:
     8ec:	c11e05cc 	tstgt	lr, ip, asr #11

000008f0 <l446>:
     8f0:	e11704e6 	tst	r7, r6, ror #9

000008f4 <l447>:
     8f4:	e31c018d 	tst	ip, #1073741859	; 0x40000023

000008f8 <l448>:
     8f8:	5113000e 	tstpl	r3, lr

000008fc <l449>:
     8fc:	b316073e 	tstlt	r6, #16252928	; 0xf80000

00000900 <l450>:
     900:	e1180f8f 	tst	r8, pc, lsl #31

00000904 <l451>:
     904:	a11e0728 	tstge	lr, r8, lsr #14

00000908 <l452>:
     908:	e1120ca7 	tst	r2, r7, lsr #25

0000090c <l453>:
     90c:	21150115 	tstcs	r5, r5, lsl r1

00000910 <l454>:
     910:	e31804af 	tst	r8, #-1358954496	; 0xaf000000

00000914 <l455>:
     914:	311607e5 	tstcc	r6, r5, ror #15

00000918 <l456>:
     918:	e11e000a 	tst	lr, sl

0000091c <l457>:
     91c:	011a0b81 	tsteq	sl, r1, lsl #23

00000920 <l458>:
     920:	91100346 	tstls	r0, r6, asr #6

00000924 <l459>:
     924:	131b04ff 	tstne	fp, #-16777216	; 0xff000000

00000928 <l460>:
     928:	e11a0916 	tst	sl, r6, lsl r9

0000092c <l461>:
     92c:	e111000f 	tst	r1, pc

00000930 <l462>:
     930:	03190b39 	tsteq	r9, #58368	; 0xe400

00000934 <l463>:
     934:	e1160166 	tst	r6, r6, ror #2

00000938 <l464>:
     938:	611a0009 	tstvs	sl, r9

0000093c <l465>:
     93c:	811e0258 	tsthi	lr, r8, asr r2

00000940 <l466>:
     940:	e11e0061 	tst	lr, r1, rrx

00000944 <l467>:
     944:	e1160c3e 	tst	r6, lr, lsr ip

00000948 <l468>:
     948:	4117000f 	tstmi	r7, pc

0000094c <l469>:
     94c:	e1170188 	tst	r7, r8, lsl #3

00000950 <l470>:
     950:	13100d59 	tstne	r0, #5696	; 0x1640

00000954 <l471>:
     954:	e1180009 	tst	r8, r9

00000958 <l472>:
     958:	a11e0007 	tstge	lr, r7

0000095c <l473>:
     95c:	e110006a 	tst	r0, sl, rrx

00000960 <l474>:
     960:	51150a2b 	tstpl	r5, fp, lsr #20

00000964 <l475>:
     964:	51140918 	tstpl	r4, r8, lsl r9

00000968 <l476>:
     968:	71150538 	tstvc	r5, r8, lsr r5

0000096c <l477>:
     96c:	e11c022a 	tst	ip, sl, lsr #4

00000970 <l478>:
     970:	91150052 	tstls	r5, r2, asr r0

00000974 <l479>:
     974:	2114052b 	tstcs	r4, fp, lsr #10

00000978 <l480>:
     978:	c1130546 	tstgt	r3, r6, asr #10

0000097c <l481>:
     97c:	e3150a16 	tst	r5, #90112	; 0x16000

00000980 <l482>:
     980:	e1140001 	tst	r4, r1

00000984 <l483>:
     984:	c1180002 	tstgt	r8, r2

00000988 <l484>:
     988:	411c0000 	tstmi	ip, r0

0000098c <l485>:
     98c:	e3180523 	tst	r8, #146800640	; 0x8c00000

00000990 <l486>:
     990:	51160001 	tstpl	r6, r1

00000994 <l487>:
     994:	e1160001 	tst	r6, r1

00000998 <l488>:
     998:	e31a0836 	tst	sl, #3538944	; 0x360000

0000099c <l489>:
     99c:	91100003 	tstls	r0, r3

000009a0 <l490>:
     9a0:	31180002 	tstcc	r8, r2

000009a4 <l491>:
     9a4:	e31a0afa 	tst	sl, #1024000	; 0xfa000

000009a8 <l492>:
     9a8:	e1130314 	tst	r3, r4, lsl r3

000009ac <l493>:
     9ac:	e11c0511 	tst	ip, r1, lsl r5

000009b0 <l494>:
     9b0:	e1140062 	tst	r4, r2, rrx

000009b4 <l495>:
     9b4:	6112000e 	tstvs	r2, lr

000009b8 <l496>:
     9b8:	911a0009 	tstls	sl, r9

000009bc <l497>:
     9bc:	e31b063d 	tst	fp, #63963136	; 0x3d00000

000009c0 <l498>:
     9c0:	e1140002 	tst	r4, r2

000009c4 <l499>:
     9c4:	611e000f 	tstvs	lr, pc

000009c8 <l500>:
     9c8:	511c000f 	tstpl	ip, pc

000009cc <l501>:
     9cc:	411e0003 	tstmi	lr, r3

000009d0 <l502>:
     9d0:	0119006f 	tsteq	r9, pc, rrx

000009d4 <l503>:
     9d4:	b11707a0 	tstlt	r7, r0, lsr #15

000009d8 <l504>:
     9d8:	e11b0dac 	tst	fp, ip, lsr #27

000009dc <l505>:
     9dc:	e114000b 	tst	r4, fp

000009e0 <l506>:
     9e0:	e119051b 	tst	r9, fp, lsl r5

000009e4 <l507>:
     9e4:	71190004 	tstvc	r9, r4

000009e8 <l508>:
     9e8:	e1190068 	tst	r9, r8, rrx

000009ec <l509>:
     9ec:	e317047a 	tst	r7, #2046820352	; 0x7a000000

000009f0 <l510>:
     9f0:	01100617 	tsteq	r0, r7, lsl r6

000009f4 <l511>:
     9f4:	e31f0171 	tst	pc, #1073741852	; 0x4000001c

000009f8 <l512>:
     9f8:	4117000b 	tstmi	r7, fp

000009fc <l513>:
     9fc:	e113000f 	tst	r3, pc

00000a00 <l514>:
     a00:	03100101 	tsteq	r0, #1073741824	; 0x40000000

00000a04 <l515>:
     a04:	e1150255 	tst	r5, r5, asr r2

00000a08 <l516>:
     a08:	01110063 	tsteq	r1, r3, rrx

00000a0c <l517>:
     a0c:	b3150299 	tstlt	r5, #-1879048183	; 0x90000009

00000a10 <l518>:
     a10:	e11f0005 	tst	pc, r5

00000a14 <l519>:
     a14:	93160a31 	tstls	r6, #200704	; 0x31000

00000a18 <l520>:
     a18:	e11c000a 	tst	ip, sl

00000a1c <l521>:
     a1c:	31140b23 	tstcc	r4, r3, lsr #22

00000a20 <l522>:
     a20:	c11c0878 	tstgt	ip, r8, ror r8

00000a24 <l523>:
     a24:	c116000a 	tstgt	r6, sl

00000a28 <l524>:
     a28:	e1160057 	tst	r6, r7, asr r0

00000a2c <l525>:
     a2c:	9119000f 	tstls	r9, pc

00000a30 <l526>:
     a30:	511e0006 	tstpl	lr, r6

00000a34 <l527>:
     a34:	111b0001 	tstne	fp, r1

00000a38 <l528>:
     a38:	e11b0068 	tst	fp, r8, rrx

00000a3c <l529>:
     a3c:	511e0000 	tstpl	lr, r0

00000a40 <l530>:
     a40:	e1150008 	tst	r5, r8

00000a44 <l531>:
     a44:	81190f2b 	tsthi	r9, fp, lsr #30

00000a48 <l532>:
     a48:	e115000a 	tst	r5, sl

00000a4c <l533>:
     a4c:	2118000a 	tstcs	r8, sl

00000a50 <l534>:
     a50:	d116085e 	tstle	r6, lr, asr r8

00000a54 <l535>:
     a54:	01170246 	tsteq	r7, r6, asr #4

00000a58 <l536>:
     a58:	a11f0002 	tstge	pc, r2

00000a5c <l537>:
     a5c:	43150663 	tstmi	r5, #103809024	; 0x6300000

00000a60 <l538>:
     a60:	01160250 	tsteq	r6, r0, asr r2

00000a64 <l539>:
     a64:	21110c78 	tstcs	r1, r8, ror ip

00000a68 <l540>:
     a68:	e115000b 	tst	r5, fp

00000a6c <l541>:
     a6c:	e1180c30 	tst	r8, r0, lsr ip

00000a70 <l542>:
     a70:	4115021b 	tstmi	r5, fp, lsl r2

00000a74 <l543>:
     a74:	e1180005 	tst	r8, r5

00000a78 <l544>:
     a78:	5316073f 	tstpl	r6, #16515072	; 0xfc0000

00000a7c <l545>:
     a7c:	711c0002 	tstvc	ip, r2

00000a80 <l546>:
     a80:	e1140eaa 	tst	r4, sl, lsr #29

00000a84 <l547>:
     a84:	b319016a 	tstlt	r9, #-2147483622	; 0x8000001a

00000a88 <l548>:
     a88:	1115000a 	tstne	r5, sl

00000a8c <l549>:
     a8c:	731a0b9f 	tstvc	sl, #162816	; 0x27c00

00000a90 <l550>:
     a90:	e3150e6f 	tst	r5, #1776	; 0x6f0

00000a94 <l551>:
     a94:	d11e0a6f 	tstle	lr, pc, ror #20

00000a98 <l552>:
     a98:	511e0002 	tstpl	lr, r2

00000a9c <l553>:
     a9c:	51180321 	tstpl	r8, r1, lsr #6

00000aa0 <l554>:
     aa0:	51140006 	tstpl	r4, r6

00000aa4 <l555>:
     aa4:	d1180f66 	tstle	r8, r6, ror #30

00000aa8 <l556>:
     aa8:	e1170851 	tst	r7, r1, asr r8

00000aac <l557>:
     aac:	511a0069 	tstpl	sl, r9, rrx

00000ab0 <l558>:
     ab0:	e3160343 	tst	r6, #201326593	; 0xc000001

00000ab4 <l559>:
     ab4:	01100138 	tsteq	r0, r8, lsr r1

00000ab8 <l560>:
     ab8:	511c0004 	tstpl	ip, r4

00000abc <l561>:
     abc:	211a0238 	tstcs	sl, r8, lsr r2

00000ac0 <l562>:
     ac0:	e3130d49 	tst	r3, #4672	; 0x1240

00000ac4 <l563>:
     ac4:	c11b0789 	tstgt	fp, r9, lsl #15

00000ac8 <l564>:
     ac8:	e1160e3c 	tst	r6, ip, lsr lr

00000acc <l565>:
     acc:	6119011b 	tstvs	r9, fp, lsl r1

00000ad0 <l566>:
     ad0:	031508f3 	tsteq	r5, #15925248	; 0xf30000

00000ad4 <l567>:
     ad4:	11160002 	tstne	r6, r2

00000ad8 <l568>:
     ad8:	c1180002 	tstgt	r8, r2

00000adc <l569>:
     adc:	e11a0007 	tst	sl, r7

00000ae0 <l570>:
     ae0:	3119083b 	tstcc	r9, fp, lsr r8

00000ae4 <l571>:
     ae4:	e3170f57 	tst	r7, #348	; 0x15c

00000ae8 <l572>:
     ae8:	d11005a1 	tstle	r0, r1, lsr #11

00000aec <l573>:
     aec:	131f01ab 	tstne	pc, #-1073741782	; 0xc000002a

00000af0 <l574>:
     af0:	c11100a3 	tstgt	r1, r3, lsr #1

00000af4 <l575>:
     af4:	31160145 	tstcc	r6, r5, asr #2

00000af8 <l576>:
     af8:	e11f000f 	tst	pc, pc

00000afc <l577>:
     afc:	711f0066 	tstvc	pc, r6, rrx

00000b00 <l578>:
     b00:	9118000b 	tstls	r8, fp

00000b04 <l579>:
     b04:	e1150007 	tst	r5, r7

00000b08 <l580>:
     b08:	43150020 	tstmi	r5, #32

00000b0c <l581>:
     b0c:	3114006b 	tstcc	r4, fp, rrx

00000b10 <l582>:
     b10:	d114027e 	tstle	r4, lr, ror r2

00000b14 <l583>:
     b14:	e118000f 	tst	r8, pc

00000b18 <l584>:
     b18:	e11a0060 	tst	sl, r0, rrx

00000b1c <l585>:
     b1c:	e1110063 	tst	r1, r3, rrx

00000b20 <l586>:
     b20:	111a000e 	tstne	sl, lr

00000b24 <l587>:
     b24:	e11b017a 	tst	fp, sl, ror r1

00000b28 <l588>:
     b28:	e11c0358 	tst	ip, r8, asr r3

00000b2c <l589>:
     b2c:	e11907c4 	tst	r9, r4, asr #15

00000b30 <l590>:
     b30:	01110a3a 	tsteq	r1, sl, lsr sl

00000b34 <l591>:
     b34:	e11b0061 	tst	fp, r1, rrx

00000b38 <l592>:
     b38:	71110e33 	tstvc	r1, r3, lsr lr

00000b3c <l593>:
     b3c:	e11a0009 	tst	sl, r9

00000b40 <l594>:
     b40:	e31a072f 	tst	sl, #12320768	; 0xbc0000

00000b44 <l595>:
     b44:	d3150cf6 	tstle	r5, #62976	; 0xf600

00000b48 <l596>:
     b48:	e11f0b89 	tst	pc, r9, lsl #23

00000b4c <l597>:
     b4c:	61170004 	tstvs	r7, r4

00000b50 <l598>:
     b50:	631e0053 	tstvs	lr, #83	; 0x53

00000b54 <l599>:
     b54:	21170038 	tstcs	r7, r8, lsr r0

00000b58 <l600>:
     b58:	33140e99 	tstcc	r4, #2448	; 0x990

00000b5c <l601>:
     b5c:	311f0002 	tstcc	pc, r2

00000b60 <l602>:
     b60:	e1150008 	tst	r5, r8

00000b64 <l603>:
     b64:	e1160b1c 	tst	r6, ip, lsl fp

00000b68 <l604>:
     b68:	e11c021e 	tst	ip, lr, lsl r2

00000b6c <l605>:
     b6c:	e1100655 	tst	r0, r5, asr r6

00000b70 <l606>:
     b70:	3114000b 	tstcc	r4, fp

00000b74 <l607>:
     b74:	a3130902 	tstge	r3, #32768	; 0x8000

00000b78 <l608>:
     b78:	e11b0980 	tst	fp, r0, lsl #19

00000b7c <l609>:
     b7c:	31110008 	tstcc	r1, r8

00000b80 <l610>:
     b80:	011b0003 	tsteq	fp, r3

00000b84 <l611>:
     b84:	911a0006 	tstls	sl, r6

00000b88 <l612>:
     b88:	e11906c5 	tst	r9, r5, asr #13

00000b8c <l613>:
     b8c:	d11f0066 	tstle	pc, r6, rrx

00000b90 <l614>:
     b90:	e31e003f 	tst	lr, #63	; 0x3f

00000b94 <l615>:
     b94:	131e0c1b 	tstne	lr, #6912	; 0x1b00

00000b98 <l616>:
     b98:	e116000a 	tst	r6, sl

00000b9c <l617>:
     b9c:	431a074e 	tstmi	sl, #20447232	; 0x1380000

00000ba0 <l618>:
     ba0:	e31e0a91 	tst	lr, #593920	; 0x91000

00000ba4 <l619>:
     ba4:	e1140002 	tst	r4, r2

00000ba8 <l620>:
     ba8:	e3170a51 	tst	r7, #331776	; 0x51000

00000bac <l621>:
     bac:	e1130007 	tst	r3, r7

00000bb0 <l622>:
     bb0:	e1170c49 	tst	r7, r9, asr #24

00000bb4 <l623>:
     bb4:	61180314 	tstvs	r8, r4, lsl r3

00000bb8 <l624>:
     bb8:	e1100006 	tst	r0, r6

00000bbc <l625>:
     bbc:	1116011c 	tstne	r6, ip, lsl r1

00000bc0 <l626>:
     bc0:	b11a0007 	tstlt	sl, r7

00000bc4 <l627>:
     bc4:	c112000a 	tstgt	r2, sl

00000bc8 <l628>:
     bc8:	011f000b 	tsteq	pc, fp

00000bcc <l629>:
     bcc:	e1160888 	tst	r6, r8, lsl #17

00000bd0 <l630>:
     bd0:	8317032d 	tsthi	r7, #-1275068416	; 0xb4000000

00000bd4 <l631>:
     bd4:	b11704a9 	tstlt	r7, r9, lsr #9

00000bd8 <l632>:
     bd8:	831e0a41 	tsthi	lr, #266240	; 0x41000

00000bdc <l633>:
     bdc:	e317091a 	tst	r7, #425984	; 0x68000

00000be0 <l634>:
     be0:	e11f0f49 	tst	pc, r9, asr #30

00000be4 <l635>:
     be4:	e1160009 	tst	r6, r9

00000be8 <l636>:
     be8:	b31f0d2e 	tstlt	pc, #2944	; 0xb80

00000bec <l637>:
     bec:	e31f0527 	tst	pc, #163577856	; 0x9c00000

00000bf0 <l638>:
     bf0:	e1110001 	tst	r1, r1

00000bf4 <l639>:
     bf4:	83140386 	tsthi	r4, #402653186	; 0x18000002

00000bf8 <l640>:
     bf8:	c1100031 	tstgt	r0, r1, lsr r0

00000bfc <l641>:
     bfc:	d31e070b 	tstle	lr, #2883584	; 0x2c0000

00000c00 <l642>:
     c00:	e1180bc9 	tst	r8, r9, asr #23

00000c04 <l643>:
     c04:	e118000a 	tst	r8, sl

00000c08 <l644>:
     c08:	c11b0644 	tstgt	fp, r4, asr #12

00000c0c <l645>:
     c0c:	e1190004 	tst	r9, r4

00000c10 <l646>:
     c10:	831903df 	tsthi	r9, #2080374787	; 0x7c000003

00000c14 <l647>:
     c14:	3318031d 	tstcc	r8, #1946157056	; 0x74000000

00000c18 <l648>:
     c18:	e1170c14 	tst	r7, r4, lsl ip

00000c1c <l649>:
     c1c:	63110a33 	tstvs	r1, #208896	; 0x33000

00000c20 <l650>:
     c20:	411603ee 	tstmi	r6, lr, ror #7

00000c24 <l651>:
     c24:	e112013c 	tst	r2, ip, lsr r1

00000c28 <l652>:
     c28:	e1170ce1 	tst	r7, r1, ror #25

00000c2c <l653>:
     c2c:	231f0adb 	tstcs	pc, #897024	; 0xdb000

00000c30 <l654>:
     c30:	91130e7a 	tstls	r3, sl, ror lr

00000c34 <l655>:
     c34:	b3150136 	tstlt	r5, #-2147483635	; 0x8000000d

00000c38 <l656>:
     c38:	111c0003 	tstne	ip, r3

00000c3c <l657>:
     c3c:	331b007b 	tstcc	fp, #123	; 0x7b

00000c40 <l658>:
     c40:	431e071e 	tstmi	lr, #7864320	; 0x780000

00000c44 <l659>:
     c44:	e1130819 	tst	r3, r9, lsl r8

00000c48 <l660>:
     c48:	631309ff 	tstvs	r3, #4177920	; 0x3fc000

00000c4c <l661>:
     c4c:	83120102 	tsthi	r2, #-2147483648	; 0x80000000

00000c50 <l662>:
     c50:	e312019f 	tst	r2, #-1073741785	; 0xc0000027

00000c54 <l663>:
     c54:	c1100155 	tstgt	r0, r5, asr r1

00000c58 <l664>:
     c58:	611703ee 	tstvs	r7, lr, ror #7

00000c5c <l665>:
     c5c:	111b0076 	tstne	fp, r6, ror r0

00000c60 <l666>:
     c60:	01100063 	tsteq	r0, r3, rrx

00000c64 <l667>:
     c64:	a1180f48 	tstge	r8, r8, asr #30

00000c68 <l668>:
     c68:	e3180fea 	tst	r8, #936	; 0x3a8

00000c6c <l669>:
     c6c:	e11b000c 	tst	fp, ip

00000c70 <l670>:
     c70:	e1190007 	tst	r9, r7

00000c74 <l671>:
     c74:	e1140008 	tst	r4, r8

00000c78 <l672>:
     c78:	e11f02c4 	tst	pc, r4, asr #5

00000c7c <l673>:
     c7c:	e1180320 	tst	r8, r0, lsr #6

00000c80 <l674>:
     c80:	41120b7e 	tstmi	r2, lr, ror fp

00000c84 <l675>:
     c84:	73160e79 	tstvc	r6, #1936	; 0x790

00000c88 <l676>:
     c88:	7114016c 	tstvc	r4, ip, ror #2

00000c8c <l677>:
     c8c:	31140001 	tstcc	r4, r1

00000c90 <l678>:
     c90:	e115006a 	tst	r5, sl, rrx

00000c94 <l679>:
     c94:	e1160008 	tst	r6, r8

00000c98 <l680>:
     c98:	531009af 	tstpl	r0, #2867200	; 0x2bc000

00000c9c <l681>:
     c9c:	41170009 	tstmi	r7, r9

00000ca0 <l682>:
     ca0:	d1170003 	tstle	r7, r3

00000ca4 <l683>:
     ca4:	e1160065 	tst	r6, r5, rrx

00000ca8 <l684>:
     ca8:	a1130272 	tstge	r3, r2, ror r2

00000cac <l685>:
     cac:	011208c1 	tsteq	r2, r1, asr #17

00000cb0 <l686>:
     cb0:	e3120487 	tst	r2, #-2030043136	; 0x87000000

00000cb4 <l687>:
     cb4:	c11a0505 	tstgt	sl, r5, lsl #10

00000cb8 <l688>:
     cb8:	b319097f 	tstlt	r9, #2080768	; 0x1fc000

00000cbc <l689>:
     cbc:	231c043d 	tstcs	ip, #1023410176	; 0x3d000000

00000cc0 <l690>:
     cc0:	e31407cb 	tst	r4, #53215232	; 0x32c0000

00000cc4 <l691>:
     cc4:	e11e0000 	tst	lr, r0

00000cc8 <l692>:
     cc8:	031f0cbb 	tsteq	pc, #47872	; 0xbb00

00000ccc <l693>:
     ccc:	8316062b 	tsthi	r6, #45088768	; 0x2b00000

00000cd0 <l694>:
     cd0:	e11e0002 	tst	lr, r2

00000cd4 <l695>:
     cd4:	e11a0330 	tst	sl, r0, lsr r3

00000cd8 <l696>:
     cd8:	331f0ce6 	tstcc	pc, #58880	; 0xe600

00000cdc <l697>:
     cdc:	91150a3a 	tstls	r5, sl, lsr sl

00000ce0 <l698>:
     ce0:	311f0342 	tstcc	pc, r2, asr #6

00000ce4 <l699>:
     ce4:	711b0007 	tstvc	fp, r7

00000ce8 <l700>:
     ce8:	a1160007 	tstge	r6, r7

00000cec <l701>:
     cec:	031c00fd 	tsteq	ip, #253	; 0xfd

00000cf0 <l702>:
     cf0:	b1100a6b 	tstlt	r0, fp, ror #20

00000cf4 <l703>:
     cf4:	71140057 	tstvc	r4, r7, asr r0

00000cf8 <l704>:
     cf8:	e1170d09 	tst	r7, r9, lsl #26

00000cfc <l705>:
     cfc:	9316007f 	tstls	r6, #127	; 0x7f

00000d00 <l706>:
     d00:	e3170d2e 	tst	r7, #2944	; 0xb80

00000d04 <l707>:
     d04:	31110000 	tstcc	r1, r0

00000d08 <l708>:
     d08:	211900a0 	tstcs	r9, r0, lsr #1

00000d0c <l709>:
     d0c:	211b0680 	tstcs	fp, r0, lsl #13

00000d10 <l710>:
     d10:	e1170087 	tst	r7, r7, lsl #1

00000d14 <l711>:
     d14:	e1170138 	tst	r7, r8, lsr r1

00000d18 <l712>:
     d18:	c11f0002 	tstgt	pc, r2

00000d1c <l713>:
     d1c:	e113006b 	tst	r3, fp, rrx

00000d20 <l714>:
     d20:	e1140007 	tst	r4, r7

00000d24 <l715>:
     d24:	b317060e 	tstlt	r7, #14680064	; 0xe00000

00000d28 <l716>:
     d28:	d11e0113 	tstle	lr, r3, lsl r1

00000d2c <l717>:
     d2c:	911e0000 	tstls	lr, r0

00000d30 <l718>:
     d30:	e11e0066 	tst	lr, r6, rrx

00000d34 <l719>:
     d34:	71110001 	tstvc	r1, r1

00000d38 <l720>:
     d38:	61120007 	tstvs	r2, r7

00000d3c <l721>:
     d3c:	e110000f 	tst	r0, pc

00000d40 <l722>:
     d40:	e115000e 	tst	r5, lr

00000d44 <l723>:
     d44:	411f006a 	tstmi	pc, sl, rrx

00000d48 <l724>:
     d48:	e1130061 	tst	r3, r1, rrx

00000d4c <l725>:
     d4c:	d1170667 	tstle	r7, r7, ror #12

00000d50 <l726>:
     d50:	e310031a 	tst	r0, #1744830464	; 0x68000000

00000d54 <l727>:
     d54:	93180c02 	tstls	r8, #512	; 0x200

00000d58 <l728>:
     d58:	d1110005 	tstle	r1, r5

00000d5c <l729>:
     d5c:	a1120001 	tstge	r2, r1

00000d60 <l730>:
     d60:	51170188 	tstpl	r7, r8, lsl #3

00000d64 <l731>:
     d64:	03160022 	tsteq	r6, #34	; 0x22

00000d68 <l732>:
     d68:	b1120001 	tstlt	r2, r1

00000d6c <l733>:
     d6c:	01130c15 	tsteq	r3, r5, lsl ip

00000d70 <l734>:
     d70:	01160069 	tsteq	r6, r9, rrx

00000d74 <l735>:
     d74:	e1180515 	tst	r8, r5, lsl r5

00000d78 <l736>:
     d78:	e119006b 	tst	r9, fp, rrx

00000d7c <l737>:
     d7c:	e1170062 	tst	r7, r2, rrx

00000d80 <l738>:
     d80:	b11f006e 	tstlt	pc, lr, rrx

00000d84 <l739>:
     d84:	e11f000c 	tst	pc, ip

00000d88 <l740>:
     d88:	43100082 	tstmi	r0, #130	; 0x82

00000d8c <l741>:
     d8c:	811e0932 	tsthi	lr, r2, lsr r9

00000d90 <l742>:
     d90:	011a0008 	tsteq	sl, r8

00000d94 <l743>:
     d94:	a31900d2 	tstge	r9, #210	; 0xd2

00000d98 <l744>:
     d98:	c317079a 	tstgt	r7, #40370176	; 0x2680000

00000d9c <l745>:
     d9c:	e1170068 	tst	r7, r8, rrx

00000da0 <l746>:
     da0:	811f006f 	tsthi	pc, pc, rrx

00000da4 <l747>:
     da4:	431000ec 	tstmi	r0, #236	; 0xec

00000da8 <l748>:
     da8:	63150c0b 	tstvs	r5, #2816	; 0xb00

00000dac <l749>:
     dac:	c112006a 	tstgt	r2, sl, rrx

00000db0 <l750>:
     db0:	e1180706 	tst	r8, r6, lsl #14

00000db4 <l751>:
     db4:	311b0c64 	tstcc	fp, r4, ror #24

00000db8 <l752>:
     db8:	01190356 	tsteq	r9, r6, asr r3

00000dbc <l753>:
     dbc:	e110000f 	tst	r0, pc

00000dc0 <l754>:
     dc0:	431b088e 	tstmi	fp, #9306112	; 0x8e0000

00000dc4 <l755>:
     dc4:	e11002c2 	tst	r0, r2, asr #5

00000dc8 <l756>:
     dc8:	21180e85 	tstcs	r8, r5, lsl #29

00000dcc <l757>:
     dcc:	e1150067 	tst	r5, r7, rrx

00000dd0 <l758>:
     dd0:	d119034a 	tstle	r9, sl, asr #6

00000dd4 <l759>:
     dd4:	311c006a 	tstcc	ip, sl, rrx

00000dd8 <l760>:
     dd8:	e1120061 	tst	r2, r1, rrx

00000ddc <l761>:
     ddc:	411a000b 	tstmi	sl, fp

00000de0 <l762>:
     de0:	811c0003 	tsthi	ip, r3

00000de4 <l763>:
     de4:	03130213 	tsteq	r3, #805306369	; 0x30000001

00000de8 <l764>:
     de8:	d1120141 	tstle	r2, r1, asr #2

00000dec <l765>:
     dec:	e11b0237 	tst	fp, r7, lsr r2

00000df0 <l766>:
     df0:	e11c0a12 	tst	ip, r2, lsl sl

00000df4 <l767>:
     df4:	e112027a 	tst	r2, sl, ror r2

00000df8 <l768>:
     df8:	211a0206 	tstcs	sl, r6, lsl #4

00000dfc <l769>:
     dfc:	b116006f 	tstlt	r6, pc, rrx

00000e00 <l770>:
     e00:	e11b0005 	tst	fp, r5

00000e04 <l771>:
     e04:	71190b45 	tstvc	r9, r5, asr #22

00000e08 <l772>:
     e08:	d11f0faf 	tstle	pc, pc, lsr #31

00000e0c <l773>:
     e0c:	a1150004 	tstge	r5, r4

00000e10 <l774>:
     e10:	e1190917 	tst	r9, r7, lsl r9

00000e14 <l775>:
     e14:	81190b3b 	tsthi	r9, fp, lsr fp

00000e18 <l776>:
     e18:	211a0e04 	tstcs	sl, r4, lsl #28

00000e1c <l777>:
     e1c:	e111000a 	tst	r1, sl

00000e20 <l778>:
     e20:	e1190332 	tst	r9, r2, lsr r3

00000e24 <l779>:
     e24:	131302de 	tstne	r3, #-536870899	; 0xe000000d

00000e28 <l780>:
     e28:	e316049f 	tst	r6, #-1627389952	; 0x9f000000

00000e2c <l781>:
     e2c:	01130951 	tsteq	r3, r1, asr r9

00000e30 <l782>:
     e30:	e31c0733 	tst	ip, #13369344	; 0xcc0000

00000e34 <l783>:
     e34:	91170064 	tstls	r7, r4, rrx

00000e38 <l784>:
     e38:	e11b0a42 	tst	fp, r2, asr #20

00000e3c <l785>:
     e3c:	e1170236 	tst	r7, r6, lsr r2

00000e40 <l786>:
     e40:	e31f0981 	tst	pc, #2113536	; 0x204000

00000e44 <l787>:
     e44:	e11b0007 	tst	fp, r7

00000e48 <l788>:
     e48:	e1140062 	tst	r4, r2, rrx

00000e4c <l789>:
     e4c:	811b06a8 	tsthi	fp, r8, lsr #13

00000e50 <l790>:
     e50:	e11c0279 	tst	ip, r9, ror r2

00000e54 <l791>:
     e54:	e11f000b 	tst	pc, fp

00000e58 <l792>:
     e58:	e1190b77 	tst	r9, r7, ror fp

00000e5c <l793>:
     e5c:	d1120007 	tstle	r2, r7

00000e60 <l794>:
     e60:	c31f0d06 	tstgt	pc, #384	; 0x180

00000e64 <l795>:
     e64:	61170002 	tstvs	r7, r2

00000e68 <l796>:
     e68:	2115006e 	tstcs	r5, lr, rrx

00000e6c <l797>:
     e6c:	b3160e51 	tstlt	r6, #1296	; 0x510

00000e70 <l798>:
     e70:	231e0862 	tstcs	lr, #6422528	; 0x620000

00000e74 <l799>:
     e74:	411b0133 	tstmi	fp, r3, lsr r1

00000e78 <l800>:
     e78:	e1180471 	tst	r8, r1, ror r4

00000e7c <l801>:
     e7c:	d3100c76 	tstle	r0, #30208	; 0x7600

00000e80 <l802>:
     e80:	411a000c 	tstmi	sl, ip

00000e84 <l803>:
     e84:	e1180004 	tst	r8, r4

00000e88 <l804>:
     e88:	41130536 	tstmi	r3, r6, lsr r5

00000e8c <l805>:
     e8c:	d11e047e 	tstle	lr, lr, ror r4

00000e90 <l806>:
     e90:	e3190e8a 	tst	r9, #2208	; 0x8a0

00000e94 <l807>:
     e94:	311e0148 	tstcc	lr, r8, asr #2

00000e98 <l808>:
     e98:	e1150811 	tst	r5, r1, lsl r8

00000e9c <l809>:
     e9c:	93100915 	tstls	r0, #344064	; 0x54000

00000ea0 <l810>:
     ea0:	e1130079 	tst	r3, r9, ror r0

00000ea4 <l811>:
     ea4:	e3160559 	tst	r6, #373293056	; 0x16400000

00000ea8 <l812>:
     ea8:	b11b0638 	tstlt	fp, r8, lsr r6

00000eac <l813>:
     eac:	11160063 	tstne	r6, r3, rrx

00000eb0 <l814>:
     eb0:	c11a0009 	tstgt	sl, r9

00000eb4 <l815>:
     eb4:	9111000a 	tstls	r1, sl

00000eb8 <l816>:
     eb8:	e3120c56 	tst	r2, #22016	; 0x5600

00000ebc <l817>:
     ebc:	831b0a03 	tsthi	fp, #12288	; 0x3000

00000ec0 <l818>:
     ec0:	01100464 	tsteq	r0, r4, ror #8

00000ec4 <l819>:
     ec4:	e1130002 	tst	r3, r2

00000ec8 <l820>:
     ec8:	e1160005 	tst	r6, r5

00000ecc <l821>:
     ecc:	e113055e 	tst	r3, lr, asr r5

00000ed0 <l822>:
     ed0:	61190a53 	tstvs	r9, r3, asr sl

00000ed4 <l823>:
     ed4:	e1150006 	tst	r5, r6

00000ed8 <l824>:
     ed8:	e1160007 	tst	r6, r7

00000edc <l825>:
     edc:	e1190068 	tst	r9, r8, rrx

00000ee0 <l826>:
     ee0:	e1180774 	tst	r8, r4, ror r7

00000ee4 <l827>:
     ee4:	e1110384 	tst	r1, r4, lsl #7

00000ee8 <l828>:
     ee8:	331b0193 	tstcc	fp, #-1073741788	; 0xc0000024

00000eec <l829>:
     eec:	9118000e 	tstls	r8, lr

00000ef0 <l830>:
     ef0:	011a000c 	tsteq	sl, ip

00000ef4 <l831>:
     ef4:	83180ed1 	tsthi	r8, #3344	; 0xd10

00000ef8 <l832>:
     ef8:	511a0654 	tstpl	sl, r4, asr r6

00000efc <l833>:
     efc:	411906c3 	tstmi	r9, r3, asr #13

00000f00 <l834>:
     f00:	d11e006f 	tstle	lr, pc, rrx

00000f04 <l835>:
     f04:	e1110065 	tst	r1, r5, rrx

00000f08 <l836>:
     f08:	e1110100 	tst	r1, r0, lsl #2

00000f0c <l837>:
     f0c:	e11b000a 	tst	fp, sl

00000f10 <l838>:
     f10:	911a0436 	tstls	sl, r6, lsr r4

00000f14 <l839>:
     f14:	e1160945 	tst	r6, r5, asr #18

00000f18 <l840>:
     f18:	c1110da3 	tstgt	r1, r3, lsr #27

00000f1c <l841>:
     f1c:	e11a0009 	tst	sl, r9

00000f20 <l842>:
     f20:	d11f0004 	tstle	pc, r4

00000f24 <l843>:
     f24:	b112000e 	tstlt	r2, lr

00000f28 <l844>:
     f28:	c3110ac1 	tstgt	r1, #790528	; 0xc1000

00000f2c <l845>:
     f2c:	01100000 	tsteq	r0, r0

00000f30 <l846>:
     f30:	e31e0f6b 	tst	lr, #428	; 0x1ac

00000f34 <l847>:
     f34:	111402ea 	tstne	r4, sl, ror #5

00000f38 <l848>:
     f38:	11110ec3 	tstne	r1, r3, asr #29

00000f3c <l849>:
     f3c:	231c0377 	tstcs	ip, #-603979775	; 0xdc000001

00000f40 <l850>:
     f40:	71160f04 	tstvc	r6, r4, lsl #30

00000f44 <l851>:
     f44:	111c0009 	tstne	ip, r9

00000f48 <l852>:
     f48:	53190867 	tstpl	r9, #6750208	; 0x670000

00000f4c <l853>:
     f4c:	91150011 	tstls	r5, r1, lsl r0

00000f50 <l854>:
     f50:	e1130b82 	tst	r3, r2, lsl #23

00000f54 <l855>:
     f54:	211a0a7a 	tstcs	sl, sl, ror sl

00000f58 <l856>:
     f58:	c1140013 	tstgt	r4, r3, lsl r0

00000f5c <l857>:
     f5c:	e1130001 	tst	r3, r1

00000f60 <l858>:
     f60:	51170e36 	tstpl	r7, r6, lsr lr

00000f64 <l859>:
     f64:	21170004 	tstcs	r7, r4

00000f68 <l860>:
     f68:	61140142 	tstvs	r4, r2, asr #2

00000f6c <l861>:
     f6c:	e1170684 	tst	r7, r4, lsl #13

00000f70 <l862>:
     f70:	1117030c 	tstne	r7, ip, lsl #6

00000f74 <l863>:
     f74:	b1150e18 	tstlt	r5, r8, lsl lr

00000f78 <l864>:
     f78:	e11e000a 	tst	lr, sl

00000f7c <l865>:
     f7c:	7319049f 	tstvc	r9, #-1627389952	; 0x9f000000

00000f80 <l866>:
     f80:	931400b3 	tstls	r4, #179	; 0xb3

00000f84 <l867>:
     f84:	e119000e 	tst	r9, lr

00000f88 <l868>:
     f88:	711a000f 	tstvc	sl, pc

00000f8c <l869>:
     f8c:	e1140007 	tst	r4, r7

00000f90 <l870>:
     f90:	631b023a 	tstvs	fp, #-1610612733	; 0xa0000003

00000f94 <l871>:
     f94:	b1120060 	tstlt	r2, r0, rrx

00000f98 <l872>:
     f98:	911a0635 	tstls	sl, r5, lsr r6

00000f9c <l873>:
     f9c:	931e0e26 	tstls	lr, #608	; 0x260

00000fa0 <l874>:
     fa0:	a1170068 	tstge	r7, r8, rrx

00000fa4 <l875>:
     fa4:	e11c000a 	tst	ip, sl

00000fa8 <l876>:
     fa8:	e117000a 	tst	r7, sl

00000fac <l877>:
     fac:	e11b0009 	tst	fp, r9

00000fb0 <l878>:
     fb0:	e1170003 	tst	r7, r3

00000fb4 <l879>:
     fb4:	e318018f 	tst	r8, #-1073741789	; 0xc0000023

00000fb8 <l880>:
     fb8:	d1130e3e 	tstle	r3, lr, lsr lr

00000fbc <l881>:
     fbc:	511a0242 	tstpl	sl, r2, asr #4

00000fc0 <l882>:
     fc0:	e115006a 	tst	r5, sl, rrx

00000fc4 <l883>:
     fc4:	e31e0ceb 	tst	lr, #60160	; 0xeb00

00000fc8 <l884>:
     fc8:	5319090d 	tstpl	r9, #212992	; 0x34000

00000fcc <l885>:
     fcc:	d31006c5 	tstle	r0, #206569472	; 0xc500000

00000fd0 <l886>:
     fd0:	5110000f 	tstpl	r0, pc

00000fd4 <l887>:
     fd4:	e31f0653 	tst	pc, #87031808	; 0x5300000

00000fd8 <l888>:
     fd8:	111c0884 	tstne	ip, r4, lsl #17

00000fdc <l889>:
     fdc:	c31b0c03 	tstgt	fp, #768	; 0x300

00000fe0 <l890>:
     fe0:	c11e0356 	tstgt	lr, r6, asr r3

00000fe4 <l891>:
     fe4:	8112000e 	tsthi	r2, lr

00000fe8 <l892>:
     fe8:	61190aaa 	tstvs	r9, sl, lsr #21

00000fec <l893>:
     fec:	e116091b 	tst	r6, fp, lsl r9

00000ff0 <l894>:
     ff0:	e3140069 	tst	r4, #105	; 0x69

00000ff4 <l895>:
     ff4:	21100169 	tstcs	r0, r9, ror #2

00000ff8 <l896>:
     ff8:	d11e0953 	tstle	lr, r3, asr r9

00000ffc <l897>:
     ffc:	31120476 	tstcc	r2, r6, ror r4

00001000 <l898>:
    1000:	e119038b 	tst	r9, fp, lsl #7

00001004 <l899>:
    1004:	23170f51 	tstcs	r7, #324	; 0x144

00001008 <l900>:
    1008:	61170c42 	tstvs	r7, r2, asr #24

0000100c <l901>:
    100c:	e31b02cd 	tst	fp, #-805306356	; 0xd000000c

00001010 <l902>:
    1010:	e114000a 	tst	r4, sl

00001014 <l903>:
    1014:	e115000a 	tst	r5, sl

00001018 <l904>:
    1018:	e1150c79 	tst	r5, r9, ror ip

0000101c <l905>:
    101c:	3117006c 	tstcc	r7, ip, rrx

00001020 <l906>:
    1020:	e11a0667 	tst	sl, r7, ror #12

00001024 <l907>:
    1024:	331b0a0e 	tstcc	fp, #57344	; 0xe000

00001028 <l908>:
    1028:	2112091a 	tstcs	r2, sl, lsl r9

0000102c <l909>:
    102c:	d1180889 	tstle	r8, r9, lsl #17

00001030 <l910>:
    1030:	e11b0c11 	tst	fp, r1, lsl ip

00001034 <l911>:
    1034:	e11605a2 	tst	r6, r2, lsr #11

00001038 <l912>:
    1038:	6114000b 	tstvs	r4, fp

0000103c <l913>:
    103c:	511a0062 	tstpl	sl, r2, rrx

00001040 <l914>:
    1040:	e1150004 	tst	r5, r4

00001044 <l915>:
    1044:	e11e042e 	tst	lr, lr, lsr #8

00001048 <l916>:
    1048:	21190012 	tstcs	r9, r2, lsl r0

0000104c <l917>:
    104c:	931a00dc 	tstls	sl, #220	; 0xdc

00001050 <l918>:
    1050:	e1180061 	tst	r8, r1, rrx

00001054 <l919>:
    1054:	71160003 	tstvc	r6, r3

00001058 <l920>:
    1058:	e317032e 	tst	r7, #-1207959552	; 0xb8000000

0000105c <l921>:
    105c:	e119000a 	tst	r9, sl

00001060 <l922>:
    1060:	e31608dd 	tst	r6, #14483456	; 0xdd0000

00001064 <l923>:
    1064:	13160d4a 	tstne	r6, #4736	; 0x1280

00001068 <l924>:
    1068:	931303d3 	tstls	r3, #1275068419	; 0x4c000003

0000106c <l925>:
    106c:	111f000a 	tstne	pc, sl

00001070 <l926>:
    1070:	e116000c 	tst	r6, ip

00001074 <l927>:
    1074:	411b0c32 	tstmi	fp, r2, lsr ip

00001078 <l928>:
    1078:	e11b0002 	tst	fp, r2

0000107c <l929>:
    107c:	e119000a 	tst	r9, sl

00001080 <l930>:
    1080:	311b0b7e 	tstcc	fp, lr, ror fp

00001084 <l931>:
    1084:	111c0c16 	tstne	ip, r6, lsl ip

00001088 <l932>:
    1088:	e115000f 	tst	r5, pc

0000108c <l933>:
    108c:	e1120963 	tst	r2, r3, ror #18

00001090 <l934>:
    1090:	61180004 	tstvs	r8, r4

00001094 <l935>:
    1094:	511b0f68 	tstpl	fp, r8, ror #30

00001098 <l936>:
    1098:	e11c0066 	tst	ip, r6, rrx

0000109c <l937>:
    109c:	311a000a 	tstcc	sl, sl

000010a0 <l938>:
    10a0:	e11b0008 	tst	fp, r8

000010a4 <l939>:
    10a4:	21110001 	tstcs	r1, r1

000010a8 <l940>:
    10a8:	81100067 	tsthi	r0, r7, rrx

000010ac <l941>:
    10ac:	e1180557 	tst	r8, r7, asr r5

000010b0 <l942>:
    10b0:	81130004 	tsthi	r3, r4

000010b4 <l943>:
    10b4:	d11108cb 	tstle	r1, fp, asr #17

000010b8 <l944>:
    10b8:	5110006c 	tstpl	r0, ip, rrx

000010bc <l945>:
    10bc:	e318007d 	tst	r8, #125	; 0x7d

000010c0 <l946>:
    10c0:	41170062 	tstmi	r7, r2, rrx

000010c4 <l947>:
    10c4:	e310097e 	tst	r0, #2064384	; 0x1f8000

000010c8 <l948>:
    10c8:	e11c0258 	tst	ip, r8, asr r2

000010cc <l949>:
    10cc:	e111005e 	tst	r1, lr, asr r0

000010d0 <l950>:
    10d0:	211c0256 	tstcs	ip, r6, asr r2

000010d4 <l951>:
    10d4:	61140007 	tstvs	r4, r7

000010d8 <l952>:
    10d8:	e31e0751 	tst	lr, #21233664	; 0x1440000

000010dc <l953>:
    10dc:	e11b055b 	tst	fp, fp, asr r5

000010e0 <l954>:
    10e0:	e11a0b36 	tst	sl, r6, lsr fp

000010e4 <l955>:
    10e4:	53190d1b 	tstpl	r9, #1728	; 0x6c0

000010e8 <l956>:
    10e8:	e31009bd 	tst	r0, #3096576	; 0x2f4000

000010ec <l957>:
    10ec:	e1130969 	tst	r3, r9, ror #18

000010f0 <l958>:
    10f0:	e31407e5 	tst	r4, #60030976	; 0x3940000

000010f4 <l959>:
    10f4:	611f0001 	tstvs	pc, r1

000010f8 <l960>:
    10f8:	21150000 	tstcs	r5, r0

000010fc <l961>:
    10fc:	e1130009 	tst	r3, r9

00001100 <l962>:
    1100:	031f0a57 	tsteq	pc, #356352	; 0x57000

00001104 <l963>:
    1104:	a1160383 	tstge	r6, r3, lsl #7

00001108 <l964>:
    1108:	d1110003 	tstle	r1, r3

0000110c <l965>:
    110c:	811303e3 	tsthi	r3, r3, ror #7

00001110 <l966>:
    1110:	21150471 	tstcs	r5, r1, ror r4

00001114 <l967>:
    1114:	c115023b 	tstgt	r5, fp, lsr r2

00001118 <l968>:
    1118:	b31b042f 	tstlt	fp, #788529152	; 0x2f000000

0000111c <l969>:
    111c:	3110003e 	tstcc	r0, lr, lsr r0

00001120 <l970>:
    1120:	11130e80 	tstne	r3, r0, lsl #29

00001124 <l971>:
    1124:	63120a53 	tstvs	r2, #339968	; 0x53000

00001128 <l972>:
    1128:	e31e0a02 	tst	lr, #8192	; 0x2000

0000112c <l973>:
    112c:	e1110283 	tst	r1, r3, lsl #5

00001130 <l974>:
    1130:	21180002 	tstcs	r8, r2

00001134 <l975>:
    1134:	e11b0007 	tst	fp, r7

00001138 <l976>:
    1138:	811202a0 	tsthi	r2, r0, lsr #5

0000113c <l977>:
    113c:	c1130065 	tstgt	r3, r5, rrx

00001140 <l978>:
    1140:	e11b0b8f 	tst	fp, pc, lsl #23

00001144 <l979>:
    1144:	11160a37 	tstne	r6, r7, lsr sl

00001148 <l980>:
    1148:	e1140684 	tst	r4, r4, lsl #13

0000114c <l981>:
    114c:	311a0007 	tstcc	sl, r7

00001150 <l982>:
    1150:	e1100006 	tst	r0, r6

00001154 <l983>:
    1154:	2310010f 	tstcs	r0, #-1073741821	; 0xc0000003

00001158 <l984>:
    1158:	c1110847 	tstgt	r1, r7, asr #16

0000115c <l985>:
    115c:	d114088b 	tstle	r4, fp, lsl #17

00001160 <l986>:
    1160:	e11b0000 	tst	fp, r0

00001164 <l987>:
    1164:	71170060 	tstvc	r7, r0, rrx

00001168 <l988>:
    1168:	e11b0a75 	tst	fp, r5, ror sl

0000116c <l989>:
    116c:	d1180969 	tstle	r8, r9, ror #18

00001170 <l990>:
    1170:	e314002c 	tst	r4, #44	; 0x2c

00001174 <l991>:
    1174:	e119000e 	tst	r9, lr

00001178 <l992>:
    1178:	e110062a 	tst	r0, sl, lsr #12

0000117c <l993>:
    117c:	e1190931 	tst	r9, r1, lsr r9

00001180 <l994>:
    1180:	e1120679 	tst	r2, r9, ror r6

00001184 <l995>:
    1184:	e1190007 	tst	r9, r7

00001188 <l996>:
    1188:	e31c057d 	tst	ip, #524288000	; 0x1f400000

0000118c <l997>:
    118c:	51190134 	tstpl	r9, r4, lsr r1

00001190 <l998>:
    1190:	e11a000a 	tst	sl, sl

00001194 <l999>:
    1194:	e31a07b1 	tst	sl, #46399488	; 0x2c40000

00001198 <l1000>:
    1198:	e31b0c0a 	tst	fp, #2560	; 0xa00

0000119c <end>:
    119c:	eafffffe 	b	119c <end>
