
umlal_1000.o:     file format elf32-littlearm


Disassembly of section .text:

00000000 <main>:
       0:	e05f000f 	subs	r0, pc, pc
       4:	e59fd000 	ldr	sp, [pc]	; c <val>
       8:	ea000000 	b	10 <next>

0000000c <val>:
       c:	000ffff0 	.word	0x000ffff0

00000010 <next>:
      10:	e59f1000 	ldr	r1, [pc]	; 18 <val1>
      14:	ea000000 	b	1c <next1>

00000018 <val1>:
      18:	cfe9cce7 	.word	0xcfe9cce7

0000001c <next1>:
      1c:	e59f2000 	ldr	r2, [pc]	; 24 <val2>
      20:	ea000000 	b	28 <next2>

00000024 <val2>:
      24:	a3e1ee8b 	.word	0xa3e1ee8b

00000028 <next2>:
      28:	e59f3000 	ldr	r3, [pc]	; 30 <val3>
      2c:	ea000000 	b	34 <next3>

00000030 <val3>:
      30:	9b304f2a 	.word	0x9b304f2a

00000034 <next3>:
      34:	e59f4000 	ldr	r4, [pc]	; 3c <val4>
      38:	ea000000 	b	40 <next4>

0000003c <val4>:
      3c:	919d5358 	.word	0x919d5358

00000040 <next4>:
      40:	e59f5000 	ldr	r5, [pc]	; 48 <val5>
      44:	ea000000 	b	4c <next5>

00000048 <val5>:
      48:	80a43103 	.word	0x80a43103

0000004c <next5>:
      4c:	e59f6000 	ldr	r6, [pc]	; 54 <val6>
      50:	ea000000 	b	58 <next6>

00000054 <val6>:
      54:	af1745a1 	.word	0xaf1745a1

00000058 <next6>:
      58:	e59f7000 	ldr	r7, [pc]	; 60 <val7>
      5c:	ea000000 	b	64 <next7>

00000060 <val7>:
      60:	9e999782 	.word	0x9e999782

00000064 <next7>:
      64:	e59f8000 	ldr	r8, [pc]	; 6c <val8>
      68:	ea000000 	b	70 <next8>

0000006c <val8>:
      6c:	012d0146 	.word	0x012d0146

00000070 <next8>:
      70:	e59f9000 	ldr	r9, [pc]	; 78 <val9>
      74:	ea000000 	b	7c <next9>

00000078 <val9>:
      78:	01a5169a 	.word	0x01a5169a

0000007c <next9>:
      7c:	e59fa000 	ldr	sl, [pc]	; 84 <val10>
      80:	ea000000 	b	88 <next10>

00000084 <val10>:
      84:	7db42b5c 	.word	0x7db42b5c

00000088 <next10>:
      88:	e59fb000 	ldr	fp, [pc]	; 90 <val11>
      8c:	ea000000 	b	94 <next11>

00000090 <val11>:
      90:	b73a9b76 	.word	0xb73a9b76

00000094 <next11>:
      94:	e59fc000 	ldr	ip, [pc]	; 9c <val12>
      98:	ea000000 	b	a0 <next12>

0000009c <val12>:
      9c:	d2573849 	.word	0xd2573849

000000a0 <next12>:
      a0:	e59fe000 	ldr	lr, [pc]	; a8 <val14>
      a4:	ea000000 	b	ac <next14>

000000a8 <val14>:
      a8:	5327f047 	.word	0x5327f047

000000ac <next14>:
      ac:	e59f1000 	ldr	r1, [pc]	; b4 <val15>
      b0:	ea000000 	b	b8 <next15>

000000b4 <val15>:
      b4:	75881e14 	.word	0x75881e14

000000b8 <next15>:
      b8:	e58d1000 	str	r1, [sp]
      bc:	e59f1000 	ldr	r1, [pc]	; c4 <val16>
      c0:	ea000000 	b	c8 <next16>

000000c4 <val16>:
      c4:	606098c4 	.word	0x606098c4

000000c8 <next16>:
      c8:	e50d1004 	str	r1, [sp, #-4]
      cc:	e59f1000 	ldr	r1, [pc]	; d4 <val17>
      d0:	ea000000 	b	d8 <next17>

000000d4 <val17>:
      d4:	87c08038 	.word	0x87c08038

000000d8 <next17>:
      d8:	e50d1008 	str	r1, [sp, #-8]
      dc:	e59f1000 	ldr	r1, [pc]	; e4 <val18>
      e0:	ea000000 	b	e8 <next18>

000000e4 <val18>:
      e4:	0a118ebe 	.word	0x0a118ebe

000000e8 <next18>:
      e8:	e50d100c 	str	r1, [sp, #-12]
      ec:	e59f1000 	ldr	r1, [pc]	; f4 <val19>
      f0:	ea000000 	b	f8 <next19>

000000f4 <val19>:
      f4:	21b9da81 	.word	0x21b9da81

000000f8 <next19>:
      f8:	e50d1010 	str	r1, [sp, #-16]
      fc:	e59f1000 	ldr	r1, [pc]	; 104 <val20>
     100:	ea000000 	b	108 <next20>

00000104 <val20>:
     104:	dd272e28 	.word	0xdd272e28

00000108 <next20>:
     108:	e50d1014 	str	r1, [sp, #-20]
     10c:	e59f1000 	ldr	r1, [pc]	; 114 <val21>
     110:	ea000000 	b	118 <next21>

00000114 <val21>:
     114:	4d201f84 	.word	0x4d201f84

00000118 <next21>:
     118:	e50d1018 	str	r1, [sp, #-24]
     11c:	e59f1000 	ldr	r1, [pc]	; 124 <val22>
     120:	ea000000 	b	128 <next22>

00000124 <val22>:
     124:	56c738c8 	.word	0x56c738c8

00000128 <next22>:
     128:	e50d101c 	str	r1, [sp, #-28]
     12c:	e59f1000 	ldr	r1, [pc]	; 134 <val23>
     130:	ea000000 	b	138 <next23>

00000134 <val23>:
     134:	fcdf84ab 	.word	0xfcdf84ab

00000138 <next23>:
     138:	e50d1020 	str	r1, [sp, #-32]
     13c:	e59f1000 	ldr	r1, [pc]	; 144 <val24>
     140:	ea000000 	b	148 <next24>

00000144 <val24>:
     144:	8fb5ff8d 	.word	0x8fb5ff8d

00000148 <next24>:
     148:	e50d1024 	str	r1, [sp, #-36]	; 0x24
     14c:	e59f1000 	ldr	r1, [pc]	; 154 <val25>
     150:	ea000000 	b	158 <next25>

00000154 <val25>:
     154:	7ce79808 	.word	0x7ce79808

00000158 <next25>:
     158:	e50d1028 	str	r1, [sp, #-40]	; 0x28
     15c:	e59f1000 	ldr	r1, [pc]	; 164 <val26>
     160:	ea000000 	b	168 <next26>

00000164 <val26>:
     164:	6b904913 	.word	0x6b904913

00000168 <next26>:
     168:	e50d102c 	str	r1, [sp, #-44]	; 0x2c
     16c:	e59f1000 	ldr	r1, [pc]	; 174 <val27>
     170:	ea000000 	b	178 <next27>

00000174 <val27>:
     174:	70beed3e 	.word	0x70beed3e

00000178 <next27>:
     178:	e50d1030 	str	r1, [sp, #-48]	; 0x30
     17c:	e59f1000 	ldr	r1, [pc]	; 184 <val28>
     180:	ea000000 	b	188 <next28>

00000184 <val28>:
     184:	19ea7a29 	.word	0x19ea7a29

00000188 <next28>:
     188:	e50d1034 	str	r1, [sp, #-52]	; 0x34
     18c:	e59f1000 	ldr	r1, [pc]	; 194 <val29>
     190:	ea000000 	b	198 <next29>

00000194 <val29>:
     194:	5887a092 	.word	0x5887a092

00000198 <next29>:
     198:	e50d1038 	str	r1, [sp, #-56]	; 0x38
     19c:	e59f1000 	ldr	r1, [pc]	; 1a4 <val30>
     1a0:	ea000000 	b	1a8 <next30>

000001a4 <val30>:
     1a4:	b563ea8f 	.word	0xb563ea8f

000001a8 <next30>:
     1a8:	e50d103c 	str	r1, [sp, #-60]	; 0x3c
     1ac:	e59f1000 	ldr	r1, [pc]	; 1b4 <val31>
     1b0:	ea000000 	b	1b8 <next31>

000001b4 <val31>:
     1b4:	ac91f4ca 	.word	0xac91f4ca

000001b8 <next31>:
     1b8:	e50d1040 	str	r1, [sp, #-64]	; 0x40
     1bc:	e59f1000 	ldr	r1, [pc]	; 1c4 <val32>
     1c0:	ea000000 	b	1c8 <next32>

000001c4 <val32>:
     1c4:	f2babb55 	.word	0xf2babb55

000001c8 <next32>:
     1c8:	e50d1044 	str	r1, [sp, #-68]	; 0x44
     1cc:	e59f1000 	ldr	r1, [pc]	; 1d4 <val33>
     1d0:	ea000000 	b	1d8 <next33>

000001d4 <val33>:
     1d4:	fb83bf9a 	.word	0xfb83bf9a

000001d8 <next33>:
     1d8:	e50d1048 	str	r1, [sp, #-72]	; 0x48
     1dc:	e59f1000 	ldr	r1, [pc]	; 1e4 <val34>
     1e0:	ea000000 	b	1e8 <next34>

000001e4 <val34>:
     1e4:	ab16a931 	.word	0xab16a931

000001e8 <next34>:
     1e8:	e50d104c 	str	r1, [sp, #-76]	; 0x4c
     1ec:	e59f1000 	ldr	r1, [pc]	; 1f4 <val35>
     1f0:	ea000000 	b	1f8 <next35>

000001f4 <val35>:
     1f4:	7026e1a8 	.word	0x7026e1a8

000001f8 <next35>:
     1f8:	e50d1050 	str	r1, [sp, #-80]	; 0x50

000001fc <l1>:
     1fc:	50aaee96 	umlalpl	lr, sl, r6, lr

00000200 <l2>:
     200:	00a8a597 	umlaleq	sl, r8, r7, r5

00000204 <l3>:
     204:	70b57b9e 	umlalsvc	r7, r5, lr, fp

00000208 <l4>:
     208:	20a58b96 	umlalcs	r8, r5, r6, fp

0000020c <l5>:
     20c:	80a42e90 	umlalhi	r2, r4, r0, lr

00000210 <l6>:
     210:	60b56190 	umlalsvs	r6, r5, r0, r1

00000214 <l7>:
     214:	e0ae8797 	umlal	r8, lr, r7, r7

00000218 <l8>:
     218:	50a35698 	umlalpl	r5, r3, r8, r6

0000021c <l9>:
     21c:	80a72290 	umlalhi	r2, r7, r0, r2

00000220 <l10>:
     220:	a0b6c793 	umlalsge	ip, r6, r3, r7

00000224 <l11>:
     224:	e0a67392 	umlal	r7, r6, r2, r3

00000228 <l12>:
     228:	40a84693 	umlalmi	r4, r8, r3, r6

0000022c <l13>:
     22c:	30bc3b92 	umlalscc	r3, ip, r2, fp

00000230 <l14>:
     230:	d0b52894 	umlalsle	r2, r5, r4, r8

00000234 <l15>:
     234:	40ae0596 	umlalmi	r0, lr, r6, r5

00000238 <l16>:
     238:	20ba4493 	umlalscs	r4, sl, r3, r4

0000023c <l17>:
     23c:	c0bae79b 	umlalsgt	lr, sl, fp, r7

00000240 <l18>:
     240:	c0ab4e9c 	umlalgt	r4, fp, ip, lr

00000244 <l19>:
     244:	10b8459a 	umlalsne	r4, r8, sl, r5

00000248 <l20>:
     248:	e0a75199 	umlal	r5, r7, r9, r1

0000024c <l21>:
     24c:	80b72796 	umlalshi	r2, r7, r6, r7

00000250 <l22>:
     250:	30a8b690 	umlalcc	fp, r8, r0, r6

00000254 <l23>:
     254:	70a89297 	umlalvc	r9, r8, r7, r2

00000258 <l24>:
     258:	10b38192 	umlalsne	r8, r3, r2, r1

0000025c <l25>:
     25c:	e0a31794 	umlal	r1, r3, r4, r7

00000260 <l26>:
     260:	b0aa7c99 	umlallt	r7, sl, r9, ip

00000264 <l27>:
     264:	e0a93297 	umlal	r3, r9, r7, r2

00000268 <l28>:
     268:	b0b8a199 	umlalslt	sl, r8, r9, r1

0000026c <l29>:
     26c:	70a4099a 	umlalvc	r0, r4, sl, r9

00000270 <l30>:
     270:	e0b90a9b 	umlals	r0, r9, fp, sl

00000274 <l31>:
     274:	b0a4529b 	umlallt	r5, r4, fp, r2

00000278 <l32>:
     278:	e0b9ba95 	umlals	fp, r9, r5, sl

0000027c <l33>:
     27c:	20b0be9c 	umlalscs	fp, r0, ip, lr

00000280 <l34>:
     280:	c0b60797 	umlalsgt	r0, r6, r7, r7

00000284 <l35>:
     284:	60b97691 	umlalsvs	r7, r9, r1, r6

00000288 <l36>:
     288:	70bb6597 	umlalsvc	r6, fp, r7, r5

0000028c <l37>:
     28c:	80a6399b 	umlalhi	r3, r6, fp, r9

00000290 <l38>:
     290:	e0aea294 	umlal	sl, lr, r4, r2

00000294 <l39>:
     294:	60acba91 	umlalvs	fp, ip, r1, sl

00000298 <l40>:
     298:	e0a16092 	umlal	r6, r1, r2, r0

0000029c <l41>:
     29c:	20a7989b 	umlalcs	r9, r7, fp, r8

000002a0 <l42>:
     2a0:	e0a79396 	umlal	r9, r7, r6, r3

000002a4 <l43>:
     2a4:	20b46a9c 	umlalscs	r6, r4, ip, sl

000002a8 <l44>:
     2a8:	20a74190 	umlalcs	r4, r7, r0, r1

000002ac <l45>:
     2ac:	e0b69093 	umlals	r9, r6, r3, r0

000002b0 <l46>:
     2b0:	c0aa4b98 	umlalgt	r4, sl, r8, fp

000002b4 <l47>:
     2b4:	b0a39594 	umlallt	r9, r3, r4, r5

000002b8 <l48>:
     2b8:	a0ac8291 	umlalge	r8, ip, r1, r2

000002bc <l49>:
     2bc:	70abac91 	umlalvc	sl, fp, r1, ip

000002c0 <l50>:
     2c0:	a0a5159b 	umlalge	r1, r5, fp, r5

000002c4 <l51>:
     2c4:	70ab9793 	umlalvc	r9, fp, r3, r7

000002c8 <l52>:
     2c8:	e0a3ec95 	umlal	lr, r3, r5, ip

000002cc <l53>:
     2cc:	b0a84193 	umlallt	r4, r8, r3, r1

000002d0 <l54>:
     2d0:	e0a0ee9b 	umlal	lr, r0, fp, lr

000002d4 <l55>:
     2d4:	10b4c991 	umlalsne	ip, r4, r1, r9

000002d8 <l56>:
     2d8:	00b1a293 	umlalseq	sl, r1, r3, r2

000002dc <l57>:
     2dc:	e0b36394 	umlals	r6, r3, r4, r3

000002e0 <l58>:
     2e0:	a0bc8294 	umlalsge	r8, ip, r4, r2

000002e4 <l59>:
     2e4:	60be0893 	umlalsvs	r0, lr, r3, r8

000002e8 <l60>:
     2e8:	80b8ee99 	umlalshi	lr, r8, r9, lr

000002ec <l61>:
     2ec:	e0be9192 	umlals	r9, lr, r2, r1

000002f0 <l62>:
     2f0:	e0aa9796 	umlal	r9, sl, r6, r7

000002f4 <l63>:
     2f4:	e0a3799c 	umlal	r7, r3, ip, r9

000002f8 <l64>:
     2f8:	70abc398 	umlalvc	ip, fp, r8, r3

000002fc <l65>:
     2fc:	e0ab0e9e 	umlal	r0, fp, lr, lr

00000300 <l66>:
     300:	e0bae790 	umlals	lr, sl, r0, r7

00000304 <l67>:
     304:	e0a3c195 	umlal	ip, r3, r5, r1

00000308 <l68>:
     308:	e0aea096 	umlal	sl, lr, r6, r0

0000030c <l69>:
     30c:	e0a3929a 	umlal	r9, r3, sl, r2

00000310 <l70>:
     310:	e0bc8897 	umlals	r8, ip, r7, r8

00000314 <l71>:
     314:	e0a13795 	umlal	r3, r1, r5, r7

00000318 <l72>:
     318:	c0b5909e 	umlalsgt	r9, r5, lr, r0

0000031c <l73>:
     31c:	d0bb6397 	umlalsle	r6, fp, r7, r3

00000320 <l74>:
     320:	50ab6592 	umlalpl	r6, fp, r2, r5

00000324 <l75>:
     324:	a0a8e191 	umlalge	lr, r8, r1, r1

00000328 <l76>:
     328:	80a7b599 	umlalhi	fp, r7, r9, r5

0000032c <l77>:
     32c:	20a90596 	umlalcs	r0, r9, r6, r5

00000330 <l78>:
     330:	a0a68191 	umlalge	r8, r6, r1, r1

00000334 <l79>:
     334:	e0b8a197 	umlals	sl, r8, r7, r1

00000338 <l80>:
     338:	e0a09192 	umlal	r9, r0, r2, r1

0000033c <l81>:
     33c:	e0aa7c90 	umlal	r7, sl, r0, ip

00000340 <l82>:
     340:	40b52b9b 	umlalsmi	r2, r5, fp, fp

00000344 <l83>:
     344:	40aca39e 	umlalmi	sl, ip, lr, r3

00000348 <l84>:
     348:	e0a4999e 	umlal	r9, r4, lr, r9

0000034c <l85>:
     34c:	70b97593 	umlalsvc	r7, r9, r3, r5

00000350 <l86>:
     350:	e0b2189a 	umlals	r1, r2, sl, r8

00000354 <l87>:
     354:	d0bae398 	umlalsle	lr, sl, r8, r3

00000358 <l88>:
     358:	a0a10c9e 	umlalge	r0, r1, lr, ip

0000035c <l89>:
     35c:	b0aa3297 	umlallt	r3, sl, r7, r2

00000360 <l90>:
     360:	e0b0799e 	umlals	r7, r0, lr, r9

00000364 <l91>:
     364:	e0b5b59a 	umlals	fp, r5, sl, r5

00000368 <l92>:
     368:	90ae8490 	umlalls	r8, lr, r0, r4

0000036c <l93>:
     36c:	e0ab9497 	umlal	r9, fp, r7, r4

00000370 <l94>:
     370:	e0ab5a9e 	umlal	r5, fp, lr, sl

00000374 <l95>:
     374:	40a26e97 	umlalmi	r6, r2, r7, lr

00000378 <l96>:
     378:	00be6091 	umlalseq	r6, lr, r1, r0

0000037c <l97>:
     37c:	e0a6189e 	umlal	r1, r6, lr, r8

00000380 <l98>:
     380:	50a2b494 	umlalpl	fp, r2, r4, r4

00000384 <l99>:
     384:	50a10c97 	umlalpl	r0, r1, r7, ip

00000388 <l100>:
     388:	90a3be92 	umlalls	fp, r3, r2, lr

0000038c <l101>:
     38c:	e0b16b9e 	umlals	r6, r1, lr, fp

00000390 <l102>:
     390:	c0b80591 	umlalsgt	r0, r8, r1, r5

00000394 <l103>:
     394:	e0b16097 	umlals	r6, r1, r7, r0

00000398 <l104>:
     398:	60b4c79e 	umlalsvs	ip, r4, lr, r7

0000039c <l105>:
     39c:	e0a38296 	umlal	r8, r3, r6, r2

000003a0 <l106>:
     3a0:	e0ba0398 	umlals	r0, sl, r8, r3

000003a4 <l107>:
     3a4:	20b9479b 	umlalscs	r4, r9, fp, r7

000003a8 <l108>:
     3a8:	d0b31799 	umlalsle	r1, r3, r9, r7

000003ac <l109>:
     3ac:	e0a7599a 	umlal	r5, r7, sl, r9

000003b0 <l110>:
     3b0:	a0b8b690 	umlalsge	fp, r8, r0, r6

000003b4 <l111>:
     3b4:	e0b32490 	umlals	r2, r3, r0, r4

000003b8 <l112>:
     3b8:	d0bcab99 	umlalsle	sl, ip, r9, fp

000003bc <l113>:
     3bc:	c0a64e95 	umlalgt	r4, r6, r5, lr

000003c0 <l114>:
     3c0:	00a6c797 	umlaleq	ip, r6, r7, r7

000003c4 <l115>:
     3c4:	10b31795 	umlalsne	r1, r3, r5, r7

000003c8 <l116>:
     3c8:	e0a74399 	umlal	r4, r7, r9, r3

000003cc <l117>:
     3cc:	e0b0ec91 	umlals	lr, r0, r1, ip

000003d0 <l118>:
     3d0:	e0b3b395 	umlals	fp, r3, r5, r3

000003d4 <l119>:
     3d4:	e0b8719a 	umlals	r7, r8, sl, r1

000003d8 <l120>:
     3d8:	70b54599 	umlalsvc	r4, r5, r9, r5

000003dc <l121>:
     3dc:	60bb1493 	umlalsvs	r1, fp, r3, r4

000003e0 <l122>:
     3e0:	70b5ee99 	umlalsvc	lr, r5, r9, lr

000003e4 <l123>:
     3e4:	50a9a090 	umlalpl	sl, r9, r0, r0

000003e8 <l124>:
     3e8:	e0a85e96 	umlal	r5, r8, r6, lr

000003ec <l125>:
     3ec:	e0a51a9e 	umlal	r1, r5, lr, sl

000003f0 <l126>:
     3f0:	20ba2e99 	umlalscs	r2, sl, r9, lr

000003f4 <l127>:
     3f4:	e0ae839a 	umlal	r8, lr, sl, r3

000003f8 <l128>:
     3f8:	a0a2c994 	umlalge	ip, r2, r4, r9

000003fc <l129>:
     3fc:	e0b87299 	umlals	r7, r8, r9, r2

00000400 <l130>:
     400:	c0aa0091 	umlalgt	r0, sl, r1, r0

00000404 <l131>:
     404:	e0ac3895 	umlal	r3, ip, r5, r8

00000408 <l132>:
     408:	40b67391 	umlalsmi	r7, r6, r1, r3

0000040c <l133>:
     40c:	60ac979e 	umlalvs	r9, ip, lr, r7

00000410 <l134>:
     410:	b0b51b9b 	umlalslt	r1, r5, fp, fp

00000414 <l135>:
     414:	80a80399 	umlalhi	r0, r8, r9, r3

00000418 <l136>:
     418:	e0a7eb9c 	umlal	lr, r7, ip, fp

0000041c <l137>:
     41c:	30a3a99b 	umlalcc	sl, r3, fp, r9

00000420 <l138>:
     420:	e0ae349b 	umlal	r3, lr, fp, r4

00000424 <l139>:
     424:	80b86e94 	umlalshi	r6, r8, r4, lr

00000428 <l140>:
     428:	00a1a495 	umlaleq	sl, r1, r5, r4

0000042c <l141>:
     42c:	e0be619b 	umlals	r6, lr, fp, r1

00000430 <l142>:
     430:	e0b52198 	umlals	r2, r5, r8, r1

00000434 <l143>:
     434:	30aba59e 	umlalcc	sl, fp, lr, r5

00000438 <l144>:
     438:	10a0529a 	umlalne	r5, r0, sl, r2

0000043c <l145>:
     43c:	90b62c9e 	umlalsls	r2, r6, lr, ip

00000440 <l146>:
     440:	40b6909b 	umlalsmi	r9, r6, fp, r0

00000444 <l147>:
     444:	30ab8296 	umlalcc	r8, fp, r6, r2

00000448 <l148>:
     448:	a0b0e398 	umlalsge	lr, r0, r8, r3

0000044c <l149>:
     44c:	e0bc089b 	umlals	r0, ip, fp, r8

00000450 <l150>:
     450:	60a0589b 	umlalvs	r5, r0, fp, r8

00000454 <l151>:
     454:	10b6989b 	umlalsne	r9, r6, fp, r8

00000458 <l152>:
     458:	30a35b99 	umlalcc	r5, r3, r9, fp

0000045c <l153>:
     45c:	60ab5c94 	umlalvs	r5, fp, r4, ip

00000460 <l154>:
     460:	e0ae3c98 	umlal	r3, lr, r8, ip

00000464 <l155>:
     464:	d0beb795 	umlalsle	fp, lr, r5, r7

00000468 <l156>:
     468:	60a50894 	umlalvs	r0, r5, r4, r8

0000046c <l157>:
     46c:	e0b7619c 	umlals	r6, r7, ip, r1

00000470 <l158>:
     470:	e0bbe499 	umlals	lr, fp, r9, r4

00000474 <l159>:
     474:	20a3109b 	umlalcs	r1, r3, fp, r0

00000478 <l160>:
     478:	60bc6195 	umlalsvs	r6, ip, r5, r1

0000047c <l161>:
     47c:	e0b74196 	umlals	r4, r7, r6, r1

00000480 <l162>:
     480:	90b45b91 	umlalsls	r5, r4, r1, fp

00000484 <l163>:
     484:	d0b56193 	umlalsle	r6, r5, r3, r1

00000488 <l164>:
     488:	90a0679b 	umlalls	r6, r0, fp, r7

0000048c <l165>:
     48c:	20a2bc95 	umlalcs	fp, r2, r5, ip

00000490 <l166>:
     490:	e0a8aa93 	umlal	sl, r8, r3, sl

00000494 <l167>:
     494:	e0a7539a 	umlal	r5, r7, sl, r3

00000498 <l168>:
     498:	e0a79398 	umlal	r9, r7, r8, r3

0000049c <l169>:
     49c:	60b5a794 	umlalsvs	sl, r5, r4, r7

000004a0 <l170>:
     4a0:	30a4cb98 	umlalcc	ip, r4, r8, fp

000004a4 <l171>:
     4a4:	e0b7ba9a 	umlals	fp, r7, sl, sl

000004a8 <l172>:
     4a8:	60b8a894 	umlalsvs	sl, r8, r4, r8

000004ac <l173>:
     4ac:	70b48592 	umlalsvc	r8, r4, r2, r5

000004b0 <l174>:
     4b0:	90b1eb92 	umlalsls	lr, r1, r2, fp

000004b4 <l175>:
     4b4:	e0a83094 	umlal	r3, r8, r4, r0

000004b8 <l176>:
     4b8:	00b8b691 	umlalseq	fp, r8, r1, r6

000004bc <l177>:
     4bc:	e0a58e92 	umlal	r8, r5, r2, lr

000004c0 <l178>:
     4c0:	00b37e91 	umlalseq	r7, r3, r1, lr

000004c4 <l179>:
     4c4:	80b5959e 	umlalshi	r9, r5, lr, r5

000004c8 <l180>:
     4c8:	b0bc1e96 	umlalslt	r1, ip, r6, lr

000004cc <l181>:
     4cc:	e0b5899b 	umlals	r8, r5, fp, r9

000004d0 <l182>:
     4d0:	10b2be90 	umlalsne	fp, r2, r0, lr

000004d4 <l183>:
     4d4:	20be4095 	umlalscs	r4, lr, r5, r0

000004d8 <l184>:
     4d8:	00b95693 	umlalseq	r5, r9, r3, r6

000004dc <l185>:
     4dc:	60b7b890 	umlalsvs	fp, r7, r0, r8

000004e0 <l186>:
     4e0:	e0a63490 	umlal	r3, r6, r0, r4

000004e4 <l187>:
     4e4:	40b81a94 	umlalsmi	r1, r8, r4, sl

000004e8 <l188>:
     4e8:	60a86c90 	umlalvs	r6, r8, r0, ip

000004ec <l189>:
     4ec:	e0a42598 	umlal	r2, r4, r8, r5

000004f0 <l190>:
     4f0:	b0ae7599 	umlallt	r7, lr, r9, r5

000004f4 <l191>:
     4f4:	c0ba7099 	umlalsgt	r7, sl, r9, r0

000004f8 <l192>:
     4f8:	20a53c9a 	umlalcs	r3, r5, sl, ip

000004fc <l193>:
     4fc:	c0b71195 	umlalsgt	r1, r7, r5, r1

00000500 <l194>:
     500:	e0b45397 	umlals	r5, r4, r7, r3

00000504 <l195>:
     504:	e0a48a90 	umlal	r8, r4, r0, sl

00000508 <l196>:
     508:	e0b0199b 	umlals	r1, r0, fp, r9

0000050c <l197>:
     50c:	80b3e89b 	umlalshi	lr, r3, fp, r8

00000510 <l198>:
     510:	30b7ac96 	umlalscc	sl, r7, r6, ip

00000514 <l199>:
     514:	c0b2989c 	umlalsgt	r9, r2, ip, r8

00000518 <l200>:
     518:	e0a4809c 	umlal	r8, r4, ip, r0

0000051c <l201>:
     51c:	20b95c90 	umlalscs	r5, r9, r0, ip

00000520 <l202>:
     520:	e0b81397 	umlals	r1, r8, r7, r3

00000524 <l203>:
     524:	20b0449b 	umlalscs	r4, r0, fp, r4

00000528 <l204>:
     528:	e0ae2994 	umlal	r2, lr, r4, r9

0000052c <l205>:
     52c:	90be5896 	umlalsls	r5, lr, r6, r8

00000530 <l206>:
     530:	d0b4a899 	umlalsle	sl, r4, r9, r8

00000534 <l207>:
     534:	e0bb279a 	umlals	r2, fp, sl, r7

00000538 <l208>:
     538:	b0a19e96 	umlallt	r9, r1, r6, lr

0000053c <l209>:
     53c:	e0b20c9e 	umlals	r0, r2, lr, ip

00000540 <l210>:
     540:	50ac5590 	umlalpl	r5, ip, r0, r5

00000544 <l211>:
     544:	90b21799 	umlalsls	r1, r2, r9, r7

00000548 <l212>:
     548:	00bc649b 	umlalseq	r6, ip, fp, r4

0000054c <l213>:
     54c:	10a3869a 	umlalne	r8, r3, sl, r6

00000550 <l214>:
     550:	e0bc5797 	umlals	r5, ip, r7, r7

00000554 <l215>:
     554:	e0bc1394 	umlals	r1, ip, r4, r3

00000558 <l216>:
     558:	d0aac39e 	umlalle	ip, sl, lr, r3

0000055c <l217>:
     55c:	60a95a92 	umlalvs	r5, r9, r2, sl

00000560 <l218>:
     560:	e0b4949a 	umlals	r9, r4, sl, r4

00000564 <l219>:
     564:	c0a48e96 	umlalgt	r8, r4, r6, lr

00000568 <l220>:
     568:	20b5e79b 	umlalscs	lr, r5, fp, r7

0000056c <l221>:
     56c:	20b4529b 	umlalscs	r5, r4, fp, r2

00000570 <l222>:
     570:	e0a46991 	umlal	r6, r4, r1, r9

00000574 <l223>:
     574:	e0a47c9c 	umlal	r7, r4, ip, ip

00000578 <l224>:
     578:	20a8a999 	umlalcs	sl, r8, r9, r9

0000057c <l225>:
     57c:	e0a40098 	umlal	r0, r4, r8, r0

00000580 <l226>:
     580:	e0a90293 	umlal	r0, r9, r3, r2

00000584 <l227>:
     584:	70b4c790 	umlalsvc	ip, r4, r0, r7

00000588 <l228>:
     588:	e0bc4a91 	umlals	r4, ip, r1, sl

0000058c <l229>:
     58c:	a0ab679e 	umlalge	r6, fp, lr, r7

00000590 <l230>:
     590:	10b71493 	umlalsne	r1, r7, r3, r4

00000594 <l231>:
     594:	e0b5bb92 	umlals	fp, r5, r2, fp

00000598 <l232>:
     598:	e0b6e098 	umlals	lr, r6, r8, r0

0000059c <l233>:
     59c:	a0ab579c 	umlalge	r5, fp, ip, r7

000005a0 <l234>:
     5a0:	e0a71495 	umlal	r1, r7, r5, r4

000005a4 <l235>:
     5a4:	30a78196 	umlalcc	r8, r7, r6, r1

000005a8 <l236>:
     5a8:	e0b82499 	umlals	r2, r8, r9, r4

000005ac <l237>:
     5ac:	a0bc6795 	umlalsge	r6, ip, r5, r7

000005b0 <l238>:
     5b0:	e0a36099 	umlal	r6, r3, r9, r0

000005b4 <l239>:
     5b4:	10b38490 	umlalsne	r8, r3, r0, r4

000005b8 <l240>:
     5b8:	c0a26c91 	umlalgt	r6, r2, r1, ip

000005bc <l241>:
     5bc:	60b5b291 	umlalsvs	fp, r5, r1, r2

000005c0 <l242>:
     5c0:	e0bb769c 	umlals	r7, fp, ip, r6

000005c4 <l243>:
     5c4:	e0bb909c 	umlals	r9, fp, ip, r0

000005c8 <l244>:
     5c8:	e0a04793 	umlal	r4, r0, r3, r7

000005cc <l245>:
     5cc:	c0a69697 	umlalgt	r9, r6, r7, r6

000005d0 <l246>:
     5d0:	e0a7b895 	umlal	fp, r7, r5, r8

000005d4 <l247>:
     5d4:	e0a19594 	umlal	r9, r1, r4, r5

000005d8 <l248>:
     5d8:	e0a7699b 	umlal	r6, r7, fp, r9

000005dc <l249>:
     5dc:	90b0459c 	umlalsls	r4, r0, ip, r5

000005e0 <l250>:
     5e0:	d0bce390 	umlalsle	lr, ip, r0, r3

000005e4 <l251>:
     5e4:	e0b6789a 	umlals	r7, r6, sl, r8

000005e8 <l252>:
     5e8:	30b17195 	umlalscc	r7, r1, r5, r1

000005ec <l253>:
     5ec:	c0b83b96 	umlalsgt	r3, r8, r6, fp

000005f0 <l254>:
     5f0:	60a62c9c 	umlalvs	r2, r6, ip, ip

000005f4 <l255>:
     5f4:	e0b80b94 	umlals	r0, r8, r4, fp

000005f8 <l256>:
     5f8:	30be8793 	umlalscc	r8, lr, r3, r7

000005fc <l257>:
     5fc:	00b7b590 	umlalseq	fp, r7, r0, r5

00000600 <l258>:
     600:	c0ae8099 	umlalgt	r8, lr, r9, r0

00000604 <l259>:
     604:	70ae9b9b 	umlalvc	r9, lr, fp, fp

00000608 <l260>:
     608:	c0a68290 	umlalgt	r8, r6, r0, r2

0000060c <l261>:
     60c:	e0a74598 	umlal	r4, r7, r8, r5

00000610 <l262>:
     610:	e0a53a9c 	umlal	r3, r5, ip, sl

00000614 <l263>:
     614:	e0b87694 	umlals	r7, r8, r4, r6

00000618 <l264>:
     618:	c0b5c59b 	umlalsgt	ip, r5, fp, r5

0000061c <l265>:
     61c:	20b1a59b 	umlalscs	sl, r1, fp, r5

00000620 <l266>:
     620:	c0ab849a 	umlalgt	r8, fp, sl, r4

00000624 <l267>:
     624:	e0aa359e 	umlal	r3, sl, lr, r5

00000628 <l268>:
     628:	e0bc989b 	umlals	r9, ip, fp, r8

0000062c <l269>:
     62c:	e0a13596 	umlal	r3, r1, r6, r5

00000630 <l270>:
     630:	e0bcba94 	umlals	fp, ip, r4, sl

00000634 <l271>:
     634:	e0aa6a9e 	umlal	r6, sl, lr, sl

00000638 <l272>:
     638:	a0a85294 	umlalge	r5, r8, r4, r2

0000063c <l273>:
     63c:	e0a7a39b 	umlal	sl, r7, fp, r3

00000640 <l274>:
     640:	40a01198 	umlalmi	r1, r0, r8, r1

00000644 <l275>:
     644:	e0abee91 	umlal	lr, fp, r1, lr

00000648 <l276>:
     648:	e0b24397 	umlals	r4, r2, r7, r3

0000064c <l277>:
     64c:	10b4c696 	umlalsne	ip, r4, r6, r6

00000650 <l278>:
     650:	e0a4a499 	umlal	sl, r4, r9, r4

00000654 <l279>:
     654:	30b4749c 	umlalscc	r7, r4, ip, r4

00000658 <l280>:
     658:	d0b3ee99 	umlalsle	lr, r3, r9, lr

0000065c <l281>:
     65c:	00a0289e 	umlaleq	r2, r0, lr, r8

00000660 <l282>:
     660:	e0be629c 	umlals	r6, lr, ip, r2

00000664 <l283>:
     664:	b0a2ec9a 	umlallt	lr, r2, sl, ip

00000668 <l284>:
     668:	80bbc393 	umlalshi	ip, fp, r3, r3

0000066c <l285>:
     66c:	e0a20897 	umlal	r0, r2, r7, r8

00000670 <l286>:
     670:	e0b47e92 	umlals	r7, r4, r2, lr

00000674 <l287>:
     674:	e0aacc98 	umlal	ip, sl, r8, ip

00000678 <l288>:
     678:	e0b25398 	umlals	r5, r2, r8, r3

0000067c <l289>:
     67c:	e0b8c694 	umlals	ip, r8, r4, r6

00000680 <l290>:
     680:	90a7aa9b 	umlalls	sl, r7, fp, sl

00000684 <l291>:
     684:	80b7159e 	umlalshi	r1, r7, lr, r5

00000688 <l292>:
     688:	60b18b99 	umlalsvs	r8, r1, r9, fp

0000068c <l293>:
     68c:	e0a36599 	umlal	r6, r3, r9, r5

00000690 <l294>:
     690:	50b0219b 	umlalspl	r2, r0, fp, r1

00000694 <l295>:
     694:	00b8c895 	umlalseq	ip, r8, r5, r8

00000698 <l296>:
     698:	60aac197 	umlalvs	ip, sl, r7, r1

0000069c <l297>:
     69c:	e0ba9c97 	umlals	r9, sl, r7, ip

000006a0 <l298>:
     6a0:	b0a74493 	umlallt	r4, r7, r3, r4

000006a4 <l299>:
     6a4:	e0b5c39b 	umlals	ip, r5, fp, r3

000006a8 <l300>:
     6a8:	30ba7196 	umlalscc	r7, sl, r6, r1

000006ac <l301>:
     6ac:	e0bc619e 	umlals	r6, ip, lr, r1

000006b0 <l302>:
     6b0:	e0aeac9b 	umlal	sl, lr, fp, ip

000006b4 <l303>:
     6b4:	e0aa9091 	umlal	r9, sl, r1, r0

000006b8 <l304>:
     6b8:	90a21594 	umlalls	r1, r2, r4, r5

000006bc <l305>:
     6bc:	40a67999 	umlalmi	r7, r6, r9, r9

000006c0 <l306>:
     6c0:	e0a87a9a 	umlal	r7, r8, sl, sl

000006c4 <l307>:
     6c4:	e0a1b199 	umlal	fp, r1, r9, r1

000006c8 <l308>:
     6c8:	10b1b693 	umlalsne	fp, r1, r3, r6

000006cc <l309>:
     6cc:	90b03e99 	umlalsls	r3, r0, r9, lr

000006d0 <l310>:
     6d0:	e0b3b99e 	umlals	fp, r3, lr, r9

000006d4 <l311>:
     6d4:	a0bbac92 	umlalsge	sl, fp, r2, ip

000006d8 <l312>:
     6d8:	60bb8292 	umlalsvs	r8, fp, r2, r2

000006dc <l313>:
     6dc:	e0a47699 	umlal	r7, r4, r9, r6

000006e0 <l314>:
     6e0:	e0a3ba97 	umlal	fp, r3, r7, sl

000006e4 <l315>:
     6e4:	c0a81c9b 	umlalgt	r1, r8, fp, ip

000006e8 <l316>:
     6e8:	e0aa859e 	umlal	r8, sl, lr, r5

000006ec <l317>:
     6ec:	00a8c094 	umlaleq	ip, r8, r4, r0

000006f0 <l318>:
     6f0:	e0bb0297 	umlals	r0, fp, r7, r2

000006f4 <l319>:
     6f4:	70a8c39b 	umlalvc	ip, r8, fp, r3

000006f8 <l320>:
     6f8:	e0ae1c9b 	umlal	r1, lr, fp, ip

000006fc <l321>:
     6fc:	c0b16c93 	umlalsgt	r6, r1, r3, ip

00000700 <l322>:
     700:	e0ab1395 	umlal	r1, fp, r5, r3

00000704 <l323>:
     704:	b0ae9590 	umlallt	r9, lr, r0, r5

00000708 <l324>:
     708:	80b5b89c 	umlalshi	fp, r5, ip, r8

0000070c <l325>:
     70c:	30a1219b 	umlalcc	r2, r1, fp, r1

00000710 <l326>:
     710:	c0a91b96 	umlalgt	r1, r9, r6, fp

00000714 <l327>:
     714:	e0be339b 	umlals	r3, lr, fp, r3

00000718 <l328>:
     718:	00b8a190 	umlalseq	sl, r8, r0, r1

0000071c <l329>:
     71c:	e0bea395 	umlals	sl, lr, r5, r3

00000720 <l330>:
     720:	60a6759b 	umlalvs	r7, r6, fp, r5

00000724 <l331>:
     724:	e0b1ca94 	umlals	ip, r1, r4, sl

00000728 <l332>:
     728:	e0a29293 	umlal	r9, r2, r3, r2

0000072c <l333>:
     72c:	70bb4192 	umlalsvc	r4, fp, r2, r1

00000730 <l334>:
     730:	e0a34897 	umlal	r4, r3, r7, r8

00000734 <l335>:
     734:	60b41399 	umlalsvs	r1, r4, r9, r3

00000738 <l336>:
     738:	e0a24090 	umlal	r4, r2, r0, r0

0000073c <l337>:
     73c:	50be8a9c 	umlalspl	r8, lr, ip, sl

00000740 <l338>:
     740:	10ae1a92 	umlalne	r1, lr, r2, sl

00000744 <l339>:
     744:	e0a2ee98 	umlal	lr, r2, r8, lr

00000748 <l340>:
     748:	e0aae990 	umlal	lr, sl, r0, r9

0000074c <l341>:
     74c:	20a12c99 	umlalcs	r2, r1, r9, ip

00000750 <l342>:
     750:	e0be7698 	umlals	r7, lr, r8, r6

00000754 <l343>:
     754:	40a62295 	umlalmi	r2, r6, r5, r2

00000758 <l344>:
     758:	e0a0999c 	umlal	r9, r0, ip, r9

0000075c <l345>:
     75c:	50a5389a 	umlalpl	r3, r5, sl, r8

00000760 <l346>:
     760:	e0b4189a 	umlals	r1, r4, sl, r8

00000764 <l347>:
     764:	d0bcb297 	umlalsle	fp, ip, r7, r2

00000768 <l348>:
     768:	e0b87a99 	umlals	r7, r8, r9, sl

0000076c <l349>:
     76c:	90ace794 	umlalls	lr, ip, r4, r7

00000770 <l350>:
     770:	e0b32b9a 	umlals	r2, r3, sl, fp

00000774 <l351>:
     774:	90aa1e98 	umlalls	r1, sl, r8, lr

00000778 <l352>:
     778:	a0b3569c 	umlalsge	r5, r3, ip, r6

0000077c <l353>:
     77c:	70b1ba9a 	umlalsvc	fp, r1, sl, sl

00000780 <l354>:
     780:	e0b7eb98 	umlals	lr, r7, r8, fp

00000784 <l355>:
     784:	80a30299 	umlalhi	r0, r3, r9, r2

00000788 <l356>:
     788:	40bb5a92 	umlalsmi	r5, fp, r2, sl

0000078c <l357>:
     78c:	b0a3cc99 	umlallt	ip, r3, r9, ip

00000790 <l358>:
     790:	e0a20c91 	umlal	r0, r2, r1, ip

00000794 <l359>:
     794:	00b94298 	umlalseq	r4, r9, r8, r2

00000798 <l360>:
     798:	00ae0798 	umlaleq	r0, lr, r8, r7

0000079c <l361>:
     79c:	90b97091 	umlalsls	r7, r9, r1, r0

000007a0 <l362>:
     7a0:	70a0c194 	umlalvc	ip, r0, r4, r1

000007a4 <l363>:
     7a4:	80a03b91 	umlalhi	r3, r0, r1, fp

000007a8 <l364>:
     7a8:	e0a40691 	umlal	r0, r4, r1, r6

000007ac <l365>:
     7ac:	40b0e199 	umlalsmi	lr, r0, r9, r1

000007b0 <l366>:
     7b0:	90a04897 	umlalls	r4, r0, r7, r8

000007b4 <l367>:
     7b4:	e0b78b93 	umlals	r8, r7, r3, fp

000007b8 <l368>:
     7b8:	90ac6994 	umlalls	r6, ip, r4, r9

000007bc <l369>:
     7bc:	80ac489a 	umlalhi	r4, ip, sl, r8

000007c0 <l370>:
     7c0:	e0a62590 	umlal	r2, r6, r0, r5

000007c4 <l371>:
     7c4:	80be0a98 	umlalshi	r0, lr, r8, sl

000007c8 <l372>:
     7c8:	e0b78e9b 	umlals	r8, r7, fp, lr

000007cc <l373>:
     7cc:	70b16492 	umlalsvc	r6, r1, r2, r4

000007d0 <l374>:
     7d0:	a0a69895 	umlalge	r9, r6, r5, r8

000007d4 <l375>:
     7d4:	30a7809c 	umlalcc	r8, r7, ip, r0

000007d8 <l376>:
     7d8:	e0ba939e 	umlals	r9, sl, lr, r3

000007dc <l377>:
     7dc:	e0b48e93 	umlals	r8, r4, r3, lr

000007e0 <l378>:
     7e0:	e0ab299c 	umlal	r2, fp, ip, r9

000007e4 <l379>:
     7e4:	e0b73e9b 	umlals	r3, r7, fp, lr

000007e8 <l380>:
     7e8:	40baca92 	umlalsmi	ip, sl, r2, sl

000007ec <l381>:
     7ec:	a0b4159e 	umlalsge	r1, r4, lr, r5

000007f0 <l382>:
     7f0:	e0b5679c 	umlals	r6, r5, ip, r7

000007f4 <l383>:
     7f4:	80ac0494 	umlalhi	r0, ip, r4, r4

000007f8 <l384>:
     7f8:	a0a8aa9b 	umlalge	sl, r8, fp, sl

000007fc <l385>:
     7fc:	d0b8b093 	umlalsle	fp, r8, r3, r0

00000800 <l386>:
     800:	50bb3296 	umlalspl	r3, fp, r6, r2

00000804 <l387>:
     804:	e0b95090 	umlals	r5, r9, r0, r0

00000808 <l388>:
     808:	e0b15296 	umlals	r5, r1, r6, r2

0000080c <l389>:
     80c:	e0b63691 	umlals	r3, r6, r1, r6

00000810 <l390>:
     810:	30b62795 	umlalscc	r2, r6, r5, r7

00000814 <l391>:
     814:	10a73098 	umlalne	r3, r7, r8, r0

00000818 <l392>:
     818:	e0aa2291 	umlal	r2, sl, r1, r2

0000081c <l393>:
     81c:	e0abe296 	umlal	lr, fp, r6, r2

00000820 <l394>:
     820:	60a3e997 	umlalvs	lr, r3, r7, r9

00000824 <l395>:
     824:	00bb8c93 	umlalseq	r8, fp, r3, ip

00000828 <l396>:
     828:	e0b0119c 	umlals	r1, r0, ip, r1

0000082c <l397>:
     82c:	50a8629c 	umlalpl	r6, r8, ip, r2

00000830 <l398>:
     830:	80a5ba9c 	umlalhi	fp, r5, ip, sl

00000834 <l399>:
     834:	e0a87494 	umlal	r7, r8, r4, r4

00000838 <l400>:
     838:	e0b0779e 	umlals	r7, r0, lr, r7

0000083c <l401>:
     83c:	60b6a897 	umlalsvs	sl, r6, r7, r8

00000840 <l402>:
     840:	60a03292 	umlalvs	r3, r0, r2, r2

00000844 <l403>:
     844:	e0b5cc94 	umlals	ip, r5, r4, ip

00000848 <l404>:
     848:	e0b7919a 	umlals	r9, r7, sl, r1

0000084c <l405>:
     84c:	60a5639a 	umlalvs	r6, r5, sl, r3

00000850 <l406>:
     850:	e0b2349b 	umlals	r3, r2, fp, r4

00000854 <l407>:
     854:	70b0a292 	umlalsvc	sl, r0, r2, r2

00000858 <l408>:
     858:	d0a1389e 	umlalle	r3, r1, lr, r8

0000085c <l409>:
     85c:	00b23e9a 	umlalseq	r3, r2, sl, lr

00000860 <l410>:
     860:	c0a58591 	umlalgt	r8, r5, r1, r5

00000864 <l411>:
     864:	e0ba9194 	umlals	r9, sl, r4, r1

00000868 <l412>:
     868:	e0ab3a9c 	umlal	r3, fp, ip, sl

0000086c <l413>:
     86c:	00bb389e 	umlalseq	r3, fp, lr, r8

00000870 <l414>:
     870:	b0aebb95 	umlallt	fp, lr, r5, fp

00000874 <l415>:
     874:	e0b3069e 	umlals	r0, r3, lr, r6

00000878 <l416>:
     878:	e0a5029c 	umlal	r0, r5, ip, r2

0000087c <l417>:
     87c:	e0a2369c 	umlal	r3, r2, ip, r6

00000880 <l418>:
     880:	a0a4b99a 	umlalge	fp, r4, sl, r9

00000884 <l419>:
     884:	50a90197 	umlalpl	r0, r9, r7, r1

00000888 <l420>:
     888:	50a65999 	umlalpl	r5, r6, r9, r9

0000088c <l421>:
     88c:	70a8a893 	umlalvc	sl, r8, r3, r8

00000890 <l422>:
     890:	50ab5693 	umlalpl	r5, fp, r3, r6

00000894 <l423>:
     894:	80b07e95 	umlalshi	r7, r0, r5, lr

00000898 <l424>:
     898:	40b9e994 	umlalsmi	lr, r9, r4, r9

0000089c <l425>:
     89c:	e0aa0b96 	umlal	r0, sl, r6, fp

000008a0 <l426>:
     8a0:	70aa8790 	umlalvc	r8, sl, r0, r7

000008a4 <l427>:
     8a4:	80aaea98 	umlalhi	lr, sl, r8, sl

000008a8 <l428>:
     8a8:	e0bc0b96 	umlals	r0, ip, r6, fp

000008ac <l429>:
     8ac:	e0aec997 	umlal	ip, lr, r7, r9

000008b0 <l430>:
     8b0:	e0bb2b9a 	umlals	r2, fp, sl, fp

000008b4 <l431>:
     8b4:	80ae919b 	umlalhi	r9, lr, fp, r1

000008b8 <l432>:
     8b8:	e0a6ba92 	umlal	fp, r6, r2, sl

000008bc <l433>:
     8bc:	30ba9290 	umlalscc	r9, sl, r0, r2

000008c0 <l434>:
     8c0:	70b04597 	umlalsvc	r4, r0, r7, r5

000008c4 <l435>:
     8c4:	e0a30897 	umlal	r0, r3, r7, r8

000008c8 <l436>:
     8c8:	c0a9099b 	umlalgt	r0, r9, fp, r9

000008cc <l437>:
     8cc:	40ac1392 	umlalmi	r1, ip, r2, r3

000008d0 <l438>:
     8d0:	70a52096 	umlalvc	r2, r5, r6, r0

000008d4 <l439>:
     8d4:	c0b8ec9c 	umlalsgt	lr, r8, ip, ip

000008d8 <l440>:
     8d8:	e0b89b94 	umlals	r9, r8, r4, fp

000008dc <l441>:
     8dc:	e0a65491 	umlal	r5, r6, r1, r4

000008e0 <l442>:
     8e0:	e0ba229c 	umlals	r2, sl, ip, r2

000008e4 <l443>:
     8e4:	a0b54490 	umlalsge	r4, r5, r0, r4

000008e8 <l444>:
     8e8:	a0a2349a 	umlalge	r3, r2, sl, r4

000008ec <l445>:
     8ec:	e0a96594 	umlal	r6, r9, r4, r5

000008f0 <l446>:
     8f0:	30a21b96 	umlalcc	r1, r2, r6, fp

000008f4 <l447>:
     8f4:	60a65693 	umlalvs	r5, r6, r3, r6

000008f8 <l448>:
     8f8:	e0bb2295 	umlals	r2, fp, r5, r2

000008fc <l449>:
     8fc:	e0b28591 	umlals	r8, r2, r1, r5

00000900 <l450>:
     900:	60b12094 	umlalsvs	r2, r1, r4, r0

00000904 <l451>:
     904:	60aa9e9e 	umlalvs	r9, sl, lr, lr

00000908 <l452>:
     908:	50bc689b 	umlalspl	r6, ip, fp, r8

0000090c <l453>:
     90c:	c0b81a9b 	umlalsgt	r1, r8, fp, sl

00000910 <l454>:
     910:	40a8959c 	umlalmi	r9, r8, ip, r5

00000914 <l455>:
     914:	20a6b495 	umlalcs	fp, r6, r5, r4

00000918 <l456>:
     918:	e0b2929c 	umlals	r9, r2, ip, r2

0000091c <l457>:
     91c:	e0a91e9a 	umlal	r1, r9, sl, lr

00000920 <l458>:
     920:	e0a6e19c 	umlal	lr, r6, ip, r1

00000924 <l459>:
     924:	e0bc9993 	umlals	r9, ip, r3, r9

00000928 <l460>:
     928:	e0a97995 	umlal	r7, r9, r5, r9

0000092c <l461>:
     92c:	20bc0797 	umlalscs	r0, ip, r7, r7

00000930 <l462>:
     930:	d0ae9492 	umlalle	r9, lr, r2, r4

00000934 <l463>:
     934:	30b8269b 	umlalscc	r2, r8, fp, r6

00000938 <l464>:
     938:	20bec798 	umlalscs	ip, lr, r8, r7

0000093c <l465>:
     93c:	e0b69c97 	umlals	r9, r6, r7, ip

00000940 <l466>:
     940:	10aa3496 	umlalne	r3, sl, r6, r4

00000944 <l467>:
     944:	e0bbe593 	umlals	lr, fp, r3, r5

00000948 <l468>:
     948:	30b3b491 	umlalscc	fp, r3, r1, r4

0000094c <l469>:
     94c:	c0ba1090 	umlalsgt	r1, sl, r0, r0

00000950 <l470>:
     950:	60b27b9e 	umlalsvs	r7, r2, lr, fp

00000954 <l471>:
     954:	e0b6419a 	umlals	r4, r6, sl, r1

00000958 <l472>:
     958:	10a61292 	umlalne	r1, r6, r2, r2

0000095c <l473>:
     95c:	e0a23e96 	umlal	r3, r2, r6, lr

00000960 <l474>:
     960:	00ae4598 	umlaleq	r4, lr, r8, r5

00000964 <l475>:
     964:	e0a4c799 	umlal	ip, r4, r9, r7

00000968 <l476>:
     968:	e0aa1799 	umlal	r1, sl, r9, r7

0000096c <l477>:
     96c:	30b8399c 	umlalscc	r3, r8, ip, r9

00000970 <l478>:
     970:	e0b14a97 	umlals	r4, r1, r7, sl

00000974 <l479>:
     974:	50a35b90 	umlalpl	r5, r3, r0, fp

00000978 <l480>:
     978:	e0ab829e 	umlal	r8, fp, lr, r2

0000097c <l481>:
     97c:	00b83991 	umlalseq	r3, r8, r1, r9

00000980 <l482>:
     980:	90ae1295 	umlalls	r1, lr, r5, r2

00000984 <l483>:
     984:	50b25897 	umlalspl	r5, r2, r7, r8

00000988 <l484>:
     988:	e0bb2a91 	umlals	r2, fp, r1, sl

0000098c <l485>:
     98c:	e0b81b9a 	umlals	r1, r8, sl, fp

00000990 <l486>:
     990:	c0b8559a 	umlalsgt	r5, r8, sl, r5

00000994 <l487>:
     994:	b0a23e9b 	umlallt	r3, r2, fp, lr

00000998 <l488>:
     998:	b0ab2c9a 	umlallt	r2, fp, sl, ip

0000099c <l489>:
     99c:	10b84390 	umlalsne	r4, r8, r0, r3

000009a0 <l490>:
     9a0:	e0a68994 	umlal	r8, r6, r4, r9

000009a4 <l491>:
     9a4:	70a2c695 	umlalvc	ip, r2, r5, r6

000009a8 <l492>:
     9a8:	e0a65090 	umlal	r5, r6, r0, r0

000009ac <l493>:
     9ac:	b0b2959b 	umlalslt	r9, r2, fp, r5

000009b0 <l494>:
     9b0:	e0bbcc98 	umlals	ip, fp, r8, ip

000009b4 <l495>:
     9b4:	50a5e193 	umlalpl	lr, r5, r3, r1

000009b8 <l496>:
     9b8:	e0aaea9b 	umlal	lr, sl, fp, sl

000009bc <l497>:
     9bc:	20b0c698 	umlalscs	ip, r0, r8, r6

000009c0 <l498>:
     9c0:	e0b82e99 	umlals	r2, r8, r9, lr

000009c4 <l499>:
     9c4:	10aa4a96 	umlalne	r4, sl, r6, sl

000009c8 <l500>:
     9c8:	c0b45098 	umlalsgt	r5, r4, r8, r0

000009cc <l501>:
     9cc:	e0a4e893 	umlal	lr, r4, r3, r8

000009d0 <l502>:
     9d0:	50bb9c90 	umlalspl	r9, fp, r0, ip

000009d4 <l503>:
     9d4:	e0a84490 	umlal	r4, r8, r0, r4

000009d8 <l504>:
     9d8:	e0b9a69e 	umlals	sl, r9, lr, r6

000009dc <l505>:
     9dc:	e0b19595 	umlals	r9, r1, r5, r5

000009e0 <l506>:
     9e0:	30a45b90 	umlalcc	r5, r4, r0, fp

000009e4 <l507>:
     9e4:	e0a51090 	umlal	r1, r5, r0, r0

000009e8 <l508>:
     9e8:	e0a78690 	umlal	r8, r7, r0, r6

000009ec <l509>:
     9ec:	60a96698 	umlalvs	r6, r9, r8, r6

000009f0 <l510>:
     9f0:	50b5149b 	umlalspl	r1, r5, fp, r4

000009f4 <l511>:
     9f4:	50bc1796 	umlalspl	r1, ip, r6, r7

000009f8 <l512>:
     9f8:	90b73a91 	umlalsls	r3, r7, r1, sl

000009fc <l513>:
     9fc:	80a1e797 	umlalhi	lr, r1, r7, r7

00000a00 <l514>:
     a00:	20b73892 	umlalscs	r3, r7, r2, r8

00000a04 <l515>:
     a04:	00a03e9b 	umlaleq	r3, r0, fp, lr

00000a08 <l516>:
     a08:	e0b8c894 	umlals	ip, r8, r4, r8

00000a0c <l517>:
     a0c:	50a12095 	umlalpl	r2, r1, r5, r0

00000a10 <l518>:
     a10:	20a3e894 	umlalcs	lr, r3, r4, r8

00000a14 <l519>:
     a14:	10a2c598 	umlalne	ip, r2, r8, r5

00000a18 <l520>:
     a18:	80a68892 	umlalhi	r8, r6, r2, r8

00000a1c <l521>:
     a1c:	e0aa9195 	umlal	r9, sl, r5, r1

00000a20 <l522>:
     a20:	e0b5499b 	umlals	r4, r5, fp, r9

00000a24 <l523>:
     a24:	e0a91990 	umlal	r1, r9, r0, r9

00000a28 <l524>:
     a28:	60b12c95 	umlalsvs	r2, r1, r5, ip

00000a2c <l525>:
     a2c:	e0b4569c 	umlals	r5, r4, ip, r6

00000a30 <l526>:
     a30:	a0a5c292 	umlalge	ip, r5, r2, r2

00000a34 <l527>:
     a34:	e0b19a9e 	umlals	r9, r1, lr, sl

00000a38 <l528>:
     a38:	00bb7091 	umlalseq	r7, fp, r1, r0

00000a3c <l529>:
     a3c:	60a72194 	umlalvs	r2, r7, r4, r1

00000a40 <l530>:
     a40:	60a64b98 	umlalvs	r4, r6, r8, fp

00000a44 <l531>:
     a44:	90a0b098 	umlalls	fp, r0, r8, r0

00000a48 <l532>:
     a48:	00bc4c9b 	umlalseq	r4, ip, fp, ip

00000a4c <l533>:
     a4c:	a0b4a691 	umlalsge	sl, r4, r1, r6

00000a50 <l534>:
     a50:	e0bb619c 	umlals	r6, fp, ip, r1

00000a54 <l535>:
     a54:	e0b9c99e 	umlals	ip, r9, lr, r9

00000a58 <l536>:
     a58:	10a64e95 	umlalne	r4, r6, r5, lr

00000a5c <l537>:
     a5c:	40a4ab9e 	umlalmi	sl, r4, lr, fp

00000a60 <l538>:
     a60:	a0a7e099 	umlalge	lr, r7, r9, r0

00000a64 <l539>:
     a64:	90b41a92 	umlalsls	r1, r4, r2, sl

00000a68 <l540>:
     a68:	d0a68990 	umlalle	r8, r6, r0, r9

00000a6c <l541>:
     a6c:	c0a05799 	umlalgt	r5, r0, r9, r7

00000a70 <l542>:
     a70:	e0a39e9a 	umlal	r9, r3, sl, lr

00000a74 <l543>:
     a74:	90aac696 	umlalls	ip, sl, r6, r6

00000a78 <l544>:
     a78:	e0b51894 	umlals	r1, r5, r4, r8

00000a7c <l545>:
     a7c:	20a79293 	umlalcs	r9, r7, r3, r2

00000a80 <l546>:
     a80:	e0a0b798 	umlal	fp, r0, r8, r7

00000a84 <l547>:
     a84:	00b1e096 	umlalseq	lr, r1, r6, r0

00000a88 <l548>:
     a88:	e0b9e792 	umlals	lr, r9, r2, r7

00000a8c <l549>:
     a8c:	e0aae59b 	umlal	lr, sl, fp, r5

00000a90 <l550>:
     a90:	d0b37198 	umlalsle	r7, r3, r8, r1

00000a94 <l551>:
     a94:	e0a75399 	umlal	r5, r7, r9, r3

00000a98 <l552>:
     a98:	e0b07e9a 	umlals	r7, r0, sl, lr

00000a9c <l553>:
     a9c:	a0a5e894 	umlalge	lr, r5, r4, r8

00000aa0 <l554>:
     aa0:	e0ac3091 	umlal	r3, ip, r1, r0

00000aa4 <l555>:
     aa4:	a0a28899 	umlalge	r8, r2, r9, r8

00000aa8 <l556>:
     aa8:	70b7c796 	umlalsvc	ip, r7, r6, r7

00000aac <l557>:
     aac:	e0ab339a 	umlal	r3, fp, sl, r3

00000ab0 <l558>:
     ab0:	e0aa9093 	umlal	r9, sl, r3, r0

00000ab4 <l559>:
     ab4:	e0acaa91 	umlal	sl, ip, r1, sl

00000ab8 <l560>:
     ab8:	80a73499 	umlalhi	r3, r7, r9, r4

00000abc <l561>:
     abc:	80a4679a 	umlalhi	r6, r4, sl, r7

00000ac0 <l562>:
     ac0:	00be5190 	umlalseq	r5, lr, r0, r1

00000ac4 <l563>:
     ac4:	10a4b299 	umlalne	fp, r4, r9, r2

00000ac8 <l564>:
     ac8:	e0a4859b 	umlal	r8, r4, fp, r5

00000acc <l565>:
     acc:	a0b42096 	umlalsge	r2, r4, r6, r0

00000ad0 <l566>:
     ad0:	80a6ec92 	umlalhi	lr, r6, r2, ip

00000ad4 <l567>:
     ad4:	b0bce393 	umlalslt	lr, ip, r3, r3

00000ad8 <l568>:
     ad8:	e0b93995 	umlals	r3, r9, r5, r9

00000adc <l569>:
     adc:	30aa6590 	umlalcc	r6, sl, r0, r5

00000ae0 <l570>:
     ae0:	a0aa6a9c 	umlalge	r6, sl, ip, sl

00000ae4 <l571>:
     ae4:	e0a5759c 	umlal	r7, r5, ip, r5

00000ae8 <l572>:
     ae8:	c0b9ae97 	umlalsgt	sl, r9, r7, lr

00000aec <l573>:
     aec:	e0a2679e 	umlal	r6, r2, lr, r7

00000af0 <l574>:
     af0:	e0bc0497 	umlals	r0, ip, r7, r4

00000af4 <l575>:
     af4:	d0a4a195 	umlalle	sl, r4, r5, r1

00000af8 <l576>:
     af8:	00b2b79e 	umlalseq	fp, r2, lr, r7

00000afc <l577>:
     afc:	70b67b98 	umlalsvc	r7, r6, r8, fp

00000b00 <l578>:
     b00:	a0b2ab91 	umlalsge	sl, r2, r1, fp

00000b04 <l579>:
     b04:	10b03597 	umlalsne	r3, r0, r7, r5

00000b08 <l580>:
     b08:	e0b2399e 	umlals	r3, r2, lr, r9

00000b0c <l581>:
     b0c:	90ab459e 	umlalls	r4, fp, lr, r5

00000b10 <l582>:
     b10:	40a91592 	umlalmi	r1, r9, r2, r5

00000b14 <l583>:
     b14:	50b70391 	umlalspl	r0, r7, r1, r3

00000b18 <l584>:
     b18:	00bae496 	umlalseq	lr, sl, r6, r4

00000b1c <l585>:
     b1c:	e0b1879e 	umlals	r8, r1, lr, r7

00000b20 <l586>:
     b20:	e0b1589c 	umlals	r5, r1, ip, r8

00000b24 <l587>:
     b24:	e0be1c93 	umlals	r1, lr, r3, ip

00000b28 <l588>:
     b28:	50a4ca90 	umlalpl	ip, r4, r0, sl

00000b2c <l589>:
     b2c:	60ac0297 	umlalvs	r0, ip, r7, r2

00000b30 <l590>:
     b30:	e0a2e29c 	umlal	lr, r2, ip, r2

00000b34 <l591>:
     b34:	90a41a9b 	umlalls	r1, r4, fp, sl

00000b38 <l592>:
     b38:	e0aab499 	umlal	fp, sl, r9, r4

00000b3c <l593>:
     b3c:	b0a08793 	umlallt	r8, r0, r3, r7

00000b40 <l594>:
     b40:	60b1c99a 	umlalsvs	ip, r1, sl, r9

00000b44 <l595>:
     b44:	e0bc3a95 	umlals	r3, ip, r5, sl

00000b48 <l596>:
     b48:	80ba8196 	umlalshi	r8, sl, r6, r1

00000b4c <l597>:
     b4c:	00bb0996 	umlalseq	r0, fp, r6, r9

00000b50 <l598>:
     b50:	70a2c596 	umlalvc	ip, r2, r6, r5

00000b54 <l599>:
     b54:	20a4639c 	umlalcs	r6, r4, ip, r3

00000b58 <l600>:
     b58:	e0a83597 	umlal	r3, r8, r7, r5

00000b5c <l601>:
     b5c:	60bb4a9a 	umlalsvs	r4, fp, sl, sl

00000b60 <l602>:
     b60:	b0ab0598 	umlallt	r0, fp, r8, r5

00000b64 <l603>:
     b64:	e0a9499b 	umlal	r4, r9, fp, r9

00000b68 <l604>:
     b68:	c0a01b95 	umlalgt	r1, r0, r5, fp

00000b6c <l605>:
     b6c:	c0b02a9b 	umlalsgt	r2, r0, fp, sl

00000b70 <l606>:
     b70:	e0b2819a 	umlals	r8, r2, sl, r1

00000b74 <l607>:
     b74:	80ace294 	umlalhi	lr, ip, r4, r2

00000b78 <l608>:
     b78:	10a14b98 	umlalne	r4, r1, r8, fp

00000b7c <l609>:
     b7c:	40ba5a9b 	umlalsmi	r5, sl, fp, sl

00000b80 <l610>:
     b80:	e0b4539c 	umlals	r5, r4, ip, r3

00000b84 <l611>:
     b84:	90a80296 	umlalls	r0, r8, r6, r2

00000b88 <l612>:
     b88:	80b1459e 	umlalshi	r4, r1, lr, r5

00000b8c <l613>:
     b8c:	c0a25396 	umlalgt	r5, r2, r6, r3

00000b90 <l614>:
     b90:	d0a23398 	umlalle	r3, r2, r8, r3

00000b94 <l615>:
     b94:	e0b8b096 	umlals	fp, r8, r6, r0

00000b98 <l616>:
     b98:	a0b4e498 	umlalsge	lr, r4, r8, r4

00000b9c <l617>:
     b9c:	c0a15e99 	umlalgt	r5, r1, r9, lr

00000ba0 <l618>:
     ba0:	50b17099 	umlalspl	r7, r1, r9, r0

00000ba4 <l619>:
     ba4:	20ac0499 	umlalcs	r0, ip, r9, r4

00000ba8 <l620>:
     ba8:	c0a9cc95 	umlalgt	ip, r9, r5, ip

00000bac <l621>:
     bac:	50b98397 	umlalspl	r8, r9, r7, r3

00000bb0 <l622>:
     bb0:	60bc1494 	umlalsvs	r1, ip, r4, r4

00000bb4 <l623>:
     bb4:	00b04697 	umlalseq	r4, r0, r7, r6

00000bb8 <l624>:
     bb8:	80b12c9c 	umlalshi	r2, r1, ip, ip

00000bbc <l625>:
     bbc:	00b8e792 	umlalseq	lr, r8, r2, r7

00000bc0 <l626>:
     bc0:	00a5b392 	umlaleq	fp, r5, r2, r3

00000bc4 <l627>:
     bc4:	e0a51993 	umlal	r1, r5, r3, r9

00000bc8 <l628>:
     bc8:	c0b6c69e 	umlalsgt	ip, r6, lr, r6

00000bcc <l629>:
     bcc:	20aeb897 	umlalcs	fp, lr, r7, r8

00000bd0 <l630>:
     bd0:	40bb6594 	umlalsmi	r6, fp, r4, r5

00000bd4 <l631>:
     bd4:	e0b32797 	umlals	r2, r3, r7, r7

00000bd8 <l632>:
     bd8:	e0ae239a 	umlal	r2, lr, sl, r3

00000bdc <l633>:
     bdc:	e0ace795 	umlal	lr, ip, r5, r7

00000be0 <l634>:
     be0:	60ac4297 	umlalvs	r4, ip, r7, r2

00000be4 <l635>:
     be4:	c0be4695 	umlalsgt	r4, lr, r5, r6

00000be8 <l636>:
     be8:	e0a08b9e 	umlal	r8, r0, lr, fp

00000bec <l637>:
     bec:	30b2e69a 	umlalscc	lr, r2, sl, r6

00000bf0 <l638>:
     bf0:	c0bb9690 	umlalsgt	r9, fp, r0, r6

00000bf4 <l639>:
     bf4:	70a2b99a 	umlalvc	fp, r2, sl, r9

00000bf8 <l640>:
     bf8:	10a96b95 	umlalne	r6, r9, r5, fp

00000bfc <l641>:
     bfc:	50b73e95 	umlalspl	r3, r7, r5, lr

00000c00 <l642>:
     c00:	e0b05794 	umlals	r5, r0, r4, r7

00000c04 <l643>:
     c04:	10a6b49e 	umlalne	fp, r6, lr, r4

00000c08 <l644>:
     c08:	b0a02393 	umlallt	r2, r0, r3, r3

00000c0c <l645>:
     c0c:	b0a9149a 	umlallt	r1, r9, sl, r4

00000c10 <l646>:
     c10:	20a75e96 	umlalcs	r5, r7, r6, lr

00000c14 <l647>:
     c14:	b0abc793 	umlallt	ip, fp, r3, r7

00000c18 <l648>:
     c18:	e0b1229a 	umlals	r2, r1, sl, r2

00000c1c <l649>:
     c1c:	c0a4329b 	umlalgt	r3, r4, fp, r2

00000c20 <l650>:
     c20:	e0bb159e 	umlals	r1, fp, lr, r5

00000c24 <l651>:
     c24:	90a3c099 	umlalls	ip, r3, r9, r0

00000c28 <l652>:
     c28:	e0ac1794 	umlal	r1, ip, r4, r7

00000c2c <l653>:
     c2c:	80b56a90 	umlalshi	r6, r5, r0, sl

00000c30 <l654>:
     c30:	e0bcab92 	umlals	sl, ip, r2, fp

00000c34 <l655>:
     c34:	e0ac8a94 	umlal	r8, ip, r4, sl

00000c38 <l656>:
     c38:	60b91697 	umlalsvs	r1, r9, r7, r6

00000c3c <l657>:
     c3c:	d0a8e090 	umlalle	lr, r8, r0, r0

00000c40 <l658>:
     c40:	70a63994 	umlalvc	r3, r6, r4, r9

00000c44 <l659>:
     c44:	e0b54a96 	umlals	r4, r5, r6, sl

00000c48 <l660>:
     c48:	c0ae519c 	umlalgt	r5, lr, ip, r1

00000c4c <l661>:
     c4c:	e0b6c091 	umlals	ip, r6, r1, r0

00000c50 <l662>:
     c50:	e0aa5e99 	umlal	r5, sl, r9, lr

00000c54 <l663>:
     c54:	e0b61293 	umlals	r1, r6, r3, r2

00000c58 <l664>:
     c58:	e0a32598 	umlal	r2, r3, r8, r5

00000c5c <l665>:
     c5c:	e0a47c9e 	umlal	r7, r4, lr, ip

00000c60 <l666>:
     c60:	e0a3639e 	umlal	r6, r3, lr, r3

00000c64 <l667>:
     c64:	20b4ca99 	umlalscs	ip, r4, r9, sl

00000c68 <l668>:
     c68:	50b19892 	umlalspl	r9, r1, r2, r8

00000c6c <l669>:
     c6c:	40ac8a93 	umlalmi	r8, ip, r3, sl

00000c70 <l670>:
     c70:	c0ab3c95 	umlalgt	r3, fp, r5, ip

00000c74 <l671>:
     c74:	70b5eb98 	umlalsvc	lr, r5, r8, fp

00000c78 <l672>:
     c78:	e0b17690 	umlals	r7, r1, r0, r6

00000c7c <l673>:
     c7c:	70bbca92 	umlalsvc	ip, fp, r2, sl

00000c80 <l674>:
     c80:	e0a8a89b 	umlal	sl, r8, fp, r8

00000c84 <l675>:
     c84:	80b29891 	umlalshi	r9, r2, r1, r8

00000c88 <l676>:
     c88:	b0b01799 	umlalslt	r1, r0, r9, r7

00000c8c <l677>:
     c8c:	e0b59c9b 	umlals	r9, r5, fp, ip

00000c90 <l678>:
     c90:	60a5a394 	umlalvs	sl, r5, r4, r3

00000c94 <l679>:
     c94:	10a62299 	umlalne	r2, r6, r9, r2

00000c98 <l680>:
     c98:	e0a6059b 	umlal	r0, r6, fp, r5

00000c9c <l681>:
     c9c:	e0b4ba9a 	umlals	fp, r4, sl, sl

00000ca0 <l682>:
     ca0:	e0b7e392 	umlals	lr, r7, r2, r3

00000ca4 <l683>:
     ca4:	60a7179e 	umlalvs	r1, r7, lr, r7

00000ca8 <l684>:
     ca8:	20b57c96 	umlalscs	r7, r5, r6, ip

00000cac <l685>:
     cac:	20a8219e 	umlalcs	r2, r8, lr, r1

00000cb0 <l686>:
     cb0:	00ab9393 	umlaleq	r9, fp, r3, r3

00000cb4 <l687>:
     cb4:	e0ba4697 	umlals	r4, sl, r7, r6

00000cb8 <l688>:
     cb8:	c0ab1c97 	umlalgt	r1, fp, r7, ip

00000cbc <l689>:
     cbc:	d0a35797 	umlalle	r5, r3, r7, r7

00000cc0 <l690>:
     cc0:	e0b5c894 	umlals	ip, r5, r4, r8

00000cc4 <l691>:
     cc4:	e0b69a98 	umlals	r9, r6, r8, sl

00000cc8 <l692>:
     cc8:	d0a9ee9b 	umlalle	lr, r9, fp, lr

00000ccc <l693>:
     ccc:	e0a50a96 	umlal	r0, r5, r6, sl

00000cd0 <l694>:
     cd0:	20bea299 	umlalscs	sl, lr, r9, r2

00000cd4 <l695>:
     cd4:	e0bae19b 	umlals	lr, sl, fp, r1

00000cd8 <l696>:
     cd8:	e0bb8a9c 	umlals	r8, fp, ip, sl

00000cdc <l697>:
     cdc:	e0b37991 	umlals	r7, r3, r1, r9

00000ce0 <l698>:
     ce0:	50ab0a97 	umlalpl	r0, fp, r7, sl

00000ce4 <l699>:
     ce4:	e0bec492 	umlals	ip, lr, r2, r4

00000ce8 <l700>:
     ce8:	e0a1a590 	umlal	sl, r1, r0, r5

00000cec <l701>:
     cec:	00a9e190 	umlaleq	lr, r9, r0, r1

00000cf0 <l702>:
     cf0:	a0ac7594 	umlalge	r7, ip, r4, r5

00000cf4 <l703>:
     cf4:	60b1e19c 	umlalsvs	lr, r1, ip, r1

00000cf8 <l704>:
     cf8:	10b96c9e 	umlalsne	r6, r9, lr, ip

00000cfc <l705>:
     cfc:	e0b09597 	umlals	r9, r0, r7, r5

00000d00 <l706>:
     d00:	e0a36899 	umlal	r6, r3, r9, r8

00000d04 <l707>:
     d04:	40b49692 	umlalsmi	r9, r4, r2, r6

00000d08 <l708>:
     d08:	e0a5b990 	umlal	fp, r5, r0, r9

00000d0c <l709>:
     d0c:	e0a8c693 	umlal	ip, r8, r3, r6

00000d10 <l710>:
     d10:	e0aa099e 	umlal	r0, sl, lr, r9

00000d14 <l711>:
     d14:	e0a23897 	umlal	r3, r2, r7, r8

00000d18 <l712>:
     d18:	e0b03c96 	umlals	r3, r0, r6, ip

00000d1c <l713>:
     d1c:	70b87499 	umlalsvc	r7, r8, r9, r4

00000d20 <l714>:
     d20:	30a28c99 	umlalcc	r8, r2, r9, ip

00000d24 <l715>:
     d24:	e0aa1392 	umlal	r1, sl, r2, r3

00000d28 <l716>:
     d28:	00b45c97 	umlalseq	r5, r4, r7, ip

00000d2c <l717>:
     d2c:	e0a12c98 	umlal	r2, r1, r8, ip

00000d30 <l718>:
     d30:	e0abe09a 	umlal	lr, fp, sl, r0

00000d34 <l719>:
     d34:	e0b60a97 	umlals	r0, r6, r7, sl

00000d38 <l720>:
     d38:	30a7879c 	umlalcc	r8, r7, ip, r7

00000d3c <l721>:
     d3c:	80ac339e 	umlalhi	r3, ip, lr, r3

00000d40 <l722>:
     d40:	80bc8397 	umlalshi	r8, ip, r7, r3

00000d44 <l723>:
     d44:	e0b10198 	umlals	r0, r1, r8, r1

00000d48 <l724>:
     d48:	e0aa8599 	umlal	r8, sl, r9, r5

00000d4c <l725>:
     d4c:	b0b7ca95 	umlalslt	ip, r7, r5, sl

00000d50 <l726>:
     d50:	e0b5a799 	umlals	sl, r5, r9, r7

00000d54 <l727>:
     d54:	e0a12a99 	umlal	r2, r1, r9, sl

00000d58 <l728>:
     d58:	40b80294 	umlalsmi	r0, r8, r4, r2

00000d5c <l729>:
     d5c:	b0b8439c 	umlalslt	r4, r8, ip, r3

00000d60 <l730>:
     d60:	b0a89b90 	umlallt	r9, r8, r0, fp

00000d64 <l731>:
     d64:	a0a0b596 	umlalge	fp, r0, r6, r5

00000d68 <l732>:
     d68:	e0a5619c 	umlal	r6, r5, ip, r1

00000d6c <l733>:
     d6c:	b0b6199c 	umlalslt	r1, r6, ip, r9

00000d70 <l734>:
     d70:	70ae5293 	umlalvc	r5, lr, r3, r2

00000d74 <l735>:
     d74:	e0b39b9e 	umlals	r9, r3, lr, fp

00000d78 <l736>:
     d78:	10abe19a 	umlalne	lr, fp, sl, r1

00000d7c <l737>:
     d7c:	00a2c293 	umlaleq	ip, r2, r3, r2

00000d80 <l738>:
     d80:	e0a4e292 	umlal	lr, r4, r2, r2

00000d84 <l739>:
     d84:	e0b8b696 	umlals	fp, r8, r6, r6

00000d88 <l740>:
     d88:	e0a6789e 	umlal	r7, r6, lr, r8

00000d8c <l741>:
     d8c:	40a0e597 	umlalmi	lr, r0, r7, r5

00000d90 <l742>:
     d90:	90aabb96 	umlalls	fp, sl, r6, fp

00000d94 <l743>:
     d94:	50a27b99 	umlalpl	r7, r2, r9, fp

00000d98 <l744>:
     d98:	10a0569a 	umlalne	r5, r0, sl, r6

00000d9c <l745>:
     d9c:	b0ab4497 	umlallt	r4, fp, r7, r4

00000da0 <l746>:
     da0:	e0a92b9b 	umlal	r2, r9, fp, fp

00000da4 <l747>:
     da4:	b0a7ce99 	umlallt	ip, r7, r9, lr

00000da8 <l748>:
     da8:	b0a7a693 	umlallt	sl, r7, r3, r6

00000dac <l749>:
     dac:	e0b7499b 	umlals	r4, r7, fp, r9

00000db0 <l750>:
     db0:	e0be349b 	umlals	r3, lr, fp, r4

00000db4 <l751>:
     db4:	e0b4329b 	umlals	r3, r4, fp, r2

00000db8 <l752>:
     db8:	e0ac1192 	umlal	r1, ip, r2, r1

00000dbc <l753>:
     dbc:	40ba6893 	umlalsmi	r6, sl, r3, r8

00000dc0 <l754>:
     dc0:	40b69694 	umlalsmi	r9, r6, r4, r6

00000dc4 <l755>:
     dc4:	e0a83c91 	umlal	r3, r8, r1, ip

00000dc8 <l756>:
     dc8:	c0ba239b 	umlalsgt	r2, sl, fp, r3

00000dcc <l757>:
     dcc:	e0bb8c9c 	umlals	r8, fp, ip, ip

00000dd0 <l758>:
     dd0:	60aebb90 	umlalvs	fp, lr, r0, fp

00000dd4 <l759>:
     dd4:	90b21b98 	umlalsls	r1, r2, r8, fp

00000dd8 <l760>:
     dd8:	70a35e98 	umlalvc	r5, r3, r8, lr

00000ddc <l761>:
     ddc:	20ba009c 	umlalscs	r0, sl, ip, r0

00000de0 <l762>:
     de0:	60a82297 	umlalvs	r2, r8, r7, r2

00000de4 <l763>:
     de4:	e0a5089a 	umlal	r0, r5, sl, r8

00000de8 <l764>:
     de8:	70b6b19c 	umlalsvc	fp, r6, ip, r1

00000dec <l765>:
     dec:	30bc7e94 	umlalscc	r7, ip, r4, lr

00000df0 <l766>:
     df0:	e0a76898 	umlal	r6, r7, r8, r8

00000df4 <l767>:
     df4:	90ba4196 	umlalsls	r4, sl, r6, r1

00000df8 <l768>:
     df8:	10a70e94 	umlalne	r0, r7, r4, lr

00000dfc <l769>:
     dfc:	90b97993 	umlalsls	r7, r9, r3, r9

00000e00 <l770>:
     e00:	90b52093 	umlalsls	r2, r5, r3, r0

00000e04 <l771>:
     e04:	e0b31596 	umlals	r1, r3, r6, r5

00000e08 <l772>:
     e08:	e0b4e697 	umlals	lr, r4, r7, r6

00000e0c <l773>:
     e0c:	e0ba759e 	umlals	r7, sl, lr, r5

00000e10 <l774>:
     e10:	40bb8594 	umlalsmi	r8, fp, r4, r5

00000e14 <l775>:
     e14:	e0a6729c 	umlal	r7, r6, ip, r2

00000e18 <l776>:
     e18:	e0aa659e 	umlal	r6, sl, lr, r5

00000e1c <l777>:
     e1c:	70bac691 	umlalsvc	ip, sl, r1, r6

00000e20 <l778>:
     e20:	90ab9e91 	umlalls	r9, fp, r1, lr

00000e24 <l779>:
     e24:	30ba5890 	umlalscc	r5, sl, r0, r8

00000e28 <l780>:
     e28:	e0be6695 	umlals	r6, lr, r5, r6

00000e2c <l781>:
     e2c:	e0b43097 	umlals	r3, r4, r7, r0

00000e30 <l782>:
     e30:	60a21b9e 	umlalvs	r1, r2, lr, fp

00000e34 <l783>:
     e34:	e0b56997 	umlals	r6, r5, r7, r9

00000e38 <l784>:
     e38:	e0a80094 	umlal	r0, r8, r4, r0

00000e3c <l785>:
     e3c:	20bea795 	umlalscs	sl, lr, r5, r7

00000e40 <l786>:
     e40:	40ab6798 	umlalmi	r6, fp, r8, r7

00000e44 <l787>:
     e44:	80aa3b9b 	umlalhi	r3, sl, fp, fp

00000e48 <l788>:
     e48:	30b5b591 	umlalscc	fp, r5, r1, r5

00000e4c <l789>:
     e4c:	e0a56a93 	umlal	r6, r5, r3, sl

00000e50 <l790>:
     e50:	e0b2ae9e 	umlals	sl, r2, lr, lr

00000e54 <l791>:
     e54:	80b28393 	umlalshi	r8, r2, r3, r3

00000e58 <l792>:
     e58:	50b3809e 	umlalspl	r8, r3, lr, r0

00000e5c <l793>:
     e5c:	00b1cc9a 	umlalseq	ip, r1, sl, ip

00000e60 <l794>:
     e60:	c0ac1696 	umlalgt	r1, ip, r6, r6

00000e64 <l795>:
     e64:	b0a0409c 	umlallt	r4, r0, ip, r0

00000e68 <l796>:
     e68:	e0ab2496 	umlal	r2, fp, r6, r4

00000e6c <l797>:
     e6c:	c0b01895 	umlalsgt	r1, r0, r5, r8

00000e70 <l798>:
     e70:	00a39b97 	umlaleq	r9, r3, r7, fp

00000e74 <l799>:
     e74:	e0a6bb9c 	umlal	fp, r6, ip, fp

00000e78 <l800>:
     e78:	e0a4ca95 	umlal	ip, r4, r5, sl

00000e7c <l801>:
     e7c:	00a5119c 	umlaleq	r1, r5, ip, r1

00000e80 <l802>:
     e80:	e0bec998 	umlals	ip, lr, r8, r9

00000e84 <l803>:
     e84:	50a42997 	umlalpl	r2, r4, r7, r9

00000e88 <l804>:
     e88:	e0a2319e 	umlal	r3, r2, lr, r1

00000e8c <l805>:
     e8c:	e0aca199 	umlal	sl, ip, r9, r1

00000e90 <l806>:
     e90:	40b8a697 	umlalsmi	sl, r8, r7, r6

00000e94 <l807>:
     e94:	e0b54896 	umlals	r4, r5, r6, r8

00000e98 <l808>:
     e98:	d0a49197 	umlalle	r9, r4, r7, r1

00000e9c <l809>:
     e9c:	b0ac3992 	umlallt	r3, ip, r2, r9

00000ea0 <l810>:
     ea0:	20a2c995 	umlalcs	ip, r2, r5, r9

00000ea4 <l811>:
     ea4:	40a59c97 	umlalmi	r9, r5, r7, ip

00000ea8 <l812>:
     ea8:	30be1a97 	umlalscc	r1, lr, r7, sl

00000eac <l813>:
     eac:	70b0c19b 	umlalsvc	ip, r0, fp, r1

00000eb0 <l814>:
     eb0:	80a53b9c 	umlalhi	r3, r5, ip, fp

00000eb4 <l815>:
     eb4:	b0bb8692 	umlalslt	r8, fp, r2, r6

00000eb8 <l816>:
     eb8:	80bce597 	umlalshi	lr, ip, r7, r5

00000ebc <l817>:
     ebc:	e0a45298 	umlal	r5, r4, r8, r2

00000ec0 <l818>:
     ec0:	b0ba9790 	umlalslt	r9, sl, r0, r7

00000ec4 <l819>:
     ec4:	e0b30496 	umlals	r0, r3, r6, r4

00000ec8 <l820>:
     ec8:	00b0e693 	umlalseq	lr, r0, r3, r6

00000ecc <l821>:
     ecc:	10ba0c97 	umlalsne	r0, sl, r7, ip

00000ed0 <l822>:
     ed0:	e0b7e496 	umlals	lr, r7, r6, r4

00000ed4 <l823>:
     ed4:	e0a7e395 	umlal	lr, r7, r5, r3

00000ed8 <l824>:
     ed8:	30b62693 	umlalscc	r2, r6, r3, r6

00000edc <l825>:
     edc:	90a52b96 	umlalls	r2, r5, r6, fp

00000ee0 <l826>:
     ee0:	e0ab1595 	umlal	r1, fp, r5, r5

00000ee4 <l827>:
     ee4:	80be7799 	umlalshi	r7, lr, r9, r7

00000ee8 <l828>:
     ee8:	e0a2c398 	umlal	ip, r2, r8, r3

00000eec <l829>:
     eec:	10b2b995 	umlalsne	fp, r2, r5, r9

00000ef0 <l830>:
     ef0:	40be7c98 	umlalsmi	r7, lr, r8, ip

00000ef4 <l831>:
     ef4:	a0ab0793 	umlalge	r0, fp, r3, r7

00000ef8 <l832>:
     ef8:	e0a1b195 	umlal	fp, r1, r5, r1

00000efc <l833>:
     efc:	40b39297 	umlalsmi	r9, r3, r7, r2

00000f00 <l834>:
     f00:	e0b4059c 	umlals	r0, r4, ip, r5

00000f04 <l835>:
     f04:	70be3394 	umlalsvc	r3, lr, r4, r3

00000f08 <l836>:
     f08:	e0b49593 	umlals	r9, r4, r3, r5

00000f0c <l837>:
     f0c:	e0a12c90 	umlal	r2, r1, r0, ip

00000f10 <l838>:
     f10:	70a1e597 	umlalvc	lr, r1, r7, r5

00000f14 <l839>:
     f14:	a0ba689c 	umlalsge	r6, sl, ip, r8

00000f18 <l840>:
     f18:	e0b31897 	umlals	r1, r3, r7, r8

00000f1c <l841>:
     f1c:	d0a49b9b 	umlalle	r9, r4, fp, fp

00000f20 <l842>:
     f20:	e0a3a494 	umlal	sl, r3, r4, r4

00000f24 <l843>:
     f24:	a0aba491 	umlalge	sl, fp, r1, r4

00000f28 <l844>:
     f28:	10b03a94 	umlalsne	r3, r0, r4, sl

00000f2c <l845>:
     f2c:	d0a31199 	umlalle	r1, r3, r9, r1

00000f30 <l846>:
     f30:	e0bb9b98 	umlals	r9, fp, r8, fp

00000f34 <l847>:
     f34:	e0a6ac95 	umlal	sl, r6, r5, ip

00000f38 <l848>:
     f38:	e0b70b9a 	umlals	r0, r7, sl, fp

00000f3c <l849>:
     f3c:	e0ac4c95 	umlal	r4, ip, r5, ip

00000f40 <l850>:
     f40:	30b4599e 	umlalscc	r5, r4, lr, r9

00000f44 <l851>:
     f44:	70b59591 	umlalsvc	r9, r5, r1, r5

00000f48 <l852>:
     f48:	00a30096 	umlaleq	r0, r3, r6, r0

00000f4c <l853>:
     f4c:	20bc7690 	umlalscs	r7, ip, r0, r6

00000f50 <l854>:
     f50:	90bbaa9e 	umlalsls	sl, fp, lr, sl

00000f54 <l855>:
     f54:	30a2ec97 	umlalcc	lr, r2, r7, ip

00000f58 <l856>:
     f58:	70a56194 	umlalvc	r6, r5, r4, r1

00000f5c <l857>:
     f5c:	e0ac6892 	umlal	r6, ip, r2, r8

00000f60 <l858>:
     f60:	00a7ba9c 	umlaleq	fp, r7, ip, sl

00000f64 <l859>:
     f64:	e0b8a091 	umlals	sl, r8, r1, r0

00000f68 <l860>:
     f68:	e0a81795 	umlal	r1, r8, r5, r7

00000f6c <l861>:
     f6c:	20b75e98 	umlalscs	r5, r7, r8, lr

00000f70 <l862>:
     f70:	40a5439a 	umlalmi	r4, r5, sl, r3

00000f74 <l863>:
     f74:	50bc2791 	umlalspl	r2, ip, r1, r7

00000f78 <l864>:
     f78:	20b21c9e 	umlalscs	r1, r2, lr, ip

00000f7c <l865>:
     f7c:	e0aece90 	umlal	ip, lr, r0, lr

00000f80 <l866>:
     f80:	50a27a9a 	umlalpl	r7, r2, sl, sl

00000f84 <l867>:
     f84:	e0b1a193 	umlals	sl, r1, r3, r1

00000f88 <l868>:
     f88:	e0a0b692 	umlal	fp, r0, r2, r6

00000f8c <l869>:
     f8c:	30a16694 	umlalcc	r6, r1, r4, r6

00000f90 <l870>:
     f90:	90ab8694 	umlalls	r8, fp, r4, r6

00000f94 <l871>:
     f94:	e0b50094 	umlals	r0, r5, r4, r0

00000f98 <l872>:
     f98:	c0aeb595 	umlalgt	fp, lr, r5, r5

00000f9c <l873>:
     f9c:	00ac4c92 	umlaleq	r4, ip, r2, ip

00000fa0 <l874>:
     fa0:	e0b2729c 	umlals	r7, r2, ip, r2

00000fa4 <l875>:
     fa4:	50aeba99 	umlalpl	fp, lr, r9, sl

00000fa8 <l876>:
     fa8:	80ba0991 	umlalshi	r0, sl, r1, r9

00000fac <l877>:
     fac:	10b1e496 	umlalsne	lr, r1, r6, r4

00000fb0 <l878>:
     fb0:	e0b14892 	umlals	r4, r1, r2, r8

00000fb4 <l879>:
     fb4:	b0aa829e 	umlallt	r8, sl, lr, r2

00000fb8 <l880>:
     fb8:	e0ba1e93 	umlals	r1, sl, r3, lr

00000fbc <l881>:
     fbc:	50a3e790 	umlalpl	lr, r3, r0, r7

00000fc0 <l882>:
     fc0:	40b56694 	umlalsmi	r6, r5, r4, r6

00000fc4 <l883>:
     fc4:	e0a98c92 	umlal	r8, r9, r2, ip

00000fc8 <l884>:
     fc8:	30a10b9e 	umlalcc	r0, r1, lr, fp

00000fcc <l885>:
     fcc:	70b7079a 	umlalsvc	r0, r7, sl, r7

00000fd0 <l886>:
     fd0:	d0b2929a 	umlalsle	r9, r2, sl, r2

00000fd4 <l887>:
     fd4:	20b6079a 	umlalscs	r0, r6, sl, r7

00000fd8 <l888>:
     fd8:	90aa2e98 	umlalls	r2, sl, r8, lr

00000fdc <l889>:
     fdc:	e0a3a994 	umlal	sl, r3, r4, r9

00000fe0 <l890>:
     fe0:	d0a3439e 	umlalle	r4, r3, lr, r3

00000fe4 <l891>:
     fe4:	b0a8ac9e 	umlallt	sl, r8, lr, ip

00000fe8 <l892>:
     fe8:	e0b96390 	umlals	r6, r9, r0, r3

00000fec <l893>:
     fec:	50b83296 	umlalspl	r3, r8, r6, r2

00000ff0 <l894>:
     ff0:	30ab189a 	umlalcc	r1, fp, sl, r8

00000ff4 <l895>:
     ff4:	00a6a99e 	umlaleq	sl, r6, lr, r9

00000ff8 <l896>:
     ff8:	e0b28e9c 	umlals	r8, r2, ip, lr

00000ffc <l897>:
     ffc:	b0ac329a 	umlallt	r3, ip, sl, r2

00001000 <l898>:
    1000:	60a46491 	umlalvs	r6, r4, r1, r4

00001004 <l899>:
    1004:	e0b59592 	umlals	r9, r5, r2, r5

00001008 <l900>:
    1008:	e0ba7791 	umlals	r7, sl, r1, r7

0000100c <l901>:
    100c:	70a9ea90 	umlalvc	lr, r9, r0, sl

00001010 <l902>:
    1010:	e0b7e298 	umlals	lr, r7, r8, r2

00001014 <l903>:
    1014:	e0b70c98 	umlals	r0, r7, r8, ip

00001018 <l904>:
    1018:	e0a35a9b 	umlal	r5, r3, fp, sl

0000101c <l905>:
    101c:	e0b5189e 	umlals	r1, r5, lr, r8

00001020 <l906>:
    1020:	80aa749e 	umlalhi	r7, sl, lr, r4

00001024 <l907>:
    1024:	e0a4c898 	umlal	ip, r4, r8, r8

00001028 <l908>:
    1028:	20b6e595 	umlalscs	lr, r6, r5, r5

0000102c <l909>:
    102c:	e0a26691 	umlal	r6, r2, r1, r6

00001030 <l910>:
    1030:	e0b0649b 	umlals	r6, r0, fp, r4

00001034 <l911>:
    1034:	e0a46c97 	umlal	r6, r4, r7, ip

00001038 <l912>:
    1038:	e0a15899 	umlal	r5, r1, r9, r8

0000103c <l913>:
    103c:	e0a43c96 	umlal	r3, r4, r6, ip

00001040 <l914>:
    1040:	90a5939a 	umlalls	r9, r5, sl, r3

00001044 <l915>:
    1044:	e0bac197 	umlals	ip, sl, r7, r1

00001048 <l916>:
    1048:	20b60c92 	umlalscs	r0, r6, r2, ip

0000104c <l917>:
    104c:	40bce79a 	umlalsmi	lr, ip, sl, r7

00001050 <l918>:
    1050:	30b1be93 	umlalscc	fp, r1, r3, lr

00001054 <l919>:
    1054:	30ab6b95 	umlalcc	r6, fp, r5, fp

00001058 <l920>:
    1058:	c0a28590 	umlalgt	r8, r2, r0, r5

0000105c <l921>:
    105c:	70a5b49a 	umlalvc	fp, r5, sl, r4

00001060 <l922>:
    1060:	b0a75b91 	umlallt	r5, r7, r1, fp

00001064 <l923>:
    1064:	e0be2996 	umlals	r2, lr, r6, r9

00001068 <l924>:
    1068:	e0ba219e 	umlals	r2, sl, lr, r1

0000106c <l925>:
    106c:	10a0ee9c 	umlalne	lr, r0, ip, lr

00001070 <l926>:
    1070:	d0a1a999 	umlalle	sl, r1, r9, r9

00001074 <l927>:
    1074:	70ac219a 	umlalvc	r2, ip, sl, r1

00001078 <l928>:
    1078:	b0bbc290 	umlalslt	ip, fp, r0, r2

0000107c <l929>:
    107c:	e0a57596 	umlal	r7, r5, r6, r5

00001080 <l930>:
    1080:	e0ba179c 	umlals	r1, sl, ip, r7

00001084 <l931>:
    1084:	e0b3579b 	umlals	r5, r3, fp, r7

00001088 <l932>:
    1088:	50ab2697 	umlalpl	r2, fp, r7, r6

0000108c <l933>:
    108c:	40aa0197 	umlalmi	r0, sl, r7, r1

00001090 <l934>:
    1090:	10ac069e 	umlalne	r0, ip, lr, r6

00001094 <l935>:
    1094:	c0b21190 	umlalsgt	r1, r2, r0, r1

00001098 <l936>:
    1098:	e0b08892 	umlals	r8, r0, r2, r8

0000109c <l937>:
    109c:	20ac4896 	umlalcs	r4, ip, r6, r8

000010a0 <l938>:
    10a0:	30a05396 	umlalcc	r5, r0, r6, r3

000010a4 <l939>:
    10a4:	e0a65692 	umlal	r5, r6, r2, r6

000010a8 <l940>:
    10a8:	30a1a998 	umlalcc	sl, r1, r8, r9

000010ac <l941>:
    10ac:	00aca896 	umlaleq	sl, ip, r6, r8

000010b0 <l942>:
    10b0:	d0aa689b 	umlalle	r6, sl, fp, r8

000010b4 <l943>:
    10b4:	50b84695 	umlalspl	r4, r8, r5, r6

000010b8 <l944>:
    10b8:	90b1e197 	umlalsls	lr, r1, r7, r1

000010bc <l945>:
    10bc:	50a32897 	umlalpl	r2, r3, r7, r8

000010c0 <l946>:
    10c0:	e0a05693 	umlal	r5, r0, r3, r6

000010c4 <l947>:
    10c4:	00b86693 	umlalseq	r6, r8, r3, r6

000010c8 <l948>:
    10c8:	e0a5e899 	umlal	lr, r5, r9, r8

000010cc <l949>:
    10cc:	e0a49490 	umlal	r9, r4, r0, r4

000010d0 <l950>:
    10d0:	80bb0b91 	umlalshi	r0, fp, r1, fp

000010d4 <l951>:
    10d4:	e0a59c9b 	umlal	r9, r5, fp, ip

000010d8 <l952>:
    10d8:	e0a46c93 	umlal	r6, r4, r3, ip

000010dc <l953>:
    10dc:	c0a61992 	umlalgt	r1, r6, r2, r9

000010e0 <l954>:
    10e0:	e0a42899 	umlal	r2, r4, r9, r8

000010e4 <l955>:
    10e4:	e0a2c496 	umlal	ip, r2, r6, r4

000010e8 <l956>:
    10e8:	e0a73e95 	umlal	r3, r7, r5, lr

000010ec <l957>:
    10ec:	80bb499a 	umlalshi	r4, fp, sl, r9

000010f0 <l958>:
    10f0:	90bb8494 	umlalsls	r8, fp, r4, r4

000010f4 <l959>:
    10f4:	e0a51c97 	umlal	r1, r5, r7, ip

000010f8 <l960>:
    10f8:	e0a8c291 	umlal	ip, r8, r1, r2

000010fc <l961>:
    10fc:	60ac9697 	umlalvs	r9, ip, r7, r6

00001100 <l962>:
    1100:	e0ae4099 	umlal	r4, lr, r9, r0

00001104 <l963>:
    1104:	d0b81e9c 	umlalsle	r1, r8, ip, lr

00001108 <l964>:
    1108:	a0a81493 	umlalge	r1, r8, r3, r4

0000110c <l965>:
    110c:	a0b4389b 	umlalsge	r3, r4, fp, r8

00001110 <l966>:
    1110:	10a26197 	umlalne	r6, r2, r7, r1

00001114 <l967>:
    1114:	e0a9249b 	umlal	r2, r9, fp, r4

00001118 <l968>:
    1118:	80a30197 	umlalhi	r0, r3, r7, r1

0000111c <l969>:
    111c:	e0bc5a97 	umlals	r5, ip, r7, sl

00001120 <l970>:
    1120:	e0a81495 	umlal	r1, r8, r5, r4

00001124 <l971>:
    1124:	e0ba7b9c 	umlals	r7, sl, ip, fp

00001128 <l972>:
    1128:	40a4a492 	umlalmi	sl, r4, r2, r4

0000112c <l973>:
    112c:	d0bec794 	umlalsle	ip, lr, r4, r7

00001130 <l974>:
    1130:	90b89493 	umlalsls	r9, r8, r3, r4

00001134 <l975>:
    1134:	e0a74a90 	umlal	r4, r7, r0, sl

00001138 <l976>:
    1138:	20a46492 	umlalcs	r6, r4, r2, r4

0000113c <l977>:
    113c:	90a9559e 	umlalls	r5, r9, lr, r5

00001140 <l978>:
    1140:	10a13a98 	umlalne	r3, r1, r8, sl

00001144 <l979>:
    1144:	e0bb909a 	umlals	r9, fp, sl, r0

00001148 <l980>:
    1148:	a0a2b594 	umlalge	fp, r2, r4, r5

0000114c <l981>:
    114c:	10ab1197 	umlalne	r1, fp, r7, r1

00001150 <l982>:
    1150:	c0a27593 	umlalgt	r7, r2, r3, r5

00001154 <l983>:
    1154:	70a79a90 	umlalvc	r9, r7, r0, sl

00001158 <l984>:
    1158:	60a76892 	umlalvs	r6, r7, r2, r8

0000115c <l985>:
    115c:	10abc299 	umlalne	ip, fp, r9, r2

00001160 <l986>:
    1160:	e0b49e9a 	umlals	r9, r4, sl, lr

00001164 <l987>:
    1164:	e0b7b698 	umlals	fp, r7, r8, r6

00001168 <l988>:
    1168:	50a95793 	umlalpl	r5, r9, r3, r7

0000116c <l989>:
    116c:	50aa729b 	umlalpl	r7, sl, fp, r2

00001170 <l990>:
    1170:	e0a96c91 	umlal	r6, r9, r1, ip

00001174 <l991>:
    1174:	90bca893 	umlalsls	sl, ip, r3, r8

00001178 <l992>:
    1178:	20a1a89e 	umlalcs	sl, r1, lr, r8

0000117c <l993>:
    117c:	90b6cc92 	umlalsls	ip, r6, r2, ip

00001180 <l994>:
    1180:	a0a7b498 	umlalge	fp, r7, r8, r4

00001184 <l995>:
    1184:	e0be4e91 	umlals	r4, lr, r1, lr

00001188 <l996>:
    1188:	d0bcb190 	umlalsle	fp, ip, r0, r1

0000118c <l997>:
    118c:	e0a85e91 	umlal	r5, r8, r1, lr

00001190 <l998>:
    1190:	90bca697 	umlalsls	sl, ip, r7, r6

00001194 <l999>:
    1194:	e0b6a994 	umlals	sl, r6, r4, r9

00001198 <l1000>:
    1198:	30a62b95 	umlalcc	r2, r6, r5, fp

0000119c <end>:
    119c:	eafffffe 	b	119c <end>
