
umull_1000.o:     file format elf32-littlearm


Disassembly of section .text:

00000000 <main>:
       0:	e05f000f 	subs	r0, pc, pc
       4:	e59fd000 	ldr	sp, [pc]	; c <val>
       8:	ea000000 	b	10 <next>

0000000c <val>:
       c:	000ffff0 	.word	0x000ffff0

00000010 <next>:
      10:	e59f1000 	ldr	r1, [pc]	; 18 <val1>
      14:	ea000000 	b	1c <next1>

00000018 <val1>:
      18:	51e3bf95 	.word	0x51e3bf95

0000001c <next1>:
      1c:	e59f2000 	ldr	r2, [pc]	; 24 <val2>
      20:	ea000000 	b	28 <next2>

00000024 <val2>:
      24:	8dd7017b 	.word	0x8dd7017b

00000028 <next2>:
      28:	e59f3000 	ldr	r3, [pc]	; 30 <val3>
      2c:	ea000000 	b	34 <next3>

00000030 <val3>:
      30:	e47536fa 	.word	0xe47536fa

00000034 <next3>:
      34:	e59f4000 	ldr	r4, [pc]	; 3c <val4>
      38:	ea000000 	b	40 <next4>

0000003c <val4>:
      3c:	1bad0999 	.word	0x1bad0999

00000040 <next4>:
      40:	e59f5000 	ldr	r5, [pc]	; 48 <val5>
      44:	ea000000 	b	4c <next5>

00000048 <val5>:
      48:	3c761e92 	.word	0x3c761e92

0000004c <next5>:
      4c:	e59f6000 	ldr	r6, [pc]	; 54 <val6>
      50:	ea000000 	b	58 <next6>

00000054 <val6>:
      54:	0f1038c1 	.word	0x0f1038c1

00000058 <next6>:
      58:	e59f7000 	ldr	r7, [pc]	; 60 <val7>
      5c:	ea000000 	b	64 <next7>

00000060 <val7>:
      60:	470631cb 	.word	0x470631cb

00000064 <next7>:
      64:	e59f8000 	ldr	r8, [pc]	; 6c <val8>
      68:	ea000000 	b	70 <next8>

0000006c <val8>:
      6c:	50acac96 	.word	0x50acac96

00000070 <next8>:
      70:	e59f9000 	ldr	r9, [pc]	; 78 <val9>
      74:	ea000000 	b	7c <next9>

00000078 <val9>:
      78:	5b4bb351 	.word	0x5b4bb351

0000007c <next9>:
      7c:	e59fa000 	ldr	sl, [pc]	; 84 <val10>
      80:	ea000000 	b	88 <next10>

00000084 <val10>:
      84:	c0424bff 	.word	0xc0424bff

00000088 <next10>:
      88:	e59fb000 	ldr	fp, [pc]	; 90 <val11>
      8c:	ea000000 	b	94 <next11>

00000090 <val11>:
      90:	5b00bdea 	.word	0x5b00bdea

00000094 <next11>:
      94:	e59fc000 	ldr	ip, [pc]	; 9c <val12>
      98:	ea000000 	b	a0 <next12>

0000009c <val12>:
      9c:	eb3f68f8 	.word	0xeb3f68f8

000000a0 <next12>:
      a0:	e59fe000 	ldr	lr, [pc]	; a8 <val14>
      a4:	ea000000 	b	ac <next14>

000000a8 <val14>:
      a8:	1613b6ce 	.word	0x1613b6ce

000000ac <next14>:
      ac:	e59f1000 	ldr	r1, [pc]	; b4 <val15>
      b0:	ea000000 	b	b8 <next15>

000000b4 <val15>:
      b4:	583f1442 	.word	0x583f1442

000000b8 <next15>:
      b8:	e58d1000 	str	r1, [sp]
      bc:	e59f1000 	ldr	r1, [pc]	; c4 <val16>
      c0:	ea000000 	b	c8 <next16>

000000c4 <val16>:
      c4:	b1441433 	.word	0xb1441433

000000c8 <next16>:
      c8:	e50d1004 	str	r1, [sp, #-4]
      cc:	e59f1000 	ldr	r1, [pc]	; d4 <val17>
      d0:	ea000000 	b	d8 <next17>

000000d4 <val17>:
      d4:	a264de0e 	.word	0xa264de0e

000000d8 <next17>:
      d8:	e50d1008 	str	r1, [sp, #-8]
      dc:	e59f1000 	ldr	r1, [pc]	; e4 <val18>
      e0:	ea000000 	b	e8 <next18>

000000e4 <val18>:
      e4:	997329c3 	.word	0x997329c3

000000e8 <next18>:
      e8:	e50d100c 	str	r1, [sp, #-12]
      ec:	e59f1000 	ldr	r1, [pc]	; f4 <val19>
      f0:	ea000000 	b	f8 <next19>

000000f4 <val19>:
      f4:	d027409a 	.word	0xd027409a

000000f8 <next19>:
      f8:	e50d1010 	str	r1, [sp, #-16]
      fc:	e59f1000 	ldr	r1, [pc]	; 104 <val20>
     100:	ea000000 	b	108 <next20>

00000104 <val20>:
     104:	88e2886b 	.word	0x88e2886b

00000108 <next20>:
     108:	e50d1014 	str	r1, [sp, #-20]
     10c:	e59f1000 	ldr	r1, [pc]	; 114 <val21>
     110:	ea000000 	b	118 <next21>

00000114 <val21>:
     114:	0c9f0702 	.word	0x0c9f0702

00000118 <next21>:
     118:	e50d1018 	str	r1, [sp, #-24]
     11c:	e59f1000 	ldr	r1, [pc]	; 124 <val22>
     120:	ea000000 	b	128 <next22>

00000124 <val22>:
     124:	7ff555a1 	.word	0x7ff555a1

00000128 <next22>:
     128:	e50d101c 	str	r1, [sp, #-28]
     12c:	e59f1000 	ldr	r1, [pc]	; 134 <val23>
     130:	ea000000 	b	138 <next23>

00000134 <val23>:
     134:	73f31af7 	.word	0x73f31af7

00000138 <next23>:
     138:	e50d1020 	str	r1, [sp, #-32]
     13c:	e59f1000 	ldr	r1, [pc]	; 144 <val24>
     140:	ea000000 	b	148 <next24>

00000144 <val24>:
     144:	f0b8023a 	.word	0xf0b8023a

00000148 <next24>:
     148:	e50d1024 	str	r1, [sp, #-36]	; 0x24
     14c:	e59f1000 	ldr	r1, [pc]	; 154 <val25>
     150:	ea000000 	b	158 <next25>

00000154 <val25>:
     154:	184e5e64 	.word	0x184e5e64

00000158 <next25>:
     158:	e50d1028 	str	r1, [sp, #-40]	; 0x28
     15c:	e59f1000 	ldr	r1, [pc]	; 164 <val26>
     160:	ea000000 	b	168 <next26>

00000164 <val26>:
     164:	08b2441d 	.word	0x08b2441d

00000168 <next26>:
     168:	e50d102c 	str	r1, [sp, #-44]	; 0x2c
     16c:	e59f1000 	ldr	r1, [pc]	; 174 <val27>
     170:	ea000000 	b	178 <next27>

00000174 <val27>:
     174:	6c9716af 	.word	0x6c9716af

00000178 <next27>:
     178:	e50d1030 	str	r1, [sp, #-48]	; 0x30
     17c:	e59f1000 	ldr	r1, [pc]	; 184 <val28>
     180:	ea000000 	b	188 <next28>

00000184 <val28>:
     184:	ef788194 	.word	0xef788194

00000188 <next28>:
     188:	e50d1034 	str	r1, [sp, #-52]	; 0x34
     18c:	e59f1000 	ldr	r1, [pc]	; 194 <val29>
     190:	ea000000 	b	198 <next29>

00000194 <val29>:
     194:	c3bfb2da 	.word	0xc3bfb2da

00000198 <next29>:
     198:	e50d1038 	str	r1, [sp, #-56]	; 0x38
     19c:	e59f1000 	ldr	r1, [pc]	; 1a4 <val30>
     1a0:	ea000000 	b	1a8 <next30>

000001a4 <val30>:
     1a4:	fb3fef52 	.word	0xfb3fef52

000001a8 <next30>:
     1a8:	e50d103c 	str	r1, [sp, #-60]	; 0x3c
     1ac:	e59f1000 	ldr	r1, [pc]	; 1b4 <val31>
     1b0:	ea000000 	b	1b8 <next31>

000001b4 <val31>:
     1b4:	c52bc766 	.word	0xc52bc766

000001b8 <next31>:
     1b8:	e50d1040 	str	r1, [sp, #-64]	; 0x40
     1bc:	e59f1000 	ldr	r1, [pc]	; 1c4 <val32>
     1c0:	ea000000 	b	1c8 <next32>

000001c4 <val32>:
     1c4:	0c56f5fe 	.word	0x0c56f5fe

000001c8 <next32>:
     1c8:	e50d1044 	str	r1, [sp, #-68]	; 0x44
     1cc:	e59f1000 	ldr	r1, [pc]	; 1d4 <val33>
     1d0:	ea000000 	b	1d8 <next33>

000001d4 <val33>:
     1d4:	dbb1b91c 	.word	0xdbb1b91c

000001d8 <next33>:
     1d8:	e50d1048 	str	r1, [sp, #-72]	; 0x48
     1dc:	e59f1000 	ldr	r1, [pc]	; 1e4 <val34>
     1e0:	ea000000 	b	1e8 <next34>

000001e4 <val34>:
     1e4:	1099d7fe 	.word	0x1099d7fe

000001e8 <next34>:
     1e8:	e50d104c 	str	r1, [sp, #-76]	; 0x4c
     1ec:	e59f1000 	ldr	r1, [pc]	; 1f4 <val35>
     1f0:	ea000000 	b	1f8 <next35>

000001f4 <val35>:
     1f4:	efae1586 	.word	0xefae1586

000001f8 <next35>:
     1f8:	e50d1050 	str	r1, [sp, #-80]	; 0x50

000001fc <l1>:
     1fc:	e09c0a94 	umulls	r0, ip, r4, sl

00000200 <l2>:
     200:	e081279b 	umull	r2, r1, fp, r7

00000204 <l3>:
     204:	c0945b98 	umullsgt	r5, r4, r8, fp

00000208 <l4>:
     208:	7088929b 	umullvc	r9, r8, fp, r2

0000020c <l5>:
     20c:	e09e9492 	umulls	r9, lr, r2, r4

00000210 <l6>:
     210:	e086a493 	umull	sl, r6, r3, r4

00000214 <l7>:
     214:	e0853e96 	umull	r3, r5, r6, lr

00000218 <l8>:
     218:	4092a994 	umullsmi	sl, r2, r4, r9

0000021c <l9>:
     21c:	e093719a 	umulls	r7, r3, sl, r1

00000220 <l10>:
     220:	e0828a97 	umull	r8, r2, r7, sl

00000224 <l11>:
     224:	1089509c 	umullne	r5, r9, ip, r0

00000228 <l12>:
     228:	2096bc95 	umullscs	fp, r6, r5, ip

0000022c <l13>:
     22c:	708b5e91 	umullvc	r5, fp, r1, lr

00000230 <l14>:
     230:	e09b1590 	umulls	r1, fp, r0, r5

00000234 <l15>:
     234:	e08b3c96 	umull	r3, fp, r6, ip

00000238 <l16>:
     238:	7083ce99 	umullvc	ip, r3, r9, lr

0000023c <l17>:
     23c:	0092909e 	umullseq	r9, r2, lr, r0

00000240 <l18>:
     240:	e08c7693 	umull	r7, ip, r3, r6

00000244 <l19>:
     244:	e08e6b95 	umull	r6, lr, r5, fp

00000248 <l20>:
     248:	e0914292 	umulls	r4, r1, r2, r2

0000024c <l21>:
     24c:	a08b609a 	umullge	r6, fp, sl, r0

00000250 <l22>:
     250:	e0809392 	umull	r9, r0, r2, r3

00000254 <l23>:
     254:	3096c992 	umullscc	ip, r6, r2, r9

00000258 <l24>:
     258:	d097899b 	umullsle	r8, r7, fp, r9

0000025c <l25>:
     25c:	d088a299 	umullle	sl, r8, r9, r2

00000260 <l26>:
     260:	a0842b9b 	umullge	r2, r4, fp, fp

00000264 <l27>:
     264:	e0939498 	umulls	r9, r3, r8, r4

00000268 <l28>:
     268:	d0896097 	umullle	r6, r9, r7, r0

0000026c <l29>:
     26c:	e0926c98 	umulls	r6, r2, r8, ip

00000270 <l30>:
     270:	1093b795 	umullsne	fp, r3, r5, r7

00000274 <l31>:
     274:	7092c998 	umullsvc	ip, r2, r8, r9

00000278 <l32>:
     278:	b089b795 	umulllt	fp, r9, r5, r7

0000027c <l33>:
     27c:	e0953796 	umulls	r3, r5, r6, r7

00000280 <l34>:
     280:	e08ece97 	umull	ip, lr, r7, lr

00000284 <l35>:
     284:	e094e293 	umulls	lr, r4, r3, r2

00000288 <l36>:
     288:	808b3991 	umullhi	r3, fp, r1, r9

0000028c <l37>:
     28c:	109cec9b 	umullsne	lr, ip, fp, ip

00000290 <l38>:
     290:	e0965893 	umulls	r5, r6, r3, r8

00000294 <l39>:
     294:	e093eb94 	umulls	lr, r3, r4, fp

00000298 <l40>:
     298:	c08ce798 	umullgt	lr, ip, r8, r7

0000029c <l41>:
     29c:	20870995 	umullcs	r0, r7, r5, r9

000002a0 <l42>:
     2a0:	109ceb94 	umullsne	lr, ip, r4, fp

000002a4 <l43>:
     2a4:	e090cb91 	umulls	ip, r0, r1, fp

000002a8 <l44>:
     2a8:	2096a095 	umullscs	sl, r6, r5, r0

000002ac <l45>:
     2ac:	e09a1393 	umulls	r1, sl, r3, r3

000002b0 <l46>:
     2b0:	e0809598 	umull	r9, r0, r8, r5

000002b4 <l47>:
     2b4:	9092b791 	umullsls	fp, r2, r1, r7

000002b8 <l48>:
     2b8:	e0884491 	umull	r4, r8, r1, r4

000002bc <l49>:
     2bc:	d097409e 	umullsle	r4, r7, lr, r0

000002c0 <l50>:
     2c0:	e08a0a95 	umull	r0, sl, r5, sl

000002c4 <l51>:
     2c4:	e095e192 	umulls	lr, r5, r2, r1

000002c8 <l52>:
     2c8:	e0806192 	umull	r6, r0, r2, r1

000002cc <l53>:
     2cc:	2090ae91 	umullscs	sl, r0, r1, lr

000002d0 <l54>:
     2d0:	3082c59b 	umullcc	ip, r2, fp, r5

000002d4 <l55>:
     2d4:	b09a1797 	umullslt	r1, sl, r7, r7

000002d8 <l56>:
     2d8:	e08be093 	umull	lr, fp, r3, r0

000002dc <l57>:
     2dc:	e09e2294 	umulls	r2, lr, r4, r2

000002e0 <l58>:
     2e0:	b0893e96 	umulllt	r3, r9, r6, lr

000002e4 <l59>:
     2e4:	e0862697 	umull	r2, r6, r7, r6

000002e8 <l60>:
     2e8:	e0984793 	umulls	r4, r8, r3, r7

000002ec <l61>:
     2ec:	e0807e9a 	umull	r7, r0, sl, lr

000002f0 <l62>:
     2f0:	80837195 	umullhi	r7, r3, r5, r1

000002f4 <l63>:
     2f4:	209c9e9b 	umullscs	r9, ip, fp, lr

000002f8 <l64>:
     2f8:	709ea29c 	umullsvc	sl, lr, ip, r2

000002fc <l65>:
     2fc:	d08e5997 	umullle	r5, lr, r7, r9

00000300 <l66>:
     300:	e096429a 	umulls	r4, r6, sl, r2

00000304 <l67>:
     304:	d08e0c92 	umullle	r0, lr, r2, ip

00000308 <l68>:
     308:	20843298 	umullcs	r3, r4, r8, r2

0000030c <l69>:
     30c:	d095369b 	umullsle	r3, r5, fp, r6

00000310 <l70>:
     310:	e0930394 	umulls	r0, r3, r4, r3

00000314 <l71>:
     314:	808e5896 	umullhi	r5, lr, r6, r8

00000318 <l72>:
     318:	a09aeb9b 	umullsge	lr, sl, fp, fp

0000031c <l73>:
     31c:	e09ac29e 	umulls	ip, sl, lr, r2

00000320 <l74>:
     320:	10914193 	umullsne	r4, r1, r3, r1

00000324 <l75>:
     324:	4083e996 	umullmi	lr, r3, r6, r9

00000328 <l76>:
     328:	e084b596 	umull	fp, r4, r6, r5

0000032c <l77>:
     32c:	e0896093 	umull	r6, r9, r3, r0

00000330 <l78>:
     330:	e0984e9b 	umulls	r4, r8, fp, lr

00000334 <l79>:
     334:	b0925990 	umullslt	r5, r2, r0, r9

00000338 <l80>:
     338:	e09c1797 	umulls	r1, ip, r7, r7

0000033c <l81>:
     33c:	6085a194 	umullvs	sl, r5, r4, r1

00000340 <l82>:
     340:	20989694 	umullscs	r9, r8, r4, r6

00000344 <l83>:
     344:	e08e9b91 	umull	r9, lr, r1, fp

00000348 <l84>:
     348:	e08a5799 	umull	r5, sl, r9, r7

0000034c <l85>:
     34c:	6091029c 	umullsvs	r0, r1, ip, r2

00000350 <l86>:
     350:	20937c9e 	umullscs	r7, r3, lr, ip

00000354 <l87>:
     354:	d09ac196 	umullsle	ip, sl, r6, r1

00000358 <l88>:
     358:	9085e09b 	umullls	lr, r5, fp, r0

0000035c <l89>:
     35c:	00931296 	umullseq	r1, r3, r6, r2

00000360 <l90>:
     360:	c0901493 	umullsgt	r1, r0, r3, r4

00000364 <l91>:
     364:	e097a894 	umulls	sl, r7, r4, r8

00000368 <l92>:
     368:	e096b29c 	umulls	fp, r6, ip, r2

0000036c <l93>:
     36c:	e08ae499 	umull	lr, sl, r9, r4

00000370 <l94>:
     370:	d08c9493 	umullle	r9, ip, r3, r4

00000374 <l95>:
     374:	e084e797 	umull	lr, r4, r7, r7

00000378 <l96>:
     378:	809b9598 	umullshi	r9, fp, r8, r5

0000037c <l97>:
     37c:	30838792 	umullcc	r8, r3, r2, r7

00000380 <l98>:
     380:	e080679e 	umull	r6, r0, lr, r7

00000384 <l99>:
     384:	908cae9e 	umullls	sl, ip, lr, lr

00000388 <l100>:
     388:	e0947891 	umulls	r7, r4, r1, r8

0000038c <l101>:
     38c:	608c3990 	umullvs	r3, ip, r0, r9

00000390 <l102>:
     390:	c0862494 	umullgt	r2, r6, r4, r4

00000394 <l103>:
     394:	309a2293 	umullscc	r2, sl, r3, r2

00000398 <l104>:
     398:	e086b89a 	umull	fp, r6, sl, r8

0000039c <l105>:
     39c:	7083ba96 	umullvc	fp, r3, r6, sl

000003a0 <l106>:
     3a0:	b0969391 	umullslt	r9, r6, r1, r3

000003a4 <l107>:
     3a4:	c088c290 	umullgt	ip, r8, r0, r2

000003a8 <l108>:
     3a8:	20981795 	umullscs	r1, r8, r5, r7

000003ac <l109>:
     3ac:	e089e991 	umull	lr, r9, r1, r9

000003b0 <l110>:
     3b0:	c082ba9e 	umullgt	fp, r2, lr, sl

000003b4 <l111>:
     3b4:	e091eb9c 	umulls	lr, r1, ip, fp

000003b8 <l112>:
     3b8:	e097539a 	umulls	r5, r7, sl, r3

000003bc <l113>:
     3bc:	9099759c 	umullsls	r7, r9, ip, r5

000003c0 <l114>:
     3c0:	1098b593 	umullsne	fp, r8, r3, r5

000003c4 <l115>:
     3c4:	9085c393 	umullls	ip, r5, r3, r3

000003c8 <l116>:
     3c8:	70817690 	umullvc	r7, r1, r0, r6

000003cc <l117>:
     3cc:	e09e1893 	umulls	r1, lr, r3, r8

000003d0 <l118>:
     3d0:	a0837295 	umullge	r7, r3, r5, r2

000003d4 <l119>:
     3d4:	3081689b 	umullcc	r6, r1, fp, r8

000003d8 <l120>:
     3d8:	90980c97 	umullsls	r0, r8, r7, ip

000003dc <l121>:
     3dc:	e08a9895 	umull	r9, sl, r5, r8

000003e0 <l122>:
     3e0:	7094c490 	umullsvc	ip, r4, r0, r4

000003e4 <l123>:
     3e4:	7087e69c 	umullvc	lr, r7, ip, r6

000003e8 <l124>:
     3e8:	30851790 	umullcc	r1, r5, r0, r7

000003ec <l125>:
     3ec:	40961899 	umullsmi	r1, r6, r9, r8

000003f0 <l126>:
     3f0:	e0923491 	umulls	r3, r2, r1, r4

000003f4 <l127>:
     3f4:	d080ac93 	umullle	sl, r0, r3, ip

000003f8 <l128>:
     3f8:	d081519c 	umullle	r5, r1, ip, r1

000003fc <l129>:
     3fc:	509e1395 	umullspl	r1, lr, r5, r3

00000400 <l130>:
     400:	8098b59e 	umullshi	fp, r8, lr, r5

00000404 <l131>:
     404:	e09b6395 	umulls	r6, fp, r5, r3

00000408 <l132>:
     408:	e0835598 	umull	r5, r3, r8, r5

0000040c <l133>:
     40c:	d09ca69b 	umullsle	sl, ip, fp, r6

00000410 <l134>:
     410:	70993694 	umullsvc	r3, r9, r4, r6

00000414 <l135>:
     414:	e091ca93 	umulls	ip, r1, r3, sl

00000418 <l136>:
     418:	b09c109a 	umullslt	r1, ip, sl, r0

0000041c <l137>:
     41c:	90954e9c 	umullsls	r4, r5, ip, lr

00000420 <l138>:
     420:	e085039b 	umull	r0, r5, fp, r3

00000424 <l139>:
     424:	e09a2c97 	umulls	r2, sl, r7, ip

00000428 <l140>:
     428:	1088ae97 	umullne	sl, r8, r7, lr

0000042c <l141>:
     42c:	e09c6c9a 	umulls	r6, ip, sl, ip

00000430 <l142>:
     430:	e093209b 	umulls	r2, r3, fp, r0

00000434 <l143>:
     434:	e0973094 	umulls	r3, r7, r4, r0

00000438 <l144>:
     438:	b0818099 	umulllt	r8, r1, r9, r0

0000043c <l145>:
     43c:	e08a9190 	umull	r9, sl, r0, r1

00000440 <l146>:
     440:	80967891 	umullshi	r7, r6, r1, r8

00000444 <l147>:
     444:	e085e497 	umull	lr, r5, r7, r4

00000448 <l148>:
     448:	4092ae93 	umullsmi	sl, r2, r3, lr

0000044c <l149>:
     44c:	d0898e92 	umullle	r8, r9, r2, lr

00000450 <l150>:
     450:	008ba599 	umulleq	sl, fp, r9, r5

00000454 <l151>:
     454:	e080e995 	umull	lr, r0, r5, r9

00000458 <l152>:
     458:	c08e5a90 	umullgt	r5, lr, r0, sl

0000045c <l153>:
     45c:	609bee9a 	umullsvs	lr, fp, sl, lr

00000460 <l154>:
     460:	60987591 	umullsvs	r7, r8, r1, r5

00000464 <l155>:
     464:	e0961094 	umulls	r1, r6, r4, r0

00000468 <l156>:
     468:	c0908593 	umullsgt	r8, r0, r3, r5

0000046c <l157>:
     46c:	c0995296 	umullsgt	r5, r9, r6, r2

00000470 <l158>:
     470:	e094069a 	umulls	r0, r4, sl, r6

00000474 <l159>:
     474:	40882493 	umullmi	r2, r8, r3, r4

00000478 <l160>:
     478:	e09ba695 	umulls	sl, fp, r5, r6

0000047c <l161>:
     47c:	709ba59e 	umullsvc	sl, fp, lr, r5

00000480 <l162>:
     480:	e090bc96 	umulls	fp, r0, r6, ip

00000484 <l163>:
     484:	2088ea96 	umullcs	lr, r8, r6, sl

00000488 <l164>:
     488:	5081ec94 	umullpl	lr, r1, r4, ip

0000048c <l165>:
     48c:	608c5693 	umullvs	r5, ip, r3, r6

00000490 <l166>:
     490:	e08acc90 	umull	ip, sl, r0, ip

00000494 <l167>:
     494:	e0947093 	umulls	r7, r4, r3, r0

00000498 <l168>:
     498:	c098bb94 	umullsgt	fp, r8, r4, fp

0000049c <l169>:
     49c:	e08a5293 	umull	r5, sl, r3, r2

000004a0 <l170>:
     4a0:	d082a39b 	umullle	sl, r2, fp, r3

000004a4 <l171>:
     4a4:	9096bb9e 	umullsls	fp, r6, lr, fp

000004a8 <l172>:
     4a8:	e08e4e9b 	umull	r4, lr, fp, lr

000004ac <l173>:
     4ac:	40956592 	umullsmi	r6, r5, r2, r5

000004b0 <l174>:
     4b0:	60997194 	umullsvs	r7, r9, r4, r1

000004b4 <l175>:
     4b4:	60917993 	umullsvs	r7, r1, r3, r9

000004b8 <l176>:
     4b8:	a09b2496 	umullsge	r2, fp, r6, r4

000004bc <l177>:
     4bc:	5098c59b 	umullspl	ip, r8, fp, r5

000004c0 <l178>:
     4c0:	e09eb295 	umulls	fp, lr, r5, r2

000004c4 <l179>:
     4c4:	1094539b 	umullsne	r5, r4, fp, r3

000004c8 <l180>:
     4c8:	a08c1499 	umullge	r1, ip, r9, r4

000004cc <l181>:
     4cc:	e095bc9c 	umulls	fp, r5, ip, ip

000004d0 <l182>:
     4d0:	a0870c92 	umullge	r0, r7, r2, ip

000004d4 <l183>:
     4d4:	e09b0898 	umulls	r0, fp, r8, r8

000004d8 <l184>:
     4d8:	d0908293 	umullsle	r8, r0, r3, r2

000004dc <l185>:
     4dc:	508ea292 	umullpl	sl, lr, r2, r2

000004e0 <l186>:
     4e0:	208a8993 	umullcs	r8, sl, r3, r9

000004e4 <l187>:
     4e4:	e093a190 	umulls	sl, r3, r0, r1

000004e8 <l188>:
     4e8:	e0890b93 	umull	r0, r9, r3, fp

000004ec <l189>:
     4ec:	7092ca90 	umullsvc	ip, r2, r0, sl

000004f0 <l190>:
     4f0:	e09ba99e 	umulls	sl, fp, lr, r9

000004f4 <l191>:
     4f4:	40960b9b 	umullsmi	r0, r6, fp, fp

000004f8 <l192>:
     4f8:	20960c91 	umullscs	r0, r6, r1, ip

000004fc <l193>:
     4fc:	a08a9791 	umullge	r9, sl, r1, r7

00000500 <l194>:
     500:	108ca191 	umullne	sl, ip, r1, r1

00000504 <l195>:
     504:	409c7a98 	umullsmi	r7, ip, r8, sl

00000508 <l196>:
     508:	c0832591 	umullgt	r2, r3, r1, r5

0000050c <l197>:
     50c:	009b3391 	umullseq	r3, fp, r1, r3

00000510 <l198>:
     510:	d0967c95 	umullsle	r7, r6, r5, ip

00000514 <l199>:
     514:	e0826097 	umull	r6, r2, r7, r0

00000518 <l200>:
     518:	5093c79e 	umullspl	ip, r3, lr, r7

0000051c <l201>:
     51c:	b090ec9c 	umullslt	lr, r0, ip, ip

00000520 <l202>:
     520:	609e3c96 	umullsvs	r3, lr, r6, ip

00000524 <l203>:
     524:	c09a4093 	umullsgt	r4, sl, r3, r0

00000528 <l204>:
     528:	90841a99 	umullls	r1, r4, r9, sl

0000052c <l205>:
     52c:	e090369c 	umulls	r3, r0, ip, r6

00000530 <l206>:
     530:	60850999 	umullvs	r0, r5, r9, r9

00000534 <l207>:
     534:	708ea891 	umullvc	sl, lr, r1, r8

00000538 <l208>:
     538:	7091c496 	umullsvc	ip, r1, r6, r4

0000053c <l209>:
     53c:	e0841199 	umull	r1, r4, r9, r1

00000540 <l210>:
     540:	809b7893 	umullshi	r7, fp, r3, r8

00000544 <l211>:
     544:	e08a7196 	umull	r7, sl, r6, r1

00000548 <l212>:
     548:	40918c97 	umullsmi	r8, r1, r7, ip

0000054c <l213>:
     54c:	a08a5191 	umullge	r5, sl, r1, r1

00000550 <l214>:
     550:	e0971699 	umulls	r1, r7, r9, r6

00000554 <l215>:
     554:	4090e79b 	umullsmi	lr, r0, fp, r7

00000558 <l216>:
     558:	9092ea9c 	umullsls	lr, r2, ip, sl

0000055c <l217>:
     55c:	e0980496 	umulls	r0, r8, r6, r4

00000560 <l218>:
     560:	00959297 	umullseq	r9, r5, r7, r2

00000564 <l219>:
     564:	e09a3e90 	umulls	r3, sl, r0, lr

00000568 <l220>:
     568:	a09a6791 	umullsge	r6, sl, r1, r7

0000056c <l221>:
     56c:	e093a799 	umulls	sl, r3, r9, r7

00000570 <l222>:
     570:	a0838a9a 	umullge	r8, r3, sl, sl

00000574 <l223>:
     574:	e08ae293 	umull	lr, sl, r3, r2

00000578 <l224>:
     578:	e09e6890 	umulls	r6, lr, r0, r8

0000057c <l225>:
     57c:	90921c95 	umullsls	r1, r2, r5, ip

00000580 <l226>:
     580:	60875c9b 	umullvs	r5, r7, fp, ip

00000584 <l227>:
     584:	109e1e96 	umullsne	r1, lr, r6, lr

00000588 <l228>:
     588:	00879998 	umulleq	r9, r7, r8, r9

0000058c <l229>:
     58c:	9080e49b 	umullls	lr, r0, fp, r4

00000590 <l230>:
     590:	e0949795 	umulls	r9, r4, r5, r7

00000594 <l231>:
     594:	e08b4499 	umull	r4, fp, r9, r4

00000598 <l232>:
     598:	708ea097 	umullvc	sl, lr, r7, r0

0000059c <l233>:
     59c:	808a099e 	umullhi	r0, sl, lr, r9

000005a0 <l234>:
     5a0:	e098ae91 	umulls	sl, r8, r1, lr

000005a4 <l235>:
     5a4:	c08a6b9e 	umullgt	r6, sl, lr, fp

000005a8 <l236>:
     5a8:	50995794 	umullspl	r5, r9, r4, r7

000005ac <l237>:
     5ac:	70925796 	umullsvc	r5, r2, r6, r7

000005b0 <l238>:
     5b0:	e099be98 	umulls	fp, r9, r8, lr

000005b4 <l239>:
     5b4:	0086b293 	umulleq	fp, r6, r3, r2

000005b8 <l240>:
     5b8:	e08b1395 	umull	r1, fp, r5, r3

000005bc <l241>:
     5bc:	e096b395 	umulls	fp, r6, r5, r3

000005c0 <l242>:
     5c0:	308e5797 	umullcc	r5, lr, r7, r7

000005c4 <l243>:
     5c4:	e087b79c 	umull	fp, r7, ip, r7

000005c8 <l244>:
     5c8:	e0879896 	umull	r9, r7, r6, r8

000005cc <l245>:
     5cc:	e0864390 	umull	r4, r6, r0, r3

000005d0 <l246>:
     5d0:	e08bc191 	umull	ip, fp, r1, r1

000005d4 <l247>:
     5d4:	c08a6e9c 	umullgt	r6, sl, ip, lr

000005d8 <l248>:
     5d8:	b081339c 	umulllt	r3, r1, ip, r3

000005dc <l249>:
     5dc:	e086ab9c 	umull	sl, r6, ip, fp

000005e0 <l250>:
     5e0:	408ec394 	umullmi	ip, lr, r4, r3

000005e4 <l251>:
     5e4:	e098e59b 	umulls	lr, r8, fp, r5

000005e8 <l252>:
     5e8:	4082a291 	umullmi	sl, r2, r1, r2

000005ec <l253>:
     5ec:	e089649c 	umull	r6, r9, ip, r4

000005f0 <l254>:
     5f0:	e08a5593 	umull	r5, sl, r3, r5

000005f4 <l255>:
     5f4:	e084c797 	umull	ip, r4, r7, r7

000005f8 <l256>:
     5f8:	80963194 	umullshi	r3, r6, r4, r1

000005fc <l257>:
     5fc:	d0968b94 	umullsle	r8, r6, r4, fp

00000600 <l258>:
     600:	208ec292 	umullcs	ip, lr, r2, r2

00000604 <l259>:
     604:	90885493 	umullls	r5, r8, r3, r4

00000608 <l260>:
     608:	e0896697 	umull	r6, r9, r7, r6

0000060c <l261>:
     60c:	e096529e 	umulls	r5, r6, lr, r2

00000610 <l262>:
     610:	109ec798 	umullsne	ip, lr, r8, r7

00000614 <l263>:
     614:	7092cb94 	umullsvc	ip, r2, r4, fp

00000618 <l264>:
     618:	e084a891 	umull	sl, r4, r1, r8

0000061c <l265>:
     61c:	608aec94 	umullvs	lr, sl, r4, ip

00000620 <l266>:
     620:	00972491 	umullseq	r2, r7, r1, r4

00000624 <l267>:
     624:	d0927894 	umullsle	r7, r2, r4, r8

00000628 <l268>:
     628:	e080b39e 	umull	fp, r0, lr, r3

0000062c <l269>:
     62c:	e095ae92 	umulls	sl, r5, r2, lr

00000630 <l270>:
     630:	50890193 	umullpl	r0, r9, r3, r1

00000634 <l271>:
     634:	809c4497 	umullshi	r4, ip, r7, r4

00000638 <l272>:
     638:	d0808699 	umullle	r8, r0, r9, r6

0000063c <l273>:
     63c:	e088cc9e 	umull	ip, r8, lr, ip

00000640 <l274>:
     640:	00906291 	umullseq	r6, r0, r1, r2

00000644 <l275>:
     644:	e0809c95 	umull	r9, r0, r5, ip

00000648 <l276>:
     648:	109b809a 	umullsne	r8, fp, sl, r0

0000064c <l277>:
     64c:	a0943290 	umullsge	r3, r4, r0, r2

00000650 <l278>:
     650:	e0918197 	umulls	r8, r1, r7, r1

00000654 <l279>:
     654:	e098a799 	umulls	sl, r8, r9, r7

00000658 <l280>:
     658:	e0873a9c 	umull	r3, r7, ip, sl

0000065c <l281>:
     65c:	2083079a 	umullcs	r0, r3, sl, r7

00000660 <l282>:
     660:	e087a693 	umull	sl, r7, r3, r6

00000664 <l283>:
     664:	2085a391 	umullcs	sl, r5, r1, r3

00000668 <l284>:
     668:	608cee9b 	umullvs	lr, ip, fp, lr

0000066c <l285>:
     66c:	d09a9392 	umullsle	r9, sl, r2, r3

00000670 <l286>:
     670:	a08c599e 	umullge	r5, ip, lr, r9

00000674 <l287>:
     674:	e089a993 	umull	sl, r9, r3, r9

00000678 <l288>:
     678:	d08be099 	umullle	lr, fp, r9, r0

0000067c <l289>:
     67c:	e096c79b 	umulls	ip, r6, fp, r7

00000680 <l290>:
     680:	e0943191 	umulls	r3, r4, r1, r1

00000684 <l291>:
     684:	608bc296 	umullvs	ip, fp, r6, r2

00000688 <l292>:
     688:	80873b91 	umullhi	r3, r7, r1, fp

0000068c <l293>:
     68c:	d0974e96 	umullsle	r4, r7, r6, lr

00000690 <l294>:
     690:	e08e5496 	umull	r5, lr, r6, r4

00000694 <l295>:
     694:	6097a89e 	umullsvs	sl, r7, lr, r8

00000698 <l296>:
     698:	9087bb9c 	umullls	fp, r7, ip, fp

0000069c <l297>:
     69c:	e086a299 	umull	sl, r6, r9, r2

000006a0 <l298>:
     6a0:	e084749c 	umull	r7, r4, ip, r4

000006a4 <l299>:
     6a4:	e0847196 	umull	r7, r4, r6, r1

000006a8 <l300>:
     6a8:	a0897092 	umullge	r7, r9, r2, r0

000006ac <l301>:
     6ac:	408c459a 	umullmi	r4, ip, sl, r5

000006b0 <l302>:
     6b0:	10861494 	umullne	r1, r6, r4, r4

000006b4 <l303>:
     6b4:	a082099c 	umullge	r0, r2, ip, r9

000006b8 <l304>:
     6b8:	a0810c9a 	umullge	r0, r1, sl, ip

000006bc <l305>:
     6bc:	e0903691 	umulls	r3, r0, r1, r6

000006c0 <l306>:
     6c0:	e08bc098 	umull	ip, fp, r8, r0

000006c4 <l307>:
     6c4:	e085129b 	umull	r1, r5, fp, r2

000006c8 <l308>:
     6c8:	20871499 	umullcs	r1, r7, r9, r4

000006cc <l309>:
     6cc:	9096979c 	umullsls	r9, r6, ip, r7

000006d0 <l310>:
     6d0:	50967a95 	umullspl	r7, r6, r5, sl

000006d4 <l311>:
     6d4:	a09a1092 	umullsge	r1, sl, r2, r0

000006d8 <l312>:
     6d8:	e085679e 	umull	r6, r5, lr, r7

000006dc <l313>:
     6dc:	4089a495 	umullmi	sl, r9, r5, r4

000006e0 <l314>:
     6e0:	60967394 	umullsvs	r7, r6, r4, r3

000006e4 <l315>:
     6e4:	e085c399 	umull	ip, r5, r9, r3

000006e8 <l316>:
     6e8:	30930692 	umullscc	r0, r3, r2, r6

000006ec <l317>:
     6ec:	e084a996 	umull	sl, r4, r6, r9

000006f0 <l318>:
     6f0:	b094e79c 	umullslt	lr, r4, ip, r7

000006f4 <l319>:
     6f4:	7090ae9e 	umullsvc	sl, r0, lr, lr

000006f8 <l320>:
     6f8:	c0893698 	umullgt	r3, r9, r8, r6

000006fc <l321>:
     6fc:	c087c793 	umullgt	ip, r7, r3, r7

00000700 <l322>:
     700:	20962497 	umullscs	r2, r6, r7, r4

00000704 <l323>:
     704:	208b6097 	umullcs	r6, fp, r7, r0

00000708 <l324>:
     708:	e0819797 	umull	r9, r1, r7, r7

0000070c <l325>:
     70c:	e0889e92 	umull	r9, r8, r2, lr

00000710 <l326>:
     710:	e086a79b 	umull	sl, r6, fp, r7

00000714 <l327>:
     714:	e0920395 	umulls	r0, r2, r5, r3

00000718 <l328>:
     718:	e09b0293 	umulls	r0, fp, r3, r2

0000071c <l329>:
     71c:	c099ce94 	umullsgt	ip, r9, r4, lr

00000720 <l330>:
     720:	209b3798 	umullscs	r3, fp, r8, r7

00000724 <l331>:
     724:	e09e0096 	umulls	r0, lr, r6, r0

00000728 <l332>:
     728:	b095999e 	umullslt	r9, r5, lr, r9

0000072c <l333>:
     72c:	60991497 	umullsvs	r1, r9, r7, r4

00000730 <l334>:
     730:	50906097 	umullspl	r6, r0, r7, r0

00000734 <l335>:
     734:	e081c792 	umull	ip, r1, r2, r7

00000738 <l336>:
     738:	e0880a92 	umull	r0, r8, r2, sl

0000073c <l337>:
     73c:	20897494 	umullcs	r7, r9, r4, r4

00000740 <l338>:
     740:	e0810b9b 	umull	r0, r1, fp, fp

00000744 <l339>:
     744:	e0820397 	umull	r0, r2, r7, r3

00000748 <l340>:
     748:	e09c0a93 	umulls	r0, ip, r3, sl

0000074c <l341>:
     74c:	609cb490 	umullsvs	fp, ip, r0, r4

00000750 <l342>:
     750:	a08a9c9e 	umullge	r9, sl, lr, ip

00000754 <l343>:
     754:	c08e1694 	umullgt	r1, lr, r4, r6

00000758 <l344>:
     758:	1089b692 	umullne	fp, r9, r2, r6

0000075c <l345>:
     75c:	e096aa94 	umulls	sl, r6, r4, sl

00000760 <l346>:
     760:	e08e8692 	umull	r8, lr, r2, r6

00000764 <l347>:
     764:	c096909c 	umullsgt	r9, r6, ip, r0

00000768 <l348>:
     768:	0098b19a 	umullseq	fp, r8, sl, r1

0000076c <l349>:
     76c:	e09a6093 	umulls	r6, sl, r3, r0

00000770 <l350>:
     770:	108e6994 	umullne	r6, lr, r4, r9

00000774 <l351>:
     774:	a098c791 	umullsge	ip, r8, r1, r7

00000778 <l352>:
     778:	e0894792 	umull	r4, r9, r2, r7

0000077c <l353>:
     77c:	e08c2c98 	umull	r2, ip, r8, ip

00000780 <l354>:
     780:	0086bb97 	umulleq	fp, r6, r7, fp

00000784 <l355>:
     784:	3081299c 	umullcc	r2, r1, ip, r9

00000788 <l356>:
     788:	e09bc39e 	umulls	ip, fp, lr, r3

0000078c <l357>:
     78c:	9084c698 	umullls	ip, r4, r8, r6

00000790 <l358>:
     790:	d081ea99 	umullle	lr, r1, r9, sl

00000794 <l359>:
     794:	e09ba591 	umulls	sl, fp, r1, r5

00000798 <l360>:
     798:	e08ca898 	umull	sl, ip, r8, r8

0000079c <l361>:
     79c:	c08e339b 	umullgt	r3, lr, fp, r3

000007a0 <l362>:
     7a0:	e085e990 	umull	lr, r5, r0, r9

000007a4 <l363>:
     7a4:	b0997492 	umullslt	r7, r9, r2, r4

000007a8 <l364>:
     7a8:	708a2198 	umullvc	r2, sl, r8, r1

000007ac <l365>:
     7ac:	e0982291 	umulls	r2, r8, r1, r2

000007b0 <l366>:
     7b0:	e0898e9a 	umull	r8, r9, sl, lr

000007b4 <l367>:
     7b4:	90965291 	umullsls	r5, r6, r1, r2

000007b8 <l368>:
     7b8:	e0842197 	umull	r2, r4, r7, r1

000007bc <l369>:
     7bc:	4087989a 	umullmi	r9, r7, sl, r8

000007c0 <l370>:
     7c0:	e09b2b95 	umulls	r2, fp, r5, fp

000007c4 <l371>:
     7c4:	509b8a92 	umullspl	r8, fp, r2, sl

000007c8 <l372>:
     7c8:	c0809098 	umullgt	r9, r0, r8, r0

000007cc <l373>:
     7cc:	e09a8e91 	umulls	r8, sl, r1, lr

000007d0 <l374>:
     7d0:	a097c093 	umullsge	ip, r7, r3, r0

000007d4 <l375>:
     7d4:	0099e996 	umullseq	lr, r9, r6, r9

000007d8 <l376>:
     7d8:	108a4c99 	umullne	r4, sl, r9, ip

000007dc <l377>:
     7dc:	e082bb96 	umull	fp, r2, r6, fp

000007e0 <l378>:
     7e0:	e09a3098 	umulls	r3, sl, r8, r0

000007e4 <l379>:
     7e4:	2085179c 	umullcs	r1, r5, ip, r7

000007e8 <l380>:
     7e8:	c0920e9c 	umullsgt	r0, r2, ip, lr

000007ec <l381>:
     7ec:	10931992 	umullsne	r1, r3, r2, r9

000007f0 <l382>:
     7f0:	609bce94 	umullsvs	ip, fp, r4, lr

000007f4 <l383>:
     7f4:	e08c1199 	umull	r1, ip, r9, r1

000007f8 <l384>:
     7f8:	708a549c 	umullvc	r5, sl, ip, r4

000007fc <l385>:
     7fc:	e08a9494 	umull	r9, sl, r4, r4

00000800 <l386>:
     800:	a084e996 	umullge	lr, r4, r6, r9

00000804 <l387>:
     804:	5080bb9a 	umullpl	fp, r0, sl, fp

00000808 <l388>:
     808:	e0926291 	umulls	r6, r2, r1, r2

0000080c <l389>:
     80c:	8098b099 	umullshi	fp, r8, r9, r0

00000810 <l390>:
     810:	90884590 	umullls	r4, r8, r0, r5

00000814 <l391>:
     814:	10860a91 	umullne	r0, r6, r1, sl

00000818 <l392>:
     818:	7083e999 	umullvc	lr, r3, r9, r9

0000081c <l393>:
     81c:	20982a90 	umullscs	r2, r8, r0, sl

00000820 <l394>:
     820:	e09e5798 	umulls	r5, lr, r8, r7

00000824 <l395>:
     824:	d0909e97 	umullsle	r9, r0, r7, lr

00000828 <l396>:
     828:	e08c8b92 	umull	r8, ip, r2, fp

0000082c <l397>:
     82c:	d0926991 	umullsle	r6, r2, r1, r9

00000830 <l398>:
     830:	8091cb93 	umullshi	ip, r1, r3, fp

00000834 <l399>:
     834:	50995191 	umullspl	r5, r9, r1, r1

00000838 <l400>:
     838:	e0970893 	umulls	r0, r7, r3, r8

0000083c <l401>:
     83c:	0099b390 	umullseq	fp, r9, r0, r3

00000840 <l402>:
     840:	20953892 	umullscs	r3, r5, r2, r8

00000844 <l403>:
     844:	9097e299 	umullsls	lr, r7, r9, r2

00000848 <l404>:
     848:	5095a696 	umullspl	sl, r5, r6, r6

0000084c <l405>:
     84c:	1083c895 	umullne	ip, r3, r5, r8

00000850 <l406>:
     850:	8092899a 	umullshi	r8, r2, sl, r9

00000854 <l407>:
     854:	e09e339c 	umulls	r3, lr, ip, r3

00000858 <l408>:
     858:	608c6194 	umullvs	r6, ip, r4, r1

0000085c <l409>:
     85c:	e08b509a 	umull	r5, fp, sl, r0

00000860 <l410>:
     860:	2092049e 	umullscs	r0, r2, lr, r4

00000864 <l411>:
     864:	e08ea296 	umull	sl, lr, r6, r2

00000868 <l412>:
     868:	e095229a 	umulls	r2, r5, sl, r2

0000086c <l413>:
     86c:	609bab91 	umullsvs	sl, fp, r1, fp

00000870 <l414>:
     870:	e0879398 	umull	r9, r7, r8, r3

00000874 <l415>:
     874:	e097e496 	umulls	lr, r7, r6, r4

00000878 <l416>:
     878:	d09b599a 	umullsle	r5, fp, sl, r9

0000087c <l417>:
     87c:	309e769b 	umullscc	r7, lr, fp, r6

00000880 <l418>:
     880:	80979098 	umullshi	r9, r7, r8, r0

00000884 <l419>:
     884:	e0873e92 	umull	r3, r7, r2, lr

00000888 <l420>:
     888:	e0802895 	umull	r2, r0, r5, r8

0000088c <l421>:
     88c:	90845198 	umullls	r5, r4, r8, r1

00000890 <l422>:
     890:	80984992 	umullshi	r4, r8, r2, r9

00000894 <l423>:
     894:	809b6a99 	umullshi	r6, fp, r9, sl

00000898 <l424>:
     898:	e085b093 	umull	fp, r5, r3, r0

0000089c <l425>:
     89c:	20824e91 	umullcs	r4, r2, r1, lr

000008a0 <l426>:
     8a0:	10870a91 	umullne	r0, r7, r1, sl

000008a4 <l427>:
     8a4:	e094ce95 	umulls	ip, r4, r5, lr

000008a8 <l428>:
     8a8:	70992294 	umullsvc	r2, r9, r4, r2

000008ac <l429>:
     8ac:	e0864a91 	umull	r4, r6, r1, sl

000008b0 <l430>:
     8b0:	40949496 	umullsmi	r9, r4, r6, r4

000008b4 <l431>:
     8b4:	0087c295 	umulleq	ip, r7, r5, r2

000008b8 <l432>:
     8b8:	109ec492 	umullsne	ip, lr, r2, r4

000008bc <l433>:
     8bc:	e08b7592 	umull	r7, fp, r2, r5

000008c0 <l434>:
     8c0:	b09aca94 	umullslt	ip, sl, r4, sl

000008c4 <l435>:
     8c4:	3091c492 	umullscc	ip, r1, r2, r4

000008c8 <l436>:
     8c8:	908a8e94 	umullls	r8, sl, r4, lr

000008cc <l437>:
     8cc:	d0826799 	umullle	r6, r2, r9, r7

000008d0 <l438>:
     8d0:	509c9993 	umullspl	r9, ip, r3, r9

000008d4 <l439>:
     8d4:	a080b59e 	umullge	fp, r0, lr, r5

000008d8 <l440>:
     8d8:	e09b1599 	umulls	r1, fp, r9, r5

000008dc <l441>:
     8dc:	e0812e93 	umull	r2, r1, r3, lr

000008e0 <l442>:
     8e0:	d0829a94 	umullle	r9, r2, r4, sl

000008e4 <l443>:
     8e4:	009a9490 	umullseq	r9, sl, r0, r4

000008e8 <l444>:
     8e8:	e08c769e 	umull	r7, ip, lr, r6

000008ec <l445>:
     8ec:	c097a299 	umullsgt	sl, r7, r9, r2

000008f0 <l446>:
     8f0:	3080e196 	umullcc	lr, r0, r6, r1

000008f4 <l447>:
     8f4:	e0808c93 	umull	r8, r0, r3, ip

000008f8 <l448>:
     8f8:	e094ab98 	umulls	sl, r4, r8, fp

000008fc <l449>:
     8fc:	9091c69b 	umullsls	ip, r1, fp, r6

00000900 <l450>:
     900:	e0813b94 	umull	r3, r1, r4, fp

00000904 <l451>:
     904:	e0956a9b 	umulls	r6, r5, fp, sl

00000908 <l452>:
     908:	e088e895 	umull	lr, r8, r5, r8

0000090c <l453>:
     90c:	e092e896 	umulls	lr, r2, r6, r8

00000910 <l454>:
     910:	a091a899 	umullsge	sl, r1, r9, r8

00000914 <l455>:
     914:	8099269a 	umullshi	r2, r9, sl, r6

00000918 <l456>:
     918:	e080c196 	umull	ip, r0, r6, r1

0000091c <l457>:
     91c:	e0849990 	umull	r9, r4, r0, r9

00000920 <l458>:
     920:	90991a9c 	umullsls	r1, r9, ip, sl

00000924 <l459>:
     924:	908a7c99 	umullls	r7, sl, r9, ip

00000928 <l460>:
     928:	e092bc90 	umulls	fp, r2, r0, ip

0000092c <l461>:
     92c:	10865a98 	umullne	r5, r6, r8, sl

00000930 <l462>:
     930:	e09b8a9e 	umulls	r8, fp, lr, sl

00000934 <l463>:
     934:	e0943c9c 	umulls	r3, r4, ip, ip

00000938 <l464>:
     938:	3085a494 	umullcc	sl, r5, r4, r4

0000093c <l465>:
     93c:	a0836c9e 	umullge	r6, r3, lr, ip

00000940 <l466>:
     940:	8092c096 	umullshi	ip, r2, r6, r0

00000944 <l467>:
     944:	e0878396 	umull	r8, r7, r6, r3

00000948 <l468>:
     948:	e085739e 	umull	r7, r5, lr, r3

0000094c <l469>:
     94c:	a084b390 	umullge	fp, r4, r0, r3

00000950 <l470>:
     950:	60886b94 	umullvs	r6, r8, r4, fp

00000954 <l471>:
     954:	2082ca9a 	umullcs	ip, r2, sl, sl

00000958 <l472>:
     958:	a08b2497 	umullge	r2, fp, r7, r4

0000095c <l473>:
     95c:	1087229c 	umullne	r2, r7, ip, r2

00000960 <l474>:
     960:	e080199e 	umull	r1, r0, lr, r9

00000964 <l475>:
     964:	70885197 	umullvc	r5, r8, r7, r1

00000968 <l476>:
     968:	908b9593 	umullls	r9, fp, r3, r5

0000096c <l477>:
     96c:	c0983991 	umullsgt	r3, r8, r1, r9

00000970 <l478>:
     970:	e0876492 	umull	r6, r7, r2, r4

00000974 <l479>:
     974:	d09cbe94 	umullsle	fp, ip, r4, lr

00000978 <l480>:
     978:	208bec99 	umullcs	lr, fp, r9, ip

0000097c <l481>:
     97c:	e09e3c97 	umulls	r3, lr, r7, ip

00000980 <l482>:
     980:	e08e4696 	umull	r4, lr, r6, r6

00000984 <l483>:
     984:	e0987c9a 	umulls	r7, r8, sl, ip

00000988 <l484>:
     988:	d0971290 	umullsle	r1, r7, r0, r2

0000098c <l485>:
     98c:	e0828893 	umull	r8, r2, r3, r8

00000990 <l486>:
     990:	3099e597 	umullscc	lr, r9, r7, r5

00000994 <l487>:
     994:	80874e99 	umullhi	r4, r7, r9, lr

00000998 <l488>:
     998:	30914398 	umullscc	r4, r1, r8, r3

0000099c <l489>:
     99c:	b0853c98 	umulllt	r3, r5, r8, ip

000009a0 <l490>:
     9a0:	e09b4393 	umulls	r4, fp, r3, r3

000009a4 <l491>:
     9a4:	e0951997 	umulls	r1, r5, r7, r9

000009a8 <l492>:
     9a8:	e0849992 	umull	r9, r4, r2, r9

000009ac <l493>:
     9ac:	e0957899 	umulls	r7, r5, r9, r8

000009b0 <l494>:
     9b0:	e08e9993 	umull	r9, lr, r3, r9

000009b4 <l495>:
     9b4:	9083c99e 	umullls	ip, r3, lr, r9

000009b8 <l496>:
     9b8:	508c5694 	umullpl	r5, ip, r4, r6

000009bc <l497>:
     9bc:	e0961b90 	umulls	r1, r6, r0, fp

000009c0 <l498>:
     9c0:	80810399 	umullhi	r0, r1, r9, r3

000009c4 <l499>:
     9c4:	90879896 	umullls	r9, r7, r6, r8

000009c8 <l500>:
     9c8:	b085149b 	umulllt	r1, r5, fp, r4

000009cc <l501>:
     9cc:	e085029a 	umull	r0, r5, sl, r2

000009d0 <l502>:
     9d0:	e0801096 	umull	r1, r0, r6, r0

000009d4 <l503>:
     9d4:	d0835794 	umullle	r5, r3, r4, r7

000009d8 <l504>:
     9d8:	b088c59e 	umulllt	ip, r8, lr, r5

000009dc <l505>:
     9dc:	e08ae598 	umull	lr, sl, r8, r5

000009e0 <l506>:
     9e0:	e0889c93 	umull	r9, r8, r3, ip

000009e4 <l507>:
     9e4:	c0839990 	umullgt	r9, r3, r0, r9

000009e8 <l508>:
     9e8:	e09eac94 	umulls	sl, lr, r4, ip

000009ec <l509>:
     9ec:	e08c7695 	umull	r7, ip, r5, r6

000009f0 <l510>:
     9f0:	50964e95 	umullspl	r4, r6, r5, lr

000009f4 <l511>:
     9f4:	a0828297 	umullge	r8, r2, r7, r2

000009f8 <l512>:
     9f8:	309a0a9e 	umullscc	r0, sl, lr, sl

000009fc <l513>:
     9fc:	d0894a9b 	umullle	r4, r9, fp, sl

00000a00 <l514>:
     a00:	1088189c 	umullne	r1, r8, ip, r8

00000a04 <l515>:
     a04:	a0998292 	umullsge	r8, r9, r2, r2

00000a08 <l516>:
     a08:	a08a9298 	umullge	r9, sl, r8, r2

00000a0c <l517>:
     a0c:	e085a093 	umull	sl, r5, r3, r0

00000a10 <l518>:
     a10:	308e3397 	umullcc	r3, lr, r7, r3

00000a14 <l519>:
     a14:	2091c692 	umullscs	ip, r1, r2, r6

00000a18 <l520>:
     a18:	508be295 	umullpl	lr, fp, r5, r2

00000a1c <l521>:
     a1c:	e0992b96 	umulls	r2, r9, r6, fp

00000a20 <l522>:
     a20:	e08ea895 	umull	sl, lr, r5, r8

00000a24 <l523>:
     a24:	70974299 	umullsvc	r4, r7, r9, r2

00000a28 <l524>:
     a28:	e0958699 	umulls	r8, r5, r9, r6

00000a2c <l525>:
     a2c:	e0859a9c 	umull	r9, r5, ip, sl

00000a30 <l526>:
     a30:	e0889e96 	umull	r9, r8, r6, lr

00000a34 <l527>:
     a34:	e09b1997 	umulls	r1, fp, r7, r9

00000a38 <l528>:
     a38:	e0972b9e 	umulls	r2, r7, lr, fp

00000a3c <l529>:
     a3c:	e0974995 	umulls	r4, r7, r5, r9

00000a40 <l530>:
     a40:	90860393 	umullls	r0, r6, r3, r3

00000a44 <l531>:
     a44:	50830e94 	umullpl	r0, r3, r4, lr

00000a48 <l532>:
     a48:	e09c7294 	umulls	r7, ip, r4, r2

00000a4c <l533>:
     a4c:	d0945593 	umullsle	r5, r4, r3, r5

00000a50 <l534>:
     a50:	e086c190 	umull	ip, r6, r0, r1

00000a54 <l535>:
     a54:	e080159e 	umull	r1, r0, lr, r5

00000a58 <l536>:
     a58:	108b4092 	umullne	r4, fp, r2, r0

00000a5c <l537>:
     a5c:	b09a0396 	umullslt	r0, sl, r6, r3

00000a60 <l538>:
     a60:	10959a9c 	umullsne	r9, r5, ip, sl

00000a64 <l539>:
     a64:	b0868494 	umulllt	r8, r6, r4, r4

00000a68 <l540>:
     a68:	e0873892 	umull	r3, r7, r2, r8

00000a6c <l541>:
     a6c:	00823c97 	umulleq	r3, r2, r7, ip

00000a70 <l542>:
     a70:	e0951999 	umulls	r1, r5, r9, r9

00000a74 <l543>:
     a74:	e090c094 	umulls	ip, r0, r4, r0

00000a78 <l544>:
     a78:	b0880593 	umulllt	r0, r8, r3, r5

00000a7c <l545>:
     a7c:	b093479e 	umullslt	r4, r3, lr, r7

00000a80 <l546>:
     a80:	e098c29a 	umulls	ip, r8, sl, r2

00000a84 <l547>:
     a84:	d094189a 	umullsle	r1, r4, sl, r8

00000a88 <l548>:
     a88:	9088ae9b 	umullls	sl, r8, fp, lr

00000a8c <l549>:
     a8c:	008e5090 	umulleq	r5, lr, r0, r0

00000a90 <l550>:
     a90:	c0847099 	umullgt	r7, r4, r9, r0

00000a94 <l551>:
     a94:	409e2890 	umullsmi	r2, lr, r0, r8

00000a98 <l552>:
     a98:	60957798 	umullsvs	r7, r5, r8, r7

00000a9c <l553>:
     a9c:	308cae97 	umullcc	sl, ip, r7, lr

00000aa0 <l554>:
     aa0:	e086c598 	umull	ip, r6, r8, r5

00000aa4 <l555>:
     aa4:	e099cc9b 	umulls	ip, r9, fp, ip

00000aa8 <l556>:
     aa8:	d0923198 	umullsle	r3, r2, r8, r1

00000aac <l557>:
     aac:	a09c7592 	umullsge	r7, ip, r2, r5

00000ab0 <l558>:
     ab0:	e0887891 	umull	r7, r8, r1, r8

00000ab4 <l559>:
     ab4:	809e5897 	umullshi	r5, lr, r7, r8

00000ab8 <l560>:
     ab8:	e086429e 	umull	r4, r6, lr, r2

00000abc <l561>:
     abc:	80930097 	umullshi	r0, r3, r7, r0

00000ac0 <l562>:
     ac0:	50863e90 	umullpl	r3, r6, r0, lr

00000ac4 <l563>:
     ac4:	e094a399 	umulls	sl, r4, r9, r3

00000ac8 <l564>:
     ac8:	208be493 	umullcs	lr, fp, r3, r4

00000acc <l565>:
     acc:	40827690 	umullmi	r7, r2, r0, r6

00000ad0 <l566>:
     ad0:	e0878395 	umull	r8, r7, r5, r3

00000ad4 <l567>:
     ad4:	e09e1294 	umulls	r1, lr, r4, r2

00000ad8 <l568>:
     ad8:	e0840791 	umull	r0, r4, r1, r7

00000adc <l569>:
     adc:	40967199 	umullsmi	r7, r6, r9, r1

00000ae0 <l570>:
     ae0:	e084589b 	umull	r5, r4, fp, r8

00000ae4 <l571>:
     ae4:	e099e897 	umulls	lr, r9, r7, r8

00000ae8 <l572>:
     ae8:	509c6094 	umullspl	r6, ip, r4, r0

00000aec <l573>:
     aec:	708a9e93 	umullvc	r9, sl, r3, lr

00000af0 <l574>:
     af0:	5094e491 	umullspl	lr, r4, r1, r4

00000af4 <l575>:
     af4:	90840997 	umullls	r0, r4, r7, r9

00000af8 <l576>:
     af8:	e08ac09b 	umull	ip, sl, fp, r0

00000afc <l577>:
     afc:	50808893 	umullpl	r8, r0, r3, r8

00000b00 <l578>:
     b00:	50813590 	umullpl	r3, r1, r0, r5

00000b04 <l579>:
     b04:	909c9792 	umullsls	r9, ip, r2, r7

00000b08 <l580>:
     b08:	80983c96 	umullshi	r3, r8, r6, ip

00000b0c <l581>:
     b0c:	70951092 	umullsvc	r1, r5, r2, r0

00000b10 <l582>:
     b10:	e089429c 	umull	r4, r9, ip, r2

00000b14 <l583>:
     b14:	e0820895 	umull	r0, r2, r5, r8

00000b18 <l584>:
     b18:	e0876b90 	umull	r6, r7, r0, fp

00000b1c <l585>:
     b1c:	008a8895 	umulleq	r8, sl, r5, r8

00000b20 <l586>:
     b20:	e08a6a9c 	umull	r6, sl, ip, sl

00000b24 <l587>:
     b24:	e0997e9a 	umulls	r7, r9, sl, lr

00000b28 <l588>:
     b28:	e08a4e90 	umull	r4, sl, r0, lr

00000b2c <l589>:
     b2c:	60897196 	umullvs	r7, r9, r6, r1

00000b30 <l590>:
     b30:	e095ee9a 	umulls	lr, r5, sl, lr

00000b34 <l591>:
     b34:	d08ae492 	umullle	lr, sl, r2, r4

00000b38 <l592>:
     b38:	1089249a 	umullne	r2, r9, sl, r4

00000b3c <l593>:
     b3c:	00896c92 	umulleq	r6, r9, r2, ip

00000b40 <l594>:
     b40:	0099359e 	umullseq	r3, r9, lr, r5

00000b44 <l595>:
     b44:	e080aa9b 	umull	sl, r0, fp, sl

00000b48 <l596>:
     b48:	e083b391 	umull	fp, r3, r1, r3

00000b4c <l597>:
     b4c:	909c389a 	umullsls	r3, ip, sl, r8

00000b50 <l598>:
     b50:	0096b697 	umullseq	fp, r6, r7, r6

00000b54 <l599>:
     b54:	e08c6899 	umull	r6, ip, r9, r8

00000b58 <l600>:
     b58:	70857194 	umullvc	r7, r5, r4, r1

00000b5c <l601>:
     b5c:	e0989c9a 	umulls	r9, r8, sl, ip

00000b60 <l602>:
     b60:	8096159a 	umullshi	r1, r6, sl, r5

00000b64 <l603>:
     b64:	e08b4495 	umull	r4, fp, r5, r4

00000b68 <l604>:
     b68:	e08a9c90 	umull	r9, sl, r0, ip

00000b6c <l605>:
     b6c:	409a1897 	umullsmi	r1, sl, r7, r8

00000b70 <l606>:
     b70:	e08e9690 	umull	r9, lr, r0, r6

00000b74 <l607>:
     b74:	608b5196 	umullvs	r5, fp, r6, r1

00000b78 <l608>:
     b78:	d096bb91 	umullsle	fp, r6, r1, fp

00000b7c <l609>:
     b7c:	c0884095 	umullgt	r4, r8, r5, r0

00000b80 <l610>:
     b80:	70898993 	umullvc	r8, r9, r3, r9

00000b84 <l611>:
     b84:	408b9090 	umullmi	r9, fp, r0, r0

00000b88 <l612>:
     b88:	a097279b 	umullsge	r2, r7, fp, r7

00000b8c <l613>:
     b8c:	b0883890 	umulllt	r3, r8, r0, r8

00000b90 <l614>:
     b90:	e095179e 	umulls	r1, r5, lr, r7

00000b94 <l615>:
     b94:	709e239c 	umullsvc	r2, lr, ip, r3

00000b98 <l616>:
     b98:	a086c790 	umullge	ip, r6, r0, r7

00000b9c <l617>:
     b9c:	80814a9e 	umullhi	r4, r1, lr, sl

00000ba0 <l618>:
     ba0:	a089179b 	umullge	r1, r9, fp, r7

00000ba4 <l619>:
     ba4:	e0928494 	umulls	r8, r2, r4, r4

00000ba8 <l620>:
     ba8:	e096049e 	umulls	r0, r6, lr, r4

00000bac <l621>:
     bac:	e080b19e 	umull	fp, r0, lr, r1

00000bb0 <l622>:
     bb0:	509a9795 	umullspl	r9, sl, r5, r7

00000bb4 <l623>:
     bb4:	00992a98 	umullseq	r2, r9, r8, sl

00000bb8 <l624>:
     bb8:	e0940b95 	umulls	r0, r4, r5, fp

00000bbc <l625>:
     bbc:	e08e4095 	umull	r4, lr, r5, r0

00000bc0 <l626>:
     bc0:	e0886990 	umull	r6, r8, r0, r9

00000bc4 <l627>:
     bc4:	d0897995 	umullle	r7, r9, r5, r9

00000bc8 <l628>:
     bc8:	0084609c 	umulleq	r6, r4, ip, r0

00000bcc <l629>:
     bcc:	7097a493 	umullsvc	sl, r7, r3, r4

00000bd0 <l630>:
     bd0:	e0898390 	umull	r8, r9, r0, r3

00000bd4 <l631>:
     bd4:	1096b49c 	umullsne	fp, r6, ip, r4

00000bd8 <l632>:
     bd8:	d08a9b9e 	umullle	r9, sl, lr, fp

00000bdc <l633>:
     bdc:	309cea9b 	umullscc	lr, ip, fp, sl

00000be0 <l634>:
     be0:	20881e9e 	umullcs	r1, r8, lr, lr

00000be4 <l635>:
     be4:	1081b99a 	umullne	fp, r1, sl, r9

00000be8 <l636>:
     be8:	e091b599 	umulls	fp, r1, r9, r5

00000bec <l637>:
     bec:	e0971293 	umulls	r1, r7, r3, r2

00000bf0 <l638>:
     bf0:	e091bb9c 	umulls	fp, r1, ip, fp

00000bf4 <l639>:
     bf4:	a0857b99 	umullge	r7, r5, r9, fp

00000bf8 <l640>:
     bf8:	20990692 	umullscs	r0, r9, r2, r6

00000bfc <l641>:
     bfc:	00987891 	umullseq	r7, r8, r1, r8

00000c00 <l642>:
     c00:	208b4e98 	umullcs	r4, fp, r8, lr

00000c04 <l643>:
     c04:	c09b469c 	umullsgt	r4, fp, ip, r6

00000c08 <l644>:
     c08:	d08e039a 	umullle	r0, lr, sl, r3

00000c0c <l645>:
     c0c:	608c4b90 	umullvs	r4, ip, r0, fp

00000c10 <l646>:
     c10:	e09e1b95 	umulls	r1, lr, r5, fp

00000c14 <l647>:
     c14:	e087e191 	umull	lr, r7, r1, r1

00000c18 <l648>:
     c18:	e09a8199 	umulls	r8, sl, r9, r1

00000c1c <l649>:
     c1c:	2085e29c 	umullcs	lr, r5, ip, r2

00000c20 <l650>:
     c20:	208ea697 	umullcs	sl, lr, r7, r6

00000c24 <l651>:
     c24:	e09a3e97 	umulls	r3, sl, r7, lr

00000c28 <l652>:
     c28:	90937e96 	umullsls	r7, r3, r6, lr

00000c2c <l653>:
     c2c:	e09c7595 	umulls	r7, ip, r5, r5

00000c30 <l654>:
     c30:	e0987090 	umulls	r7, r8, r0, r0

00000c34 <l655>:
     c34:	a09c3192 	umullsge	r3, ip, r2, r1

00000c38 <l656>:
     c38:	40860c94 	umullmi	r0, r6, r4, ip

00000c3c <l657>:
     c3c:	e099ba90 	umulls	fp, r9, r0, sl

00000c40 <l658>:
     c40:	e0952791 	umulls	r2, r5, r1, r7

00000c44 <l659>:
     c44:	1080e994 	umullne	lr, r0, r4, r9

00000c48 <l660>:
     c48:	d0965399 	umullsle	r5, r6, r9, r3

00000c4c <l661>:
     c4c:	e081449c 	umull	r4, r1, ip, r4

00000c50 <l662>:
     c50:	e08e0394 	umull	r0, lr, r4, r3

00000c54 <l663>:
     c54:	5096aa97 	umullspl	sl, r6, r7, sl

00000c58 <l664>:
     c58:	208b2895 	umullcs	r2, fp, r5, r8

00000c5c <l665>:
     c5c:	509be592 	umullspl	lr, fp, r2, r5

00000c60 <l666>:
     c60:	10876b92 	umullne	r6, r7, r2, fp

00000c64 <l667>:
     c64:	e0973b9b 	umulls	r3, r7, fp, fp

00000c68 <l668>:
     c68:	708b3491 	umullvc	r3, fp, r1, r4

00000c6c <l669>:
     c6c:	7085aa92 	umullvc	sl, r5, r2, sl

00000c70 <l670>:
     c70:	6097e693 	umullsvs	lr, r7, r3, r6

00000c74 <l671>:
     c74:	0091c098 	umullseq	ip, r1, r8, r0

00000c78 <l672>:
     c78:	e0945b90 	umulls	r5, r4, r0, fp

00000c7c <l673>:
     c7c:	20924491 	umullscs	r4, r2, r1, r4

00000c80 <l674>:
     c80:	e0975c92 	umulls	r5, r7, r2, ip

00000c84 <l675>:
     c84:	d0990a9a 	umullsle	r0, r9, sl, sl

00000c88 <l676>:
     c88:	e087999a 	umull	r9, r7, sl, r9

00000c8c <l677>:
     c8c:	5097e09c 	umullspl	lr, r7, ip, r0

00000c90 <l678>:
     c90:	e095ae92 	umulls	sl, r5, r2, lr

00000c94 <l679>:
     c94:	e092c094 	umulls	ip, r2, r4, r0

00000c98 <l680>:
     c98:	c09ea398 	umullsgt	sl, lr, r8, r3

00000c9c <l681>:
     c9c:	e0869291 	umull	r9, r6, r1, r2

00000ca0 <l682>:
     ca0:	b094e595 	umullslt	lr, r4, r5, r5

00000ca4 <l683>:
     ca4:	e08b199c 	umull	r1, fp, ip, r9

00000ca8 <l684>:
     ca8:	e081e696 	umull	lr, r1, r6, r6

00000cac <l685>:
     cac:	b0864c90 	umulllt	r4, r6, r0, ip

00000cb0 <l686>:
     cb0:	7090cb97 	umullsvc	ip, r0, r7, fp

00000cb4 <l687>:
     cb4:	e09b4096 	umulls	r4, fp, r6, r0

00000cb8 <l688>:
     cb8:	3092799b 	umullscc	r7, r2, fp, r9

00000cbc <l689>:
     cbc:	d0865e92 	umullle	r5, r6, r2, lr

00000cc0 <l690>:
     cc0:	0097b394 	umullseq	fp, r7, r4, r3

00000cc4 <l691>:
     cc4:	0087449b 	umulleq	r4, r7, fp, r4

00000cc8 <l692>:
     cc8:	80856e9e 	umullhi	r6, r5, lr, lr

00000ccc <l693>:
     ccc:	009e2093 	umullseq	r2, lr, r3, r0

00000cd0 <l694>:
     cd0:	d092ce93 	umullsle	ip, r2, r3, lr

00000cd4 <l695>:
     cd4:	80960795 	umullshi	r0, r6, r5, r7

00000cd8 <l696>:
     cd8:	e081b890 	umull	fp, r1, r0, r8

00000cdc <l697>:
     cdc:	e08c1298 	umull	r1, ip, r8, r2

00000ce0 <l698>:
     ce0:	4094609e 	umullsmi	r6, r4, lr, r0

00000ce4 <l699>:
     ce4:	10912495 	umullsne	r2, r1, r5, r4

00000ce8 <l700>:
     ce8:	6094ab97 	umullsvs	sl, r4, r7, fp

00000cec <l701>:
     cec:	e0903c97 	umulls	r3, r0, r7, ip

00000cf0 <l702>:
     cf0:	e0885c9c 	umull	r5, r8, ip, ip

00000cf4 <l703>:
     cf4:	e0959896 	umulls	r9, r5, r6, r8

00000cf8 <l704>:
     cf8:	1087669e 	umullne	r6, r7, lr, r6

00000cfc <l705>:
     cfc:	40871192 	umullmi	r1, r7, r2, r1

00000d00 <l706>:
     d00:	0095ee9c 	umullseq	lr, r5, ip, lr

00000d04 <l707>:
     d04:	e086b590 	umull	fp, r6, r0, r5

00000d08 <l708>:
     d08:	4093aa97 	umullsmi	sl, r3, r7, sl

00000d0c <l709>:
     d0c:	d0823e91 	umullle	r3, r2, r1, lr

00000d10 <l710>:
     d10:	509c529e 	umullspl	r5, ip, lr, r2

00000d14 <l711>:
     d14:	e0924995 	umulls	r4, r2, r5, r9

00000d18 <l712>:
     d18:	5087ce93 	umullpl	ip, r7, r3, lr

00000d1c <l713>:
     d1c:	e099cb9a 	umulls	ip, r9, sl, fp

00000d20 <l714>:
     d20:	80829c95 	umullhi	r9, r2, r5, ip

00000d24 <l715>:
     d24:	509a4992 	umullspl	r4, sl, r2, r9

00000d28 <l716>:
     d28:	60979a93 	umullsvs	r9, r7, r3, sl

00000d2c <l717>:
     d2c:	e08e149b 	umull	r1, lr, fp, r4

00000d30 <l718>:
     d30:	a0927598 	umullsge	r7, r2, r8, r5

00000d34 <l719>:
     d34:	e0959c9c 	umulls	r9, r5, ip, ip

00000d38 <l720>:
     d38:	e0986992 	umulls	r6, r8, r2, r9

00000d3c <l721>:
     d3c:	e0828c91 	umull	r8, r2, r1, ip

00000d40 <l722>:
     d40:	e09aee95 	umulls	lr, sl, r5, lr

00000d44 <l723>:
     d44:	e0960b97 	umulls	r0, r6, r7, fp

00000d48 <l724>:
     d48:	d082e093 	umullle	lr, r2, r3, r0

00000d4c <l725>:
     d4c:	10932794 	umullsne	r2, r3, r4, r7

00000d50 <l726>:
     d50:	e08e5c91 	umull	r5, lr, r1, ip

00000d54 <l727>:
     d54:	20815692 	umullcs	r5, r1, r2, r6

00000d58 <l728>:
     d58:	e088989c 	umull	r9, r8, ip, r8

00000d5c <l729>:
     d5c:	e0997e95 	umulls	r7, r9, r5, lr

00000d60 <l730>:
     d60:	e088969a 	umull	r9, r8, sl, r6

00000d64 <l731>:
     d64:	d086039b 	umullle	r0, r6, fp, r3

00000d68 <l732>:
     d68:	e0968092 	umulls	r8, r6, r2, r0

00000d6c <l733>:
     d6c:	e09ec397 	umulls	ip, lr, r7, r3

00000d70 <l734>:
     d70:	608e5699 	umullvs	r5, lr, r9, r6

00000d74 <l735>:
     d74:	e08c7e94 	umull	r7, ip, r4, lr

00000d78 <l736>:
     d78:	40956693 	umullsmi	r6, r5, r3, r6

00000d7c <l737>:
     d7c:	a09b6697 	umullsge	r6, fp, r7, r6

00000d80 <l738>:
     d80:	2084aa9b 	umullcs	sl, r4, fp, sl

00000d84 <l739>:
     d84:	e0935390 	umulls	r5, r3, r0, r3

00000d88 <l740>:
     d88:	109b1293 	umullsne	r1, fp, r3, r2

00000d8c <l741>:
     d8c:	e08ac093 	umull	ip, sl, r3, r0

00000d90 <l742>:
     d90:	e096ec98 	umulls	lr, r6, r8, ip

00000d94 <l743>:
     d94:	c086e394 	umullgt	lr, r6, r4, r3

00000d98 <l744>:
     d98:	50812796 	umullpl	r2, r1, r6, r7

00000d9c <l745>:
     d9c:	70905a9b 	umullsvc	r5, r0, fp, sl

00000da0 <l746>:
     da0:	e0907e96 	umulls	r7, r0, r6, lr

00000da4 <l747>:
     da4:	d08e2b96 	umullle	r2, lr, r6, fp

00000da8 <l748>:
     da8:	108a6191 	umullne	r6, sl, r1, r1

00000dac <l749>:
     dac:	e099519c 	umulls	r5, r9, ip, r1

00000db0 <l750>:
     db0:	e08e1393 	umull	r1, lr, r3, r3

00000db4 <l751>:
     db4:	d099cb96 	umullsle	ip, r9, r6, fp

00000db8 <l752>:
     db8:	9095e799 	umullsls	lr, r5, r9, r7

00000dbc <l753>:
     dbc:	3082b496 	umullcc	fp, r2, r6, r4

00000dc0 <l754>:
     dc0:	c09ca090 	umullsgt	sl, ip, r0, r0

00000dc4 <l755>:
     dc4:	e0809092 	umull	r9, r0, r2, r0

00000dc8 <l756>:
     dc8:	e093039b 	umulls	r0, r3, fp, r3

00000dcc <l757>:
     dcc:	10861999 	umullne	r1, r6, r9, r9

00000dd0 <l758>:
     dd0:	e09c1194 	umulls	r1, ip, r4, r1

00000dd4 <l759>:
     dd4:	7097699b 	umullsvc	r6, r7, fp, r9

00000dd8 <l760>:
     dd8:	40826799 	umullmi	r6, r2, r9, r7

00000ddc <l761>:
     ddc:	3087e696 	umullcc	lr, r7, r6, r6

00000de0 <l762>:
     de0:	e08ae492 	umull	lr, sl, r2, r4

00000de4 <l763>:
     de4:	b08a3695 	umulllt	r3, sl, r5, r6

00000de8 <l764>:
     de8:	20889e92 	umullcs	r9, r8, r2, lr

00000dec <l765>:
     dec:	7086209a 	umullvc	r2, r6, sl, r0

00000df0 <l766>:
     df0:	e082409c 	umull	r4, r2, ip, r0

00000df4 <l767>:
     df4:	008c6192 	umulleq	r6, ip, r2, r1

00000df8 <l768>:
     df8:	d093219e 	umullsle	r2, r3, lr, r1

00000dfc <l769>:
     dfc:	90993398 	umullsls	r3, r9, r8, r3

00000e00 <l770>:
     e00:	e0896292 	umull	r6, r9, r2, r2

00000e04 <l771>:
     e04:	008a9996 	umulleq	r9, sl, r6, r9

00000e08 <l772>:
     e08:	e08ac19e 	umull	ip, sl, lr, r1

00000e0c <l773>:
     e0c:	d096a299 	umullsle	sl, r6, r9, r2

00000e10 <l774>:
     e10:	e0928895 	umulls	r8, r2, r5, r8

00000e14 <l775>:
     e14:	e0815390 	umull	r5, r1, r0, r3

00000e18 <l776>:
     e18:	e0943098 	umulls	r3, r4, r8, r0

00000e1c <l777>:
     e1c:	c088b699 	umullgt	fp, r8, r9, r6

00000e20 <l778>:
     e20:	409e279b 	umullsmi	r2, lr, fp, r7

00000e24 <l779>:
     e24:	c082e29c 	umullgt	lr, r2, ip, r2

00000e28 <l780>:
     e28:	b08a289e 	umulllt	r2, sl, lr, r8

00000e2c <l781>:
     e2c:	a0963c98 	umullsge	r3, r6, r8, ip

00000e30 <l782>:
     e30:	c083009b 	umullgt	r0, r3, fp, r0

00000e34 <l783>:
     e34:	b0816095 	umulllt	r6, r1, r5, r0

00000e38 <l784>:
     e38:	e09a5c9c 	umulls	r5, sl, ip, ip

00000e3c <l785>:
     e3c:	30940498 	umullscc	r0, r4, r8, r4

00000e40 <l786>:
     e40:	c098119c 	umullsgt	r1, r8, ip, r1

00000e44 <l787>:
     e44:	d092ca96 	umullsle	ip, r2, r6, sl

00000e48 <l788>:
     e48:	609a5e96 	umullsvs	r5, sl, r6, lr

00000e4c <l789>:
     e4c:	3086c997 	umullcc	ip, r6, r7, r9

00000e50 <l790>:
     e50:	e0940398 	umulls	r0, r4, r8, r3

00000e54 <l791>:
     e54:	a09e1190 	umullsge	r1, lr, r0, r1

00000e58 <l792>:
     e58:	9080c591 	umullls	ip, r0, r1, r5

00000e5c <l793>:
     e5c:	c08bc198 	umullgt	ip, fp, r8, r1

00000e60 <l794>:
     e60:	7095ca99 	umullsvc	ip, r5, r9, sl

00000e64 <l795>:
     e64:	6081709b 	umullvs	r7, r1, fp, r0

00000e68 <l796>:
     e68:	e099519b 	umulls	r5, r9, fp, r1

00000e6c <l797>:
     e6c:	2082069b 	umullcs	r0, r2, fp, r6

00000e70 <l798>:
     e70:	b0976a9a 	umullslt	r6, r7, sl, sl

00000e74 <l799>:
     e74:	e0932794 	umulls	r2, r3, r4, r7

00000e78 <l800>:
     e78:	0094b696 	umullseq	fp, r4, r6, r6

00000e7c <l801>:
     e7c:	b0840891 	umulllt	r0, r4, r1, r8

00000e80 <l802>:
     e80:	408e5e91 	umullmi	r5, lr, r1, lr

00000e84 <l803>:
     e84:	e09b1c90 	umulls	r1, fp, r0, ip

00000e88 <l804>:
     e88:	e080969b 	umull	r9, r0, fp, r6

00000e8c <l805>:
     e8c:	708b2c95 	umullvc	r2, fp, r5, ip

00000e90 <l806>:
     e90:	c0947a90 	umullsgt	r7, r4, r0, sl

00000e94 <l807>:
     e94:	409a1099 	umullsmi	r1, sl, r9, r0

00000e98 <l808>:
     e98:	e083be91 	umull	fp, r3, r1, lr

00000e9c <l809>:
     e9c:	e087b39a 	umull	fp, r7, sl, r3

00000ea0 <l810>:
     ea0:	00857494 	umulleq	r7, r5, r4, r4

00000ea4 <l811>:
     ea4:	20929b91 	umullscs	r9, r2, r1, fp

00000ea8 <l812>:
     ea8:	609a0397 	umullsvs	r0, sl, r7, r3

00000eac <l813>:
     eac:	e0946198 	umulls	r6, r4, r8, r1

00000eb0 <l814>:
     eb0:	e0852c9e 	umull	r2, r5, lr, ip

00000eb4 <l815>:
     eb4:	00802197 	umulleq	r2, r0, r7, r1

00000eb8 <l816>:
     eb8:	a0976599 	umullsge	r6, r7, r9, r5

00000ebc <l817>:
     ebc:	80887191 	umullhi	r7, r8, r1, r1

00000ec0 <l818>:
     ec0:	40894093 	umullmi	r4, r9, r3, r0

00000ec4 <l819>:
     ec4:	e0879092 	umull	r9, r7, r2, r0

00000ec8 <l820>:
     ec8:	4088c895 	umullmi	ip, r8, r5, r8

00000ecc <l821>:
     ecc:	e092b99c 	umulls	fp, r2, ip, r9

00000ed0 <l822>:
     ed0:	b0870095 	umulllt	r0, r7, r5, r0

00000ed4 <l823>:
     ed4:	60930399 	umullsvs	r0, r3, r9, r3

00000ed8 <l824>:
     ed8:	b08e6c92 	umulllt	r6, lr, r2, ip

00000edc <l825>:
     edc:	e089549a 	umull	r5, r9, sl, r4

00000ee0 <l826>:
     ee0:	e0848c97 	umull	r8, r4, r7, ip

00000ee4 <l827>:
     ee4:	e09be299 	umulls	lr, fp, r9, r2

00000ee8 <l828>:
     ee8:	e08e1495 	umull	r1, lr, r5, r4

00000eec <l829>:
     eec:	9092639e 	umullsls	r6, r2, lr, r3

00000ef0 <l830>:
     ef0:	1085cb9e 	umullne	ip, r5, lr, fp

00000ef4 <l831>:
     ef4:	e083e595 	umull	lr, r3, r5, r5

00000ef8 <l832>:
     ef8:	d08b4890 	umullle	r4, fp, r0, r8

00000efc <l833>:
     efc:	e0971494 	umulls	r1, r7, r4, r4

00000f00 <l834>:
     f00:	608c2a93 	umullvs	r2, ip, r3, sl

00000f04 <l835>:
     f04:	4089e697 	umullmi	lr, r9, r7, r6

00000f08 <l836>:
     f08:	0093b296 	umullseq	fp, r3, r6, r2

00000f0c <l837>:
     f0c:	208b3997 	umullcs	r3, fp, r7, r9

00000f10 <l838>:
     f10:	e08b049c 	umull	r0, fp, ip, r4

00000f14 <l839>:
     f14:	709a779c 	umullsvc	r7, sl, ip, r7

00000f18 <l840>:
     f18:	1096eb92 	umullsne	lr, r6, r2, fp

00000f1c <l841>:
     f1c:	e0862b95 	umull	r2, r6, r5, fp

00000f20 <l842>:
     f20:	e09b5992 	umulls	r5, fp, r2, r9

00000f24 <l843>:
     f24:	50818c90 	umullpl	r8, r1, r0, ip

00000f28 <l844>:
     f28:	008e9a95 	umulleq	r9, lr, r5, sl

00000f2c <l845>:
     f2c:	a094ac99 	umullsge	sl, r4, r9, ip

00000f30 <l846>:
     f30:	e09e3191 	umulls	r3, lr, r1, r1

00000f34 <l847>:
     f34:	e09e839b 	umulls	r8, lr, fp, r3

00000f38 <l848>:
     f38:	7094119b 	umullsvc	r1, r4, fp, r1

00000f3c <l849>:
     f3c:	a094ac96 	umullsge	sl, r4, r6, ip

00000f40 <l850>:
     f40:	50958999 	umullspl	r8, r5, r9, r9

00000f44 <l851>:
     f44:	8081bc98 	umullhi	fp, r1, r8, ip

00000f48 <l852>:
     f48:	50875a96 	umullpl	r5, r7, r6, sl

00000f4c <l853>:
     f4c:	709a4590 	umullsvc	r4, sl, r0, r5

00000f50 <l854>:
     f50:	e0930495 	umulls	r0, r3, r5, r4

00000f54 <l855>:
     f54:	a096a095 	umullsge	sl, r6, r5, r0

00000f58 <l856>:
     f58:	e086219e 	umull	r2, r6, lr, r1

00000f5c <l857>:
     f5c:	40850996 	umullmi	r0, r5, r6, r9

00000f60 <l858>:
     f60:	60870598 	umullvs	r0, r7, r8, r5

00000f64 <l859>:
     f64:	5088a793 	umullpl	sl, r8, r3, r7

00000f68 <l860>:
     f68:	e090779a 	umulls	r7, r0, sl, r7

00000f6c <l861>:
     f6c:	e09a3b92 	umulls	r3, sl, r2, fp

00000f70 <l862>:
     f70:	708b1095 	umullvc	r1, fp, r5, r0

00000f74 <l863>:
     f74:	40809892 	umullmi	r9, r0, r2, r8

00000f78 <l864>:
     f78:	80882294 	umullhi	r2, r8, r4, r2

00000f7c <l865>:
     f7c:	e0970291 	umulls	r0, r7, r1, r2

00000f80 <l866>:
     f80:	c08c5a96 	umullgt	r5, ip, r6, sl

00000f84 <l867>:
     f84:	30842198 	umullcc	r2, r4, r8, r1

00000f88 <l868>:
     f88:	e090729b 	umulls	r7, r0, fp, r2

00000f8c <l869>:
     f8c:	60982e91 	umullsvs	r2, r8, r1, lr

00000f90 <l870>:
     f90:	70910395 	umullsvc	r0, r1, r5, r3

00000f94 <l871>:
     f94:	e0895e98 	umull	r5, r9, r8, lr

00000f98 <l872>:
     f98:	d0819297 	umullle	r9, r1, r7, r2

00000f9c <l873>:
     f9c:	60847093 	umullvs	r7, r4, r3, r0

00000fa0 <l874>:
     fa0:	e0971994 	umulls	r1, r7, r4, r9

00000fa4 <l875>:
     fa4:	e08e3496 	umull	r3, lr, r6, r4

00000fa8 <l876>:
     fa8:	408bc491 	umullmi	ip, fp, r1, r4

00000fac <l877>:
     fac:	80991094 	umullshi	r1, r9, r4, r0

00000fb0 <l878>:
     fb0:	60858a90 	umullvs	r8, r5, r0, sl

00000fb4 <l879>:
     fb4:	70805699 	umullvc	r5, r0, r9, r6

00000fb8 <l880>:
     fb8:	e095379a 	umulls	r3, r5, sl, r7

00000fbc <l881>:
     fbc:	e09e5698 	umulls	r5, lr, r8, r6

00000fc0 <l882>:
     fc0:	709a5c94 	umullsvc	r5, sl, r4, ip

00000fc4 <l883>:
     fc4:	e0996393 	umulls	r6, r9, r3, r3

00000fc8 <l884>:
     fc8:	a08e2c99 	umullge	r2, lr, r9, ip

00000fcc <l885>:
     fcc:	e0986895 	umulls	r6, r8, r5, r8

00000fd0 <l886>:
     fd0:	809c7494 	umullshi	r7, ip, r4, r4

00000fd4 <l887>:
     fd4:	2080a89c 	umullcs	sl, r0, ip, r8

00000fd8 <l888>:
     fd8:	60905a9c 	umullsvs	r5, r0, ip, sl

00000fdc <l889>:
     fdc:	e0996e94 	umulls	r6, r9, r4, lr

00000fe0 <l890>:
     fe0:	1099c495 	umullsne	ip, r9, r5, r4

00000fe4 <l891>:
     fe4:	90843c97 	umullls	r3, r4, r7, ip

00000fe8 <l892>:
     fe8:	d0816e90 	umullle	r6, r1, r0, lr

00000fec <l893>:
     fec:	20898996 	umullcs	r8, r9, r6, r9

00000ff0 <l894>:
     ff0:	e08c9898 	umull	r9, ip, r8, r8

00000ff4 <l895>:
     ff4:	e0954796 	umulls	r4, r5, r6, r7

00000ff8 <l896>:
     ff8:	e08e7c99 	umull	r7, lr, r9, ip

00000ffc <l897>:
     ffc:	1093aa96 	umullsne	sl, r3, r6, sl

00001000 <l898>:
    1000:	7091419c 	umullsvc	r4, r1, ip, r1

00001004 <l899>:
    1004:	40985e94 	umullsmi	r5, r8, r4, lr

00001008 <l900>:
    1008:	60974c93 	umullsvs	r4, r7, r3, ip

0000100c <l901>:
    100c:	e083ce96 	umull	ip, r3, r6, lr

00001010 <l902>:
    1010:	e084e296 	umull	lr, r4, r6, r2

00001014 <l903>:
    1014:	5087529e 	umullpl	r5, r7, lr, r2

00001018 <l904>:
    1018:	e0982b96 	umulls	r2, r8, r6, fp

0000101c <l905>:
    101c:	6087be91 	umullvs	fp, r7, r1, lr

00001020 <l906>:
    1020:	e093b295 	umulls	fp, r3, r5, r2

00001024 <l907>:
    1024:	809a169c 	umullshi	r1, sl, ip, r6

00001028 <l908>:
    1028:	e0817298 	umull	r7, r1, r8, r2

0000102c <l909>:
    102c:	70873e9c 	umullvc	r3, r7, ip, lr

00001030 <l910>:
    1030:	1094a195 	umullsne	sl, r4, r5, r1

00001034 <l911>:
    1034:	908ea991 	umullls	sl, lr, r1, r9

00001038 <l912>:
    1038:	e085489e 	umull	r4, r5, lr, r8

0000103c <l913>:
    103c:	a0925299 	umullsge	r5, r2, r9, r2

00001040 <l914>:
    1040:	30823796 	umullcc	r3, r2, r6, r7

00001044 <l915>:
    1044:	c097aa91 	umullsgt	sl, r7, r1, sl

00001048 <l916>:
    1048:	e097269c 	umulls	r2, r7, ip, r6

0000104c <l917>:
    104c:	e09b8c97 	umulls	r8, fp, r7, ip

00001050 <l918>:
    1050:	a086b79c 	umullge	fp, r6, ip, r7

00001054 <l919>:
    1054:	308c3397 	umullcc	r3, ip, r7, r3

00001058 <l920>:
    1058:	e084a59b 	umull	sl, r4, fp, r5

0000105c <l921>:
    105c:	b09b6c98 	umullslt	r6, fp, r8, ip

00001060 <l922>:
    1060:	e090b99e 	umulls	fp, r0, lr, r9

00001064 <l923>:
    1064:	e09b4c99 	umulls	r4, fp, r9, ip

00001068 <l924>:
    1068:	e09b0395 	umulls	r0, fp, r5, r3

0000106c <l925>:
    106c:	e089e495 	umull	lr, r9, r5, r4

00001070 <l926>:
    1070:	e091a892 	umulls	sl, r1, r2, r8

00001074 <l927>:
    1074:	e0881495 	umull	r1, r8, r5, r4

00001078 <l928>:
    1078:	708a5892 	umullvc	r5, sl, r2, r8

0000107c <l929>:
    107c:	208a219c 	umullcs	r2, sl, ip, r1

00001080 <l930>:
    1080:	70921c97 	umullsvc	r1, r2, r7, ip

00001084 <l931>:
    1084:	e0864997 	umull	r4, r6, r7, r9

00001088 <l932>:
    1088:	30938b92 	umullscc	r8, r3, r2, fp

0000108c <l933>:
    108c:	20868094 	umullcs	r8, r6, r4, r0

00001090 <l934>:
    1090:	e0875a9b 	umull	r5, r7, fp, sl

00001094 <l935>:
    1094:	30974596 	umullscc	r4, r7, r6, r5

00001098 <l936>:
    1098:	e0942993 	umulls	r2, r4, r3, r9

0000109c <l937>:
    109c:	b081e098 	umulllt	lr, r1, r8, r0

000010a0 <l938>:
    10a0:	e0874495 	umull	r4, r7, r5, r4

000010a4 <l939>:
    10a4:	d090689a 	umullsle	r6, r0, sl, r8

000010a8 <l940>:
    10a8:	d08ab99e 	umullle	fp, sl, lr, r9

000010ac <l941>:
    10ac:	60980092 	umullsvs	r0, r8, r2, r0

000010b0 <l942>:
    10b0:	2082cb97 	umullcs	ip, r2, r7, fp

000010b4 <l943>:
    10b4:	909a7c9b 	umullsls	r7, sl, fp, ip

000010b8 <l944>:
    10b8:	e0905a9a 	umulls	r5, r0, sl, sl

000010bc <l945>:
    10bc:	709cbe99 	umullsvc	fp, ip, r9, lr

000010c0 <l946>:
    10c0:	e0903199 	umulls	r3, r0, r9, r1

000010c4 <l947>:
    10c4:	e095859b 	umulls	r8, r5, fp, r5

000010c8 <l948>:
    10c8:	a09e6497 	umullsge	r6, lr, r7, r4

000010cc <l949>:
    10cc:	e08a3e91 	umull	r3, sl, r1, lr

000010d0 <l950>:
    10d0:	c090e991 	umullsgt	lr, r0, r1, r9

000010d4 <l951>:
    10d4:	e0872098 	umull	r2, r7, r8, r0

000010d8 <l952>:
    10d8:	c09e2690 	umullsgt	r2, lr, r0, r6

000010dc <l953>:
    10dc:	1083169a 	umullne	r1, r3, sl, r6

000010e0 <l954>:
    10e0:	e0869998 	umull	r9, r6, r8, r9

000010e4 <l955>:
    10e4:	e0975a94 	umulls	r5, r7, r4, sl

000010e8 <l956>:
    10e8:	e094e79a 	umulls	lr, r4, sl, r7

000010ec <l957>:
    10ec:	e0997592 	umulls	r7, r9, r2, r5

000010f0 <l958>:
    10f0:	e0821993 	umull	r1, r2, r3, r9

000010f4 <l959>:
    10f4:	e08b1893 	umull	r1, fp, r3, r8

000010f8 <l960>:
    10f8:	00938b90 	umullseq	r8, r3, r0, fp

000010fc <l961>:
    10fc:	e08bc399 	umull	ip, fp, r9, r3

00001100 <l962>:
    1100:	e0928e99 	umulls	r8, r2, r9, lr

00001104 <l963>:
    1104:	e0813795 	umull	r3, r1, r5, r7

00001108 <l964>:
    1108:	e098ec9c 	umulls	lr, r8, ip, ip

0000110c <l965>:
    110c:	e088069a 	umull	r0, r8, sl, r6

00001110 <l966>:
    1110:	4083b795 	umullmi	fp, r3, r5, r7

00001114 <l967>:
    1114:	8089e891 	umullhi	lr, r9, r1, r8

00001118 <l968>:
    1118:	d0945a99 	umullsle	r5, r4, r9, sl

0000111c <l969>:
    111c:	20902394 	umullscs	r2, r0, r4, r3

00001120 <l970>:
    1120:	c0814098 	umullgt	r4, r1, r8, r0

00001124 <l971>:
    1124:	60891097 	umullvs	r1, r9, r7, r0

00001128 <l972>:
    1128:	a09b4390 	umullsge	r4, fp, r0, r3

0000112c <l973>:
    112c:	6081b59c 	umullvs	fp, r1, ip, r5

00001130 <l974>:
    1130:	e096289c 	umulls	r2, r6, ip, r8

00001134 <l975>:
    1134:	0094c691 	umullseq	ip, r4, r1, r6

00001138 <l976>:
    1138:	008aca96 	umulleq	ip, sl, r6, sl

0000113c <l977>:
    113c:	408ce796 	umullmi	lr, ip, r6, r7

00001140 <l978>:
    1140:	7095c59e 	umullsvc	ip, r5, lr, r5

00001144 <l979>:
    1144:	60890991 	umullvs	r0, r9, r1, r9

00001148 <l980>:
    1148:	80981b94 	umullshi	r1, r8, r4, fp

0000114c <l981>:
    114c:	e083c99b 	umull	ip, r3, fp, r9

00001150 <l982>:
    1150:	e08b5998 	umull	r5, fp, r8, r9

00001154 <l983>:
    1154:	a0908995 	umullsge	r8, r0, r5, r9

00001158 <l984>:
    1158:	10804795 	umullne	r4, r0, r5, r7

0000115c <l985>:
    115c:	0088a997 	umulleq	sl, r8, r7, r9

00001160 <l986>:
    1160:	7096289e 	umullsvc	r2, r6, lr, r8

00001164 <l987>:
    1164:	80943798 	umullshi	r3, r4, r8, r7

00001168 <l988>:
    1168:	e092b494 	umulls	fp, r2, r4, r4

0000116c <l989>:
    116c:	40831b98 	umullmi	r1, r3, r8, fp

00001170 <l990>:
    1170:	3092ba9e 	umullscc	fp, r2, lr, sl

00001174 <l991>:
    1174:	e0850a98 	umull	r0, r5, r8, sl

00001178 <l992>:
    1178:	609e6c99 	umullsvs	r6, lr, r9, ip

0000117c <l993>:
    117c:	10998c96 	umullsne	r8, r9, r6, ip

00001180 <l994>:
    1180:	e0967193 	umulls	r7, r6, r3, r1

00001184 <l995>:
    1184:	70912a9c 	umullsvc	r2, r1, ip, sl

00001188 <l996>:
    1188:	e099719b 	umulls	r7, r9, fp, r1

0000118c <l997>:
    118c:	7095189c 	umullsvc	r1, r5, ip, r8

00001190 <l998>:
    1190:	b08ce59a 	umulllt	lr, ip, sl, r5

00001194 <l999>:
    1194:	e08ebe98 	umull	fp, lr, r8, lr

00001198 <l1000>:
    1198:	6090ce97 	umullsvs	ip, r0, r7, lr

0000119c <end>:
    119c:	eafffffe 	b	119c <end>
