
dhryPi:     file format elf32-littlearm


Disassembly of section .init:

00008580 <_init>:
    8580:	e92d4008 	push	{r3, lr}
    8584:	eb0000fc 	bl	897c <call_gmon_start>
    8588:	e8bd8008 	pop	{r3, pc}

Disassembly of section .plt:

0000858c <.plt>:
    858c:	e52de004 	push	{lr}		; (str lr, [sp, #-4]!)
    8590:	e59fe004 	ldr	lr, [pc, #4]	; 859c <_init+0x1c>
    8594:	e08fe00e 	add	lr, pc, lr
    8598:	e5bef008 	ldr	pc, [lr, #8]!
    859c:	00008c38 	.word	0x00008c38
    85a0:	e28fc600 	add	ip, pc, #0
    85a4:	e28cca08 	add	ip, ip, #32768	; 0x8000
    85a8:	e5bcfc38 	ldr	pc, [ip, #3128]!	; 0xc38
    85ac:	e28fc600 	add	ip, pc, #0
    85b0:	e28cca08 	add	ip, ip, #32768	; 0x8000
    85b4:	e5bcfc30 	ldr	pc, [ip, #3120]!	; 0xc30
    85b8:	e28fc600 	add	ip, pc, #0
    85bc:	e28cca08 	add	ip, ip, #32768	; 0x8000
    85c0:	e5bcfc28 	ldr	pc, [ip, #3112]!	; 0xc28
    85c4:	e28fc600 	add	ip, pc, #0
    85c8:	e28cca08 	add	ip, ip, #32768	; 0x8000
    85cc:	e5bcfc20 	ldr	pc, [ip, #3104]!	; 0xc20
    85d0:	e28fc600 	add	ip, pc, #0
    85d4:	e28cca08 	add	ip, ip, #32768	; 0x8000
    85d8:	e5bcfc18 	ldr	pc, [ip, #3096]!	; 0xc18
    85dc:	e28fc600 	add	ip, pc, #0
    85e0:	e28cca08 	add	ip, ip, #32768	; 0x8000
    85e4:	e5bcfc10 	ldr	pc, [ip, #3088]!	; 0xc10
    85e8:	e28fc600 	add	ip, pc, #0
    85ec:	e28cca08 	add	ip, ip, #32768	; 0x8000
    85f0:	e5bcfc08 	ldr	pc, [ip, #3080]!	; 0xc08
    85f4:	e28fc600 	add	ip, pc, #0
    85f8:	e28cca08 	add	ip, ip, #32768	; 0x8000
    85fc:	e5bcfc00 	ldr	pc, [ip, #3072]!	; 0xc00
    8600:	e28fc600 	add	ip, pc, #0
    8604:	e28cca08 	add	ip, ip, #32768	; 0x8000
    8608:	e5bcfbf8 	ldr	pc, [ip, #3064]!	; 0xbf8
    860c:	e28fc600 	add	ip, pc, #0
    8610:	e28cca08 	add	ip, ip, #32768	; 0x8000
    8614:	e5bcfbf0 	ldr	pc, [ip, #3056]!	; 0xbf0
    8618:	e28fc600 	add	ip, pc, #0
    861c:	e28cca08 	add	ip, ip, #32768	; 0x8000
    8620:	e5bcfbe8 	ldr	pc, [ip, #3048]!	; 0xbe8
    8624:	e28fc600 	add	ip, pc, #0
    8628:	e28cca08 	add	ip, ip, #32768	; 0x8000
    862c:	e5bcfbe0 	ldr	pc, [ip, #3040]!	; 0xbe0
    8630:	e28fc600 	add	ip, pc, #0
    8634:	e28cca08 	add	ip, ip, #32768	; 0x8000
    8638:	e5bcfbd8 	ldr	pc, [ip, #3032]!	; 0xbd8
    863c:	e28fc600 	add	ip, pc, #0
    8640:	e28cca08 	add	ip, ip, #32768	; 0x8000
    8644:	e5bcfbd0 	ldr	pc, [ip, #3024]!	; 0xbd0
    8648:	e28fc600 	add	ip, pc, #0
    864c:	e28cca08 	add	ip, ip, #32768	; 0x8000
    8650:	e5bcfbc8 	ldr	pc, [ip, #3016]!	; 0xbc8
    8654:	e28fc600 	add	ip, pc, #0
    8658:	e28cca08 	add	ip, ip, #32768	; 0x8000
    865c:	e5bcfbc0 	ldr	pc, [ip, #3008]!	; 0xbc0
    8660:	e28fc600 	add	ip, pc, #0
    8664:	e28cca08 	add	ip, ip, #32768	; 0x8000
    8668:	e5bcfbb8 	ldr	pc, [ip, #3000]!	; 0xbb8

Disassembly of section .text:

0000866c <main>:
    866c:	e92d4ff0 	push	{r4, r5, r6, r7, r8, r9, sl, fp, lr}
    8670:	e59f0264 	ldr	r0, [pc, #612]	; 88dc <main+0x270>
    8674:	e24dd04c 	sub	sp, sp, #76	; 0x4c
    8678:	e59f1260 	ldr	r1, [pc, #608]	; 88e0 <main+0x274>
    867c:	ebffffcd 	bl	85b8 <_init+0x38>
    8680:	e3500000 	cmp	r0, #0
    8684:	0a00008b 	beq	88b8 <main+0x24c>
    8688:	e3a00030 	mov	r0, #48	; 0x30
    868c:	ebffffde 	bl	860c <_init+0x8c>
    8690:	e59f324c 	ldr	r3, [pc, #588]	; 88e4 <main+0x278>
    8694:	e1a04000 	mov	r4, r0
    8698:	e5834000 	str	r4, [r3]
    869c:	e3a00030 	mov	r0, #48	; 0x30
    86a0:	ebffffd9 	bl	860c <_init+0x8c>
    86a4:	e59fc23c 	ldr	ip, [pc, #572]	; 88e8 <main+0x27c>
    86a8:	e1a06000 	mov	r6, r0
    86ac:	e8bc000f 	ldm	ip!, {r0, r1, r2, r3}
    86b0:	e286e010 	add	lr, r6, #16
    86b4:	e8ae000f 	stmia	lr!, {r0, r1, r2, r3}
    86b8:	e89c000f 	ldm	ip, {r0, r1, r2, r3}
    86bc:	e8ae0007 	stmia	lr!, {r0, r1, r2}
    86c0:	e59f5224 	ldr	r5, [pc, #548]	; 88ec <main+0x280>
    86c4:	e0ce30b2 	strh	r3, [lr], #2
    86c8:	e1a07823 	lsr	r7, r3, #16
    86cc:	e8b5000f 	ldm	r5!, {r0, r1, r2, r3}
    86d0:	e1a0c00d 	mov	ip, sp
    86d4:	e8ac000f 	stmia	ip!, {r0, r1, r2, r3}
    86d8:	e59f9210 	ldr	r9, [pc, #528]	; 88f0 <main+0x284>
    86dc:	e895000f 	ldm	r5, {r0, r1, r2, r3}
    86e0:	e5864000 	str	r4, [r6]
    86e4:	e3a05002 	mov	r5, #2
    86e8:	e3a04000 	mov	r4, #0
    86ec:	e3a08028 	mov	r8, #40	; 0x28
    86f0:	e9860130 	stmib	r6, {r4, r5, r8}
    86f4:	e5896000 	str	r6, [r9]
    86f8:	e5ce7000 	strb	r7, [lr]
    86fc:	e8ac0007 	stmia	ip!, {r0, r1, r2}
    8700:	e59f51ec 	ldr	r5, [pc, #492]	; 88f4 <main+0x288>
    8704:	e0cc30b2 	strh	r3, [ip], #2
    8708:	e3a0400a 	mov	r4, #10
    870c:	e1a03823 	lsr	r3, r3, #16
    8710:	e5cc3000 	strb	r3, [ip]
    8714:	e585465c 	str	r4, [r5, #1628]	; 0x65c
    8718:	eb00017c 	bl	8d10 <getDetails>
    871c:	e59f01d4 	ldr	r0, [pc, #468]	; 88f8 <main+0x28c>
    8720:	ebffffb6 	bl	8600 <_init+0x80>
    8724:	e1a00004 	mov	r0, r4
    8728:	ebffffc6 	bl	8648 <_init+0xc8>
    872c:	e59f01c8 	ldr	r0, [pc, #456]	; 88fc <main+0x290>
    8730:	ebffffb2 	bl	8600 <_init+0x80>
    8734:	e1a00004 	mov	r0, r4
    8738:	ebffffc2 	bl	8648 <_init+0xc8>
    873c:	e59f11bc 	ldr	r1, [pc, #444]	; 8900 <main+0x294>
    8740:	e59f01bc 	ldr	r0, [pc, #444]	; 8904 <main+0x298>
    8744:	ebffff98 	bl	85ac <_init+0x2c>
    8748:	e59f01b8 	ldr	r0, [pc, #440]	; 8908 <main+0x29c>
    874c:	ebffffab 	bl	8600 <_init+0x80>
    8750:	e59fe1b4 	ldr	lr, [pc, #436]	; 890c <main+0x2a0>
    8754:	e59fc1b4 	ldr	ip, [pc, #436]	; 8910 <main+0x2a4>
    8758:	e8be000f 	ldm	lr!, {r0, r1, r2, r3}
    875c:	e8ac000f 	stmia	ip!, {r0, r1, r2, r3}
    8760:	e89e000f 	ldm	lr, {r0, r1, r2, r3}
    8764:	e8ac0007 	stmia	ip!, {r0, r1, r2}
    8768:	e0cc30b2 	strh	r3, [ip], #2
    876c:	e1a03823 	lsr	r3, r3, #16
    8770:	e5cc3000 	strb	r3, [ip]
    8774:	e585465c 	str	r4, [r5, #1628]	; 0x65c
    8778:	e59fb194 	ldr	fp, [pc, #404]	; 8914 <main+0x2a8>
    877c:	e59f8194 	ldr	r8, [pc, #404]	; 8918 <main+0x2ac>
    8780:	e59f6194 	ldr	r6, [pc, #404]	; 891c <main+0x2b0>
    8784:	e59fa194 	ldr	sl, [pc, #404]	; 8920 <main+0x2b4>
    8788:	e3a07001 	mov	r7, #1
    878c:	e59fe190 	ldr	lr, [pc, #400]	; 8924 <main+0x2b8>
    8790:	e8be000f 	ldm	lr!, {r0, r1, r2, r3}
    8794:	e28dc020 	add	ip, sp, #32
    8798:	e8ac000f 	stmia	ip!, {r0, r1, r2, r3}
    879c:	e89e000f 	ldm	lr, {r0, r1, r2, r3}
    87a0:	e8ac0007 	stmia	ip!, {r0, r1, r2}
    87a4:	e0cc30b2 	strh	r3, [ip], #2
    87a8:	e3a0e042 	mov	lr, #66	; 0x42
    87ac:	e3a02001 	mov	r2, #1
    87b0:	e1a03823 	lsr	r3, r3, #16
    87b4:	e3a04041 	mov	r4, #65	; 0x41
    87b8:	e5cc3000 	strb	r3, [ip]
    87bc:	e5c6e000 	strb	lr, [r6]
    87c0:	e28d1020 	add	r1, sp, #32
    87c4:	e5882000 	str	r2, [r8]
    87c8:	e1a0000d 	mov	r0, sp
    87cc:	e5cb4000 	strb	r4, [fp]
    87d0:	e58d2044 	str	r2, [sp, #68]	; 0x44
    87d4:	eb000125 	bl	8c70 <Func_2>
    87d8:	e2703001 	rsbs	r3, r0, #1
    87dc:	33a03000 	movcc	r3, #0
    87e0:	e3a01003 	mov	r1, #3
    87e4:	e28d2040 	add	r2, sp, #64	; 0x40
    87e8:	e3a00002 	mov	r0, #2
    87ec:	e5883000 	str	r3, [r8]
    87f0:	e3a03007 	mov	r3, #7
    87f4:	e58d3040 	str	r3, [sp, #64]	; 0x40
    87f8:	eb0000f7 	bl	8bdc <Proc_7>
    87fc:	e59d3040 	ldr	r3, [sp, #64]	; 0x40
    8800:	e59f0120 	ldr	r0, [pc, #288]	; 8928 <main+0x2bc>
    8804:	e59f10e8 	ldr	r1, [pc, #232]	; 88f4 <main+0x288>
    8808:	e3a02003 	mov	r2, #3
    880c:	eb0000f6 	bl	8bec <Proc_8>
    8810:	e5990000 	ldr	r0, [r9]
    8814:	eb000090 	bl	8a5c <Proc_1>
    8818:	e5d63000 	ldrb	r3, [r6]
    881c:	e3530040 	cmp	r3, #64	; 0x40
    8820:	8a000005 	bhi	883c <main+0x1d0>
    8824:	ea00001c 	b	889c <main+0x230>
    8828:	e2844001 	add	r4, r4, #1
    882c:	e5d63000 	ldrb	r3, [r6]
    8830:	e20440ff 	and	r4, r4, #255	; 0xff
    8834:	e1530004 	cmp	r3, r4
    8838:	3a000017 	bcc	889c <main+0x230>
    883c:	e1a00004 	mov	r0, r4
    8840:	e3a01043 	mov	r1, #67	; 0x43
    8844:	eb000101 	bl	8c50 <Func_1>
    8848:	e59d3044 	ldr	r3, [sp, #68]	; 0x44
    884c:	e1500003 	cmp	r0, r3
    8850:	1afffff4 	bne	8828 <main+0x1bc>
    8854:	e59f50d0 	ldr	r5, [pc, #208]	; 892c <main+0x2c0>
    8858:	e3a00000 	mov	r0, #0
    885c:	e28d1044 	add	r1, sp, #68	; 0x44
    8860:	eb0000c2 	bl	8b70 <Proc_6>
    8864:	e8b5000f 	ldm	r5!, {r0, r1, r2, r3}
    8868:	e28dc020 	add	ip, sp, #32
    886c:	e8ac000f 	stmia	ip!, {r0, r1, r2, r3}
    8870:	e895000f 	ldm	r5, {r0, r1, r2, r3}
    8874:	e8ac0007 	stmia	ip!, {r0, r1, r2}
    8878:	e0cc30b2 	strh	r3, [ip], #2
    887c:	e1a03823 	lsr	r3, r3, #16
    8880:	e5cc3000 	strb	r3, [ip]
    8884:	e2844001 	add	r4, r4, #1
    8888:	e5d63000 	ldrb	r3, [r6]
    888c:	e20440ff 	and	r4, r4, #255	; 0xff
    8890:	e1530004 	cmp	r3, r4
    8894:	e58a7000 	str	r7, [sl]
    8898:	2affffe7 	bcs	883c <main+0x1d0>
    889c:	e59f308c 	ldr	r3, [pc, #140]	; 8930 <main+0x2c4>
    88a0:	e2877001 	add	r7, r7, #1
    88a4:	e1570003 	cmp	r7, r3
    88a8:	1affffb7 	bne	878c <main+0x120>
    88ac:	e28dd04c 	add	sp, sp, #76	; 0x4c
    88b0:	e8bd4ff0 	pop	{r4, r5, r6, r7, r8, r9, sl, fp, lr}
    88b4:	e12fff1e 	bx	lr
    88b8:	e59f0074 	ldr	r0, [pc, #116]	; 8934 <main+0x2c8>
    88bc:	ebffff4f 	bl	8600 <_init+0x80>
    88c0:	e59f0070 	ldr	r0, [pc, #112]	; 8938 <main+0x2cc>
    88c4:	ebffff4d 	bl	8600 <_init+0x80>
    88c8:	e59f306c 	ldr	r3, [pc, #108]	; 893c <main+0x2d0>
    88cc:	e5930000 	ldr	r0, [r3]
    88d0:	ebffff3e 	bl	85d0 <_init+0x50>
    88d4:	e3a00001 	mov	r0, #1
    88d8:	ebffff57 	bl	863c <_init+0xbc>
    88dc:	00008ea8 	.word	0x00008ea8
    88e0:	00008eb4 	.word	0x00008eb4
    88e4:	00013a60 	.word	0x00013a60
    88e8:	00008ee0 	.word	0x00008ee0
    88ec:	00008f00 	.word	0x00008f00
    88f0:	00013a54 	.word	0x00013a54
    88f4:	00011340 	.word	0x00011340
    88f8:	00008f20 	.word	0x00008f20
    88fc:	00008f4c 	.word	0x00008f4c
    8900:	00008f98 	.word	0x00008f98
    8904:	00008f84 	.word	0x00008f84
    8908:	00008fa8 	.word	0x00008fa8
    890c:	00008fc8 	.word	0x00008fc8
    8910:	00011230 	.word	0x00011230
    8914:	00013b2c 	.word	0x00013b2c
    8918:	00013a5c 	.word	0x00013a5c
    891c:	00013a50 	.word	0x00013a50
    8920:	00013a58 	.word	0x00013a58
    8924:	00008fe8 	.word	0x00008fe8
    8928:	00013a64 	.word	0x00013a64
    892c:	00009008 	.word	0x00009008
    8930:	00002711 	.word	0x00002711
    8934:	00008eb8 	.word	0x00008eb8
    8938:	00008ed0 	.word	0x00008ed0
    893c:	00011320 	.word	0x00011320

00008940 <_start>:
    8940:	e3a0b000 	mov	fp, #0
    8944:	e3a0e000 	mov	lr, #0
    8948:	e49d1004 	pop	{r1}		; (ldr r1, [sp], #4)
    894c:	e1a0200d 	mov	r2, sp
    8950:	e52d2004 	push	{r2}		; (str r2, [sp, #-4]!)
    8954:	e52d0004 	push	{r0}		; (str r0, [sp, #-4]!)
    8958:	e59fc010 	ldr	ip, [pc, #16]	; 8970 <_start+0x30>
    895c:	e52dc004 	push	{ip}		; (str ip, [sp, #-4]!)
    8960:	e59f000c 	ldr	r0, [pc, #12]	; 8974 <_start+0x34>
    8964:	e59f300c 	ldr	r3, [pc, #12]	; 8978 <_start+0x38>
    8968:	ebffff2a 	bl	8618 <_init+0x98>
    896c:	ebffff3b 	bl	8660 <_init+0xe0>
    8970:	00008e98 	.word	0x00008e98
    8974:	0000866c 	.word	0x0000866c
    8978:	00008e38 	.word	0x00008e38

0000897c <call_gmon_start>:
    897c:	e59f3014 	ldr	r3, [pc, #20]	; 8998 <call_gmon_start+0x1c>
    8980:	e59f2014 	ldr	r2, [pc, #20]	; 899c <call_gmon_start+0x20>
    8984:	e08f3003 	add	r3, pc, r3
    8988:	e7933002 	ldr	r3, [r3, r2]
    898c:	e3530000 	cmp	r3, #0
    8990:	012fff1e 	bxeq	lr
    8994:	eaffff25 	b	8630 <_init+0xb0>
    8998:	00008848 	.word	0x00008848
    899c:	00000050 	.word	0x00000050

000089a0 <__do_global_dtors_aux>:
    89a0:	e59f3010 	ldr	r3, [pc, #16]	; 89b8 <__do_global_dtors_aux+0x18>
    89a4:	e5d32000 	ldrb	r2, [r3]
    89a8:	e3520000 	cmp	r2, #0
    89ac:	03a02001 	moveq	r2, #1
    89b0:	05c32000 	strbeq	r2, [r3]
    89b4:	e12fff1e 	bx	lr
    89b8:	00011324 	.word	0x00011324

000089bc <frame_dummy>:
    89bc:	e59f0020 	ldr	r0, [pc, #32]	; 89e4 <frame_dummy+0x28>
    89c0:	e92d4008 	push	{r3, lr}
    89c4:	e5903000 	ldr	r3, [r0]
    89c8:	e3530000 	cmp	r3, #0
    89cc:	08bd8008 	popeq	{r3, pc}
    89d0:	e59f3010 	ldr	r3, [pc, #16]	; 89e8 <frame_dummy+0x2c>
    89d4:	e3530000 	cmp	r3, #0
    89d8:	08bd8008 	popeq	{r3, pc}
    89dc:	e12fff33 	blx	r3
    89e0:	e8bd8008 	pop	{r3, pc}
    89e4:	000110e0 	.word	0x000110e0
    89e8:	00000000 	.word	0x00000000

000089ec <Proc_2>:
    89ec:	e59f3020 	ldr	r3, [pc, #32]	; 8a14 <Proc_2+0x28>
    89f0:	e5d33000 	ldrb	r3, [r3]
    89f4:	e3530041 	cmp	r3, #65	; 0x41
    89f8:	059f2018 	ldreq	r2, [pc, #24]	; 8a18 <Proc_2+0x2c>
    89fc:	e5903000 	ldr	r3, [r0]
    8a00:	05922000 	ldreq	r2, [r2]
    8a04:	02833009 	addeq	r3, r3, #9
    8a08:	00623003 	rsbeq	r3, r2, r3
    8a0c:	05803000 	streq	r3, [r0]
    8a10:	e12fff1e 	bx	lr
    8a14:	00013b2c 	.word	0x00013b2c
    8a18:	00013a58 	.word	0x00013a58

00008a1c <Proc_3>:
    8a1c:	e92d4008 	push	{r3, lr}
    8a20:	e59f302c 	ldr	r3, [pc, #44]	; 8a54 <Proc_3+0x38>
    8a24:	e5932000 	ldr	r2, [r3]
    8a28:	e3520000 	cmp	r2, #0
    8a2c:	15922000 	ldrne	r2, [r2]
    8a30:	15802000 	strne	r2, [r0]
    8a34:	15932000 	ldrne	r2, [r3]
    8a38:	e59f3018 	ldr	r3, [pc, #24]	; 8a58 <Proc_3+0x3c>
    8a3c:	e3a0000a 	mov	r0, #10
    8a40:	e5931000 	ldr	r1, [r3]
    8a44:	e282200c 	add	r2, r2, #12
    8a48:	eb000063 	bl	8bdc <Proc_7>
    8a4c:	e8bd4008 	pop	{r3, lr}
    8a50:	e12fff1e 	bx	lr
    8a54:	00013a54 	.word	0x00013a54
    8a58:	00013a58 	.word	0x00013a58

00008a5c <Proc_1>:
    8a5c:	e92d40f8 	push	{r3, r4, r5, r6, r7, lr}
    8a60:	e59f60a8 	ldr	r6, [pc, #168]	; 8b10 <Proc_1+0xb4>
    8a64:	e596e000 	ldr	lr, [r6]
    8a68:	e5904000 	ldr	r4, [r0]
    8a6c:	e1a05000 	mov	r5, r0
    8a70:	e8be000f 	ldm	lr!, {r0, r1, r2, r3}
    8a74:	e1a0c004 	mov	ip, r4
    8a78:	e8ac000f 	stmia	ip!, {r0, r1, r2, r3}
    8a7c:	e8be000f 	ldm	lr!, {r0, r1, r2, r3}
    8a80:	e8ac000f 	stmia	ip!, {r0, r1, r2, r3}
    8a84:	e5957000 	ldr	r7, [r5]
    8a88:	e89e000f 	ldm	lr, {r0, r1, r2, r3}
    8a8c:	e3a0e005 	mov	lr, #5
    8a90:	e88c000f 	stm	ip, {r0, r1, r2, r3}
    8a94:	e585e00c 	str	lr, [r5, #12]
    8a98:	e5847000 	str	r7, [r4]
    8a9c:	e584e00c 	str	lr, [r4, #12]
    8aa0:	e1a00004 	mov	r0, r4
    8aa4:	ebffffdc 	bl	8a1c <Proc_3>
    8aa8:	e5943004 	ldr	r3, [r4, #4]
    8aac:	e3530000 	cmp	r3, #0
    8ab0:	0a000009 	beq	8adc <Proc_1+0x80>
    8ab4:	e5954000 	ldr	r4, [r5]
    8ab8:	e8b4000f 	ldm	r4!, {r0, r1, r2, r3}
    8abc:	e1a0c005 	mov	ip, r5
    8ac0:	e8ac000f 	stmia	ip!, {r0, r1, r2, r3}
    8ac4:	e8b4000f 	ldm	r4!, {r0, r1, r2, r3}
    8ac8:	e8ac000f 	stmia	ip!, {r0, r1, r2, r3}
    8acc:	e894000f 	ldm	r4, {r0, r1, r2, r3}
    8ad0:	e88c000f 	stm	ip, {r0, r1, r2, r3}
    8ad4:	e8bd40f8 	pop	{r3, r4, r5, r6, r7, lr}
    8ad8:	e12fff1e 	bx	lr
    8adc:	e3a03006 	mov	r3, #6
    8ae0:	e5950008 	ldr	r0, [r5, #8]
    8ae4:	e2841008 	add	r1, r4, #8
    8ae8:	e584300c 	str	r3, [r4, #12]
    8aec:	eb00001f 	bl	8b70 <Proc_6>
    8af0:	e5963000 	ldr	r3, [r6]
    8af4:	e5933000 	ldr	r3, [r3]
    8af8:	e1a02004 	mov	r2, r4
    8afc:	e5b2000c 	ldr	r0, [r2, #12]!
    8b00:	e5843000 	str	r3, [r4]
    8b04:	e3a0100a 	mov	r1, #10
    8b08:	eb000033 	bl	8bdc <Proc_7>
    8b0c:	eafffff0 	b	8ad4 <Proc_1+0x78>
    8b10:	00013a54 	.word	0x00013a54

00008b14 <Proc_4>:
    8b14:	e59f3024 	ldr	r3, [pc, #36]	; 8b40 <Proc_4+0x2c>
    8b18:	e59f1024 	ldr	r1, [pc, #36]	; 8b44 <Proc_4+0x30>
    8b1c:	e5932000 	ldr	r2, [r3]
    8b20:	e5d11000 	ldrb	r1, [r1]
    8b24:	e3510041 	cmp	r1, #65	; 0x41
    8b28:	03822001 	orreq	r2, r2, #1
    8b2c:	e5832000 	str	r2, [r3]
    8b30:	e59f3010 	ldr	r3, [pc, #16]	; 8b48 <Proc_4+0x34>
    8b34:	e3a02042 	mov	r2, #66	; 0x42
    8b38:	e5c32000 	strb	r2, [r3]
    8b3c:	e12fff1e 	bx	lr
    8b40:	00013a5c 	.word	0x00013a5c
    8b44:	00013b2c 	.word	0x00013b2c
    8b48:	00013a50 	.word	0x00013a50

00008b4c <Proc_5>:
    8b4c:	e59f3014 	ldr	r3, [pc, #20]	; 8b68 <Proc_5+0x1c>
    8b50:	e3a02041 	mov	r2, #65	; 0x41
    8b54:	e5c32000 	strb	r2, [r3]
    8b58:	e59f300c 	ldr	r3, [pc, #12]	; 8b6c <Proc_5+0x20>
    8b5c:	e3a02000 	mov	r2, #0
    8b60:	e5832000 	str	r2, [r3]
    8b64:	e12fff1e 	bx	lr
    8b68:	00013b2c 	.word	0x00013b2c
    8b6c:	00013a5c 	.word	0x00013a5c

00008b70 <Proc_6>:
    8b70:	e3500002 	cmp	r0, #2
    8b74:	e5810000 	str	r0, [r1]
    8b78:	0a000013 	beq	8bcc <Proc_6+0x5c>
    8b7c:	e3a03003 	mov	r3, #3
    8b80:	e5813000 	str	r3, [r1]
    8b84:	e3500004 	cmp	r0, #4
    8b88:	979ff100 	ldrls	pc, [pc, r0, lsl #2]
    8b8c:	ea000006 	b	8bac <Proc_6+0x3c>
    8b90:	00008bc0 	.word	0x00008bc0
    8b94:	00008bb0 	.word	0x00008bb0
    8b98:	00008bcc 	.word	0x00008bcc
    8b9c:	00008bac 	.word	0x00008bac
    8ba0:	00008ba4 	.word	0x00008ba4
    8ba4:	e3a03002 	mov	r3, #2
    8ba8:	e5813000 	str	r3, [r1]
    8bac:	e12fff1e 	bx	lr
    8bb0:	e59f3020 	ldr	r3, [pc, #32]	; 8bd8 <Proc_6+0x68>
    8bb4:	e5933000 	ldr	r3, [r3]
    8bb8:	e3530064 	cmp	r3, #100	; 0x64
    8bbc:	d12fff1e 	bxle	lr
    8bc0:	e3a03000 	mov	r3, #0
    8bc4:	e5813000 	str	r3, [r1]
    8bc8:	e12fff1e 	bx	lr
    8bcc:	e3a03001 	mov	r3, #1
    8bd0:	e5813000 	str	r3, [r1]
    8bd4:	e12fff1e 	bx	lr
    8bd8:	00013a58 	.word	0x00013a58

00008bdc <Proc_7>:
    8bdc:	e2800002 	add	r0, r0, #2
    8be0:	e0811000 	add	r1, r1, r0
    8be4:	e5821000 	str	r1, [r2]
    8be8:	e12fff1e 	bx	lr

00008bec <Proc_8>:
    8bec:	e282c005 	add	ip, r2, #5
    8bf0:	e92d0030 	push	{r4, r5}
    8bf4:	e08c410c 	add	r4, ip, ip, lsl #2
    8bf8:	e0844104 	add	r4, r4, r4, lsl #2
    8bfc:	e0814184 	add	r4, r1, r4, lsl #3
    8c00:	e2825023 	add	r5, r2, #35	; 0x23
    8c04:	e2821006 	add	r1, r2, #6
    8c08:	e780310c 	str	r3, [r0, ip, lsl #2]
    8c0c:	e7803101 	str	r3, [r0, r1, lsl #2]
    8c10:	e780c105 	str	ip, [r0, r5, lsl #2]
    8c14:	e784c10c 	str	ip, [r4, ip, lsl #2]
    8c18:	e784c101 	str	ip, [r4, r1, lsl #2]
    8c1c:	e2822004 	add	r2, r2, #4
    8c20:	e7943102 	ldr	r3, [r4, r2, lsl #2]
    8c24:	e2833001 	add	r3, r3, #1
    8c28:	e7843102 	str	r3, [r4, r2, lsl #2]
    8c2c:	e790310c 	ldr	r3, [r0, ip, lsl #2]
    8c30:	e2844efa 	add	r4, r4, #4000	; 0xfa0
    8c34:	e784310c 	str	r3, [r4, ip, lsl #2]
    8c38:	e59f300c 	ldr	r3, [pc, #12]	; 8c4c <Proc_8+0x60>
    8c3c:	e3a02005 	mov	r2, #5
    8c40:	e5832000 	str	r2, [r3]
    8c44:	e8bd0030 	pop	{r4, r5}
    8c48:	e12fff1e 	bx	lr
    8c4c:	00013a58 	.word	0x00013a58

00008c50 <Func_1>:
    8c50:	e1500001 	cmp	r0, r1
    8c54:	059f2010 	ldreq	r2, [pc, #16]	; 8c6c <Func_1+0x1c>
    8c58:	e1a03000 	mov	r3, r0
    8c5c:	05c23000 	strbeq	r3, [r2]
    8c60:	03a00001 	moveq	r0, #1
    8c64:	13a00000 	movne	r0, #0
    8c68:	e12fff1e 	bx	lr
    8c6c:	00013b2c 	.word	0x00013b2c

00008c70 <Func_2>:
    8c70:	e92d4008 	push	{r3, lr}
    8c74:	e5d02002 	ldrb	r2, [r0, #2]
    8c78:	e5d1c003 	ldrb	ip, [r1, #3]
    8c7c:	e59f3034 	ldr	r3, [pc, #52]	; 8cb8 <Func_2+0x48>
    8c80:	e15c0002 	cmp	ip, r2
    8c84:	e5d32000 	ldrb	r2, [r3]
    8c88:	0a000009 	beq	8cb4 <Func_2+0x44>
    8c8c:	e5c32000 	strb	r2, [r3]
    8c90:	ebfffe42 	bl	85a0 <_init+0x20>
    8c94:	e3500000 	cmp	r0, #0
    8c98:	d3a00000 	movle	r0, #0
    8c9c:	c59f3018 	ldrgt	r3, [pc, #24]	; 8cbc <Func_2+0x4c>
    8ca0:	c3a0200a 	movgt	r2, #10
    8ca4:	c5832000 	strgt	r2, [r3]
    8ca8:	c3a00001 	movgt	r0, #1
    8cac:	e8bd4008 	pop	{r3, lr}
    8cb0:	e12fff1e 	bx	lr
    8cb4:	eafffffe 	b	8cb4 <Func_2+0x44>
    8cb8:	00013b2c 	.word	0x00013b2c
    8cbc:	00013a58 	.word	0x00013a58

00008cc0 <Func_3>:
    8cc0:	e2403002 	sub	r3, r0, #2
    8cc4:	e2730000 	rsbs	r0, r3, #0
    8cc8:	e0a00003 	adc	r0, r0, r3
    8ccc:	e12fff1e 	bx	lr

00008cd0 <local_time>:
    8cd0:	e52de004 	push	{lr}		; (str lr, [sp, #-4]!)
    8cd4:	e3a00000 	mov	r0, #0
    8cd8:	e24dd00c 	sub	sp, sp, #12
    8cdc:	ebfffe38 	bl	85c4 <_init+0x44>
    8ce0:	e28d3008 	add	r3, sp, #8
    8ce4:	e5230004 	str	r0, [r3, #-4]!
    8ce8:	e1a00003 	mov	r0, r3
    8cec:	ebfffe4c 	bl	8624 <_init+0xa4>
    8cf0:	ebfffe39 	bl	85dc <_init+0x5c>
    8cf4:	e1a01000 	mov	r1, r0
    8cf8:	e59f000c 	ldr	r0, [pc, #12]	; 8d0c <local_time+0x3c>
    8cfc:	ebfffe39 	bl	85e8 <_init+0x68>
    8d00:	e28dd00c 	add	sp, sp, #12
    8d04:	e49de004 	pop	{lr}		; (ldr lr, [sp], #4)
    8d08:	e12fff1e 	bx	lr
    8d0c:	00013b58 	.word	0x00013b58

00008d10 <getDetails>:
    8d10:	e92d4038 	push	{r3, r4, r5, lr}
    8d14:	e59f00f4 	ldr	r0, [pc, #244]	; 8e10 <getDetails+0x100>
    8d18:	e59f10f4 	ldr	r1, [pc, #244]	; 8e14 <getDetails+0x104>
    8d1c:	ebfffe25 	bl	85b8 <_init+0x38>
    8d20:	e59f40f0 	ldr	r4, [pc, #240]	; 8e18 <getDetails+0x108>
    8d24:	e3500000 	cmp	r0, #0
    8d28:	e5840000 	str	r0, [r4]
    8d2c:	059f40e8 	ldreq	r4, [pc, #232]	; 8e1c <getDetails+0x10c>
    8d30:	0a00002f 	beq	8df4 <getDetails+0xe4>
    8d34:	e1a03000 	mov	r3, r0
    8d38:	e3a01001 	mov	r1, #1
    8d3c:	e3a02b01 	mov	r2, #1024	; 0x400
    8d40:	e59f00d8 	ldr	r0, [pc, #216]	; 8e20 <getDetails+0x110>
    8d44:	ebfffe2a 	bl	85f4 <_init+0x74>
    8d48:	e1a05000 	mov	r5, r0
    8d4c:	e5940000 	ldr	r0, [r4]
    8d50:	ebfffe3f 	bl	8654 <_init+0xd4>
    8d54:	e3550000 	cmp	r5, #0
    8d58:	0a00001b 	beq	8dcc <getDetails+0xbc>
    8d5c:	e59f00c0 	ldr	r0, [pc, #192]	; 8e24 <getDetails+0x114>
    8d60:	e59f10ac 	ldr	r1, [pc, #172]	; 8e14 <getDetails+0x104>
    8d64:	ebfffe13 	bl	85b8 <_init+0x38>
    8d68:	e3500000 	cmp	r0, #0
    8d6c:	e5840000 	str	r0, [r4]
    8d70:	0a00001e 	beq	8df0 <getDetails+0xe0>
    8d74:	e3a01001 	mov	r1, #1
    8d78:	e3a02b01 	mov	r2, #1024	; 0x400
    8d7c:	e1a03000 	mov	r3, r0
    8d80:	e59f00a0 	ldr	r0, [pc, #160]	; 8e28 <getDetails+0x118>
    8d84:	ebfffe1a 	bl	85f4 <_init+0x74>
    8d88:	e59f3088 	ldr	r3, [pc, #136]	; 8e18 <getDetails+0x108>
    8d8c:	e1a05000 	mov	r5, r0
    8d90:	e5930000 	ldr	r0, [r3]
    8d94:	ebfffe2e 	bl	8654 <_init+0xd4>
    8d98:	e3550000 	cmp	r5, #0
    8d9c:	059f4088 	ldreq	r4, [pc, #136]	; 8e2c <getDetails+0x11c>
    8da0:	059fc080 	ldreq	ip, [pc, #128]	; 8e28 <getDetails+0x118>
    8da4:	08b4000f 	ldmeq	r4!, {r0, r1, r2, r3}
    8da8:	08ac000f 	stmiaeq	ip!, {r0, r1, r2, r3}
    8dac:	08b4000f 	ldmeq	r4!, {r0, r1, r2, r3}
    8db0:	08ac000f 	stmiaeq	ip!, {r0, r1, r2, r3}
    8db4:	05943000 	ldreq	r3, [r4]
    8db8:	01cc30b0 	strheq	r3, [ip]
    8dbc:	13a05000 	movne	r5, #0
    8dc0:	e1a00005 	mov	r0, r5
    8dc4:	e8bd4038 	pop	{r3, r4, r5, lr}
    8dc8:	e12fff1e 	bx	lr
    8dcc:	e59fe05c 	ldr	lr, [pc, #92]	; 8e30 <getDetails+0x120>
    8dd0:	e59fc048 	ldr	ip, [pc, #72]	; 8e20 <getDetails+0x110>
    8dd4:	e8be000f 	ldm	lr!, {r0, r1, r2, r3}
    8dd8:	e8ac000f 	stmia	ip!, {r0, r1, r2, r3}
    8ddc:	e8be000f 	ldm	lr!, {r0, r1, r2, r3}
    8de0:	e8ac000f 	stmia	ip!, {r0, r1, r2, r3}
    8de4:	e59e3000 	ldr	r3, [lr]
    8de8:	e1cc30b0 	strh	r3, [ip]
    8dec:	eaffffda 	b	8d5c <getDetails+0x4c>
    8df0:	e59f403c 	ldr	r4, [pc, #60]	; 8e34 <getDetails+0x124>
    8df4:	e8b4000f 	ldm	r4!, {r0, r1, r2, r3}
    8df8:	e59fc020 	ldr	ip, [pc, #32]	; 8e20 <getDetails+0x110>
    8dfc:	e8ac000f 	stmia	ip!, {r0, r1, r2, r3}
    8e00:	e8940007 	ldm	r4, {r0, r1, r2}
    8e04:	e3a05001 	mov	r5, #1
    8e08:	e88c0007 	stm	ip, {r0, r1, r2}
    8e0c:	eaffffeb 	b	8dc0 <getDetails+0xb0>
    8e10:	00009028 	.word	0x00009028
    8e14:	00009038 	.word	0x00009038
    8e18:	00014378 	.word	0x00014378
    8e1c:	0000903c 	.word	0x0000903c
    8e20:	00013b78 	.word	0x00013b78
    8e24:	0000907c 	.word	0x0000907c
    8e28:	00013f78 	.word	0x00013f78
    8e2c:	000090a8 	.word	0x000090a8
    8e30:	00009058 	.word	0x00009058
    8e34:	0000908c 	.word	0x0000908c

00008e38 <__libc_csu_init>:
    8e38:	e92d45f8 	push	{r3, r4, r5, r6, r7, r8, sl, lr}
    8e3c:	e1a06000 	mov	r6, r0
    8e40:	e59f5048 	ldr	r5, [pc, #72]	; 8e90 <__libc_csu_init+0x58>
    8e44:	e59fa048 	ldr	sl, [pc, #72]	; 8e94 <__libc_csu_init+0x5c>
    8e48:	e08f5005 	add	r5, pc, r5
    8e4c:	e08fa00a 	add	sl, pc, sl
    8e50:	e065a00a 	rsb	sl, r5, sl
    8e54:	e1a07001 	mov	r7, r1
    8e58:	e1a08002 	mov	r8, r2
    8e5c:	ebfffdc7 	bl	8580 <_init>
    8e60:	e1b0a14a 	asrs	sl, sl, #2
    8e64:	08bd85f8 	popeq	{r3, r4, r5, r6, r7, r8, sl, pc}
    8e68:	e3a04000 	mov	r4, #0
    8e6c:	e4953004 	ldr	r3, [r5], #4
    8e70:	e1a00006 	mov	r0, r6
    8e74:	e1a01007 	mov	r1, r7
    8e78:	e1a02008 	mov	r2, r8
    8e7c:	e2844001 	add	r4, r4, #1
    8e80:	e12fff33 	blx	r3
    8e84:	e154000a 	cmp	r4, sl
    8e88:	1afffff7 	bne	8e6c <__libc_csu_init+0x34>
    8e8c:	e8bd85f8 	pop	{r3, r4, r5, r6, r7, r8, sl, pc}
    8e90:	00008288 	.word	0x00008288
    8e94:	00008288 	.word	0x00008288

00008e98 <__libc_csu_fini>:
    8e98:	e12fff1e 	bx	lr

Disassembly of section .fini:

00008e9c <_fini>:
    8e9c:	e92d4008 	push	{r3, lr}
    8ea0:	e8bd8008 	pop	{r3, pc}
