
dhry:     file format elf32-littlearm


Disassembly of section .init:

00008374 <_init>:
    8374:   e92d4008    push    {r3, lr}
    8378:   eb0000b1    bl  8644 <call_gmon_start>
    837c:   e8bd8008    pop {r3, pc}

Disassembly of section .plt:

00008380 <.plt>:
    8380:   e52de004    push    {lr}        ; (str lr, [sp, #-4]!)
    8384:   e59fe004    ldr lr, [pc, #4]    ; 8390 <_init+0x1c>
    8388:   e08fe00e    add lr, pc, lr
    838c:   e5bef008    ldr pc, [lr, #8]!
    8390:   00008d6c    .word   0x00008d6c
    8394:   e28fc600    add ip, pc, #0
    8398:   e28cca08    add ip, ip, #32768  ; 0x8000
    839c:   e5bcfd6c    ldr pc, [ip, #3436]!    ; 0xd6c
    83a0:   e28fc600    add ip, pc, #0
    83a4:   e28cca08    add ip, ip, #32768  ; 0x8000
    83a8:   e5bcfd64    ldr pc, [ip, #3428]!    ; 0xd64
    83ac:   e28fc600    add ip, pc, #0
    83b0:   e28cca08    add ip, ip, #32768  ; 0x8000
    83b4:   e5bcfd5c    ldr pc, [ip, #3420]!    ; 0xd5c
    83b8:   e28fc600    add ip, pc, #0
    83bc:   e28cca08    add ip, ip, #32768  ; 0x8000
    83c0:   e5bcfd54    ldr pc, [ip, #3412]!    ; 0xd54
    83c4:   e28fc600    add ip, pc, #0
    83c8:   e28cca08    add ip, ip, #32768  ; 0x8000
    83cc:   e5bcfd4c    ldr pc, [ip, #3404]!    ; 0xd4c
    83d0:   e28fc600    add ip, pc, #0
    83d4:   e28cca08    add ip, ip, #32768  ; 0x8000
    83d8:   e5bcfd44    ldr pc, [ip, #3396]!    ; 0xd44
    83dc:   e28fc600    add ip, pc, #0
    83e0:   e28cca08    add ip, ip, #32768  ; 0x8000
    83e4:   e5bcfd3c    ldr pc, [ip, #3388]!    ; 0xd3c
    83e8:   e28fc600    add ip, pc, #0
    83ec:   e28cca08    add ip, ip, #32768  ; 0x8000
    83f0:   e5bcfd34    ldr pc, [ip, #3380]!    ; 0xd34

Disassembly of section .text:

000083f4 <main>:
    83f4:   e92d4ff0    push    {r4, r5, r6, r7, r8, r9, sl, fp, lr}
    83f8:   e3a00030    mov r0, #48 ; 0x30
    83fc:   e24dd04c    sub sp, sp, #76 ; 0x4c
    8400:   eb0000ab    bl  86b4 <malloc0>
    8404:   e59f41a8    ldr r4, [pc, #424]  ; 85b4 <main+0x1c0>
    8408:   e5840000    str r0, [r4]
    840c:   e3a00030    mov r0, #48 ; 0x30
    8410:   eb0000a7    bl  86b4 <malloc0>
    8414:   e59fa19c    ldr sl, [pc, #412]  ; 85b8 <main+0x1c4>
    8418:   e5943000    ldr r3, [r4]
    841c:   e3a02000    mov r2, #0
    8420:   e3a0c028    mov ip, #40 ; 0x28
    8424:   e58a0000    str r0, [sl]
    8428:   e5803000    str r3, [r0]
    842c:   e3a03002    mov r3, #2
    8430:   e980100c    stmib   r0, {r2, r3, ip}
    8434:   e59f5180    ldr r5, [pc, #384]  ; 85bc <main+0x1c8>
    8438:   e59f1180    ldr r1, [pc, #384]  ; 85c0 <main+0x1cc>
    843c:   e2800010    add r0, r0, #16
    8440:   e3a0400a    mov r4, #10
    8444:   eb0000b7    bl  8728 <strcpy0>
    8448:   e59f1174    ldr r1, [pc, #372]  ; 85c4 <main+0x1d0>
    844c:   e1a0000d    mov r0, sp
    8450:   eb0000b4    bl  8728 <strcpy0>
    8454:   e585465c    str r4, [r5, #1628] ; 0x65c
    8458:   e59f0168    ldr r0, [pc, #360]  ; 85c8 <main+0x1d4>
    845c:   ebffffd2    bl  83ac <_init+0x38>
    8460:   e1a00004    mov r0, r4
    8464:   ebffffd9    bl  83d0 <_init+0x5c>
    8468:   e59f015c    ldr r0, [pc, #348]  ; 85cc <main+0x1d8>
    846c:   ebffffce    bl  83ac <_init+0x38>
    8470:   e1a00004    mov r0, r4
    8474:   ebffffd5    bl  83d0 <_init+0x5c>
    8478:   e59f1150    ldr r1, [pc, #336]  ; 85d0 <main+0x1dc>
    847c:   e59f0150    ldr r0, [pc, #336]  ; 85d4 <main+0x1e0>
    8480:   ebffffc6    bl  83a0 <_init+0x2c>
    8484:   e59f014c    ldr r0, [pc, #332]  ; 85d8 <main+0x1e4>
    8488:   ebffffc7    bl  83ac <_init+0x38>
    848c:   e59f0148    ldr r0, [pc, #328]  ; 85dc <main+0x1e8>
    8490:   e59f1148    ldr r1, [pc, #328]  ; 85e0 <main+0x1ec>
    8494:   eb0000a3    bl  8728 <strcpy0>
    8498:   e59f9144    ldr r9, [pc, #324]  ; 85e4 <main+0x1f0>
    849c:   e585465c    str r4, [r5, #1628] ; 0x65c
    84a0:   e59f7140    ldr r7, [pc, #320]  ; 85e8 <main+0x1f4>
    84a4:   e59f4140    ldr r4, [pc, #320]  ; 85ec <main+0x1f8>
    84a8:   e59f8140    ldr r8, [pc, #320]  ; 85f0 <main+0x1fc>
    84ac:   e3a05001    mov r5, #1
    84b0:   e3a03042    mov r3, #66 ; 0x42
    84b4:   e5c43000    strb    r3, [r4]
    84b8:   e3a0b001    mov fp, #1
    84bc:   e59f1130    ldr r1, [pc, #304]  ; 85f4 <main+0x200>
    84c0:   e3a06041    mov r6, #65 ; 0x41
    84c4:   e28d0020    add r0, sp, #32
    84c8:   e5c96000    strb    r6, [r9]
    84cc:   e587b000    str fp, [r7]
    84d0:   eb000094    bl  8728 <strcpy0>
    84d4:   e28d1020    add r1, sp, #32
    84d8:   e1a0000d    mov r0, sp
    84dc:   e58db044    str fp, [sp, #68]   ; 0x44
    84e0:   eb000138    bl  89c8 <Func_2>
    84e4:   e2703001    rsbs    r3, r0, #1
    84e8:   33a03000    movcc   r3, #0
    84ec:   e3a01003    mov r1, #3
    84f0:   e28d2040    add r2, sp, #64 ; 0x40
    84f4:   e3a00002    mov r0, #2
    84f8:   e5873000    str r3, [r7]
    84fc:   e3a03007    mov r3, #7
    8500:   e58d3040    str r3, [sp, #64]   ; 0x40
    8504:   eb00010a    bl  8934 <Proc_7>
    8508:   e59d3040    ldr r3, [sp, #64]   ; 0x40
    850c:   e59f00e4    ldr r0, [pc, #228]  ; 85f8 <main+0x204>
    8510:   e59f10a4    ldr r1, [pc, #164]  ; 85bc <main+0x1c8>
    8514:   e3a02003    mov r2, #3
    8518:   eb000109    bl  8944 <Proc_8>
    851c:   e59a0000    ldr r0, [sl]
    8520:   eb0000a3    bl  87b4 <Proc_1>
    8524:   e5d43000    ldrb    r3, [r4]
    8528:   e3530040    cmp r3, #64 ; 0x40
    852c:   8a000005    bhi 8548 <main+0x154>
    8530:   ea000016    b   8590 <main+0x19c>
    8534:   e2866001    add r6, r6, #1
    8538:   e5d43000    ldrb    r3, [r4]
    853c:   e20660ff    and r6, r6, #255    ; 0xff
    8540:   e1530006    cmp r3, r6
    8544:   3a000011    bcc 8590 <main+0x19c>
    8548:   e1a00006    mov r0, r6
    854c:   e3a01043    mov r1, #67 ; 0x43
    8550:   eb000114    bl  89a8 <Func_1>
    8554:   e59d3044    ldr r3, [sp, #68]   ; 0x44
    8558:   e1500003    cmp r0, r3
    855c:   1afffff4    bne 8534 <main+0x140>
    8560:   e28d1044    add r1, sp, #68 ; 0x44
    8564:   e3a00000    mov r0, #0
    8568:   eb0000d6    bl  88c8 <Proc_6>
    856c:   e28d0020    add r0, sp, #32
    8570:   e59f1084    ldr r1, [pc, #132]  ; 85fc <main+0x208>
    8574:   eb00006b    bl  8728 <strcpy0>
    8578:   e2866001    add r6, r6, #1
    857c:   e5d43000    ldrb    r3, [r4]
    8580:   e20660ff    and r6, r6, #255    ; 0xff
    8584:   e1530006    cmp r3, r6
    8588:   e5885000    str r5, [r8]
    858c:   2affffed    bcs 8548 <main+0x154>
    8590:   e59f3068    ldr r3, [pc, #104]  ; 8600 <main+0x20c>
    8594:   e2855001    add r5, r5, #1
    8598:   e1550003    cmp r5, r3
    859c:   1affffc3    bne 84b0 <main+0xbc>
    85a0:   e59f005c    ldr r0, [pc, #92]   ; 8604 <main+0x210>
    85a4:   ebffff80    bl  83ac <_init+0x38>
    85a8:   e28dd04c    add sp, sp, #76 ; 0x4c
    85ac:   e8bd4ff0    pop {r4, r5, r6, r7, r8, r9, sl, fp, lr}
    85b0:   e12fff1e    bx  lr
    85b4:   00013888    .word   0x00013888
    85b8:   0001387c    .word   0x0001387c
    85bc:   00011168    .word   0x00011168
    85c0:   00008a98    .word   0x00008a98
    85c4:   00008ab8    .word   0x00008ab8
    85c8:   00008ad8    .word   0x00008ad8
    85cc:   00008b04    .word   0x00008b04
    85d0:   00008b50    .word   0x00008b50
    85d4:   00008b3c    .word   0x00008b3c
    85d8:   00008b60    .word   0x00008b60
    85dc:   00011134    .word   0x00011134
    85e0:   00008b80    .word   0x00008b80
    85e4:   00013954    .word   0x00013954
    85e8:   00013884    .word   0x00013884
    85ec:   00013878    .word   0x00013878
    85f0:   00013880    .word   0x00013880
    85f4:   00008ba0    .word   0x00008ba0
    85f8:   0001388c    .word   0x0001388c
    85fc:   00008bc0    .word   0x00008bc0
    8600:   00002711    .word   0x00002711
    8604:   00008be0    .word   0x00008be0

00008608 <_start>:
    8608:   e3a0b000    mov fp, #0
    860c:   e3a0e000    mov lr, #0
    8610:   e49d1004    pop {r1}        ; (ldr r1, [sp], #4)
    8614:   e1a0200d    mov r2, sp
    8618:   e52d2004    push    {r2}        ; (str r2, [sp, #-4]!)
    861c:   e52d0004    push    {r0}        ; (str r0, [sp, #-4]!)
    8620:   e59fc010    ldr ip, [pc, #16]   ; 8638 <_start+0x30>
    8624:   e52dc004    push    {ip}        ; (str ip, [sp, #-4]!)
    8628:   e59f000c    ldr r0, [pc, #12]   ; 863c <_start+0x34>
    862c:   e59f300c    ldr r3, [pc, #12]   ; 8640 <_start+0x38>
    8630:   ebffff60    bl  83b8 <_init+0x44>
    8634:   ebffff6b    bl  83e8 <_init+0x74>
    8638:   00008a88    .word   0x00008a88
    863c:   000083f4    .word   0x000083f4
    8640:   00008a28    .word   0x00008a28

00008644 <call_gmon_start>:
    8644:   e59f3014    ldr r3, [pc, #20]   ; 8660 <call_gmon_start+0x1c>
    8648:   e59f2014    ldr r2, [pc, #20]   ; 8664 <call_gmon_start+0x20>
    864c:   e08f3003    add r3, pc, r3
    8650:   e7933002    ldr r3, [r3, r2]
    8654:   e3530000    cmp r3, #0
    8658:   012fff1e    bxeq    lr
    865c:   eaffff58    b   83c4 <_init+0x50>
    8660:   00008aa8    .word   0x00008aa8
    8664:   0000002c    .word   0x0000002c

00008668 <__do_global_dtors_aux>:
    8668:   e59f3010    ldr r3, [pc, #16]   ; 8680 <__do_global_dtors_aux+0x18>
    866c:   e5d32000    ldrb    r2, [r3]
    8670:   e3520000    cmp r2, #0
    8674:   03a02001    moveq   r2, #1
    8678:   05c32000    strbeq  r2, [r3]
    867c:   e12fff1e    bx  lr
    8680:   0001115c    .word   0x0001115c

00008684 <frame_dummy>:
    8684:   e59f0020    ldr r0, [pc, #32]   ; 86ac <frame_dummy+0x28>
    8688:   e92d4008    push    {r3, lr}
    868c:   e5903000    ldr r3, [r0]
    8690:   e3530000    cmp r3, #0
    8694:   08bd8008    popeq   {r3, pc}
    8698:   e59f3010    ldr r3, [pc, #16]   ; 86b0 <frame_dummy+0x2c>
    869c:   e3530000    cmp r3, #0
    86a0:   08bd8008    popeq   {r3, pc}
    86a4:   e12fff33    blx r3
    86a8:   e8bd8008    pop {r3, pc}
    86ac:   00011008    .word   0x00011008
    86b0:   00000000    .word   0x00000000

000086b4 <malloc0>:
    86b4:   e59f2068    ldr r2, [pc, #104]  ; 8724 <malloc0+0x70>
    86b8:   e5923004    ldr r3, [r2, #4]
    86bc:   e2800013    add r0, r0, #19
    86c0:   e3530000    cmp r3, #0
    86c4:   e92d4010    push    {r4, lr}
    86c8:   e3c0400f    bic r4, r0, #15
    86cc:   0a00000a    beq 86fc <malloc0+0x48>
    86d0:   e5931000    ldr r1, [r3]
    86d4:   e1540001    cmp r4, r1
    86d8:   8a000003    bhi 86ec <malloc0+0x38>
    86dc:   ea00000b    b   8710 <malloc0+0x5c>
    86e0:   e5931000    ldr r1, [r3]
    86e4:   e1540001    cmp r4, r1
    86e8:   9a000009    bls 8714 <malloc0+0x60>
    86ec:   e2832004    add r2, r3, #4
    86f0:   e5933004    ldr r3, [r3, #4]
    86f4:   e3530000    cmp r3, #0
    86f8:   1afffff8    bne 86e0 <malloc0+0x2c>
    86fc:   e1a00004    mov r0, r4
    8700:   ebffff35    bl  83dc <_init+0x68>
    8704:   e4804004    str r4, [r0], #4
    8708:   e8bd4010    pop {r4, lr}
    870c:   e12fff1e    bx  lr
    8710:   e2822004    add r2, r2, #4
    8714:   e1a00003    mov r0, r3
    8718:   e5b03004    ldr r3, [r0, #4]!
    871c:   e5823000    str r3, [r2]
    8720:   eafffff8    b   8708 <malloc0+0x54>
    8724:   00011160    .word   0x00011160

00008728 <strcpy0>:
    8728:   e0612000    rsb r2, r1, r0
    872c:   e2411001    sub r1, r1, #1
    8730:   e5f13001    ldrb    r3, [r1, #1]!
    8734:   e3530000    cmp r3, #0
    8738:   e7c13002    strb    r3, [r1, r2]
    873c:   1afffffb    bne 8730 <strcpy0+0x8>
    8740:   e12fff1e    bx  lr

00008744 <Proc_2>:
    8744:   e59f3020    ldr r3, [pc, #32]   ; 876c <Proc_2+0x28>
    8748:   e5d33000    ldrb    r3, [r3]
    874c:   e3530041    cmp r3, #65 ; 0x41
    8750:   059f2018    ldreq   r2, [pc, #24]   ; 8770 <Proc_2+0x2c>
    8754:   e5903000    ldr r3, [r0]
    8758:   05922000    ldreq   r2, [r2]
    875c:   02833009    addeq   r3, r3, #9
    8760:   00623003    rsbeq   r3, r2, r3
    8764:   05803000    streq   r3, [r0]
    8768:   e12fff1e    bx  lr
    876c:   00013954    .word   0x00013954
    8770:   00013880    .word   0x00013880

00008774 <Proc_3>:
    8774:   e92d4008    push    {r3, lr}
    8778:   e59f302c    ldr r3, [pc, #44]   ; 87ac <Proc_3+0x38>
    877c:   e5932000    ldr r2, [r3]
    8780:   e3520000    cmp r2, #0
    8784:   15922000    ldrne   r2, [r2]
    8788:   15802000    strne   r2, [r0]
    878c:   15932000    ldrne   r2, [r3]
    8790:   e59f3018    ldr r3, [pc, #24]   ; 87b0 <Proc_3+0x3c>
    8794:   e3a0000a    mov r0, #10
    8798:   e5931000    ldr r1, [r3]
    879c:   e282200c    add r2, r2, #12
    87a0:   eb000063    bl  8934 <Proc_7>
    87a4:   e8bd4008    pop {r3, lr}
    87a8:   e12fff1e    bx  lr
    87ac:   0001387c    .word   0x0001387c
    87b0:   00013880    .word   0x00013880

000087b4 <Proc_1>:
    87b4:   e92d40f8    push    {r3, r4, r5, r6, r7, lr}
    87b8:   e59f60a8    ldr r6, [pc, #168]  ; 8868 <Proc_1+0xb4>
    87bc:   e596e000    ldr lr, [r6]
    87c0:   e5904000    ldr r4, [r0]
    87c4:   e1a05000    mov r5, r0
    87c8:   e8be000f    ldm lr!, {r0, r1, r2, r3}
    87cc:   e1a0c004    mov ip, r4
    87d0:   e8ac000f    stmia   ip!, {r0, r1, r2, r3}
    87d4:   e8be000f    ldm lr!, {r0, r1, r2, r3}
    87d8:   e8ac000f    stmia   ip!, {r0, r1, r2, r3}
    87dc:   e5957000    ldr r7, [r5]
    87e0:   e89e000f    ldm lr, {r0, r1, r2, r3}
    87e4:   e3a0e005    mov lr, #5
    87e8:   e88c000f    stm ip, {r0, r1, r2, r3}
    87ec:   e585e00c    str lr, [r5, #12]
    87f0:   e5847000    str r7, [r4]
    87f4:   e584e00c    str lr, [r4, #12]
    87f8:   e1a00004    mov r0, r4
    87fc:   ebffffdc    bl  8774 <Proc_3>
    8800:   e5943004    ldr r3, [r4, #4]
    8804:   e3530000    cmp r3, #0
    8808:   0a000009    beq 8834 <Proc_1+0x80>
    880c:   e5954000    ldr r4, [r5]
    8810:   e8b4000f    ldm r4!, {r0, r1, r2, r3}
    8814:   e1a0c005    mov ip, r5
    8818:   e8ac000f    stmia   ip!, {r0, r1, r2, r3}
    881c:   e8b4000f    ldm r4!, {r0, r1, r2, r3}
    8820:   e8ac000f    stmia   ip!, {r0, r1, r2, r3}
    8824:   e894000f    ldm r4, {r0, r1, r2, r3}
    8828:   e88c000f    stm ip, {r0, r1, r2, r3}
    882c:   e8bd40f8    pop {r3, r4, r5, r6, r7, lr}
    8830:   e12fff1e    bx  lr
    8834:   e3a03006    mov r3, #6
    8838:   e5950008    ldr r0, [r5, #8]
    883c:   e2841008    add r1, r4, #8
    8840:   e584300c    str r3, [r4, #12]
    8844:   eb00001f    bl  88c8 <Proc_6>
    8848:   e5963000    ldr r3, [r6]
    884c:   e5933000    ldr r3, [r3]
    8850:   e1a02004    mov r2, r4
    8854:   e5b2000c    ldr r0, [r2, #12]!
    8858:   e5843000    str r3, [r4]
    885c:   e3a0100a    mov r1, #10
    8860:   eb000033    bl  8934 <Proc_7>
    8864:   eafffff0    b   882c <Proc_1+0x78>
    8868:   0001387c    .word   0x0001387c

0000886c <Proc_4>:
    886c:   e59f3024    ldr r3, [pc, #36]   ; 8898 <Proc_4+0x2c>
    8870:   e59f1024    ldr r1, [pc, #36]   ; 889c <Proc_4+0x30>
    8874:   e5932000    ldr r2, [r3]
    8878:   e5d11000    ldrb    r1, [r1]
    887c:   e3510041    cmp r1, #65 ; 0x41
    8880:   03822001    orreq   r2, r2, #1
    8884:   e5832000    str r2, [r3]
    8888:   e59f3010    ldr r3, [pc, #16]   ; 88a0 <Proc_4+0x34>
    888c:   e3a02042    mov r2, #66 ; 0x42
    8890:   e5c32000    strb    r2, [r3]
    8894:   e12fff1e    bx  lr
    8898:   00013884    .word   0x00013884
    889c:   00013954    .word   0x00013954
    88a0:   00013878    .word   0x00013878

000088a4 <Proc_5>:
    88a4:   e59f3014    ldr r3, [pc, #20]   ; 88c0 <Proc_5+0x1c>
    88a8:   e3a02041    mov r2, #65 ; 0x41
    88ac:   e5c32000    strb    r2, [r3]
    88b0:   e59f300c    ldr r3, [pc, #12]   ; 88c4 <Proc_5+0x20>
    88b4:   e3a02000    mov r2, #0
    88b8:   e5832000    str r2, [r3]
    88bc:   e12fff1e    bx  lr
    88c0:   00013954    .word   0x00013954
    88c4:   00013884    .word   0x00013884

000088c8 <Proc_6>:
    88c8:   e3500002    cmp r0, #2
    88cc:   e5810000    str r0, [r1]
    88d0:   0a000013    beq 8924 <Proc_6+0x5c>
    88d4:   e3a03003    mov r3, #3
    88d8:   e5813000    str r3, [r1]
    88dc:   e3500004    cmp r0, #4
    88e0:   979ff100    ldrls   pc, [pc, r0, lsl #2]
    88e4:   ea000006    b   8904 <Proc_6+0x3c>
    88e8:   00008918    .word   0x00008918
    88ec:   00008908    .word   0x00008908
    88f0:   00008924    .word   0x00008924
    88f4:   00008904    .word   0x00008904
    88f8:   000088fc    .word   0x000088fc
    88fc:   e3a03002    mov r3, #2
    8900:   e5813000    str r3, [r1]
    8904:   e12fff1e    bx  lr
    8908:   e59f3020    ldr r3, [pc, #32]   ; 8930 <Proc_6+0x68>
    890c:   e5933000    ldr r3, [r3]
    8910:   e3530064    cmp r3, #100    ; 0x64
    8914:   d12fff1e    bxle    lr
    8918:   e3a03000    mov r3, #0
    891c:   e5813000    str r3, [r1]
    8920:   e12fff1e    bx  lr
    8924:   e3a03001    mov r3, #1
    8928:   e5813000    str r3, [r1]
    892c:   e12fff1e    bx  lr
    8930:   00013880    .word   0x00013880

00008934 <Proc_7>:
    8934:   e2800002    add r0, r0, #2
    8938:   e0811000    add r1, r1, r0
    893c:   e5821000    str r1, [r2]
    8940:   e12fff1e    bx  lr

00008944 <Proc_8>:
    8944:   e282c005    add ip, r2, #5
    8948:   e92d0030    push    {r4, r5}
    894c:   e08c410c    add r4, ip, ip, lsl #2
    8950:   e0844104    add r4, r4, r4, lsl #2
    8954:   e0814184    add r4, r1, r4, lsl #3
    8958:   e2825023    add r5, r2, #35 ; 0x23
    895c:   e2821006    add r1, r2, #6
    8960:   e780310c    str r3, [r0, ip, lsl #2]
    8964:   e7803101    str r3, [r0, r1, lsl #2]
    8968:   e780c105    str ip, [r0, r5, lsl #2]
    896c:   e784c10c    str ip, [r4, ip, lsl #2]
    8970:   e784c101    str ip, [r4, r1, lsl #2]
    8974:   e2822004    add r2, r2, #4
    8978:   e7943102    ldr r3, [r4, r2, lsl #2]
    897c:   e2833001    add r3, r3, #1
    8980:   e7843102    str r3, [r4, r2, lsl #2]
    8984:   e790310c    ldr r3, [r0, ip, lsl #2]
    8988:   e2844efa    add r4, r4, #4000   ; 0xfa0
    898c:   e784310c    str r3, [r4, ip, lsl #2]
    8990:   e59f300c    ldr r3, [pc, #12]   ; 89a4 <Proc_8+0x60>
    8994:   e3a02005    mov r2, #5
    8998:   e5832000    str r2, [r3]
    899c:   e8bd0030    pop {r4, r5}
    89a0:   e12fff1e    bx  lr
    89a4:   00013880    .word   0x00013880

000089a8 <Func_1>:
    89a8:   e1500001    cmp r0, r1
    89ac:   059f2010    ldreq   r2, [pc, #16]   ; 89c4 <Func_1+0x1c>
    89b0:   e1a03000    mov r3, r0
    89b4:   05c23000    strbeq  r3, [r2]
    89b8:   03a00001    moveq   r0, #1
    89bc:   13a00000    movne   r0, #0
    89c0:   e12fff1e    bx  lr
    89c4:   00013954    .word   0x00013954

000089c8 <Func_2>:
    89c8:   e92d4008    push    {r3, lr}
    89cc:   e5d02002    ldrb    r2, [r0, #2]
    89d0:   e5d1c003    ldrb    ip, [r1, #3]
    89d4:   e59f3034    ldr r3, [pc, #52]   ; 8a10 <Func_2+0x48>
    89d8:   e15c0002    cmp ip, r2
    89dc:   e5d32000    ldrb    r2, [r3]
    89e0:   0a000009    beq 8a0c <Func_2+0x44>
    89e4:   e5c32000    strb    r2, [r3]
    89e8:   ebfffe69    bl  8394 <_init+0x20>
    89ec:   e3500000    cmp r0, #0
    89f0:   d3a00000    movle   r0, #0
    89f4:   c59f3018    ldrgt   r3, [pc, #24]   ; 8a14 <Func_2+0x4c>
    89f8:   c3a0200a    movgt   r2, #10
    89fc:   c5832000    strgt   r2, [r3]
    8a00:   c3a00001    movgt   r0, #1
    8a04:   e8bd4008    pop {r3, lr}
    8a08:   e12fff1e    bx  lr
    8a0c:   eafffffe    b   8a0c <Func_2+0x44>
    8a10:   00013954    .word   0x00013954
    8a14:   00013880    .word   0x00013880

00008a18 <Func_3>:
    8a18:   e2403002    sub r3, r0, #2
    8a1c:   e2730000    rsbs    r0, r3, #0
    8a20:   e0a00003    adc r0, r0, r3
    8a24:   e12fff1e    bx  lr

00008a28 <__libc_csu_init>:
    8a28:   e92d45f8    push    {r3, r4, r5, r6, r7, r8, sl, lr}
    8a2c:   e1a06000    mov r6, r0
    8a30:   e59f5048    ldr r5, [pc, #72]   ; 8a80 <__libc_csu_init+0x58>
    8a34:   e59fa048    ldr sl, [pc, #72]   ; 8a84 <__libc_csu_init+0x5c>
    8a38:   e08f5005    add r5, pc, r5
    8a3c:   e08fa00a    add sl, pc, sl
    8a40:   e065a00a    rsb sl, r5, sl
    8a44:   e1a07001    mov r7, r1
    8a48:   e1a08002    mov r8, r2
    8a4c:   ebfffe48    bl  8374 <_init>
    8a50:   e1b0a14a    asrs    sl, sl, #2
    8a54:   08bd85f8    popeq   {r3, r4, r5, r6, r7, r8, sl, pc}
    8a58:   e3a04000    mov r4, #0
    8a5c:   e4953004    ldr r3, [r5], #4
    8a60:   e1a00006    mov r0, r6
    8a64:   e1a01007    mov r1, r7
    8a68:   e1a02008    mov r2, r8
    8a6c:   e2844001    add r4, r4, #1
    8a70:   e12fff33    blx r3
    8a74:   e154000a    cmp r4, sl
    8a78:   1afffff7    bne 8a5c <__libc_csu_init+0x34>
    8a7c:   e8bd85f8    pop {r3, r4, r5, r6, r7, r8, sl, pc}
    8a80:   000085c0    .word   0x000085c0
    8a84:   000085c0    .word   0x000085c0

00008a88 <__libc_csu_fini>:
    8a88:   e12fff1e    bx  lr

Disassembly of section .fini:

00008a8c <_fini>:
    8a8c:   e92d4008    push    {r3, lr}
    8a90:   e8bd8008    pop {r3, pc}
