
enCaches.o:     file format elf32-littlearm


Disassembly of section .text:

00000000 <start>:
   0:	ea000053 	b	154 <reset>
   4:	ea000056 	b	164 <undef>
   8:	ea000052 	b	158 <swi>
   c:	ea000055 	b	168 <pfa>
  10:	ea000055 	b	16c <da>
  14:	e1a00000 	nop			; (mov r0, r0)
  18:	ea000054 	b	170 <irq>
  1c:	ea000054 	b	174 <fiq>

00000020 <prog>:
  20:	e3a01c03 	mov	r1, #768	; 0x300
  24:	ee011f10 	mcr	15, 0, r1, cr1, cr0, {0}
  28:	e3a01603 	mov	r1, #3145728	; 0x300000
  2c:	e59f2144 	ldr	r2, [pc, #324]	; 178 <fiq+0x4>
  30:	e5812000 	str	r2, [r1]
  34:	e59f1140 	ldr	r1, [pc, #320]	; 17c <fiq+0x8>
  38:	e59f2140 	ldr	r2, [pc, #320]	; 180 <fiq+0xc>
  3c:	e5812000 	str	r2, [r1]
  40:	e59f113c 	ldr	r1, [pc, #316]	; 184 <fiq+0x10>
  44:	e59f213c 	ldr	r2, [pc, #316]	; 188 <fiq+0x14>
  48:	e5812000 	str	r2, [r1]
  4c:	e3a01603 	mov	r1, #3145728	; 0x300000
  50:	ee021f10 	mcr	15, 0, r1, cr2, cr0, {0}
  54:	ee011f10 	mcr	15, 0, r1, cr1, cr0, {0}
  58:	e3811001 	orr	r1, r1, #1
  5c:	ee011f10 	mcr	15, 0, r1, cr1, cr0, {0}
  60:	ee011f10 	mcr	15, 0, r1, cr1, cr0, {0}
  64:	e3811a01 	orr	r1, r1, #4096	; 0x1000
  68:	ee011f10 	mcr	15, 0, r1, cr1, cr0, {0}
  6c:	ee011f10 	mcr	15, 0, r1, cr1, cr0, {0}
  70:	e3811004 	orr	r1, r1, #4
  74:	ee011f10 	mcr	15, 0, r1, cr1, cr0, {0}
  78:	e3a00000 	mov	r0, #0 ; # Start of the ldrb test
  7c:	e2804001 	add	r4, r0, #1 # Place 1 into r4
  80:	e2802c01 	add	r2, r0, #256	; 0x100 # Place 256 into r2
  84:	e2833c03 	add	r3, r3, #768	; 0x300 # P
  88:	e5830004 	str	r0, [r3, #4]
  8c:	e7c33104 	strb	r3, [r3, r4, lsl #2]
  90:	e7d31104 	ldrb	r1, [r3, r4, lsl #2]
  94:	e3a03c02 	mov	r3, #512	; 0x200
  98:	e7833104 	str	r3, [r3, r4, lsl #2]
  9c:	e7935104 	ldr	r5, [r3, r4, lsl #2]
  a0:	e5833000 	str	r3, [r3]
  a4:	e5f36001 	ldrb	r6, [r3, #1]!
  a8:	e083b00b 	add	fp, r3, fp
  ac:	e4d37001 	ldrb	r7, [r3], #1
  b0:	e083b00b 	add	fp, r3, fp
  b4:	e083b00b 	add	fp, r3, fp
  b8:	e3a03c02 	mov	r3, #512	; 0x200
  bc:	e4938004 	ldr	r8, [r3], #4
  c0:	e083b00b 	add	fp, r3, fp
  c4:	e5339004 	ldr	r9, [r3, #-4]!
  c8:	e083b00b 	add	fp, r3, fp
  cc:	e7f3a104 	ldrb	sl, [r3, r4, lsl #2]!
  d0:	e083b00b 	add	fp, r3, fp
  d4:	e3a03c02 	mov	r3, #512	; 0x200
  d8:	e6c53104 	strb	r3, [r5], r4, lsl #2
  dc:	e083b00b 	add	fp, r3, fp
  e0:	e3a03c02 	mov	r3, #512	; 0x200
  e4:	e6d5c104 	ldrb	ip, [r5], r4, lsl #2
  e8:	e083b00b 	add	fp, r3, fp
  ec:	e3a03c02 	mov	r3, #512	; 0x200
  f0:	e6853104 	str	r3, [r5], r4, lsl #2
  f4:	e083b00b 	add	fp, r3, fp
  f8:	e3a03c02 	mov	r3, #512	; 0x200
  fc:	e695d104 	ldr	sp, [r5], r4, lsl #2
 100:	e3a03c02 	mov	r3, #512	; 0x200
 104:	e59f5080 	ldr	r5, [pc, #128]	; 18c <fiq+0x18>
 108:	e5835000 	str	r5, [r3]
 10c:	e59f507c 	ldr	r5, [pc, #124]	; 190 <fiq+0x1c>
 110:	e5c35003 	strb	r5, [r3, #3]
 114:	e5930000 	ldr	r0, [r3]
 118:	e59f5074 	ldr	r5, [pc, #116]	; 194 <fiq+0x20>
 11c:	e5c35002 	strb	r5, [r3, #2]
 120:	e5930000 	ldr	r0, [r3]
 124:	e5c35001 	strb	r5, [r3, #1]
 128:	e5930000 	ldr	r0, [r3]
 12c:	e5c35000 	strb	r5, [r3]
 130:	e5930000 	ldr	r0, [r3]
 134:	e5d30002 	ldrb	r0, [r3, #2]
 138:	e59f6058 	ldr	r6, [pc, #88]	; 198 <fiq+0x24>
 13c:	e59f5058 	ldr	r5, [pc, #88]	; 19c <fiq+0x28>
 140:	e5c65000 	strb	r5, [r6]
 144:	e5960000 	ldr	r0, [r6]
 148:	e3a03c02 	mov	r3, #512	; 0x200
 14c:	e4d32001 	ldrb	r2, [r3], #1

00000150 <stop>:
 150:	eafffffe 	b	150 <stop>

00000154 <reset>:
 154:	eaffffb1 	b	20 <prog>

00000158 <swi>:
 158:	e0812002 	add	r2, r1, r2
 15c:	e1a01002 	mov	r1, r2
 160:	e1b0f00e 	movs	pc, lr

00000164 <undef>:
 164:	eaffffad 	b	20 <prog>

00000168 <pfa>:
 168:	eaffffac 	b	20 <prog>

0000016c <da>:
 16c:	eaffffab 	b	20 <prog>

00000170 <irq>:
 170:	eaffffaa 	b	20 <prog>

00000174 <fiq>:
 174:	eaffffa9 	b	20 <prog>
 178:	0003fdee 	.word	0x0003fdee
 17c:	00300004 	.word	0x00300004
 180:	0423fdee 	.word	0x0423fdee
 184:	00300008 	.word	0x00300008
 188:	0833fdee 	.word	0x0833fdee
 18c:	ffee1122 	.word	0xffee1122
 190:	33445566 	.word	0x33445566
 194:	334455aa 	.word	0x334455aa
 198:	00ff1200 	.word	0x00ff1200
 19c:	11223344 	.word	0x11223344
