
ldr_str_ri_gcc.o:     file format elf32-littlearm


Disassembly of section .text:

00000000 <main>:
   0:	e05f000f 	subs	r0, pc, pc
   4:	e59fd000 	ldr	sp, [pc]	; c <val>
   8:	ea000000 	b	10 <next>

0000000c <val>:
   c:	befffae8 	.word	0xbefffae8

00000010 <next>:
  10:	e59f1000 	ldr	r1, [pc]	; 18 <val1>
  14:	ea000000 	b	1c <next1>

00000018 <val1>:
  18:	d8f16ad9 	.word	0xd8f16ad9

0000001c <next1>:
  1c:	e59f2000 	ldr	r2, [pc]	; 24 <val2>
  20:	ea000000 	b	28 <next2>

00000024 <val2>:
  24:	c386bbc2 	.word	0xc386bbc2

00000028 <next2>:
  28:	e59f3000 	ldr	r3, [pc]	; 30 <val3>
  2c:	ea000000 	b	34 <next3>

00000030 <val3>:
  30:	414c3424 	.word	0x414c3424

00000034 <next3>:
  34:	e59f4000 	ldr	r4, [pc]	; 3c <val4>
  38:	ea000000 	b	40 <next4>

0000003c <val4>:
  3c:	7ed4d578 	.word	0x7ed4d578

00000040 <next4>:
  40:	e59f5000 	ldr	r5, [pc]	; 48 <val5>
  44:	ea000000 	b	4c <next5>

00000048 <val5>:
  48:	7311d8af 	.word	0x7311d8af

0000004c <next5>:
  4c:	e59f6000 	ldr	r6, [pc]	; 54 <val6>
  50:	ea000000 	b	58 <next6>

00000054 <val6>:
  54:	a6cecc0c 	.word	0xa6cecc0c

00000058 <next6>:
  58:	e59f7000 	ldr	r7, [pc]	; 60 <val7>
  5c:	ea000000 	b	64 <next7>

00000060 <val7>:
  60:	c9e9c606 	.word	0xc9e9c606

00000064 <next7>:
  64:	e59f8000 	ldr	r8, [pc]	; 6c <val8>
  68:	ea000000 	b	70 <next8>

0000006c <val8>:
  6c:	18072e90 	.word	0x18072e90

00000070 <next8>:
  70:	e59f9000 	ldr	r9, [pc]	; 78 <val9>
  74:	ea000000 	b	7c <next9>

00000078 <val9>:
  78:	0741c7bd 	.word	0x0741c7bd

0000007c <next9>:
  7c:	e59fa000 	ldr	sl, [pc]	; 84 <val10>
  80:	ea000000 	b	88 <next10>

00000084 <val10>:
  84:	d5f4b3ac 	.word	0xd5f4b3ac

00000088 <next10>:
  88:	e59fb000 	ldr	fp, [pc]	; 90 <val11>
  8c:	ea000000 	b	94 <next11>

00000090 <val11>:
  90:	6ec9d294 	.word	0x6ec9d294

00000094 <next11>:
  94:	e59fc000 	ldr	ip, [pc]	; 9c <val12>
  98:	ea000000 	b	a0 <next12>

0000009c <val12>:
  9c:	c324c998 	.word	0xc324c998

000000a0 <next12>:
  a0:	e59fe000 	ldr	lr, [pc]	; a8 <val14>
  a4:	ea000000 	b	ac <next14>

000000a8 <val14>:
  a8:	008a05b7 	.word	0x008a05b7

000000ac <next14>:
  ac:	e59f1000 	ldr	r1, [pc]	; b4 <val15>
  b0:	ea000000 	b	b8 <next15>

000000b4 <val15>:
  b4:	00000001 	.word	0x00000001

000000b8 <next15>:
  b8:	e50d1000 	str	r1, [sp, #-0]
  bc:	e59f1000 	ldr	r1, [pc]	; c4 <val16>
  c0:	ea000000 	b	c8 <next16>

000000c4 <val16>:
  c4:	00000002 	.word	0x00000002

000000c8 <next16>:
  c8:	e50d1004 	str	r1, [sp, #-4]
  cc:	e59f1000 	ldr	r1, [pc]	; d4 <val17>
  d0:	ea000000 	b	d8 <next17>

000000d4 <val17>:
  d4:	00000003 	.word	0x00000003

000000d8 <next17>:
  d8:	e50d1008 	str	r1, [sp, #-8]
  dc:	e59f1000 	ldr	r1, [pc]	; e4 <val18>
  e0:	ea000000 	b	e8 <next18>

000000e4 <val18>:
  e4:	00000004 	.word	0x00000004

000000e8 <next18>:
  e8:	e50d100c 	str	r1, [sp, #-12]
  ec:	e59f1000 	ldr	r1, [pc]	; f4 <val19>
  f0:	ea000000 	b	f8 <next19>

000000f4 <val19>:
  f4:	00000005 	.word	0x00000005

000000f8 <next19>:
  f8:	e50d1010 	str	r1, [sp, #-16]
  fc:	e59f1000 	ldr	r1, [pc]	; 104 <val20>
 100:	ea000000 	b	108 <next20>

00000104 <val20>:
 104:	00000006 	.word	0x00000006

00000108 <next20>:
 108:	e50d1014 	str	r1, [sp, #-20]
 10c:	e59f1000 	ldr	r1, [pc]	; 114 <val21>
 110:	ea000000 	b	118 <next21>

00000114 <val21>:
 114:	00000007 	.word	0x00000007

00000118 <next21>:
 118:	e50d1018 	str	r1, [sp, #-24]
 11c:	e59f1000 	ldr	r1, [pc]	; 124 <val22>
 120:	ea000000 	b	128 <next22>

00000124 <val22>:
 124:	00000008 	.word	0x00000008

00000128 <next22>:
 128:	e50d101c 	str	r1, [sp, #-28]
 12c:	e59f1000 	ldr	r1, [pc]	; 134 <val23>
 130:	ea000000 	b	138 <next23>

00000134 <val23>:
 134:	00000009 	.word	0x00000009

00000138 <next23>:
 138:	e50d1020 	str	r1, [sp, #-32]
 13c:	e59f1000 	ldr	r1, [pc]	; 144 <val24>
 140:	ea000000 	b	148 <next24>

00000144 <val24>:
 144:	0000000a 	.word	0x0000000a

00000148 <next24>:
 148:	e50d1024 	str	r1, [sp, #-36]	; 0x24
 14c:	e59f1000 	ldr	r1, [pc]	; 154 <val25>
 150:	ea000000 	b	158 <next25>

00000154 <val25>:
 154:	0000000b 	.word	0x0000000b

00000158 <next25>:
 158:	e50d1028 	str	r1, [sp, #-40]	; 0x28
 15c:	e51d0000 	ldr	r0, [sp, #-0]
 160:	e51d1004 	ldr	r1, [sp, #-4]
 164:	e51d2008 	ldr	r2, [sp, #-8]
 168:	e51d300c 	ldr	r3, [sp, #-12]
 16c:	e51d4010 	ldr	r4, [sp, #-16]
 170:	e51d5014 	ldr	r5, [sp, #-20]
 174:	e51d6018 	ldr	r6, [sp, #-24]
 178:	e51d701c 	ldr	r7, [sp, #-28]
 17c:	e51d8020 	ldr	r8, [sp, #-32]
 180:	e51d9024 	ldr	r9, [sp, #-36]	; 0x24
 184:	e51da028 	ldr	sl, [sp, #-40]	; 0x28
 188:	e50d0028 	str	r0, [sp, #-40]	; 0x28
 18c:	e50d1024 	str	r1, [sp, #-36]	; 0x24
 190:	e50d2020 	str	r2, [sp, #-32]
 194:	e50d301c 	str	r3, [sp, #-28]
 198:	e50d4018 	str	r4, [sp, #-24]
 19c:	e50d5014 	str	r5, [sp, #-20]
 1a0:	e50d6010 	str	r6, [sp, #-16]
 1a4:	e50d700c 	str	r7, [sp, #-12]
 1a8:	e50d8008 	str	r8, [sp, #-8]
 1ac:	e50d9004 	str	r9, [sp, #-4]
 1b0:	e50da000 	str	sl, [sp, #-0]

000001b4 <end>:
 1b4:	eafffffe 	b	1b4 <end>
