
ldrb2.o:     file format elf32-littlearm


Disassembly of section .text:

00000000 <start>:
   0:	ea00003b 	b	f4 <reset>
   4:	ea000040 	b	10c <undef>
   8:	ea00003c 	b	100 <swi>
   c:	ea00003f 	b	110 <pfa>
  10:	ea00003f 	b	114 <da>
  14:	e1a00000 	nop			; (mov r0, r0)
  18:	ea00003e 	b	118 <irq>
  1c:	ea00003e 	b	11c <fiq>

00000020 <prog>:
  20:	e3a00000 	mov	r0, #0
  24:	e2804001 	add	r4, r0, #1
  28:	e2802c01 	add	r2, r0, #256	; 0x100
  2c:	e2833c03 	add	r3, r3, #768	; 0x300
  30:	e5830004 	str	r0, [r3, #4]
  34:	e7c33104 	strb	r3, [r3, r4, lsl #2]
  38:	e7d31104 	ldrb	r1, [r3, r4, lsl #2]
  3c:	e3a03c02 	mov	r3, #512	; 0x200
  40:	e7833104 	str	r3, [r3, r4, lsl #2]
  44:	e7935104 	ldr	r5, [r3, r4, lsl #2]
  48:	e5833000 	str	r3, [r3]
  4c:	e5f36001 	ldrb	r6, [r3, #1]!
  50:	e083b00b 	add	fp, r3, fp
  54:	e4d37001 	ldrb	r7, [r3], #1
  58:	e083b00b 	add	fp, r3, fp
  5c:	e083b00b 	add	fp, r3, fp
  60:	e3a03c02 	mov	r3, #512	; 0x200
  64:	e4938004 	ldr	r8, [r3], #4
  68:	e083b00b 	add	fp, r3, fp
  6c:	e5339004 	ldr	r9, [r3, #-4]!
  70:	e083b00b 	add	fp, r3, fp
  74:	e7f3a104 	ldrb	sl, [r3, r4, lsl #2]!
  78:	e083b00b 	add	fp, r3, fp
  7c:	e3a03c02 	mov	r3, #512	; 0x200
  80:	e6c53104 	strb	r3, [r5], r4, lsl #2
  84:	e083b00b 	add	fp, r3, fp
  88:	e3a03c02 	mov	r3, #512	; 0x200
  8c:	e6d5c104 	ldrb	ip, [r5], r4, lsl #2
  90:	e083b00b 	add	fp, r3, fp
  94:	e3a03c02 	mov	r3, #512	; 0x200
  98:	e6853104 	str	r3, [r5], r4, lsl #2
  9c:	e083b00b 	add	fp, r3, fp
  a0:	e3a03c02 	mov	r3, #512	; 0x200
  a4:	e695d104 	ldr	sp, [r5], r4, lsl #2
  a8:	e3a03c02 	mov	r3, #512	; 0x200
  ac:	e59f506c 	ldr	r5, [pc, #108]	; 120 <fiq+0x4>
  b0:	e5835000 	str	r5, [r3]
  b4:	e59f5068 	ldr	r5, [pc, #104]	; 124 <fiq+0x8>
  b8:	e5c35003 	strb	r5, [r3, #3]
  bc:	e5930000 	ldr	r0, [r3]
  c0:	e59f5060 	ldr	r5, [pc, #96]	; 128 <fiq+0xc>
  c4:	e5c35002 	strb	r5, [r3, #2]
  c8:	e5930000 	ldr	r0, [r3]
  cc:	e5c35001 	strb	r5, [r3, #1]
  d0:	e5930000 	ldr	r0, [r3]
  d4:	e5c35000 	strb	r5, [r3]
  d8:	e5930000 	ldr	r0, [r3]
  dc:	e5d30002 	ldrb	r0, [r3, #2]
  e0:	e59f6044 	ldr	r6, [pc, #68]	; 12c <fiq+0x10>
  e4:	e59f5044 	ldr	r5, [pc, #68]	; 130 <fiq+0x14>
  e8:	e5c65000 	strb	r5, [r6]
  ec:	e5960000 	ldr	r0, [r6]

000000f0 <stop>:
  f0:	eafffffe 	b	f0 <stop>

000000f4 <reset>:
  f4:	e3a01000 	mov	r1, #0
  f8:	e3a02000 	mov	r2, #0
  fc:	eaffffc7 	b	20 <prog>

00000100 <swi>:
 100:	e0812002 	add	r2, r1, r2
 104:	e1a01002 	mov	r1, r2
 108:	e1b0f00e 	movs	pc, lr

0000010c <undef>:
 10c:	eaffffc3 	b	20 <prog>

00000110 <pfa>:
 110:	eaffffc2 	b	20 <prog>

00000114 <da>:
 114:	eaffffc1 	b	20 <prog>

00000118 <irq>:
 118:	eaffffc0 	b	20 <prog>

0000011c <fiq>:
 11c:	eaffffbf 	b	20 <prog>
 120:	ffee1122 	.word	0xffee1122
 124:	33445566 	.word	0x33445566
 128:	334455aa 	.word	0x334455aa
 12c:	00ff1200 	.word	0x00ff1200
 130:	11223344 	.word	0x11223344
