
mrs.o:     file format elf32-littlearm


Disassembly of section .text:

00000000 <start>:
   0:	ea000024 	b	98 <reset>
   4:	ea000027 	b	a8 <undef>
   8:	ea000023 	b	9c <swi>
   c:	ea000026 	b	ac <pfa>
  10:	ea000026 	b	b0 <da>
  14:	e1a00000 	nop			; (mov r0, r0)
  18:	ea000025 	b	b4 <irq>
  1c:	ea000025 	b	b8 <fiq>

00000020 <prog>:
  20:	e0500000 	subs	r0, r0, r0
  24:	e3a00005 	mov	r0, #5
  28:	e3a01004 	mov	r1, #4
  2c:	e0812000 	add	r2, r1, r0
  30:	e10f3000 	mrs	r3, CPSR
  34:	010f4000 	mrseq	r4, CPSR
  38:	110f5000 	mrsne	r5, CPSR
  3c:	e0516000 	subs	r6, r1, r0
  40:	410f7000 	mrsmi	r7, CPSR
  44:	e323f004 	msr	CPSR_xc, #4
  48:	e10f8000 	mrs	r8, CPSR
  4c:	e12ff003 	msr	CPSR_fsxc, r3
  50:	e10f9000 	mrs	r9, CPSR
  54:	e328f007 	msr	CPSR_f, #7
  58:	e10fa000 	mrs	sl, CPSR
  5c:	e329f16e 	msr	CPSR_fc, #-2147483621	; 0x8000001b
  60:	e10fb000 	mrs	fp, CPSR
  64:	e361f0db 	msr	SPSR_c, #219	; 0xdb
  68:	e14fc000 	mrs	ip, SPSR
  6c:	e321f010 	msr	CPSR_c, #16
  70:	e10f0000 	mrs	r0, CPSR
  74:	e321f01f 	msr	CPSR_c, #31
  78:	e10f2000 	mrs	r2, CPSR
  7c:	e2844001 	add	r4, r4, #1
  80:	ef000001 	svc	0x00000001
  84:	e2844002 	add	r4, r4, #2
  88:	e10f1000 	mrs	r1, CPSR
  8c:	e0822000 	add	r2, r2, r0
  90:	e0800001 	add	r0, r0, r1

00000094 <stop>:
  94:	eafffffe 	b	94 <stop>

00000098 <reset>:
  98:	eaffffe0 	b	20 <prog>

0000009c <swi>:
  9c:	e0812002 	add	r2, r1, r2
  a0:	e1a01002 	mov	r1, r2
  a4:	e1b0f00e 	movs	pc, lr

000000a8 <undef>:
  a8:	eaffffdc 	b	20 <prog>

000000ac <pfa>:
  ac:	eaffffdb 	b	20 <prog>

000000b0 <da>:
  b0:	eaffffda 	b	20 <prog>

000000b4 <irq>:
  b4:	eaffffd9 	b	20 <prog>

000000b8 <fiq>:
  b8:	eaffffd8 	b	20 <prog>
