
random2_gcc.o:     file format elf32-littlearm


Disassembly of section .text:

00000000 <main>:
       0:	e05f000f 	subs	r0, pc, pc
       4:	e59fd000 	ldr	sp, [pc]	; c <val>
       8:	ea000000 	b	10 <next>

0000000c <val>:
       c:	befffae8 	.word	0xbefffae8

00000010 <next>:
      10:	e59f1000 	ldr	r1, [pc]	; 18 <val1>
      14:	ea000000 	b	1c <next1>

00000018 <val1>:
      18:	dd53ab0c 	.word	0xdd53ab0c

0000001c <next1>:
      1c:	e59f2000 	ldr	r2, [pc]	; 24 <val2>
      20:	ea000000 	b	28 <next2>

00000024 <val2>:
      24:	e03105da 	.word	0xe03105da

00000028 <next2>:
      28:	e59f3000 	ldr	r3, [pc]	; 30 <val3>
      2c:	ea000000 	b	34 <next3>

00000030 <val3>:
      30:	9668c1c1 	.word	0x9668c1c1

00000034 <next3>:
      34:	e59f4000 	ldr	r4, [pc]	; 3c <val4>
      38:	ea000000 	b	40 <next4>

0000003c <val4>:
      3c:	d858d76f 	.word	0xd858d76f

00000040 <next4>:
      40:	e59f5000 	ldr	r5, [pc]	; 48 <val5>
      44:	ea000000 	b	4c <next5>

00000048 <val5>:
      48:	f68a466b 	.word	0xf68a466b

0000004c <next5>:
      4c:	e59f6000 	ldr	r6, [pc]	; 54 <val6>
      50:	ea000000 	b	58 <next6>

00000054 <val6>:
      54:	33458e1f 	.word	0x33458e1f

00000058 <next6>:
      58:	e59f7000 	ldr	r7, [pc]	; 60 <val7>
      5c:	ea000000 	b	64 <next7>

00000060 <val7>:
      60:	e46831ca 	.word	0xe46831ca

00000064 <next7>:
      64:	e59f8000 	ldr	r8, [pc]	; 6c <val8>
      68:	ea000000 	b	70 <next8>

0000006c <val8>:
      6c:	9110dda3 	.word	0x9110dda3

00000070 <next8>:
      70:	e59f9000 	ldr	r9, [pc]	; 78 <val9>
      74:	ea000000 	b	7c <next9>

00000078 <val9>:
      78:	7b649ab3 	.word	0x7b649ab3

0000007c <next9>:
      7c:	e59fa000 	ldr	sl, [pc]	; 84 <val10>
      80:	ea000000 	b	88 <next10>

00000084 <val10>:
      84:	cd2076d2 	.word	0xcd2076d2

00000088 <next10>:
      88:	e59fb000 	ldr	fp, [pc]	; 90 <val11>
      8c:	ea000000 	b	94 <next11>

00000090 <val11>:
      90:	d39f9ff1 	.word	0xd39f9ff1

00000094 <next11>:
      94:	e59fc000 	ldr	ip, [pc]	; 9c <val12>
      98:	ea000000 	b	a0 <next12>

0000009c <val12>:
      9c:	c232efe4 	.word	0xc232efe4

000000a0 <next12>:
      a0:	e59fe000 	ldr	lr, [pc]	; a8 <val14>
      a4:	ea000000 	b	ac <next14>

000000a8 <val14>:
      a8:	acdf6d94 	.word	0xacdf6d94

000000ac <next14>:
      ac:	e59f1000 	ldr	r1, [pc]	; b4 <val15>
      b0:	ea000000 	b	b8 <next15>

000000b4 <val15>:
      b4:	e5d81fe8 	.word	0xe5d81fe8

000000b8 <next15>:
      b8:	e50d1000 	str	r1, [sp, #-0]
      bc:	e59f1000 	ldr	r1, [pc]	; c4 <val16>
      c0:	ea000000 	b	c8 <next16>

000000c4 <val16>:
      c4:	6edadbfc 	.word	0x6edadbfc

000000c8 <next16>:
      c8:	e50d1004 	str	r1, [sp, #-4]
      cc:	e59f1000 	ldr	r1, [pc]	; d4 <val17>
      d0:	ea000000 	b	d8 <next17>

000000d4 <val17>:
      d4:	6f839712 	.word	0x6f839712

000000d8 <next17>:
      d8:	e50d1008 	str	r1, [sp, #-8]
      dc:	e59f1000 	ldr	r1, [pc]	; e4 <val18>
      e0:	ea000000 	b	e8 <next18>

000000e4 <val18>:
      e4:	d15a496d 	.word	0xd15a496d

000000e8 <next18>:
      e8:	e50d100c 	str	r1, [sp, #-12]
      ec:	e59f1000 	ldr	r1, [pc]	; f4 <val19>
      f0:	ea000000 	b	f8 <next19>

000000f4 <val19>:
      f4:	b1e96762 	.word	0xb1e96762

000000f8 <next19>:
      f8:	e50d1010 	str	r1, [sp, #-16]
      fc:	e59f1000 	ldr	r1, [pc]	; 104 <val20>
     100:	ea000000 	b	108 <next20>

00000104 <val20>:
     104:	d659c4ab 	.word	0xd659c4ab

00000108 <next20>:
     108:	e50d1014 	str	r1, [sp, #-20]
     10c:	e59f1000 	ldr	r1, [pc]	; 114 <val21>
     110:	ea000000 	b	118 <next21>

00000114 <val21>:
     114:	8c17b254 	.word	0x8c17b254

00000118 <next21>:
     118:	e50d1018 	str	r1, [sp, #-24]
     11c:	e59f1000 	ldr	r1, [pc]	; 124 <val22>
     120:	ea000000 	b	128 <next22>

00000124 <val22>:
     124:	7ace5ee5 	.word	0x7ace5ee5

00000128 <next22>:
     128:	e50d101c 	str	r1, [sp, #-28]
     12c:	e59f1000 	ldr	r1, [pc]	; 134 <val23>
     130:	ea000000 	b	138 <next23>

00000134 <val23>:
     134:	ccfea2cf 	.word	0xccfea2cf

00000138 <next23>:
     138:	e50d1020 	str	r1, [sp, #-32]
     13c:	e59f1000 	ldr	r1, [pc]	; 144 <val24>
     140:	ea000000 	b	148 <next24>

00000144 <val24>:
     144:	357a1a65 	.word	0x357a1a65

00000148 <next24>:
     148:	e50d1024 	str	r1, [sp, #-36]	; 0x24
     14c:	e59f1000 	ldr	r1, [pc]	; 154 <val25>
     150:	ea000000 	b	158 <next25>

00000154 <val25>:
     154:	61399bcc 	.word	0x61399bcc

00000158 <next25>:
     158:	e50d1028 	str	r1, [sp, #-40]	; 0x28

0000015c <l1>:
     15c:	c3b04018 	movsgt	r4, #24

00000160 <l2>:
     160:	c2ab2018 	adcgt	r2, fp, #24

00000164 <l3>:
     164:	817e04e0 	cmnhi	lr, r0, ror #9

00000168 <l4>:
     168:	9a000004 	bls	180 <l10>

0000016c <l5>:
     16c:	e242c014 	sub	ip, r2, #20

00000170 <l6>:
     170:	ea000001 	b	17c <l9>

00000174 <l7>:
     174:	350d8020 	strcc	r8, [sp, #-32]

00000178 <l8>:
     178:	801a1002 	andshi	r1, sl, r2

0000017c <l9>:
     17c:	50050794 	mulpl	r5, r4, r7

00000180 <l10>:
     180:	e0900000 	adds	r0, r0, r0

00000184 <l11>:
     184:	e0886068 	add	r6, r8, r8, rrx

00000188 <l12>:
     188:	b00c900b 	andlt	r9, ip, fp

0000018c <l13>:
     18c:	ca000006 	bgt	1ac <l21>

00000190 <l14>:
     190:	e2801001 	add	r1, r0, #1

00000194 <l15>:
     194:	d2de1028 	sbcsle	r1, lr, #40	; 0x28

00000198 <l16>:
     198:	e0a82067 	adc	r2, r8, r7, rrx

0000019c <l17>:
     19c:	51f07061 	mvnspl	r7, r1, rrx

000001a0 <l18>:
     1a0:	50905003 	addspl	r5, r0, r3

000001a4 <l19>:
     1a4:	711104c6 	tstvc	r1, r6, asr #9

000001a8 <l20>:
     1a8:	ea000000 	b	1b0 <l22>

000001ac <l21>:
     1ac:	eafffff8 	b	194 <l15>

000001b0 <l22>:
     1b0:	208b500a 	addcs	r5, fp, sl

000001b4 <l23>:
     1b4:	9019089a 	mulsls	r9, sl, r8

000001b8 <l24>:
     1b8:	e0900000 	adds	r0, r0, r0

000001bc <l25>:
     1bc:	d093300a 	addsle	r3, r3, sl

000001c0 <l26>:
     1c0:	428c4014 	addmi	r4, ip, #20

000001c4 <l27>:
     1c4:	12dc8020 	sbcsne	r8, ip, #32

000001c8 <l28>:
     1c8:	c188a003 	orrgt	sl, r8, r3

000001cc <l29>:
     1cc:	e3e0800c 	mvn	r8, #12

000001d0 <l30>:
     1d0:	e51db020 	ldr	fp, [sp, #-32]

000001d4 <l31>:
     1d4:	515b03e5 	cmppl	fp, r5, ror #7

000001d8 <l32>:
     1d8:	e02c509a 	mla	ip, sl, r0, r5

000001dc <l33>:
     1dc:	e0900000 	adds	r0, r0, r0

000001e0 <l34>:
     1e0:	e1e00144 	mvn	r0, r4, asr #2

000001e4 <l35>:
     1e4:	91c3b006 	bicls	fp, r3, r6

000001e8 <l36>:
     1e8:	e00e5007 	and	r5, lr, r7

000001ec <l37>:
     1ec:	51b0000b 	movspl	r0, fp

000001f0 <l38>:
     1f0:	13580020 	cmpne	r8, #32

000001f4 <l39>:
     1f4:	6009e00c 	andvs	lr, r9, ip

000001f8 <l40>:
     1f8:	c0368892 	mlasgt	r6, r2, r8, r8

000001fc <l41>:
     1fc:	e0900000 	adds	r0, r0, r0

00000200 <l42>:
     200:	51f0a061 	mvnspl	sl, r1, rrx

00000204 <l43>:
     204:	202ca008 	eorcs	sl, ip, r8

00000208 <l44>:
     208:	43350028 	teqmi	r5, #40	; 0x28

0000020c <l45>:
     20c:	d51dc020 	ldrle	ip, [sp, #-32]

00000210 <l46>:
     210:	e024600e 	eor	r6, r4, lr

00000214 <l47>:
     214:	7a000008 	bvc	23c <l57>

00000218 <l48>:
     218:	017a006a 	cmneq	sl, sl, rrx

0000021c <l49>:
     21c:	71973006 	orrsvc	r3, r7, r6

00000220 <l50>:
     220:	ea000002 	b	230 <l54>

00000224 <l51>:
     224:	e28010be 	add	r1, r0, #190	; 0xbe

00000228 <l52>:
     228:	42539028 	subsmi	r9, r3, #40	; 0x28

0000022c <l53>:
     22c:	ea000000 	b	234 <l55>

00000230 <l54>:
     230:	eafffffc 	b	228 <l52>

00000234 <l55>:
     234:	a1854000 	orrge	r4, r5, r0

00000238 <l56>:
     238:	d1d26367 	bicsle	r6, r2, r7, ror #6

0000023c <l57>:
     23c:	81760cc8 	cmnhi	r6, r8, asr #25

00000240 <l58>:
     240:	21740069 	cmncs	r4, r9, rrx

00000244 <l59>:
     244:	b3a07018 	movlt	r7, #24

00000248 <l60>:
     248:	8032100c 	eorshi	r1, r2, ip

0000024c <l61>:
     24c:	01c0a001 	biceq	sl, r0, r1

00000250 <l62>:
     250:	d1c1b239 	bicle	fp, r1, r9, lsr r2

00000254 <l63>:
     254:	6287e00c 	addvs	lr, r7, #12

00000258 <l64>:
     258:	c1864009 	orrgt	r4, r6, r9

0000025c <l65>:
     25c:	70277003 	eorvc	r7, r7, r3

00000260 <l66>:
     260:	e1e0963a 	mvn	r9, sl, lsr r6

00000264 <l67>:
     264:	51a03383 	lslpl	r3, r3, #7

00000268 <l68>:
     268:	7180a007 	orrvc	sl, r0, r7

0000026c <l69>:
     26c:	013e033c 	teqeq	lr, ip, lsr r3

00000270 <l70>:
     270:	107519eb 	rsbsne	r1, r5, fp, ror #19

00000274 <l71>:
     274:	1a000006 	bne	294 <l79>

00000278 <l72>:
     278:	e51d601c 	ldr	r6, [sp, #-28]

0000027c <l73>:
     27c:	a17a000c 	cmnge	sl, ip

00000280 <l74>:
     280:	11f0e005 	mvnsne	lr, r5

00000284 <l75>:
     284:	206c1472 	rsbcs	r1, ip, r2, ror r4

00000288 <l76>:
     288:	50157009 	andspl	r7, r5, r9

0000028c <l77>:
     28c:	8110006e 	tsthi	r0, lr, rrx

00000290 <l78>:
     290:	53b0300c 	movspl	r3, #12

00000294 <l79>:
     294:	e048e12c 	sub	lr, r8, ip, lsr #2

00000298 <l80>:
     298:	21700005 	cmncs	r0, r5

0000029c <l81>:
     29c:	551d7028 	ldrpl	r7, [sp, #-40]	; 0x28

000002a0 <l82>:
     2a0:	d15e0064 	cmple	lr, r4, rrx

000002a4 <l83>:
     2a4:	7a000000 	bvc	2ac <l85>

000002a8 <l84>:
     2a8:	451d6018 	ldrmi	r6, [sp, #-24]

000002ac <l85>:
     2ac:	3a000003 	bcc	2c0 <l90>

000002b0 <l86>:
     2b0:	c0ae3424 	adcgt	r3, lr, r4, lsr #8

000002b4 <l87>:
     2b4:	c032700e 	eorsgt	r7, r2, lr

000002b8 <l88>:
     2b8:	00282899 	mlaeq	r8, r9, r8, r2

000002bc <l89>:
     2bc:	e0900000 	adds	r0, r0, r0

000002c0 <l90>:
     2c0:	701eb00e 	andsvc	fp, lr, lr

000002c4 <l91>:
     2c4:	a0d0800b 	sbcsge	r8, r0, fp

000002c8 <l92>:
     2c8:	31a02003 	movcc	r2, r3

000002cc <l93>:
     2cc:	8370000c 	cmnhi	r0, #12

000002d0 <l94>:
     2d0:	ea000005 	b	2ec <l101>

000002d4 <l95>:
     2d4:	6a000006 	bvs	2f4 <l103>

000002d8 <l96>:
     2d8:	21510001 	cmpcs	r1, r1

000002dc <l97>:
     2dc:	8019b006 	andshi	fp, r9, r6

000002e0 <l98>:
     2e0:	a51da028 	ldrge	sl, [sp, #-40]	; 0x28

000002e4 <l99>:
     2e4:	e51d400c 	ldr	r4, [sp, #-12]

000002e8 <l100>:
     2e8:	d047baea 	suble	fp, r7, sl, ror #21

000002ec <l101>:
     2ec:	3a000003 	bcc	300 <l106>

000002f0 <l102>:
     2f0:	e2801098 	add	r1, r0, #152	; 0x98

000002f4 <l103>:
     2f4:	c054638b 	subsgt	r6, r4, fp, lsl #7

000002f8 <l104>:
     2f8:	e2877014 	add	r7, r7, #20

000002fc <l105>:
     2fc:	ea000000 	b	304 <l107>

00000300 <l106>:
     300:	eafffffb 	b	2f4 <l103>

00000304 <l107>:
     304:	c1e0a06b 	mvngt	sl, fp, rrx

00000308 <l108>:
     308:	a1b0bfa0 	lsrsge	fp, r0, #31

0000030c <l109>:
     30c:	a02aa007 	eorge	sl, sl, r7

00000310 <l110>:
     310:	53a03014 	movpl	r3, #20

00000314 <l111>:
     314:	53d3b00c 	bicspl	fp, r3, #12

00000318 <l112>:
     318:	b037a00c 	eorslt	sl, r7, ip

0000031c <l113>:
     31c:	d3dee014 	bicsle	lr, lr, #20

00000320 <l114>:
     320:	d51dc008 	ldrle	ip, [sp, #-8]

00000324 <l115>:
     324:	aa000006 	bge	344 <l123>

00000328 <l116>:
     328:	e28010b1 	add	r1, r0, #177	; 0xb1

0000032c <l117>:
     32c:	c338000c 	teqgt	r8, #12

00000330 <l118>:
     330:	e15a000b 	cmp	sl, fp

00000334 <l119>:
     334:	d17e0002 	cmnle	lr, r2

00000338 <l120>:
     338:	031c0018 	tsteq	ip, #24

0000033c <l121>:
     33c:	e1770ce1 	cmn	r7, r1, ror #25

00000340 <l122>:
     340:	ea000000 	b	348 <l124>

00000344 <l123>:
     344:	eafffff8 	b	32c <l117>

00000348 <l124>:
     348:	111b065e 	tstne	fp, lr, asr r6

0000034c <l125>:
     34c:	52a35014 	adcpl	r5, r3, #20

00000350 <l126>:
     350:	227b3018 	rsbscs	r3, fp, #24

00000354 <l127>:
     354:	10ba9006 	adcsne	r9, sl, r6

00000358 <l128>:
     358:	428c1014 	addmi	r1, ip, #20

0000035c <l129>:
     35c:	1017300b 	andsne	r3, r7, fp

00000360 <l130>:
     360:	511609ee 	tstpl	r6, lr, ror #19

00000364 <l131>:
     364:	d1964009 	orrsle	r4, r6, r9

00000368 <l132>:
     368:	e350000c 	cmp	r0, #12

0000036c <l133>:
     36c:	82a9500c 	adchi	r5, r9, #12

00000370 <l134>:
     370:	8098053b 	addshi	r0, r8, fp, lsr r5

00000374 <l135>:
     374:	305acb1b 	subscc	ip, sl, fp, lsl fp

00000378 <l136>:
     378:	e02bb00b 	eor	fp, fp, fp

0000037c <l137>:
     37c:	31b0c062 	rrxscc	ip, r2

00000380 <l138>:
     380:	03580014 	cmpeq	r8, #20

00000384 <l139>:
     384:	2138011e 	teqcs	r8, lr, lsl r1

00000388 <l140>:
     388:	6a000006 	bvs	3a8 <l148>

0000038c <l141>:
     38c:	50381003 	eorspl	r1, r8, r3

00000390 <l142>:
     390:	4020c008 	eormi	ip, r0, r8

00000394 <l143>:
     394:	406b331e 	rsbmi	r3, fp, lr, lsl r3

00000398 <l144>:
     398:	01a01060 	rrxeq	r1, r0

0000039c <l145>:
     39c:	da000003 	ble	3b0 <l150>

000003a0 <l146>:
     3a0:	113b0003 	teqne	fp, r3

000003a4 <l147>:
     3a4:	b0b20005 	adcslt	r0, r2, r5

000003a8 <l148>:
     3a8:	e1e01068 	mvn	r1, r8, rrx

000003ac <l149>:
     3ac:	5a000003 	bpl	3c0 <l154>

000003b0 <l150>:
     3b0:	e280108d 	add	r1, r0, #141	; 0x8d

000003b4 <l151>:
     3b4:	51700972 	cmnpl	r0, r2, ror r9

000003b8 <l152>:
     3b8:	e3e0100c 	mvn	r1, #12

000003bc <l153>:
     3bc:	ea000000 	b	3c4 <l155>

000003c0 <l154>:
     3c0:	eafffffb 	b	3b4 <l151>

000003c4 <l155>:
     3c4:	e3500018 	cmp	r0, #24

000003c8 <l156>:
     3c8:	c097c06e 	addsgt	ip, r7, lr, rrx

000003cc <l157>:
     3cc:	83350014 	teqhi	r5, #20

000003d0 <l158>:
     3d0:	e0abe3e0 	adc	lr, fp, r0, ror #7

000003d4 <l159>:
     3d4:	7298300c 	addsvc	r3, r8, #12

000003d8 <l160>:
     3d8:	21580068 	cmpcs	r8, r8, rrx

000003dc <l161>:
     3dc:	535e000c 	cmppl	lr, #12

000003e0 <l162>:
     3e0:	81e02003 	mvnhi	r2, r3

000003e4 <l163>:
     3e4:	50127005 	andspl	r7, r2, r5

000003e8 <l164>:
     3e8:	ea000003 	b	3fc <l169>

000003ec <l165>:
     3ec:	e280106b 	add	r1, r0, #107	; 0x6b

000003f0 <l166>:
     3f0:	e2476018 	sub	r6, r7, #24

000003f4 <l167>:
     3f4:	9044e00a 	subls	lr, r4, sl

000003f8 <l168>:
     3f8:	ea000000 	b	400 <l170>

000003fc <l169>:
     3fc:	eafffffb 	b	3f0 <l166>

00000400 <l170>:
     400:	b1e0c00c 	mvnlt	ip, ip

00000404 <l171>:
     404:	c192900b 	orrsgt	r9, r2, fp

00000408 <l172>:
     408:	ba000006 	blt	428 <l180>

0000040c <l173>:
     40c:	e2801028 	add	r1, r0, #40	; 0x28

00000410 <l174>:
     410:	3131000a 	teqcc	r1, sl

00000414 <l175>:
     414:	32d1e00c 	sbcscc	lr, r1, #12

00000418 <l176>:
     418:	a27b2020 	rsbsge	r2, fp, #32

0000041c <l177>:
     41c:	81f0c386 	mvnshi	ip, r6, lsl #7

00000420 <l178>:
     420:	a2de4014 	sbcsge	r4, lr, #20

00000424 <l179>:
     424:	ea000000 	b	42c <l181>

00000428 <l180>:
     428:	eafffff8 	b	410 <l174>

0000042c <l181>:
     42c:	81b0e004 	movshi	lr, r4

00000430 <l182>:
     430:	92dea014 	sbcsls	sl, lr, #20

00000434 <l183>:
     434:	a1e05009 	mvnge	r5, r9

00000438 <l184>:
     438:	92428018 	subls	r8, r2, #24

0000043c <l185>:
     43c:	150d6008 	strne	r6, [sp, #-8]

00000440 <l186>:
     440:	0a000004 	beq	458 <l192>

00000444 <l187>:
     444:	41300531 	teqmi	r0, r1, lsr r5

00000448 <l188>:
     448:	a1b056ab 	lsrsge	r5, fp, #13

0000044c <l189>:
     44c:	e029cb98 	mla	r9, r8, fp, ip

00000450 <l190>:
     450:	e0900000 	adds	r0, r0, r0

00000454 <l191>:
     454:	b1750069 	cmnlt	r5, r9, rrx

00000458 <l192>:
     458:	7193a008 	orrsvc	sl, r3, r8

0000045c <l193>:
     45c:	41a02758 	asrmi	r2, r8, r7

00000460 <l194>:
     460:	61f0c416 	mvnsvs	ip, r6, lsl r4

00000464 <l195>:
     464:	a182500b 	orrge	r5, r2, fp

00000468 <l196>:
     468:	43300018 	teqmi	r0, #24

0000046c <l197>:
     46c:	700b069c 	mulvc	fp, ip, r6

00000470 <l198>:
     470:	e0900000 	adds	r0, r0, r0

00000474 <l199>:
     474:	00957009 	addseq	r7, r5, r9

00000478 <l200>:
     478:	31f0a00c 	mvnscc	sl, ip

0000047c <l201>:
     47c:	a3a03018 	movge	r3, #24

00000480 <l202>:
     480:	ea000001 	b	48c <l205>

00000484 <l203>:
     484:	2035500e 	eorscs	r5, r5, lr

00000488 <l204>:
     488:	ea000007 	b	4ac <l213>

0000048c <l205>:
     48c:	e280100e 	add	r1, r0, #14

00000490 <l206>:
     490:	b1100007 	tstlt	r0, r7

00000494 <l207>:
     494:	d1f043a4 	mvnsle	r4, r4, lsr #7

00000498 <l208>:
     498:	43b0a00c 	movsmi	sl, #12

0000049c <l209>:
     49c:	71f02001 	mvnsvc	r2, r1

000004a0 <l210>:
     4a0:	61720000 	cmnvs	r2, r0

000004a4 <l211>:
     4a4:	93710014 	cmnls	r1, #20

000004a8 <l212>:
     4a8:	ea000000 	b	4b0 <l214>

000004ac <l213>:
     4ac:	eafffff7 	b	490 <l206>

000004b0 <l214>:
     4b0:	81b02004 	movshi	r2, r4

000004b4 <l215>:
     4b4:	e3a0a014 	mov	sl, #20

000004b8 <l216>:
     4b8:	217a0b70 	cmncs	sl, r0, ror fp

000004bc <l217>:
     4bc:	7a000001 	bvc	4c8 <l220>

000004c0 <l218>:
     4c0:	0a000007 	beq	4e4 <l227>

000004c4 <l219>:
     4c4:	e2801070 	add	r1, r0, #112	; 0x70

000004c8 <l220>:
     4c8:	61f03475 	mvnsvs	r3, r5, ror r4

000004cc <l221>:
     4cc:	11780001 	cmnne	r8, r1

000004d0 <l222>:
     4d0:	2290a00c 	addscs	sl, r0, #12

000004d4 <l223>:
     4d4:	90c7e068 	sbcls	lr, r7, r8, rrx

000004d8 <l224>:
     4d8:	41c28a11 	bicmi	r8, r2, r1, lsl sl

000004dc <l225>:
     4dc:	b1380003 	teqlt	r8, r3

000004e0 <l226>:
     4e0:	ea000000 	b	4e8 <l228>

000004e4 <l227>:
     4e4:	eafffff7 	b	4c8 <l220>

000004e8 <l228>:
     4e8:	d05c8063 	subsle	r8, ip, r3, rrx

000004ec <l229>:
     4ec:	e3e0e018 	mvn	lr, #24

000004f0 <l230>:
     4f0:	335e0024 	cmpcc	lr, #36	; 0x24

000004f4 <l231>:
     4f4:	00b9a006 	adcseq	sl, r9, r6

000004f8 <l232>:
     4f8:	c1530e37 	cmpgt	r3, r7, lsr lr

000004fc <l233>:
     4fc:	503c0097 	mlaspl	ip, r7, r0, r0

00000500 <l234>:
     500:	e0900000 	adds	r0, r0, r0

00000504 <l235>:
     504:	ba000002 	blt	514 <l239>

00000508 <l236>:
     508:	51520674 	cmppl	r2, r4, ror r6

0000050c <l237>:
     50c:	5079e9ee 	rsbspl	lr, r9, lr, ror #19

00000510 <l238>:
     510:	051d8004 	ldreq	r8, [sp, #-4]

00000514 <l239>:
     514:	9a000005 	bls	530 <l246>

00000518 <l240>:
     518:	1159010c 	cmpne	r9, ip, lsl #2

0000051c <l241>:
     51c:	41540069 	cmpmi	r4, r9, rrx

00000520 <l242>:
     520:	e0a1e060 	adc	lr, r1, r0, rrx

00000524 <l243>:
     524:	1a000006 	bne	544 <l251>

00000528 <l244>:
     528:	e28010cb 	add	r1, r0, #203	; 0xcb

0000052c <l245>:
     52c:	23110018 	tstcs	r1, #24

00000530 <l246>:
     530:	211a0000 	tstcs	sl, r0

00000534 <l247>:
     534:	31360000 	teqcc	r6, r0

00000538 <l248>:
     538:	d285c024 	addle	ip, r5, #36	; 0x24

0000053c <l249>:
     53c:	81130468 	tsthi	r3, r8, ror #8

00000540 <l250>:
     540:	ea000000 	b	548 <l252>

00000544 <l251>:
     544:	eafffff8 	b	52c <l245>

00000548 <l252>:
     548:	e282b018 	add	fp, r2, #24

0000054c <l253>:
     54c:	21300006 	teqcs	r0, r6

00000550 <l254>:
     550:	1a000007 	bne	574 <l263>

00000554 <l255>:
     554:	e28010a5 	add	r1, r0, #165	; 0xa5

00000558 <l256>:
     558:	e1140002 	tst	r4, r2

0000055c <l257>:
     55c:	23140018 	tstcs	r4, #24

00000560 <l258>:
     560:	41520ce4 	cmpmi	r2, r4, ror #25

00000564 <l259>:
     564:	011b0005 	tsteq	fp, r5

00000568 <l260>:
     568:	93710014 	cmnls	r1, #20

0000056c <l261>:
     56c:	d1550003 	cmple	r5, r3

00000570 <l262>:
     570:	ea000000 	b	578 <l264>

00000574 <l263>:
     574:	eafffff7 	b	558 <l256>

00000578 <l264>:
     578:	41874009 	orrmi	r4, r7, r9

0000057c <l265>:
     57c:	40a3906c 	adcmi	r9, r3, ip, rrx

00000580 <l266>:
     580:	311b0103 	tstcc	fp, r3, lsl #2

00000584 <l267>:
     584:	31db6409 	bicscc	r6, fp, r9, lsl #8

00000588 <l268>:
     588:	11750c71 	cmnne	r5, r1, ror ip

0000058c <l269>:
     58c:	318a3009 	orrcc	r3, sl, r9

00000590 <l270>:
     590:	92904018 	addsls	r4, r0, #24

00000594 <l271>:
     594:	2243a00c 	subcs	sl, r3, #12

00000598 <l272>:
     598:	402c0009 	eormi	r0, ip, r9

0000059c <l273>:
     59c:	9021ee90 	mlals	r1, r0, lr, lr

000005a0 <l274>:
     5a0:	e0900000 	adds	r0, r0, r0

000005a4 <l275>:
     5a4:	ea000001 	b	5b0 <l278>

000005a8 <l276>:
     5a8:	3159087a 	cmpcc	r9, sl, ror r8

000005ac <l277>:
     5ac:	e0233996 	mla	r3, r6, r9, r3

000005b0 <l278>:
     5b0:	e0900000 	adds	r0, r0, r0

000005b4 <l279>:
     5b4:	4a000002 	bmi	5c4 <l283>

000005b8 <l280>:
     5b8:	7008a00c 	andvc	sl, r8, ip

000005bc <l281>:
     5bc:	b00e600b 	andlt	r6, lr, fp

000005c0 <l282>:
     5c0:	315c0009 	cmpcc	ip, r9

000005c4 <l283>:
     5c4:	71da7006 	bicsvc	r7, sl, r6

000005c8 <l284>:
     5c8:	22620008 	rsbcs	r0, r2, #8

000005cc <l285>:
     5cc:	30867004 	addcc	r7, r6, r4

000005d0 <l286>:
     5d0:	50507cc9 	subspl	r7, r0, r9, asr #25

000005d4 <l287>:
     5d4:	91390068 	teqls	r9, r8, rrx

000005d8 <l288>:
     5d8:	e2401018 	sub	r1, r0, #24

000005dc <l289>:
     5dc:	e0211006 	eor	r1, r1, r6

000005e0 <l290>:
     5e0:	c241300c 	subgt	r3, r1, #12

000005e4 <l291>:
     5e4:	60443144 	subvs	r3, r4, r4, asr #2

000005e8 <l292>:
     5e8:	d072b38e 	rsbsle	fp, r2, lr, lsl #7

000005ec <l293>:
     5ec:	01190001 	tsteq	r9, r1

000005f0 <l294>:
     5f0:	1003069b 	mulne	r3, fp, r6

000005f4 <l295>:
     5f4:	e0900000 	adds	r0, r0, r0

000005f8 <l296>:
     5f8:	daffffff 	ble	5fc <l297>

000005fc <l297>:
     5fc:	30c09007 	sbccc	r9, r0, r7

00000600 <l298>:
     600:	53a0c024 	movpl	ip, #36	; 0x24

00000604 <l299>:
     604:	c1b0b001 	movsgt	fp, r1

00000608 <l300>:
     608:	651dc018 	ldrvs	ip, [sp, #-24]

0000060c <l301>:
     60c:	d1b0c732 	lsrsle	ip, r2, r7

00000610 <l302>:
     610:	e51dc024 	ldr	ip, [sp, #-36]	; 0x24

00000614 <l303>:
     614:	e1a0400a 	mov	r4, sl

00000618 <l304>:
     618:	80560122 	subshi	r0, r6, r2, lsr #2

0000061c <l305>:
     61c:	4170012b 	cmnmi	r0, fp, lsr #2

00000620 <l306>:
     620:	b18ea006 	orrlt	sl, lr, r6

00000624 <l307>:
     624:	7024159c 	mlavc	r4, ip, r5, r1

00000628 <l308>:
     628:	e0900000 	adds	r0, r0, r0

0000062c <l309>:
     62c:	7a000000 	bvc	634 <l311>

00000630 <l310>:
     630:	80050696 	mulhi	r5, r6, r6

00000634 <l311>:
     634:	e0900000 	adds	r0, r0, r0

00000638 <l312>:
     638:	91f08416 	mvnsls	r8, r6, lsl r4

0000063c <l313>:
     63c:	e089e3e6 	add	lr, r9, r6, ror #7

00000640 <l314>:
     640:	13f0c00c 	mvnsne	ip, #12

00000644 <l315>:
     644:	c335000c 	teqgt	r5, #12

00000648 <l316>:
     648:	13c01014 	bicne	r1, r0, #20

0000064c <l317>:
     64c:	e08eb00a 	add	fp, lr, sl

00000650 <l318>:
     650:	c3a00014 	movgt	r0, #20

00000654 <l319>:
     654:	902e7003 	eorls	r7, lr, r3

00000658 <l320>:
     658:	80b8b102 	adcshi	fp, r8, r2, lsl #2

0000065c <l321>:
     65c:	918c900b 	orrls	r9, ip, fp

00000660 <l322>:
     660:	71925008 	orrsvc	r5, r2, r8

00000664 <l323>:
     664:	20113008 	andscs	r3, r1, r8

00000668 <l324>:
     668:	70761fcc 	rsbsvc	r1, r6, ip, asr #31

0000066c <l325>:
     66c:	7177044c 	cmnvc	r7, ip, asr #8

00000670 <l326>:
     670:	b3c62018 	biclt	r2, r6, #24

00000674 <l327>:
     674:	a1804009 	orrge	r4, r0, r9

00000678 <l328>:
     678:	e0633917 	rsb	r3, r3, r7, lsl r9

0000067c <l329>:
     67c:	001b900b 	andseq	r9, fp, fp

00000680 <l330>:
     680:	30662013 	rsbcc	r2, r6, r3, lsl r0

00000684 <l331>:
     684:	31d81408 	bicscc	r1, r8, r8, lsl #8

00000688 <l332>:
     688:	6a000002 	bvs	698 <l336>

0000068c <l333>:
     68c:	e28010dc 	add	r1, r0, #220	; 0xdc

00000690 <l334>:
     690:	5297b00c 	addspl	fp, r7, #12

00000694 <l335>:
     694:	ea000000 	b	69c <l337>

00000698 <l336>:
     698:	eafffffc 	b	690 <l334>

0000069c <l337>:
     69c:	b023959c 	mlalt	r3, ip, r5, r9

000006a0 <l338>:
     6a0:	e0900000 	adds	r0, r0, r0

000006a4 <l339>:
     6a4:	e0234004 	eor	r4, r3, r4

000006a8 <l340>:
     6a8:	402b1008 	eormi	r1, fp, r8

000006ac <l341>:
     6ac:	a067e858 	rsbge	lr, r7, r8, asr r8

000006b0 <l342>:
     6b0:	e37e0020 	cmn	lr, #32

000006b4 <l343>:
     6b4:	90c79002 	sbcls	r9, r7, r2

000006b8 <l344>:
     6b8:	e51d8004 	ldr	r8, [sp, #-4]

000006bc <l345>:
     6bc:	31530001 	cmpcc	r3, r1

000006c0 <l346>:
     6c0:	d151007a 	cmple	r1, sl, ror r0

000006c4 <l347>:
     6c4:	71980005 	orrsvc	r0, r8, r5

000006c8 <l348>:
     6c8:	e008000a 	and	r0, r8, sl

000006cc <l349>:
     6cc:	71b0cee4 	rorsvc	ip, r4, #29

000006d0 <l350>:
     6d0:	aa000005 	bge	6ec <l357>

000006d4 <l351>:
     6d4:	7a000006 	bvc	6f4 <l359>

000006d8 <l352>:
     6d8:	ca000005 	bgt	6f4 <l359>

000006dc <l353>:
     6dc:	e0a26005 	adc	r6, r2, r5

000006e0 <l354>:
     6e0:	31c1414c 	biccc	r4, r1, ip, asr #2

000006e4 <l355>:
     6e4:	50940007 	addspl	r0, r4, r7

000006e8 <l356>:
     6e8:	550d2028 	strpl	r2, [sp, #-40]	; 0x28

000006ec <l357>:
     6ec:	7014600c 	andsvc	r6, r4, ip

000006f0 <l358>:
     6f0:	31f06009 	mvnscc	r6, r9

000006f4 <l359>:
     6f4:	902e000b 	eorls	r0, lr, fp

000006f8 <l360>:
     6f8:	351d3010 	ldrcc	r3, [sp, #-16]

000006fc <l361>:
     6fc:	2a000002 	bcs	70c <l365>

00000700 <l362>:
     700:	e2801019 	add	r1, r0, #25

00000704 <l363>:
     704:	41a02d48 	asrmi	r2, r8, #26

00000708 <l364>:
     708:	ea000000 	b	710 <l366>

0000070c <l365>:
     70c:	eafffffc 	b	704 <l363>

00000710 <l366>:
     710:	70098001 	andvc	r8, r9, r1

00000714 <l367>:
     714:	2a000003 	bcs	728 <l372>

00000718 <l368>:
     718:	e280101a 	add	r1, r0, #26

0000071c <l369>:
     71c:	e0a83154 	adc	r3, r8, r4, asr r1

00000720 <l370>:
     720:	515b0007 	cmppl	fp, r7

00000724 <l371>:
     724:	ea000000 	b	72c <l373>

00000728 <l372>:
     728:	eafffffb 	b	71c <l369>

0000072c <l373>:
     72c:	01120006 	tsteq	r2, r6

00000730 <l374>:
     730:	4177000e 	cmnmi	r7, lr

00000734 <l375>:
     734:	40d35068 	sbcsmi	r5, r3, r8, rrx

00000738 <l376>:
     738:	b0070698 	mullt	r7, r8, r6

0000073c <l377>:
     73c:	e0900000 	adds	r0, r0, r0

00000740 <l378>:
     740:	21d83003 	bicscs	r3, r8, r3

00000744 <l379>:
     744:	226b700c 	rsbcs	r7, fp, #12

00000748 <l380>:
     748:	c055a3a9 	subsgt	sl, r5, r9, lsr #7

0000074c <l381>:
     74c:	d00c400a 	andle	r4, ip, sl

00000750 <l382>:
     750:	e02e9b9b 	mla	lr, fp, fp, r9

00000754 <l383>:
     754:	e0900000 	adds	r0, r0, r0

00000758 <l384>:
     758:	31a0c064 	rrxcc	ip, r4

0000075c <l385>:
     75c:	60dbaea8 	sbcsvs	sl, fp, r8, lsr #29

00000760 <l386>:
     760:	62c45018 	sbcvs	r5, r4, #24

00000764 <l387>:
     764:	ba000001 	blt	770 <l390>

00000768 <l388>:
     768:	11a0306b 	rrxne	r3, fp

0000076c <l389>:
     76c:	61510484 	cmpvs	r1, r4, lsl #9

00000770 <l390>:
     770:	00a303e6 	adceq	r0, r3, r6, ror #7

00000774 <l391>:
     774:	e51d2010 	ldr	r2, [sp, #-16]

00000778 <l392>:
     778:	aa000003 	bge	78c <l397>

0000077c <l393>:
     77c:	e28010be 	add	r1, r0, #190	; 0xbe

00000780 <l394>:
     780:	63c7400c 	bicvs	r4, r7, #12

00000784 <l395>:
     784:	62502018 	subsvs	r2, r0, #24

00000788 <l396>:
     788:	ea000000 	b	790 <l398>

0000078c <l397>:
     78c:	eafffffb 	b	780 <l394>

00000790 <l398>:
     790:	10319499 	mlasne	r1, r9, r4, r9

00000794 <l399>:
     794:	e0900000 	adds	r0, r0, r0

00000798 <l400>:
     798:	c1929008 	orrsgt	r9, r2, r8

0000079c <l401>:
     79c:	501b3008 	andspl	r3, fp, r8

000007a0 <l402>:
     7a0:	83e0b00c 	mvnhi	fp, #12

000007a4 <l403>:
     7a4:	e0282007 	eor	r2, r8, r7

000007a8 <l404>:
     7a8:	e51de014 	ldr	lr, [sp, #-20]

000007ac <l405>:
     7ac:	00110b91 	mulseq	r1, r1, fp

000007b0 <l406>:
     7b0:	e0900000 	adds	r0, r0, r0

000007b4 <l407>:
     7b4:	40c2b001 	sbcmi	fp, r2, r1

000007b8 <l408>:
     7b8:	a1f0600e 	mvnsge	r6, lr

000007bc <l409>:
     7bc:	206eae58 	rsbcs	sl, lr, r8, asr lr

000007c0 <l410>:
     7c0:	30946a12 	addscc	r6, r4, r2, lsl sl

000007c4 <l411>:
     7c4:	0015b009 	andseq	fp, r5, r9

000007c8 <l412>:
     7c8:	c251500c 	subsgt	r5, r1, #12

000007cc <l413>:
     7cc:	135c000c 	cmpne	ip, #12

000007d0 <l414>:
     7d0:	e1570160 	cmp	r7, r0, ror #2

000007d4 <l415>:
     7d4:	51db16a8 	bicspl	r1, fp, r8, lsr #13

000007d8 <l416>:
     7d8:	40bea342 	adcsmi	sl, lr, r2, asr #6

000007dc <l417>:
     7dc:	21e0b061 	mvncs	fp, r1, rrx

000007e0 <l418>:
     7e0:	9284500c 	addls	r5, r4, #12

000007e4 <l419>:
     7e4:	101e0299 	mulsne	lr, r9, r2

000007e8 <l420>:
     7e8:	e0900000 	adds	r0, r0, r0

000007ec <l421>:
     7ec:	10395006 	eorsne	r5, r9, r6

000007f0 <l422>:
     7f0:	31320009 	teqcc	r2, r9

000007f4 <l423>:
     7f4:	31e01007 	mvncc	r1, r7

000007f8 <l424>:
     7f8:	328b300c 	addcc	r3, fp, #12

000007fc <l425>:
     7fc:	e0c81359 	sbc	r1, r8, r9, asr r3

00000800 <l426>:
     800:	20995004 	addscs	r5, r9, r4

00000804 <l427>:
     804:	73120014 	tstvc	r2, #20

00000808 <l428>:
     808:	231e000c 	tstcs	lr, #12

0000080c <l429>:
     80c:	e1590080 	cmp	r9, r0, lsl #1

00000810 <l430>:
     810:	20381002 	eorscs	r1, r8, r2

00000814 <l431>:
     814:	8a000007 	bhi	838 <l440>

00000818 <l432>:
     818:	e2801052 	add	r1, r0, #82	; 0x52

0000081c <l433>:
     81c:	d08a0069 	addle	r0, sl, r9, rrx

00000820 <l434>:
     820:	9245400c 	subls	r4, r5, #12

00000824 <l435>:
     824:	e08a5471 	add	r5, sl, r1, ror r4

00000828 <l436>:
     828:	31560687 	cmpcc	r6, r7, lsl #13

0000082c <l437>:
     82c:	11f02348 	mvnsne	r2, r8, asr #6

00000830 <l438>:
     830:	d0b8ec75 	adcsle	lr, r8, r5, ror ip

00000834 <l439>:
     834:	ea000000 	b	83c <l441>

00000838 <l440>:
     838:	eafffff7 	b	81c <l433>

0000083c <l441>:
     83c:	d055e9ce 	subsle	lr, r5, lr, asr #19

00000840 <l442>:
     840:	60686a75 	rsbvs	r6, r8, r5, ror sl

00000844 <l443>:
     844:	33510018 	cmpcc	r1, #24

00000848 <l444>:
     848:	e1c90008 	bic	r0, r9, r8

0000084c <l445>:
     84c:	c033ae96 	mlasgt	r3, r6, lr, sl

00000850 <l446>:
     850:	e0900000 	adds	r0, r0, r0

00000854 <l447>:
     854:	a180b001 	orrge	fp, r0, r1

00000858 <l448>:
     858:	305153a4 	subscc	r5, r1, r4, lsr #7

0000085c <l449>:
     85c:	d02eb000 	eorle	fp, lr, r0

00000860 <l450>:
     860:	31809001 	orrcc	r9, r0, r1

00000864 <l451>:
     864:	1a000005 	bne	880 <l458>

00000868 <l452>:
     868:	80bb8108 	adcshi	r8, fp, r8, lsl #2

0000086c <l453>:
     86c:	a1360e30 	teqge	r6, r0, lsr lr

00000870 <l454>:
     870:	850d9018 	strhi	r9, [sp, #-24]

00000874 <l455>:
     874:	aa000006 	bge	894 <l463>

00000878 <l456>:
     878:	50c0783a 	sbcpl	r7, r0, sl, lsr r8

0000087c <l457>:
     87c:	01180002 	tsteq	r8, r2

00000880 <l458>:
     880:	d09ec006 	addsle	ip, lr, r6

00000884 <l459>:
     884:	0a000004 	beq	89c <l465>

00000888 <l460>:
     888:	b50d0008 	strlt	r0, [sp, #-8]

0000088c <l461>:
     88c:	80ae537c 	adchi	r5, lr, ip, ror r3

00000890 <l462>:
     890:	c3530018 	cmpgt	r3, #24

00000894 <l463>:
     894:	d1130143 	tstle	r3, r3, asr #2

00000898 <l464>:
     898:	61824004 	orrvs	r4, r2, r4

0000089c <l465>:
     89c:	61f05062 	mvnsvs	r5, r2, rrx

000008a0 <l466>:
     8a0:	d2498014 	suble	r8, r9, #20

000008a4 <l467>:
     8a4:	d025300e 	eorle	r3, r5, lr

000008a8 <l468>:
     8a8:	504ee00a 	subpl	lr, lr, sl

000008ac <l469>:
     8ac:	d378000c 	cmnle	r8, #12

000008b0 <l470>:
     8b0:	d1d9c00a 	bicsle	ip, r9, sl

000008b4 <l471>:
     8b4:	aa000005 	bge	8d0 <l478>

000008b8 <l472>:
     8b8:	e280107c 	add	r1, r0, #124	; 0x7c

000008bc <l473>:
     8bc:	12840028 	addne	r0, r4, #40	; 0x28

000008c0 <l474>:
     8c0:	93e09020 	mvnls	r9, #32

000008c4 <l475>:
     8c4:	c047b6a9 	subgt	fp, r7, r9, lsr #13

000008c8 <l476>:
     8c8:	713e0659 	teqvc	lr, r9, asr r6

000008cc <l477>:
     8cc:	ea000000 	b	8d4 <l479>

000008d0 <l478>:
     8d0:	eafffff9 	b	8bc <l473>

000008d4 <l479>:
     8d4:	c1cb046c 	bicgt	r0, fp, ip, ror #8

000008d8 <l480>:
     8d8:	4a000006 	bmi	8f8 <l488>

000008dc <l481>:
     8dc:	e28010e2 	add	r1, r0, #226	; 0xe2

000008e0 <l482>:
     8e0:	60b2c006 	adcsvs	ip, r2, r6

000008e4 <l483>:
     8e4:	d0ca700b 	sbcle	r7, sl, fp

000008e8 <l484>:
     8e8:	a1170385 	tstge	r7, r5, lsl #7

000008ec <l485>:
     8ec:	31d4e4a7 	bicscc	lr, r4, r7, lsr #9

000008f0 <l486>:
     8f0:	71f06aaa 	mvnsvc	r6, sl, lsr #21

000008f4 <l487>:
     8f4:	ea000000 	b	8fc <l489>

000008f8 <l488>:
     8f8:	eafffff8 	b	8e0 <l482>

000008fc <l489>:
     8fc:	5a000005 	bpl	918 <l496>

00000900 <l490>:
     900:	42587018 	subsmi	r7, r8, #24

00000904 <l491>:
     904:	60120798 	mulsvs	r2, r8, r7

00000908 <l492>:
     908:	e0900000 	adds	r0, r0, r0

0000090c <l493>:
     90c:	ea000001 	b	918 <l496>

00000910 <l494>:
     910:	e2a0200c 	adc	r2, r0, #12

00000914 <l495>:
     914:	0252200c 	subseq	r2, r2, #12

00000918 <l496>:
     918:	1023b594 	mlane	r3, r4, r5, fp

0000091c <l497>:
     91c:	e0900000 	adds	r0, r0, r0

00000920 <l498>:
     920:	91b05001 	movsls	r5, r1

00000924 <l499>:
     924:	551d4008 	ldrpl	r4, [sp, #-8]

00000928 <l500>:
     928:	30746002 	rsbscc	r6, r4, r2

0000092c <l501>:
     92c:	70379003 	eorsvc	r9, r7, r3

00000930 <l502>:
     930:	7a000004 	bvc	948 <l508>

00000934 <l503>:
     934:	413c0001 	teqmi	ip, r1

00000938 <l504>:
     938:	11570957 	cmpne	r7, r7, asr r9

0000093c <l505>:
     93c:	70090892 	mulvc	r9, r2, r8

00000940 <l506>:
     940:	e0900000 	adds	r0, r0, r0

00000944 <l507>:
     944:	91840008 	orrls	r0, r4, r8

00000948 <l508>:
     948:	833c0014 	teqhi	ip, #20

0000094c <l509>:
     94c:	10db5a76 	sbcsne	r5, fp, r6, ror sl

00000950 <l510>:
     950:	10395a94 	mlasne	r9, r4, sl, r5

00000954 <l511>:
     954:	e0900000 	adds	r0, r0, r0

00000958 <l512>:
     958:	e0264005 	eor	r4, r6, r5

0000095c <l513>:
     95c:	b119000b 	tstlt	r9, fp

00000960 <l514>:
     960:	11710064 	cmnne	r1, r4, rrx

00000964 <l515>:
     964:	0a000004 	beq	97c <l521>

00000968 <l516>:
     968:	e280109e 	add	r1, r0, #158	; 0x9e

0000096c <l517>:
     96c:	9177006b 	cmnls	r7, fp, rrx

00000970 <l518>:
     970:	90a0433b 	adcls	r4, r0, fp, lsr r3

00000974 <l519>:
     974:	215e0008 	cmpcs	lr, r8

00000978 <l520>:
     978:	ea000000 	b	980 <l522>

0000097c <l521>:
     97c:	eafffffa 	b	96c <l517>

00000980 <l522>:
     980:	93a09014 	movls	r9, #20

00000984 <l523>:
     984:	0039a00e 	eorseq	sl, r9, lr

00000988 <l524>:
     988:	50379007 	eorspl	r9, r7, r7

0000098c <l525>:
     98c:	d1f010e3 	mvnsle	r1, r3, ror #1

00000990 <l526>:
     990:	10163006 	andsne	r3, r6, r6

00000994 <l527>:
     994:	a1e0a36e 	mvnge	sl, lr, ror #6

00000998 <l528>:
     998:	702b800b 	eorvc	r8, fp, fp

0000099c <l529>:
     99c:	e1540518 	cmp	r4, r8, lsl r5

000009a0 <l530>:
     9a0:	90001003 	andls	r1, r0, r3

000009a4 <l531>:
     9a4:	c0170c95 	mulsgt	r7, r5, ip

000009a8 <l532>:
     9a8:	e0900000 	adds	r0, r0, r0

000009ac <l533>:
     9ac:	551d2028 	ldrpl	r2, [sp, #-40]	; 0x28

000009b0 <l534>:
     9b0:	c1b0000c 	movsgt	r0, ip

000009b4 <l535>:
     9b4:	80190e93 	mulshi	r9, r3, lr

000009b8 <l536>:
     9b8:	e0900000 	adds	r0, r0, r0

000009bc <l537>:
     9bc:	91550146 	cmpls	r5, r6, asr #2

000009c0 <l538>:
     9c0:	d51d500c 	ldrle	r5, [sp, #-12]

000009c4 <l539>:
     9c4:	e0a34fa2 	adc	r4, r3, r2, lsr #31

000009c8 <l540>:
     9c8:	801a3001 	andshi	r3, sl, r1

000009cc <l541>:
     9cc:	20070697 	mulcs	r7, r7, r6

000009d0 <l542>:
     9d0:	e0900000 	adds	r0, r0, r0

000009d4 <l543>:
     9d4:	80830ea4 	addhi	r0, r3, r4, lsr #29

000009d8 <l544>:
     9d8:	b0d03130 	sbcslt	r3, r0, r0, lsr r1

000009dc <l545>:
     9dc:	a03ea00a 	eorsge	sl, lr, sl

000009e0 <l546>:
     9e0:	e06c4384 	rsb	r4, ip, r4, lsl #7

000009e4 <l547>:
     9e4:	4022a89a 	mlami	r2, sl, r8, sl

000009e8 <l548>:
     9e8:	e0900000 	adds	r0, r0, r0

000009ec <l549>:
     9ec:	0260100c 	rsbeq	r1, r0, #12

000009f0 <l550>:
     9f0:	11f00218 	mvnsne	r0, r8, lsl r2

000009f4 <l551>:
     9f4:	81b09005 	movshi	r9, r5

000009f8 <l552>:
     9f8:	e15a0b5b 	cmp	sl, fp, asr fp

000009fc <l553>:
     9fc:	ea000004 	b	a14 <l559>

00000a00 <l554>:
     a00:	e28010b9 	add	r1, r0, #185	; 0xb9

00000a04 <l555>:
     a04:	41a08008 	movmi	r8, r8

00000a08 <l556>:
     a08:	83d88018 	bicshi	r8, r8, #24

00000a0c <l557>:
     a0c:	a1740cc2 	cmnge	r4, r2, asr #25

00000a10 <l558>:
     a10:	ea000000 	b	a18 <l560>

00000a14 <l559>:
     a14:	eafffffa 	b	a04 <l555>

00000a18 <l560>:
     a18:	20bc8001 	adcscs	r8, ip, r1

00000a1c <l561>:
     a1c:	40ac20e2 	adcmi	r2, ip, r2, ror #1

00000a20 <l562>:
     a20:	800a200c 	andhi	r2, sl, ip

00000a24 <l563>:
     a24:	4a000002 	bmi	a34 <l567>

00000a28 <l564>:
     a28:	e2801025 	add	r1, r0, #37	; 0x25

00000a2c <l565>:
     a2c:	c13e0337 	teqgt	lr, r7, lsr r3

00000a30 <l566>:
     a30:	ea000000 	b	a38 <l568>

00000a34 <l567>:
     a34:	eafffffc 	b	a2c <l565>

00000a38 <l568>:
     a38:	a3550014 	cmpge	r5, #20

00000a3c <l569>:
     a3c:	8002c001 	andhi	ip, r2, r1

00000a40 <l570>:
     a40:	42a79014 	adcmi	r9, r7, #20

00000a44 <l571>:
     a44:	a18c6000 	orrge	r6, ip, r0

00000a48 <l572>:
     a48:	c03a3393 	mlasgt	sl, r3, r3, r3

00000a4c <l573>:
     a4c:	e0900000 	adds	r0, r0, r0

00000a50 <l574>:
     a50:	251de018 	ldrcs	lr, [sp, #-24]

00000a54 <l575>:
     a54:	12518014 	subsne	r8, r1, #20

00000a58 <l576>:
     a58:	e1855008 	orr	r5, r5, r8

00000a5c <l577>:
     a5c:	a1170062 	tstge	r7, r2, rrx

00000a60 <l578>:
     a60:	7043c480 	subvc	ip, r3, r0, lsl #9

00000a64 <l579>:
     a64:	515e0216 	cmppl	lr, r6, lsl r2

00000a68 <l580>:
     a68:	2a000004 	bcs	a80 <l586>

00000a6c <l581>:
     a6c:	b3f00024 	mvnslt	r0, #36	; 0x24

00000a70 <l582>:
     a70:	31500067 	cmpcc	r0, r7, rrx

00000a74 <l583>:
     a74:	ea000001 	b	a80 <l586>

00000a78 <l584>:
     a78:	ca000006 	bgt	a98 <l592>

00000a7c <l585>:
     a7c:	e28010ec 	add	r1, r0, #236	; 0xec

00000a80 <l586>:
     a80:	71150070 	tstvc	r5, r0, ror r0

00000a84 <l587>:
     a84:	73760014 	cmnvc	r6, #20

00000a88 <l588>:
     a88:	d1f0a007 	mvnsle	sl, r7

00000a8c <l589>:
     a8c:	31160f87 	tstcc	r6, r7, lsl #31

00000a90 <l590>:
     a90:	a3f09018 	mvnsge	r9, #24

00000a94 <l591>:
     a94:	ea000000 	b	a9c <l593>

00000a98 <l592>:
     a98:	eafffff8 	b	a80 <l586>

00000a9c <l593>:
     a9c:	ca000003 	bgt	ab0 <l598>

00000aa0 <l594>:
     aa0:	e2801065 	add	r1, r0, #101	; 0x65

00000aa4 <l595>:
     aa4:	80792007 	rsbshi	r2, r9, r7

00000aa8 <l596>:
     aa8:	51f02000 	mvnspl	r2, r0

00000aac <l597>:
     aac:	ea000000 	b	ab4 <l599>

00000ab0 <l598>:
     ab0:	eafffffb 	b	aa4 <l595>

00000ab4 <l599>:
     ab4:	202ec292 	mlacs	lr, r2, r2, ip

00000ab8 <l600>:
     ab8:	e0900000 	adds	r0, r0, r0

00000abc <l601>:
     abc:	81e0c322 	mvnhi	ip, r2, lsr #6

00000ac0 <l602>:
     ac0:	9196c000 	orrsls	ip, r6, r0

00000ac4 <l603>:
     ac4:	e1e02000 	mvn	r2, r0

00000ac8 <l604>:
     ac8:	813b0436 	teqhi	fp, r6, lsr r4

00000acc <l605>:
     acc:	6a000008 	bvs	af4 <l615>

00000ad0 <l606>:
     ad0:	050db028 	streq	fp, [sp, #-40]	; 0x28

00000ad4 <l607>:
     ad4:	e11104c8 	tst	r1, r8, asr #9

00000ad8 <l608>:
     ad8:	e0890064 	add	r0, r9, r4, rrx

00000adc <l609>:
     adc:	d51d0010 	ldrle	r0, [sp, #-16]

00000ae0 <l610>:
     ae0:	ea000001 	b	aec <l613>

00000ae4 <l611>:
     ae4:	3067cb17 	rsbcc	ip, r7, r7, lsl fp

00000ae8 <l612>:
     ae8:	5059a004 	subspl	sl, r9, r4

00000aec <l613>:
     aec:	73f04018 	mvnsvc	r4, #24

00000af0 <l614>:
     af0:	e330000c 	teq	r0, #12

00000af4 <l615>:
     af4:	43c9700c 	bicmi	r7, r9, #12

00000af8 <l616>:
     af8:	a17e0003 	cmnge	lr, r3

00000afc <l617>:
     afc:	8330000c 	teqhi	r0, #12

00000b00 <l618>:
     b00:	e04114ee 	sub	r1, r1, lr, ror #9

00000b04 <l619>:
     b04:	e0abce35 	adc	ip, fp, r5, lsr lr

00000b08 <l620>:
     b08:	027e2014 	rsbseq	r2, lr, #20

00000b0c <l621>:
     b0c:	d0287002 	eorle	r7, r8, r2

00000b10 <l622>:
     b10:	80a58386 	adchi	r8, r5, r6, lsl #7

00000b14 <l623>:
     b14:	83d5000c 	bicshi	r0, r5, #12

00000b18 <l624>:
     b18:	01994006 	orrseq	r4, r9, r6

00000b1c <l625>:
     b1c:	1353000c 	cmpne	r3, #12

00000b20 <l626>:
     b20:	51b03e39 	lsrspl	r3, r9, lr

00000b24 <l627>:
     b24:	050d7028 	streq	r7, [sp, #-40]	; 0x28

00000b28 <l628>:
     b28:	d13c04aa 	teqle	ip, sl, lsr #9

00000b2c <l629>:
     b2c:	00b7b877 	adcseq	fp, r7, r7, ror r8

00000b30 <l630>:
     b30:	a29c3014 	addsge	r3, ip, #20

00000b34 <l631>:
     b34:	50018009 	andpl	r8, r1, r9

00000b38 <l632>:
     b38:	7a000002 	bvc	b48 <l636>

00000b3c <l633>:
     b3c:	e2801091 	add	r1, r0, #145	; 0x91

00000b40 <l634>:
     b40:	0258a014 	subseq	sl, r8, #20

00000b44 <l635>:
     b44:	ea000000 	b	b4c <l637>

00000b48 <l636>:
     b48:	eafffffc 	b	b40 <l634>

00000b4c <l637>:
     b4c:	e00ec000 	and	ip, lr, r0

00000b50 <l638>:
     b50:	e0c83417 	sbc	r3, r8, r7, lsl r4

00000b54 <l639>:
     b54:	03390018 	teqeq	r9, #24

00000b58 <l640>:
     b58:	107b300c 	rsbsne	r3, fp, ip

00000b5c <l641>:
     b5c:	b1b0e44c 	asrslt	lr, ip, #8

00000b60 <l642>:
     b60:	c019c007 	andsgt	ip, r9, r7

00000b64 <l643>:
     b64:	d005400b 	andle	r4, r5, fp

00000b68 <l644>:
     b68:	11f0a385 	mvnsne	sl, r5, lsl #7

00000b6c <l645>:
     b6c:	951db020 	ldrls	fp, [sp, #-32]

00000b70 <l646>:
     b70:	60130997 	mulsvs	r3, r7, r9

00000b74 <l647>:
     b74:	e0900000 	adds	r0, r0, r0

00000b78 <l648>:
     b78:	41520001 	cmpmi	r2, r1

00000b7c <l649>:
     b7c:	50718006 	rsbspl	r8, r1, r6

00000b80 <l650>:
     b80:	ca000005 	bgt	b9c <l657>

00000b84 <l651>:
     b84:	e2801032 	add	r1, r0, #50	; 0x32

00000b88 <l652>:
     b88:	83530014 	cmphi	r3, #20

00000b8c <l653>:
     b8c:	d0667065 	rsble	r7, r6, r5, rrx

00000b90 <l654>:
     b90:	a13800ab 	teqge	r8, fp, lsr #1

00000b94 <l655>:
     b94:	30ae8064 	adccc	r8, lr, r4, rrx

00000b98 <l656>:
     b98:	ea000000 	b	ba0 <l658>

00000b9c <l657>:
     b9c:	eafffff9 	b	b88 <l652>

00000ba0 <l658>:
     ba0:	b0b1b442 	adcslt	fp, r1, r2, asr #8

00000ba4 <l659>:
     ba4:	b2a1b020 	adclt	fp, r1, #32

00000ba8 <l660>:
     ba8:	e51d2008 	ldr	r2, [sp, #-8]

00000bac <l661>:
     bac:	0353000c 	cmpeq	r3, #12

00000bb0 <l662>:
     bb0:	91190555 	tstls	r9, r5, asr r5

00000bb4 <l663>:
     bb4:	d51d100c 	ldrle	r1, [sp, #-12]

00000bb8 <l664>:
     bb8:	41c52815 	bicmi	r2, r5, r5, lsl r8

00000bbc <l665>:
     bbc:	30130692 	mulscc	r3, r2, r6

00000bc0 <l666>:
     bc0:	e0900000 	adds	r0, r0, r0

00000bc4 <l667>:
     bc4:	a0d13008 	sbcsge	r3, r1, r8

00000bc8 <l668>:
     bc8:	850db004 	strhi	fp, [sp, #-4]

00000bcc <l669>:
     bcc:	c243e014 	subgt	lr, r3, #20

00000bd0 <l670>:
     bd0:	00d7c066 	sbcseq	ip, r7, r6, rrx

00000bd4 <l671>:
     bd4:	71a0e064 	rrxvc	lr, r4

00000bd8 <l672>:
     bd8:	c02bc00c 	eorgt	ip, fp, ip

00000bdc <l673>:
     bdc:	00941003 	addseq	r1, r4, r3

00000be0 <l674>:
     be0:	41110064 	tstmi	r1, r4, rrx

00000be4 <l675>:
     be4:	907e000b 	rsbsls	r0, lr, fp

00000be8 <l676>:
     be8:	b1962001 	orrslt	r2, r6, r1

00000bec <l677>:
     bec:	6059a000 	subsvs	sl, r9, r0

00000bf0 <l678>:
     bf0:	61100004 	tstvs	r0, r4

00000bf4 <l679>:
     bf4:	6a000005 	bvs	c10 <l686>

00000bf8 <l680>:
     bf8:	a0370e95 	mlasge	r7, r5, lr, r0

00000bfc <l681>:
     bfc:	e0900000 	adds	r0, r0, r0

00000c00 <l682>:
     c00:	ea000003 	b	c14 <l687>

00000c04 <l683>:
     c04:	e280108c 	add	r1, r0, #140	; 0x8c

00000c08 <l684>:
     c08:	31e06989 	mvncc	r6, r9, lsl #19

00000c0c <l685>:
     c0c:	233a0014 	teqcs	sl, #20

00000c10 <l686>:
     c10:	ea000000 	b	c18 <l688>

00000c14 <l687>:
     c14:	eafffffb 	b	c08 <l684>

00000c18 <l688>:
     c18:	a00a3009 	andge	r3, sl, r9

00000c1c <l689>:
     c1c:	217b0068 	cmncs	fp, r8, rrx

00000c20 <l690>:
     c20:	b3c0700c 	biclt	r7, r0, #12

00000c24 <l691>:
     c24:	0affffff 	beq	c28 <l692>

00000c28 <l692>:
     c28:	21a0c06b 	rrxcs	ip, fp

00000c2c <l693>:
     c2c:	c2c65014 	sbcgt	r5, r6, #20

00000c30 <l694>:
     c30:	e0c9906a 	sbc	r9, r9, sl, rrx

00000c34 <l695>:
     c34:	e02e900b 	eor	r9, lr, fp

00000c38 <l696>:
     c38:	53d40018 	bicspl	r0, r4, #24

00000c3c <l697>:
     c3c:	900b6008 	andls	r6, fp, r8

00000c40 <l698>:
     c40:	0039c001 	eorseq	ip, r9, r1

00000c44 <l699>:
     c44:	80b45060 	adcshi	r5, r4, r0, rrx

00000c48 <l700>:
     c48:	31190000 	tstcc	r9, r0

00000c4c <l701>:
     c4c:	301c100a 	andscc	r1, ip, sl

00000c50 <l702>:
     c50:	71f07069 	mvnsvc	r7, r9, rrx

00000c54 <l703>:
     c54:	b1f08d04 	mvnslt	r8, r4, lsl #26

00000c58 <l704>:
     c58:	302c800b 	eorcc	r8, ip, fp

00000c5c <l705>:
     c5c:	ea000005 	b	c78 <l712>

00000c60 <l706>:
     c60:	e2801006 	add	r1, r0, #6

00000c64 <l707>:
     c64:	d1a09c5c 	asrle	r9, ip, ip

00000c68 <l708>:
     c68:	e06c3009 	rsb	r3, ip, r9

00000c6c <l709>:
     c6c:	c13e0003 	teqgt	lr, r3

00000c70 <l710>:
     c70:	b2767018 	rsbslt	r7, r6, #24

00000c74 <l711>:
     c74:	ea000000 	b	c7c <l713>

00000c78 <l712>:
     c78:	eafffff9 	b	c64 <l707>

00000c7c <l713>:
     c7c:	5252a00c 	subspl	sl, r2, #12

00000c80 <l714>:
     c80:	9282100c 	addls	r1, r2, #12

00000c84 <l715>:
     c84:	a1d88067 	bicsge	r8, r8, r7, rrx

00000c88 <l716>:
     c88:	01f09a10 	mvnseq	r9, r0, lsl sl

00000c8c <l717>:
     c8c:	350d900c 	strcc	r9, [sp, #-12]

00000c90 <l718>:
     c90:	2055a23c 	subscs	sl, r5, ip, lsr r2

00000c94 <l719>:
     c94:	4a000001 	bmi	ca0 <l722>

00000c98 <l720>:
     c98:	9a000003 	bls	cac <l725>

00000c9c <l721>:
     c9c:	e280100d 	add	r1, r0, #13

00000ca0 <l722>:
     ca0:	71750aa7 	cmnvc	r5, r7, lsr #21

00000ca4 <l723>:
     ca4:	8272e018 	rsbshi	lr, r2, #24

00000ca8 <l724>:
     ca8:	ea000000 	b	cb0 <l726>

00000cac <l725>:
     cac:	eafffffb 	b	ca0 <l722>

00000cb0 <l726>:
     cb0:	209253ce 	addscs	r5, r2, lr, asr #7

00000cb4 <l727>:
     cb4:	21e03007 	mvncs	r3, r7

00000cb8 <l728>:
     cb8:	80a53a76 	adchi	r3, r5, r6, ror sl

00000cbc <l729>:
     cbc:	337b0014 	cmncc	fp, #20

00000cc0 <l730>:
     cc0:	505c0102 	subspl	r0, ip, r2, lsl #2

00000cc4 <l731>:
     cc4:	c0074001 	andgt	r4, r7, r1

00000cc8 <l732>:
     cc8:	551d301c 	ldrpl	r3, [sp, #-28]

00000ccc <l733>:
     ccc:	71959001 	orrsvc	r9, r5, r1

00000cd0 <l734>:
     cd0:	e0a40060 	adc	r0, r4, r0, rrx

00000cd4 <l735>:
     cd4:	41e04003 	mvnmi	r4, r3

00000cd8 <l736>:
     cd8:	80b72069 	adcshi	r2, r7, r9, rrx

00000cdc <l737>:
     cdc:	71730651 	cmnvc	r3, r1, asr r6

00000ce0 <l738>:
     ce0:	31380064 	teqcc	r8, r4, rrx

00000ce4 <l739>:
     ce4:	e3710018 	cmn	r1, #24

00000ce8 <l740>:
     ce8:	6352000c 	cmpvs	r2, #12

00000cec <l741>:
     cec:	e0247006 	eor	r7, r4, r6

00000cf0 <l742>:
     cf0:	70478009 	subvc	r8, r7, r9

00000cf4 <l743>:
     cf4:	e0062007 	and	r2, r6, r7

00000cf8 <l744>:
     cf8:	e11a0005 	tst	sl, r5

00000cfc <l745>:
     cfc:	32c82014 	sbccc	r2, r8, #20

00000d00 <l746>:
     d00:	33f05014 	mvnscc	r5, #20

00000d04 <l747>:
     d04:	51e0506e 	mvnpl	r5, lr, rrx

00000d08 <l748>:
     d08:	2271c014 	rsbscs	ip, r1, #20

00000d0c <l749>:
     d0c:	8370000c 	cmnhi	r0, #12

00000d10 <l750>:
     d10:	127a5018 	rsbsne	r5, sl, #24

00000d14 <l751>:
     d14:	21d16000 	bicscs	r6, r1, r0

00000d18 <l752>:
     d18:	ea000001 	b	d24 <l755>

00000d1c <l753>:
     d1c:	406ec065 	rsbmi	ip, lr, r5, rrx

00000d20 <l754>:
     d20:	93520014 	cmpls	r2, #20

00000d24 <l755>:
     d24:	91b00062 	rrxsls	r0, r2

00000d28 <l756>:
     d28:	819bc003 	orrshi	ip, fp, r3

00000d2c <l757>:
     d2c:	0a000002 	beq	d3c <l761>

00000d30 <l758>:
     d30:	e280100b 	add	r1, r0, #11

00000d34 <l759>:
     d34:	61f0afcb 	mvnsvs	sl, fp, asr #31

00000d38 <l760>:
     d38:	ea000000 	b	d40 <l762>

00000d3c <l761>:
     d3c:	eafffffc 	b	d34 <l759>

00000d40 <l762>:
     d40:	01360976 	teqeq	r6, r6, ror r9

00000d44 <l763>:
     d44:	e1e05003 	mvn	r5, r3

00000d48 <l764>:
     d48:	c18e0002 	orrgt	r0, lr, r2

00000d4c <l765>:
     d4c:	51d69005 	bicspl	r9, r6, r5

00000d50 <l766>:
     d50:	e2c89014 	sbc	r9, r8, #20

00000d54 <l767>:
     d54:	a1d04446 	bicsge	r4, r0, r6, asr #8

00000d58 <l768>:
     d58:	e0284692 	mla	r8, r2, r6, r4

00000d5c <l769>:
     d5c:	e0900000 	adds	r0, r0, r0

00000d60 <l770>:
     d60:	ea000003 	b	d74 <l775>

00000d64 <l771>:
     d64:	e2801018 	add	r1, r0, #24

00000d68 <l772>:
     d68:	9115046a 	tstls	r5, sl, ror #8

00000d6c <l773>:
     d6c:	e1a04f89 	lsl	r4, r9, #31

00000d70 <l774>:
     d70:	ea000000 	b	d78 <l776>

00000d74 <l775>:
     d74:	eafffffb 	b	d68 <l772>

00000d78 <l776>:
     d78:	a50da00c 	strge	sl, [sp, #-12]

00000d7c <l777>:
     d7c:	41f00064 	mvnsmi	r0, r4, rrx

00000d80 <l778>:
     d80:	b03ca007 	eorslt	sl, ip, r7

00000d84 <l779>:
     d84:	ea000002 	b	d94 <l783>

00000d88 <l780>:
     d88:	e28010dd 	add	r1, r0, #221	; 0xdd

00000d8c <l781>:
     d8c:	4062c06b 	rsbmi	ip, r2, fp, rrx

00000d90 <l782>:
     d90:	ea000000 	b	d98 <l784>

00000d94 <l783>:
     d94:	eafffffc 	b	d8c <l781>

00000d98 <l784>:
     d98:	a0d0b006 	sbcsge	fp, r0, r6

00000d9c <l785>:
     d9c:	d1826007 	orrle	r6, r2, r7

00000da0 <l786>:
     da0:	6019c00a 	andsvs	ip, r9, sl

00000da4 <l787>:
     da4:	9003800a 	andls	r8, r3, sl

00000da8 <l788>:
     da8:	e1a07c11 	lsl	r7, r1, ip

00000dac <l789>:
     dac:	c2401014 	subgt	r1, r0, #20

00000db0 <l790>:
     db0:	a3380018 	teqge	r8, #24

00000db4 <l791>:
     db4:	d02b0004 	eorle	r0, fp, r4

00000db8 <l792>:
     db8:	b00bc006 	andlt	ip, fp, r6

00000dbc <l793>:
     dbc:	719a2006 	orrsvc	r2, sl, r6

00000dc0 <l794>:
     dc0:	e1300fce 	teq	r0, lr, asr #31

00000dc4 <l795>:
     dc4:	619c6006 	orrsvs	r6, ip, r6

00000dc8 <l796>:
     dc8:	451d1010 	ldrmi	r1, [sp, #-16]

00000dcc <l797>:
     dcc:	501e0e92 	mulspl	lr, r2, lr

00000dd0 <l798>:
     dd0:	e0900000 	adds	r0, r0, r0

00000dd4 <l799>:
     dd4:	50b1a382 	adcspl	sl, r1, r2, lsl #7

00000dd8 <l800>:
     dd8:	415e0000 	cmpmi	lr, r0

00000ddc <l801>:
     ddc:	e025a092 	mla	r5, r2, r0, sl

00000de0 <l802>:
     de0:	e0900000 	adds	r0, r0, r0

00000de4 <l803>:
     de4:	519a7008 	orrspl	r7, sl, r8

00000de8 <l804>:
     de8:	b33b0018 	teqlt	fp, #24

00000dec <l805>:
     dec:	151d601c 	ldrne	r6, [sp, #-28]

00000df0 <l806>:
     df0:	ea000001 	b	dfc <l809>

00000df4 <l807>:
     df4:	a50d8014 	strge	r8, [sp, #-20]

00000df8 <l808>:
     df8:	706363e1 	rsbvc	r6, r3, r1, ror #7

00000dfc <l809>:
     dfc:	c17b0374 	cmngt	fp, r4, ror r3

00000e00 <l810>:
     e00:	e280100c 	add	r1, r0, #12

00000e04 <l811>:
     e04:	5a000004 	bpl	e1c <l817>

00000e08 <l812>:
     e08:	e28010db 	add	r1, r0, #219	; 0xdb

00000e0c <l813>:
     e0c:	b1b07a37 	lsrslt	r7, r7, sl

00000e10 <l814>:
     e10:	415e0718 	cmpmi	lr, r8, lsl r7

00000e14 <l815>:
     e14:	7062900c 	rsbvc	r9, r2, ip

00000e18 <l816>:
     e18:	ea000000 	b	e20 <l818>

00000e1c <l817>:
     e1c:	eafffffa 	b	e0c <l813>

00000e20 <l818>:
     e20:	450db020 	strmi	fp, [sp, #-32]

00000e24 <l819>:
     e24:	3a000004 	bcc	e3c <l825>

00000e28 <l820>:
     e28:	e2801041 	add	r1, r0, #65	; 0x41

00000e2c <l821>:
     e2c:	3242600c 	subcc	r6, r2, #12

00000e30 <l822>:
     e30:	a09893c3 	addsge	r9, r8, r3, asr #7

00000e34 <l823>:
     e34:	1152000c 	cmpne	r2, ip

00000e38 <l824>:
     e38:	ea000000 	b	e40 <l826>

00000e3c <l825>:
     e3c:	eafffffa 	b	e2c <l821>

00000e40 <l826>:
     e40:	13190018 	tstne	r9, #24

00000e44 <l827>:
     e44:	91843002 	orrls	r3, r4, r2

00000e48 <l828>:
     e48:	6181a006 	orrvs	sl, r1, r6

00000e4c <l829>:
     e4c:	d1330067 	teqle	r3, r7, rrx

00000e50 <l830>:
     e50:	4a000001 	bmi	e5c <l833>

00000e54 <l831>:
     e54:	21e04088 	mvncs	r4, r8, lsl #1

00000e58 <l832>:
     e58:	d0c4b000 	sbcle	fp, r4, r0

00000e5c <l833>:
     e5c:	e1140473 	tst	r4, r3, ror r4

00000e60 <l834>:
     e60:	b031a000 	eorslt	sl, r1, r0

00000e64 <l835>:
     e64:	801e800c 	andshi	r8, lr, ip

00000e68 <l836>:
     e68:	b0683e54 	rsblt	r3, r8, r4, asr lr

00000e6c <l837>:
     e6c:	e2acc018 	adc	ip, ip, #24

00000e70 <l838>:
     e70:	a3c21014 	bicge	r1, r2, #20

00000e74 <l839>:
     e74:	c1e0bd02 	mvngt	fp, r2, lsl #26

00000e78 <l840>:
     e78:	9190b002 	orrsls	fp, r0, r2

00000e7c <l841>:
     e7c:	001c6005 	andseq	r6, ip, r5

00000e80 <l842>:
     e80:	40473001 	submi	r3, r7, r1

00000e84 <l843>:
     e84:	e1340c12 	teq	r4, r2, lsl ip

00000e88 <l844>:
     e88:	1073cf87 	rsbsne	ip, r3, r7, lsl #31

00000e8c <l845>:
     e8c:	851d0008 	ldrhi	r0, [sp, #-8]

00000e90 <l846>:
     e90:	9a000006 	bls	eb0 <l854>

00000e94 <l847>:
     e94:	e2801052 	add	r1, r0, #82	; 0x52

00000e98 <l848>:
     e98:	e2c07018 	sbc	r7, r0, #24

00000e9c <l849>:
     e9c:	c07bee5e 	rsbsgt	lr, fp, lr, asr lr

00000ea0 <l850>:
     ea0:	e0ac94ae 	adc	r9, ip, lr, lsr #9

00000ea4 <l851>:
     ea4:	e17b0438 	cmn	fp, r8, lsr r4

00000ea8 <l852>:
     ea8:	e087e579 	add	lr, r7, r9, ror r5

00000eac <l853>:
     eac:	ea000000 	b	eb4 <l855>

00000eb0 <l854>:
     eb0:	eafffff8 	b	e98 <l848>

00000eb4 <l855>:
     eb4:	e0600006 	rsb	r0, r0, r6

00000eb8 <l856>:
     eb8:	e1814000 	orr	r4, r1, r0

00000ebc <l857>:
     ebc:	da000000 	ble	ec4 <l859>

00000ec0 <l858>:
     ec0:	e51de00c 	ldr	lr, [sp, #-12]

00000ec4 <l859>:
     ec4:	9037200e 	eorsls	r2, r7, lr

00000ec8 <l860>:
     ec8:	80708001 	rsbshi	r8, r0, r1

00000ecc <l861>:
     ecc:	50424cc2 	subpl	r4, r2, r2, asr #25

00000ed0 <l862>:
     ed0:	e51d2014 	ldr	r2, [sp, #-20]

00000ed4 <l863>:
     ed4:	e186e008 	orr	lr, r6, r8

00000ed8 <l864>:
     ed8:	5017100e 	andspl	r1, r7, lr

00000edc <l865>:
     edc:	750db018 	strvc	fp, [sp, #-24]

00000ee0 <l866>:
     ee0:	d098e004 	addsle	lr, r8, r4

00000ee4 <l867>:
     ee4:	2067c463 	rsbcs	ip, r7, r3, ror #8

00000ee8 <l868>:
     ee8:	e0c02a1c 	sbc	r2, r0, ip, lsl sl

00000eec <l869>:
     eec:	e3a08018 	mov	r8, #24

00000ef0 <l870>:
     ef0:	73a09018 	movvc	r9, #24

00000ef4 <l871>:
     ef4:	80d563c9 	sbcshi	r6, r5, r9, asr #7

00000ef8 <l872>:
     ef8:	90045008 	andls	r5, r4, r8

00000efc <l873>:
     efc:	7a000007 	bvc	f20 <l882>

00000f00 <l874>:
     f00:	e280106d 	add	r1, r0, #109	; 0x6d

00000f04 <l875>:
     f04:	40cb600c 	sbcmi	r6, fp, ip

00000f08 <l876>:
     f08:	b26cc00c 	rsblt	ip, ip, #12

00000f0c <l877>:
     f0c:	d06c1008 	rsble	r1, ip, r8

00000f10 <l878>:
     f10:	82888014 	addhi	r8, r8, #20

00000f14 <l879>:
     f14:	51550256 	cmppl	r5, r6, asr r2

00000f18 <l880>:
     f18:	21340140 	teqcs	r4, r0, asr #2

00000f1c <l881>:
     f1c:	ea000000 	b	f24 <l883>

00000f20 <l882>:
     f20:	eafffff7 	b	f04 <l875>

00000f24 <l883>:
     f24:	e04c8005 	sub	r8, ip, r5

00000f28 <l884>:
     f28:	2a000002 	bcs	f38 <l888>

00000f2c <l885>:
     f2c:	91b0e318 	lslsls	lr, r8, r3

00000f30 <l886>:
     f30:	aa000001 	bge	f3c <l889>

00000f34 <l887>:
     f34:	31f00005 	mvnscc	r0, r5

00000f38 <l888>:
     f38:	41959009 	orrsmi	r9, r5, r9

00000f3c <l889>:
     f3c:	9a000007 	bls	f60 <l898>

00000f40 <l890>:
     f40:	e2801071 	add	r1, r0, #113	; 0x71

00000f44 <l891>:
     f44:	63370024 	teqvs	r7, #36	; 0x24

00000f48 <l892>:
     f48:	e060991c 	rsb	r9, r0, ip, lsl r9

00000f4c <l893>:
     f4c:	70a1b713 	adcvc	fp, r1, r3, lsl r7

00000f50 <l894>:
     f50:	33d8a018 	bicscc	sl, r8, #24

00000f54 <l895>:
     f54:	62a39024 	adcvs	r9, r3, #36	; 0x24

00000f58 <l896>:
     f58:	e1a09814 	lsl	r9, r4, r8

00000f5c <l897>:
     f5c:	ea000000 	b	f64 <l899>

00000f60 <l898>:
     f60:	eafffff7 	b	f44 <l891>

00000f64 <l899>:
     f64:	8a000005 	bhi	f80 <l906>

00000f68 <l900>:
     f68:	e2801027 	add	r1, r0, #39	; 0x27

00000f6c <l901>:
     f6c:	a1150833 	tstge	r5, r3, lsr r8

00000f70 <l902>:
     f70:	61330736 	teqvs	r3, r6, lsr r7

00000f74 <l903>:
     f74:	a066aa83 	rsbge	sl, r6, r3, lsl #21

00000f78 <l904>:
     f78:	32802020 	addcc	r2, r0, #32

00000f7c <l905>:
     f7c:	ea000000 	b	f84 <l907>

00000f80 <l906>:
     f80:	eafffff9 	b	f6c <l901>

00000f84 <l907>:
     f84:	91f02060 	mvnsls	r2, r0, rrx

00000f88 <l908>:
     f88:	b0be0685 	adcslt	r0, lr, r5, lsl #13

00000f8c <l909>:
     f8c:	c024ae9a 	mlagt	r4, sl, lr, sl

00000f90 <l910>:
     f90:	e0900000 	adds	r0, r0, r0

00000f94 <l911>:
     f94:	61e08774 	mvnvs	r8, r4, ror r7

00000f98 <l912>:
     f98:	01570c3e 	cmpeq	r7, lr, lsr ip

00000f9c <l913>:
     f9c:	ea000007 	b	fc0 <l922>

00000fa0 <l914>:
     fa0:	e28010ce 	add	r1, r0, #206	; 0xce

00000fa4 <l915>:
     fa4:	e0a0142c 	adc	r1, r0, ip, lsr #8

00000fa8 <l916>:
     fa8:	b37b0014 	cmnlt	fp, #20

00000fac <l917>:
     fac:	80819ae5 	addhi	r9, r1, r5, ror #21

00000fb0 <l918>:
     fb0:	305c9009 	subscc	r9, ip, r9

00000fb4 <l919>:
     fb4:	60d3e000 	sbcsvs	lr, r3, r0

00000fb8 <l920>:
     fb8:	91d30d6e 	bicsls	r0, r3, lr, ror #26

00000fbc <l921>:
     fbc:	ea000000 	b	fc4 <l923>

00000fc0 <l922>:
     fc0:	eafffff7 	b	fa4 <l915>

00000fc4 <l923>:
     fc4:	43e06018 	mvnmi	r6, #24

00000fc8 <l924>:
     fc8:	90715613 	rsbsls	r5, r1, r3, lsl r6

00000fcc <l925>:
     fcc:	31f064e9 	mvnscc	r6, r9, ror #9

00000fd0 <l926>:
     fd0:	10d1a001 	sbcsne	sl, r1, r1

00000fd4 <l927>:
     fd4:	207e09c9 	rsbscs	r0, lr, r9, asr #19

00000fd8 <l928>:
     fd8:	a17c0519 	cmnge	ip, r9, lsl r5

00000fdc <l929>:
     fdc:	7a000005 	bvc	ff8 <l936>

00000fe0 <l930>:
     fe0:	e28010f7 	add	r1, r0, #247	; 0xf7

00000fe4 <l931>:
     fe4:	d04aa3a6 	suble	sl, sl, r6, lsr #7

00000fe8 <l932>:
     fe8:	6041b06c 	subvs	fp, r1, ip, rrx

00000fec <l933>:
     fec:	417500c4 	cmnmi	r5, r4, asr #1

00000ff0 <l934>:
     ff0:	d0a6beea 	adcle	fp, r6, sl, ror #29

00000ff4 <l935>:
     ff4:	ea000000 	b	ffc <l937>

00000ff8 <l936>:
     ff8:	eafffff9 	b	fe4 <l931>

00000ffc <l937>:
     ffc:	a17c0870 	cmnge	ip, r0, ror r8

00001000 <l938>:
    1000:	c2780018 	rsbsgt	r0, r8, #24

00001004 <l939>:
    1004:	61120557 	tstvs	r2, r7, asr r5

00001008 <l940>:
    1008:	33590018 	cmpcc	r9, #24

0000100c <l941>:
    100c:	d028e00c 	eorle	lr, r8, ip

00001010 <l942>:
    1010:	1a000006 	bne	1030 <l950>

00001014 <l943>:
    1014:	7027b003 	eorvc	fp, r7, r3

00001018 <l944>:
    1018:	c11a04ea 	tstgt	sl, sl, ror #9

0000101c <l945>:
    101c:	1a000007 	bne	1040 <l954>

00001020 <l946>:
    1020:	e2801037 	add	r1, r0, #55	; 0x37

00001024 <l947>:
    1024:	70455065 	subvc	r5, r5, r5, rrx

00001028 <l948>:
    1028:	d09b006e 	addsle	r0, fp, lr, rrx

0000102c <l949>:
    102c:	7058ad03 	subsvc	sl, r8, r3, lsl #26

00001030 <l950>:
    1030:	b116031e 	tstlt	r6, lr, lsl r3

00001034 <l951>:
    1034:	81b02001 	movshi	r2, r1

00001038 <l952>:
    1038:	e2aa7018 	adc	r7, sl, #24

0000103c <l953>:
    103c:	ea000000 	b	1044 <l955>

00001040 <l954>:
    1040:	eafffff7 	b	1024 <l947>

00001044 <l955>:
    1044:	e04b4067 	sub	r4, fp, r7, rrx

00001048 <l956>:
    1048:	81e02330 	mvnhi	r2, r0, lsr r3

0000104c <l957>:
    104c:	0016c005 	andseq	ip, r6, r5

00001050 <l958>:
    1050:	80080896 	mulhi	r8, r6, r8

00001054 <l959>:
    1054:	e0900000 	adds	r0, r0, r0

00001058 <l960>:
    1058:	726ea018 	rsbvc	sl, lr, #24

0000105c <l961>:
    105c:	90b76069 	adcsls	r6, r7, r9, rrx

00001060 <l962>:
    1060:	c01c2000 	andsgt	r2, ip, r0

00001064 <l963>:
    1064:	4084c062 	addmi	ip, r4, r2, rrx

00001068 <l964>:
    1068:	10884009 	addne	r4, r8, r9

0000106c <l965>:
    106c:	30dcb6e7 	sbcscc	fp, ip, r7, ror #13

00001070 <l966>:
    1070:	218c0009 	orrcs	r0, ip, r9

00001074 <l967>:
    1074:	7a000003 	bvc	1088 <l972>

00001078 <l968>:
    1078:	e280108b 	add	r1, r0, #139	; 0x8b

0000107c <l969>:
    107c:	e1a04914 	lsl	r4, r4, r9

00001080 <l970>:
    1080:	d073200c 	rsbsle	r2, r3, ip

00001084 <l971>:
    1084:	ea000000 	b	108c <l973>

00001088 <l972>:
    1088:	eafffffb 	b	107c <l969>

0000108c <l973>:
    108c:	9111063e 	tstls	r1, lr, lsr r6

00001090 <l974>:
    1090:	c00e0002 	andgt	r0, lr, r2

00001094 <l975>:
    1094:	e0227497 	mla	r2, r7, r4, r7

00001098 <l976>:
    1098:	e0900000 	adds	r0, r0, r0

0000109c <l977>:
    109c:	e26a7014 	rsb	r7, sl, #20

000010a0 <l978>:
    10a0:	9184c006 	orrls	ip, r4, r6

000010a4 <l979>:
    10a4:	e009500a 	and	r5, r9, sl

000010a8 <l980>:
    10a8:	b3170018 	tstlt	r7, #24

000010ac <l981>:
    10ac:	950d1018 	strls	r1, [sp, #-24]

000010b0 <l982>:
    10b0:	8a000003 	bhi	10c4 <l987>

000010b4 <l983>:
    10b4:	e2801063 	add	r1, r0, #99	; 0x63

000010b8 <l984>:
    10b8:	c0abc006 	adcgt	ip, fp, r6

000010bc <l985>:
    10bc:	9098846a 	addsls	r8, r8, sl, ror #8

000010c0 <l986>:
    10c0:	ea000000 	b	10c8 <l988>

000010c4 <l987>:
    10c4:	eafffffb 	b	10b8 <l984>

000010c8 <l988>:
    10c8:	ea000003 	b	10dc <l993>

000010cc <l989>:
    10cc:	b1cc6065 	biclt	r6, ip, r5, rrx

000010d0 <l990>:
    10d0:	e50d7028 	str	r7, [sp, #-40]	; 0x28

000010d4 <l991>:
    10d4:	a51dc004 	ldrge	ip, [sp, #-4]

000010d8 <l992>:
    10d8:	a350000c 	cmpge	r0, #12

000010dc <l993>:
    10dc:	0097800c 	addseq	r8, r7, ip

000010e0 <l994>:
    10e0:	11b06003 	movsne	r6, r3

000010e4 <l995>:
    10e4:	a15b091a 	cmpge	fp, sl, lsl r9

000010e8 <l996>:
    10e8:	61c20b78 	bicvs	r0, r2, r8, ror fp

000010ec <l997>:
    10ec:	11f03145 	mvnsne	r3, r5, asr #2

000010f0 <l998>:
    10f0:	603e7007 	eorsvs	r7, lr, r7

000010f4 <l999>:
    10f4:	00160594 	mulseq	r6, r4, r5

000010f8 <l1000>:
    10f8:	e0900000 	adds	r0, r0, r0

000010fc <end>:
    10fc:	eafffffe 	b	10fc <end>
