
random1_gcc.o:     file format elf32-littlearm


Disassembly of section .text:

00000000 <main>:
   0:	e05f000f 	subs	r0, pc, pc
   4:	e59fd000 	ldr	sp, [pc]	; c <val>
   8:	ea000000 	b	10 <next>

0000000c <val>:
   c:	befffae8 	.word	0xbefffae8

00000010 <next>:
  10:	e59f1000 	ldr	r1, [pc]	; 18 <val1>
  14:	ea000000 	b	1c <next1>

00000018 <val1>:
  18:	d8f16ad9 	.word	0xd8f16ad9

0000001c <next1>:
  1c:	e59f2000 	ldr	r2, [pc]	; 24 <val2>
  20:	ea000000 	b	28 <next2>

00000024 <val2>:
  24:	c386bbc2 	.word	0xc386bbc2

00000028 <next2>:
  28:	e59f3000 	ldr	r3, [pc]	; 30 <val3>
  2c:	ea000000 	b	34 <next3>

00000030 <val3>:
  30:	414c3424 	.word	0x414c3424

00000034 <next3>:
  34:	e59f4000 	ldr	r4, [pc]	; 3c <val4>
  38:	ea000000 	b	40 <next4>

0000003c <val4>:
  3c:	7ed4d578 	.word	0x7ed4d578

00000040 <next4>:
  40:	e59f5000 	ldr	r5, [pc]	; 48 <val5>
  44:	ea000000 	b	4c <next5>

00000048 <val5>:
  48:	7311d8af 	.word	0x7311d8af

0000004c <next5>:
  4c:	e59f6000 	ldr	r6, [pc]	; 54 <val6>
  50:	ea000000 	b	58 <next6>

00000054 <val6>:
  54:	a6cecc0c 	.word	0xa6cecc0c

00000058 <next6>:
  58:	e59f7000 	ldr	r7, [pc]	; 60 <val7>
  5c:	ea000000 	b	64 <next7>

00000060 <val7>:
  60:	c9e9c606 	.word	0xc9e9c606

00000064 <next7>:
  64:	e59f8000 	ldr	r8, [pc]	; 6c <val8>
  68:	ea000000 	b	70 <next8>

0000006c <val8>:
  6c:	18072e90 	.word	0x18072e90

00000070 <next8>:
  70:	e59f9000 	ldr	r9, [pc]	; 78 <val9>
  74:	ea000000 	b	7c <next9>

00000078 <val9>:
  78:	0741c7bd 	.word	0x0741c7bd

0000007c <next9>:
  7c:	e59fa000 	ldr	sl, [pc]	; 84 <val10>
  80:	ea000000 	b	88 <next10>

00000084 <val10>:
  84:	d5f4b3ac 	.word	0xd5f4b3ac

00000088 <next10>:
  88:	e59fb000 	ldr	fp, [pc]	; 90 <val11>
  8c:	ea000000 	b	94 <next11>

00000090 <val11>:
  90:	6ec9d294 	.word	0x6ec9d294

00000094 <next11>:
  94:	e59fc000 	ldr	ip, [pc]	; 9c <val12>
  98:	ea000000 	b	a0 <next12>

0000009c <val12>:
  9c:	c324c998 	.word	0xc324c998

000000a0 <next12>:
  a0:	e59fe000 	ldr	lr, [pc]	; a8 <val14>
  a4:	ea000000 	b	ac <next14>

000000a8 <val14>:
  a8:	008a05b7 	.word	0x008a05b7

000000ac <next14>:
  ac:	e59f1000 	ldr	r1, [pc]	; b4 <val15>
  b0:	ea000000 	b	b8 <next15>

000000b4 <val15>:
  b4:	7204e529 	.word	0x7204e529

000000b8 <next15>:
  b8:	e50d1000 	str	r1, [sp, #-0]
  bc:	e59f1000 	ldr	r1, [pc]	; c4 <val16>
  c0:	ea000000 	b	c8 <next16>

000000c4 <val16>:
  c4:	b8b6d8f9 	.word	0xb8b6d8f9

000000c8 <next16>:
  c8:	e50d1004 	str	r1, [sp, #-4]
  cc:	e59f1000 	ldr	r1, [pc]	; d4 <val17>
  d0:	ea000000 	b	d8 <next17>

000000d4 <val17>:
  d4:	3a902933 	.word	0x3a902933

000000d8 <next17>:
  d8:	e50d1008 	str	r1, [sp, #-8]
  dc:	e59f1000 	ldr	r1, [pc]	; e4 <val18>
  e0:	ea000000 	b	e8 <next18>

000000e4 <val18>:
  e4:	f1fd42a3 	.word	0xf1fd42a3

000000e8 <next18>:
  e8:	e50d100c 	str	r1, [sp, #-12]
  ec:	e59f1000 	ldr	r1, [pc]	; f4 <val19>
  f0:	ea000000 	b	f8 <next19>

000000f4 <val19>:
  f4:	e6c3f32a 	.word	0xe6c3f32a

000000f8 <next19>:
  f8:	e50d1010 	str	r1, [sp, #-16]
  fc:	e59f1000 	ldr	r1, [pc]	; 104 <val20>
 100:	ea000000 	b	108 <next20>

00000104 <val20>:
 104:	07d4bec1 	.word	0x07d4bec1

00000108 <next20>:
 108:	e50d1014 	str	r1, [sp, #-20]
 10c:	e59f1000 	ldr	r1, [pc]	; 114 <val21>
 110:	ea000000 	b	118 <next21>

00000114 <val21>:
 114:	06839eb5 	.word	0x06839eb5

00000118 <next21>:
 118:	e50d1018 	str	r1, [sp, #-24]
 11c:	e59f1000 	ldr	r1, [pc]	; 124 <val22>
 120:	ea000000 	b	128 <next22>

00000124 <val22>:
 124:	8a9a0200 	.word	0x8a9a0200

00000128 <next22>:
 128:	e50d101c 	str	r1, [sp, #-28]
 12c:	e59f1000 	ldr	r1, [pc]	; 134 <val23>
 130:	ea000000 	b	138 <next23>

00000134 <val23>:
 134:	f06c145c 	.word	0xf06c145c

00000138 <next23>:
 138:	e50d1020 	str	r1, [sp, #-32]
 13c:	e59f1000 	ldr	r1, [pc]	; 144 <val24>
 140:	ea000000 	b	148 <next24>

00000144 <val24>:
 144:	619699d6 	.word	0x619699d6

00000148 <next24>:
 148:	e50d1024 	str	r1, [sp, #-36]	; 0x24
 14c:	e59f1000 	ldr	r1, [pc]	; 154 <val25>
 150:	ea000000 	b	158 <next25>

00000154 <val25>:
 154:	37730edf 	.word	0x37730edf

00000158 <next25>:
 158:	e50d1028 	str	r1, [sp, #-40]	; 0x28

0000015c <l1>:
 15c:	21d36006 	bicscs	r6, r3, r6

00000160 <l2>:
 160:	42b8b008 	adcsmi	fp, r8, #8

00000164 <l3>:
 164:	925ea008 	subsls	sl, lr, #8

00000168 <l4>:
 168:	d1f0c730 	mvnsle	ip, r0, lsr r7

0000016c <l5>:
 16c:	91d9700c 	bicsls	r7, r9, ip

00000170 <l6>:
 170:	c1806000 	orrgt	r6, r0, r0

00000174 <l7>:
 174:	751d2018 	ldrvc	r2, [sp, #-24]

00000178 <l8>:
 178:	e187300e 	orr	r3, r7, lr

0000017c <l9>:
 17c:	e040706c 	sub	r7, r0, ip, rrx

00000180 <l10>:
 180:	4190500c 	orrsmi	r5, r0, ip

00000184 <l11>:
 184:	b3a06008 	movlt	r6, #8

00000188 <l12>:
 188:	70c2006b 	sbcvc	r0, r2, fp, rrx

0000018c <l13>:
 18c:	ea000001 	b	198 <l16>

00000190 <l14>:
 190:	a2b30008 	adcsge	r0, r3, #8

00000194 <l15>:
 194:	50837e34 	addpl	r7, r3, r4, lsr lr

00000198 <l16>:
 198:	30cc2408 	sbccc	r2, ip, r8, lsl #8

0000019c <l17>:
 19c:	5089a423 	addpl	sl, r9, r3, lsr #8

000001a0 <l18>:
 1a0:	d3c89008 	bicle	r9, r8, #8

000001a4 <l19>:
 1a4:	a15c040e 	cmpge	ip, lr, lsl #8

000001a8 <l20>:
 1a8:	10abc422 	adcne	ip, fp, r2, lsr #8

000001ac <l21>:
 1ac:	c1824009 	orrgt	r4, r2, r9

000001b0 <l22>:
 1b0:	92869008 	addls	r9, r6, #8

000001b4 <l23>:
 1b4:	e1ca4006 	bic	r4, sl, r6

000001b8 <l24>:
 1b8:	6a000006 	bvs	1d8 <l34>

000001bc <l25>:
 1bc:	e18a3001 	orr	r3, sl, r1

000001c0 <l26>:
 1c0:	ea000001 	b	1cc <l31>

000001c4 <l27>:
 1c4:	e280109a 	add	r1, r0, #154	; 0x9a

000001c8 <l28>:
 1c8:	ea000000 	b	1d0 <l32>

000001cc <l31>:
 1cc:	eafffffd 	b	1c8 <l28>

000001d0 <l32>:
 1d0:	c2bbc008 	adcsgt	ip, fp, #8

000001d4 <l33>:
 1d4:	23a03008 	movcs	r3, #8

000001d8 <l34>:
 1d8:	5a000001 	bpl	1e4 <l40>

000001dc <l35>:
 1dc:	e28010c9 	add	r1, r0, #201	; 0xc9

000001e0 <l36>:
 1e0:	ea000000 	b	1e8 <l41>

000001e4 <l40>:
 1e4:	eafffffd 	b	1e0 <l36>

000001e8 <l41>:
 1e8:	30496000 	subcc	r6, r9, r0

000001ec <l42>:
 1ec:	a3e06008 	mvnge	r6, #8

000001f0 <l43>:
 1f0:	450d8028 	strmi	r8, [sp, #-40]	; 0x28

000001f4 <l44>:
 1f4:	81847003 	orrhi	r7, r4, r3

000001f8 <l45>:
 1f8:	71560065 	cmpvc	r6, r5, rrx

000001fc <l46>:
 1fc:	e244b008 	sub	fp, r4, #8

00000200 <l47>:
 200:	81c10441 	bichi	r0, r1, r1, asr #8

00000204 <l48>:
 204:	e187200b 	orr	r2, r7, fp

00000208 <l49>:
 208:	e50de024 	str	lr, [sp, #-36]	; 0x24

0000020c <l50>:
 20c:	91a0c05c 	asrls	ip, ip, r0

00000210 <l51>:
 210:	ea000001 	b	21c <l59>

00000214 <l52>:
 214:	e28010d7 	add	r1, r0, #215	; 0xd7

00000218 <l53>:
 218:	ea000000 	b	220 <l60>

0000021c <l59>:
 21c:	eafffffd 	b	218 <l53>

00000220 <l60>:
 220:	73b07008 	movsvc	r7, #8

00000224 <l61>:
 224:	70c5606c 	sbcvc	r6, r5, ip, rrx

00000228 <l62>:
 228:	200c7002 	andcs	r7, ip, r2

0000022c <l63>:
 22c:	da000001 	ble	238 <l68>

00000230 <l64>:
 230:	e28010d9 	add	r1, r0, #217	; 0xd9

00000234 <l65>:
 234:	ea000000 	b	23c <l69>

00000238 <l68>:
 238:	eafffffd 	b	234 <l65>

0000023c <l69>:
 23c:	b11a015a 	tstlt	sl, sl, asr r1

00000240 <l70>:
 240:	818ec001 	orrhi	ip, lr, r1

00000244 <l71>:
 244:	da000001 	ble	250 <l74>

00000248 <l72>:
 248:	7a000001 	bvc	254 <l81>

0000024c <l73>:
 24c:	e28010cd 	add	r1, r0, #205	; 0xcd

00000250 <l74>:
 250:	ea000000 	b	258 <l82>

00000254 <l81>:
 254:	eafffffd 	b	250 <l74>

00000258 <l82>:
 258:	c051142e 	subsgt	r1, r1, lr, lsr #8

0000025c <l83>:
 25c:	a1a08017 	lslge	r8, r7, r0

00000260 <l84>:
 260:	b2595008 	subslt	r5, r9, #8

00000264 <l85>:
 264:	50bc3e3e 	adcspl	r3, ip, lr, lsr lr

00000268 <l86>:
 268:	a31e0008 	tstge	lr, #8

0000026c <l87>:
 26c:	00b5542a 	adcseq	r5, r5, sl, lsr #8

00000270 <l88>:
 270:	71180428 	tstvc	r8, r8, lsr #8

00000274 <l89>:
 274:	b038b004 	eorslt	fp, r8, r4

00000278 <l90>:
 278:	303b2006 	eorscc	r2, fp, r6

0000027c <l91>:
 27c:	d3a0a008 	movle	sl, #8

00000280 <l92>:
 280:	d1590672 	cmple	r9, r2, ror r6

00000284 <l93>:
 284:	30b5b462 	adcscc	fp, r5, r2, ror #8

00000288 <l94>:
 288:	ba000001 	blt	294 <l97>

0000028c <l95>:
 28c:	e3c4b008 	bic	fp, r4, #8

00000290 <l96>:
 290:	eaffffff 	b	294 <l97>

00000294 <l97>:
 294:	b0d2ac5e 	sbcslt	sl, r2, lr, asr ip

00000298 <l98>:
 298:	81817001 	orrhi	r7, r1, r1

0000029c <l99>:
 29c:	91330b11 	teqls	r3, r1, lsl fp

000002a0 <l100>:
 2a0:	51dc0001 	bicspl	r0, ip, r1

000002a4 <l101>:
 2a4:	ba000007 	blt	2c8 <l111>

000002a8 <l102>:
 2a8:	da000000 	ble	2b0 <l104>

000002ac <l103>:
 2ac:	50c35638 	sbcpl	r5, r3, r8, lsr r6

000002b0 <l104>:
 2b0:	e3e0c008 	mvn	ip, #8

000002b4 <l105>:
 2b4:	e0658462 	rsb	r8, r5, r2, ror #8

000002b8 <l106>:
 2b8:	c1e0000e 	mvngt	r0, lr

000002bc <l107>:
 2bc:	1a000001 	bne	2c8 <l111>

000002c0 <l108>:
 2c0:	e28010d7 	add	r1, r0, #215	; 0xd7

000002c4 <l109>:
 2c4:	ea000000 	b	2cc <l112>

000002c8 <l111>:
 2c8:	eafffffd 	b	2c4 <l109>

000002cc <l112>:
 2cc:	7038500e 	eorsvc	r5, r8, lr

000002d0 <l113>:
 2d0:	50b4e137 	adcspl	lr, r4, r7, lsr r1

000002d4 <l114>:
 2d4:	d1c9c46a 	bicle	ip, r9, sl, ror #8

000002d8 <l115>:
 2d8:	e50db024 	str	fp, [sp, #-36]	; 0x24

000002dc <l116>:
 2dc:	c1360c57 	teqgt	r6, r7, asr ip

000002e0 <l117>:
 2e0:	011c025b 	tsteq	ip, fp, asr r2

000002e4 <l118>:
 2e4:	4114006b 	tstmi	r4, fp, rrx

000002e8 <l119>:
 2e8:	a1c47068 	bicge	r7, r4, r8, rrx

000002ec <l120>:
 2ec:	e18ba009 	orr	sl, fp, r9

000002f0 <l121>:
 2f0:	5a000001 	bpl	2fc <l129>

000002f4 <l122>:
 2f4:	e2801029 	add	r1, r0, #41	; 0x29

000002f8 <l123>:
 2f8:	ea000000 	b	300 <l130>

000002fc <l129>:
 2fc:	eafffffd 	b	2f8 <l123>

00000300 <l130>:
 300:	e1859006 	orr	r9, r5, r6

00000304 <l131>:
 304:	81d72445 	bicshi	r2, r7, r5, asr #8

00000308 <l132>:
 308:	33a03008 	movcc	r3, #8

0000030c <l133>:
 30c:	70b2b445 	adcsvc	fp, r2, r5, asr #8

00000310 <l134>:
 310:	e1780429 	cmn	r8, r9, lsr #8

00000314 <l135>:
 314:	c033e002 	eorsgt	lr, r3, r2

00000318 <l136>:
 318:	219c500b 	orrscs	r5, ip, fp

0000031c <l137>:
 31c:	63760008 	cmnvs	r6, #8

00000320 <l138>:
 320:	a05ec427 	subsge	ip, lr, r7, lsr #8

00000324 <l139>:
 324:	7a000008 	bvc	34c <l149>

00000328 <l140>:
 328:	50577448 	subspl	r7, r7, r8, asr #8

0000032c <l141>:
 32c:	e06c506c 	rsb	r5, ip, ip, rrx

00000330 <l142>:
 330:	c0cab009 	sbcgt	fp, sl, r9

00000334 <l143>:
 334:	02625008 	rsbeq	r5, r2, #8

00000338 <l144>:
 338:	21530466 	cmpcs	r3, r6, ror #8

0000033c <l145>:
 33c:	e181a001 	orr	sl, r1, r1

00000340 <l146>:
 340:	12be3008 	adcsne	r3, lr, #8

00000344 <l147>:
 344:	41f0e40e 	mvnsmi	lr, lr, lsl #8

00000348 <l148>:
 348:	30c3900e 	sbccc	r9, r3, lr

0000034c <l149>:
 34c:	ca000004 	bgt	364 <l157>

00000350 <l150>:
 350:	2114035b 	tstcs	r4, fp, asr r3

00000354 <l151>:
 354:	9a000001 	bls	360 <l156>

00000358 <l152>:
 358:	e280106b 	add	r1, r0, #107	; 0x6b

0000035c <l153>:
 35c:	ea000000 	b	364 <l157>

00000360 <l156>:
 360:	eafffffd 	b	35c <l153>

00000364 <l157>:
 364:	e51de00c 	ldr	lr, [sp, #-12]

00000368 <l158>:
 368:	733b0008 	teqvc	fp, #8

0000036c <l159>:
 36c:	51de7c72 	bicspl	r7, lr, r2, ror ip

00000370 <l160>:
 370:	70065004 	andvc	r5, r6, r4

00000374 <l161>:
 374:	31790009 	cmncc	r9, r9

00000378 <l162>:
 378:	e0264004 	eor	r4, r6, r4

0000037c <l163>:
 37c:	30591573 	subscc	r1, r9, r3, ror r5

00000380 <l164>:
 380:	0a000001 	beq	38c <l170>

00000384 <l165>:
 384:	e2801006 	add	r1, r0, #6

00000388 <l166>:
 388:	ea000000 	b	390 <l171>

0000038c <l170>:
 38c:	eafffffd 	b	388 <l166>

00000390 <l171>:
 390:	12410008 	subne	r0, r1, #8

00000394 <l172>:
 394:	33130008 	tstcc	r3, #8

00000398 <l173>:
 398:	d19c8005 	orrsle	r8, ip, r5

0000039c <l174>:
 39c:	33b07008 	movscc	r7, #8

000003a0 <l175>:
 3a0:	52a37008 	adcpl	r7, r3, #8

000003a4 <l176>:
 3a4:	d1a0600a 	movle	r6, sl

000003a8 <l177>:
 3a8:	91b0b444 	asrsls	fp, r4, #8

000003ac <l178>:
 3ac:	ea000001 	b	3b8 <l182>

000003b0 <l179>:
 3b0:	e2801038 	add	r1, r0, #56	; 0x38

000003b4 <l180>:
 3b4:	ea000000 	b	3bc <l183>

000003b8 <l182>:
 3b8:	eafffffd 	b	3b4 <l180>

000003bc <l183>:
 3bc:	81f03460 	mvnshi	r3, r0, ror #8

000003c0 <l184>:
 3c0:	4196c00a 	orrsmi	ip, r6, sl

000003c4 <l185>:
 3c4:	5155000e 	cmppl	r5, lr

000003c8 <l186>:
 3c8:	10011007 	andne	r1, r1, r7

000003cc <l187>:
 3cc:	715c0063 	cmpvc	ip, r3, rrx

000003d0 <l188>:
 3d0:	51a05064 	rrxpl	r5, r4

000003d4 <l189>:
 3d4:	b1f0e00c 	mvnslt	lr, ip

000003d8 <l190>:
 3d8:	91360420 	teqls	r6, r0, lsr #8

000003dc <l191>:
 3dc:	b1e06060 	mvnlt	r6, r0, rrx

000003e0 <l192>:
 3e0:	91720009 	cmnls	r2, r9

000003e4 <l193>:
 3e4:	1036600a 	eorsne	r6, r6, sl

000003e8 <l194>:
 3e8:	40dc7355 	sbcsmi	r7, ip, r5, asr r3

000003ec <l195>:
 3ec:	81dba004 	bicshi	sl, fp, r4

000003f0 <l196>:
 3f0:	0a000003 	beq	404 <l201>

000003f4 <l197>:
 3f4:	e0257000 	eor	r7, r5, r0

000003f8 <l198>:
 3f8:	c51d400c 	ldrgt	r4, [sp, #-12]

000003fc <l199>:
 3fc:	3a000001 	bcc	408 <l208>

00000400 <l200>:
 400:	e2801096 	add	r1, r0, #150	; 0x96

00000404 <l201>:
 404:	ea000000 	b	40c <l209>

00000408 <l208>:
 408:	eafffffd 	b	404 <l201>

0000040c <l209>:
 40c:	41843003 	orrmi	r3, r4, r3

00000410 <l210>:
 410:	608b3446 	addvs	r3, fp, r6, asr #8

00000414 <l211>:
 414:	60712b5a 	rsbsvs	r2, r1, sl, asr fp

00000418 <l212>:
 418:	20837008 	addcs	r7, r3, r8

0000041c <l213>:
 41c:	e50d3020 	str	r3, [sp, #-32]

00000420 <l214>:
 420:	6286b008 	addvs	fp, r6, #8

00000424 <l215>:
 424:	1133040b 	teqne	r3, fp, lsl #8

00000428 <l216>:
 428:	83780008 	cmnhi	r8, #8

0000042c <l217>:
 42c:	ea000001 	b	438 <l225>

00000430 <l218>:
 430:	e2801062 	add	r1, r0, #98	; 0x62

00000434 <l219>:
 434:	ea000000 	b	43c <l226>

00000438 <l225>:
 438:	eafffffd 	b	434 <l219>

0000043c <l226>:
 43c:	1a000001 	bne	448 <l235>

00000440 <l227>:
 440:	e28010ad 	add	r1, r0, #173	; 0xad

00000444 <l228>:
 444:	ea000000 	b	44c <l236>

00000448 <l235>:
 448:	eafffffd 	b	444 <l228>

0000044c <l236>:
 44c:	d02be008 	eorle	lr, fp, r8

00000450 <l237>:
 450:	b0a5c468 	adclt	ip, r5, r8, ror #8

00000454 <l238>:
 454:	9a000003 	bls	468 <l243>

00000458 <l239>:
 458:	708c4003 	addvc	r4, ip, r3

0000045c <l240>:
 45c:	e13e0440 	teq	lr, r0, asr #8

00000460 <l241>:
 460:	41570442 	cmpmi	r7, r2, asr #8

00000464 <l242>:
 464:	8042a00e 	subhi	sl, r2, lr

00000468 <l243>:
 468:	d17e0009 	cmnle	lr, r9

0000046c <l244>:
 46c:	8a000000 	bhi	474 <l246>

00000470 <l245>:
 470:	a00ca000 	andge	sl, ip, r0

00000474 <l246>:
 474:	0032e001 	eorseq	lr, r2, r1

00000478 <l247>:
 478:	6080340e 	addvs	r3, r0, lr, lsl #8

0000047c <l248>:
 47c:	ea000001 	b	488 <l252>

00000480 <l249>:
 480:	e2801009 	add	r1, r0, #9

00000484 <l250>:
 484:	ea000000 	b	48c <l253>

00000488 <l252>:
 488:	eafffffd 	b	484 <l250>

0000048c <l253>:
 48c:	23d54008 	bicscs	r4, r5, #8

00000490 <l254>:
 490:	e114000e 	tst	r4, lr

00000494 <l255>:
 494:	729e8008 	addsvc	r8, lr, #8

00000498 <l256>:
 498:	c0de9427 	sbcsgt	r9, lr, r7, lsr #8

0000049c <l257>:
 49c:	e186600b 	orr	r6, r6, fp

000004a0 <l258>:
 4a0:	61b0b008 	movsvs	fp, r8

000004a4 <l259>:
 4a4:	70c6c069 	sbcvc	ip, r6, r9, rrx

000004a8 <l260>:
 4a8:	b2ca8008 	sbclt	r8, sl, #8

000004ac <l261>:
 4ac:	50bb4311 	adcspl	r4, fp, r1, lsl r3

000004b0 <l262>:
 4b0:	8018e003 	andshi	lr, r8, r3

000004b4 <l263>:
 4b4:	b0187005 	andslt	r7, r8, r5

000004b8 <l264>:
 4b8:	e1a06005 	mov	r6, r5

000004bc <l265>:
 4bc:	81e08006 	mvnhi	r8, r6

000004c0 <l266>:
 4c0:	e51d0020 	ldr	r0, [sp, #-32]

000004c4 <l267>:
 4c4:	c1100067 	tstgt	r0, r7, rrx

000004c8 <l268>:
 4c8:	41f04000 	mvnsmi	r4, r0

000004cc <l269>:
 4cc:	e0ca7063 	sbc	r7, sl, r3, rrx

000004d0 <l270>:
 4d0:	20917060 	addscs	r7, r1, r0, rrx

000004d4 <l271>:
 4d4:	231b0008 	tstcs	fp, #8

000004d8 <l272>:
 4d8:	60a42613 	adcvs	r2, r4, r3, lsl r6

000004dc <l273>:
 4dc:	a1a06000 	movge	r6, r0

000004e0 <l274>:
 4e0:	702c2001 	eorvc	r2, ip, r1

000004e4 <l275>:
 4e4:	ea000001 	b	4f0 <l279>

000004e8 <l276>:
 4e8:	e2801027 	add	r1, r0, #39	; 0x27

000004ec <l277>:
 4ec:	ea000000 	b	4f4 <l280>

000004f0 <l279>:
 4f0:	eafffffd 	b	4ec <l277>

000004f4 <l280>:
 4f4:	31cea714 	biccc	sl, lr, r4, lsl r7

000004f8 <l281>:
 4f8:	62a43008 	adcvs	r3, r4, #8

000004fc <l282>:
 4fc:	03750008 	cmneq	r5, #8

00000500 <l283>:
 500:	2a000001 	bcs	50c <l290>

00000504 <l284>:
 504:	e2801013 	add	r1, r0, #19

00000508 <l285>:
 508:	ea000000 	b	510 <l291>

0000050c <l290>:
 50c:	eafffffd 	b	508 <l285>

00000510 <l291>:
 510:	d17c0442 	cmnle	ip, r2, asr #8

00000514 <l292>:
 514:	b007e00c 	andlt	lr, r7, ip

00000518 <l293>:
 518:	7191400e 	orrsvc	r4, r1, lr

0000051c <l294>:
 51c:	63e0e008 	mvnvs	lr, #8

00000520 <l295>:
 520:	e0690002 	rsb	r0, r9, r2

00000524 <l296>:
 524:	73710008 	cmnvc	r1, #8

00000528 <l297>:
 528:	01770426 	cmneq	r7, r6, lsr #8

0000052c <l298>:
 52c:	b0b12004 	adcslt	r2, r1, r4

00000530 <l299>:
 530:	827c8008 	rsbshi	r8, ip, #8

00000534 <l300>:
 534:	81b0be54 	asrshi	fp, r4, lr

00000538 <l301>:
 538:	42607008 	rsbmi	r7, r0, #8

0000053c <l302>:
 53c:	e51d8014 	ldr	r8, [sp, #-20]

00000540 <l303>:
 540:	e0a09009 	adc	r9, r0, r9

00000544 <l304>:
 544:	5a000001 	bpl	550 <l307>

00000548 <l305>:
 548:	c50d0014 	strgt	r0, [sp, #-20]

0000054c <l306>:
 54c:	40789a74 	rsbsmi	r9, r8, r4, ror sl

00000550 <l307>:
 550:	d3a0c008 	movle	ip, #8

00000554 <l308>:
 554:	a3130008 	tstge	r3, #8

00000558 <l309>:
 558:	c0367000 	eorsgt	r7, r6, r0

0000055c <l310>:
 55c:	53120008 	tstpl	r2, #8

00000560 <l311>:
 560:	a3190008 	tstge	r9, #8

00000564 <l312>:
 564:	e0c7b056 	sbc	fp, r7, r6, asr r0

00000568 <l313>:
 568:	ca000001 	bgt	574 <l317>

0000056c <l314>:
 56c:	e2801082 	add	r1, r0, #130	; 0x82

00000570 <l315>:
 570:	ea000000 	b	578 <l318>

00000574 <l317>:
 574:	eafffffd 	b	570 <l315>

00000578 <l318>:
 578:	a1780426 	cmnge	r8, r6, lsr #8

0000057c <l319>:
 57c:	b1580004 	cmplt	r8, r4

00000580 <l320>:
 580:	750d9020 	strvc	r9, [sp, #-32]

00000584 <l321>:
 584:	d3360008 	teqle	r6, #8

00000588 <l322>:
 588:	00db2005 	sbcseq	r2, fp, r5

0000058c <l323>:
 58c:	b072c44a 	rsbslt	ip, r2, sl, asr #8

00000590 <l324>:
 590:	e3530008 	cmp	r3, #8

00000594 <l325>:
 594:	12d7e008 	sbcsne	lr, r7, #8

00000598 <l326>:
 598:	9a000001 	bls	5a4 <l334>

0000059c <l327>:
 59c:	e2801026 	add	r1, r0, #38	; 0x26

000005a0 <l328>:
 5a0:	ea000000 	b	5a8 <l335>

000005a4 <l334>:
 5a4:	eafffffd 	b	5a0 <l328>

000005a8 <l335>:
 5a8:	50166005 	andspl	r6, r6, r5

000005ac <l336>:
 5ac:	51d3206a 	bicspl	r2, r3, sl, rrx

000005b0 <l337>:
 5b0:	650d801c 	strvs	r8, [sp, #-28]

000005b4 <l338>:
 5b4:	90253009 	eorls	r3, r5, r9

000005b8 <l339>:
 5b8:	e068c063 	rsb	ip, r8, r3, rrx

000005bc <l340>:
 5bc:	90669455 	rsbls	r9, r6, r5, asr r4

000005c0 <l341>:
 5c0:	a0362007 	eorsge	r2, r6, r7

000005c4 <l342>:
 5c4:	e022200e 	eor	r2, r2, lr

000005c8 <l343>:
 5c8:	b50d1008 	strlt	r1, [sp, #-8]

000005cc <l344>:
 5cc:	a0251002 	eorge	r1, r5, r2

000005d0 <l345>:
 5d0:	20c7c355 	sbccs	ip, r7, r5, asr r3

000005d4 <l346>:
 5d4:	30bc601c 	adcscc	r6, ip, ip, lsl r0

000005d8 <l347>:
 5d8:	c1320b71 	teqgt	r2, r1, ror fp

000005dc <l348>:
 5dc:	30399001 	eorscc	r9, r9, r1

000005e0 <l349>:
 5e0:	c1350610 	teqgt	r5, r0, lsl r6

000005e4 <l350>:
 5e4:	6190700b 	orrsvs	r7, r0, fp

000005e8 <l351>:
 5e8:	d0ccb46c 	sbcle	fp, ip, ip, ror #8

000005ec <l352>:
 5ec:	32d89008 	sbcscc	r9, r8, #8

000005f0 <l353>:
 5f0:	41810004 	orrmi	r0, r1, r4

000005f4 <l354>:
 5f4:	e2a6b008 	adc	fp, r6, #8

000005f8 <l355>:
 5f8:	711e042c 	tstvc	lr, ip, lsr #8

000005fc <l356>:
 5fc:	218c8005 	orrcs	r8, ip, r5

00000600 <l357>:
 600:	73710008 	cmnvc	r1, #8

00000604 <l358>:
 604:	40578001 	subsmi	r8, r7, r1

00000608 <l359>:
 608:	81e06e1e 	mvnhi	r6, lr, lsl lr

0000060c <l360>:
 60c:	13d89008 	bicsne	r9, r8, #8

00000610 <l361>:
 610:	d1889006 	orrle	r9, r8, r6

00000614 <l362>:
 614:	e0ac240b 	adc	r2, ip, fp, lsl #8

00000618 <l363>:
 618:	e28be008 	add	lr, fp, #8

0000061c <l364>:
 61c:	309ae056 	addscc	lr, sl, r6, asr r0

00000620 <l365>:
 620:	a51d101c 	ldrge	r1, [sp, #-28]

00000624 <l366>:
 624:	e0286007 	eor	r6, r8, r7

00000628 <l367>:
 628:	10001007 	andne	r1, r0, r7

0000062c <l368>:
 62c:	4001c004 	andmi	ip, r1, r4

00000630 <l369>:
 630:	5053101e 	subspl	r1, r3, lr, lsl r0

00000634 <l370>:
 634:	c0d26448 	sbcsgt	r6, r2, r8, asr #8

00000638 <l371>:
 638:	6a000002 	bvs	648 <l375>

0000063c <l372>:
 63c:	451de010 	ldrmi	lr, [sp, #-16]

00000640 <l373>:
 640:	81de3449 	bicshi	r3, lr, r9, asr #8

00000644 <l374>:
 644:	905eab79 	subsls	sl, lr, r9, ror fp

00000648 <l375>:
 648:	e18c1009 	orr	r1, ip, r9

0000064c <l376>:
 64c:	31931008 	orrscc	r1, r3, r8

00000650 <l377>:
 650:	e3e08008 	mvn	r8, #8

00000654 <l378>:
 654:	e1811004 	orr	r1, r1, r4

00000658 <l379>:
 658:	8003800b 	andhi	r8, r3, fp

0000065c <l380>:
 65c:	901ea00c 	andsls	sl, lr, ip

00000660 <l381>:
 660:	b03a6003 	eorslt	r6, sl, r3

00000664 <l382>:
 664:	53500008 	cmppl	r0, #8

00000668 <l383>:
 668:	01730421 	cmneq	r3, r1, lsr #8

0000066c <l384>:
 66c:	11e04001 	mvnne	r4, r1

00000670 <l385>:
 670:	e1a08448 	asr	r8, r8, #8

00000674 <l386>:
 674:	93580008 	cmpls	r8, #8

00000678 <l387>:
 678:	105c0453 	subsne	r0, ip, r3, asr r4

0000067c <l388>:
 67c:	e08b761c 	add	r7, fp, ip, lsl r6

00000680 <l389>:
 680:	a3390008 	teqge	r9, #8

00000684 <l390>:
 684:	21830007 	orrcs	r0, r3, r7

00000688 <l391>:
 688:	10b7e007 	adcsne	lr, r7, r7

0000068c <l392>:
 68c:	b1730000 	cmnlt	r3, r0

00000690 <l393>:
 690:	10261004 	eorne	r1, r6, r4

00000694 <l394>:
 694:	3a000000 	bcc	69c <l396>

00000698 <l395>:
 698:	01190e53 	tsteq	r9, r3, asr lr

0000069c <l396>:
 69c:	250d0008 	strcs	r0, [sp, #-8]

000006a0 <l397>:
 6a0:	01a02007 	moveq	r2, r7

000006a4 <l398>:
 6a4:	aa000004 	bge	6bc <l404>

000006a8 <l399>:
 6a8:	e0c25001 	sbc	r5, r2, r1

000006ac <l400>:
 6ac:	a078c060 	rsbsge	ip, r8, r0, rrx

000006b0 <l401>:
 6b0:	82605008 	rsbhi	r5, r0, #8

000006b4 <l402>:
 6b4:	aa000001 	bge	6c0 <l406>

000006b8 <l403>:
 6b8:	e2801031 	add	r1, r0, #49	; 0x31

000006bc <l404>:
 6bc:	ea000000 	b	6c4 <l407>

000006c0 <l406>:
 6c0:	eafffffd 	b	6bc <l404>

000006c4 <l407>:
 6c4:	0a000007 	beq	6e8 <l416>

000006c8 <l408>:
 6c8:	baffffff 	blt	6cc <l409>

000006cc <l409>:
 6cc:	c1370069 	teqgt	r7, r9, rrx

000006d0 <l410>:
 6d0:	20756c3b 	rsbscs	r6, r5, fp, lsr ip

000006d4 <l411>:
 6d4:	c1570449 	cmpgt	r7, r9, asr #8

000006d8 <l412>:
 6d8:	20ca846a 	sbccs	r8, sl, sl, ror #8

000006dc <l413>:
 6dc:	9179037b 	cmnls	r9, fp, ror r3

000006e0 <l414>:
 6e0:	a035600e 	eorsge	r6, r5, lr

000006e4 <l415>:
 6e4:	62b91008 	adcsvs	r1, r9, #8

000006e8 <l416>:
 6e8:	01f0a429 	mvnseq	sl, r9, lsr #8

000006ec <l417>:
 6ec:	01500009 	cmpeq	r0, r9

000006f0 <l418>:
 6f0:	e3100008 	tst	r0, #8

000006f4 <l419>:
 6f4:	0a000006 	beq	714 <l427>

000006f8 <l420>:
 6f8:	d1530000 	cmple	r3, r0

000006fc <l421>:
 6fc:	708eb066 	addvc	fp, lr, r6, rrx

00000700 <l422>:
 700:	21150009 	tstcs	r5, r9

00000704 <l423>:
 704:	533a0008 	teqpl	sl, #8

00000708 <l424>:
 708:	e1a02404 	lsl	r2, r4, #8

0000070c <l425>:
 70c:	305c5400 	subscc	r5, ip, r0, lsl #8

00000710 <l426>:
 710:	ea000001 	b	71c <l430>

00000714 <l427>:
 714:	e28010cd 	add	r1, r0, #205	; 0xcd

00000718 <l428>:
 718:	ea000000 	b	720 <l431>

0000071c <l430>:
 71c:	eafffffd 	b	718 <l428>

00000720 <l431>:
 720:	b1b09001 	movslt	r9, r1

00000724 <l432>:
 724:	501c100c 	andspl	r1, ip, ip

00000728 <l433>:
 728:	02b4b008 	adcseq	fp, r4, #8

0000072c <l434>:
 72c:	104e2448 	subne	r2, lr, r8, asr #8

00000730 <l435>:
 730:	d50db008 	strle	fp, [sp, #-8]

00000734 <l436>:
 734:	b50dc020 	strlt	ip, [sp, #-32]

00000738 <l437>:
 738:	d3710008 	cmnle	r1, #8

0000073c <l438>:
 73c:	e066242c 	rsb	r2, r6, ip, lsr #8

00000740 <l439>:
 740:	e1e0a032 	mvn	sl, r2, lsr r0

00000744 <l440>:
 744:	33150008 	tstcc	r5, #8

00000748 <l441>:
 748:	d0631019 	rsble	r1, r3, r9, lsl r0

0000074c <l442>:
 74c:	b01cc009 	andslt	ip, ip, r9

00000750 <l443>:
 750:	e134017a 	teq	r4, sl, ror r1

00000754 <l444>:
 754:	d119006e 	tstle	r9, lr, rrx

00000758 <l445>:
 758:	ba000001 	blt	764 <l453>

0000075c <l446>:
 75c:	e28010c3 	add	r1, r0, #195	; 0xc3

00000760 <l447>:
 760:	ea000000 	b	768 <l454>

00000764 <l453>:
 764:	eafffffd 	b	760 <l447>

00000768 <l454>:
 768:	90003001 	andls	r3, r0, r1

0000076c <l455>:
 76c:	e00a6000 	and	r6, sl, r0

00000770 <l456>:
 770:	0affffff 	beq	774 <l457>

00000774 <l457>:
 774:	306bb068 	rsbcc	fp, fp, r8, rrx

00000778 <l458>:
 778:	e3a0c008 	mov	ip, #8

0000077c <l459>:
 77c:	a139006b 	teqge	r9, fp, rrx

00000780 <l460>:
 780:	21a01853 	asrcs	r1, r3, r8

00000784 <l461>:
 784:	851d1028 	ldrhi	r1, [sp, #-40]	; 0x28

00000788 <l462>:
 788:	203ec005 	eorscs	ip, lr, r5

0000078c <l463>:
 78c:	90c5941c 	sbcls	r9, r5, ip, lsl r4

00000790 <l464>:
 790:	b1c1b338 	biclt	fp, r1, r8, lsr r3

00000794 <l465>:
 794:	61a02404 	lslvs	r2, r4, #8

00000798 <l466>:
 798:	b01b1003 	andslt	r1, fp, r3

0000079c <l467>:
 79c:	d0999443 	addsle	r9, r9, r3, asr #8

000007a0 <l468>:
 7a0:	418c300c 	orrmi	r3, ip, ip

000007a4 <l469>:
 7a4:	c2b9e008 	adcsgt	lr, r9, #8

000007a8 <l470>:
 7a8:	c022b00e 	eorgt	fp, r2, lr

000007ac <l471>:
 7ac:	b048b06a 	sublt	fp, r8, sl, rrx

000007b0 <l472>:
 7b0:	d0b3b00a 	adcsle	fp, r3, sl

000007b4 <l473>:
 7b4:	51e0e467 	mvnpl	lr, r7, ror #8

000007b8 <l474>:
 7b8:	52bb2008 	adcspl	r2, fp, #8

000007bc <l475>:
 7bc:	e13c0404 	teq	ip, r4, lsl #8

000007c0 <l476>:
 7c0:	71330003 	teqvc	r3, r3

000007c4 <l477>:
 7c4:	e0484007 	sub	r4, r8, r7

000007c8 <l478>:
 7c8:	4189500e 	orrmi	r5, r9, lr

000007cc <l479>:
 7cc:	11c8c817 	bicne	ip, r8, r7, lsl r8

000007d0 <l480>:
 7d0:	41e09007 	mvnmi	r9, r7

000007d4 <l481>:
 7d4:	1117000c 	tstne	r7, ip

000007d8 <l482>:
 7d8:	c032800b 	eorsgt	r8, r2, fp

000007dc <l483>:
 7dc:	e0a95406 	adc	r5, r9, r6, lsl #8

000007e0 <l484>:
 7e0:	61e06b5b 	mvnvs	r6, fp, asr fp

000007e4 <l485>:
 7e4:	e006e001 	and	lr, r6, r1

000007e8 <l486>:
 7e8:	b0133001 	andslt	r3, r3, r1

000007ec <l487>:
 7ec:	a0204002 	eorge	r4, r0, r2

000007f0 <l488>:
 7f0:	00a7500b 	adceq	r5, r7, fp

000007f4 <l489>:
 7f4:	b1110467 	tstlt	r1, r7, ror #8

000007f8 <l490>:
 7f8:	d0a80060 	adcle	r0, r8, r0, rrx

000007fc <l491>:
 7fc:	30662069 	rsbcc	r2, r6, r9, rrx

00000800 <l492>:
 800:	93330008 	teqls	r3, #8

00000804 <l493>:
 804:	9193700c 	orrsls	r7, r3, ip

00000808 <l494>:
 808:	a1c22775 	bicge	r2, r2, r5, ror r7

0000080c <l495>:
 80c:	913c0b1b 	teqls	ip, fp, lsl fp

00000810 <l496>:
 810:	e2463008 	sub	r3, r6, #8

00000814 <l497>:
 814:	604ca009 	subvs	sl, ip, r9

00000818 <l498>:
 818:	b19cb005 	orrslt	fp, ip, r5

0000081c <l499>:
 81c:	00d5244a 	sbcseq	r2, r5, sl, asr #8

00000820 <l500>:
 820:	e3110008 	tst	r1, #8

00000824 <l501>:
 824:	81150002 	tsthi	r5, r2

00000828 <l502>:
 828:	c13c0422 	teqgt	ip, r2, lsr #8

0000082c <l503>:
 82c:	e0007003 	and	r7, r0, r3

00000830 <l504>:
 830:	404a921b 	submi	r9, sl, fp, lsl r2

00000834 <l505>:
 834:	718b5002 	orrvc	r5, fp, r2

00000838 <l506>:
 838:	81c29067 	bichi	r9, r2, r7, rrx

0000083c <l507>:
 83c:	a51d5004 	ldrge	r5, [sp, #-4]

00000840 <l508>:
 840:	41b0642c 	lsrsmi	r6, ip, #8

00000844 <l509>:
 844:	6a000001 	bvs	850 <l517>

00000848 <l510>:
 848:	e2801072 	add	r1, r0, #114	; 0x72

0000084c <l511>:
 84c:	ea000000 	b	854 <l518>

00000850 <l517>:
 850:	eafffffd 	b	84c <l511>

00000854 <l518>:
 854:	b1d40003 	bicslt	r0, r4, r3

00000858 <l519>:
 858:	e0260006 	eor	r0, r6, r6

0000085c <l520>:
 85c:	01580420 	cmpeq	r8, r0, lsr #8

00000860 <l521>:
 860:	d01b0001 	andsle	r0, fp, r1

00000864 <l522>:
 864:	2099344e 	addscs	r3, r9, lr, asr #8

00000868 <l523>:
 868:	e262e008 	rsb	lr, r2, #8

0000086c <l524>:
 86c:	d038b00b 	eorsle	fp, r8, fp

00000870 <l525>:
 870:	2a000001 	bcs	87c <l530>

00000874 <l526>:
 874:	e28010c5 	add	r1, r0, #197	; 0xc5

00000878 <l527>:
 878:	ea000000 	b	880 <l531>

0000087c <l530>:
 87c:	eafffffd 	b	878 <l527>

00000880 <l531>:
 880:	ea000001 	b	88c <l537>

00000884 <l532>:
 884:	e2801031 	add	r1, r0, #49	; 0x31

00000888 <l533>:
 888:	ea000000 	b	890 <l538>

0000088c <l537>:
 88c:	eafffffd 	b	888 <l533>

00000890 <l538>:
 890:	12be2008 	adcsne	r2, lr, #8

00000894 <l539>:
 894:	da000001 	ble	8a0 <l548>

00000898 <l540>:
 898:	e2801040 	add	r1, r0, #64	; 0x40

0000089c <l541>:
 89c:	ea000000 	b	8a4 <l549>

000008a0 <l548>:
 8a0:	eafffffd 	b	89c <l541>

000008a4 <l549>:
 8a4:	e081c008 	add	ip, r1, r8

000008a8 <l550>:
 8a8:	2086b374 	addcs	fp, r6, r4, ror r3

000008ac <l551>:
 8ac:	10de4006 	sbcsne	r4, lr, r6

000008b0 <l552>:
 8b0:	e3310008 	teq	r1, #8

000008b4 <l553>:
 8b4:	a033e00b 	eorsge	lr, r3, fp

000008b8 <l554>:
 8b8:	e1c41003 	bic	r1, r4, r3

000008bc <l555>:
 8bc:	31dbb424 	bicscc	fp, fp, r4, lsr #8

000008c0 <l556>:
 8c0:	e1790066 	cmn	r9, r6, rrx

000008c4 <l557>:
 8c4:	c0045007 	andgt	r5, r4, r7

000008c8 <l558>:
 8c8:	a1740003 	cmnge	r4, r3

000008cc <l559>:
 8cc:	80529462 	subshi	r9, r2, r2, ror #8

000008d0 <l560>:
 8d0:	5019e007 	andspl	lr, r9, r7

000008d4 <l561>:
 8d4:	20de046c 	sbcscs	r0, lr, ip, ror #8

000008d8 <l562>:
 8d8:	851d0020 	ldrhi	r0, [sp, #-32]

000008dc <l563>:
 8dc:	63c49008 	bicvs	r9, r4, #8

000008e0 <l564>:
 8e0:	7087327c 	addvc	r3, r7, ip, ror r2

000008e4 <l565>:
 8e4:	a1d14138 	bicsge	r4, r1, r8, lsr r1

000008e8 <l566>:
 8e8:	7014400e 	andsvc	r4, r4, lr

000008ec <l567>:
 8ec:	306e4675 	rsbcc	r4, lr, r5, ror r6

000008f0 <l568>:
 8f0:	e17e0008 	cmn	lr, r8

000008f4 <l569>:
 8f4:	61a09002 	movvs	r9, r2

000008f8 <l570>:
 8f8:	b51d200c 	ldrlt	r2, [sp, #-12]

000008fc <l571>:
 8fc:	e51d5024 	ldr	r5, [sp, #-36]	; 0x24

00000900 <l572>:
 900:	83500008 	cmphi	r0, #8

00000904 <l573>:
 904:	31190405 	tstcc	r9, r5, lsl #8

00000908 <l574>:
 908:	751d5008 	ldrvc	r5, [sp, #-8]

0000090c <l575>:
 90c:	7087883c 	addvc	r8, r7, ip, lsr r8

00000910 <l576>:
 910:	81968005 	orrshi	r8, r6, r5

00000914 <l577>:
 914:	850dc024 	strhi	ip, [sp, #-36]	; 0x24

00000918 <l578>:
 918:	224ec008 	subcs	ip, lr, #8

0000091c <l579>:
 91c:	213b0402 	teqcs	fp, r2, lsl #8

00000920 <l580>:
 920:	72a16008 	adcvc	r6, r1, #8

00000924 <l581>:
 924:	50133002 	andspl	r3, r3, r2

00000928 <l582>:
 928:	41190461 	tstmi	r9, r1, ror #8

0000092c <l583>:
 92c:	1a000000 	bne	934 <l585>

00000930 <l584>:
 930:	03540008 	cmpeq	r4, #8

00000934 <l585>:
 934:	e50de010 	str	lr, [sp, #-16]

00000938 <l586>:
 938:	ea000001 	b	944 <l590>

0000093c <l587>:
 93c:	e2801062 	add	r1, r0, #98	; 0x62

00000940 <l588>:
 940:	ea000000 	b	948 <l591>

00000944 <l590>:
 944:	eafffffd 	b	940 <l588>

00000948 <l591>:
 948:	0a000004 	beq	960 <l597>

0000094c <l592>:
 94c:	2a000002 	bcs	95c <l596>

00000950 <l593>:
 950:	70686537 	rsbvc	r6, r8, r7, lsr r5

00000954 <l594>:
 954:	30468460 	subcc	r8, r6, r0, ror #8

00000958 <l595>:
 958:	ea000001 	b	964 <l603>

0000095c <l596>:
 95c:	e28010ec 	add	r1, r0, #236	; 0xec

00000960 <l597>:
 960:	ea000000 	b	968 <l604>

00000964 <l603>:
 964:	eafffffd 	b	960 <l597>

00000968 <l604>:
 968:	c1770467 	cmngt	r7, r7, ror #8

0000096c <l605>:
 96c:	70551c1a 	subsvc	r1, r5, sl, lsl ip

00000970 <l606>:
 970:	b1e09004 	mvnlt	r9, r4

00000974 <l607>:
 974:	203b4008 	eorscs	r4, fp, r8

00000978 <l608>:
 978:	81350000 	teqhi	r5, r0

0000097c <l609>:
 97c:	4090c429 	addsmi	ip, r0, r9, lsr #8

00000980 <l610>:
 980:	7a000007 	bvc	9a4 <l620>

00000984 <l611>:
 984:	33370008 	teqcc	r7, #8

00000988 <l612>:
 988:	61890002 	orrvs	r0, r9, r2

0000098c <l613>:
 98c:	6059b430 	subsvs	fp, r9, r0, lsr r4

00000990 <l614>:
 990:	30a32068 	adccc	r2, r3, r8, rrx

00000994 <l615>:
 994:	ea000001 	b	9a0 <l619>

00000998 <l616>:
 998:	e28010a4 	add	r1, r0, #164	; 0xa4

0000099c <l617>:
 99c:	ea000000 	b	9a4 <l620>

000009a0 <l619>:
 9a0:	eafffffd 	b	99c <l617>

000009a4 <l620>:
 9a4:	8061800a 	rsbhi	r8, r1, sl

000009a8 <l621>:
 9a8:	d1510064 	cmple	r1, r4, rrx

000009ac <l622>:
 9ac:	719e1005 	orrsvc	r1, lr, r5

000009b0 <l623>:
 9b0:	c042642e 	subgt	r6, r2, lr, lsr #8

000009b4 <l624>:
 9b4:	901aa006 	andsls	sl, sl, r6

000009b8 <l625>:
 9b8:	1a000008 	bne	9e0 <l635>

000009bc <l626>:
 9bc:	d1160428 	tstle	r6, r8, lsr #8

000009c0 <l627>:
 9c0:	d173046b 	cmnle	r3, fp, ror #8

000009c4 <l628>:
 9c4:	737c0008 	cmnvc	ip, #8

000009c8 <l629>:
 9c8:	7055b069 	subsvc	fp, r5, r9, rrx

000009cc <l630>:
 9cc:	925cb008 	subsls	fp, ip, #8

000009d0 <l631>:
 9d0:	103cb00e 	eorsne	fp, ip, lr

000009d4 <l632>:
 9d4:	41c52061 	bicmi	r2, r5, r1, rrx

000009d8 <l633>:
 9d8:	b13b0464 	teqlt	fp, r4, ror #8

000009dc <l634>:
 9dc:	e3750008 	cmn	r5, #8

000009e0 <l635>:
 9e0:	00d6b063 	sbcseq	fp, r6, r3, rrx

000009e4 <l636>:
 9e4:	31c22007 	biccc	r2, r2, r7

000009e8 <l637>:
 9e8:	41d2e454 	bicsmi	lr, r2, r4, asr r4

000009ec <l638>:
 9ec:	e1760441 	cmn	r6, r1, asr #8

000009f0 <l639>:
 9f0:	e1e05007 	mvn	r5, r7

000009f4 <l640>:
 9f4:	33500008 	cmpcc	r0, #8

000009f8 <l641>:
 9f8:	e187100c 	orr	r1, r7, ip

000009fc <l642>:
 9fc:	b15b0009 	cmplt	fp, r9

00000a00 <l643>:
 a00:	250d8024 	strcs	r8, [sp, #-36]	; 0x24

00000a04 <l644>:
 a04:	31750c59 	cmncc	r5, r9, asr ip

00000a08 <l645>:
 a08:	811b0b14 	tsthi	fp, r4, lsl fp

00000a0c <l646>:
 a0c:	4179000e 	cmnmi	r9, lr

00000a10 <l647>:
 a10:	5194800b 	orrspl	r8, r4, fp

00000a14 <l648>:
 a14:	109b940a 	addsne	r9, fp, sl, lsl #8

00000a18 <l649>:
 a18:	750d500c 	strvc	r5, [sp, #-12]

00000a1c <l650>:
 a1c:	1a000003 	bne	a30 <l655>

00000a20 <l651>:
 a20:	11873004 	orrne	r3, r7, r4

00000a24 <l652>:
 a24:	a086c43c 	addge	ip, r6, ip, lsr r4

00000a28 <l653>:
 a28:	b0aa9001 	adclt	r9, sl, r1

00000a2c <l654>:
 a2c:	91a0500c 	movls	r5, ip

00000a30 <l655>:
 a30:	ea000001 	b	a3c <l663>

00000a34 <l656>:
 a34:	e280101f 	add	r1, r0, #31

00000a38 <l657>:
 a38:	ea000000 	b	a40 <l664>

00000a3c <l663>:
 a3c:	eafffffd 	b	a38 <l657>

00000a40 <l664>:
 a40:	1190500e 	orrsne	r5, r0, lr

00000a44 <l665>:
 a44:	92965008 	addsls	r5, r6, #8

00000a48 <l666>:
 a48:	13760008 	cmnne	r6, #8

00000a4c <l667>:
 a4c:	aa000000 	bge	a54 <l669>

00000a50 <l668>:
 a50:	2a000001 	bcs	a5c <l672>

00000a54 <l669>:
 a54:	e28010e7 	add	r1, r0, #231	; 0xe7

00000a58 <l670>:
 a58:	ea000000 	b	a60 <l673>

00000a5c <l672>:
 a5c:	eafffffd 	b	a58 <l670>

00000a60 <l673>:
 a60:	ca000001 	bgt	a6c <l677>

00000a64 <l674>:
 a64:	e2801020 	add	r1, r0, #32

00000a68 <l675>:
 a68:	ea000000 	b	a70 <l678>

00000a6c <l677>:
 a6c:	eafffffd 	b	a68 <l675>

00000a70 <l678>:
 a70:	ea000003 	b	a84 <l683>

00000a74 <l679>:
 a74:	13f08008 	mvnsne	r8, #8

00000a78 <l680>:
 a78:	e00a0002 	and	r0, sl, r2

00000a7c <l681>:
 a7c:	d2480008 	suble	r0, r8, #8

00000a80 <l682>:
 a80:	0a000002 	beq	a90 <l686>

00000a84 <l683>:
 a84:	7a000003 	bvc	a98 <l688>

00000a88 <l684>:
 a88:	40817006 	addmi	r7, r1, r6

00000a8c <l685>:
 a8c:	20bee035 	adcscs	lr, lr, r5, lsr r0

00000a90 <l686>:
 a90:	607ec061 	rsbsvs	ip, lr, r1, rrx

00000a94 <l687>:
 a94:	ea000006 	b	ab4 <l695>

00000a98 <l688>:
 a98:	b3b07008 	movslt	r7, #8

00000a9c <l689>:
 a9c:	e0241006 	eor	r1, r4, r6

00000aa0 <l690>:
 aa0:	c1800006 	orrgt	r0, r0, r6

00000aa4 <l691>:
 aa4:	50a6100e 	adcpl	r1, r6, lr

00000aa8 <l692>:
 aa8:	e1e0a440 	mvn	sl, r0, asr #8

00000aac <l693>:
 aac:	ea000001 	b	ab8 <l700>

00000ab0 <l694>:
 ab0:	e2801003 	add	r1, r0, #3

00000ab4 <l695>:
 ab4:	ea000000 	b	abc <l701>

00000ab8 <l700>:
 ab8:	eafffffd 	b	ab4 <l695>

00000abc <l701>:
 abc:	4043044e 	submi	r0, r3, lr, asr #8

00000ac0 <l702>:
 ac0:	31a0c004 	movcc	ip, r4

00000ac4 <l703>:
 ac4:	02b42008 	adcseq	r2, r4, #8

00000ac8 <l704>:
 ac8:	e15e0406 	cmp	lr, r6, lsl #8

00000acc <l705>:
 acc:	e51d201c 	ldr	r2, [sp, #-28]

00000ad0 <l706>:
 ad0:	60a45000 	adcvs	r5, r4, r0

00000ad4 <l707>:
 ad4:	9196c008 	orrsls	ip, r6, r8

00000ad8 <l708>:
 ad8:	411b000e 	tstmi	fp, lr

00000adc <l709>:
 adc:	31730009 	cmncc	r3, r9

00000ae0 <l710>:
 ae0:	83350008 	teqhi	r5, #8

00000ae4 <l711>:
 ae4:	50065001 	andpl	r5, r6, r1

00000ae8 <l712>:
 ae8:	80a42068 	adchi	r2, r4, r8, rrx

00000aec <l713>:
 aec:	00999006 	addseq	r9, r9, r6

00000af0 <l714>:
 af0:	6048e334 	subvs	lr, r8, r4, lsr r3

00000af4 <l715>:
 af4:	6a000001 	bvs	b00 <l721>

00000af8 <l716>:
 af8:	e280100c 	add	r1, r0, #12

00000afc <l717>:
 afc:	ea000000 	b	b04 <l722>

00000b00 <l721>:
 b00:	eafffffd 	b	afc <l717>

00000b04 <l722>:
 b04:	a3b08008 	movsge	r8, #8

00000b08 <l723>:
 b08:	1014a007 	andsne	sl, r4, r7

00000b0c <l724>:
 b0c:	e3a09008 	mov	r9, #8

00000b10 <l725>:
 b10:	d1c93001 	bicle	r3, r9, r1

00000b14 <l726>:
 b14:	e50dc01c 	str	ip, [sp, #-28]

00000b18 <l727>:
 b18:	da000005 	ble	b34 <l736>

00000b1c <l728>:
 b1c:	7a000001 	bvc	b28 <l733>

00000b20 <l729>:
 b20:	e28010c0 	add	r1, r0, #192	; 0xc0

00000b24 <l730>:
 b24:	ea000000 	b	b2c <l734>

00000b28 <l733>:
 b28:	eafffffd 	b	b24 <l730>

00000b2c <l734>:
 b2c:	9194c00a 	orrsls	ip, r4, sl

00000b30 <l735>:
 b30:	6a000001 	bvs	b3c <l741>

00000b34 <l736>:
 b34:	e28010f5 	add	r1, r0, #245	; 0xf5

00000b38 <l737>:
 b38:	ea000000 	b	b40 <l742>

00000b3c <l741>:
 b3c:	eafffffd 	b	b38 <l737>

00000b40 <l742>:
 b40:	425e3008 	subsmi	r3, lr, #8

00000b44 <l743>:
 b44:	b18b900e 	orrlt	r9, fp, lr

00000b48 <l744>:
 b48:	40da0407 	sbcsmi	r0, sl, r7, lsl #8

00000b4c <l745>:
 b4c:	d0d4906e 	sbcsle	r9, r4, lr, rrx

00000b50 <l746>:
 b50:	23160008 	tstcs	r6, #8

00000b54 <l747>:
 b54:	e0a14e31 	adc	r4, r1, r1, lsr lr

00000b58 <l748>:
 b58:	00d49421 	sbcseq	r9, r4, r1, lsr #8

00000b5c <l749>:
 b5c:	11580072 	cmpne	r8, r2, ror r0

00000b60 <l750>:
 b60:	409b9424 	addsmi	r9, fp, r4, lsr #8

00000b64 <l751>:
 b64:	815a0468 	cmphi	sl, r8, ror #8

00000b68 <l752>:
 b68:	7a000004 	bvc	b80 <l758>

00000b6c <l753>:
 b6c:	21e0b937 	mvncs	fp, r7, lsr r9

00000b70 <l754>:
 b70:	40d25448 	sbcsmi	r5, r2, r8, asr #8

00000b74 <l755>:
 b74:	e0c8b40c 	sbc	fp, r8, ip, lsl #8

00000b78 <l756>:
 b78:	7088300c 	addvc	r3, r8, ip

00000b7c <l757>:
 b7c:	70b33427 	adcsvc	r3, r3, r7, lsr #8

00000b80 <l758>:
 b80:	919c4005 	orrsls	r4, ip, r5

00000b84 <l759>:
 b84:	51a0e000 	movpl	lr, r0

00000b88 <l760>:
 b88:	ca000001 	bgt	b94 <l763>

00000b8c <l761>:
 b8c:	d1780004 	cmnle	r8, r4

00000b90 <l762>:
 b90:	1a000001 	bne	b9c <l765>

00000b94 <l763>:
 b94:	b072e06e 	rsbslt	lr, r2, lr, rrx

00000b98 <l764>:
 b98:	6024e004 	eorvs	lr, r4, r4

00000b9c <l765>:
 b9c:	702e300b 	eorvc	r3, lr, fp

00000ba0 <l766>:
 ba0:	003ae003 	eorseq	lr, sl, r3

00000ba4 <l767>:
 ba4:	d3360008 	teqle	r6, #8

00000ba8 <l768>:
 ba8:	d1c77067 	bicle	r7, r7, r7, rrx

00000bac <l769>:
 bac:	31d2546a 	bicscc	r5, r2, sl, ror #8

00000bb0 <l770>:
 bb0:	31898004 	orrcc	r8, r9, r4

00000bb4 <l771>:
 bb4:	d17c0402 	cmnle	ip, r2, lsl #8

00000bb8 <l772>:
 bb8:	20303005 	eorscs	r3, r0, r5

00000bbc <l773>:
 bbc:	73c23008 	bicvc	r3, r2, #8

00000bc0 <l774>:
 bc0:	53180008 	tstpl	r8, #8

00000bc4 <l775>:
 bc4:	a1d05469 	bicsge	r5, r0, r9, ror #8

00000bc8 <l776>:
 bc8:	0095793c 	addseq	r7, r5, ip, lsr r9

00000bcc <l777>:
 bcc:	20687b5b 	rsbcs	r7, r8, fp, asr fp

00000bd0 <l778>:
 bd0:	903bb00b 	eorsls	fp, fp, fp

00000bd4 <l779>:
 bd4:	e0aeab3a 	adc	sl, lr, sl, lsr fp

00000bd8 <l780>:
 bd8:	92a22008 	adcls	r2, r2, #8

00000bdc <l781>:
 bdc:	0a000001 	beq	be8 <l785>

00000be0 <l782>:
 be0:	e280104f 	add	r1, r0, #79	; 0x4f

00000be4 <l783>:
 be4:	ea000000 	b	bec <l786>

00000be8 <l785>:
 be8:	eafffffd 	b	be4 <l783>

00000bec <l786>:
 bec:	c0597532 	subsgt	r7, r9, r2, lsr r5

00000bf0 <l787>:
 bf0:	c0404004 	subgt	r4, r0, r4

00000bf4 <l788>:
 bf4:	da000001 	ble	c00 <l793>

00000bf8 <l789>:
 bf8:	e2801076 	add	r1, r0, #118	; 0x76

00000bfc <l790>:
 bfc:	ea000000 	b	c04 <l794>

00000c00 <l793>:
 c00:	eafffffd 	b	bfc <l790>

00000c04 <l794>:
 c04:	950d1014 	strls	r1, [sp, #-20]

00000c08 <l795>:
 c08:	807bc916 	rsbshi	ip, fp, r6, lsl r9

00000c0c <l796>:
 c0c:	e17e0001 	cmn	lr, r1

00000c10 <l797>:
 c10:	ca000005 	bgt	c2c <l804>

00000c14 <l798>:
 c14:	1156000c 	cmpne	r6, ip

00000c18 <l799>:
 c18:	3046306a 	subcc	r3, r6, sl, rrx

00000c1c <l800>:
 c1c:	a3e01008 	mvnge	r1, #8

00000c20 <l801>:
 c20:	91db6000 	bicsls	r6, fp, r0

00000c24 <l802>:
 c24:	40c93404 	sbcmi	r3, r9, r4, lsl #8

00000c28 <l803>:
 c28:	73720008 	cmnvc	r2, #8

00000c2c <l804>:
 c2c:	615a0068 	cmpvs	sl, r8, rrx

00000c30 <l805>:
 c30:	10269008 	eorne	r9, r6, r8

00000c34 <l806>:
 c34:	c1b0473c 	lsrsgt	r4, ip, r7

00000c38 <l807>:
 c38:	00760403 	rsbseq	r0, r6, r3, lsl #8

00000c3c <l808>:
 c3c:	b054446c 	subslt	r4, r4, ip, ror #8

00000c40 <l809>:
 c40:	41720617 	cmnmi	r2, r7, lsl r6

00000c44 <l810>:
 c44:	e1180468 	tst	r8, r8, ror #8

00000c48 <l811>:
 c48:	e51d0004 	ldr	r0, [sp, #-4]

00000c4c <l812>:
 c4c:	ea000001 	b	c58 <l817>

00000c50 <l813>:
 c50:	e2801002 	add	r1, r0, #2

00000c54 <l814>:
 c54:	ea000000 	b	c5c <l818>

00000c58 <l817>:
 c58:	eafffffd 	b	c54 <l814>

00000c5c <l818>:
 c5c:	01570814 	cmpeq	r7, r4, lsl r8

00000c60 <l819>:
 c60:	e50d5014 	str	r5, [sp, #-20]

00000c64 <l820>:
 c64:	4004c00a 	andmi	ip, r4, sl

00000c68 <l821>:
 c68:	a0711441 	rsbsge	r1, r1, r1, asr #8

00000c6c <l822>:
 c6c:	e0823005 	add	r3, r2, r5

00000c70 <l823>:
 c70:	41f06470 	mvnsmi	r6, r0, ror r4

00000c74 <l824>:
 c74:	51d7c069 	bicspl	ip, r7, r9, rrx

00000c78 <l825>:
 c78:	119c8007 	orrsne	r8, ip, r7

00000c7c <l826>:
 c7c:	63330008 	teqvs	r3, #8

00000c80 <l827>:
 c80:	ea000001 	b	c8c <l834>

00000c84 <l828>:
 c84:	e280103b 	add	r1, r0, #59	; 0x3b

00000c88 <l829>:
 c88:	ea000000 	b	c90 <l835>

00000c8c <l834>:
 c8c:	eafffffd 	b	c88 <l829>

00000c90 <l835>:
 c90:	40097002 	andmi	r7, r9, r2

00000c94 <l836>:
 c94:	32bc0008 	adcscc	r0, ip, #8

00000c98 <l837>:
 c98:	e0c07002 	sbc	r7, r0, r2

00000c9c <l838>:
 c9c:	61a08066 	rrxvs	r8, r6

00000ca0 <l839>:
 ca0:	9a000008 	bls	cc8 <l849>

00000ca4 <l840>:
 ca4:	3a000004 	bcc	cbc <l846>

00000ca8 <l841>:
 ca8:	6058cc38 	subsvs	ip, r8, r8, lsr ip

00000cac <l842>:
 cac:	51370007 	teqpl	r7, r7

00000cb0 <l843>:
 cb0:	0a000008 	beq	cd8 <l853>

00000cb4 <l844>:
 cb4:	e18ab00a 	orr	fp, sl, sl

00000cb8 <l845>:
 cb8:	851d3018 	ldrhi	r3, [sp, #-24]

00000cbc <l846>:
 cbc:	8014a00c 	andshi	sl, r4, ip

00000cc0 <l847>:
 cc0:	d3540008 	cmple	r4, #8

00000cc4 <l848>:
 cc4:	b078744b 	rsbslt	r7, r8, fp, asr #8

00000cc8 <l849>:
 cc8:	001b4004 	andseq	r4, fp, r4

00000ccc <l850>:
 ccc:	90328002 	eorsls	r8, r2, r2

00000cd0 <l851>:
 cd0:	9029200a 	eorls	r2, r9, sl

00000cd4 <l852>:
 cd4:	33f07008 	mvnscc	r7, #8

00000cd8 <l853>:
 cd8:	a08ae006 	addge	lr, sl, r6

00000cdc <l854>:
 cdc:	e083a400 	add	sl, r3, r0, lsl #8

00000ce0 <l855>:
 ce0:	02d67008 	sbcseq	r7, r6, #8

00000ce4 <l856>:
 ce4:	c2a11008 	adcgt	r1, r1, #8

00000ce8 <l857>:
 ce8:	e06a9775 	rsb	r9, sl, r5, ror r7

00000cec <l858>:
 cec:	30b19003 	adcscc	r9, r1, r3

00000cf0 <l859>:
 cf0:	8a000001 	bhi	cfc <l868>

00000cf4 <l860>:
 cf4:	e2801068 	add	r1, r0, #104	; 0x68

00000cf8 <l861>:
 cf8:	ea000000 	b	d00 <l869>

00000cfc <l868>:
 cfc:	eafffffd 	b	cf8 <l861>

00000d00 <l869>:
 d00:	d1d1e009 	bicsle	lr, r1, r9

00000d04 <l870>:
 d04:	750d700c 	strvc	r7, [sp, #-12]

00000d08 <l871>:
 d08:	c155044b 	cmpgt	r5, fp, asr #8

00000d0c <l872>:
 d0c:	e13c0516 	teq	ip, r6, lsl r5

00000d10 <l873>:
 d10:	e00a6007 	and	r6, sl, r7

00000d14 <l874>:
 d14:	4a000005 	bmi	d30 <l881>

00000d18 <l875>:
 d18:	ca000002 	bgt	d28 <l879>

00000d1c <l876>:
 d1c:	d132000a 	teqle	r2, sl

00000d20 <l877>:
 d20:	005e0447 	subseq	r0, lr, r7, asr #8

00000d24 <l878>:
 d24:	5114042a 	tstpl	r4, sl, lsr #8

00000d28 <l879>:
 d28:	b3cee008 	biclt	lr, lr, #8

00000d2c <l880>:
 d2c:	8197000c 	orrshi	r0, r7, ip

00000d30 <l881>:
 d30:	0082000a 	addeq	r0, r2, sl

00000d34 <l882>:
 d34:	30d38005 	sbcscc	r8, r3, r5

00000d38 <l883>:
 d38:	151de008 	ldrne	lr, [sp, #-8]

00000d3c <l884>:
 d3c:	117c0059 	cmnne	ip, r9, asr r0

00000d40 <l885>:
 d40:	41c4544b 	bicmi	r5, r4, fp, asr #8

00000d44 <l886>:
 d44:	23120008 	tstcs	r2, #8

00000d48 <l887>:
 d48:	83e01008 	mvnhi	r1, #8

00000d4c <l888>:
 d4c:	11a0200b 	movne	r2, fp

00000d50 <l889>:
 d50:	7182000b 	orrvc	r0, r2, fp

00000d54 <l890>:
 d54:	a1b03877 	rorsge	r3, r7, r8

00000d58 <l891>:
 d58:	a055742c 	subsge	r7, r5, ip, lsr #8

00000d5c <l892>:
 d5c:	30c62066 	sbccc	r2, r6, r6, rrx

00000d60 <l893>:
 d60:	819a2009 	orrshi	r2, sl, r9

00000d64 <l894>:
 d64:	c170040b 	cmngt	r0, fp, lsl #8

00000d68 <l895>:
 d68:	0137000b 	teqeq	r7, fp

00000d6c <l896>:
 d6c:	1276a008 	rsbsne	sl, r6, #8

00000d70 <l897>:
 d70:	e1740419 	cmn	r4, r9, lsl r4

00000d74 <l898>:
 d74:	c31c0008 	tstgt	ip, #8

00000d78 <l899>:
 d78:	51330276 	teqpl	r3, r6, ror r2

00000d7c <l900>:
 d7c:	3a000006 	bcc	d9c <l908>

00000d80 <l901>:
 d80:	51550068 	cmppl	r5, r8, rrx

00000d84 <l902>:
 d84:	51e03a72 	mvnpl	r3, r2, ror sl

00000d88 <l903>:
 d88:	250db01c 	strcs	fp, [sp, #-28]

00000d8c <l904>:
 d8c:	62978008 	addsvs	r8, r7, #8

00000d90 <l905>:
 d90:	533a0008 	teqpl	sl, #8

00000d94 <l906>:
 d94:	251d8028 	ldrcs	r8, [sp, #-40]	; 0x28

00000d98 <l907>:
 d98:	e3e0a008 	mvn	sl, #8

00000d9c <l908>:
 d9c:	6092c00b 	addsvs	ip, r2, fp

00000da0 <l909>:
 da0:	e08c2a74 	add	r2, ip, r4, ror sl

00000da4 <l910>:
 da4:	a039700b 	eorsge	r7, r9, fp

00000da8 <l911>:
 da8:	63b0c008 	movsvs	ip, #8

00000dac <l912>:
 dac:	102ea00c 	eorne	sl, lr, ip

00000db0 <l913>:
 db0:	e1e0000a 	mvn	r0, sl

00000db4 <l914>:
 db4:	c3d92008 	bicsgt	r2, r9, #8

00000db8 <l915>:
 db8:	80386007 	eorshi	r6, r8, r7

00000dbc <l916>:
 dbc:	250d4008 	strcs	r4, [sp, #-8]

00000dc0 <l917>:
 dc0:	e064400e 	rsb	r4, r4, lr

00000dc4 <l918>:
 dc4:	a0a79004 	adcge	r9, r7, r4

00000dc8 <l919>:
 dc8:	8a000005 	bhi	de4 <l926>

00000dcc <l920>:
 dcc:	01f02060 	mvnseq	r2, r0, rrx

00000dd0 <l921>:
 dd0:	d0ac997b 	adcle	r9, ip, fp, ror r9

00000dd4 <l922>:
 dd4:	604e8469 	subvs	r8, lr, r9, ror #8

00000dd8 <l923>:
 dd8:	51a02429 	lsrpl	r2, r9, #8

00000ddc <l924>:
 ddc:	333e0008 	teqcc	lr, #8

00000de0 <l925>:
 de0:	c119044e 	tstgt	r9, lr, asr #8

00000de4 <l926>:
 de4:	33510008 	cmpcc	r1, #8

00000de8 <l927>:
 de8:	ea000001 	b	df4 <l931>

00000dec <l928>:
 dec:	e280100f 	add	r1, r0, #15

00000df0 <l929>:
 df0:	ea000000 	b	df8 <l932>

00000df4 <l931>:
 df4:	eafffffd 	b	df0 <l929>

00000df8 <l932>:
 df8:	01510444 	cmpeq	r1, r4, asr #8

00000dfc <l933>:
 dfc:	d0d7906a 	sbcsle	r9, r7, sl, rrx

00000e00 <l934>:
 e00:	21320000 	teqcs	r2, r0

00000e04 <l935>:
 e04:	e1120002 	tst	r2, r2

00000e08 <l936>:
 e08:	51e0200c 	mvnpl	r2, ip

00000e0c <l937>:
 e0c:	4014e00a 	andsmi	lr, r4, sl

00000e10 <l938>:
 e10:	70208003 	eorvc	r8, r0, r3

00000e14 <l939>:
 e14:	80b8042a 	adcshi	r0, r8, sl, lsr #8

00000e18 <l940>:
 e18:	417a0067 	cmnmi	sl, r7, rrx

00000e1c <l941>:
 e1c:	3050400a 	subscc	r4, r0, sl

00000e20 <l942>:
 e20:	104e900a 	subne	r9, lr, sl

00000e24 <l943>:
 e24:	e50d0014 	str	r0, [sp, #-20]

00000e28 <l944>:
 e28:	8a000003 	bhi	e3c <l949>

00000e2c <l945>:
 e2c:	c0a27442 	adcgt	r7, r2, r2, asr #8

00000e30 <l946>:
 e30:	e021b00b 	eor	fp, r1, fp

00000e34 <l947>:
 e34:	c50d600c 	strgt	r6, [sp, #-12]

00000e38 <l948>:
 e38:	a015300e 	andsge	r3, r5, lr

00000e3c <l949>:
 e3c:	7a000007 	bvc	e60 <l958>

00000e40 <l950>:
 e40:	9019200e 	andsls	r2, r9, lr

00000e44 <l951>:
 e44:	ba000000 	blt	e4c <l953>

00000e48 <l952>:
 e48:	83120008 	tsthi	r2, #8

00000e4c <l953>:
 e4c:	ea000008 	b	e74 <l963>

00000e50 <l954>:
 e50:	41d3000b 	bicsmi	r0, r3, fp

00000e54 <l955>:
 e54:	7041ca5e 	subvc	ip, r1, lr, asr sl

00000e58 <l956>:
 e58:	21770009 	cmncs	r7, r9

00000e5c <l957>:
 e5c:	91570212 	cmpls	r7, r2, lsl r2

00000e60 <l958>:
 e60:	d3cc4008 	bicle	r4, ip, #8

00000e64 <l959>:
 e64:	ea000005 	b	e80 <l966>

00000e68 <l960>:
 e68:	e3a00008 	mov	r0, #8

00000e6c <l961>:
 e6c:	e062546a 	rsb	r5, r2, sl, ror #8

00000e70 <l962>:
 e70:	651d0008 	ldrvs	r0, [sp, #-8]

00000e74 <l963>:
 e74:	2001a000 	andcs	sl, r1, r0

00000e78 <l964>:
 e78:	e51d3020 	ldr	r3, [sp, #-32]

00000e7c <l965>:
 e7c:	51a09060 	rrxpl	r9, r0

00000e80 <l966>:
 e80:	8a000001 	bhi	e8c <l973>

00000e84 <l967>:
 e84:	e2801009 	add	r1, r0, #9

00000e88 <l968>:
 e88:	ea000000 	b	e90 <l974>

00000e8c <l973>:
 e8c:	eafffffd 	b	e88 <l968>

00000e90 <l974>:
 e90:	415a0447 	cmpmi	sl, r7, asr #8

00000e94 <l975>:
 e94:	e1580068 	cmp	r8, r8, rrx

00000e98 <l976>:
 e98:	aa000005 	bge	eb4 <l983>

00000e9c <l977>:
 e9c:	80715062 	rsbshi	r5, r1, r2, rrx

00000ea0 <l978>:
 ea0:	e3e00008 	mvn	r0, #8

00000ea4 <l979>:
 ea4:	118a000c 	orrne	r0, sl, ip

00000ea8 <l980>:
 ea8:	e0098001 	and	r8, r9, r1

00000eac <l981>:
 eac:	d0c9a060 	sbcle	sl, r9, r0, rrx

00000eb0 <l982>:
 eb0:	c51d2004 	ldrgt	r2, [sp, #-4]

00000eb4 <l983>:
 eb4:	018b2000 	orreq	r2, fp, r0

00000eb8 <l984>:
 eb8:	e0c6c006 	sbc	ip, r6, r6

00000ebc <l985>:
 ebc:	51760002 	cmnpl	r6, r2

00000ec0 <l986>:
 ec0:	31590a53 	cmpcc	r9, r3, asr sl

00000ec4 <l987>:
 ec4:	750d9024 	strvc	r9, [sp, #-36]	; 0x24

00000ec8 <l988>:
 ec8:	302aa00c 	eorcc	sl, sl, ip

00000ecc <l989>:
 ecc:	b0d09009 	sbcslt	r9, r0, r9

00000ed0 <l990>:
 ed0:	21864002 	orrcs	r4, r6, r2

00000ed4 <l991>:
 ed4:	a1c8e42e 	bicge	lr, r8, lr, lsr #8

00000ed8 <l992>:
 ed8:	b26b3008 	rsblt	r3, fp, #8

00000edc <l993>:
 edc:	950d4010 	strls	r4, [sp, #-16]

00000ee0 <l994>:
 ee0:	e000c002 	and	ip, r0, r2

00000ee4 <l995>:
 ee4:	150d5008 	strne	r5, [sp, #-8]

00000ee8 <l996>:
 ee8:	d1e02a1a 	mvnle	r2, sl, lsl sl

00000eec <l997>:
 eec:	9139051c 	teqls	r9, ip, lsl r5

00000ef0 <l998>:
 ef0:	83310008 	teqhi	r1, #8

00000ef4 <l999>:
 ef4:	81f03001 	mvnshi	r3, r1

00000ef8 <l1000>:
 ef8:	950d9008 	strls	r9, [sp, #-8]

00000efc <end>:
 efc:	eafffffe 	b	efc <end>
