
setUpTranslation.o:     file format elf32-littlearm


Disassembly of section .text:

00000000 <start>:
   0:	ea00001a 	b	70 <reset>
   4:	ea00001d 	b	80 <undef>
   8:	ea000019 	b	74 <swi>
   c:	ea00001c 	b	84 <pfa>
  10:	ea00001c 	b	88 <da>
  14:	e1a00000 	nop			; (mov r0, r0)
  18:	ea00001b 	b	8c <irq>
  1c:	ea00001b 	b	90 <fiq>

00000020 <prog>:
  20:	e3a01c03 	mov	r1, #768	; 0x300
  24:	ee011f10 	mcr	15, 0, r1, cr1, cr0, {0}
  28:	e3a01603 	mov	r1, #3145728	; 0x300000
  2c:	e59f2060 	ldr	r2, [pc, #96]	; 94 <fiq+0x4>
  30:	e5812000 	str	r2, [r1]
  34:	e59f105c 	ldr	r1, [pc, #92]	; 98 <fiq+0x8>
  38:	e59f205c 	ldr	r2, [pc, #92]	; 9c <fiq+0xc>
  3c:	e5812000 	str	r2, [r1]
  40:	e59f1058 	ldr	r1, [pc, #88]	; a0 <fiq+0x10>
  44:	e59f2058 	ldr	r2, [pc, #88]	; a4 <fiq+0x14>
  48:	e5812000 	str	r2, [r1]
  4c:	e3a01603 	mov	r1, #3145728	; 0x300000
  50:	ee021f10 	mcr	15, 0, r1, cr2, cr0, {0}
  54:	ee011f10 	mcr	15, 0, r1, cr1, cr0, {0}
  58:	e3811001 	orr	r1, r1, #1
  5c:	ee011f10 	mcr	15, 0, r1, cr1, cr0, {0}
  60:	e59f5040 	ldr	r5, [pc, #64]	; a8 <fiq+0x18>
  64:	e3a04821 	mov	r4, #2162688	; 0x210000
  68:	e5845000 	str	r5, [r4]

0000006c <stop>:
  6c:	eafffffe 	b	6c <stop>

00000070 <reset>:
  70:	eaffffea 	b	20 <prog>

00000074 <swi>:
  74:	e0812002 	add	r2, r1, r2
  78:	e1a01002 	mov	r1, r2
  7c:	e1b0f00e 	movs	pc, lr

00000080 <undef>:
  80:	eaffffe6 	b	20 <prog>

00000084 <pfa>:
  84:	eaffffe5 	b	20 <prog>

00000088 <da>:
  88:	eaffffe4 	b	20 <prog>

0000008c <irq>:
  8c:	eaffffe3 	b	20 <prog>

00000090 <fiq>:
  90:	eaffffe2 	b	20 <prog>
  94:	0003fdee 	.word	0x0003fdee
  98:	00300004 	.word	0x00300004
  9c:	0423fdee 	.word	0x0423fdee
  a0:	00300008 	.word	0x00300008
  a4:	0833fdee 	.word	0x0833fdee
  a8:	11112222 	.word	0x11112222
